(dp0
S'good guy greg'
p1
I271
sS'socially awesome penguin'
p2
I60
sS'success kid'
p3
I574
sS'philosoraptor'
p4
I356
sS'the most interesting man in the world'
p5
I340
sS'forever alone'
p6
I330
sS'scumbag steve'
p7
I366
sS'paranoid parrot'
p8
I323
sS'insanity wolf'
p9
I293
sS'futurama fry'
p10
I521
sS'first world problems'
p11
I411
sS'foul bachelor frog'
p12
I404
sS'socially awkward penguin'
p13
I1092
s.