(dp0
Vhelpful-tyler-durden
p1
I525
sVbad-luck-brian
p2
I1553
sVinsanity-wolf
p3
I4342
sVsuccess-kid
p4
I15895
sVscumbag-steve
p5
I3538
sVgood-guy-greg--9
p6
I202
sVsocially-awkward-penguin
p7
I5534
sVsuccessful-black-man
p8
I1679
sVsheltered-college-freshman
p9
I546
sVengineering-professor
p10
I1165
sVconfession-bear
p11
I372
sVfoul-bachelorette-frog
p12
I328
sVcollege-freshman
p13
I1102
sVphilosoraptor
p14
I10837
sVconspiracy-keanu
p15
I2393
sVkarate-kyle
p16
I1356
sVgrandma-finds-the-internet
p17
I2298
sVbusiness-cat
p18
I5700
sVvengeance-dad
p19
I1580
sVbear-grylls
p20
I2831
sVmusically-oblivious-8th-grader
p21
I1961
sVdwight-schrute
p22
I1984
sVpicard-wtf
p23
I1888
sVwinter-is-coming
p24
I6111
sVthird-world-success-kid
p25
I854
sVthe-most-interesting-man-in-the-world
p26
I18108
sVfoul-bachelor-frog
p27
I1841
sVsuper-cool-ski-instructor
p28
I331
sVcreepy-willy-wonka
p29
I15829
sVstoner-dog
p30
I1211
sVrasta-science-teacher
p31
I794
sVtroll-face
p32
I4739
sVannoying-facebook-girl
p33
I5321
sVlazy-college-senior
p34
I1
sVjesus-says
p35
I11409
sVbutthurt-dweller
p36
I2911
sVy-u-no
p37
I54626
sVhigh-expectations-asian-father
p38
I5922
sVhawkward
p39
I350
sV10-guy
p40
I468
sVhipster-ariel
p41
I1377
sVcourage-wolf
p42
I2801
sVcondescending-fox
p43
I697
sVsexually-oblivious-rhino
p44
I538
sVforever-alone
p45
I6040
sVpedobear
p46
I2180
sVjoseph-ducreux
p47
I3544
sVoverly-attached-girlfriend
p48
I462
sVredneck-randal
p49
I1038
sVhipster-kitty
p50
I2671
sVfuturama-fry
p51
I9239
sVdatable-beard-man
p52
I1621
sVsocially-awesome-penguin
p53
I1255
sVparanoid-parrot
p54
I1371
sVadvice-god
p55
I677
s.