(lp0
(dp1
S'ha__ALL__'
p2
I01
sS'reason__TOP__'
p3
I01
sS'posit__BOTTOM__'
p4
I01
sS'a__ALL__'
p5
I01
sS'for__BOTTOM__'
p6
I01
sS'There__ALL__'
p7
I01
sS'reason__ALL__'
p8
I01
sS'Adam__ALL__'
p9
I01
sS'you__ALL__'
p10
I01
sS'you__BOTTOM__'
p11
I01
sS'There__TOP__'
p12
I01
sS'for__ALL__'
p13
I01
sS'no__ALL__'
p14
I01
sS'be__ALL__'
p15
I01
sS'Adam__BOTTOM__'
p16
I01
sS'no__TOP__'
p17
I01
sS'ha__BOTTOM__'
p18
I01
sS'be__TOP__'
p19
I01
sS'to__ALL__'
p20
I01
sS'sad__TOP__'
p21
I01
sS'posit__ALL__'
p22
I01
sS'a__BOTTOM__'
p23
I01
sS'to__TOP__'
p24
I01
sS'sad__ALL__'
p25
I01
sS'is__ALL__'
p26
I01
sS'is__TOP__'
p27
I01
sa(dp28
S'.__BOTTOM__'
p29
I01
sS'teach__BOTTOM__'
p30
I01
sS'.__ALL__'
p31
I01
sS'how__TOP__'
p32
I01
sS'health__BOTTOM__'
p33
I01
sS'we__ALL__'
p34
I01
sS'are__ALL__'
p35
I01
sS'class__BOTTOM__'
p36
I01
sS'Mr__ALL__'
p37
I01
sS'are__TOP__'
p38
I01
sS'When__ALL__'
p39
I01
sS'class__ALL__'
p40
I01
sS'Mr__BOTTOM__'
p41
I01
sS'down__ALL__'
p42
I01
sS'health__ALL__'
p43
I01
sS'down__BOTTOM__'
p44
I01
sS'we__TOP__'
p45
I01
sS'how__ALL__'
p46
I01
sS'teach__ALL__'
p47
I01
sS'When__BOTTOM__'
p48
I01
sa(dp49
S'check__TOP__'
p50
I01
sS'Bro__ALL__'
p51
I01
sS'check__ALL__'
p52
I01
sS'toy__ALL__'
p53
I01
sS'Bro__TOP__'
p54
I01
sS'sex__ALL__'
p55
I01
sS'sex__BOTTOM__'
p56
I01
sS'out__TOP__'
p57
I01
sS'that__BOTTOM__'
p58
I01
sS'that__ALL__'
p59
I01
sS'toy__BOTTOM__'
p60
I01
sS'out__ALL__'
p61
I01
sa(dp62
S'away__ALL__'
p63
I01
sS'away__BOTTOM__'
p64
I01
sS'a__TOP__'
p65
I01
sS'and__ALL__'
p66
I01
sS'pussi__TOP__'
p67
I01
sS'and__BOTTOM__'
p68
I01
sS'what__ALL__'
p69
I01
sS'pussi__ALL__'
p70
I01
sS'your__BOTTOM__'
p71
I01
sS'call__ALL__'
p72
I01
sS'a__ALL__'
p73
I01
sS'run__BOTTOM__'
p74
I01
sS'call__TOP__'
p75
I01
sS'you__ALL__'
p76
I01
sS'run__ALL__'
p77
I01
sS'what__TOP__'
p78
I01
sS'with__ALL__'
p79
I01
sS'you__TOP__'
p80
I01
sS'be__ALL__'
p81
I01
sS'your__ALL__'
p82
I01
sS'down__BOTTOM__'
p83
I01
sS'be__TOP__'
p84
I01
sS'with__BOTTOM__'
p85
I01
sS'is__ALL__'
p86
I01
sS'That__ALL__'
p87
I01
sS'is__TOP__'
p88
I01
sS'down__ALL__'
p89
I01
sS'head__ALL__'
p90
I01
sS'head__BOTTOM__'
p91
I01
sS'That__TOP__'
p92
I01
sa(dp93
S'gun__ALL__'
p94
I01
sS'or__BOTTOM__'
p95
I01
sS'firework__TOP__'
p96
I01
sS'or__ALL__'
p97
I01
sS'gun__BOTTOM__'
p98
I01
sS'shot__ALL__'
p99
I01
sS'firework__ALL__'
p100
I01
sS'shot__BOTTOM__'
p101
I01
sa(dp102
S'male__BOTTOM__'
p103
I01
sS'a__ALL__'
p104
I01
sS'striper__BOTTOM__'
p105
I01
sS'male__ALL__'
p106
I01
sS'imagin__ALL__'
p107
I01
sS'a__TOP__'
p108
I01
sS'full__TOP__'
p109
I01
sS'imagin__TOP__'
p110
I01
sS'full__ALL__'
p111
I01
sS'striper__TOP__'
p112
I01
sS'of__TOP__'
p113
I01
sS'of__ALL__'
p114
I01
sS'world__ALL__'
p115
I01
sS'striper__ALL__'
p116
I01
sS'world__TOP__'
p117
I01
sa(dp118
S'Nobodi__BOTTOM__'
p119
I01
sS'about__ALL__'
p120
I01
sS'give__ALL__'
p121
I01
sS'give__BOTTOM__'
p122
I01
sS'what__ALL__'
p123
I01
sS'stori__BOTTOM__'
p124
I01
sS'your__BOTTOM__'
p125
I01
sS'a__ALL__'
p126
I01
sS'!__BOTTOM__'
p127
I01
sS'gUess__ALL__'
p128
I01
sS'Well__ALL__'
p129
I01
sS'Well__TOP__'
p130
I01
sS'Fuck__ALL__'
p131
I01
sS'nigga__BOTTOM__'
p132
I01
sS'nigga__ALL__'
p133
I01
sS'what__TOP__'
p134
I01
sS'about__BOTTOM__'
p135
I01
sS'gUess__TOP__'
p136
I01
sS'stori__ALL__'
p137
I01
sS'your__ALL__'
p138
I01
sS'!__ALL__'
p139
I01
sS'a__BOTTOM__'
p140
I01
sS'Fuck__BOTTOM__'
p141
I01
sS'Nobodi__ALL__'
p142
I01
sS'life__ALL__'
p143
I01
sS'life__BOTTOM__'
p144
I01
sa(dp145
S'daddi__BOTTOM__'
p146
I01
sS'for__BOTTOM__'
p147
I01
sS'daddi__ALL__'
p148
I01
sS'imagin__ALL__'
p149
I01
sS'not__ALL__'
p150
I01
sS'ur__ALL__'
p151
I01
sS'ur__BOTTOM__'
p152
I01
sS'imagin__TOP__'
p153
I01
sS'jeep__ALL__'
p154
I01
sS'not__BOTTOM__'
p155
I01
sS'pay__BOTTOM__'
p156
I01
sS'jeep__BOTTOM__'
p157
I01
sS'pay__ALL__'
p158
I01
sS'tyler__TOP__'
p159
I01
sS'tyler__ALL__'
p160
I01
sS'for__ALL__'
p161
I01
sa(dp162
S'All__ALL__'
p163
I01
sS'all__BOTTOM__'
p164
I01
sS'world__BOTTOM__'
p165
I01
sS'All__TOP__'
p166
I01
sS'pepoL__TOP__'
p167
I01
sS'Fart__ALL__'
p168
I01
sS'all__ALL__'
p169
I01
sS'pepoL__ALL__'
p170
I01
sS'Fart__BOTTOM__'
p171
I01
sS'world__ALL__'
p172
I01
sS'the__ALL__'
p173
I01
sS'the__BOTTOM__'
p174
I01
sa(dp175
S'look__ALL__'
p176
I01
sS'woodi__TOP__'
p177
I01
sS'look__TOP__'
p178
I01
sS'justin__BOTTOM__'
p179
I01
sS'beiber__BOTTOM__'
p180
I01
sS'beiber__ALL__'
p181
I01
sS'it__BOTTOM__'
p182
I01
sS'it__ALL__'
p183
I01
sS'woodi__ALL__'
p184
I01
sS'justin__ALL__'
p185
I01
sa(dp186
S'aNout__ALL__'
p187
I01
sS'bruin__ALL__'
p188
I01
sS'aNout__TOP__'
p189
I01
sS'Dont__TOP__'
p190
I01
sS'game__BOTTOM__'
p191
I01
sS'bruin__BOTTOM__'
p192
I01
sS'Win__ALL__'
p193
I01
sS'The__ALL__'
p194
I01
sS'worri__ALL__'
p195
I01
sS'it__TOP__'
p196
I01
sS'game__ALL__'
p197
I01
sS'worri__TOP__'
p198
I01
sS'Dont__ALL__'
p199
I01
sS'it__ALL__'
p200
I01
sS'The__BOTTOM__'
p201
I01
sS'wiLl__BOTTOM__'
p202
I01
sS'Win__BOTTOM__'
p203
I01
sS'wiLl__ALL__'
p204
I01
sS'the__ALL__'
p205
I01
sS'the__BOTTOM__'
p206
I01
sS'next__ALL__'
p207
I01
sS'next__BOTTOM__'
p208
I01
sa(dp209
S'Atlest__TOP__'
p210
I01
sS'gill__ALL__'
p211
I01
sS'we__ALL__'
p212
I01
sS'arent__TOP__'
p213
I01
sS'gill__BOTTOM__'
p214
I01
sS'as__TOP__'
p215
I01
sS'...__ALL__'
p216
I01
sS'arent__ALL__'
p217
I01
sS'Atlest__ALL__'
p218
I01
sS'small__ALL__'
p219
I01
sS'as__ALL__'
p220
I01
sS'...__TOP__'
p221
I01
sS'Bobbi__BOTTOM__'
p222
I01
sS'small__TOP__'
p223
I01
sS'Bobbi__ALL__'
p224
I01
sS'we__TOP__'
p225
I01
sS'Goddamn__BOTTOM__'
p226
I01
sS'Goddamn__ALL__'
p227
I01
sa(dp228
S'is__ALL__'
p229
I01
sS'talk__BOTTOM__'
p230
I01
sS'michael__BOTTOM__'
p231
I01
sS'?__ALL__'
p232
I01
sS'to__BOTTOM__'
p233
I01
sS'to__ALL__'
p234
I01
sS'ali__BOTTOM__'
p235
I01
sS'see__ALL__'
p236
I01
sS'ali__ALL__'
p237
I01
sS'?__TOP__'
p238
I01
sS'woddi__ALL__'
p239
I01
sS'tri__ALL__'
p240
I01
sS'that__ALL__'
p241
I01
sS'tri__BOTTOM__'
p242
I01
sS'see__TOP__'
p243
I01
sS'talk__ALL__'
p244
I01
sS'woddi__TOP__'
p245
I01
sS'is__BOTTOM__'
p246
I01
sS'michael__ALL__'
p247
I01
sS'that__TOP__'
p248
I01
sa(dp249
S'BORe__ALL__'
p250
I01
sS'blodi__TOP__'
p251
I01
sS'BRAIN__ALL__'
p252
I01
sS'bore__TOP__'
p253
I01
sS'blodi__ALL__'
p254
I01
sS'everywher__ALL__'
p255
I01
sS'BLODi__ALL__'
p256
I01
sS'bore__ALL__'
p257
I01
sS'brain__ALL__'
p258
I01
sS'BLODi__BOTTOM__'
p259
I01
sS'BORe__BOTTOM__'
p260
I01
sS'everywher__BOTTOM__'
p261
I01
sS'BRAIN__BOTTOM__'
p262
I01
sS'brain__TOP__'
p263
I01
sa(dp264
S'Illog__TOP__'
p265
I01
sS'everywher__ALL__'
p266
I01
sS'peopl__TOP__'
p267
I01
sS'peopl__ALL__'
p268
I01
sS'Illog__ALL__'
p269
I01
sS'Illog__BOTTOM__'
p270
I01
sS'peopl__BOTTOM__'
p271
I01
sS'everywher__BOTTOM__'
p272
I01
sa(dp273
S'servic__TOP__'
p274
I01
sS'servic__ALL__'
p275
I01
sS'servic__BOTTOM__'
p276
I01
sS'BAD__ALL__'
p277
I01
sS'BAD__BOTTOM__'
p278
I01
sS'everywher__ALL__'
p279
I01
sS'everywher__BOTTOM__'
p280
I01
sS'BAD__TOP__'
p281
I01
sa(dp282
S'over__ALL__'
p283
I01
sS'hey__ALL__'
p284
I01
sS'there__BOTTOM__'
p285
I01
sS'over__BOTTOM__'
p286
I01
sS'there__ALL__'
p287
I01
sS'mom__ALL__'
p288
I01
sS'is__ALL__'
p289
I01
sS'that__ALL__'
p290
I01
sS'is__TOP__'
p291
I01
sS'mom__BOTTOM__'
p292
I01
sS'your__ALL__'
p293
I01
sS'hey__TOP__'
p294
I01
sS'your__BOTTOM__'
p295
I01
sS'that__TOP__'
p296
I01
sa(dp297
S'come__ALL__'
p298
I01
sS'land__ALL__'
p299
I01
sS'needl__ALL__'
p300
I01
sS'land__BOTTOM__'
p301
I01
sS'needl__BOTTOM__'
p302
I01
sS'come__BOTTOM__'
p303
I01
sS'happi__BOTTOM__'
p304
I01
sS'happi__ALL__'
p305
I01
sS'in__BOTTOM__'
p306
I01
sS'in__ALL__'
p307
I01
sa(dp308
S'mood__ALL__'
p309
I01
sS'mood__BOTTOM__'
p310
I01
sS'care__ALL__'
p311
I01
sS'care__TOP__'
p312
I01
sS'a__BOTTOM__'
p313
I01
sS'...__ALL__'
p314
I01
sS'in__ALL__'
p315
I01
sS'bad__ALL__'
p316
I01
sS'bad__BOTTOM__'
p317
I01
sS'a__ALL__'
p318
I01
sS'in__BOTTOM__'
p319
I01
sS'...__TOP__'
p320
I01
sS'Bob__ALL__'
p321
I01
sS'Bob__BOTTOM__'
p322
I01
sS"'s__ALL__"
p323
I01
sS'Be__TOP__'
p324
I01
sS'Be__ALL__'
p325
I01
sS"'s__BOTTOM__"
p326
I01
sa(dp327
S'Think__TOP__'
p328
I01
sS'a__ALL__'
p329
I01
sS'no__BOTTOM__'
p330
I01
sS'Think__ALL__'
p331
I01
sS'a__BOTTOM__'
p332
I01
sS'fuck__ALL__'
p333
I01
sS'fuck__BOTTOM__'
p334
I01
sS'one__ALL__'
p335
I01
sS'one__BOTTOM__'
p336
I01
sS'your__TOP__'
p337
I01
sS'give__ALL__'
p338
I01
sS'give__BOTTOM__'
p339
I01
sS'of__TOP__'
p340
I01
sS'dream__TOP__'
p341
I01
sS'your__ALL__'
p342
I01
sS'of__ALL__'
p343
I01
sS'dream__ALL__'
p344
I01
sS'no__ALL__'
p345
I01
sa(dp346
S'itzzt3ck__ALL__'
p347
I01
sS'is__ALL__'
p348
I01
sS"n't__ALL__"
p349
I01
sS'a__BOTTOM__'
p350
I01
sS'noob__BOTTOM__'
p351
I01
sS'noob__ALL__'
p352
I01
sS'a__ALL__'
p353
I01
sS"n't__TOP__"
p354
I01
sS'Do__TOP__'
p355
I01
sS'worri__TOP__'
p356
I01
sS'Do__ALL__'
p357
I01
sS'worri__ALL__'
p358
I01
sS'too__BOTTOM__'
p359
I01
sS'too__ALL__'
p360
I01
sS'woddi__ALL__'
p361
I01
sS'woddi__TOP__'
p362
I01
sS'is__BOTTOM__'
p363
I01
sS'itzzt3ck__BOTTOM__'
p364
I01
sa(dp365
S'thesi__BOTTOM__'
p366
I01
sS'thi__TOP__'
p367
I01
sS'thesi__ALL__'
p368
I01
sS'be__ALL__'
p369
I01
sS'thi__ALL__'
p370
I01
sS'how__ALL__'
p371
I01
sS'As__TOP__'
p372
I01
sS'is__BOTTOM__'
p373
I01
sS'is__ALL__'
p374
I01
sS'long__BOTTOM__'
p375
I01
sS'should__BOTTOM__'
p376
I01
sS'be__BOTTOM__'
p377
I01
sS'your__ALL__'
p378
I01
sS'As__ALL__'
p379
I01
sS'long__ALL__'
p380
I01
sS'how__BOTTOM__'
p381
I01
sS'should__ALL__'
p382
I01
sS'your__BOTTOM__'
p383
I01
sa(dp384
S'chick__BOTTOM__'
p385
I01
sS'Fat__ALL__'
p386
I01
sS'Fat__TOP__'
p387
I01
sS'fat__BOTTOM__'
p388
I01
sS'fat__ALL__'
p389
I01
sS'everywher__ALL__'
p390
I01
sS'chick__TOP__'
p391
I01
sS'everywher__BOTTOM__'
p392
I01
sS'chick__ALL__'
p393
I01
sa(dp394
S'.__BOTTOM__'
p395
I01
sS'everywher__ALL__'
p396
I01
sS'.__ALL__'
p397
I01
sS'Zettabyt__TOP__'
p398
I01
sS'Zetabyt__ALL__'
p399
I01
sS'Zetabyt__BOTTOM__'
p400
I01
sS'Zettabyt__ALL__'
p401
I01
sS'...__ALL__'
p402
I01
sS'hard__BOTTOM__'
p403
I01
sS'hard__ALL__'
p404
I01
sS'...__TOP__'
p405
I01
sS'everywher__BOTTOM__'
p406
I01
sS'drive__BOTTOM__'
p407
I01
sS'drive__ALL__'
p408
I01
sa(dp409
S'think__TOP__'
p410
I01
sS'a__ALL__'
p411
I01
sS'think__ALL__'
p412
I01
sS'virgin__BOTTOM__'
p413
I01
sS'a__BOTTOM__'
p414
I01
sS"'ll__BOTTOM__"
p415
I01
sS'just__ALL__'
p416
I01
sS"'ll__ALL__"
p417
I01
sS'die__BOTTOM__'
p418
I01
sS'just__TOP__'
p419
I01
sS'die__ALL__'
p420
I01
sS'virgin__ALL__'
p421
I01
sS'you__ALL__'
p422
I01
sS'you__BOTTOM__'
p423
I01
sa(dp424
S'.__BOTTOM__'
p425
I01
sS'warrant__TOP__'
p426
I01
sS'.__ALL__'
p427
I01
sS'warrant__ALL__'
p428
I01
sS'everywher__ALL__'
p429
I01
sS'Warrant__BOTTOM__'
p430
I01
sS'Warrant__ALL__'
p431
I01
sS'Outstand__TOP__'
p432
I01
sS'everywher__BOTTOM__'
p433
I01
sS'Outstand__ALL__'
p434
I01
sS'.__TOP__'
p435
I01
sa(dp436
S'there__BOTTOM__'
p437
I01
sS'there__ALL__'
p438
I01
sS'look__TOP__'
p439
I01
sS'chanc__BOTTOM__'
p440
I01
sS'the__TOP__'
p441
I01
sS'out__TOP__'
p442
I01
sS'will__ALL__'
p443
I01
sS'at__ALL__'
p444
I01
sS'out__ALL__'
p445
I01
sS'look__ALL__'
p446
I01
sS'a__ALL__'
p447
I01
sS'%__BOTTOM__'
p448
I01
sS'replac__BOTTOM__'
p449
I01
sS'you__ALL__'
p450
I01
sS'you__BOTTOM__'
p451
I01
sS'will__BOTTOM__'
p452
I01
sS'%__ALL__'
p453
I01
sS'replac__ALL__'
p454
I01
sS'be__ALL__'
p455
I01
sS'that__ALL__'
p456
I01
sS'that__BOTTOM__'
p457
I01
sS'world__TOP__'
p458
I01
sS'be__BOTTOM__'
p459
I01
sS'world__ALL__'
p460
I01
sS'is__BOTTOM__'
p461
I01
sS'99__ALL__'
p462
I01
sS'a__BOTTOM__'
p463
I01
sS'chanc__ALL__'
p464
I01
sS'is__ALL__'
p465
I01
sS'the__ALL__'
p466
I01
sS'at__TOP__'
p467
I01
sS'99__BOTTOM__'
p468
I01
sS'there__TOP__'
p469
I01
sa(dp470
S'sum__TOP__'
p471
I01
sS'see__ALL__'
p472
I01
sS'a__ALL__'
p473
I01
sS'titt__TOP__'
p474
I01
sS'guy__ALL__'
p475
I01
sS'sum__ALL__'
p476
I01
sS'ta__BOTTOM__'
p477
I01
sS'a__TOP__'
p478
I01
sS'ta__ALL__'
p479
I01
sS'titt__ALL__'
p480
I01
sS'thot__BOTTOM__'
p481
I01
sS'guy__TOP__'
p482
I01
sS'see__BOTTOM__'
p483
I01
sS'when__ALL__'
p484
I01
sS'want__ALL__'
p485
I01
sS'when__TOP__'
p486
I01
sS'he__ALL__'
p487
I01
sS'see__TOP__'
p488
I01
sS'want__BOTTOM__'
p489
I01
sS'he__BOTTOM__'
p490
I01
sS'thot__ALL__'
p491
I01
sa(dp492
S'nowher__BOTTOM__'
p493
I01
sS'dont__ALL__'
p494
I01
sS'.__ALL__'
p495
I01
sS'near__ALL__'
p496
I01
sS'action__BOTTOM__'
p497
I01
sS'mean__BOTTOM__'
p498
I01
sS'figur__BOTTOM__'
p499
I01
sS'worri__ALL__'
p500
I01
sS'look__ALL__'
p501
I01
sS'sure__BOTTOM__'
p502
I01
sS'near__BOTTOM__'
p503
I01
sS'sure__ALL__'
p504
I01
sS'worri__TOP__'
p505
I01
sS'as__ALL__'
p506
I01
sS',__TOP__'
p507
I01
sS'he__ALL__'
p508
I01
sS'broli__BOTTOM__'
p509
I01
sS',__ALL__'
p510
I01
sS'im__BOTTOM__'
p511
I01
sS'that__ALL__'
p512
I01
sS'that__BOTTOM__'
p513
I01
sS'.__BOTTOM__'
p514
I01
sS'is__BOTTOM__'
p515
I01
sS'as__BOTTOM__'
p516
I01
sS'look__BOTTOM__'
p517
I01
sS'woodi__TOP__'
p518
I01
sS'dont__TOP__'
p519
I01
sS'im__ALL__'
p520
I01
sS'mean__ALL__'
p521
I01
sS'broli__ALL__'
p522
I01
sS'is__ALL__'
p523
I01
sS'nowher__ALL__'
p524
I01
sS'action__ALL__'
p525
I01
sS'woodi__ALL__'
p526
I01
sS'figur__ALL__'
p527
I01
sS'he__BOTTOM__'
p528
I01
sa(dp529
S'to__ALL__'
p530
I01
sS'solja__BOTTOM__'
p531
I01
sS'lol__ALL__'
p532
I01
sS'solja__ALL__'
p533
I01
sS'to__BOTTOM__'
p534
I01
sS'nonsens__BOTTOM__'
p535
I01
sS'are__ALL__'
p536
I01
sS'boy__BOTTOM__'
p537
I01
sS'lol__TOP__'
p538
I01
sS'boy__ALL__'
p539
I01
sS'are__BOTTOM__'
p540
I01
sS'nonsens__ALL__'
p541
I01
sS'their__ALL__'
p542
I01
sS'up__BOTTOM__'
p543
I01
sS'still__BOTTOM__'
p544
I01
sS'up__ALL__'
p545
I01
sS'still__ALL__'
p546
I01
sS'the__ALL__'
p547
I01
sS'the__BOTTOM__'
p548
I01
sS'their__BOTTOM__'
p549
I01
sa(dp550
S'is__ALL__'
p551
I01
sS'where__BOTTOM__'
p552
I01
sS'thi__TOP__'
p553
I01
sS'go__ALL__'
p554
I01
sS'to__BOTTOM__'
p555
I01
sS'to__ALL__'
p556
I01
sS'thi__ALL__'
p557
I01
sS'see__ALL__'
p558
I01
sS'dream__ALL__'
p559
I01
sS'die__BOTTOM__'
p560
I01
sS'go__BOTTOM__'
p561
I01
sS'thi__BOTTOM__'
p562
I01
sS'see__TOP__'
p563
I01
sS'dream__BOTTOM__'
p564
I01
sS'is__BOTTOM__'
p565
I01
sS'where__ALL__'
p566
I01
sS'die__ALL__'
p567
I01
sa(dp568
S'to__ALL__'
p569
I01
sS'got__BOTTOM__'
p570
I01
sS'u__TOP__'
p571
I01
sS'to__BOTTOM__'
p572
I01
sS'leav__BOTTOM__'
p573
I01
sS'u__ALL__'
p574
I01
sS'see__ALL__'
p575
I01
sS'see__TOP__'
p576
I01
sS'leav__ALL__'
p577
I01
sS'got__ALL__'
p578
I01
sa(dp579
S'world__BOTTOM__'
p580
I01
sS'i__ALL__'
p581
I01
sS'know__ALL__'
p582
I01
sS'eat__TOP__'
p583
I01
sS'me__ALL__'
p584
I01
sS'eat__ALL__'
p585
I01
sS'and__ALL__'
p586
I01
sS'beat__ALL__'
p587
I01
sS'run__ALL__'
p588
I01
sS'world__ALL__'
p589
I01
sS'The__ALL__'
p590
I01
sS'and__TOP__'
p591
I01
sS'!__ALL__'
p592
I01
sS'beat__TOP__'
p593
I01
sS'!__BOTTOM__'
p594
I01
sS'XD__ALL__'
p595
I01
sS'fli__TOP__'
p596
I01
sS'can__TOP__'
p597
I01
sS'me__TOP__'
p598
I01
sS'can__ALL__'
p599
I01
sS'!__TOP__'
p600
I01
sS'fli__ALL__'
p601
I01
sS',__TOP__'
p602
I01
sS'run__TOP__'
p603
I01
sS'die__TOP__'
p604
I01
sS',__ALL__'
p605
I01
sS'know__BOTTOM__'
p606
I01
sS'that__ALL__'
p607
I01
sS'that__BOTTOM__'
p608
I01
sS'The__BOTTOM__'
p609
I01
sS'Listen__ALL__'
p610
I01
sS'to__ALL__'
p611
I01
sS'i__TOP__'
p612
I01
sS'probabl__TOP__'
p613
I01
sS'woodi__TOP__'
p614
I01
sS'probabl__ALL__'
p615
I01
sS'woodi__ALL__'
p616
I01
sS'to__TOP__'
p617
I01
sS'XD__BOTTOM__'
p618
I01
sS'Listen__TOP__'
p619
I01
sS'whole__BOTTOM__'
p620
I01
sS'whole__ALL__'
p621
I01
sS'die__ALL__'
p622
I01
sa(dp623
S'kiss__TOP__'
p624
I01
sS'ass__BOTTOM__'
p625
I01
sS'everywher__ALL__'
p626
I01
sS'ass__ALL__'
p627
I01
sS'everywher__BOTTOM__'
p628
I01
sS'kiss__BOTTOM__'
p629
I01
sS'kiss__ALL__'
p630
I01
sS'ass__TOP__'
p631
I01
sa(dp632
S'left__TOP__'
p633
I01
sS'look__TOP__'
p634
I01
sS"'ll__BOTTOM__"
p635
I01
sS'see__BOTTOM__'
p636
I01
sS'and__ALL__'
p637
I01
sS'and__TOP__'
p638
I01
sS'if__TOP__'
p639
I01
sS'look__ALL__'
p640
I01
sS'potato__ALL__'
p641
I01
sS'if__ALL__'
p642
I01
sS'you__ALL__'
p643
I01
sS'you__BOTTOM__'
p644
I01
sS'an__ALL__'
p645
I01
sS"'ll__ALL__"
p646
I01
sS'you__TOP__'
p647
I01
sS'your__ALL__'
p648
I01
sS'uncook__BOTTOM__'
p649
I01
sS'to__ALL__'
p650
I01
sS'left__ALL__'
p651
I01
sS'an__BOTTOM__'
p652
I01
sS'to__TOP__'
p653
I01
sS'see__ALL__'
p654
I01
sS'your__TOP__'
p655
I01
sS'uncook__ALL__'
p656
I01
sS'potato__BOTTOM__'
p657
I01
sa(dp658
S'op__ALL__'
p659
I01
sS'point__ALL__'
p660
I01
sS'point__BOTTOM__'
p661
I01
sS'gamebas__TOP__'
p662
I01
sS',__ALL__'
p663
I01
sS'the__TOP__'
p664
I01
sS'offic__ALL__'
p665
I01
sS'everywher__ALL__'
p666
I01
sS',__BOTTOM__'
p667
I01
sS'everywher__BOTTOM__'
p668
I01
sS'the__ALL__'
p669
I01
sS'gamebas__ALL__'
p670
I01
sS'offic__TOP__'
p671
I01
sS'op__TOP__'
p672
I01
sa(dp673
S'firebolt__ALL__'
p674
I01
sS'Fire__TOP__'
p675
I01
sS'Fire__ALL__'
p676
I01
sS'bolt__ALL__'
p677
I01
sS'everywher__ALL__'
p678
I01
sS'everywher__BOTTOM__'
p679
I01
sS'bolt__TOP__'
p680
I01
sS'firebolt__BOTTOM__'
p681
I01
sa(dp682
S'there__BOTTOM__'
p683
I01
sS'needl__ALL__'
p684
I01
sS'then__BOTTOM__'
p685
I01
sS'there__ALL__'
p686
I01
sS'land__BOTTOM__'
p687
I01
sS'land__ALL__'
p688
I01
sS'put__ALL__'
p689
I01
sS'needl__BOTTOM__'
p690
I01
sS'put__BOTTOM__'
p691
I01
sS'happi__BOTTOM__'
p692
I01
sS'happi__ALL__'
p693
I01
sS'in__BOTTOM__'
p694
I01
sS'the__ALL__'
p695
I01
sS'the__BOTTOM__'
p696
I01
sS'in__ALL__'
p697
I01
sS'then__ALL__'
p698
I01
sa(dp699
S'scare__TOP__'
p700
I01
sS'merciless__BOTTOM__'
p701
I01
sS'movi__ALL__'
p702
I01
sS'movi__BOTTOM__'
p703
I01
sS'onli__ALL__'
p704
I01
sS'scare__ALL__'
p705
I01
sS"'m__ALL__"
p706
I01
sS'a__ALL__'
p707
I01
sS"'m__TOP__"
p708
I01
sS'shanklin__TOP__'
p709
I01
sS'shanklin__ALL__'
p710
I01
sS'download__ALL__'
p711
I01
sS"your'__ALL__"
p712
I01
sS'i__ALL__'
p713
I01
sS'stfu__BOTTOM__'
p714
I01
sS',__ALL__'
p715
I01
sS"your'__BOTTOM__"
p716
I01
sS',__BOTTOM__'
p717
I01
sS'onli__BOTTOM__'
p718
I01
sS'i__TOP__'
p719
I01
sS'merciless__ALL__'
p720
I01
sS'a__BOTTOM__'
p721
I01
sS'stfu__ALL__'
p722
I01
sS'download__BOTTOM__'
p723
I01
sa(dp724
S',__TOP__'
p725
I01
sS'more__TOP__'
p726
I01
sS'day__TOP__'
p727
I01
sS'more__ALL__'
p728
I01
sS'just__ALL__'
p729
I01
sS',__ALL__'
p730
I01
sS'33__TOP__'
p731
I01
sS'day__ALL__'
p732
I01
sS'Look__ALL__'
p733
I01
sS'just__TOP__'
p734
I01
sS'33__ALL__'
p735
I01
sS'Look__TOP__'
p736
I01
sa(dp737
S'I__TOP__'
p738
I01
sS'After__BOTTOM__'
p739
I01
sS'After__ALL__'
p740
I01
sS'we__ALL__'
p741
I01
sS'can__ALL__'
p742
I01
sS'fuck__BOTTOM__'
p743
I01
sS'see__TOP__'
p744
I01
sS'it__TOP__'
p745
I01
sS'now__ALL__'
p746
I01
sS'now__TOP__'
p747
I01
sS'fuck__ALL__'
p748
I01
sS'can__TOP__'
p749
I01
sS"'re__BOTTOM__"
p750
I01
sS',__ALL__'
p751
I01
sS'we__BOTTOM__'
p752
I01
sS',__BOTTOM__'
p753
I01
sS'colleg__ALL__'
p754
I01
sS"'re__ALL__"
p755
I01
sS'colleg__BOTTOM__'
p756
I01
sS'I__ALL__'
p757
I01
sS'see__ALL__'
p758
I01
sS'it__ALL__'
p759
I01
sa(dp760
S'Bronstad__TOP__'
p761
I01
sS'fuck__BOTTOM__'
p762
I01
sS'Sexi__BOTTOM__'
p763
I01
sS'see__TOP__'
p764
I01
sS'Bronstad__ALL__'
p765
I01
sS'Sexi__ALL__'
p766
I01
sS'fuck__ALL__'
p767
I01
sS'as__ALL__'
p768
I01
sS'friend__TOP__'
p769
I01
sS',__TOP__'
p770
I01
sS'friend__ALL__'
p771
I01
sS'girl__TOP__'
p772
I01
sS'Jessica__ALL__'
p773
I01
sS',__ALL__'
p774
I01
sS'girl__ALL__'
p775
I01
sS'that__ALL__'
p776
I01
sS'see__ALL__'
p777
I01
sS'You__ALL__'
p778
I01
sS'that__TOP__'
p779
I01
sS'as__BOTTOM__'
p780
I01
sS'my__TOP__'
p781
I01
sS'You__TOP__'
p782
I01
sS'Jessica__TOP__'
p783
I01
sS'my__ALL__'
p784
I01
sa(dp785
S'london__TOP__'
p786
I01
sS'cycl__TOP__'
p787
I01
sS'in__TOP__'
p788
I01
sS'cycl__ALL__'
p789
I01
sS'in__ALL__'
p790
I01
sS'everywher__ALL__'
p791
I01
sS'everywher__BOTTOM__'
p792
I01
sS'Fixi__BOTTOM__'
p793
I01
sS'london__ALL__'
p794
I01
sS'Fixi__ALL__'
p795
I01
sa(dp796
S'first__BOTTOM__'
p797
I01
sS'school__ALL__'
p798
I01
sS'first__ALL__'
p799
I01
sS'pictur__ALL__'
p800
I01
sS'day__TOP__'
p801
I01
sS'school__TOP__'
p802
I01
sS'pictur__TOP__'
p803
I01
sS'day__ALL__'
p804
I01
sS'everywher__ALL__'
p805
I01
sS'of__TOP__'
p806
I01
sS'day__BOTTOM__'
p807
I01
sS'everywher__BOTTOM__'
p808
I01
sS'of__ALL__'
p809
I01
sS'first__TOP__'
p810
I01
sS'pictur__BOTTOM__'
p811
I01
sS'of__BOTTOM__'
p812
I01
sS'school__BOTTOM__'
p813
I01
sa(dp814
S'Reach__TOP__'
p815
I01
sS'Reach__ALL__'
p816
I01
sS'sky__BOTTOM__'
p817
I01
sS'for__TOP__'
p818
I01
sS'sky__ALL__'
p819
I01
sS'The__ALL__'
p820
I01
sS'The__BOTTOM__'
p821
I01
sS'for__ALL__'
p822
I01
sa(dp823
S'given__BOTTOM__'
p824
I01
sS'not__ALL__'
p825
I01
sS'day__ALL__'
p826
I01
sS'and__ALL__'
p827
I01
sS'and__BOTTOM__'
p828
I01
sS'a__ALL__'
p829
I01
sS'fuck__ALL__'
p830
I01
sS'...__BOTTOM__'
p831
I01
sS'singl__ALL__'
p832
I01
sS'...__ALL__'
p833
I01
sS'wa__BOTTOM__'
p834
I01
sS'fuck__BOTTOM__'
p835
I01
sS'wa__ALL__'
p836
I01
sS'given__ALL__'
p837
I01
sS'singl__BOTTOM__'
p838
I01
sS',__ALL__'
p839
I01
sS'that__ALL__'
p840
I01
sS'that__BOTTOM__'
p841
I01
sS',__BOTTOM__'
p842
I01
sS'a__BOTTOM__'
p843
I01
sS'not__BOTTOM__'
p844
I01
sS'day__BOTTOM__'
p845
I01
sa(dp846
S'all__ALL__'
p847
I01
sS'like__ALL__'
p848
I01
sS'fli__ALL__'
p849
I01
sS'fli__BOTTOM__'
p850
I01
sS'all__TOP__'
p851
I01
sS'like__TOP__'
p852
I01
sS'so__ALL__'
p853
I01
sS'poni__TOP__'
p854
I01
sS'so__BOTTOM__'
p855
I01
sS'the__TOP__'
p856
I01
sS'be__ALL__'
p857
I01
sS'the__ALL__'
p858
I01
sS'poni__ALL__'
p859
I01
sS'be__TOP__'
p860
I01
sa(dp861
S'Sendero__TOP__'
p862
I01
sS'fuck__ALL__'
p863
I01
sS'fuck__BOTTOM__'
p864
I01
sS'everywher__ALL__'
p865
I01
sS'up__BOTTOM__'
p866
I01
sS'up__ALL__'
p867
I01
sS'everywher__BOTTOM__'
p868
I01
sS'Sendero__ALL__'
p869
I01
sa(dp870
S'upper__ALL__'
p871
I01
sS'everi__BOTTOM__'
p872
I01
sS'were__BOTTOM__'
p873
I01
sS'everi__ALL__'
p874
I01
sS'Classmen__TOP__'
p875
I01
sS'upper__TOP__'
p876
I01
sS'were__ALL__'
p877
I01
sS'Classmen__ALL__'
p878
I01
sa(dp879
S'to__BOTTOM__'
p880
I01
sS'see__TOP__'
p881
I01
sS'see__ALL__'
p882
I01
sS'go__ALL__'
p883
I01
sS'...__BOTTOM__'
p884
I01
sS'...__ALL__'
p885
I01
sS'is__BOTTOM__'
p886
I01
sS'?__TOP__'
p887
I01
sS'it__BOTTOM__'
p888
I01
sS'ya__ALL__'
p889
I01
sS'troop__BOTTOM__'
p890
I01
sS'room__ALL__'
p891
I01
sS'that__ALL__'
p892
I01
sS'that__BOTTOM__'
p893
I01
sS'it__ALL__'
p894
I01
sS'troop__ALL__'
p895
I01
sS'that__TOP__'
p896
I01
sS'to__ALL__'
p897
I01
sS'room__BOTTOM__'
p898
I01
sS'go__BOTTOM__'
p899
I01
sS'?__ALL__'
p900
I01
sS'ya__TOP__'
p901
I01
sS'is__ALL__'
p902
I01
sS'the__ALL__'
p903
I01
sS'the__BOTTOM__'
p904
I01
sa(dp905
S'look__ALL__'
p906
I01
sS'everi__ALL__'
p907
I01
sS'there__ALL__'
p908
I01
sS'look__TOP__'
p909
I01
sS'everi__TOP__'
p910
I01
sS'around__ALL__'
p911
I01
sS'where__TOP__'
p912
I01
sS'around__TOP__'
p913
I01
sS'where__ALL__'
p914
I01
sS'there__TOP__'
p915
I01
sa(dp916
S'see__ALL__'
p917
I01
sS'no__BOTTOM__'
p918
I01
sS'd__ALL__'
p919
I01
sS'on__ALL__'
p920
I01
sS'she__ALL__'
p921
I01
sS'she__BOTTOM__'
p922
I01
sS'thing__TOP__'
p923
I01
sS'the__TOP__'
p924
I01
sS'the__ALL__'
p925
I01
sS'thing__ALL__'
p926
I01
sS'd__BOTTOM__'
p927
I01
sS'see__TOP__'
p928
I01
sS'on__TOP__'
p929
I01
sS'no__ALL__'
p930
I01
sa(dp931
S'I__TOP__'
p932
I01
sS'we__ALL__'
p933
I01
sS'can__ALL__'
p934
I01
sS'fuck__BOTTOM__'
p935
I01
sS'see__TOP__'
p936
I01
sS'it__TOP__'
p937
I01
sS'now__ALL__'
p938
I01
sS'after__BOTTOM__'
p939
I01
sS'now__TOP__'
p940
I01
sS'fuck__ALL__'
p941
I01
sS'can__TOP__'
p942
I01
sS"'re__BOTTOM__"
p943
I01
sS',__ALL__'
p944
I01
sS'we__BOTTOM__'
p945
I01
sS',__BOTTOM__'
p946
I01
sS'colleg__ALL__'
p947
I01
sS"'re__ALL__"
p948
I01
sS'colleg__BOTTOM__'
p949
I01
sS'I__ALL__'
p950
I01
sS'after__ALL__'
p951
I01
sS'see__ALL__'
p952
I01
sS'it__ALL__'
p953
I01
sa(dp954
S'post__TOP__'
p955
I01
sS'Horribl__BOTTOM__'
p956
I01
sS'Horribl__TOP__'
p957
I01
sS'post__ALL__'
p958
I01
sS'everywher__ALL__'
p959
I01
sS'Horribl__ALL__'
p960
I01
sS'everywher__BOTTOM__'
p961
I01
sS'post__BOTTOM__'
p962
I01
sa(dp963
S'final__TOP__'
p964
I01
sS'vinegar__BOTTOM__'
p965
I01
sS'world__ALL__'
p966
I01
sS'final__ALL__'
p967
I01
sS'sugna__ALL__'
p968
I01
sS'...__BOTTOM__'
p969
I01
sS'world__BOTTOM__'
p970
I01
sS'...__ALL__'
p971
I01
sS'rule__BOTTOM__'
p972
I01
sS'and__ALL__'
p973
I01
sS'rule__ALL__'
p974
I01
sS'...__TOP__'
p975
I01
sS'will__ALL__'
p976
I01
sS'and__BOTTOM__'
p977
I01
sS'the__ALL__'
p978
I01
sS'the__BOTTOM__'
p979
I01
sS'sugna__BOTTOM__'
p980
I01
sS'will__BOTTOM__'
p981
I01
sS'vinegar__ALL__'
p982
I01
sS'and__TOP__'
p983
I01
sa(dp984
S'final__TOP__'
p985
I01
sS'vinegar__BOTTOM__'
p986
I01
sS'final__ALL__'
p987
I01
sS'...__BOTTOM__'
p988
I01
sS'everywher__BOTTOM__'
p989
I01
sS'...__ALL__'
p990
I01
sS'sugna__ALL__'
p991
I01
sS'and__ALL__'
p992
I01
sS'everywher__ALL__'
p993
I01
sS'...__TOP__'
p994
I01
sS'and__BOTTOM__'
p995
I01
sS'sugna__BOTTOM__'
p996
I01
sS'vinegar__ALL__'
p997
I01
sS'and__TOP__'
p998
I01
sa(dp999
S'have__TOP__'
p1000
I01
sS'you__BOTTOM__'
p1001
I01
sS'what__ALL__'
p1002
I01
sS'have__ALL__'
p1003
I01
sS'live__TOP__'
p1004
I01
sS'You__TOP__'
p1005
I01
sS'idea__ALL__'
p1006
I01
sS'Until__BOTTOM__'
p1007
I01
sS'you__ALL__'
p1008
I01
sS'have__BOTTOM__'
p1009
I01
sS'done__ALL__'
p1010
I01
sS'no__ALL__'
p1011
I01
sS'what__TOP__'
p1012
I01
sS'idea__TOP__'
p1013
I01
sS'live__ALL__'
p1014
I01
sS'no__TOP__'
p1015
I01
sS'You__ALL__'
p1016
I01
sS'weed__ALL__'
p1017
I01
sS'weed__BOTTOM__'
p1018
I01
sS'Until__ALL__'
p1019
I01
sS'done__BOTTOM__'
p1020
I01
sS'is__ALL__'
p1021
I01
sS'is__TOP__'
p1022
I01
sa(dp1023
S'roOm__ALL__'
p1024
I01
sS'roOm__BOTTOM__'
p1025
I01
sS'door__ALL__'
p1026
I01
sS'tab__ALL__'
p1027
I01
sS'is__ALL__'
p1028
I01
sS'The__ALL__'
p1029
I01
sS'And__ALL__'
p1030
I01
sS'beyond__ALL__'
p1031
I01
sS'is__TOP__'
p1032
I01
sS'And__TOP__'
p1033
I01
sS'that__ALL__'
p1034
I01
sS'The__BOTTOM__'
p1035
I01
sS'tab__BOTTOM__'
p1036
I01
sS'beyond__TOP__'
p1037
I01
sS'door__TOP__'
p1038
I01
sS'that__TOP__'
p1039
I01
sa(dp1040
S'.__BOTTOM__'
p1041
I01
sS'think__TOP__'
p1042
I01
sS'world__BOTTOM__'
p1043
I01
sS'.__ALL__'
p1044
I01
sS'i__ALL__'
p1045
I01
sS'think__ALL__'
p1046
I01
sS'said__BOTTOM__'
p1047
I01
sS'look__TOP__'
p1048
I01
sS'end__BOTTOM__'
p1049
I01
sS'think__BOTTOM__'
p1050
I01
sS'the__TOP__'
p1051
I01
sS'ca__ALL__'
p1052
I01
sS'just__TOP__'
p1053
I01
sS'what__ALL__'
p1054
I01
sS'at__ALL__'
p1055
I01
sS'it__TOP__'
p1056
I01
sS'come__ALL__'
p1057
I01
sS'come__TOP__'
p1058
I01
sS'!__BOTTOM__'
p1059
I01
sS'...__BOTTOM__'
p1060
I01
sS'...__ALL__'
p1061
I01
sS'what__BOTTOM__'
p1062
I01
sS'on__ALL__'
p1063
I01
sS'would__BOTTOM__'
p1064
I01
sS'if__ALL__'
p1065
I01
sS'you__ALL__'
p1066
I01
sS'would__ALL__'
p1067
I01
sS'if__BOTTOM__'
p1068
I01
sS'on__TOP__'
p1069
I01
sS'said__ALL__'
p1070
I01
sS'way__TOP__'
p1071
I01
sS"n't__BOTTOM__"
p1072
I01
sS'!__TOP__'
p1073
I01
sS'look__ALL__'
p1074
I01
sS"n't__ALL__"
p1075
I01
sS'end__ALL__'
p1076
I01
sS'umm__BOTTOM__'
p1077
I01
sS'you__TOP__'
p1078
I01
sS'do__ALL__'
p1079
I01
sS'that__ALL__'
p1080
I01
sS'that__BOTTOM__'
p1081
I01
sS'world__TOP__'
p1082
I01
sS'do__BOTTOM__'
p1083
I01
sS'the__BOTTOM__'
p1084
I01
sS'world__ALL__'
p1085
I01
sS'truli__TOP__'
p1086
I01
sS'ca__BOTTOM__'
p1087
I01
sS'!__ALL__'
p1088
I01
sS'truli__ALL__'
p1089
I01
sS'woodi__TOP__'
p1090
I01
sS'even__ALL__'
p1091
I01
sS'woodi__ALL__'
p1092
I01
sS'even__BOTTOM__'
p1093
I01
sS'just__ALL__'
p1094
I01
sS'i__BOTTOM__'
p1095
I01
sS'is__ALL__'
p1096
I01
sS'is__TOP__'
p1097
I01
sS'way__ALL__'
p1098
I01
sS'the__ALL__'
p1099
I01
sS'at__TOP__'
p1100
I01
sS'.__TOP__'
p1101
I01
sS'umm__ALL__'
p1102
I01
sS'it__ALL__'
p1103
I01
sa(dp1104
S'all__ALL__'
p1105
I01
sS'it__TOP__'
p1106
I01
sS'jordan__TOP__'
p1107
I01
sS'Kati__TOP__'
p1108
I01
sS'three__ALL__'
p1109
I01
sS'all__BOTTOM__'
p1110
I01
sS'it__ALL__'
p1111
I01
sS'love__ALL__'
p1112
I01
sS'Kati__ALL__'
p1113
I01
sS'In__ALL__'
p1114
I01
sS'hole__ALL__'
p1115
I01
sS'In__BOTTOM__'
p1116
I01
sS'three__BOTTOM__'
p1117
I01
sS'jordan__ALL__'
p1118
I01
sS'love__TOP__'
p1119
I01
sS'hole__BOTTOM__'
p1120
I01
sa(dp1121
S'self__ALL__'
p1122
I01
sS'self__BOTTOM__'
p1123
I01
sS'invit__BOTTOM__'
p1124
I01
sS'invit__ALL__'
p1125
I01
sS'everywher__ALL__'
p1126
I01
sS'invit__TOP__'
p1127
I01
sS'everywher__BOTTOM__'
p1128
I01
sS'self__TOP__'
p1129
I01
sa(dp1130
S'we__ALL__'
p1131
I01
sS'can__ALL__'
p1132
I01
sS'those__ALL__'
p1133
I01
sS'well__ALL__'
p1134
I01
sS'can__BOTTOM__'
p1135
I01
sS"n't__ALL__"
p1136
I01
sS'rape__ALL__'
p1137
I01
sS'toy__ALL__'
p1138
I01
sS"n't__TOP__"
p1139
I01
sS'do__TOP__'
p1140
I01
sS'toy__BOTTOM__'
p1141
I01
sS'as__ALL__'
p1142
I01
sS'well__BOTTOM__'
p1143
I01
sS',__TOP__'
p1144
I01
sS',__ALL__'
p1145
I01
sS'do__ALL__'
p1146
I01
sS'we__BOTTOM__'
p1147
I01
sS'be__TOP__'
p1148
I01
sS'as__BOTTOM__'
p1149
I01
sS'rape__BOTTOM__'
p1150
I01
sS'sad__TOP__'
p1151
I01
sS'woodi__TOP__'
p1152
I01
sS'be__ALL__'
p1153
I01
sS'woodi__ALL__'
p1154
I01
sS'those__BOTTOM__'
p1155
I01
sS'sad__ALL__'
p1156
I01
sa(dp1157
S'handie__BOTTOM__'
p1158
I01
sS'free__BOTTOM__'
p1159
I01
sS'free__TOP__'
p1160
I01
sS'handi__TOP__'
p1161
I01
sS'everywher__ALL__'
p1162
I01
sS'handie__ALL__'
p1163
I01
sS'free__ALL__'
p1164
I01
sS'handi__ALL__'
p1165
I01
sS'everywher__BOTTOM__'
p1166
I01
sa(dp1167
S'king__ALL__'
p1168
I01
sS'king__BOTTOM__'
p1169
I01
sS'everywher__BOTTOM__'
p1170
I01
sS'ridah__BOTTOM__'
p1171
I01
sS'ridah__ALL__'
p1172
I01
sS'is__ALL__'
p1173
I01
sS'everywher__ALL__'
p1174
I01
sS'is__TOP__'
p1175
I01
sS'king__TOP__'
p1176
I01
sS'ridah__TOP__'
p1177
I01
sS'is__BOTTOM__'
p1178
I01
sa(dp1179
S'Woodi__TOP__'
p1180
I01
sS'Woodi__ALL__'
p1181
I01
sS'and__ALL__'
p1182
I01
sS'mother__ALL__'
p1183
I01
sS'ha__ALL__'
p1184
I01
sS'bet__BOTTOM__'
p1185
I01
sS'and__TOP__'
p1186
I01
sS'name__ALL__'
p1187
I01
sS'with__ALL__'
p1188
I01
sS'buzz__ALL__'
p1189
I01
sS'andi__ALL__'
p1190
I01
sS'toy__ALL__'
p1191
I01
sS'buzz__TOP__'
p1192
I01
sS'same__BOTTOM__'
p1193
I01
sS'toy__BOTTOM__'
p1194
I01
sS'andi__BOTTOM__'
p1195
I01
sS'i__ALL__'
p1196
I01
sS'same__ALL__'
p1197
I01
sS'bet__ALL__'
p1198
I01
sS'ha__BOTTOM__'
p1199
I01
sS'with__BOTTOM__'
p1200
I01
sS'name__BOTTOM__'
p1201
I01
sS'mother__BOTTOM__'
p1202
I01
sS'i__BOTTOM__'
p1203
I01
sS'the__ALL__'
p1204
I01
sS'the__BOTTOM__'
p1205
I01
sa(dp1206
S'hungri__TOP__'
p1207
I01
sS'.__ALL__'
p1208
I01
sS'Hors__ALL__'
p1209
I01
sS'like__TOP__'
p1210
I01
sS'a__TOP__'
p1211
I01
sS'So__BOTTOM__'
p1212
I01
sS'It__BOTTOM__'
p1213
I01
sS'look__ALL__'
p1214
I01
sS'a__ALL__'
p1215
I01
sS'dive__BOTTOM__'
p1216
I01
sS'quit__BOTTOM__'
p1217
I01
sS'!__BOTTOM__'
p1218
I01
sS'So__ALL__'
p1219
I01
sS'nice__ALL__'
p1220
I01
sS'...__ALL__'
p1221
I01
sS'Hors__TOP__'
p1222
I01
sS'look__TOP__'
p1223
I01
sS'quit__ALL__'
p1224
I01
sS'It__TOP__'
p1225
I01
sS'like__ALL__'
p1226
I01
sS'nice__BOTTOM__'
p1227
I01
sS',__ALL__'
p1228
I01
sS'veri__TOP__'
p1229
I01
sS'in__BOTTOM__'
p1230
I01
sS'...__TOP__'
p1231
I01
sS',__BOTTOM__'
p1232
I01
sS'in__ALL__'
p1233
I01
sS'veri__ALL__'
p1234
I01
sS'dive__ALL__'
p1235
I01
sS'!__ALL__'
p1236
I01
sS'just__BOTTOM__'
p1237
I01
sS'just__ALL__'
p1238
I01
sS'hungri__ALL__'
p1239
I01
sS'It__ALL__'
p1240
I01
sS'.__TOP__'
p1241
I01
sa(dp1242
S'pussi__BOTTOM__'
p1243
I01
sS'Whi__ALL__'
p1244
I01
sS'club__TOP__'
p1245
I01
sS'we__ALL__'
p1246
I01
sS'arE__ALL__'
p1247
I01
sS'a__TOP__'
p1248
I01
sS'everywher__BOTTOM__'
p1249
I01
sS'Pussi__BOTTOM__'
p1250
I01
sS'club__ALL__'
p1251
I01
sS'arE__TOP__'
p1252
I01
sS'everywher__ALL__'
p1253
I01
sS'a__ALL__'
p1254
I01
sS'Pussi__ALL__'
p1255
I01
sS'at__TOP__'
p1256
I01
sS'pussi__ALL__'
p1257
I01
sS'Whi__TOP__'
p1258
I01
sS'we__TOP__'
p1259
I01
sS'at__ALL__'
p1260
I01
sa(dp1261
S'what__TOP__'
p1262
I01
sS'?__TOP__'
p1263
I01
sS'separ__TOP__'
p1264
I01
sS'.__ALL__'
p1265
I01
sS'?__ALL__'
p1266
I01
sS'69__TOP__'
p1267
I01
sS'what__ALL__'
p1268
I01
sS'A__BOTTOM__'
p1269
I01
sS'69__ALL__'
p1270
I01
sS'separ__ALL__'
p1271
I01
sS'period__BOTTOM__'
p1272
I01
sS'period__ALL__'
p1273
I01
sS'you__TOP__'
p1274
I01
sS'Do__ALL__'
p1275
I01
sS'A__ALL__'
p1276
I01
sS'you__ALL__'
p1277
I01
sS'know__TOP__'
p1278
I01
sS'.__BOTTOM__'
p1279
I01
sS'know__ALL__'
p1280
I01
sS'Do__TOP__'
p1281
I01
sa(dp1282
S'camera__TOP__'
p1283
I01
sS'camera__BOTTOM__'
p1284
I01
sS'camera__ALL__'
p1285
I01
sS'everywher__ALL__'
p1286
I01
sS'everywher__BOTTOM__'
p1287
I01
sS'everywher__TOP__'
p1288
I01
sa(dp1289
S'.__ALL__'
p1290
I01
sS'Give__ALL__'
p1291
I01
sS'a__ALL__'
p1292
I01
sS'nobodi__TOP__'
p1293
I01
sS'Soy__TOP__'
p1294
I01
sS'a__BOTTOM__'
p1295
I01
sS'fuck__ALL__'
p1296
I01
sS'fuck__BOTTOM__'
p1297
I01
sS'!__BOTTOM__'
p1298
I01
sS'...__ALL__'
p1299
I01
sS'!__ALL__'
p1300
I01
sS'nobodi__ALL__'
p1301
I01
sS'Give__BOTTOM__'
p1302
I01
sS'...__TOP__'
p1303
I01
sS'.__TOP__'
p1304
I01
sS'Soy__ALL__'
p1305
I01
sa(dp1306
S'given__BOTTOM__'
p1307
I01
sS'not__ALL__'
p1308
I01
sS'day__ALL__'
p1309
I01
sS'and__ALL__'
p1310
I01
sS'and__BOTTOM__'
p1311
I01
sS'a__ALL__'
p1312
I01
sS'fuck__ALL__'
p1313
I01
sS'...__BOTTOM__'
p1314
I01
sS'singl__ALL__'
p1315
I01
sS'...__ALL__'
p1316
I01
sS'on__ALL__'
p1317
I01
sS'wa__BOTTOM__'
p1318
I01
sS'fuck__BOTTOM__'
p1319
I01
sS'wa__ALL__'
p1320
I01
sS'on__BOTTOM__'
p1321
I01
sS'given__ALL__'
p1322
I01
sS'singl__BOTTOM__'
p1323
I01
sS',__ALL__'
p1324
I01
sS'that__ALL__'
p1325
I01
sS'that__BOTTOM__'
p1326
I01
sS',__BOTTOM__'
p1327
I01
sS'a__BOTTOM__'
p1328
I01
sS'not__BOTTOM__'
p1329
I01
sS'day__BOTTOM__'
p1330
I01
sa(dp1331
S'White__ALL__'
p1332
I01
sS'White__BOTTOM__'
p1333
I01
sS'guy__TOP__'
p1334
I01
sS'everywher__ALL__'
p1335
I01
sS'White__TOP__'
p1336
I01
sS'everywher__BOTTOM__'
p1337
I01
sS'guy__ALL__'
p1338
I01
sS'guy__BOTTOM__'
p1339
I01
sa(dp1340
S'so__ALL__'
p1341
I01
sS'mountain__ALL__'
p1342
I01
sS'Is__ALL__'
p1343
I01
sS'our__TOP__'
p1344
I01
sS'it__TOP__'
p1345
I01
sS"'s__TOP__"
p1346
I01
sS'mountain__TOP__'
p1347
I01
sS'Look__TOP__'
p1348
I01
sS'so__BOTTOM__'
p1349
I01
sS'it__BOTTOM__'
p1350
I01
sS'beauti__BOTTOM__'
p1351
I01
sS'Is__BOTTOM__'
p1352
I01
sS'Look__ALL__'
p1353
I01
sS"n't__BOTTOM__"
p1354
I01
sS'!__TOP__'
p1355
I01
sS"n't__ALL__"
p1356
I01
sS'it__ALL__'
p1357
I01
sS'our__ALL__'
p1358
I01
sS'!__ALL__'
p1359
I01
sS'?__ALL__'
p1360
I01
sS'?__BOTTOM__'
p1361
I01
sS"'s__ALL__"
p1362
I01
sS'beauti__ALL__'
p1363
I01
sa(dp1364
S'school__ALL__'
p1365
I01
sS'school__TOP__'
p1366
I01
sS'slut__TOP__'
p1367
I01
sS'slut__BOTTOM__'
p1368
I01
sS'everywher__ALL__'
p1369
I01
sS'slut__ALL__'
p1370
I01
sS'school__BOTTOM__'
p1371
I01
sS'everywher__BOTTOM__'
p1372
I01
sa(dp1373
S'nug__BOTTOM__'
p1374
I01
sS'.__ALL__'
p1375
I01
sS'fat__ALL__'
p1376
I01
sS'nug__ALL__'
p1377
I01
sS'!__BOTTOM__'
p1378
I01
sS'fat__TOP__'
p1379
I01
sS'fat__BOTTOM__'
p1380
I01
sS'...__ALL__'
p1381
I01
sS'!__ALL__'
p1382
I01
sS'everywher__ALL__'
p1383
I01
sS'...__TOP__'
p1384
I01
sS'everywher__BOTTOM__'
p1385
I01
sS'.__TOP__'
p1386
I01
sS'nug__TOP__'
p1387
I01
sa(dp1388
S'someon__BOTTOM__'
p1389
I01
sS'there__ALL__'
p1390
I01
sS'look__TOP__'
p1391
I01
sS'fuck__BOTTOM__'
p1392
I01
sS'see__BOTTOM__'
p1393
I01
sS'give__ALL__'
p1394
I01
sS'give__BOTTOM__'
p1395
I01
sS'will__ALL__'
p1396
I01
sS'over__TOP__'
p1397
I01
sS'who__BOTTOM__'
p1398
I01
sS'if__TOP__'
p1399
I01
sS'over__ALL__'
p1400
I01
sS'look__ALL__'
p1401
I01
sS'a__ALL__'
p1402
I01
sS'fuck__ALL__'
p1403
I01
sS'who__ALL__'
p1404
I01
sS'if__ALL__'
p1405
I01
sS'you__ALL__'
p1406
I01
sS'will__BOTTOM__'
p1407
I01
sS'yo__ALL__'
p1408
I01
sS'you__TOP__'
p1409
I01
sS'someon__ALL__'
p1410
I01
sS'a__BOTTOM__'
p1411
I01
sS'see__ALL__'
p1412
I01
sS'yo__BOTTOM__'
p1413
I01
sS'there__TOP__'
p1414
I01
sa(dp1415
S'as__BOTTOM__'
p1416
I01
sS'see__BOTTOM__'
p1417
I01
sS'the__ALL__'
p1418
I01
sS'eye__BOTTOM__'
p1419
I01
sS'slut__TOP__'
p1420
I01
sS',__ALL__'
p1421
I01
sS'can__BOTTOM__'
p1422
I01
sS'see__ALL__'
p1423
I01
sS'slut__BOTTOM__'
p1424
I01
sS'slut__ALL__'
p1425
I01
sS'eye__ALL__'
p1426
I01
sS',__BOTTOM__'
p1427
I01
sS'can__ALL__'
p1428
I01
sS'as__ALL__'
p1429
I01
sS'the__BOTTOM__'
p1430
I01
sS'far__ALL__'
p1431
I01
sS'far__BOTTOM__'
p1432
I01
sa(dp1433
S'.__BOTTOM__'
p1434
I01
sS'.__ALL__'
p1435
I01
sS'It__BOTTOM__'
p1436
I01
sS'will__ALL__'
p1437
I01
sS'your__BOTTOM__'
p1438
I01
sS'out__ALL__'
p1439
I01
sS"n't__ALL__"
p1440
I01
sS"n't__TOP__"
p1441
I01
sS'pay__BOTTOM__'
p1442
I01
sS'of__ALL__'
p1443
I01
sS'did__ALL__'
p1444
I01
sS'will__BOTTOM__'
p1445
I01
sS'for__ALL__'
p1446
I01
sS'of__BOTTOM__'
p1447
I01
sS'out__BOTTOM__'
p1448
I01
sS'FOD__ALL__'
p1449
I01
sS'come__ALL__'
p1450
I01
sS'FOD__TOP__'
p1451
I01
sS'for__TOP__'
p1452
I01
sS'pay__ALL__'
p1453
I01
sS'did__TOP__'
p1454
I01
sS'You__ALL__'
p1455
I01
sS'your__ALL__'
p1456
I01
sS'check__TOP__'
p1457
I01
sS'check__ALL__'
p1458
I01
sS'come__BOTTOM__'
p1459
I01
sS'You__TOP__'
p1460
I01
sS'It__ALL__'
p1461
I01
sS'Ok__ALL__'
p1462
I01
sS'Ok__BOTTOM__'
p1463
I01
sa(dp1464
S'school__ALL__'
p1465
I01
sS'zone__ALL__'
p1466
I01
sS'zone__BOTTOM__'
p1467
I01
sS'school__TOP__'
p1468
I01
sS'everywher__ALL__'
p1469
I01
sS'zone__TOP__'
p1470
I01
sS'school__BOTTOM__'
p1471
I01
sS'everywher__BOTTOM__'
p1472
I01
sa(dp1473
S'refer__BOTTOM__'
p1474
I01
sS'Suit__ALL__'
p1475
I01
sS'suit__BOTTOM__'
p1476
I01
sS'suit__ALL__'
p1477
I01
sS'Suit__TOP__'
p1478
I01
sS'everywher__ALL__'
p1479
I01
sS'refer__ALL__'
p1480
I01
sS'everywher__BOTTOM__'
p1481
I01
sS'refer__TOP__'
p1482
I01
sa(dp1483
S'.__BOTTOM__'
p1484
I01
sS'follow__ALL__'
p1485
I01
sS'.__ALL__'
p1486
I01
sS'Mr__BOTTOM__'
p1487
I01
sS'?__TOP__'
p1488
I01
sS"n't__ALL__"
p1489
I01
sS'!__BOTTOM__'
p1490
I01
sS"n't__TOP__"
p1491
I01
sS'happi__BOTTOM__'
p1492
I01
sS'wo__ALL__'
p1493
I01
sS'Peretich__BOTTOM__'
p1494
I01
sS"n't__BOTTOM__"
p1495
I01
sS'safeti__ALL__'
p1496
I01
sS'rule__TOP__'
p1497
I01
sS'Mr__ALL__'
p1498
I01
sS'be__ALL__'
p1499
I01
sS'wo__BOTTOM__'
p1500
I01
sS'follow__TOP__'
p1501
I01
sS'be__BOTTOM__'
p1502
I01
sS'!__ALL__'
p1503
I01
sS'?__ALL__'
p1504
I01
sS'Do__ALL__'
p1505
I01
sS'safeti__TOP__'
p1506
I01
sS'happi__ALL__'
p1507
I01
sS'Peretich__ALL__'
p1508
I01
sS'rule__ALL__'
p1509
I01
sS'Do__TOP__'
p1510
I01
sa(dp1511
S'is__ALL__'
p1512
I01
sS'dont__ALL__'
p1513
I01
sS'a__ALL__'
p1514
I01
sS'woodi__TOP__'
p1515
I01
sS'a__BOTTOM__'
p1516
I01
sS'dont__TOP__'
p1517
I01
sS'understand__ALL__'
p1518
I01
sS'Thoma__ALL__'
p1519
I01
sS'you__TOP__'
p1520
I01
sS'you__ALL__'
p1521
I01
sS'understand__TOP__'
p1522
I01
sS'woodi__ALL__'
p1523
I01
sS'HOMO__BOTTOM__'
p1524
I01
sS'Eric__ALL__'
p1525
I01
sS'Eric__BOTTOM__'
p1526
I01
sS'HOMO__ALL__'
p1527
I01
sS'is__BOTTOM__'
p1528
I01
sS'Thoma__BOTTOM__'
p1529
I01
sa(dp1530
S'is__ALL__'
p1531
I01
sS'gggaaayyy__BOTTOM__'
p1532
I01
sS'woodi__TOP__'
p1533
I01
sS'gggaaayyy__ALL__'
p1534
I01
sS'woodi__ALL__'
p1535
I01
sS'im__ALL__'
p1536
I01
sS'dalton__BOTTOM__'
p1537
I01
sS'say__ALL__'
p1538
I01
sS'madewel__ALL__'
p1539
I01
sS'im__TOP__'
p1540
I01
sS'dalton__ALL__'
p1541
I01
sS'say__TOP__'
p1542
I01
sS'madewel__BOTTOM__'
p1543
I01
sS'is__BOTTOM__'
p1544
I01
sa(dp1545
S'.__BOTTOM__'
p1546
I01
sS'.__ALL__'
p1547
I01
sS'Curli__ALL__'
p1548
I01
sS'Curli__BOTTOM__'
p1549
I01
sS'Curli__TOP__'
p1550
I01
sS'floor__ALL__'
p1551
I01
sS'the__TOP__'
p1552
I01
sS'on__ALL__'
p1553
I01
sS'EVERYWHER__ALL__'
p1554
I01
sS'floor__TOP__'
p1555
I01
sS'hair__ALL__'
p1556
I01
sS'EVERYWHER__BOTTOM__'
p1557
I01
sS'the__ALL__'
p1558
I01
sS'hair__TOP__'
p1559
I01
sS'hair__BOTTOM__'
p1560
I01
sS'on__TOP__'
p1561
I01
sa(dp1562
S'sentri__BOTTOM__'
p1563
I01
sS'gun__ALL__'
p1564
I01
sS'gun__BOTTOM__'
p1565
I01
sS'everywher__ALL__'
p1566
I01
sS'Sentri__ALL__'
p1567
I01
sS'everywher__BOTTOM__'
p1568
I01
sS'gun__TOP__'
p1569
I01
sS'Sentri__TOP__'
p1570
I01
sS'sentri__ALL__'
p1571
I01
sa(dp1572
S'!__ALL__'
p1573
I01
sS'Woodi__TOP__'
p1574
I01
sS'!__BOTTOM__'
p1575
I01
sS'we__ALL__'
p1576
I01
sS'quietli__BOTTOM__'
p1577
I01
sS'leav__BOTTOM__'
p1578
I01
sS'class__BOTTOM__'
p1579
I01
sS'quietli__ALL__'
p1580
I01
sS'we__BOTTOM__'
p1581
I01
sS'Woodi__ALL__'
p1582
I01
sS'leav__ALL__'
p1583
I01
sS'class__ALL__'
p1584
I01
sa(dp1585
S'there__ALL__'
p1586
I01
sS'actual__ALL__'
p1587
I01
sS'win__BOTTOM__'
p1588
I01
sS'out__TOP__'
p1589
I01
sS'Bengal__BOTTOM__'
p1590
I01
sS'will__ALL__'
p1591
I01
sS'out__ALL__'
p1592
I01
sS'a__ALL__'
p1593
I01
sS'Somewher__TOP__'
p1594
I01
sS'peopl__ALL__'
p1595
I01
sS'Somewher__ALL__'
p1596
I01
sS'Bengal__ALL__'
p1597
I01
sS'believ__BOTTOM__'
p1598
I01
sS'will__BOTTOM__'
p1599
I01
sS'believ__ALL__'
p1600
I01
sS'Superbowl__BOTTOM__'
p1601
I01
sS'actual__BOTTOM__'
p1602
I01
sS'a__BOTTOM__'
p1603
I01
sS'peopl__BOTTOM__'
p1604
I01
sS'win__ALL__'
p1605
I01
sS'the__ALL__'
p1606
I01
sS'the__BOTTOM__'
p1607
I01
sS'Superbowl__ALL__'
p1608
I01
sS'there__TOP__'
p1609
I01
sa(dp1610
S'distract__BOTTOM__'
p1611
I01
sS'help__BOTTOM__'
p1612
I01
sS'help__ALL__'
p1613
I01
sS'can__ALL__'
p1614
I01
sS'buy__ALL__'
p1615
I01
sS'stuff__ALL__'
p1616
I01
sS'The__ALL__'
p1617
I01
sS'your__BOTTOM__'
p1618
I01
sS'buy__TOP__'
p1619
I01
sS'goal__BOTTOM__'
p1620
I01
sS'wont__ALL__'
p1621
I01
sS'wont__BOTTOM__'
p1622
I01
sS'The__TOP__'
p1623
I01
sS'can__TOP__'
p1624
I01
sS'stuff__TOP__'
p1625
I01
sS'you__ALL__'
p1626
I01
sS'you__BOTTOM__'
p1627
I01
sS'reach__BOTTOM__'
p1628
I01
sS'a__ALL__'
p1629
I01
sS'you__TOP__'
p1630
I01
sS'that__ALL__'
p1631
I01
sS'that__BOTTOM__'
p1632
I01
sS'your__ALL__'
p1633
I01
sS'distract__ALL__'
p1634
I01
sS'goal__ALL__'
p1635
I01
sS'a__BOTTOM__'
p1636
I01
sS'reach__ALL__'
p1637
I01
sS'is__ALL__'
p1638
I01
sS'is__TOP__'
p1639
I01
sa(dp1640
S'All__ALL__'
p1641
I01
sS'it__TOP__'
p1642
I01
sS'bitCh__BOTTOM__'
p1643
I01
sS'All__BOTTOM__'
p1644
I01
sS'want__BOTTOM__'
p1645
I01
sS'Pictur__ALL__'
p1646
I01
sS'Pictur__TOP__'
p1647
I01
sS'could__ALL__'
p1648
I01
sS'could__BOTTOM__'
p1649
I01
sS'want__ALL__'
p1650
I01
sS'it__ALL__'
p1651
I01
sS'you__BOTTOM__'
p1652
I01
sS'the__ALL__'
p1653
I01
sS'the__BOTTOM__'
p1654
I01
sS'you__ALL__'
p1655
I01
sS'bitCh__ALL__'
p1656
I01
sa(dp1657
S'.__ALL__'
p1658
I01
sS'have__TOP__'
p1659
I01
sS':__ALL__'
p1660
I01
sS'Squirrel__TOP__'
p1661
I01
sS'mean__BOTTOM__'
p1662
I01
sS'bulgi__TOP__'
p1663
I01
sS'doe__ALL__'
p1664
I01
sS'littl__TOP__'
p1665
I01
sS'are__TOP__'
p1666
I01
sS'and__ALL__'
p1667
I01
sS'wtf__BOTTOM__'
p1668
I01
sS'over__TOP__'
p1669
I01
sS':__BOTTOM__'
p1670
I01
sS'have__ALL__'
p1671
I01
sS'and__TOP__'
p1672
I01
sS'over__ALL__'
p1673
I01
sS'Squirrel__ALL__'
p1674
I01
sS'BUZZ__ALL__'
p1675
I01
sS'bulgi__ALL__'
p1676
I01
sS'WOODi__ALL__'
p1677
I01
sS'Are__BOTTOM__'
p1678
I01
sS'BUZZ__TOP__'
p1679
I01
sS'on__ALL__'
p1680
I01
sS'steroid__ALL__'
p1681
I01
sS'big__ALL__'
p1682
I01
sS'Are__ALL__'
p1683
I01
sS'Soon__ALL__'
p1684
I01
sS'you__ALL__'
p1685
I01
sS'you__BOTTOM__'
p1686
I01
sS'They__ALL__'
p1687
I01
sS',__TOP__'
p1688
I01
sS'steroid__BOTTOM__'
p1689
I01
sS'they__TOP__'
p1690
I01
sS'littl__ALL__'
p1691
I01
sS'mock__ALL__'
p1692
I01
sS'arm__TOP__'
p1693
I01
sS'mean__ALL__'
p1694
I01
sS'wtf__ALL__'
p1695
I01
sS',__ALL__'
p1696
I01
sS'eye__ALL__'
p1697
I01
sS'you__TOP__'
p1698
I01
sS'arm__ALL__'
p1699
I01
sS'that__ALL__'
p1700
I01
sS'that__BOTTOM__'
p1701
I01
sS"'ll__ALL__"
p1702
I01
sS'?__ALL__'
p1703
I01
sS'they__ALL__'
p1704
I01
sS'Soon__TOP__'
p1705
I01
sS'They__TOP__'
p1706
I01
sS'?__BOTTOM__'
p1707
I01
sS'even__ALL__'
p1708
I01
sS'take__ALL__'
p1709
I01
sS'are__ALL__'
p1710
I01
sS'eye__TOP__'
p1711
I01
sS'even__BOTTOM__'
p1712
I01
sS'big__TOP__'
p1713
I01
sS'WOODi__BOTTOM__'
p1714
I01
sS'on__BOTTOM__'
p1715
I01
sS'take__TOP__'
p1716
I01
sS'.__TOP__'
p1717
I01
sS'mock__TOP__'
p1718
I01
sS"'ll__TOP__"
p1719
I01
sS'doe__BOTTOM__'
p1720
I01
sS':__TOP__'
p1721
I01
sa(dp1722
S',__TOP__'
p1723
I01
sS'woodi__TOP__'
p1724
I01
sS'chicken__BOTTOM__'
p1725
I01
sS'Good__BOTTOM__'
p1726
I01
sS'Look__TOP__'
p1727
I01
sS'old__BOTTOM__'
p1728
I01
sS',__ALL__'
p1729
I01
sS'old__ALL__'
p1730
I01
sS'Good__ALL__'
p1731
I01
sS'chicken__ALL__'
p1732
I01
sS'code__BOTTOM__'
p1733
I01
sS'Look__ALL__'
p1734
I01
sS'peck__TOP__'
p1735
I01
sS'peck__ALL__'
p1736
I01
sS'woodi__ALL__'
p1737
I01
sS'code__ALL__'
p1738
I01
sa(dp1739
S'Look__ALL__'
p1740
I01
sS'Look__BOTTOM__'
p1741
I01
sS'woodi__TOP__'
p1742
I01
sS'woodi__ALL__'
p1743
I01
sS'...__BOTTOM__'
p1744
I01
sS'muNch__BOTTOM__'
p1745
I01
sS'...__ALL__'
p1746
I01
sS'muNch__ALL__'
p1747
I01
sS'that__ALL__'
p1748
I01
sS'that__BOTTOM__'
p1749
I01
sS'Oh__TOP__'
p1750
I01
sS'at__BOTTOM__'
p1751
I01
sS'at__ALL__'
p1752
I01
sS'Oh__ALL__'
p1753
I01
sa(dp1754
S'pleas__BOTTOM__'
p1755
I01
sS'@__ALL__'
p1756
I01
sS'hudson__TOP__'
p1757
I01
sS'and__ALL__'
p1758
I01
sS'shot__BOTTOM__'
p1759
I01
sS'@__TOP__'
p1760
I01
sS'and__TOP__'
p1761
I01
sS'buzz__ALL__'
p1762
I01
sS'buzz__TOP__'
p1763
I01
sS'patron__BOTTOM__'
p1764
I01
sS'of__ALL__'
p1765
I01
sS'of__BOTTOM__'
p1766
I01
sS'shot__ALL__'
p1767
I01
sS'patron__ALL__'
p1768
I01
sS'hudson__ALL__'
p1769
I01
sS'pleas__ALL__'
p1770
I01
sS'2__BOTTOM__'
p1771
I01
sS'woodi__TOP__'
p1772
I01
sS'woodi__ALL__'
p1773
I01
sS'river__TOP__'
p1774
I01
sS'river__ALL__'
p1775
I01
sS'2__ALL__'
p1776
I01
sa(dp1777
S'.__BOTTOM__'
p1778
I01
sS'To__ALL__'
p1779
I01
sS'.__ALL__'
p1780
I01
sS'``__ALL__'
p1781
I01
sS'she__ALL__'
p1782
I01
sS'homegirl__ALL__'
p1783
I01
sS'and__ALL__'
p1784
I01
sS'my__BOTTOM__'
p1785
I01
sS'Shake__BOTTOM__'
p1786
I01
sS'strip__ALL__'
p1787
I01
sS'then__ALL__'
p1788
I01
sS'and__TOP__'
p1789
I01
sS'like__ALL__'
p1790
I01
sS'with__ALL__'
p1791
I01
sS'butt__BOTTOM__'
p1792
I01
sS'club__ALL__'
p1793
I01
sS'at__ALL__'
p1794
I01
sS'she__TOP__'
p1795
I01
sS'it__BOTTOM__'
p1796
I01
sS'a__ALL__'
p1797
I01
sS'here__ALL__'
p1798
I01
sS'then__TOP__'
p1799
I01
sS'strip__BOTTOM__'
p1800
I01
sS"''__BOTTOM__"
p1801
I01
sS"''__ALL__"
p1802
I01
sS'big__ALL__'
p1803
I01
sS'butt__ALL__'
p1804
I01
sS',__ALL__'
p1805
I01
sS'said__ALL__'
p1806
I01
sS'here__BOTTOM__'
p1807
I01
sS'big__BOTTOM__'
p1808
I01
sS'homegirl__BOTTOM__'
p1809
I01
sS'we__BOTTOM__'
p1810
I01
sS',__BOTTOM__'
p1811
I01
sS'we__ALL__'
p1812
I01
sS'like__BOTTOM__'
p1813
I01
sS'Shake__ALL__'
p1814
I01
sS'To__BOTTOM__'
p1815
I01
sS'a__BOTTOM__'
p1816
I01
sS'it__ALL__'
p1817
I01
sS'said__TOP__'
p1818
I01
sS'with__BOTTOM__'
p1819
I01
sS'my__ALL__'
p1820
I01
sS'club__BOTTOM__'
p1821
I01
sS'the__ALL__'
p1822
I01
sS'the__BOTTOM__'
p1823
I01
sS'at__BOTTOM__'
p1824
I01
sS'``__BOTTOM__'
p1825
I01
sa(dp1826
S',__TOP__'
p1827
I01
sS'woodi__TOP__'
p1828
I01
sS'munch__TOP__'
p1829
I01
sS'chicken__BOTTOM__'
p1830
I01
sS'Good__BOTTOM__'
p1831
I01
sS'Look__TOP__'
p1832
I01
sS'old__BOTTOM__'
p1833
I01
sS',__ALL__'
p1834
I01
sS'munch__ALL__'
p1835
I01
sS'Good__ALL__'
p1836
I01
sS'chicken__ALL__'
p1837
I01
sS'code__BOTTOM__'
p1838
I01
sS'Look__ALL__'
p1839
I01
sS'old__ALL__'
p1840
I01
sS'woodi__ALL__'
p1841
I01
sS'code__ALL__'
p1842
I01
sa(dp1843
S'look__ALL__'
p1844
I01
sS'flab__ALL__'
p1845
I01
sS'look__TOP__'
p1846
I01
sS'omg__TOP__'
p1847
I01
sS'deasi__ALL__'
p1848
I01
sS'omg__ALL__'
p1849
I01
sS'flab__TOP__'
p1850
I01
sS'the__TOP__'
p1851
I01
sS'on__ALL__'
p1852
I01
sS'deasi__BOTTOM__'
p1853
I01
sS'on__BOTTOM__'
p1854
I01
sS'the__BOTTOM__'
p1855
I01
sS'the__ALL__'
p1856
I01
sS'at__TOP__'
p1857
I01
sS'at__ALL__'
p1858
I01
sa(dp1859
S'thingsh__TOP__'
p1860
I01
sS'd__ALL__'
p1861
I01
sS'on__ALL__'
p1862
I01
sS'see__ALL__'
p1863
I01
sS'd__BOTTOM__'
p1864
I01
sS'thingsh__ALL__'
p1865
I01
sS'the__TOP__'
p1866
I01
sS'the__ALL__'
p1867
I01
sS'no__TOP__'
p1868
I01
sS'see__TOP__'
p1869
I01
sS'on__TOP__'
p1870
I01
sS'no__ALL__'
p1871
I01
sa(dp1872
S'children__TOP__'
p1873
I01
sS'everi__BOTTOM__'
p1874
I01
sS'everi__ALL__'
p1875
I01
sS'children__ALL__'
p1876
I01
sS'children__BOTTOM__'
p1877
I01
sS'where__BOTTOM__'
p1878
I01
sS'where__ALL__'
p1879
I01
sa(dp1880
S'world__BOTTOM__'
p1881
I01
sS'here__BOTTOM__'
p1882
I01
sS'we__ALL__'
p1883
I01
sS'can__ALL__'
p1884
I01
sS'world__ALL__'
p1885
I01
sS'the__ALL__'
p1886
I01
sS'see__ALL__'
p1887
I01
sS'can__TOP__'
p1888
I01
sS'here__ALL__'
p1889
I01
sS'from__BOTTOM__'
p1890
I01
sS'see__TOP__'
p1891
I01
sS'the__BOTTOM__'
p1892
I01
sS'whole__BOTTOM__'
p1893
I01
sS'we__TOP__'
p1894
I01
sS'from__ALL__'
p1895
I01
sS'whole__ALL__'
p1896
I01
sa(dp1897
S'.__BOTTOM__'
p1898
I01
sS'.__ALL__'
p1899
I01
sS'real__BOTTOM__'
p1900
I01
sS'figur__BOTTOM__'
p1901
I01
sS'a__ALL__'
p1902
I01
sS'sure__BOTTOM__'
p1903
I01
sS'nice__ALL__'
p1904
I01
sS'sure__ALL__'
p1905
I01
sS'action__BOTTOM__'
p1906
I01
sS'real__ALL__'
p1907
I01
sS'broli__BOTTOM__'
p1908
I01
sS'nice__BOTTOM__'
p1909
I01
sS'im__BOTTOM__'
p1910
I01
sS'guy__ALL__'
p1911
I01
sS'that__ALL__'
p1912
I01
sS'that__BOTTOM__'
p1913
I01
sS'is__BOTTOM__'
p1914
I01
sS'a__BOTTOM__'
p1915
I01
sS'im__ALL__'
p1916
I01
sS'broli__ALL__'
p1917
I01
sS'is__ALL__'
p1918
I01
sS'action__ALL__'
p1919
I01
sS'figur__ALL__'
p1920
I01
sS'guy__BOTTOM__'
p1921
I01
sa(dp1922
S'FRiend__TOP__'
p1923
I01
sS'school__ALL__'
p1924
I01
sS'Oh__BOTTOM__'
p1925
I01
sS'new__ALL__'
p1926
I01
sS'FRiend__ALL__'
p1927
I01
sS'``__ALL__'
p1928
I01
sS'god__ALL__'
p1929
I01
sS'school__TOP__'
p1930
I01
sS'you__TOP__'
p1931
I01
sS'Oh__ALL__'
p1932
I01
sS'god__BOTTOM__'
p1933
I01
sS'show__ALL__'
p1934
I01
sS'``__BOTTOM__'
p1935
I01
sS'you__ALL__'
p1936
I01
sS'around__TOP__'
p1937
I01
sS"''__BOTTOM__"
p1938
I01
sS'around__ALL__'
p1939
I01
sS'new__TOP__'
p1940
I01
sS"''__ALL__"
p1941
I01
sS'show__TOP__'
p1942
I01
sa(dp1943
S'shit__BOTTOM__'
p1944
I01
sS'said__TOP__'
p1945
I01
sS'they__TOP__'
p1946
I01
sS'alexi__BOTTOM__'
p1947
I01
sS'alexi__ALL__'
p1948
I01
sS'said__ALL__'
p1949
I01
sS'is__ALL__'
p1950
I01
sS'and__ALL__'
p1951
I01
sS'shit__ALL__'
p1952
I01
sS'they__ALL__'
p1953
I01
sS'is__BOTTOM__'
p1954
I01
sS'and__TOP__'
p1955
I01
sa(dp1956
S'wall__TOP__'
p1957
I01
sS'post__TOP__'
p1958
I01
sS'wall__ALL__'
p1959
I01
sS'post__ALL__'
p1960
I01
sS'everywher__ALL__'
p1961
I01
sS'wall__BOTTOM__'
p1962
I01
sS'post__BOTTOM__'
p1963
I01
sS'everywher__BOTTOM__'
p1964
I01
sa(dp1965
S'subii__TOP__'
p1966
I01
sS'norway__ALL__'
p1967
I01
sS'subii__ALL__'
p1968
I01
sS'dont__ALL__'
p1969
I01
sS'about__ALL__'
p1970
I01
sS'care__ALL__'
p1971
I01
sS'in__ALL__'
p1972
I01
sS'norway__BOTTOM__'
p1973
I01
sS'best__ALL__'
p1974
I01
sS'peopl__TOP__'
p1975
I01
sS'care__TOP__'
p1976
I01
sS'peopl__ALL__'
p1977
I01
sS'about__TOP__'
p1978
I01
sS'one__BOTTOM__'
p1979
I01
sS'would__BOTTOM__'
p1980
I01
sS'of__ALL__'
p1981
I01
sS'of__BOTTOM__'
p1982
I01
sS'If__TOP__'
p1983
I01
sS'be__ALL__'
p1984
I01
sS'in__BOTTOM__'
p1985
I01
sS'be__BOTTOM__'
p1986
I01
sS'If__ALL__'
p1987
I01
sS'best__BOTTOM__'
p1988
I01
sS'dont__TOP__'
p1989
I01
sS'one__ALL__'
p1990
I01
sS'mind__ALL__'
p1991
I01
sS'would__ALL__'
p1992
I01
sS'mind__TOP__'
p1993
I01
sS'he__ALL__'
p1994
I01
sS'the__ALL__'
p1995
I01
sS'the__BOTTOM__'
p1996
I01
sS'he__BOTTOM__'
p1997
I01
sa(dp1998
S'dog__ALL__'
p1999
I01
sS'dog__BOTTOM__'
p2000
I01
sS'everywher__ALL__'
p2001
I01
sS'hair__ALL__'
p2002
I01
sS'everywher__BOTTOM__'
p2003
I01
sS'dog__TOP__'
p2004
I01
sS'hair__TOP__'
p2005
I01
sS'hair__BOTTOM__'
p2006
I01
sa(dp2007
S'there__ALL__'
p2008
I01
sS'those__ALL__'
p2009
I01
sS'should__ALL__'
p2010
I01
sS'see__TOP__'
p2011
I01
sS'vote__ALL__'
p2012
I01
sS'those__TOP__'
p2013
I01
sS'peopl__TOP__'
p2014
I01
sS'bryce__ALL__'
p2015
I01
sS'peopl__ALL__'
p2016
I01
sS'?__TOP__'
p2017
I01
sS'should__BOTTOM__'
p2018
I01
sS'you__ALL__'
p2019
I01
sS'for__ALL__'
p2020
I01
sS'vote__BOTTOM__'
p2021
I01
sS'you__TOP__'
p2022
I01
sS'they__BOTTOM__'
p2023
I01
sS'they__ALL__'
p2024
I01
sS'for__BOTTOM__'
p2025
I01
sS'bryce__BOTTOM__'
p2026
I01
sS'?__ALL__'
p2027
I01
sS'see__ALL__'
p2028
I01
sS'the__ALL__'
p2029
I01
sS'the__BOTTOM__'
p2030
I01
sS"'s__ALL__"
p2031
I01
sS'there__TOP__'
p2032
I01
sS"'s__BOTTOM__"
p2033
I01
sa(dp2034
S'twist__TOP__'
p2035
I01
sS'Plot__BOTTOM__'
p2036
I01
sS'twist__ALL__'
p2037
I01
sS'twist__BOTTOM__'
p2038
I01
sS'everywher__ALL__'
p2039
I01
sS'Plot__TOP__'
p2040
I01
sS'everywher__BOTTOM__'
p2041
I01
sS'Plot__ALL__'
p2042
I01
sa(dp2043
S'it__TOP__'
p2044
I01
sS'there__BOTTOM__'
p2045
I01
sS'there__ALL__'
p2046
I01
sS'see__ALL__'
p2047
I01
sS'you__TOP__'
p2048
I01
sS'you__ALL__'
p2049
I01
sS'everywher__ALL__'
p2050
I01
sS'it__ALL__'
p2051
I01
sS'everywher__BOTTOM__'
p2052
I01
sS'see__TOP__'
p2053
I01
sa(dp2054
S'Look__ALL__'
p2055
I01
sS'!__ALL__'
p2056
I01
sS'for__BOTTOM__'
p2057
I01
sS'Look__TOP__'
p2058
I01
sS'!__TOP__'
p2059
I01
sS'wait__ALL__'
p2060
I01
sS'wait__BOTTOM__'
p2061
I01
sS'Prim__BOTTOM__'
p2062
I01
sS'you__ALL__'
p2063
I01
sS'you__BOTTOM__'
p2064
I01
sS'for__ALL__'
p2065
I01
sS'Prim__ALL__'
p2066
I01
sa(dp2067
S'there__BOTTOM__'
p2068
I01
sS"''__TOP__"
p2069
I01
sS'there__ALL__'
p2070
I01
sS'``__ALL__'
p2071
I01
sS'us__ALL__'
p2072
I01
sS'in__ALL__'
p2073
I01
sS'us__BOTTOM__'
p2074
I01
sS'choru__ALL__'
p2075
I01
sS'but__ALL__'
p2076
I01
sS'``__TOP__'
p2077
I01
sS'...__ALL__'
p2078
I01
sS"''__ALL__"
p2079
I01
sS'There__TOP__'
p2080
I01
sS'There__ALL__'
p2081
I01
sS'but__BOTTOM__'
p2082
I01
sS"''__BOTTOM__"
p2083
I01
sS'no__ALL__'
p2084
I01
sS'an__ALL__'
p2085
I01
sS'i__ALL__'
p2086
I01
sS'``__BOTTOM__'
p2087
I01
sS'no__TOP__'
p2088
I01
sS'is__BOTTOM__'
p2089
I01
sS'i__TOP__'
p2090
I01
sS'in__TOP__'
p2091
I01
sS'an__BOTTOM__'
p2092
I01
sS'is__ALL__'
p2093
I01
sS'is__TOP__'
p2094
I01
sS'choru__TOP__'
p2095
I01
sS'...__TOP__'
p2096
I01
sa(dp2097
S'school__ALL__'
p2098
I01
sS'Jan__ALL__'
p2099
I01
sS'Jan__BOTTOM__'
p2100
I01
sS'In__TOP__'
p2101
I01
sS'school__TOP__'
p2102
I01
sS',__ALL__'
p2103
I01
sS'In__ALL__'
p2104
I01
sS'the__TOP__'
p2105
I01
sS'everywher__ALL__'
p2106
I01
sS',__BOTTOM__'
p2107
I01
sS'everywher__BOTTOM__'
p2108
I01
sS'the__ALL__'
p2109
I01
sa(dp2110
S',__TOP__'
p2111
I01
sS'bretch__TOP__'
p2112
I01
sS'Nice__ALL__'
p2113
I01
sS'hill`__ALL__'
p2114
I01
sS'woodi__TOP__'
p2115
I01
sS'maisonett__TOP__'
p2116
I01
sS'hill`__TOP__'
p2117
I01
sS'look__TOP__'
p2118
I01
sS'look__ALL__'
p2119
I01
sS'Nice__BOTTOM__'
p2120
I01
sS',__ALL__'
p2121
I01
sS'huh__BOTTOM__'
p2122
I01
sS'huh__ALL__'
p2123
I01
sS'woodi__ALL__'
p2124
I01
sS'?__ALL__'
p2125
I01
sS'bretch__ALL__'
p2126
I01
sS'maisonett__ALL__'
p2127
I01
sS'?__BOTTOM__'
p2128
I01
sa(dp2129
S'vinegar__BOTTOM__'
p2130
I01
sS'vinegar__TOP__'
p2131
I01
sS'balsam__ALL__'
p2132
I01
sS'everywher__ALL__'
p2133
I01
sS'balsam__BOTTOM__'
p2134
I01
sS'balsam__TOP__'
p2135
I01
sS'everywher__BOTTOM__'
p2136
I01
sS'vinegar__ALL__'
p2137
I01
sa(dp2138
S'everywher__ALL__'
p2139
I01
sS'Car__TOP__'
p2140
I01
sS'commerci__TOP__'
p2141
I01
sS'Car__BOTTOM__'
p2142
I01
sS'Car__ALL__'
p2143
I01
sS'everywher__BOTTOM__'
p2144
I01
sS'commerci__ALL__'
p2145
I01
sS'commerci__BOTTOM__'
p2146
I01
sa(dp2147
S'Work__BOTTOM__'
p2148
I01
sS"n't__ALL__"
p2149
I01
sS'career__ALL__'
p2150
I01
sS'are__ALL__'
p2151
I01
sS'parti__ALL__'
p2152
I01
sS'boot__ALL__'
p2153
I01
sS"n't__TOP__"
p2154
I01
sS'worri__TOP__'
p2155
I01
sS'Do__ALL__'
p2156
I01
sS'parti__BOTTOM__'
p2157
I01
sS'are__BOTTOM__'
p2158
I01
sS'boot__TOP__'
p2159
I01
sS'Work__ALL__'
p2160
I01
sS'career__BOTTOM__'
p2161
I01
sS'worri__ALL__'
p2162
I01
sS'Do__TOP__'
p2163
I01
sa(dp2164
S'all__ALL__'
p2165
I01
sS'bateman__ALL__'
p2166
I01
sS'can__ALL__'
p2167
I01
sS'the__TOP__'
p2168
I01
sS'drive__TOP__'
p2169
I01
sS'drive__ALL__'
p2170
I01
sS'than__ALL__'
p2171
I01
sS'at__ALL__'
p2172
I01
sS'peopl__TOP__'
p2173
I01
sS'Look__TOP__'
p2174
I01
sS'can__TOP__'
p2175
I01
sS'Look__ALL__'
p2176
I01
sS'other__TOP__'
p2177
I01
sS'other__ALL__'
p2178
I01
sS'that__ALL__'
p2179
I01
sS'than__BOTTOM__'
p2180
I01
sS'drybridg__ALL__'
p2181
I01
sS'bateman__BOTTOM__'
p2182
I01
sS'that__TOP__'
p2183
I01
sS'to__ALL__'
p2184
I01
sS'drybridg__TOP__'
p2185
I01
sS'all__TOP__'
p2186
I01
sS'other__BOTTOM__'
p2187
I01
sS'to__TOP__'
p2188
I01
sS'peopl__ALL__'
p2189
I01
sS'the__ALL__'
p2190
I01
sS'at__TOP__'
p2191
I01
sa(dp2192
S'.__BOTTOM__'
p2193
I01
sS'Sag__TOP__'
p2194
I01
sS'.__ALL__'
p2195
I01
sS'everywher__BOTTOM__'
p2196
I01
sS'warrant__TOP__'
p2197
I01
sS'warrant__BOTTOM__'
p2198
I01
sS'pant__ALL__'
p2199
I01
sS'everywher__ALL__'
p2200
I01
sS'and__ALL__'
p2201
I01
sS'Sag__BOTTOM__'
p2202
I01
sS'pant__BOTTOM__'
p2203
I01
sS'warrant__ALL__'
p2204
I01
sS'Sag__ALL__'
p2205
I01
sS'and__BOTTOM__'
p2206
I01
sS'.__TOP__'
p2207
I01
sS'and__TOP__'
p2208
I01
sS'pant__TOP__'
p2209
I01
sa(dp2210
S'face__ALL__'
p2211
I01
sS'smile__BOTTOM__'
p2212
I01
sS'endless__TOP__'
p2213
I01
sS'lol__ALL__'
p2214
I01
sS'troll__BOTTOM__'
p2215
I01
sS'endless__ALL__'
p2216
I01
sS'lol__BOTTOM__'
p2217
I01
sS'smile__ALL__'
p2218
I01
sS'troll__ALL__'
p2219
I01
sS'mile__TOP__'
p2220
I01
sS'face__BOTTOM__'
p2221
I01
sS'mile__ALL__'
p2222
I01
sa(dp2223
S'She__ALL__'
p2224
I01
sS'Yeah__TOP__'
p2225
I01
sS'wa__ALL__'
p2226
I01
sS'Terribl__BOTTOM__'
p2227
I01
sS'wa__TOP__'
p2228
I01
sS'wa__BOTTOM__'
p2229
I01
sS'said__TOP__'
p2230
I01
sS'She__BOTTOM__'
p2231
I01
sS'said__ALL__'
p2232
I01
sS'bad__ALL__'
p2233
I01
sS'she__TOP__'
p2234
I01
sS'When__ALL__'
p2235
I01
sS'When__TOP__'
p2236
I01
sS'Yeah__ALL__'
p2237
I01
sS'bad__TOP__'
p2238
I01
sS'Terribl__ALL__'
p2239
I01
sS'she__ALL__'
p2240
I01
sa(dp2241
S'.__BOTTOM__'
p2242
I01
sS'.__ALL__'
p2243
I01
sS'Zettabyt__TOP__'
p2244
I01
sS'hard__ALL__'
p2245
I01
sS'Zettabyt__ALL__'
p2246
I01
sS'...__ALL__'
p2247
I01
sS'hard__BOTTOM__'
p2248
I01
sS'everywher__ALL__'
p2249
I01
sS'...__TOP__'
p2250
I01
sS'Zettabyt__BOTTOM__'
p2251
I01
sS'everywher__BOTTOM__'
p2252
I01
sS'drive__BOTTOM__'
p2253
I01
sS'drive__ALL__'
p2254
I01
sa(dp2255
S'it__TOP__'
p2256
I01
sS'is..__TOP__'
p2257
I01
sS'lose__ALL__'
p2258
I01
sS'lose__BOTTOM__'
p2259
I01
sS'to__BOTTOM__'
p2260
I01
sS'road__BOTTOM__'
p2261
I01
sS'road__ALL__'
p2262
I01
sS'weight__BOTTOM__'
p2263
I01
sS'there__ALL__'
p2264
I01
sS'weight__ALL__'
p2265
I01
sS'is..__ALL__'
p2266
I01
sS'it__ALL__'
p2267
I01
sS'to__ALL__'
p2268
I01
sS'the__ALL__'
p2269
I01
sS'the__BOTTOM__'
p2270
I01
sS'there__TOP__'
p2271
I01
sa(dp2272
S'thi__ALL__'
p2273
I01
sS'thi__TOP__'
p2274
I01
sS'imagin__ALL__'
p2275
I01
sS'own__ALL__'
p2276
I01
sS'quotes..__BOTTOM__'
p2277
I01
sS'imagin__TOP__'
p2278
I01
sS'...__ALL__'
p2279
I01
sS'do__ALL__'
p2280
I01
sS'quotes..__ALL__'
p2281
I01
sS'own__BOTTOM__'
p2282
I01
sS'...__TOP__'
p2283
I01
sS'do__BOTTOM__'
p2284
I01
sS'your__ALL__'
p2285
I01
sS'you__ALL__'
p2286
I01
sS'you__BOTTOM__'
p2287
I01
sS'your__BOTTOM__'
p2288
I01
sa(dp2289
S'!__ALL__'
p2290
I01
sS'hard__TOP__'
p2291
I01
sS'!__BOTTOM__'
p2292
I01
sS'Tri__BOTTOM__'
p2293
I01
sS'everywher__ALL__'
p2294
I01
sS'hard__BOTTOM__'
p2295
I01
sS'Tri__ALL__'
p2296
I01
sS'everywher__BOTTOM__'
p2297
I01
sS'Tri__TOP__'
p2298
I01
sS'hard__ALL__'
p2299
I01
sa(dp2300
S'meme__ALL__'
p2301
I01
sS'Download__TOP__'
p2302
I01
sS'meme__BOTTOM__'
p2303
I01
sS'everywher__ALL__'
p2304
I01
sS'download__ALL__'
p2305
I01
sS'everywher__BOTTOM__'
p2306
I01
sS'download__BOTTOM__'
p2307
I01
sS'meme__TOP__'
p2308
I01
sS'Download__ALL__'
p2309
I01
sa(dp2310
S'xD__TOP__'
p2311
I01
sS'!__ALL__'
p2312
I01
sS'cool__TOP__'
p2313
I01
sS'Imagin__ALL__'
p2314
I01
sS'!__TOP__'
p2315
I01
sS'cool__ALL__'
p2316
I01
sS'xD__ALL__'
p2317
I01
sS'Imagin__TOP__'
p2318
I01
sS'be__ALL__'
p2319
I01
sS'alexaa__TOP__'
p2320
I01
sS'alexaa__ALL__'
p2321
I01
sS'be__TOP__'
p2322
I01
sa(dp2323
S"'ll__BOTTOM__"
p2324
I01
sS'day__ALL__'
p2325
I01
sS'between__BOTTOM__'
p2326
I01
sS'at__ALL__'
p2327
I01
sS'between__ALL__'
p2328
I01
sS'rebuild__ALL__'
p2329
I01
sS'...__ALL__'
p2330
I01
sS'HFA__BOTTOM__'
p2331
I01
sS'one__BOTTOM__'
p2332
I01
sS'wall__BOTTOM__'
p2333
I01
sS'imagin__ALL__'
p2334
I01
sS'HFA__ALL__'
p2335
I01
sS"'ll__ALL__"
p2336
I01
sS'...__TOP__'
p2337
I01
sS'they__BOTTOM__'
p2338
I01
sS'they__ALL__'
p2339
I01
sS'urin__ALL__'
p2340
I01
sS'rebuild__BOTTOM__'
p2341
I01
sS'urin__BOTTOM__'
p2342
I01
sS'imagin__TOP__'
p2343
I01
sS'wall__ALL__'
p2344
I01
sS'one__ALL__'
p2345
I01
sS'day__BOTTOM__'
p2346
I01
sS'the__ALL__'
p2347
I01
sS'the__BOTTOM__'
p2348
I01
sS'at__BOTTOM__'
p2349
I01
sa(dp2350
S'call__BOTTOM__'
p2351
I01
sS'we__ALL__'
p2352
I01
sS'look__TOP__'
p2353
I01
sS'what__ALL__'
p2354
I01
sS'call__ALL__'
p2355
I01
sS'weine__BOTTOM__'
p2356
I01
sS'look__ALL__'
p2357
I01
sS'!__BOTTOM__'
p2358
I01
sS'here__ALL__'
p2359
I01
sS'boot__ALL__'
p2360
I01
sS'that__ALL__'
p2361
I01
sS'that__BOTTOM__'
p2362
I01
sS'we__BOTTOM__'
p2363
I01
sS'boot__TOP__'
p2364
I01
sS'what__BOTTOM__'
p2365
I01
sS'!__ALL__'
p2366
I01
sS'weine__ALL__'
p2367
I01
sS'blue__ALL__'
p2368
I01
sS'blue__BOTTOM__'
p2369
I01
sS'here__TOP__'
p2370
I01
sS'the__ALL__'
p2371
I01
sS'the__BOTTOM__'
p2372
I01
sa(dp2373
S'All__ALL__'
p2374
I01
sS'it__TOP__'
p2375
I01
sS'bitCh__BOTTOM__'
p2376
I01
sS'All__BOTTOM__'
p2377
I01
sS'want__BOTTOM__'
p2378
I01
sS'Pictur__ALL__'
p2379
I01
sS'Pictur__TOP__'
p2380
I01
sS'could__ALL__'
p2381
I01
sS'could__BOTTOM__'
p2382
I01
sS'want__ALL__'
p2383
I01
sS'it__ALL__'
p2384
I01
sS'you__BOTTOM__'
p2385
I01
sS'the__ALL__'
p2386
I01
sS'the__BOTTOM__'
p2387
I01
sS'you__ALL__'
p2388
I01
sS'bitCh__ALL__'
p2389
I01
sa(dp2390
S'itzzt3ck__ALL__'
p2391
I01
sS'is__ALL__'
p2392
I01
sS"n't__ALL__"
p2393
I01
sS'a__BOTTOM__'
p2394
I01
sS'noob__BOTTOM__'
p2395
I01
sS'noob__ALL__'
p2396
I01
sS'a__ALL__'
p2397
I01
sS"n't__TOP__"
p2398
I01
sS'Do__TOP__'
p2399
I01
sS'worri__TOP__'
p2400
I01
sS'Do__ALL__'
p2401
I01
sS'worri__ALL__'
p2402
I01
sS'too__BOTTOM__'
p2403
I01
sS'too__ALL__'
p2404
I01
sS'woddi__ALL__'
p2405
I01
sS'woddi__TOP__'
p2406
I01
sS'is__BOTTOM__'
p2407
I01
sS'itzzt3ck__BOTTOM__'
p2408
I01
sa(dp2409
S'our__BOTTOM__'
p2410
I01
sS'Hay__TOP__'
p2411
I01
sS'!__BOTTOM__'
p2412
I01
sS'mason__TOP__'
p2413
I01
sS'biggest__ALL__'
p2414
I01
sS'Hay__ALL__'
p2415
I01
sS'is__ALL__'
p2416
I01
sS'!__ALL__'
p2417
I01
sS'mason__ALL__'
p2418
I01
sS'he__ALL__'
p2419
I01
sS'our__ALL__'
p2420
I01
sS'fan__BOTTOM__'
p2421
I01
sS'he__BOTTOM__'
p2422
I01
sS'is__BOTTOM__'
p2423
I01
sS'fan__ALL__'
p2424
I01
sS'biggest__BOTTOM__'
p2425
I01
sa(dp2426
S'scare__TOP__'
p2427
I01
sS'merciless__BOTTOM__'
p2428
I01
sS'movi__ALL__'
p2429
I01
sS'movi__BOTTOM__'
p2430
I01
sS'wtf__BOTTOM__'
p2431
I01
sS'onli__ALL__'
p2432
I01
sS'your__BOTTOM__'
p2433
I01
sS'scare__ALL__'
p2434
I01
sS"'m__ALL__"
p2435
I01
sS'a__ALL__'
p2436
I01
sS"'m__TOP__"
p2437
I01
sS'shanklin__TOP__'
p2438
I01
sS'shanklin__ALL__'
p2439
I01
sS'download__ALL__'
p2440
I01
sS'i__ALL__'
p2441
I01
sS'wtf__ALL__'
p2442
I01
sS',__ALL__'
p2443
I01
sS',__BOTTOM__'
p2444
I01
sS'your__ALL__'
p2445
I01
sS'onli__BOTTOM__'
p2446
I01
sS'i__TOP__'
p2447
I01
sS'merciless__ALL__'
p2448
I01
sS'a__BOTTOM__'
p2449
I01
sS'download__BOTTOM__'
p2450
I01
sa(dp2451
S'.__BOTTOM__'
p2452
I01
sS'by__BOTTOM__'
p2453
I01
sS'.__ALL__'
p2454
I01
sS'stick__TOP__'
p2455
I01
sS'Noah__ALL__'
p2456
I01
sS'out__TOP__'
p2457
I01
sS'out__ALL__'
p2458
I01
sS'case__ALL__'
p2459
I01
sS'float__ALL__'
p2460
I01
sS'case__BOTTOM__'
p2461
I01
sS'thumb__ALL__'
p2462
I01
sS'In__ALL__'
p2463
I01
sS'In__BOTTOM__'
p2464
I01
sS'thumb__TOP__'
p2465
I01
sS',__TOP__'
p2466
I01
sS'by__ALL__'
p2467
I01
sS'Noah__BOTTOM__'
p2468
I01
sS',__ALL__'
p2469
I01
sS'your__ALL__'
p2470
I01
sS'float__BOTTOM__'
p2471
I01
sS'your__TOP__'
p2472
I01
sS'Dude__ALL__'
p2473
I01
sS'Dude__TOP__'
p2474
I01
sS'stick__ALL__'
p2475
I01
sa(dp2476
S'merciless__TOP__'
p2477
I01
sS'hey__ALL__'
p2478
I01
sS'merciless__ALL__'
p2479
I01
sS'help__ALL__'
p2480
I01
sS'help__TOP__'
p2481
I01
sS'dailyflix__ALL__'
p2482
I01
sS'wan__ALL__'
p2483
I01
sS'me__ALL__'
p2484
I01
sS'na__ALL__'
p2485
I01
sS'take__ALL__'
p2486
I01
sS'dailyflix__TOP__'
p2487
I01
sS'wan__TOP__'
p2488
I01
sS'me__TOP__'
p2489
I01
sS'take__TOP__'
p2490
I01
sS'over__TOP__'
p2491
I01
sS'hey__TOP__'
p2492
I01
sS'over__ALL__'
p2493
I01
sS'na__TOP__'
p2494
I01
sa(dp2495
S',__TOP__'
p2496
I01
sS'a__ALL__'
p2497
I01
sS'beAk__ALL__'
p2498
I01
sS'woodi__TOP__'
p2499
I01
sS'chicken__BOTTOM__'
p2500
I01
sS'Good__BOTTOM__'
p2501
I01
sS'Look__TOP__'
p2502
I01
sS'a__TOP__'
p2503
I01
sS'old__BOTTOM__'
p2504
I01
sS'code__ALL__'
p2505
I01
sS',__ALL__'
p2506
I01
sS'old__ALL__'
p2507
I01
sS'beAk__TOP__'
p2508
I01
sS'chicken__ALL__'
p2509
I01
sS'code__BOTTOM__'
p2510
I01
sS'Look__ALL__'
p2511
I01
sS'woodi__ALL__'
p2512
I01
sS'Good__ALL__'
p2513
I01
sa(dp2514
S'it__TOP__'
p2515
I01
sS'go__BOTTOM__'
p2516
I01
sS'go__ALL__'
p2517
I01
sS'to__BOTTOM__'
p2518
I01
sS'tonight__BOTTOM__'
p2519
I01
sS'summer__ALL__'
p2520
I01
sS'so__ALL__'
p2521
I01
sS'river__ALL__'
p2522
I01
sS'summer__TOP__'
p2523
I01
sS'hudson__BOTTOM__'
p2524
I01
sS'so__TOP__'
p2525
I01
sS'hudson__ALL__'
p2526
I01
sS'is__TOP__'
p2527
I01
sS'it__ALL__'
p2528
I01
sS'to__ALL__'
p2529
I01
sS'river__BOTTOM__'
p2530
I01
sS'tonight__ALL__'
p2531
I01
sS'is__ALL__'
p2532
I01
sa(dp2533
S'UXI__BOTTOM__'
p2534
I01
sS'Out__ALL__'
p2535
I01
sS'abov__TOP__'
p2536
I01
sS'Exist__ALL__'
p2537
I01
sS'technolog__ALL__'
p2538
I01
sS'a__BOTTOM__'
p2539
I01
sS'there__ALL__'
p2540
I01
sS'Call__BOTTOM__'
p2541
I01
sS'a__ALL__'
p2542
I01
sS'Websit__ALL__'
p2543
I01
sS'Normal__TOP__'
p2544
I01
sS'Normal__ALL__'
p2545
I01
sS'Exist__BOTTOM__'
p2546
I01
sS'Out__TOP__'
p2547
I01
sS'Websit__TOP__'
p2548
I01
sS'UXI__ALL__'
p2549
I01
sS'Call__ALL__'
p2550
I01
sS'technolog__BOTTOM__'
p2551
I01
sS'abov__ALL__'
p2552
I01
sS'there__TOP__'
p2553
I01
sa(dp2554
S'a__ALL__'
p2555
I01
sS'big__ALL__'
p2556
I01
sS'leav__BOTTOM__'
p2557
I01
sS'a__TOP__'
p2558
I01
sS'there__ALL__'
p2559
I01
sS'big__TOP__'
p2560
I01
sS'so__BOTTOM__'
p2561
I01
sS'is__ALL__'
p2562
I01
sS'out__TOP__'
p2563
I01
sS'is__TOP__'
p2564
I01
sS'world__TOP__'
p2565
I01
sS'world__ALL__'
p2566
I01
sS'leav__ALL__'
p2567
I01
sS'out__ALL__'
p2568
I01
sS'so__ALL__'
p2569
I01
sS'there__TOP__'
p2570
I01
sa(dp2571
S'farm__TOP__'
p2572
I01
sS'there__ALL__'
p2573
I01
sS'my__TOP__'
p2574
I01
sS'farm__ALL__'
p2575
I01
sS'my__ALL__'
p2576
I01
sS'granda__ALL__'
p2577
I01
sS'granda__TOP__'
p2578
I01
sS'there__TOP__'
p2579
I01
sa(dp2580
S'tool__ALL__'
p2581
I01
sS'free__ALL__'
p2582
I01
sS'?__ALL__'
p2583
I01
sS'tool__BOTTOM__'
p2584
I01
sS'check__ALL__'
p2585
I01
sS'hour__ALL__'
p2586
I01
sS'cpi__BOTTOM__'
p2587
I01
sS'free__TOP__'
p2588
I01
sS'cpi__ALL__'
p2589
I01
sS'check__BOTTOM__'
p2590
I01
sS'?__TOP__'
p2591
I01
sS'commerci__TOP__'
p2592
I01
sS'when__ALL__'
p2593
I01
sS'hour__TOP__'
p2594
I01
sS'order__BOTTOM__'
p2595
I01
sS'your__ALL__'
p2596
I01
sS'order__ALL__'
p2597
I01
sS'commerci__ALL__'
p2598
I01
sS'your__BOTTOM__'
p2599
I01
sS'when__BOTTOM__'
p2600
I01
sa(dp2601
S'have__TOP__'
p2602
I01
sS'there__ALL__'
p2603
I01
sS'in__ALL__'
p2604
I01
sS'up__BOTTOM__'
p2605
I01
sS'The__ALL__'
p2606
I01
sS'there__BOTTOM__'
p2607
I01
sS'have__ALL__'
p2608
I01
sS'best__ALL__'
p2609
I01
sS'best__TOP__'
p2610
I01
sS'The__TOP__'
p2611
I01
sS'you__ALL__'
p2612
I01
sS'friend__TOP__'
p2613
I01
sS'ever__ALL__'
p2614
I01
sS'friend__ALL__'
p2615
I01
sS'ever__TOP__'
p2616
I01
sS"'ll__ALL__"
p2617
I01
sS'you__TOP__'
p2618
I01
sS'in__BOTTOM__'
p2619
I01
sS'is__BOTTOM__'
p2620
I01
sS"'ll__TOP__"
p2621
I01
sS'is__ALL__'
p2622
I01
sS'up__ALL__'
p2623
I01
sS'heaven__BOTTOM__'
p2624
I01
sS'heaven__ALL__'
p2625
I01
sa(dp2626
S'play__TOP__'
p2627
I01
sS'subii__TOP__'
p2628
I01
sS'could__TOP__'
p2629
I01
sS'subii__ALL__'
p2630
I01
sS'shit__BOTTOM__'
p2631
I01
sS'fotbal__ALL__'
p2632
I01
sS'If__ALL__'
p2633
I01
sS'could__ALL__'
p2634
I01
sS'bin__ALL__'
p2635
I01
sS'shit__ALL__'
p2636
I01
sS'would__ALL__'
p2637
I01
sS'would__BOTTOM__'
p2638
I01
sS'bin__BOTTOM__'
p2639
I01
sS'play__ALL__'
p2640
I01
sS'fotbal__TOP__'
p2641
I01
sS'he__ALL__'
p2642
I01
sS'he__BOTTOM__'
p2643
I01
sS'If__TOP__'
p2644
I01
sa(dp2645
S'time__ALL__'
p2646
I01
sS'time__BOTTOM__'
p2647
I01
sS'it__BOTTOM__'
p2648
I01
sS'mitchel__TOP__'
p2649
I01
sS'it__ALL__'
p2650
I01
sS'mitchel__ALL__'
p2651
I01
sS'bath__ALL__'
p2652
I01
sS'bath__BOTTOM__'
p2653
I01
sa(dp2654
S'all__ALL__'
p2655
I01
sS'all__BOTTOM__'
p2656
I01
sS'like__BOTTOM__'
p2657
I01
sS'like__ALL__'
p2658
I01
sS'never__BOTTOM__'
p2659
I01
sS'woodi__TOP__'
p2660
I01
sS'never__ALL__'
p2661
I01
sS'see__ALL__'
p2662
I01
sS'realli__ALL__'
p2663
I01
sS'you__TOP__'
p2664
I01
sS'you__ALL__'
p2665
I01
sS'realli__BOTTOM__'
p2666
I01
sS'woodi__ALL__'
p2667
I01
sS'see__TOP__'
p2668
I01
sS'you__BOTTOM__'
p2669
I01
sS'at__BOTTOM__'
p2670
I01
sS'mark__ALL__'
p2671
I01
sS'mark__BOTTOM__'
p2672
I01
sS'at__ALL__'
p2673
I01
sa(dp2674
S'Ramesh__ALL__'
p2675
I01
sS'Teach__ALL__'
p2676
I01
sS'I__TOP__'
p2677
I01
sS'to__BOTTOM__'
p2678
I01
sS'to__ALL__'
p2679
I01
sS"'ll__TOP__"
p2680
I01
sS'Ramesh__TOP__'
p2681
I01
sS'lie__ALL__'
p2682
I01
sS"'ll__ALL__"
p2683
I01
sS'stop__ALL__'
p2684
I01
sS'Teach__TOP__'
p2685
I01
sS'I__ALL__'
p2686
I01
sS'You__ALL__'
p2687
I01
sS'You__BOTTOM__'
p2688
I01
sS'lie__BOTTOM__'
p2689
I01
sS'stop__BOTTOM__'
p2690
I01
sa(dp2691
S'Dell__TOP__'
p2692
I01
sS'Dell__ALL__'
p2693
I01
sS'Dell__BOTTOM__'
p2694
I01
sS'compon__ALL__'
p2695
I01
sS'everywher__ALL__'
p2696
I01
sS'compon__BOTTOM__'
p2697
I01
sS'compon__TOP__'
p2698
I01
sS'everywher__BOTTOM__'
p2699
I01
sa(dp2700
S'to__ALL__'
p2701
I01
sS'have__TOP__'
p2702
I01
sS'expect__ALL__'
p2703
I01
sS'reset__BOTTOM__'
p2704
I01
sS'just__ALL__'
p2705
I01
sS'to__TOP__'
p2706
I01
sS'you__TOP__'
p2707
I01
sS'just__TOP__'
p2708
I01
sS'you__ALL__'
p2709
I01
sS'expect__BOTTOM__'
p2710
I01
sS'have__ALL__'
p2711
I01
sS'reset__ALL__'
p2712
I01
sa(dp2713
S'year__ALL__'
p2714
I01
sS'year__BOTTOM__'
p2715
I01
sS'call__BOTTOM__'
p2716
I01
sS'land__BOTTOM__'
p2717
I01
sS'light__ALL__'
p2718
I01
sS"'ll__BOTTOM__"
p2719
I01
sS'it__BOTTOM__'
p2720
I01
sS"'ll__ALL__"
p2721
I01
sS'And__ALL__'
p2722
I01
sS'we__ALL__'
p2723
I01
sS'light__BOTTOM__'
p2724
I01
sS'we__BOTTOM__'
p2725
I01
sS'And__BOTTOM__'
p2726
I01
sS'call__ALL__'
p2727
I01
sS'land__ALL__'
p2728
I01
sS'it__ALL__'
p2729
I01
sa(dp2730
S'Squat__TOP__'
p2731
I01
sS'rack__TOP__'
p2732
I01
sS'everywher__ALL__'
p2733
I01
sS'everywher__BOTTOM__'
p2734
I01
sS'rack__ALL__'
p2735
I01
sS'rack__BOTTOM__'
p2736
I01
sS'SquaT__ALL__'
p2737
I01
sS'SquaT__BOTTOM__'
p2738
I01
sS'Squat__ALL__'
p2739
I01
sa(dp2740
S'Teacher__ALL__'
p2741
I01
sS'smoke__ALL__'
p2742
I01
sS'83__TOP__'
p2743
I01
sS'teacher__ALL__'
p2744
I01
sS'smoke__TOP__'
p2745
I01
sS'83__ALL__'
p2746
I01
sS'everywher__BOTTOM__'
p2747
I01
sS'83__BOTTOM__'
p2748
I01
sS'ps__ALL__'
p2749
I01
sS'everywher__ALL__'
p2750
I01
sS'ps__BOTTOM__'
p2751
I01
sS'weed__TOP__'
p2752
I01
sS'Teacher__TOP__'
p2753
I01
sS'weed__ALL__'
p2754
I01
sS'weed__BOTTOM__'
p2755
I01
sS'ps__TOP__'
p2756
I01
sS'teacher__BOTTOM__'
p2757
I01
sS'smoke__BOTTOM__'
p2758
I01
sa(dp2759
S'own__BOTTOM__'
p2760
I01
sS'you__BOTTOM__'
p2761
I01
sS'hore__BOTTOM__'
p2762
I01
sS'Life__ALL__'
p2763
I01
sS'your__BOTTOM__'
p2764
I01
sS'have__ALL__'
p2765
I01
sS'realli__ALL__'
p2766
I01
sS'you__ALL__'
p2767
I01
sS'person__ALL__'
p2768
I01
sS'Life__TOP__'
p2769
I01
sS'up__TOP__'
p2770
I01
sS'person__BOTTOM__'
p2771
I01
sS'realli__TOP__'
p2772
I01
sS'hore__ALL__'
p2773
I01
sS'own__ALL__'
p2774
I01
sS'when__ALL__'
p2775
I01
sS'have__BOTTOM__'
p2776
I01
sS'your__ALL__'
p2777
I01
sS'open__ALL__'
p2778
I01
sS'open__TOP__'
p2779
I01
sS'up__ALL__'
p2780
I01
sS'when__BOTTOM__'
p2781
I01
sa(dp2782
S'Miami__ALL__'
p2783
I01
sS'grad__TOP__'
p2784
I01
sS'Miami__TOP__'
p2785
I01
sS'grad__ALL__'
p2786
I01
sS'grad__BOTTOM__'
p2787
I01
sS'everywher__ALL__'
p2788
I01
sS'everywher__BOTTOM__'
p2789
I01
sS'Miami__BOTTOM__'
p2790
I01
sa(dp2791
S'cri__ALL__'
p2792
I01
sS'Mom__TOP__'
p2793
I01
sS'cri__TOP__'
p2794
I01
sS'Mom__ALL__'
p2795
I01
sS'cri__BOTTOM__'
p2796
I01
sS'everywher__ALL__'
p2797
I01
sS'Mom__BOTTOM__'
p2798
I01
sS'everywher__BOTTOM__'
p2799
I01
sa(dp2800
S'emblem__ALL__'
p2801
I01
sS'emblem__BOTTOM__'
p2802
I01
sS'everywher__ALL__'
p2803
I01
sS'emblem__TOP__'
p2804
I01
sS'stolen__TOP__'
p2805
I01
sS'everywher__BOTTOM__'
p2806
I01
sS'stolen__BOTTOM__'
p2807
I01
sS'stolen__ALL__'
p2808
I01
sa(dp2809
S'nazi__ALL__'
p2810
I01
sS'nazi__TOP__'
p2811
I01
sS'Grammar__BOTTOM__'
p2812
I01
sS'nazi__BOTTOM__'
p2813
I01
sS'everywher__ALL__'
p2814
I01
sS'Grammar__ALL__'
p2815
I01
sS'everywher__BOTTOM__'
p2816
I01
sS'Grammar__TOP__'
p2817
I01
sa(dp2818
S'Cat__TOP__'
p2819
I01
sS'and__BOTTOM__'
p2820
I01
sS'everywher__ALL__'
p2821
I01
sS'Cat__ALL__'
p2822
I01
sS'Cat__BOTTOM__'
p2823
I01
sS'and__ALL__'
p2824
I01
sS'fox__BOTTOM__'
p2825
I01
sS'fox__ALL__'
p2826
I01
sS'everywher__BOTTOM__'
p2827
I01
sa(dp2828
S'atl__TOP__'
p2829
I01
sS'stripclub__BOTTOM__'
p2830
I01
sS'stripclub__ALL__'
p2831
I01
sS'to__ALL__'
p2832
I01
sS'atl__ALL__'
p2833
I01
sS'everywher__BOTTOM__'
p2834
I01
sS'to__TOP__'
p2835
I01
sS'everywher__ALL__'
p2836
I01
sS'jim__ALL__'
p2837
I01
sS'welcom__ALL__'
p2838
I01
sS'jim__TOP__'
p2839
I01
sS'welcom__TOP__'
p2840
I01
sS'stripclub__TOP__'
p2841
I01
sa(dp2842
S'militari__ALL__'
p2843
I01
sS'conflict__ALL__'
p2844
I01
sS'militari__TOP__'
p2845
I01
sS'conflict__BOTTOM__'
p2846
I01
sS'everywher__ALL__'
p2847
I01
sS'conflict__TOP__'
p2848
I01
sS'everywher__BOTTOM__'
p2849
I01
sS'militari__BOTTOM__'
p2850
I01
sa(dp2851
S'suit__ALL__'
p2852
I01
sS'suit__BOTTOM__'
p2853
I01
sS'status__TOP__'
p2854
I01
sS'suit__TOP__'
p2855
I01
sS'everywher__ALL__'
p2856
I01
sS'status__BOTTOM__'
p2857
I01
sS'everywher__BOTTOM__'
p2858
I01
sS'status__ALL__'
p2859
I01
sa(dp2860
S'Bru__TOP__'
p2861
I01
sS',__TOP__'
p2862
I01
sS'sorri__TOP__'
p2863
I01
sS'cant__ALL__'
p2864
I01
sS'ani__BOTTOM__'
p2865
I01
sS'ani__ALL__'
p2866
I01
sS'Bru__ALL__'
p2867
I01
sS'im__ALL__'
p2868
I01
sS'cant__BOTTOM__'
p2869
I01
sS',__ALL__'
p2870
I01
sS'sorri__ALL__'
p2871
I01
sS'we__ALL__'
p2872
I01
sS'im__TOP__'
p2873
I01
sS'we__BOTTOM__'
p2874
I01
sS'bike__BOTTOM__'
p2875
I01
sS'have__BOTTOM__'
p2876
I01
sS'lane__ALL__'
p2877
I01
sS'have__ALL__'
p2878
I01
sS'lane__BOTTOM__'
p2879
I01
sS'bike__ALL__'
p2880
I01
sa(dp2881
S'it__TOP__'
p2882
I01
sS'Sometim__ALL__'
p2883
I01
sS'servic__TOP__'
p2884
I01
sS'not__TOP__'
p2885
I01
sS'custom__TOP__'
p2886
I01
sS'servic__ALL__'
p2887
I01
sS'Sometim__TOP__'
p2888
I01
sS'not__ALL__'
p2889
I01
sS'just__ALL__'
p2890
I01
sS'Sometim__BOTTOM__'
p2891
I01
sS'custom__ALL__'
p2892
I01
sS'bad__ALL__'
p2893
I01
sS'bad__BOTTOM__'
p2894
I01
sS'it__BOTTOM__'
p2895
I01
sS'custom__BOTTOM__'
p2896
I01
sS'it__ALL__'
p2897
I01
sS'just__BOTTOM__'
p2898
I01
sS'bad__TOP__'
p2899
I01
sS"'s__ALL__"
p2900
I01
sS"'s__BOTTOM__"
p2901
I01
sa(dp2902
S'Bad__ALL__'
p2903
I01
sS'actor__ALL__'
p2904
I01
sS'Actor__TOP__'
p2905
I01
sS'Bad__BOTTOM__'
p2906
I01
sS'everywher__ALL__'
p2907
I01
sS'everywher__BOTTOM__'
p2908
I01
sS'Bad__TOP__'
p2909
I01
sS'Actor__ALL__'
p2910
I01
sS'actor__BOTTOM__'
p2911
I01
sa(dp2912
S',__TOP__'
p2913
I01
sS"n't__ALL__"
p2914
I01
sS'just__ALL__'
p2915
I01
sS'Woodi__TOP__'
p2916
I01
sS'to__BOTTOM__'
p2917
I01
sS'to__ALL__'
p2918
I01
sS'just__BOTTOM__'
p2919
I01
sS'Woodi__ALL__'
p2920
I01
sS',__ALL__'
p2921
I01
sS"n't__TOP__"
p2922
I01
sS'cuddl__ALL__'
p2923
I01
sS'worri__TOP__'
p2924
I01
sS'Do__ALL__'
p2925
I01
sS'want__ALL__'
p2926
I01
sS'want__BOTTOM__'
p2927
I01
sS'Bob__ALL__'
p2928
I01
sS'Bob__BOTTOM__'
p2929
I01
sS'worri__ALL__'
p2930
I01
sS'Do__TOP__'
p2931
I01
sS'cuddl__BOTTOM__'
p2932
I01
sa(dp2933
S'friend__TOP__'
p2934
I01
sS'is__ALL__'
p2935
I01
sS'pussi__BOTTOM__'
p2936
I01
sS'friend__ALL__'
p2937
I01
sS'my__TOP__'
p2938
I01
sS'work__ALL__'
p2939
I01
sS'my__ALL__'
p2940
I01
sS'how__ALL__'
p2941
I01
sS'work__BOTTOM__'
p2942
I01
sS'and__ALL__'
p2943
I01
sS'that__ALL__'
p2944
I01
sS'pussi__ALL__'
p2945
I01
sS'the__ALL__'
p2946
I01
sS'the__BOTTOM__'
p2947
I01
sS'how__BOTTOM__'
p2948
I01
sS'is__BOTTOM__'
p2949
I01
sS'and__TOP__'
p2950
I01
sS'that__TOP__'
p2951
I01
sa(dp2952
S'.__BOTTOM__'
p2953
I01
sS'all__BOTTOM__'
p2954
I01
sS'.__ALL__'
p2955
I01
sS'Montana__BOTTOM__'
p2956
I01
sS'Woodi__TOP__'
p2957
I01
sS'Hannah__ALL__'
p2958
I01
sS'grown__BOTTOM__'
p2959
I01
sS'see__ALL__'
p2960
I01
sS'toy__ALL__'
p2961
I01
sS'You__TOP__'
p2962
I01
sS'You__ALL__'
p2963
I01
sS'up__BOTTOM__'
p2964
I01
sS'Montana__ALL__'
p2965
I01
sS'toy__BOTTOM__'
p2966
I01
sS'up__ALL__'
p2967
I01
sS'all__ALL__'
p2968
I01
sS'Woodi__ALL__'
p2969
I01
sS'see__TOP__'
p2970
I01
sS'grown__ALL__'
p2971
I01
sS'Hannah__BOTTOM__'
p2972
I01
sa(dp2973
S'VMA__TOP__'
p2974
I01
sS'have__TOP__'
p2975
I01
sS'Woodi__TOP__'
p2976
I01
sS'we__ALL__'
p2977
I01
sS'Woodi__ALL__'
p2978
I01
sS'VMA__ALL__'
p2979
I01
sS'montana__BOTTOM__'
p2980
I01
sS'have__ALL__'
p2981
I01
sS'our__TOP__'
p2982
I01
sS'out__ALL__'
p2983
I01
sS"'s__TOP__"
p2984
I01
sS'our__ALL__'
p2985
I01
sS'we__TOP__'
p2986
I01
sS'toy__ALL__'
p2987
I01
sS'turn__ALL__'
p2988
I01
sS'fine__BOTTOM__'
p2989
I01
sS'montana__ALL__'
p2990
I01
sS'toy__BOTTOM__'
p2991
I01
sS'turn__BOTTOM__'
p2992
I01
sS'hannah__BOTTOM__'
p2993
I01
sS'out__BOTTOM__'
p2994
I01
sS'own__ALL__'
p2995
I01
sS'that__ALL__'
p2996
I01
sS'that__BOTTOM__'
p2997
I01
sS'own__TOP__'
p2998
I01
sS'fine__ALL__'
p2999
I01
sS'hannah__ALL__'
p3000
I01
sS'just__BOTTOM__'
p3001
I01
sS'just__ALL__'
p3002
I01
sS"'s__ALL__"
p3003
I01
sa(dp3004
S'sex__TOP__'
p3005
I01
sS'have__TOP__'
p3006
I01
sS'sex__ALL__'
p3007
I01
sS'sex__BOTTOM__'
p3008
I01
sS'have__BOTTOM__'
p3009
I01
sS'Let__TOP__'
p3010
I01
sS'Let__BOTTOM__'
p3011
I01
sS'have__ALL__'
p3012
I01
sS'everwher__ALL__'
p3013
I01
sS'Let__ALL__'
p3014
I01
sS'everwher__BOTTOM__'
p3015
I01
sa(dp3016
S'it__TOP__'
p3017
I01
sS'with__ALL__'
p3018
I01
sS'with__TOP__'
p3019
I01
sS'dat__BOTTOM__'
p3020
I01
sS'dat__ALL__'
p3021
I01
sS'me__ALL__'
p3022
I01
sS'Say__ALL__'
p3023
I01
sS'ass__ALL__'
p3024
I01
sS'it__ALL__'
p3025
I01
sS'me__TOP__'
p3026
I01
sS'ass__BOTTOM__'
p3027
I01
sS'Say__TOP__'
p3028
I01
sa(dp3029
S'.__BOTTOM__'
p3030
I01
sS'away__ALL__'
p3031
I01
sS'.__ALL__'
p3032
I01
sS'away__BOTTOM__'
p3033
I01
sS'to__BOTTOM__'
p3034
I01
sS'where__TOP__'
p3035
I01
sS'The__ALL__'
p3036
I01
sS'Padr__TOP__'
p3037
I01
sS'have__ALL__'
p3038
I01
sS'far__BOTTOM__'
p3039
I01
sS'The__TOP__'
p3040
I01
sS'a__ALL__'
p3041
I01
sS'gone__BOTTOM__'
p3042
I01
sS'place__ALL__'
p3043
I01
sS'...__BOTTOM__'
p3044
I01
sS'...__ALL__'
p3045
I01
sS'?__TOP__'
p3046
I01
sS'as__ALL__'
p3047
I01
sS'have__BOTTOM__'
p3048
I01
sS'Padr__ALL__'
p3049
I01
sS'galaxi__BOTTOM__'
p3050
I01
sS'They__BOTTOM__'
p3051
I01
sS'far__ALL__'
p3052
I01
sS'gone__ALL__'
p3053
I01
sS'to__ALL__'
p3054
I01
sS'?__ALL__'
p3055
I01
sS'as__BOTTOM__'
p3056
I01
sS'a__BOTTOM__'
p3057
I01
sS'went__TOP__'
p3058
I01
sS'last__ALL__'
p3059
I01
sS'went__ALL__'
p3060
I01
sS'known__ALL__'
p3061
I01
sS'place__BOTTOM__'
p3062
I01
sS'galaxi__ALL__'
p3063
I01
sS'last__BOTTOM__'
p3064
I01
sS'They__ALL__'
p3065
I01
sS'where__ALL__'
p3066
I01
sS'known__BOTTOM__'
p3067
I01
sa(dp3068
S'It__TOP__'
p3069
I01
sS'journey__BOTTOM__'
p3070
I01
sS'not__TOP__'
p3071
I01
sS'about__ALL__'
p3072
I01
sS'about__BOTTOM__'
p3073
I01
sS'end__TOP__'
p3074
I01
sS'about__TOP__'
p3075
I01
sS'end__ALL__'
p3076
I01
sS'the__TOP__'
p3077
I01
sS'It__BOTTOM__'
p3078
I01
sS'journey__ALL__'
p3079
I01
sS'It__ALL__'
p3080
I01
sS'the__ALL__'
p3081
I01
sS'the__BOTTOM__'
p3082
I01
sS'not__ALL__'
p3083
I01
sa(dp3084
S'Look__ALL__'
p3085
I01
sS'no__BOTTOM__'
p3086
I01
sS'peopl__TOP__'
p3087
I01
sS'Look__TOP__'
p3088
I01
sS'Vinther__ALL__'
p3089
I01
sS'brain__ALL__'
p3090
I01
sS'Vinther__BOTTOM__'
p3091
I01
sS'peopl__ALL__'
p3092
I01
sS'ha__BOTTOM__'
p3093
I01
sS'brain__BOTTOM__'
p3094
I01
sS'ha__ALL__'
p3095
I01
sS'no__ALL__'
p3096
I01
sa(dp3097
S'Poop__TOP__'
p3098
I01
sS'piss__ALL__'
p3099
I01
sS'piss__TOP__'
p3100
I01
sS'everywher__BOTTOM__'
p3101
I01
sS'piss__BOTTOM__'
p3102
I01
sS'everywher__ALL__'
p3103
I01
sS'and__ALL__'
p3104
I01
sS'and__BOTTOM__'
p3105
I01
sS'Poop__ALL__'
p3106
I01
sS'Poop__BOTTOM__'
p3107
I01
sS'and__TOP__'
p3108
I01
sa(dp3109
S'Woodi__TOP__'
p3110
I01
sS'about__ALL__'
p3111
I01
sS'Woodi__ALL__'
p3112
I01
sS'F***__ALL__'
p3113
I01
sS'See__ALL__'
p3114
I01
sS'and__ALL__'
p3115
I01
sS'F***__BOTTOM__'
p3116
I01
sS'give__BOTTOM__'
p3117
I01
sS'and__BOTTOM__'
p3118
I01
sS'All__ALL__'
p3119
I01
sS'?__TOP__'
p3120
I01
sS'convers__ALL__'
p3121
I01
sS'See__TOP__'
p3122
I01
sS'pstn__ALL__'
p3123
I01
sS'pstn__BOTTOM__'
p3124
I01
sS'broadband__BOTTOM__'
p3125
I01
sS'about__BOTTOM__'
p3126
I01
sS'I__BOTTOM__'
p3127
I01
sS'give__ALL__'
p3128
I01
sS'convers__BOTTOM__'
p3129
I01
sS'You__ALL__'
p3130
I01
sS'broadband__ALL__'
p3131
I01
sS'All__BOTTOM__'
p3132
I01
sS'?__ALL__'
p3133
I01
sS'I__ALL__'
p3134
I01
sS'You__TOP__'
p3135
I01
sS'That__ALL__'
p3136
I01
sS'the__ALL__'
p3137
I01
sS'the__BOTTOM__'
p3138
I01
sS"'s__ALL__"
p3139
I01
sS'That__TOP__'
p3140
I01
sS"'s__BOTTOM__"
p3141
I01
sa(dp3142
S'all__ALL__'
p3143
I01
sS'all__BOTTOM__'
p3144
I01
sS'i__ALL__'
p3145
I01
sS'look..__TOP__'
p3146
I01
sS'fuck__ALL__'
p3147
I01
sS'fuck__BOTTOM__'
p3148
I01
sS'i__BOTTOM__'
p3149
I01
sS'give__ALL__'
p3150
I01
sS'give__BOTTOM__'
p3151
I01
sS'the__ALL__'
p3152
I01
sS'the__BOTTOM__'
p3153
I01
sS'at__BOTTOM__'
p3154
I01
sS'look..__ALL__'
p3155
I01
sS'at__ALL__'
p3156
I01
sa(dp3157
S'handie__BOTTOM__'
p3158
I01
sS'free__BOTTOM__'
p3159
I01
sS'free__TOP__'
p3160
I01
sS'handi__TOP__'
p3161
I01
sS'everywher__ALL__'
p3162
I01
sS'handie__ALL__'
p3163
I01
sS'free__ALL__'
p3164
I01
sS'handi__ALL__'
p3165
I01
sS'everywher__BOTTOM__'
p3166
I01
sa(dp3167
S'music__ALL__'
p3168
I01
sS'Shitti__ALL__'
p3169
I01
sS'Shitti__TOP__'
p3170
I01
sS'everywher__ALL__'
p3171
I01
sS'music__BOTTOM__'
p3172
I01
sS'shitti__BOTTOM__'
p3173
I01
sS'everywher__BOTTOM__'
p3174
I01
sS'shitti__ALL__'
p3175
I01
sS'music__TOP__'
p3176
I01
sa(dp3177
S'I__TOP__'
p3178
I01
sS'thi__TOP__'
p3179
I01
sS'thi__ALL__'
p3180
I01
sS'don__ALL__'
p3181
I01
sS'in__ALL__'
p3182
I01
sS'8217__BOTTOM__'
p3183
I01
sS'realli__BOTTOM__'
p3184
I01
sS't__ALL__'
p3185
I01
sS'time__BOTTOM__'
p3186
I01
sS'&__ALL__'
p3187
I01
sS'have__ALL__'
p3188
I01
sS'life__TOP__'
p3189
I01
sS'time__ALL__'
p3190
I01
sS';__ALL__'
p3191
I01
sS'8217__TOP__'
p3192
I01
sS'realli__ALL__'
p3193
I01
sS'#__BOTTOM__'
p3194
I01
sS'have__BOTTOM__'
p3195
I01
sS'part__TOP__'
p3196
I01
sS't__BOTTOM__'
p3197
I01
sS'&__TOP__'
p3198
I01
sS';__TOP__'
p3199
I01
sS';__BOTTOM__'
p3200
I01
sS'don__BOTTOM__'
p3201
I01
sS'm__TOP__'
p3202
I01
sS'I__BOTTOM__'
p3203
I01
sS'that__ALL__'
p3204
I01
sS'that__BOTTOM__'
p3205
I01
sS'of__TOP__'
p3206
I01
sS'of__ALL__'
p3207
I01
sS'&__BOTTOM__'
p3208
I01
sS'part__ALL__'
p3209
I01
sS'm__ALL__'
p3210
I01
sS'in__TOP__'
p3211
I01
sS'my__TOP__'
p3212
I01
sS'#__ALL__'
p3213
I01
sS'my__ALL__'
p3214
I01
sS'8217__ALL__'
p3215
I01
sS'life__ALL__'
p3216
I01
sS'#__TOP__'
p3217
I01
sS'I__ALL__'
p3218
I01
sa(dp3219
S'you__TOP__'
p3220
I01
sS'have__TOP__'
p3221
I01
sS'replac__ALL__'
p3222
I01
sS'have__ALL__'
p3223
I01
sS'thi__ALL__'
p3224
I01
sS'when__ALL__'
p3225
I01
sS'replac__BOTTOM__'
p3226
I01
sS"'ve__ALL__"
p3227
I01
sS'the__TOP__'
p3228
I01
sS'been__BOTTOM__'
p3229
I01
sS"'ve__BOTTOM__"
p3230
I01
sS'is__TOP__'
p3231
I01
sS'you__BOTTOM__'
p3232
I01
sS'when__TOP__'
p3233
I01
sS'face__TOP__'
p3234
I01
sS'the__ALL__'
p3235
I01
sS'thi__TOP__'
p3236
I01
sS'been__ALL__'
p3237
I01
sS'face__ALL__'
p3238
I01
sS'you__ALL__'
p3239
I01
sS'is__ALL__'
p3240
I01
sa(dp3241
S'noob__ALL__'
p3242
I01
sS'look__ALL__'
p3243
I01
sS'a__ALL__'
p3244
I01
sS'woodi__TOP__'
p3245
I01
sS'a__BOTTOM__'
p3246
I01
sS'noob__BOTTOM__'
p3247
I01
sS'woodi__ALL__'
p3248
I01
sS'danc__ALL__'
p3249
I01
sS'danc__BOTTOM__'
p3250
I01
sS'look__TOP__'
p3251
I01
sa(dp3252
S'I__TOP__'
p3253
I01
sS'one__TOP__'
p3254
I01
sS'wa__ALL__'
p3255
I01
sS'day__ALL__'
p3256
I01
sS'wa__TOP__'
p3257
I01
sS'day__TOP__'
p3258
I01
sS'I__ALL__'
p3259
I01
sS'...__ALL__'
p3260
I01
sS'one__ALL__'
p3261
I01
sS'the__TOP__'
p3262
I01
sS'on__ALL__'
p3263
I01
sS'...__TOP__'
p3264
I01
sS'beach__TOP__'
p3265
I01
sS'walk__TOP__'
p3266
I01
sS'the__ALL__'
p3267
I01
sS'walk__ALL__'
p3268
I01
sS'on__TOP__'
p3269
I01
sS'beach__ALL__'
p3270
I01
sa(dp3271
S'you__TOP__'
p3272
I01
sS'i__TOP__'
p3273
I01
sS'i__ALL__'
p3274
I01
sS'or__ALL__'
p3275
I01
sS'do__ALL__'
p3276
I01
sS'cup__ALL__'
p3277
I01
sS"'ll__TOP__"
p3278
I01
sS'cup__TOP__'
p3279
I01
sS'kill__TOP__'
p3280
I01
sS'the__TOP__'
p3281
I01
sS'or__TOP__'
p3282
I01
sS'stop__ALL__'
p3283
I01
sS'song__ALL__'
p3284
I01
sS"'ll__ALL__"
p3285
I01
sS'stop__TOP__'
p3286
I01
sS'you__ALL__'
p3287
I01
sS'the__ALL__'
p3288
I01
sS'kill__ALL__'
p3289
I01
sS'do__TOP__'
p3290
I01
sS'song__TOP__'
p3291
I01
sa(dp3292
S'!__ALL__'
p3293
I01
sS'new__BOTTOM__'
p3294
I01
sS'have__TOP__'
p3295
I01
sS'new__ALL__'
p3296
I01
sS'!__BOTTOM__'
p3297
I01
sS'we__ALL__'
p3298
I01
sS'have__ALL__'
p3299
I01
sS'here__TOP__'
p3300
I01
sS'...__ALL__'
p3301
I01
sS'your__TOP__'
p3302
I01
sS'and__ALL__'
p3303
I01
sS'wife__ALL__'
p3304
I01
sS'wife__BOTTOM__'
p3305
I01
sS'...__TOP__'
p3306
I01
sS'your__ALL__'
p3307
I01
sS'here__ALL__'
p3308
I01
sS'we__TOP__'
p3309
I01
sS'and__TOP__'
p3310
I01
sa(dp3311
S'.__BOTTOM__'
p3312
I01
sS'.__ALL__'
p3313
I01
sS'just__ALL__'
p3314
I01
sS'ask__ALL__'
p3315
I01
sS'summer__TOP__'
p3316
I01
sS'hudson__BOTTOM__'
p3317
I01
sS'list__ALL__'
p3318
I01
sS'river__BOTTOM__'
p3319
I01
sS'tonight__ALL__'
p3320
I01
sS'it__TOP__'
p3321
I01
sS'hudson__ALL__'
p3322
I01
sS'for__BOTTOM__'
p3323
I01
sS'summer__ALL__'
p3324
I01
sS'So__ALL__'
p3325
I01
sS'...__ALL__'
p3326
I01
sS'..and__TOP__'
p3327
I01
sS'for__ALL__'
p3328
I01
sS'list__BOTTOM__'
p3329
I01
sS'river__ALL__'
p3330
I01
sS'So__TOP__'
p3331
I01
sS'that__ALL__'
p3332
I01
sS'that__BOTTOM__'
p3333
I01
sS'it__ALL__'
p3334
I01
sS'is__BOTTOM__'
p3335
I01
sS'..and__ALL__'
p3336
I01
sS'king__BOTTOM__'
p3337
I01
sS'sanjo__ALL__'
p3338
I01
sS'just__BOTTOM__'
p3339
I01
sS'way__ALL__'
p3340
I01
sS'ask__BOTTOM__'
p3341
I01
sS'is__ALL__'
p3342
I01
sS'is__TOP__'
p3343
I01
sS'way__BOTTOM__'
p3344
I01
sS'sanjo__BOTTOM__'
p3345
I01
sS"'s__ALL__"
p3346
I01
sS"'s__BOTTOM__"
p3347
I01
sS'king__ALL__'
p3348
I01
sS'tonight__TOP__'
p3349
I01
sS'...__TOP__'
p3350
I01
sa(dp3351
S'bloodi__BOTTOM__'
p3352
I01
sS'bore__TOP__'
p3353
I01
sS'everywher__BOTTOM__'
p3354
I01
sS'bore__ALL__'
p3355
I01
sS'brian__ALL__'
p3356
I01
sS'everywher__ALL__'
p3357
I01
sS'bore__BOTTOM__'
p3358
I01
sS'bloodi__TOP__'
p3359
I01
sS'brian__BOTTOM__'
p3360
I01
sS'brian__TOP__'
p3361
I01
sS'bloodi__ALL__'
p3362
I01
sa(dp3363
S'come__ALL__'
p3364
I01
sS'land__ALL__'
p3365
I01
sS'needl__ALL__'
p3366
I01
sS'land__BOTTOM__'
p3367
I01
sS'needl__BOTTOM__'
p3368
I01
sS'come__BOTTOM__'
p3369
I01
sS'happi__BOTTOM__'
p3370
I01
sS'here__BOTTOM__'
p3371
I01
sS'happi__ALL__'
p3372
I01
sS'in__BOTTOM__'
p3373
I01
sS'here__ALL__'
p3374
I01
sS'in__ALL__'
p3375
I01
sa(dp3376
S'dancer__TOP__'
p3377
I01
sS'dancer__BOTTOM__'
p3378
I01
sS'Phantom__ALL__'
p3379
I01
sS'phantom__BOTTOM__'
p3380
I01
sS'dancer__ALL__'
p3381
I01
sS'Phantom__TOP__'
p3382
I01
sS'everywher__ALL__'
p3383
I01
sS'everywher__BOTTOM__'
p3384
I01
sS'phantom__ALL__'
p3385
I01
sa(dp3386
S'fish__ALL__'
p3387
I01
sS'fish__BOTTOM__'
p3388
I01
sS'There__ALL__'
p3389
I01
sS'sea__ALL__'
p3390
I01
sS'plenTi__ALL__'
p3391
I01
sS'in__ALL__'
p3392
I01
sS'the__ALL__'
p3393
I01
sS'in__BOTTOM__'
p3394
I01
sS'sea__BOTTOM__'
p3395
I01
sS'Of__ALL__'
p3396
I01
sS'plenTi__TOP__'
p3397
I01
sS'the__BOTTOM__'
p3398
I01
sS'Of__BOTTOM__'
p3399
I01
sS'There__TOP__'
p3400
I01
sa(dp3401
S'knock__ALL__'
p3402
I01
sS'dafuq__ALL__'
p3403
I01
sS'dafuq__TOP__'
p3404
I01
sS'knock__BOTTOM__'
p3405
I01
sS'who__TOP__'
p3406
I01
sS'lego__ALL__'
p3407
I01
sS'my__ALL__'
p3408
I01
sS'who__ALL__'
p3409
I01
sS'lego__BOTTOM__'
p3410
I01
sS'down__ALL__'
p3411
I01
sS'my__BOTTOM__'
p3412
I01
sS'down__BOTTOM__'
p3413
I01
sa(dp3414
S'dead__TOP__'
p3415
I01
sS'dead__BOTTOM__'
p3416
I01
sS'everywher__ALL__'
p3417
I01
sS'dead__ALL__'
p3418
I01
sS'everywher__BOTTOM__'
p3419
I01
sS'token__ALL__'
p3420
I01
sS'token__BOTTOM__'
p3421
I01
sS'token__TOP__'
p3422
I01
sa(dp3423
S'go__BOTTOM__'
p3424
I01
sS'through__ALL__'
p3425
I01
sS'go__ALL__'
p3426
I01
sS'day__TOP__'
p3427
I01
sS"'ll__BOTTOM__"
p3428
I01
sS'puberti__BOTTOM__'
p3429
I01
sS"'ll__ALL__"
p3430
I01
sS'one__ALL__'
p3431
I01
sS'day__ALL__'
p3432
I01
sS'one__TOP__'
p3433
I01
sS'puberti__ALL__'
p3434
I01
sS'you__ALL__'
p3435
I01
sS'you__BOTTOM__'
p3436
I01
sS'through__BOTTOM__'
p3437
I01
sa(dp3438
S'year__ALL__'
p3439
I01
sS',__BOTTOM__'
p3440
I01
sS'Just__ALL__'
p3441
I01
sS'in__ALL__'
p3442
I01
sS'and__ALL__'
p3443
I01
sS'will__ALL__'
p3444
I01
sS'and__BOTTOM__'
p3445
I01
sS'your__BOTTOM__'
p3446
I01
sS'interchang__BOTTOM__'
p3447
I01
sS"'re__ALL__"
p3448
I01
sS'Just__TOP__'
p3449
I01
sS'you__ALL__'
p3450
I01
sS'you__BOTTOM__'
p3451
I01
sS'will__BOTTOM__'
p3452
I01
sS"'re__BOTTOM__"
p3453
I01
sS'interchang__ALL__'
p3454
I01
sS'imagin__ALL__'
p3455
I01
sS',__ALL__'
p3456
I01
sS'be__ALL__'
p3457
I01
sS'in__BOTTOM__'
p3458
I01
sS'be__BOTTOM__'
p3459
I01
sS'your__ALL__'
p3460
I01
sS'four__BOTTOM__'
p3461
I01
sS'year__BOTTOM__'
p3462
I01
sS'imagin__TOP__'
p3463
I01
sS'four__ALL__'
p3464
I01
sa(dp3465
S'Garbag__TOP__'
p3466
I01
sS'managerpoint__BOTTOM__'
p3467
I01
sS'in__TOP__'
p3468
I01
sS'Garbag__ALL__'
p3469
I01
sS'can__ALL__'
p3470
I01
sS':__ALL__'
p3471
I01
sS'managerpoint__ALL__'
p3472
I01
sS',__ALL__'
p3473
I01
sS'in__ALL__'
p3474
I01
sS'the__TOP__'
p3475
I01
sS'can__TOP__'
p3476
I01
sS'everywher__ALL__'
p3477
I01
sS'of__TOP__'
p3478
I01
sS',__BOTTOM__'
p3479
I01
sS'everywher__BOTTOM__'
p3480
I01
sS'the__ALL__'
p3481
I01
sS'of__ALL__'
p3482
I01
sS'Osm__TOP__'
p3483
I01
sS'Osm__ALL__'
p3484
I01
sS':__TOP__'
p3485
I01
sa(dp3486
S'i__TOP__'
p3487
I01
sS'now__ALL__'
p3488
I01
sS'wish__ALL__'
p3489
I01
sS'now__TOP__'
p3490
I01
sS'so__ALL__'
p3491
I01
sS'wish__TOP__'
p3492
I01
sS'wish__BOTTOM__'
p3493
I01
sS'so__TOP__'
p3494
I01
sS'everywher__ALL__'
p3495
I01
sS'everywher__BOTTOM__'
p3496
I01
sS'i__ALL__'
p3497
I01
sa(dp3498
S'everyth__BOTTOM__'
p3499
I01
sS"n't__ALL__"
p3500
I01
sS'gustavo__ALL__'
p3501
I01
sS"n't__BOTTOM__"
p3502
I01
sS'good__BOTTOM__'
p3503
I01
sS'be__ALL__'
p3504
I01
sS'ca__ALL__'
p3505
I01
sS"n't__TOP__"
p3506
I01
sS'ca__BOTTOM__'
p3507
I01
sS'worri__TOP__'
p3508
I01
sS'DO__ALL__'
p3509
I01
sS'in__ALL__'
p3510
I01
sS'in__BOTTOM__'
p3511
I01
sS'be__BOTTOM__'
p3512
I01
sS'you__ALL__'
p3513
I01
sS'you__BOTTOM__'
p3514
I01
sS'gustavo__TOP__'
p3515
I01
sS'good__ALL__'
p3516
I01
sS'worri__ALL__'
p3517
I01
sS'DO__TOP__'
p3518
I01
sS'everyth__ALL__'
p3519
I01
sa(dp3520
S'school__ALL__'
p3521
I01
sS'to__ALL__'
p3522
I01
sS'i__TOP__'
p3523
I01
sS'time__ALL__'
p3524
I01
sS'time__BOTTOM__'
p3525
I01
sS'had__ALL__'
p3526
I01
sS'good__BOTTOM__'
p3527
I01
sS'rememb__TOP__'
p3528
I01
sS'i__ALL__'
p3529
I01
sS'some__ALL__'
p3530
I01
sS'school__TOP__'
p3531
I01
sS'to__TOP__'
p3532
I01
sS'i__BOTTOM__'
p3533
I01
sS'went__ALL__'
p3534
I01
sS'went__TOP__'
p3535
I01
sS'when__ALL__'
p3536
I01
sS'had__BOTTOM__'
p3537
I01
sS'when__TOP__'
p3538
I01
sS'good__ALL__'
p3539
I01
sS'rememb__ALL__'
p3540
I01
sS'some__BOTTOM__'
p3541
I01
sa(dp3542
S'nowher__BOTTOM__'
p3543
I01
sS'dont__ALL__'
p3544
I01
sS'.__ALL__'
p3545
I01
sS'action__BOTTOM__'
p3546
I01
sS'mean__BOTTOM__'
p3547
I01
sS'figur__BOTTOM__'
p3548
I01
sS'worri__ALL__'
p3549
I01
sS'look__ALL__'
p3550
I01
sS'sure__BOTTOM__'
p3551
I01
sS'sure__ALL__'
p3552
I01
sS'worri__TOP__'
p3553
I01
sS'as__ALL__'
p3554
I01
sS',__TOP__'
p3555
I01
sS'he__ALL__'
p3556
I01
sS'broli__BOTTOM__'
p3557
I01
sS',__ALL__'
p3558
I01
sS'im__BOTTOM__'
p3559
I01
sS'that__ALL__'
p3560
I01
sS'that__BOTTOM__'
p3561
I01
sS'.__BOTTOM__'
p3562
I01
sS'is__BOTTOM__'
p3563
I01
sS'as__BOTTOM__'
p3564
I01
sS'look__BOTTOM__'
p3565
I01
sS'woodi__TOP__'
p3566
I01
sS'dont__TOP__'
p3567
I01
sS'im__ALL__'
p3568
I01
sS'mean__ALL__'
p3569
I01
sS'broli__ALL__'
p3570
I01
sS'is__ALL__'
p3571
I01
sS'nowher__ALL__'
p3572
I01
sS'action__ALL__'
p3573
I01
sS'woodi__ALL__'
p3574
I01
sS'figur__ALL__'
p3575
I01
sS'he__BOTTOM__'
p3576
I01
sa(dp3577
S'come__ALL__'
p3578
I01
sS'servic__TOP__'
p3579
I01
sS'come__TOP__'
p3580
I01
sS'field__ALL__'
p3581
I01
sS'servic__ALL__'
p3582
I01
sS'easi__ALL__'
p3583
I01
sS'field__TOP__'
p3584
I01
sS'is__ALL__'
p3585
I01
sS'on__ALL__'
p3586
I01
sS'is__TOP__'
p3587
I01
sS'easi__TOP__'
p3588
I01
sS'on__TOP__'
p3589
I01
sa(dp3590
S',__TOP__'
p3591
I01
sS'ballot__ALL__'
p3592
I01
sS'vote__BOTTOM__'
p3593
I01
sS'slip__TOP__'
p3594
I01
sS'for__BOTTOM__'
p3595
I01
sS'for__ALL__'
p3596
I01
sS',__ALL__'
p3597
I01
sS'kate__BOTTOM__'
p3598
I01
sS'everywher__ALL__'
p3599
I01
sS'kate__ALL__'
p3600
I01
sS'ballot__TOP__'
p3601
I01
sS'slip__ALL__'
p3602
I01
sS'everywher__TOP__'
p3603
I01
sS'vote__ALL__'
p3604
I01
sa(dp3605
S'come__ALL__'
p3606
I01
sS'servic__TOP__'
p3607
I01
sS'come__TOP__'
p3608
I01
sS'field__ALL__'
p3609
I01
sS'servic__ALL__'
p3610
I01
sS'easi__ALL__'
p3611
I01
sS'field__TOP__'
p3612
I01
sS'is__ALL__'
p3613
I01
sS'on__ALL__'
p3614
I01
sS'is__TOP__'
p3615
I01
sS'easi__TOP__'
p3616
I01
sS'on__TOP__'
p3617
I01
sa(dp3618
S'to__ALL__'
p3619
I01
sS"n't__ALL__"
p3620
I01
sS'to__BOTTOM__'
p3621
I01
sS'watch__TOP__'
p3622
I01
sS"n't__BOTTOM__"
p3623
I01
sS'I__ALL__'
p3624
I01
sS'romeo__TOP__'
p3625
I01
sS'watch__ALL__'
p3626
I01
sS'I__BOTTOM__'
p3627
I01
sS'do__ALL__'
p3628
I01
sS'and__ALL__'
p3629
I01
sS'romeo__ALL__'
p3630
I01
sS'Let__ALL__'
p3631
I01
sS'do__BOTTOM__'
p3632
I01
sS'juliet__TOP__'
p3633
I01
sS'want__BOTTOM__'
p3634
I01
sS'Let__TOP__'
p3635
I01
sS'want__ALL__'
p3636
I01
sS'and__TOP__'
p3637
I01
sS'juliet__ALL__'
p3638
I01
sa(dp3639
S'voi__ALL__'
p3640
I01
sS'Tu__TOP__'
p3641
I01
sS"c'est__BOTTOM__"
p3642
I01
sS'woodi__TOP__'
p3643
I01
sS'sorti__BOTTOM__'
p3644
I01
sS'Tu__ALL__'
p3645
I01
sS'woodi__ALL__'
p3646
I01
sS'la__BOTTOM__'
p3647
I01
sS'pa__BOTTOM__'
p3648
I01
sS'pa__ALL__'
p3649
I01
sS"c'est__ALL__"
p3650
I01
sS'voi__TOP__'
p3651
I01
sS'sorti__ALL__'
p3652
I01
sS'la__ALL__'
p3653
I01
sa(dp3654
S'.__BOTTOM__'
p3655
I01
sS'?__TOP__'
p3656
I01
sS'learner__BOTTOM__'
p3657
I01
sS'?__ALL__'
p3658
I01
sS'reform__ALL__'
p3659
I01
sS'reform__TOP__'
p3660
I01
sS'The__TOP__'
p3661
I01
sS'everywher__ALL__'
p3662
I01
sS'.__ALL__'
p3663
I01
sS'everywher__BOTTOM__'
p3664
I01
sS'The__ALL__'
p3665
I01
sS'learner__ALL__'
p3666
I01
sa(dp3667
S'Finti__TOP__'
p3668
I01
sS'rapper__TOP__'
p3669
I01
sS'finti__ALL__'
p3670
I01
sS'rapper__BOTTOM__'
p3671
I01
sS'rapper__ALL__'
p3672
I01
sS'finti__BOTTOM__'
p3673
I01
sS'ovunqu__BOTTOM__'
p3674
I01
sS'Finti__ALL__'
p3675
I01
sS'ovunqu__ALL__'
p3676
I01
sa(dp3677
S'women__BOTTOM__'
p3678
I01
sS'it__TOP__'
p3679
I01
sS'women__ALL__'
p3680
I01
sS'but__ALL__'
p3681
I01
sS'nothin__BOTTOM__'
p3682
I01
sS'velvet__ALL__'
p3683
I01
sS'but__BOTTOM__'
p3684
I01
sS'call__TOP__'
p3685
I01
sS'velvet__TOP__'
p3686
I01
sS'nothin__ALL__'
p3687
I01
sS'it__ALL__'
p3688
I01
sS'return__BOTTOM__'
p3689
I01
sS'beauti__BOTTOM__'
p3690
I01
sS'call__ALL__'
p3691
I01
sS'where__BOTTOM__'
p3692
I01
sS'beauti__ALL__'
p3693
I01
sS'return__ALL__'
p3694
I01
sS'where__ALL__'
p3695
I01
sa(dp3696
S'everyth__BOTTOM__'
p3697
I01
sS'Drum__ALL__'
p3698
I01
sS'...__ALL__'
p3699
I01
sS'everyth__ALL__'
p3700
I01
sS'on__ALL__'
p3701
I01
sS'...__TOP__'
p3702
I01
sS'on__BOTTOM__'
p3703
I01
sS'Drum__BOTTOM__'
p3704
I01
sS'Drum__TOP__'
p3705
I01
sa(dp3706
S'look__ALL__'
p3707
I01
sS'!__ALL__'
p3708
I01
sS'woodi__TOP__'
p3709
I01
sS'faggit__ALL__'
p3710
I01
sS'!__BOTTOM__'
p3711
I01
sS'look__TOP__'
p3712
I01
sS'!__TOP__'
p3713
I01
sS'woodi__ALL__'
p3714
I01
sS'everywher__ALL__'
p3715
I01
sS'everywher__BOTTOM__'
p3716
I01
sS'faggit__BOTTOM__'
p3717
I01
sS'faggit__TOP__'
p3718
I01
sa(dp3719
S'ask__ALL__'
p3720
I01
sS'question__TOP__'
p3721
I01
sS'fm__TOP__'
p3722
I01
sS'everywher__ALL__'
p3723
I01
sS'gay__ALL__'
p3724
I01
sS'at__ALL__'
p3725
I01
sS'.gay__BOTTOM__'
p3726
I01
sS'fm__ALL__'
p3727
I01
sS'ask__TOP__'
p3728
I01
sS'!__BOTTOM__'
p3729
I01
sS'Look__TOP__'
p3730
I01
sS'...__BOTTOM__'
p3731
I01
sS'...__ALL__'
p3732
I01
sS'everywher__BOTTOM__'
p3733
I01
sS'Look__ALL__'
p3734
I01
sS'gay__BOTTOM__'
p3735
I01
sS'question__ALL__'
p3736
I01
sS'.gay__ALL__'
p3737
I01
sS'!__ALL__'
p3738
I01
sS'my__TOP__'
p3739
I01
sS'my__ALL__'
p3740
I01
sS'at__TOP__'
p3741
I01
sa(dp3742
S'25__BOTTOM__'
p3743
I01
sS'more__TOP__'
p3744
I01
sS'day__TOP__'
p3745
I01
sS'more__ALL__'
p3746
I01
sS'more__BOTTOM__'
p3747
I01
sS'day__ALL__'
p3748
I01
sS'25__ALL__'
p3749
I01
sS'everywher__ALL__'
p3750
I01
sS'day__BOTTOM__'
p3751
I01
sS'everywher__BOTTOM__'
p3752
I01
sS'25__TOP__'
p3753
I01
sa(dp3754
S'not__ALL__'
p3755
I01
sS"'ll__BOTTOM__"
p3756
I01
sS'off__ALL__'
p3757
I01
sS'battersea__ALL__'
p3758
I01
sS'it__TOP__'
p3759
I01
sS'not__TOP__'
p3760
I01
sS'!__BOTTOM__'
p3761
I01
sS'st..you__ALL__'
p3762
I01
sS'it__BOTTOM__'
p3763
I01
sS'st..you__BOTTOM__'
p3764
I01
sS'high__ALL__'
p3765
I01
sS'off__BOTTOM__'
p3766
I01
sS"'ll__ALL__"
p3767
I01
sS'be__ALL__'
p3768
I01
sS'it__ALL__'
p3769
I01
sS'be__BOTTOM__'
p3770
I01
sS'grand__BOTTOM__'
p3771
I01
sS'far__ALL__'
p3772
I01
sS'high__BOTTOM__'
p3773
I01
sS'battersea__BOTTOM__'
p3774
I01
sS'!__ALL__'
p3775
I01
sS'just__BOTTOM__'
p3776
I01
sS'just__ALL__'
p3777
I01
sS'far__TOP__'
p3778
I01
sS'grand__ALL__'
p3779
I01
sa(dp3780
S'can__ALL__'
p3781
I01
sS'the__TOP__'
p3782
I01
sS'see__BOTTOM__'
p3783
I01
sS'Path__ALL__'
p3784
I01
sS'horn__ALL__'
p3785
I01
sS'There__TOP__'
p3786
I01
sS'There__ALL__'
p3787
I01
sS'horn__BOTTOM__'
p3788
I01
sS'can__BOTTOM__'
p3789
I01
sS'you__ALL__'
p3790
I01
sS'of__ALL__'
p3791
I01
sS'devil__ALL__'
p3792
I01
sS'of__BOTTOM__'
p3793
I01
sS'you__BOTTOM__'
p3794
I01
sS'devil__BOTTOM__'
p3795
I01
sS'Najd__ALL__'
p3796
I01
sS'to__ALL__'
p3797
I01
sS'to__TOP__'
p3798
I01
sS'see__ALL__'
p3799
I01
sS'Najd__TOP__'
p3800
I01
sS'the__ALL__'
p3801
I01
sS'the__BOTTOM__'
p3802
I01
sS'Path__TOP__'
p3803
I01
sa(dp3804
S'a__ALL__'
p3805
I01
sS'fake__ALL__'
p3806
I01
sS'fake__BOTTOM__'
p3807
I01
sS'whole__ALL__'
p3808
I01
sS'nerd__ALL__'
p3809
I01
sS'there__ALL__'
p3810
I01
sS'full__BOTTOM__'
p3811
I01
sS'a__TOP__'
p3812
I01
sS'full__ALL__'
p3813
I01
sS'see__ALL__'
p3814
I01
sS'out__TOP__'
p3815
I01
sS'world__TOP__'
p3816
I01
sS'whole__TOP__'
p3817
I01
sS'of__ALL__'
p3818
I01
sS'see__TOP__'
p3819
I01
sS'world__ALL__'
p3820
I01
sS'nerd__BOTTOM__'
p3821
I01
sS'out__ALL__'
p3822
I01
sS'of__BOTTOM__'
p3823
I01
sS'there__TOP__'
p3824
I01
sa(dp3825
S'I__TOP__'
p3826
I01
sS'thi__TOP__'
p3827
I01
sS'thi__ALL__'
p3828
I01
sS'don__ALL__'
p3829
I01
sS'in__ALL__'
p3830
I01
sS'8217__BOTTOM__'
p3831
I01
sS'realli__BOTTOM__'
p3832
I01
sS't__ALL__'
p3833
I01
sS'time__BOTTOM__'
p3834
I01
sS'&__ALL__'
p3835
I01
sS'have__ALL__'
p3836
I01
sS'life__TOP__'
p3837
I01
sS'time__ALL__'
p3838
I01
sS';__ALL__'
p3839
I01
sS'8217__TOP__'
p3840
I01
sS'realli__ALL__'
p3841
I01
sS'#__BOTTOM__'
p3842
I01
sS'have__BOTTOM__'
p3843
I01
sS'part__TOP__'
p3844
I01
sS't__BOTTOM__'
p3845
I01
sS'&__TOP__'
p3846
I01
sS';__TOP__'
p3847
I01
sS';__BOTTOM__'
p3848
I01
sS'don__BOTTOM__'
p3849
I01
sS'm__TOP__'
p3850
I01
sS'I__BOTTOM__'
p3851
I01
sS'that__ALL__'
p3852
I01
sS'that__BOTTOM__'
p3853
I01
sS'of__TOP__'
p3854
I01
sS'of__ALL__'
p3855
I01
sS'&__BOTTOM__'
p3856
I01
sS'part__ALL__'
p3857
I01
sS'm__ALL__'
p3858
I01
sS'in__TOP__'
p3859
I01
sS'my__TOP__'
p3860
I01
sS'#__ALL__'
p3861
I01
sS'my__ALL__'
p3862
I01
sS'8217__ALL__'
p3863
I01
sS'life__ALL__'
p3864
I01
sS'#__TOP__'
p3865
I01
sS'I__ALL__'
p3866
I01
sa(dp3867
S'like__ALL__'
p3868
I01
sS'nigga__TOP__'
p3869
I01
sS'like__TOP__'
p3870
I01
sS'amaz__ALL__'
p3871
I01
sS'amaz__BOTTOM__'
p3872
I01
sS'be__TOP__'
p3873
I01
sS'is__ALL__'
p3874
I01
sS'be__ALL__'
p3875
I01
sS'ass__ALL__'
p3876
I01
sS'that__ALL__'
p3877
I01
sS'that__BOTTOM__'
p3878
I01
sS'ass__BOTTOM__'
p3879
I01
sS'is__BOTTOM__'
p3880
I01
sS'nigga__ALL__'
p3881
I01
sa(dp3882
S'look__ALL__'
p3883
I01
sS'dumbass__ALL__'
p3884
I01
sS'look__TOP__'
p3885
I01
sS'everywher__ALL__'
p3886
I01
sS'that__ALL__'
p3887
I01
sS'everywher__BOTTOM__'
p3888
I01
sS'at__TOP__'
p3889
I01
sS'dumbass__BOTTOM__'
p3890
I01
sS'at__ALL__'
p3891
I01
sS'that__TOP__'
p3892
I01
sa(dp3893
S'walk__ALL__'
p3894
I01
sS'wa__ALL__'
p3895
I01
sS'day__BOTTOM__'
p3896
I01
sS'one__ALL__'
p3897
I01
sS'day__ALL__'
p3898
I01
sS'wa__BOTTOM__'
p3899
I01
sS'...__BOTTOM__'
p3900
I01
sS'...__ALL__'
p3901
I01
sS'I__BOTTOM__'
p3902
I01
sS'one__BOTTOM__'
p3903
I01
sS'on__ALL__'
p3904
I01
sS'on__BOTTOM__'
p3905
I01
sS'the__ALL__'
p3906
I01
sS'the__BOTTOM__'
p3907
I01
sS'beach__BOTTOM__'
p3908
I01
sS'walk__BOTTOM__'
p3909
I01
sS'I__ALL__'
p3910
I01
sS'beach__ALL__'
p3911
I01
sa(dp3912
S'!__ALL__'
p3913
I01
sS'!__BOTTOM__'
p3914
I01
sS'Bomb__ALL__'
p3915
I01
sS'bomb__BOTTOM__'
p3916
I01
sS'Jihad__BOTTOM__'
p3917
I01
sS'Jihad__ALL__'
p3918
I01
sS'bomb__ALL__'
p3919
I01
sS'everywher__ALL__'
p3920
I01
sS'everywher__BOTTOM__'
p3921
I01
sS'Jihad__TOP__'
p3922
I01
sS'Bomb__TOP__'
p3923
I01
sa(dp3924
S'.__BOTTOM__'
p3925
I01
sS'.__ALL__'
p3926
I01
sS'do__BOTTOM__'
p3927
I01
sS'can__ALL__'
p3928
I01
sS'so__ALL__'
p3929
I01
sS'think__BOTTOM__'
p3930
I01
sS'think__ALL__'
p3931
I01
sS'if__TOP__'
p3932
I01
sS'it__TOP__'
p3933
I01
sS"n't__ALL__"
p3934
I01
sS'no__BOTTOM__'
p3935
I01
sS'...__BOTTOM__'
p3936
I01
sS'...__ALL__'
p3937
I01
sS'can__TOP__'
p3938
I01
sS'so__TOP__'
p3939
I01
sS'ya__ALL__'
p3940
I01
sS'if__ALL__'
p3941
I01
sS'you__ALL__'
p3942
I01
sS'no__ALL__'
p3943
I01
sS',__TOP__'
p3944
I01
sS"n't__BOTTOM__"
p3945
I01
sS'i__ALL__'
p3946
I01
sS',__ALL__'
p3947
I01
sS'you__TOP__'
p3948
I01
sS'do__ALL__'
p3949
I01
sS'ya__BOTTOM__'
p3950
I01
sS'it__ALL__'
p3951
I01
sS',__BOTTOM__'
p3952
I01
sS'do__TOP__'
p3953
I01
sS'i__TOP__'
p3954
I01
sS'way__ALL__'
p3955
I01
sS'i__BOTTOM__'
p3956
I01
sS'way__BOTTOM__'
p3957
I01
sa(dp3958
S'man__BOTTOM__'
p3959
I01
sS'hey__ALL__'
p3960
I01
sS'scare__ALL__'
p3961
I01
sS'we__ALL__'
p3962
I01
sS'can__ALL__'
p3963
I01
sS'fuck__BOTTOM__'
p3964
I01
sS'scare__BOTTOM__'
p3965
I01
sS'rule__ALL__'
p3966
I01
sS'we__TOP__'
p3967
I01
sS"'m__ALL__"
p3968
I01
sS'fuck__ALL__'
p3969
I01
sS'DF__TOP__'
p3970
I01
sS'can__TOP__'
p3971
I01
sS'shanklin__ALL__'
p3972
I01
sS'shanklin__BOTTOM__'
p3973
I01
sS'merciless__TOP__'
p3974
I01
sS'i__ALL__'
p3975
I01
sS'rule__TOP__'
p3976
I01
sS'man__ALL__'
p3977
I01
sS'merciless__ALL__'
p3978
I01
sS"'m__BOTTOM__"
p3979
I01
sS'i__BOTTOM__'
p3980
I01
sS'DF__ALL__'
p3981
I01
sS'hey__TOP__'
p3982
I01
sa(dp3983
S'ganjiong__TOP__'
p3984
I01
sS'kitchen__TOP__'
p3985
I01
sS'kitchen__ALL__'
p3986
I01
sS'ganjiong__ALL__'
p3987
I01
sS'ganjiong__BOTTOM__'
p3988
I01
sS'kitchen__BOTTOM__'
p3989
I01
sS'everywher__ALL__'
p3990
I01
sS'everywher__BOTTOM__'
p3991
I01
sa(dp3992
S'as__TOP__'
p3993
I01
sS'known__ALL__'
p3994
I01
sS'planet__ALL__'
p3995
I01
sS'is__ALL__'
p3996
I01
sS'And__ALL__'
p3997
I01
sS'that__ALL__'
p3998
I01
sS'is__TOP__'
p3999
I01
sS'planet__TOP__'
p4000
I01
sS'as__ALL__'
p4001
I01
sS'known__TOP__'
p4002
I01
sS'And__TOP__'
p4003
I01
sS'that__TOP__'
p4004
I01
sa(dp4005
S'look__TOP__'
p4006
I01
sS'porn__ALL__'
p4007
I01
sS'porn__BOTTOM__'
p4008
I01
sS'histori__ALL__'
p4009
I01
sS'gay__ALL__'
p4010
I01
sS'at__ALL__'
p4011
I01
sS'look__ALL__'
p4012
I01
sS'micheal__ALL__'
p4013
I01
sS'!__BOTTOM__'
p4014
I01
sS'phone__ALL__'
p4015
I01
sS'micheal__TOP__'
p4016
I01
sS'phone__TOP__'
p4017
I01
sS'on__ALL__'
p4018
I01
sS'on__TOP__'
p4019
I01
sS'everi__BOTTOM__'
p4020
I01
sS'gay__BOTTOM__'
p4021
I01
sS'everi__ALL__'
p4022
I01
sS'!__ALL__'
p4023
I01
sS'histori__TOP__'
p4024
I01
sS'at__TOP__'
p4025
I01
sS'where__BOTTOM__'
p4026
I01
sS'where__ALL__'
p4027
I01
sa(dp4028
S'see__ALL__'
p4029
I01
sS'no__BOTTOM__'
p4030
I01
sS'd__ALL__'
p4031
I01
sS'on__ALL__'
p4032
I01
sS'she__ALL__'
p4033
I01
sS'she__BOTTOM__'
p4034
I01
sS'thing__TOP__'
p4035
I01
sS'the__TOP__'
p4036
I01
sS'the__ALL__'
p4037
I01
sS'thing__ALL__'
p4038
I01
sS'd__BOTTOM__'
p4039
I01
sS'see__TOP__'
p4040
I01
sS'on__TOP__'
p4041
I01
sS'no__ALL__'
p4042
I01
sa(dp4043
S'to__ALL__'
p4044
I01
sS'Learn__TOP__'
p4045
I01
sS'hoedown__BOTTOM__'
p4046
I01
sS'to__BOTTOM__'
p4047
I01
sS'Ir__ALL__'
p4048
I01
sS'The__TOP__'
p4049
I01
sS'Ir__TOP__'
p4050
I01
sS'The__ALL__'
p4051
I01
sS'Learn__ALL__'
p4052
I01
sS'hoedown__ALL__'
p4053
I01
sa(dp4054
S'post__ALL__'
p4055
I01
sS'Delet__ALL__'
p4056
I01
sS'POST__TOP__'
p4057
I01
sS'POST__ALL__'
p4058
I01
sS'DELET__ALL__'
p4059
I01
sS'everywher__ALL__'
p4060
I01
sS'post__BOTTOM__'
p4061
I01
sS'everywher__BOTTOM__'
p4062
I01
sS'Delet__BOTTOM__'
p4063
I01
sS'DELET__TOP__'
p4064
I01
sa(dp4065
S'thi__TOP__'
p4066
I01
sS'line__ALL__'
p4067
I01
sS'sash__TOP__'
p4068
I01
sS'It__BOTTOM__'
p4069
I01
sS'want__TOP__'
p4070
I01
sS'want__ALL__'
p4071
I01
sS'...__BOTTOM__'
p4072
I01
sS'thi__ALL__'
p4073
I01
sS'...__ALL__'
p4074
I01
sS'line__BOTTOM__'
p4075
I01
sS'!__TOP__'
p4076
I01
sS'sash__ALL__'
p4077
I01
sS'You__ALL__'
p4078
I01
sS'!__ALL__'
p4079
I01
sS'just__BOTTOM__'
p4080
I01
sS'just__ALL__'
p4081
I01
sS'You__TOP__'
p4082
I01
sS'It__ALL__'
p4083
I01
sS'the__ALL__'
p4084
I01
sS'the__BOTTOM__'
p4085
I01
sS"'s__ALL__"
p4086
I01
sS"'s__BOTTOM__"
p4087
I01
sa(dp4088
S'mom__TOP__'
p4089
I01
sS'collag__ALL__'
p4090
I01
sS'mom__ALL__'
p4091
I01
sS'everywher__ALL__'
p4092
I01
sS'mom__BOTTOM__'
p4093
I01
sS'everywher__BOTTOM__'
p4094
I01
sS'collag__BOTTOM__'
p4095
I01
sS'collag__TOP__'
p4096
I01
sa(dp4097
S'Ye__ALL__'
p4098
I01
sS'fake__ALL__'
p4099
I01
sS'but__ALL__'
p4100
I01
sS'sam__ALL__'
p4101
I01
sS'caresss__ALL__'
p4102
I01
sS'caresss__BOTTOM__'
p4103
I01
sS'but__BOTTOM__'
p4104
I01
sS'fake__TOP__'
p4105
I01
sS'is__ALL__'
p4106
I01
sS'who__ALL__'
p4107
I01
sS'is__TOP__'
p4108
I01
sS'sam__TOP__'
p4109
I01
sS'Ye__TOP__'
p4110
I01
sS'who__BOTTOM__'
p4111
I01
sa(dp4112
S'own__BOTTOM__'
p4113
I01
sS'you__BOTTOM__'
p4114
I01
sS'hore__BOTTOM__'
p4115
I01
sS'Life__ALL__'
p4116
I01
sS'your__BOTTOM__'
p4117
I01
sS'have__ALL__'
p4118
I01
sS'realli__ALL__'
p4119
I01
sS'you__ALL__'
p4120
I01
sS'person__ALL__'
p4121
I01
sS'Life__TOP__'
p4122
I01
sS'up__TOP__'
p4123
I01
sS'person__BOTTOM__'
p4124
I01
sS'realli__TOP__'
p4125
I01
sS'hore__ALL__'
p4126
I01
sS'own__ALL__'
p4127
I01
sS'have__BOTTOM__'
p4128
I01
sS'your__ALL__'
p4129
I01
sS'When__BOTTOM__'
p4130
I01
sS'open__ALL__'
p4131
I01
sS'open__TOP__'
p4132
I01
sS'When__ALL__'
p4133
I01
sS'up__ALL__'
p4134
I01
sa(dp4135
S'u__TOP__'
p4136
I01
sS'like__TOP__'
p4137
I01
sS'sit__TOP__'
p4138
I01
sS'proness__TOP__'
p4139
I01
sS'cant__TOP__'
p4140
I01
sS'and__ALL__'
p4141
I01
sS'just__TOP__'
p4142
I01
sS'blame__BOTTOM__'
p4143
I01
sS'have__ALL__'
p4144
I01
sS'earn__BOTTOM__'
p4145
I01
sS'like__ALL__'
p4146
I01
sS'to__BOTTOM__'
p4147
I01
sS'others..__BOTTOM__'
p4148
I01
sS'u__ALL__'
p4149
I01
sS'it__BOTTOM__'
p4150
I01
sS'u__BOTTOM__'
p4151
I01
sS'idl__TOP__'
p4152
I01
sS'have__BOTTOM__'
p4153
I01
sS'others..__ALL__'
p4154
I01
sS',__TOP__'
p4155
I01
sS'to__ALL__'
p4156
I01
sS'blame__ALL__'
p4157
I01
sS',__ALL__'
p4158
I01
sS'it__ALL__'
p4159
I01
sS'earn__ALL__'
p4160
I01
sS'idl__ALL__'
p4161
I01
sS'proness__ALL__'
p4162
I01
sS'money__TOP__'
p4163
I01
sS'sit__ALL__'
p4164
I01
sS'cant__ALL__'
p4165
I01
sS'money__ALL__'
p4166
I01
sS'just__ALL__'
p4167
I01
sS'is__ALL__'
p4168
I01
sS'is__TOP__'
p4169
I01
sS'and__BOTTOM__'
p4170
I01
sa(dp4171
S'douch__ALL__'
p4172
I01
sS'bag__TOP__'
p4173
I01
sS'douch__TOP__'
p4174
I01
sS'douch__BOTTOM__'
p4175
I01
sS'everywher__ALL__'
p4176
I01
sS'everywher__BOTTOM__'
p4177
I01
sS'bag__BOTTOM__'
p4178
I01
sS'bag__ALL__'
p4179
I01
sa(dp4180
S'Dont__ALL__'
p4181
I01
sS'Next__ALL__'
p4182
I01
sS'bruin__ALL__'
p4183
I01
sS'game__ALL__'
p4184
I01
sS'Dont__TOP__'
p4185
I01
sS'worri__ALL__'
p4186
I01
sS'game__BOTTOM__'
p4187
I01
sS'bruin__BOTTOM__'
p4188
I01
sS'worri__TOP__'
p4189
I01
sS'the__ALL__'
p4190
I01
sS'win__BOTTOM__'
p4191
I01
sS'win__ALL__'
p4192
I01
sS'will__ALL__'
p4193
I01
sS'the__BOTTOM__'
p4194
I01
sS'The__ALL__'
p4195
I01
sS'The__BOTTOM__'
p4196
I01
sS'will__BOTTOM__'
p4197
I01
sS'Next__BOTTOM__'
p4198
I01
sa(dp4199
S'weav__TOP__'
p4200
I01
sS'just__ALL__'
p4201
I01
sS'decept__ALL__'
p4202
I01
sS'decept__BOTTOM__'
p4203
I01
sS'weav__ALL__'
p4204
I01
sS'web__ALL__'
p4205
I01
sS'your__TOP__'
p4206
I01
sS'just__TOP__'
p4207
I01
sS'web__TOP__'
p4208
I01
sS'of__ALL__'
p4209
I01
sS'your__ALL__'
p4210
I01
sS'of__BOTTOM__'
p4211
I01
sa(dp4212
S'you__TOP__'
p4213
I01
sS'have__TOP__'
p4214
I01
sS'replac__ALL__'
p4215
I01
sS'have__ALL__'
p4216
I01
sS'thi__ALL__'
p4217
I01
sS'when__ALL__'
p4218
I01
sS'replac__BOTTOM__'
p4219
I01
sS"'ve__ALL__"
p4220
I01
sS'the__TOP__'
p4221
I01
sS'been__BOTTOM__'
p4222
I01
sS"'ve__BOTTOM__"
p4223
I01
sS'is__TOP__'
p4224
I01
sS'you__BOTTOM__'
p4225
I01
sS'when__TOP__'
p4226
I01
sS'face__TOP__'
p4227
I01
sS'the__ALL__'
p4228
I01
sS'thi__TOP__'
p4229
I01
sS'been__ALL__'
p4230
I01
sS'face__ALL__'
p4231
I01
sS'you__ALL__'
p4232
I01
sS'is__ALL__'
p4233
I01
sa(dp4234
S'averag__TOP__'
p4235
I01
sS'women__BOTTOM__'
p4236
I01
sS'look__BOTTOM__'
p4237
I01
sS'women__ALL__'
p4238
I01
sS'averag__ALL__'
p4239
I01
sS'look__ALL__'
p4240
I01
sS'look__TOP__'
p4241
I01
sS'averag__BOTTOM__'
p4242
I01
sS'everywher__ALL__'
p4243
I01
sS'everywher__BOTTOM__'
p4244
I01
sS'women__TOP__'
p4245
I01
sa(dp4246
S'I__TOP__'
p4247
I01
sS'beach__TOP__'
p4248
I01
sS'day__TOP__'
p4249
I01
sS'the__TOP__'
p4250
I01
sS'day__ALL__'
p4251
I01
sS'wa__ALL__'
p4252
I01
sS'walk__ALL__'
p4253
I01
sS'Oh__ALL__'
p4254
I01
sS'no__BOTTOM__'
p4255
I01
sS'...__BOTTOM__'
p4256
I01
sS'...__ALL__'
p4257
I01
sS'on__ALL__'
p4258
I01
sS'walk__TOP__'
p4259
I01
sS'on__TOP__'
p4260
I01
sS'beach__ALL__'
p4261
I01
sS'no__ALL__'
p4262
I01
sS'Oh__BOTTOM__'
p4263
I01
sS',__ALL__'
p4264
I01
sS'...__TOP__'
p4265
I01
sS',__BOTTOM__'
p4266
I01
sS'one__TOP__'
p4267
I01
sS'wa__TOP__'
p4268
I01
sS'I__ALL__'
p4269
I01
sS'one__ALL__'
p4270
I01
sS'the__ALL__'
p4271
I01
sa(dp4272
S'kid__BOTTOM__'
p4273
I01
sS'look__ALL__'
p4274
I01
sS'look__BOTTOM__'
p4275
I01
sS'concert__ALL__'
p4276
I01
sS'lew__ALL__'
p4277
I01
sS'indi__ALL__'
p4278
I01
sS'indi__BOTTOM__'
p4279
I01
sS'concert__TOP__'
p4280
I01
sS'everywher__ALL__'
p4281
I01
sS'everywher__BOTTOM__'
p4282
I01
sS'at__TOP__'
p4283
I01
sS'lew__TOP__'
p4284
I01
sS'at__ALL__'
p4285
I01
sS'kid__ALL__'
p4286
I01
sa(dp4287
S'.__BOTTOM__'
p4288
I01
sS'.__ALL__'
p4289
I01
sS'thi__TOP__'
p4290
I01
sS'look__TOP__'
p4291
I01
sS'at__ALL__'
p4292
I01
sS'it__TOP__'
p4293
I01
sS'a__ALL__'
p4294
I01
sS'hear__BOTTOM__'
p4295
I01
sS'thi__ALL__'
p4296
I01
sS'...__ALL__'
p4297
I01
sS'mr__ALL__'
p4298
I01
sS'mr__BOTTOM__'
p4299
I01
sS'slut__ALL__'
p4300
I01
sS'way__TOP__'
p4301
I01
sS'look__ALL__'
p4302
I01
sS'i__ALL__'
p4303
I01
sS'slut__BOTTOM__'
p4304
I01
sS'...__TOP__'
p4305
I01
sS'is__BOTTOM__'
p4306
I01
sS'a__BOTTOM__'
p4307
I01
sS'potato__ALL__'
p4308
I01
sS'way__ALL__'
p4309
I01
sS'i__BOTTOM__'
p4310
I01
sS'is__ALL__'
p4311
I01
sS'head__ALL__'
p4312
I01
sS'at__TOP__'
p4313
I01
sS'hear__ALL__'
p4314
I01
sS'potato__BOTTOM__'
p4315
I01
sS'head__BOTTOM__'
p4316
I01
sS'it__ALL__'
p4317
I01
sa(dp4318
S'to__ALL__'
p4319
I01
sS'go__BOTTOM__'
p4320
I01
sS'jess__TOP__'
p4321
I01
sS'to__BOTTOM__'
p4322
I01
sS'imagin__ALL__'
p4323
I01
sS'not__ALL__'
p4324
I01
sS'church__BOTTOM__'
p4325
I01
sS'imagin__TOP__'
p4326
I01
sS'not__BOTTOM__'
p4327
I01
sS'sunday__ALL__'
p4328
I01
sS'on__ALL__'
p4329
I01
sS'jess__ALL__'
p4330
I01
sS'on__BOTTOM__'
p4331
I01
sS'church__ALL__'
p4332
I01
sS'go__ALL__'
p4333
I01
sS'sunday__BOTTOM__'
p4334
I01
sa(dp4335
S'bonus__ALL__'
p4336
I01
sS'no__BOTTOM__'
p4337
I01
sS'there__ALL__'
p4338
I01
sS'bonus__TOP__'
p4339
I01
sS'everywher__BOTTOM__'
p4340
I01
sS'bonus__BOTTOM__'
p4341
I01
sS'biffa__ALL__'
p4342
I01
sS'everywher__ALL__'
p4343
I01
sS'no__TOP__'
p4344
I01
sS'at__ALL__'
p4345
I01
sS'at__TOP__'
p4346
I01
sS'no__ALL__'
p4347
I01
sS'biffa__TOP__'
p4348
I01
sS'there__TOP__'
p4349
I01
sa(dp4350
S'there__BOTTOM__'
p4351
I01
sS'needl__ALL__'
p4352
I01
sS'then__BOTTOM__'
p4353
I01
sS'there__ALL__'
p4354
I01
sS'land__BOTTOM__'
p4355
I01
sS'land__ALL__'
p4356
I01
sS'put__ALL__'
p4357
I01
sS'needl__BOTTOM__'
p4358
I01
sS'put__BOTTOM__'
p4359
I01
sS'happi__BOTTOM__'
p4360
I01
sS'happi__ALL__'
p4361
I01
sS'in__BOTTOM__'
p4362
I01
sS'the__ALL__'
p4363
I01
sS'the__BOTTOM__'
p4364
I01
sS'in__ALL__'
p4365
I01
sS'then__ALL__'
p4366
I01
sa(dp4367
S'like__TOP__'
p4368
I01
sS'See__ALL__'
p4369
I01
sS'my__BOTTOM__'
p4370
I01
sS'like__ALL__'
p4371
I01
sS'big__ALL__'
p4372
I01
sS'dick__ALL__'
p4373
I01
sS'Buzz__ALL__'
p4374
I01
sS'!__TOP__'
p4375
I01
sS'Buzz__TOP__'
p4376
I01
sS'dick__BOTTOM__'
p4377
I01
sS'be__ALL__'
p4378
I01
sS'big__BOTTOM__'
p4379
I01
sS'be__TOP__'
p4380
I01
sS'!__ALL__'
p4381
I01
sS'?__ALL__'
p4382
I01
sS'?__BOTTOM__'
p4383
I01
sS'Wan__BOTTOM__'
p4384
I01
sS'Wan__ALL__'
p4385
I01
sS'See__BOTTOM__'
p4386
I01
sS'my__ALL__'
p4387
I01
sS'na__ALL__'
p4388
I01
sS'na__BOTTOM__'
p4389
I01
sa(dp4390
S'dont__ALL__'
p4391
I01
sS'dont__BOTTOM__'
p4392
I01
sS'the__TOP__'
p4393
I01
sS'side__TOP__'
p4394
I01
sS'Look__TOP__'
p4395
I01
sS'toy__ALL__'
p4396
I01
sS'good__ALL__'
p4397
I01
sS'on__ALL__'
p4398
I01
sS'toy__BOTTOM__'
p4399
I01
sS'At__ALL__'
p4400
I01
sS'Look__ALL__'
p4401
I01
sS'aid__BOTTOM__'
p4402
I01
sS'aid__ALL__'
p4403
I01
sS'good__TOP__'
p4404
I01
sS'At__BOTTOM__'
p4405
I01
sS'Get__ALL__'
p4406
I01
sS'Get__BOTTOM__'
p4407
I01
sS'on__TOP__'
p4408
I01
sS'the__ALL__'
p4409
I01
sS'side__ALL__'
p4410
I01
sS'least__ALL__'
p4411
I01
sS'least__BOTTOM__'
p4412
I01
sa(dp4413
S'shit__BOTTOM__'
p4414
I01
sS'said__TOP__'
p4415
I01
sS'shit__ALL__'
p4416
I01
sS'Alexi__TOP__'
p4417
I01
sS'never__ALL__'
p4418
I01
sS'said__BOTTOM__'
p4419
I01
sS'they__ALL__'
p4420
I01
sS'alexi__BOTTOM__'
p4421
I01
sS'Alexi__ALL__'
p4422
I01
sS'said__ALL__'
p4423
I01
sS'is__ALL__'
p4424
I01
sS'is__TOP__'
p4425
I01
sS'alexi__ALL__'
p4426
I01
sS'tlant__TOP__'
p4427
I01
sS'they__BOTTOM__'
p4428
I01
sS'tlant__ALL__'
p4429
I01
sS'is__BOTTOM__'
p4430
I01
sS'never__TOP__'
p4431
I01
sa(dp4432
S'awsom__ALL__'
p4433
I01
sS'i__TOP__'
p4434
I01
sS'mom__TOP__'
p4435
I01
sS'wa__BOTTOM__'
p4436
I01
sS'i__ALL__'
p4437
I01
sS'mom__ALL__'
p4438
I01
sS'your__TOP__'
p4439
I01
sS'it__BOTTOM__'
p4440
I01
sS'wa__ALL__'
p4441
I01
sS'it__ALL__'
p4442
I01
sS'your__ALL__'
p4443
I01
sS'rape__ALL__'
p4444
I01
sS'rape__TOP__'
p4445
I01
sS'awsom__BOTTOM__'
p4446
I01
sa(dp4447
S'of__ALL__'
p4448
I01
sS'it__TOP__'
p4449
I01
sS'poni__BOTTOM__'
p4450
I01
sS'look__TOP__'
p4451
I01
sS'look__ALL__'
p4452
I01
sS'my__ALL__'
p4453
I01
sS'season__BOTTOM__'
p4454
I01
sS'at__ALL__'
p4455
I01
sS'season__ALL__'
p4456
I01
sS'4__ALL__'
p4457
I01
sS'of__BOTTOM__'
p4458
I01
sS'my__BOTTOM__'
p4459
I01
sS'at__TOP__'
p4460
I01
sS'poni__ALL__'
p4461
I01
sS'littl__ALL__'
p4462
I01
sS'littl__BOTTOM__'
p4463
I01
sS'4__BOTTOM__'
p4464
I01
sS'it__ALL__'
p4465
I01
sa(dp4466
S"n't__ALL__"
p4467
I01
sS'woodi__TOP__'
p4468
I01
sS"n't__BOTTOM__"
p4469
I01
sS'woodi__ALL__'
p4470
I01
sS'i__ALL__'
p4471
I01
sS'hit__BOTTOM__'
p4472
I01
sS'hit__ALL__'
p4473
I01
sS'i__BOTTOM__'
p4474
I01
sS'SEe__ALL__'
p4475
I01
sS'you__ALL__'
p4476
I01
sS'and__ALL__'
p4477
I01
sS'that__ALL__'
p4478
I01
sS'that__BOTTOM__'
p4479
I01
sS'you__BOTTOM__'
p4480
I01
sS'and__BOTTOM__'
p4481
I01
sS'SEe__TOP__'
p4482
I01
sS'her__TOP__'
p4483
I01
sS'did__ALL__'
p4484
I01
sS'her__ALL__'
p4485
I01
sS'did__BOTTOM__'
p4486
I01
sa(dp4487
S'.__BOTTOM__'
p4488
I01
sS'.__ALL__'
p4489
I01
sS'bandwagon__ALL__'
p4490
I01
sS'Bandwagon__ALL__'
p4491
I01
sS'bandwagon__BOTTOM__'
p4492
I01
sS'...__ALL__'
p4493
I01
sS'everywher__ALL__'
p4494
I01
sS'...__TOP__'
p4495
I01
sS'everywher__BOTTOM__'
p4496
I01
sS'Bandwagon__TOP__'
p4497
I01
sS'fan__TOP__'
p4498
I01
sS'fan__BOTTOM__'
p4499
I01
sS'fan__ALL__'
p4500
I01
sa(dp4501
S'ribbon__TOP__'
p4502
I01
sS'ribbon__ALL__'
p4503
I01
sS'menu__ALL__'
p4504
I01
sS'menu__TOP__'
p4505
I01
sS'menu__BOTTOM__'
p4506
I01
sS'ribbon__BOTTOM__'
p4507
I01
sS'everywher__ALL__'
p4508
I01
sS'everywher__BOTTOM__'
p4509
I01
sa(dp4510
S'Ly__ALL__'
p4511
I01
sS'in__ALL__'
p4512
I01
sS'everywher__ALL__'
p4513
I01
sS'in__BOTTOM__'
p4514
I01
sS'everywher__BOTTOM__'
p4515
I01
sS'your__ALL__'
p4516
I01
sS'your__BOTTOM__'
p4517
I01
sS'dream__BOTTOM__'
p4518
I01
sS'Ly__BOTTOM__'
p4519
I01
sS'dream__ALL__'
p4520
I01
sS'Ly__TOP__'
p4521
I01
sa(dp4522
S'girl__TOP__'
p4523
I01
sS'girl__ALL__'
p4524
I01
sS'everywher__ALL__'
p4525
I01
sS'girl__BOTTOM__'
p4526
I01
sS'everywher__BOTTOM__'
p4527
I01
sS'busti__ALL__'
p4528
I01
sS'busti__BOTTOM__'
p4529
I01
sS'busti__TOP__'
p4530
I01
sa(dp4531
S'smoker__BOTTOM__'
p4532
I01
sS'smoker__TOP__'
p4533
I01
sS'Friendli__TOP__'
p4534
I01
sS'everywher__ALL__'
p4535
I01
sS'everywher__BOTTOM__'
p4536
I01
sS'Friendli__ALL__'
p4537
I01
sS'Friendli__BOTTOM__'
p4538
I01
sS'smoker__ALL__'
p4539
I01
sa(dp4540
S'Vision__TOP__'
p4541
I01
sS'there__BOTTOM__'
p4542
I01
sS'get__ALL__'
p4543
I01
sS'get__BOTTOM__'
p4544
I01
sS"'ll__BOTTOM__"
p4545
I01
sS"'ll__ALL__"
p4546
I01
sS'2020__TOP__'
p4547
I01
sS'We__ALL__'
p4548
I01
sS'there__ALL__'
p4549
I01
sS'We__BOTTOM__'
p4550
I01
sS'Vision__ALL__'
p4551
I01
sS'2020__ALL__'
p4552
I01
sa(dp4553
S'Foto__TOP__'
p4554
I01
sS'back__TOP__'
p4555
I01
sS'todo__ALL__'
p4556
I01
sS'de__TOP__'
p4557
I01
sS'lado__BOTTOM__'
p4558
I01
sS'to__BOTTOM__'
p4559
I01
sS'to__ALL__'
p4560
I01
sS'de__BOTTOM__'
p4561
I01
sS'back__ALL__'
p4562
I01
sS'back__BOTTOM__'
p4563
I01
sS'de__ALL__'
p4564
I01
sS'school__TOP__'
p4565
I01
sS'to__TOP__'
p4566
I01
sS'todo__BOTTOM__'
p4567
I01
sS'por__BOTTOM__'
p4568
I01
sS'school__ALL__'
p4569
I01
sS'school__BOTTOM__'
p4570
I01
sS'por__ALL__'
p4571
I01
sS'Foto__ALL__'
p4572
I01
sS'lado__ALL__'
p4573
I01
sS'Foto__BOTTOM__'
p4574
I01
sa(dp4575
S'kid__BOTTOM__'
p4576
I01
sS'foR__BOTTOM__'
p4577
I01
sS'him__TOP__'
p4578
I01
sS'not__ALL__'
p4579
I01
sS'doe__ALL__'
p4580
I01
sS'doe__BOTTOM__'
p4581
I01
sS'him__ALL__'
p4582
I01
sS'He__ALL__'
p4583
I01
sS"'s__TOP__"
p4584
I01
sS'!__BOTTOM__'
p4585
I01
sS'foR__ALL__'
p4586
I01
sS'know__ALL__'
p4587
I01
sS'See__TOP__'
p4588
I01
sS'Meant__ALL__'
p4589
I01
sS'kid__ALL__'
p4590
I01
sS"n't__BOTTOM__"
p4591
I01
sS"n't__ALL__"
p4592
I01
sS'are__BOTTOM__'
p4593
I01
sS'know__BOTTOM__'
p4594
I01
sS'that__ALL__'
p4595
I01
sS'that__BOTTOM__'
p4596
I01
sS'He__BOTTOM__'
p4597
I01
sS'he__TOP__'
p4598
I01
sS'See__ALL__'
p4599
I01
sS'!__ALL__'
p4600
I01
sS'sick__TOP__'
p4601
I01
sS'are__ALL__'
p4602
I01
sS'Meant__BOTTOM__'
p4603
I01
sS'not__BOTTOM__'
p4604
I01
sS'he__ALL__'
p4605
I01
sS"'s__ALL__"
p4606
I01
sS'sick__ALL__'
p4607
I01
sa(dp4608
S'italian__TOP__'
p4609
I01
sS'italian__ALL__'
p4610
I01
sS'accent__TOP__'
p4611
I01
sS'Everywher__ALL__'
p4612
I01
sS'accent__BOTTOM__'
p4613
I01
sS'italian__BOTTOM__'
p4614
I01
sS'accent__ALL__'
p4615
I01
sS'Everywher__BOTTOM__'
p4616
I01
sa(dp4617
S'cat__TOP__'
p4618
I01
sS'Bodega__TOP__'
p4619
I01
sS'Bodega__ALL__'
p4620
I01
sS'bodega__BOTTOM__'
p4621
I01
sS'cat__ALL__'
p4622
I01
sS'cat__BOTTOM__'
p4623
I01
sS'bodega__ALL__'
p4624
I01
sS'everywher__ALL__'
p4625
I01
sS'everywher__BOTTOM__'
p4626
I01
sa(dp4627
S'everywher__ALL__'
p4628
I01
sS'countri__BOTTOM__'
p4629
I01
sS'everywher__BOTTOM__'
p4630
I01
sS'countri__TOP__'
p4631
I01
sS'and__ALL__'
p4632
I01
sS'Christian__BOTTOM__'
p4633
I01
sS'countri__ALL__'
p4634
I01
sS'Christian__TOP__'
p4635
I01
sS'and__BOTTOM__'
p4636
I01
sS'Christian__ALL__'
p4637
I01
sS'and__TOP__'
p4638
I01
sa(dp4639
S'updat__BOTTOM__'
p4640
I01
sS'updat__ALL__'
p4641
I01
sS'have__TOP__'
p4642
I01
sS'we__ALL__'
p4643
I01
sS'the__TOP__'
p4644
I01
sS'could__BOTTOM__'
p4645
I01
sS'have__ALL__'
p4646
I01
sS"n't__ALL__"
p4647
I01
sS'we__TOP__'
p4648
I01
sS"n't__TOP__"
p4649
I01
sS'been__BOTTOM__'
p4650
I01
sS'chucki__ALL__'
p4651
I01
sS'have__BOTTOM__'
p4652
I01
sS'kill__ALL__'
p4653
I01
sS'chucki__BOTTOM__'
p4654
I01
sS'kill__TOP__'
p4655
I01
sS'these__BOTTOM__'
p4656
I01
sS'guy__ALL__'
p4657
I01
sS'kid__TOP__'
p4658
I01
sS'been__ALL__'
p4659
I01
sS'guy__BOTTOM__'
p4660
I01
sS'whi__TOP__'
p4661
I01
sS'kid__ALL__'
p4662
I01
sS'whi__ALL__'
p4663
I01
sS'these__ALL__'
p4664
I01
sS'yer__ALL__'
p4665
I01
sS'yer__TOP__'
p4666
I01
sS'could__ALL__'
p4667
I01
sS'the__ALL__'
p4668
I01
sS'the__BOTTOM__'
p4669
I01
sa(dp4670
S',__TOP__'
p4671
I01
sS'nuero__BOTTOM__'
p4672
I01
sS'...__ALL__'
p4673
I01
sS'nuero__ALL__'
p4674
I01
sS'hour__ALL__'
p4675
I01
sS'...__BOTTOM__'
p4676
I01
sS'12__TOP__'
p4677
I01
sS'long__TOP__'
p4678
I01
sS',__ALL__'
p4679
I01
sS'icu__ALL__'
p4680
I01
sS'work__ALL__'
p4681
I01
sS'work__BOTTOM__'
p4682
I01
sS'12__ALL__'
p4683
I01
sS'hour__TOP__'
p4684
I01
sS'the__BOTTOM__'
p4685
I01
sS'the__ALL__'
p4686
I01
sS'in__BOTTOM__'
p4687
I01
sS'in__ALL__'
p4688
I01
sS'icu__BOTTOM__'
p4689
I01
sS'long__ALL__'
p4690
I01
sa(dp4691
S'First__BOTTOM__'
p4692
I01
sS'First__ALL__'
p4693
I01
sS'diVis__ALL__'
p4694
I01
sS'diVis__BOTTOM__'
p4695
I01
sS'pish__ALL__'
p4696
I01
sS'Home__ALL__'
p4697
I01
sS'pish__BOTTOM__'
p4698
I01
sS'of__ALL__'
p4699
I01
sS'Home__TOP__'
p4700
I01
sS'of__TOP__'
p4701
I01
sa(dp4702
S'like__ALL__'
p4703
I01
sS'u__TOP__'
p4704
I01
sS'look__TOP__'
p4705
I01
sS'idiot__TOP__'
p4706
I01
sS'wierdo__BOTTOM__'
p4707
I01
sS'knew__ALL__'
p4708
I01
sS'buzz__BOTTOM__'
p4709
I01
sS'it__TOP__'
p4710
I01
sS'idiot__ALL__'
p4711
I01
sS'buzz__ALL__'
p4712
I01
sS'u__ALL__'
p4713
I01
sS'an__TOP__'
p4714
I01
sS'u__BOTTOM__'
p4715
I01
sS'like__TOP__'
p4716
I01
sS'were__BOTTOM__'
p4717
I01
sS'an__ALL__'
p4718
I01
sS'i__ALL__'
p4719
I01
sS'look__ALL__'
p4720
I01
sS'a__ALL__'
p4721
I01
sS'alway__ALL__'
p4722
I01
sS'were__ALL__'
p4723
I01
sS'it__ALL__'
p4724
I01
sS'oh__BOTTOM__'
p4725
I01
sS'woodi__TOP__'
p4726
I01
sS'a__BOTTOM__'
p4727
I01
sS'woodi__ALL__'
p4728
I01
sS'i__BOTTOM__'
p4729
I01
sS'knew__BOTTOM__'
p4730
I01
sS'wierdo__ALL__'
p4731
I01
sS'alway__BOTTOM__'
p4732
I01
sS'oh__ALL__'
p4733
I01
sa(dp4734
S'Get__ALL__'
p4735
I01
sS'Look__ALL__'
p4736
I01
sS'dont__BOTTOM__'
p4737
I01
sS'toy__ALL__'
p4738
I01
sS'aid__ALL__'
p4739
I01
sS'Atleast__BOTTOM__'
p4740
I01
sS'on__ALL__'
p4741
I01
sS'Get__BOTTOM__'
p4742
I01
sS'Look__TOP__'
p4743
I01
sS'good__TOP__'
p4744
I01
sS'aid__BOTTOM__'
p4745
I01
sS'good__ALL__'
p4746
I01
sS'the__TOP__'
p4747
I01
sS'side__TOP__'
p4748
I01
sS'toy__BOTTOM__'
p4749
I01
sS'Atleast__ALL__'
p4750
I01
sS'the__ALL__'
p4751
I01
sS'side__ALL__'
p4752
I01
sS'dont__ALL__'
p4753
I01
sS'on__TOP__'
p4754
I01
sa(dp4755
S'Front__TOP__'
p4756
I01
sS'La__BOTTOM__'
p4757
I01
sS'everi__ALL__'
p4758
I01
sS'Runner__ALL__'
p4759
I01
sS'galaxi__BOTTOM__'
p4760
I01
sS')__ALL__'
p4761
I01
sS'Front__ALL__'
p4762
I01
sS'everi__TOP__'
p4763
I01
sS')__BOTTOM__'
p4764
I01
sS'(__ALL__'
p4765
I01
sS'FRont__ALL__'
p4766
I01
sS'cough__BOTTOM__'
p4767
I01
sS'where__ALL__'
p4768
I01
sS'where__TOP__'
p4769
I01
sS'cough__ALL__'
p4770
I01
sS'galaxi__ALL__'
p4771
I01
sS'FRont__TOP__'
p4772
I01
sS'(__BOTTOM__'
p4773
I01
sS'Runner__TOP__'
p4774
I01
sS'La__ALL__'
p4775
I01
sa(dp4776
S'firework__TOP__'
p4777
I01
sS'injuri__TOP__'
p4778
I01
sS'firework__ALL__'
p4779
I01
sS'injuri__BOTTOM__'
p4780
I01
sS'everywher__ALL__'
p4781
I01
sS'injuri__ALL__'
p4782
I01
sS'everywher__BOTTOM__'
p4783
I01
sa(dp4784
S'what__TOP__'
p4785
I01
sS'look__ALL__'
p4786
I01
sS'a__ALL__'
p4787
I01
sS'real__ALL__'
p4788
I01
sS'cock__TOP__'
p4789
I01
sS'like__ALL__'
p4790
I01
sS'him__TOP__'
p4791
I01
sS'a__TOP__'
p4792
I01
sS'cock__ALL__'
p4793
I01
sS'him__ALL__'
p4794
I01
sS'show__ALL__'
p4795
I01
sS'look__TOP__'
p4796
I01
sS'what__ALL__'
p4797
I01
sS'like__TOP__'
p4798
I01
sS'real__TOP__'
p4799
I01
sS'show__TOP__'
p4800
I01
sa(dp4801
S'.__BOTTOM__'
p4802
I01
sS'.__ALL__'
p4803
I01
sS'okay__ALL__'
p4804
I01
sS'action__BOTTOM__'
p4805
I01
sS'will__ALL__'
p4806
I01
sS'figur__BOTTOM__'
p4807
I01
sS'okay__TOP__'
p4808
I01
sS'it__TOP__'
p4809
I01
sS'sure__BOTTOM__'
p4810
I01
sS'nice__ALL__'
p4811
I01
sS'sure__ALL__'
p4812
I01
sS'will__BOTTOM__'
p4813
I01
sS',__TOP__'
p4814
I01
sS'broli__BOTTOM__'
p4815
I01
sS'nice__BOTTOM__'
p4816
I01
sS',__ALL__'
p4817
I01
sS'im__BOTTOM__'
p4818
I01
sS'play__ALL__'
p4819
I01
sS'that__ALL__'
p4820
I01
sS'that__BOTTOM__'
p4821
I01
sS'it__ALL__'
p4822
I01
sS'woodi__TOP__'
p4823
I01
sS'woodi__ALL__'
p4824
I01
sS'im__ALL__'
p4825
I01
sS'broli__ALL__'
p4826
I01
sS'action__ALL__'
p4827
I01
sS'figur__ALL__'
p4828
I01
sS'play__BOTTOM__'
p4829
I01
sa(dp4830
S'grass__ALL__'
p4831
I01
sS'grass__TOP__'
p4832
I01
sS'everywher__ALL__'
p4833
I01
sS'grass__BOTTOM__'
p4834
I01
sS'Tall__ALL__'
p4835
I01
sS'everywher__BOTTOM__'
p4836
I01
sS'Tall__TOP__'
p4837
I01
sS'Tall__BOTTOM__'
p4838
I01
sa(dp4839
S'Life__TOP__'
p4840
I01
sS'up__TOP__'
p4841
I01
sS'person__ALL__'
p4842
I01
sS'person__BOTTOM__'
p4843
I01
sS'reALLi__TOP__'
p4844
I01
sS'your__ALL__'
p4845
I01
sS'own__ALL__'
p4846
I01
sS'u__ALL__'
p4847
I01
sS'reALLi__ALL__'
p4848
I01
sS'when__ALL__'
p4849
I01
sS'u__BOTTOM__'
p4850
I01
sS'own__BOTTOM__'
p4851
I01
sS'up__ALL__'
p4852
I01
sS'HOre__BOTTOM__'
p4853
I01
sS'Life__ALL__'
p4854
I01
sS'have__BOTTOM__'
p4855
I01
sS'your__BOTTOM__'
p4856
I01
sS'have__ALL__'
p4857
I01
sS'HOre__ALL__'
p4858
I01
sS'when__BOTTOM__'
p4859
I01
sa(dp4860
S'everi__BOTTOM__'
p4861
I01
sS'newport__ALL__'
p4862
I01
sS'fuck__BOTTOM__'
p4863
I01
sS'fuck__ALL__'
p4864
I01
sS'newport__TOP__'
p4865
I01
sS'everi__ALL__'
p4866
I01
sS'where__BOTTOM__'
p4867
I01
sS'scumbag__BOTTOM__'
p4868
I01
sS'newport__BOTTOM__'
p4869
I01
sS'scumbag__TOP__'
p4870
I01
sS'where__ALL__'
p4871
I01
sS'scumbag__ALL__'
p4872
I01
sa(dp4873
S'rugrat__TOP__'
p4874
I01
sS'on__ALL__'
p4875
I01
sS'rugrat__BOTTOM__'
p4876
I01
sS'rugrat__ALL__'
p4877
I01
sS'nickelodeon__ALL__'
p4878
I01
sS'on__BOTTOM__'
p4879
I01
sS'nickelodeon__BOTTOM__'
p4880
I01
sa(dp4881
S'.__BOTTOM__'
p4882
I01
sS'everywher__ALL__'
p4883
I01
sS'.__ALL__'
p4884
I01
sS'battl__TOP__'
p4885
I01
sS'annoy__BOTTOM__'
p4886
I01
sS'battl__BOTTOM__'
p4887
I01
sS'ass__ALL__'
p4888
I01
sS'battl__ALL__'
p4889
I01
sS'Annoy__TOP__'
p4890
I01
sS'ass__BOTTOM__'
p4891
I01
sS'everywher__BOTTOM__'
p4892
I01
sS'Annoy__ALL__'
p4893
I01
sS'.__TOP__'
p4894
I01
sS'annoy__ALL__'
p4895
I01
sS'ass__TOP__'
p4896
I01
sa(dp4897
S'.__BOTTOM__'
p4898
I01
sS'by__BOTTOM__'
p4899
I01
sS'.__ALL__'
p4900
I01
sS'not__ALL__'
p4901
I01
sS'noo__ALL__'
p4902
I01
sS'in__ALL__'
p4903
I01
sS'Andi__BOTTOM__'
p4904
I01
sS'what__ALL__'
p4905
I01
sS'meant__ALL__'
p4906
I01
sS'noo__TOP__'
p4907
I01
sS'look__ALL__'
p4908
I01
sS'toy__ALL__'
p4909
I01
sS',__ALL__'
p4910
I01
sS'box__ALL__'
p4911
I01
sS'That__BOTTOM__'
p4912
I01
sS'toy__BOTTOM__'
p4913
I01
sS'Andi__ALL__'
p4914
I01
sS',__TOP__'
p4915
I01
sS'by__ALL__'
p4916
I01
sS'meant__BOTTOM__'
p4917
I01
sS'paul__TOP__'
p4918
I01
sS'!__TOP__'
p4919
I01
sS'box__BOTTOM__'
p4920
I01
sS'!__ALL__'
p4921
I01
sS'I__BOTTOM__'
p4922
I01
sS'paul__ALL__'
p4923
I01
sS'in__BOTTOM__'
p4924
I01
sS'what__BOTTOM__'
p4925
I01
sS'No__ALL__'
p4926
I01
sS'look__BOTTOM__'
p4927
I01
sS'I__ALL__'
p4928
I01
sS'not__BOTTOM__'
p4929
I01
sS'That__ALL__'
p4930
I01
sS'No__TOP__'
p4931
I01
sS"'s__ALL__"
p4932
I01
sS"'s__BOTTOM__"
p4933
I01
sa(dp4934
S'all__ALL__'
p4935
I01
sS'all__BOTTOM__'
p4936
I01
sS'index__TOP__'
p4937
I01
sS'swamp__ALL__'
p4938
I01
sS'106__TOP__'
p4939
I01
sS'night__BOTTOM__'
p4940
I01
sS'!__BOTTOM__'
p4941
I01
sS'heat__ALL__'
p4942
I01
sS'...__BOTTOM__'
p4943
I01
sS'...__ALL__'
p4944
I01
sS'long__BOTTOM__'
p4945
I01
sS'swamp__BOTTOM__'
p4946
I01
sS'night__ALL__'
p4947
I01
sS'106__ALL__'
p4948
I01
sS"'__ALL__"
p4949
I01
sS'heat__TOP__'
p4950
I01
sS'ass__ALL__'
p4951
I01
sS'long__ALL__'
p4952
I01
sS'ass__BOTTOM__'
p4953
I01
sS'index__ALL__'
p4954
I01
sS'!__ALL__'
p4955
I01
sS"'__TOP__"
p4956
I01
sS'..swamp__ALL__'
p4957
I01
sS'..swamp__BOTTOM__'
p4958
I01
sa(dp4959
S'imagin__ALL__'
p4960
I01
sS'imagin__TOP__'
p4961
I01
sS'std__ALL__'
p4962
I01
sS'std__BOTTOM__'
p4963
I01
sS'ha__BOTTOM__'
p4964
I01
sS'jami__ALL__'
p4965
I01
sS'jami__BOTTOM__'
p4966
I01
sS'ha__ALL__'
p4967
I01
sa(dp4968
S'split__BOTTOM__'
p4969
I01
sS'Split__TOP__'
p4970
I01
sS'end__TOP__'
p4971
I01
sS'end__BOTTOM__'
p4972
I01
sS'end__ALL__'
p4973
I01
sS'split__ALL__'
p4974
I01
sS'everywher__ALL__'
p4975
I01
sS'everywher__BOTTOM__'
p4976
I01
sS'Split__ALL__'
p4977
I01
sa(dp4978
S'there__BOTTOM__'
p4979
I01
sS'needl__ALL__'
p4980
I01
sS'then__BOTTOM__'
p4981
I01
sS'there__ALL__'
p4982
I01
sS'land__BOTTOM__'
p4983
I01
sS'land__ALL__'
p4984
I01
sS'put__ALL__'
p4985
I01
sS'needl__BOTTOM__'
p4986
I01
sS'put__BOTTOM__'
p4987
I01
sS'happi__BOTTOM__'
p4988
I01
sS'happi__ALL__'
p4989
I01
sS'in__BOTTOM__'
p4990
I01
sS'in__ALL__'
p4991
I01
sS'then__ALL__'
p4992
I01
sa(dp4993
S'through__ALL__'
p4994
I01
sS'she__ALL__'
p4995
I01
sS'a__TOP__'
p4996
I01
sS'what__ALL__'
p4997
I01
sS'your__BOTTOM__'
p4998
I01
sS'worri__ALL__'
p4999
I01
sS'anyway__ALL__'
p5000
I01
sS"n't__ALL__"
p5001
I01
sS'go__ALL__'
p5002
I01
sS'she__TOP__'
p5003
I01
sS'...__BOTTOM__'
p5004
I01
sS'...__ALL__'
p5005
I01
sS"n't__TOP__"
p5006
I01
sS'do__TOP__'
p5007
I01
sS'worri__TOP__'
p5008
I01
sS'anyway__TOP__'
p5009
I01
sS'puberti__ALL__'
p5010
I01
sS'awkward__BOTTOM__'
p5011
I01
sS'wa__ALL__'
p5012
I01
sS'bitch__TOP__'
p5013
I01
sS'puberti__BOTTOM__'
p5014
I01
sS'do__ALL__'
p5015
I01
sS'your__ALL__'
p5016
I01
sS'what__BOTTOM__'
p5017
I01
sS'go__BOTTOM__'
p5018
I01
sS'awkward__ALL__'
p5019
I01
sS'wa__TOP__'
p5020
I01
sS'just__BOTTOM__'
p5021
I01
sS'just__ALL__'
p5022
I01
sS'bitch__ALL__'
p5023
I01
sS'a__ALL__'
p5024
I01
sS'through__BOTTOM__'
p5025
I01
sa(dp5026
S'situat__ALL__'
p5027
I01
sS'here__BOTTOM__'
p5028
I01
sS'peopl__TOP__'
p5029
I01
sS'a__BOTTOM__'
p5030
I01
sS'We__ALL__'
p5031
I01
sS'peopl__ALL__'
p5032
I01
sS'a__ALL__'
p5033
I01
sS'situat__BOTTOM__'
p5034
I01
sS'your__TOP__'
p5035
I01
sS'Mind__ALL__'
p5036
I01
sS'here__ALL__'
p5037
I01
sS'We__BOTTOM__'
p5038
I01
sS'Mind__TOP__'
p5039
I01
sS'your__ALL__'
p5040
I01
sS'have__BOTTOM__'
p5041
I01
sS'bUsi__TOP__'
p5042
I01
sS'have__ALL__'
p5043
I01
sS'bUsi__ALL__'
p5044
I01
sa(dp5045
S'look__ALL__'
p5046
I01
sS'chick__BOTTOM__'
p5047
I01
sS'fat__ALL__'
p5048
I01
sS'woodi__TOP__'
p5049
I01
sS'a__BOTTOM__'
p5050
I01
sS'bang__ALL__'
p5051
I01
sS'look__TOP__'
p5052
I01
sS'andi__ALL__'
p5053
I01
sS'woodi__ALL__'
p5054
I01
sS'bang__BOTTOM__'
p5055
I01
sS'fat__BOTTOM__'
p5056
I01
sS'a__ALL__'
p5057
I01
sS'andi__BOTTOM__'
p5058
I01
sS'chick__ALL__'
p5059
I01
sS"'s__ALL__"
p5060
I01
sS"'s__BOTTOM__"
p5061
I01
sa(dp5062
S'Look__ALL__'
p5063
I01
sS'Good__BOTTOM__'
p5064
I01
sS'a__TOP__'
p5065
I01
sS'Old__ALL__'
p5066
I01
sS'it__TOP__'
p5067
I01
sS"'s__TOP__"
p5068
I01
sS'Look__TOP__'
p5069
I01
sS'chicken__ALL__'
p5070
I01
sS'Call__ALL__'
p5071
I01
sS',__TOP__'
p5072
I01
sS'beak__ALL__'
p5073
I01
sS'chicken__BOTTOM__'
p5074
I01
sS'Old__BOTTOM__'
p5075
I01
sS',__ALL__'
p5076
I01
sS'Call__TOP__'
p5077
I01
sS'beak__TOP__'
p5078
I01
sS'it__ALL__'
p5079
I01
sS'Good__ALL__'
p5080
I01
sS'woodi__TOP__'
p5081
I01
sS'code__BOTTOM__'
p5082
I01
sS'woodi__ALL__'
p5083
I01
sS'code__ALL__'
p5084
I01
sS'a__ALL__'
p5085
I01
sS"'s__ALL__"
p5086
I01
sa(dp5087
S',__TOP__'
p5088
I01
sS'a__ALL__'
p5089
I01
sS'just__ALL__'
p5090
I01
sS'woodi__TOP__'
p5091
I01
sS'a__BOTTOM__'
p5092
I01
sS'just__BOTTOM__'
p5093
I01
sS'woodi__ALL__'
p5094
I01
sS',__ALL__'
p5095
I01
sS'vagina__ALL__'
p5096
I01
sS'It__BOTTOM__'
p5097
I01
sS'It__ALL__'
p5098
I01
sS'Oh__TOP__'
p5099
I01
sS'vagina__BOTTOM__'
p5100
I01
sS"'s__ALL__"
p5101
I01
sS'Oh__ALL__'
p5102
I01
sS"'s__BOTTOM__"
p5103
I01
sa(dp5104
S'servic__TOP__'
p5105
I01
sS'Excel__TOP__'
p5106
I01
sS'servic__ALL__'
p5107
I01
sS'Excel__BOTTOM__'
p5108
I01
sS'servic__BOTTOM__'
p5109
I01
sS'Excel__ALL__'
p5110
I01
sS'everywher__ALL__'
p5111
I01
sS'everywher__BOTTOM__'
p5112
I01
sa(dp5113
S'ok__TOP__'
p5114
I01
sS'grew__ALL__'
p5115
I01
sS'the__TOP__'
p5116
I01
sS'sac__ALL__'
p5117
I01
sS'best__TOP__'
p5118
I01
sS'sac__BOTTOM__'
p5119
I01
sS'best__ALL__'
p5120
I01
sS'ball__BOTTOM__'
p5121
I01
sS'ball__ALL__'
p5122
I01
sS'here__ALL__'
p5123
I01
sS'of__ALL__'
p5124
I01
sS'part__TOP__'
p5125
I01
sS'grew__BOTTOM__'
p5126
I01
sS'i__ALL__'
p5127
I01
sS'a__ALL__'
p5128
I01
sS'the__ALL__'
p5129
I01
sS'of__TOP__'
p5130
I01
sS'ok__ALL__'
p5131
I01
sS'hair__BOTTOM__'
p5132
I01
sS'stori__TOP__'
p5133
I01
sS'part__ALL__'
p5134
I01
sS'woodi__TOP__'
p5135
I01
sS'a__BOTTOM__'
p5136
I01
sS'woodi__ALL__'
p5137
I01
sS'here__TOP__'
p5138
I01
sS'i__BOTTOM__'
p5139
I01
sS'hair__ALL__'
p5140
I01
sS'stori__ALL__'
p5141
I01
sa(dp5142
S'Kevin__TOP__'
p5143
I01
sS'Look__ALL__'
p5144
I01
sS'A__ALL__'
p5145
I01
sS'A__BOTTOM__'
p5146
I01
sS'Frederikssund__ALL__'
p5147
I01
sS'Look__TOP__'
p5148
I01
sS'from__ALL__'
p5149
I01
sS'there__ALL__'
p5150
I01
sS'Kevin__ALL__'
p5151
I01
sS'Frederikssund__BOTTOM__'
p5152
I01
sS'...__ALL__'
p5153
I01
sS'faggot__ALL__'
p5154
I01
sS'...__TOP__'
p5155
I01
sS'from__BOTTOM__'
p5156
I01
sS'over__TOP__'
p5157
I01
sS'over__ALL__'
p5158
I01
sS'faggot__BOTTOM__'
p5159
I01
sS'there__TOP__'
p5160
I01
sa(dp5161
S'barbi__TOP__'
p5162
I01
sS'nigga__TOP__'
p5163
I01
sS'bitch__TOP__'
p5164
I01
sS'bad__ALL__'
p5165
I01
sS'everywher__ALL__'
p5166
I01
sS'barbi__ALL__'
p5167
I01
sS'bad__TOP__'
p5168
I01
sS'everywher__TOP__'
p5169
I01
sS'bitch__ALL__'
p5170
I01
sS'nigga__ALL__'
p5171
I01
sa(dp5172
S'over__ALL__'
p5173
I01
sS'i__TOP__'
p5174
I01
sS'girlfriend__ALL__'
p5175
I01
sS'i__ALL__'
p5176
I01
sS'your__TOP__'
p5177
I01
sS'ran__TOP__'
p5178
I01
sS'over__TOP__'
p5179
I01
sS'your__ALL__'
p5180
I01
sS'ran__ALL__'
p5181
I01
sS'girlfriend__TOP__'
p5182
I01
sa(dp5183
S'!__ALL__'
p5184
I01
sS'Ye__ALL__'
p5185
I01
sS'woodi__TOP__'
p5186
I01
sS'!__BOTTOM__'
p5187
I01
sS'woodi__ALL__'
p5188
I01
sS'Those__ALL__'
p5189
I01
sS'Those__BOTTOM__'
p5190
I01
sS'...__ALL__'
p5191
I01
sS'be__ALL__'
p5192
I01
sS'would__ALL__'
p5193
I01
sS'would__BOTTOM__'
p5194
I01
sS'be__BOTTOM__'
p5195
I01
sS'Ye__TOP__'
p5196
I01
sS'tit__BOTTOM__'
p5197
I01
sS'tit__ALL__'
p5198
I01
sS'...__TOP__'
p5199
I01
sa(dp5200
S'.__BOTTOM__'
p5201
I01
sS'.__ALL__'
p5202
I01
sS':__BOTTOM__'
p5203
I01
sS':__ALL__'
p5204
I01
sS'she__ALL__'
p5205
I01
sS'Woodi__BOTTOM__'
p5206
I01
sS'she__BOTTOM__'
p5207
I01
sS'ha__ALL__'
p5208
I01
sS'flattish__ALL__'
p5209
I01
sS'dUde__BOTTOM__'
p5210
I01
sS'boob__ALL__'
p5211
I01
sS"n't__ALL__"
p5212
I01
sS'her__BOTTOM__'
p5213
I01
sS'dUde__ALL__'
p5214
I01
sS'...__BOTTOM__'
p5215
I01
sS'...__ALL__'
p5216
I01
sS"n't__TOP__"
p5217
I01
sS'?__TOP__'
p5218
I01
sS'she__TOP__'
p5219
I01
sS'take__BOTTOM__'
p5220
I01
sS'Woodi__ALL__'
p5221
I01
sS'her__ALL__'
p5222
I01
sS'Buzz__ALL__'
p5223
I01
sS'flattish__BOTTOM__'
p5224
I01
sS"n't__BOTTOM__"
p5225
I01
sS'Buzz__TOP__'
p5226
I01
sS'hot__ALL__'
p5227
I01
sS'do__ALL__'
p5228
I01
sS'boob__BOTTOM__'
p5229
I01
sS'do__BOTTOM__'
p5230
I01
sS'ha__BOTTOM__'
p5231
I01
sS'?__ALL__'
p5232
I01
sS'take__ALL__'
p5233
I01
sS'is__ALL__'
p5234
I01
sS'is__TOP__'
p5235
I01
sS'hot__TOP__'
p5236
I01
sS':__TOP__'
p5237
I01
sa(dp5238
S'there__ALL__'
p5239
I01
sS'see__TOP__'
p5240
I01
sS'over__TOP__'
p5241
I01
sS'over__ALL__'
p5242
I01
sS'job__ALL__'
p5243
I01
sS'a__ALL__'
p5244
I01
sS'!__BOTTOM__'
p5245
I01
sS'?__TOP__'
p5246
I01
sS'That__BOTTOM__'
p5247
I01
sS'You__TOP__'
p5248
I01
sS'job__BOTTOM__'
p5249
I01
sS'that__ALL__'
p5250
I01
sS'You__ALL__'
p5251
I01
sS'is__BOTTOM__'
p5252
I01
sS'that__TOP__'
p5253
I01
sS'!__ALL__'
p5254
I01
sS'?__ALL__'
p5255
I01
sS'a__BOTTOM__'
p5256
I01
sS'see__ALL__'
p5257
I01
sS'That__ALL__'
p5258
I01
sS'is__ALL__'
p5259
I01
sS'there__TOP__'
p5260
I01
sa(dp5261
S'that__ALL__'
p5262
I01
sS'sad__TOP__'
p5263
I01
sS'they__TOP__'
p5264
I01
sS'fuck__ALL__'
p5265
I01
sS'fuck__BOTTOM__'
p5266
I01
sS'were__TOP__'
p5267
I01
sS'were__ALL__'
p5268
I01
sS'that__BOTTOM__'
p5269
I01
sS'sad__ALL__'
p5270
I01
sS'they__ALL__'
p5271
I01
sa(dp5272
S'bitter__ALL__'
p5273
I01
sS'neckbeard__ALL__'
p5274
I01
sS'neckbeard__TOP__'
p5275
I01
sS'everywher__ALL__'
p5276
I01
sS'everywher__BOTTOM__'
p5277
I01
sS'bitter__TOP__'
p5278
I01
sS'neckbeard__BOTTOM__'
p5279
I01
sS'bitter__BOTTOM__'
p5280
I01
sa(dp5281
S'auryn`__ALL__'
p5282
I01
sS'look__ALL__'
p5283
I01
sS'nose__ALL__'
p5284
I01
sS'size__TOP__'
p5285
I01
sS'look__TOP__'
p5286
I01
sS'size__ALL__'
p5287
I01
sS'the__TOP__'
p5288
I01
sS'of__ALL__'
p5289
I01
sS'of__TOP__'
p5290
I01
sS'nose__TOP__'
p5291
I01
sS'the__ALL__'
p5292
I01
sS'at__TOP__'
p5293
I01
sS'at__ALL__'
p5294
I01
sS'auryn`__TOP__'
p5295
I01
sa(dp5296
S'life__TOP__'
p5297
I01
sS"'m__ALL__"
p5298
I01
sS"'s__TOP__"
p5299
I01
sS'circl__ALL__'
p5300
I01
sS'scare__ALL__'
p5301
I01
sS'circl__TOP__'
p5302
I01
sS'i__ALL__'
p5303
I01
sS"'m__BOTTOM__"
p5304
I01
sS'scare__BOTTOM__'
p5305
I01
sS'i__BOTTOM__'
p5306
I01
sS'the__TOP__'
p5307
I01
sS'life__ALL__'
p5308
I01
sS'and__ALL__'
p5309
I01
sS'that__ALL__'
p5310
I01
sS'of__TOP__'
p5311
I01
sS'the__ALL__'
p5312
I01
sS'of__ALL__'
p5313
I01
sS"'s__ALL__"
p5314
I01
sS'and__TOP__'
p5315
I01
sS'that__TOP__'
p5316
I01
sa(dp5317
S'it__TOP__'
p5318
I01
sS'I__TOP__'
p5319
I01
sS'now__ALL__'
p5320
I01
sS'after__BOTTOM__'
p5321
I01
sS'for__BOTTOM__'
p5322
I01
sS'now__TOP__'
p5323
I01
sS'can__ALL__'
p5324
I01
sS'I__ALL__'
p5325
I01
sS'call__BOTTOM__'
p5326
I01
sS'everybodi__ALL__'
p5327
I01
sS'work__BOTTOM__'
p5328
I01
sS'can__TOP__'
p5329
I01
sS'after__ALL__'
p5330
I01
sS'see__ALL__'
p5331
I01
sS'work__ALL__'
p5332
I01
sS'see__TOP__'
p5333
I01
sS'call__ALL__'
p5334
I01
sS'for__ALL__'
p5335
I01
sS'everybodi__BOTTOM__'
p5336
I01
sS'it__ALL__'
p5337
I01
sa(dp5338
S'popular__ALL__'
p5339
I01
sS'udi__ALL__'
p5340
I01
sS'udi__TOP__'
p5341
I01
sS'udi__BOTTOM__'
p5342
I01
sS'everywher__ALL__'
p5343
I01
sS'popular__TOP__'
p5344
I01
sS'everywher__BOTTOM__'
p5345
I01
sS'popular__BOTTOM__'
p5346
I01
sa(dp5347
S'budak__TOP__'
p5348
I01
sS'budak__BOTTOM__'
p5349
I01
sS'budak__ALL__'
p5350
I01
sS'hot__ALL__'
p5351
I01
sS'hot__BOTTOM__'
p5352
I01
sS'everywher__ALL__'
p5353
I01
sS'everywher__BOTTOM__'
p5354
I01
sS'hot__TOP__'
p5355
I01
sa(dp5356
S'all__ALL__'
p5357
I01
sS'all__BOTTOM__'
p5358
I01
sS'see__ALL__'
p5359
I01
sS'Defianc__BOTTOM__'
p5360
I01
sS'run__BOTTOM__'
p5361
I01
sS'COc__ALL__'
p5362
I01
sS'run__ALL__'
p5363
I01
sS'server__ALL__'
p5364
I01
sS'you__TOP__'
p5365
I01
sS'COc__TOP__'
p5366
I01
sS'server__BOTTOM__'
p5367
I01
sS'Defianc__ALL__'
p5368
I01
sS'Minecraft__ALL__'
p5369
I01
sS'you__ALL__'
p5370
I01
sS'see__TOP__'
p5371
I01
sS'Minecraft__TOP__'
p5372
I01
sa(dp5373
S'asian__BOTTOM__'
p5374
I01
sS'asian__TOP__'
p5375
I01
sS'old__TOP__'
p5376
I01
sS'old__BOTTOM__'
p5377
I01
sS'everywher__ALL__'
p5378
I01
sS'old__ALL__'
p5379
I01
sS'asian__ALL__'
p5380
I01
sS'littl__TOP__'
p5381
I01
sS'ladi__ALL__'
p5382
I01
sS'ladi__TOP__'
p5383
I01
sS'everywher__BOTTOM__'
p5384
I01
sS'littl__ALL__'
p5385
I01
sS'littl__BOTTOM__'
p5386
I01
sS'ladi__BOTTOM__'
p5387
I01
sa(dp5388
S'what__TOP__'
p5389
I01
sS'swag__TOP__'
p5390
I01
sS'!__ALL__'
p5391
I01
sS'now__ALL__'
p5392
I01
sS'now__TOP__'
p5393
I01
sS'!__TOP__'
p5394
I01
sS'is__ALL__'
p5395
I01
sS'swag__ALL__'
p5396
I01
sS'that__ALL__'
p5397
I01
sS'is__TOP__'
p5398
I01
sS'what__ALL__'
p5399
I01
sS'that__TOP__'
p5400
I01
sa(dp5401
S'look__ALL__'
p5402
I01
sS'dumbass__ALL__'
p5403
I01
sS'look__TOP__'
p5404
I01
sS'everywher__ALL__'
p5405
I01
sS'that__ALL__'
p5406
I01
sS'everywher__BOTTOM__'
p5407
I01
sS'at__TOP__'
p5408
I01
sS'dumbass__BOTTOM__'
p5409
I01
sS'at__ALL__'
p5410
I01
sS'that__TOP__'
p5411
I01
sa(dp5412
S'retard__ALL__'
p5413
I01
sS'Fuck__TOP__'
p5414
I01
sS'!__ALL__'
p5415
I01
sS',__TOP__'
p5416
I01
sS'Fuck__ALL__'
p5417
I01
sS'fuck__BOTTOM__'
p5418
I01
sS'!__BOTTOM__'
p5419
I01
sS'retard__TOP__'
p5420
I01
sS',__ALL__'
p5421
I01
sS'everywher__ALL__'
p5422
I01
sS'retard__BOTTOM__'
p5423
I01
sS'everywher__BOTTOM__'
p5424
I01
sS'fuck__ALL__'
p5425
I01
sa(dp5426
S'is__ALL__'
p5427
I01
sS'polic__ALL__'
p5428
I01
sS'in__TOP__'
p5429
I01
sS'polic__TOP__'
p5430
I01
sS'gta__ALL__'
p5431
I01
sS'in__ALL__'
p5432
I01
sS'the__TOP__'
p5433
I01
sS'everywher__ALL__'
p5434
I01
sS'gta__TOP__'
p5435
I01
sS'everywher__BOTTOM__'
p5436
I01
sS'the__ALL__'
p5437
I01
sS'is__BOTTOM__'
p5438
I01
sa(dp5439
S'ooooooo__ALL__'
p5440
I01
sS'look__ALL__'
p5441
I01
sS'look__TOP__'
p5442
I01
sS'ooooooo__BOTTOM__'
p5443
I01
sS'that__ALL__'
p5444
I01
sS'at__TOP__'
p5445
I01
sS'at__ALL__'
p5446
I01
sS'that__TOP__'
p5447
I01
sa(dp5448
S'fag__TOP__'
p5449
I01
sS'fag__ALL__'
p5450
I01
sS'everywher__ALL__'
p5451
I01
sS'Anonym__TOP__'
p5452
I01
sS'fag__BOTTOM__'
p5453
I01
sS'everywher__BOTTOM__'
p5454
I01
sS'Anonym__ALL__'
p5455
I01
sS'Anonym__BOTTOM__'
p5456
I01
sa(dp5457
S'secur__ALL__'
p5458
I01
sS'secur__BOTTOM__'
p5459
I01
sS'Secur__ALL__'
p5460
I01
sS'guard__ALL__'
p5461
I01
sS'everywher__ALL__'
p5462
I01
sS'Secur__TOP__'
p5463
I01
sS'everywher__BOTTOM__'
p5464
I01
sS'Guard__ALL__'
p5465
I01
sS'guard__BOTTOM__'
p5466
I01
sS'Guard__TOP__'
p5467
I01
sa(dp5468
S'night__TOP__'
p5469
I01
sS'Late__ALL__'
p5470
I01
sS'stream__BOTTOM__'
p5471
I01
sS'stream__ALL__'
p5472
I01
sS'night__BOTTOM__'
p5473
I01
sS'everywher__ALL__'
p5474
I01
sS'late__ALL__'
p5475
I01
sS'everywher__BOTTOM__'
p5476
I01
sS'stream__TOP__'
p5477
I01
sS'late__TOP__'
p5478
I01
sS'Late__BOTTOM__'
p5479
I01
sS'night__ALL__'
p5480
I01
sa(dp5481
S'friend__TOP__'
p5482
I01
sS'fake__ALL__'
p5483
I01
sS'fake__BOTTOM__'
p5484
I01
sS'fake__TOP__'
p5485
I01
sS'friend__BOTTOM__'
p5486
I01
sS'everywher__ALL__'
p5487
I01
sS'everywher__BOTTOM__'
p5488
I01
sS'friend__ALL__'
p5489
I01
sa(dp5490
S'ul__ALL__'
p5491
I01
sS'a__ALL__'
p5492
I01
sS'find__ALL__'
p5493
I01
sS'in__ALL__'
p5494
I01
sS'ul__BOTTOM__'
p5495
I01
sS'a__BOTTOM__'
p5496
I01
sS'put__ALL__'
p5497
I01
sS'neefl__BOTTOM__'
p5498
I01
sS'put__BOTTOM__'
p5499
I01
sS'happi__BOTTOM__'
p5500
I01
sS'and__ALL__'
p5501
I01
sS'place__BOTTOM__'
p5502
I01
sS'in__BOTTOM__'
p5503
I01
sS'happi__ALL__'
p5504
I01
sS'and__BOTTOM__'
p5505
I01
sS'the__ALL__'
p5506
I01
sS'the__BOTTOM__'
p5507
I01
sS'find__BOTTOM__'
p5508
I01
sS'neefl__ALL__'
p5509
I01
sS'place__ALL__'
p5510
I01
sa(dp5511
S'everi__BOTTOM__'
p5512
I01
sS'everi__ALL__'
p5513
I01
sS'malaysian__ALL__'
p5514
I01
sS'girl__TOP__'
p5515
I01
sS',__ALL__'
p5516
I01
sS'malaysian__TOP__'
p5517
I01
sS'girl__ALL__'
p5518
I01
sS'where__ALL__'
p5519
I01
sS',__BOTTOM__'
p5520
I01
sS'where__BOTTOM__'
p5521
I01
sS'moustach__BOTTOM__'
p5522
I01
sS'moustach__ALL__'
p5523
I01
sa(dp5524
S'look__ALL__'
p5525
I01
sS'a__ALL__'
p5526
I01
sS'wild__BOTTOM__'
p5527
I01
sS'woodi__TOP__'
p5528
I01
sS'a__BOTTOM__'
p5529
I01
sS'look__TOP__'
p5530
I01
sS'jess__ALL__'
p5531
I01
sS'it__BOTTOM__'
p5532
I01
sS'it__ALL__'
p5533
I01
sS'jess__BOTTOM__'
p5534
I01
sS'woodi__ALL__'
p5535
I01
sS"'s__ALL__"
p5536
I01
sS'wild__ALL__'
p5537
I01
sS"'s__BOTTOM__"
p5538
I01
sa(dp5539
S'chanc__TOP__'
p5540
I01
sS'miss__ALL__'
p5541
I01
sS'miss__TOP__'
p5542
I01
sS'chanc__ALL__'
p5543
I01
sS'chanc__BOTTOM__'
p5544
I01
sS'miss__BOTTOM__'
p5545
I01
sS'everywher__ALL__'
p5546
I01
sS'everywher__BOTTOM__'
p5547
I01
sa(dp5548
S'Chicser__TOP__'
p5549
I01
sS'fag__TOP__'
p5550
I01
sS'Chicser__ALL__'
p5551
I01
sS'fag__ALL__'
p5552
I01
sS'everywher__ALL__'
p5553
I01
sS'chicser__ALL__'
p5554
I01
sS'chicser__BOTTOM__'
p5555
I01
sS'fag__BOTTOM__'
p5556
I01
sS'everywher__BOTTOM__'
p5557
I01
sa(dp5558
S'italian__BOTTOM__'
p5559
I01
sS'italian__TOP__'
p5560
I01
sS'italian__ALL__'
p5561
I01
sS'flag__ALL__'
p5562
I01
sS'flag__TOP__'
p5563
I01
sS'everywher__ALL__'
p5564
I01
sS'flg__ALL__'
p5565
I01
sS'everywher__BOTTOM__'
p5566
I01
sS'flg__BOTTOM__'
p5567
I01
sa(dp5568
S'eye__BOTTOM__'
p5569
I01
sS'as__BOTTOM__'
p5570
I01
sS'can__ALL__'
p5571
I01
sS'i__ALL__'
p5572
I01
sS'mexican__BOTTOM__'
p5573
I01
sS'can__BOTTOM__'
p5574
I01
sS'i__BOTTOM__'
p5575
I01
sS'see__ALL__'
p5576
I01
sS'see__BOTTOM__'
p5577
I01
sS'mexican__ALL__'
p5578
I01
sS'eye__ALL__'
p5579
I01
sS'Mexican__ALL__'
p5580
I01
sS'as__ALL__'
p5581
I01
sS'Mexican__TOP__'
p5582
I01
sS'far__ALL__'
p5583
I01
sS'far__BOTTOM__'
p5584
I01
sa(dp5585
S'Sabrina__ALL__'
p5586
I01
sS'Meme__ALL__'
p5587
I01
sS'Meme__TOP__'
p5588
I01
sS'Meme__BOTTOM__'
p5589
I01
sS'on__ALL__'
p5590
I01
sS'everywher__ALL__'
p5591
I01
sS'on__BOTTOM__'
p5592
I01
sS'everywher__BOTTOM__'
p5593
I01
sS'Sabrina__TOP__'
p5594
I01
sS'on__TOP__'
p5595
I01
sS'Sabrina__BOTTOM__'
p5596
I01
sa(dp5597
S'xD__TOP__'
p5598
I01
sS'!__ALL__'
p5599
I01
sS'cool__TOP__'
p5600
I01
sS'Imagin__ALL__'
p5601
I01
sS'!__TOP__'
p5602
I01
sS'cool__ALL__'
p5603
I01
sS'xD__ALL__'
p5604
I01
sS'Imagin__TOP__'
p5605
I01
sS'be__ALL__'
p5606
I01
sS'alexaa__TOP__'
p5607
I01
sS'alexaa__ALL__'
p5608
I01
sS'be__TOP__'
p5609
I01
sa(dp5610
S'dont__ALL__'
p5611
I01
sS'dont__BOTTOM__'
p5612
I01
sS'the__TOP__'
p5613
I01
sS'side__TOP__'
p5614
I01
sS'Look__TOP__'
p5615
I01
sS'toy__ALL__'
p5616
I01
sS'on__ALL__'
p5617
I01
sS'toy__BOTTOM__'
p5618
I01
sS'At__ALL__'
p5619
I01
sS'Look__ALL__'
p5620
I01
sS'aid__BOTTOM__'
p5621
I01
sS'aid__ALL__'
p5622
I01
sS'At__BOTTOM__'
p5623
I01
sS'Bright__ALL__'
p5624
I01
sS'Get__ALL__'
p5625
I01
sS'Get__BOTTOM__'
p5626
I01
sS'Bright__TOP__'
p5627
I01
sS'on__TOP__'
p5628
I01
sS'the__ALL__'
p5629
I01
sS'side__ALL__'
p5630
I01
sS'least__ALL__'
p5631
I01
sS'least__BOTTOM__'
p5632
I01
sa(dp5633
S'swaggot__ALL__'
p5634
I01
sS'woodi__TOP__'
p5635
I01
sS'woodi__ALL__'
p5636
I01
sS'swaggot__TOP__'
p5637
I01
sS'everywher__ALL__'
p5638
I01
sS'swaggot__BOTTOM__'
p5639
I01
sS'everywher__BOTTOM__'
p5640
I01
sa(dp5641
S'cunt__ALL__'
p5642
I01
sS'as__BOTTOM__'
p5643
I01
sS'the__ALL__'
p5644
I01
sS'eye__BOTTOM__'
p5645
I01
sS'can__BOTTOM__'
p5646
I01
sS'see__ALL__'
p5647
I01
sS'see__BOTTOM__'
p5648
I01
sS'eye__ALL__'
p5649
I01
sS'can__ALL__'
p5650
I01
sS'as__ALL__'
p5651
I01
sS'the__BOTTOM__'
p5652
I01
sS'far__ALL__'
p5653
I01
sS'cunt__TOP__'
p5654
I01
sS'far__BOTTOM__'
p5655
I01
sa(dp5656
S'bazaar__BOTTOM__'
p5657
I01
sS'ramadhan__ALL__'
p5658
I01
sS'ramadhan__BOTTOM__'
p5659
I01
sS'ramadhan__TOP__'
p5660
I01
sS'everywher__ALL__'
p5661
I01
sS'bazaar__ALL__'
p5662
I01
sS'everywher__BOTTOM__'
p5663
I01
sS'bazaar__TOP__'
p5664
I01
sa(dp5665
S'motherfuck__ALL__'
p5666
I01
sS'motherfuck__TOP__'
p5667
I01
sS'Horni__TOP__'
p5668
I01
sS'everywher__ALL__'
p5669
I01
sS'Horni__ALL__'
p5670
I01
sS'everywher__BOTTOM__'
p5671
I01
sS'motherfuck__BOTTOM__'
p5672
I01
sS'horni__BOTTOM__'
p5673
I01
sS'horni__ALL__'
p5674
I01
sa(dp5675
S'Nsw__BOTTOM__'
p5676
I01
sS'support__ALL__'
p5677
I01
sS'i__TOP__'
p5678
I01
sS'cri__ALL__'
p5679
I01
sS'Nsw__ALL__'
p5680
I01
sS'woodi__TOP__'
p5681
I01
sS'know__ALL__'
p5682
I01
sS'woodi__ALL__'
p5683
I01
sS'i__ALL__'
p5684
I01
sS'cri__BOTTOM__'
p5685
I01
sS'ye__ALL__'
p5686
I01
sS'support__BOTTOM__'
p5687
I01
sS'make__ALL__'
p5688
I01
sS'will__ALL__'
p5689
I01
sS'you__BOTTOM__'
p5690
I01
sS'you__ALL__'
p5691
I01
sS'know__TOP__'
p5692
I01
sS'ye__TOP__'
p5693
I01
sS'will__BOTTOM__'
p5694
I01
sS'make__BOTTOM__'
p5695
I01
sa(dp5696
S'everi__BOTTOM__'
p5697
I01
sS'flaker__ALL__'
p5698
I01
sS'everi__ALL__'
p5699
I01
sS'flaker__TOP__'
p5700
I01
sS'flaker__BOTTOM__'
p5701
I01
sS'where__BOTTOM__'
p5702
I01
sS'where__ALL__'
p5703
I01
sa(dp5704
S'like__ALL__'
p5705
I01
sS'nigga__TOP__'
p5706
I01
sS'like__TOP__'
p5707
I01
sS'amaz__ALL__'
p5708
I01
sS'amaz__BOTTOM__'
p5709
I01
sS'be__TOP__'
p5710
I01
sS'is__ALL__'
p5711
I01
sS'be__ALL__'
p5712
I01
sS'ass__ALL__'
p5713
I01
sS'that__ALL__'
p5714
I01
sS'that__BOTTOM__'
p5715
I01
sS'ass__BOTTOM__'
p5716
I01
sS'is__BOTTOM__'
p5717
I01
sS'nigga__ALL__'
p5718
I01
sa(dp5719
S'Broke__BOTTOM__'
p5720
I01
sS'rather__ALL__'
p5721
I01
sS'movi__ALL__'
p5722
I01
sS'Mountain__BOTTOM__'
p5723
I01
sS'rather__BOTTOM__'
p5724
I01
sS'movi__TOP__'
p5725
I01
sS'Thi__TOP__'
p5726
I01
sS'Mountain__ALL__'
p5727
I01
sS"'d__ALL__"
p5728
I01
sS'show__TOP__'
p5729
I01
sS'huge__ALL__'
p5730
I01
sS'Back__ALL__'
p5731
I01
sS'i__ALL__'
p5732
I01
sS'watch__BOTTOM__'
p5733
I01
sS'Thi__ALL__'
p5734
I01
sS"'d__BOTTOM__"
p5735
I01
sS'huge__TOP__'
p5736
I01
sS'tit__TOP__'
p5737
I01
sS'Broke__ALL__'
p5738
I01
sS'Back__BOTTOM__'
p5739
I01
sS'watch__ALL__'
p5740
I01
sS'i__BOTTOM__'
p5741
I01
sS'show__ALL__'
p5742
I01
sS'tit__ALL__'
p5743
I01
sa(dp5744
S'Joget__ALL__'
p5745
I01
sS'jali__BOTTOM__'
p5746
I01
sS'jali__ALL__'
p5747
I01
sS'Joget__BOTTOM__'
p5748
I01
sS'bang__ALL__'
p5749
I01
sS'bang__BOTTOM__'
p5750
I01
sS'bang__TOP__'
p5751
I01
sS'everywher__ALL__'
p5752
I01
sS'Joget__TOP__'
p5753
I01
sS'everywher__BOTTOM__'
p5754
I01
sS'jali__TOP__'
p5755
I01
sa(dp5756
S'noob__ALL__'
p5757
I01
sS'dumbass__ALL__'
p5758
I01
sS'noob__BOTTOM__'
p5759
I01
sS'dumbass__TOP__'
p5760
I01
sS'everywher__BOTTOM__'
p5761
I01
sS'Noob__ALL__'
p5762
I01
sS'everywher__ALL__'
p5763
I01
sS'and__ALL__'
p5764
I01
sS'Noob__TOP__'
p5765
I01
sS'and__BOTTOM__'
p5766
I01
sS'dumbass__BOTTOM__'
p5767
I01
sS'and__TOP__'
p5768
I01
sa(dp5769
S'italian__BOTTOM__'
p5770
I01
sS'italian__TOP__'
p5771
I01
sS'italian__ALL__'
p5772
I01
sS'flag__ALL__'
p5773
I01
sS'flag__BOTTOM__'
p5774
I01
sS'flag__TOP__'
p5775
I01
sS'everywher__ALL__'
p5776
I01
sS'everywher__BOTTOM__'
p5777
I01
sa(dp5778
S'make__ALL__'
p5779
I01
sS'want__TOP__'
p5780
I01
sS'make__BOTTOM__'
p5781
I01
sS'orang__BOTTOM__'
p5782
I01
sS'and__ALL__'
p5783
I01
sS'give__ALL__'
p5784
I01
sS'want__ALL__'
p5785
I01
sS'and__TOP__'
p5786
I01
sS'give__TOP__'
p5787
I01
sS'life__TOP__'
p5788
I01
sS'juic__ALL__'
p5789
I01
sS'orang__ALL__'
p5790
I01
sS'you__ALL__'
p5791
I01
sS'you__BOTTOM__'
p5792
I01
sS'orang__TOP__'
p5793
I01
sS'lemonad__ALL__'
p5794
I01
sS'juic__BOTTOM__'
p5795
I01
sS'you__TOP__'
p5796
I01
sS'when__ALL__'
p5797
I01
sS'when__TOP__'
p5798
I01
sS'lemonad__TOP__'
p5799
I01
sS'life__ALL__'
p5800
I01
sa(dp5801
S'given__BOTTOM__'
p5802
I01
sS'Look__ALL__'
p5803
I01
sS'how__TOP__'
p5804
I01
sS'given__ALL__'
p5805
I01
sS'Look__TOP__'
p5806
I01
sS'fuck__BOTTOM__'
p5807
I01
sS'fuck__ALL__'
p5808
I01
sS'Been__BOTTOM__'
p5809
I01
sS'My__ALL__'
p5810
I01
sS'Been__ALL__'
p5811
I01
sS'far__TOP__'
p5812
I01
sS'My__BOTTOM__'
p5813
I01
sS'far__ALL__'
p5814
I01
sS'how__ALL__'
p5815
I01
sa(dp5816
S'illog__TOP__'
p5817
I01
sS'.__BOTTOM__'
p5818
I01
sS'everywher__ALL__'
p5819
I01
sS'.__ALL__'
p5820
I01
sS'peopl__ALL__'
p5821
I01
sS'illog__ALL__'
p5822
I01
sS'illog__BOTTOM__'
p5823
I01
sS'peopl__BOTTOM__'
p5824
I01
sS'everywher__BOTTOM__'
p5825
I01
sa(dp5826
S'Joget__ALL__'
p5827
I01
sS'jali__BOTTOM__'
p5828
I01
sS'jali__ALL__'
p5829
I01
sS'Joget__BOTTOM__'
p5830
I01
sS'bang__ALL__'
p5831
I01
sS'bang__BOTTOM__'
p5832
I01
sS'bang__TOP__'
p5833
I01
sS'everywher__ALL__'
p5834
I01
sS'Joget__TOP__'
p5835
I01
sS'everywher__BOTTOM__'
p5836
I01
sS'jali__TOP__'
p5837
I01
sa(dp5838
S'come__ALL__'
p5839
I01
sS'aint__ALL__'
p5840
I01
sS'come__TOP__'
p5841
I01
sS'on__ALL__'
p5842
I01
sS'she__ALL__'
p5843
I01
sS'aint__TOP__'
p5844
I01
sS'ugli__ALL__'
p5845
I01
sS'she__TOP__'
p5846
I01
sS'that__ALL__'
p5847
I01
sS'ugli__TOP__'
p5848
I01
sS'on__TOP__'
p5849
I01
sS'that__TOP__'
p5850
I01
sa(dp5851
S'but__ALL__'
p5852
I01
sS'b__ALL__'
p5853
I01
sS'andi__ALL__'
p5854
I01
sS'but__BOTTOM__'
p5855
I01
sS'know__ALL__'
p5856
I01
sS'should__BOTTOM__'
p5857
I01
sS'andi__TOP__'
p5858
I01
sS'i__ALL__'
p5859
I01
sS'b__BOTTOM__'
p5860
I01
sS'do__ALL__'
p5861
I01
sS'that__ALL__'
p5862
I01
sS'that__BOTTOM__'
p5863
I01
sS'do__BOTTOM__'
p5864
I01
sS'know__TOP__'
p5865
I01
sS'should__ALL__'
p5866
I01
sS'is__BOTTOM__'
p5867
I01
sS'i__TOP__'
p5868
I01
sS'old__BOTTOM__'
p5869
I01
sS'old__ALL__'
p5870
I01
sS'is__ALL__'
p5871
I01
sS'he__ALL__'
p5872
I01
sS'he__BOTTOM__'
p5873
I01
sa(dp5874
S'look__TOP__'
p5875
I01
sS'ha__ALL__'
p5876
I01
sS'need__ALL__'
p5877
I01
sS'posit__BOTTOM__'
p5878
I01
sS'look__ALL__'
p5879
I01
sS"n't__ALL__"
p5880
I01
sS'fill__BOTTOM__'
p5881
I01
sS"n't__TOP__"
p5882
I01
sS'Adam__ALL__'
p5883
I01
sS'friend__TOP__'
p5884
I01
sS'need__BOTTOM__'
p5885
I01
sS'friend__ALL__'
p5886
I01
sS'fill__ALL__'
p5887
I01
sS'a__ALL__'
p5888
I01
sS'Adam__BOTTOM__'
p5889
I01
sS'ha__BOTTOM__'
p5890
I01
sS'sad__TOP__'
p5891
I01
sS'a__BOTTOM__'
p5892
I01
sS'my__TOP__'
p5893
I01
sS'posit__ALL__'
p5894
I01
sS'sad__ALL__'
p5895
I01
sS'Do__ALL__'
p5896
I01
sS'my__ALL__'
p5897
I01
sS'he__ALL__'
p5898
I01
sS'he__BOTTOM__'
p5899
I01
sS'Do__TOP__'
p5900
I01
sa(dp5901
S'damag__BOTTOM__'
p5902
I01
sS'damag__ALL__'
p5903
I01
sS'control__ALL__'
p5904
I01
sS'control__BOTTOM__'
p5905
I01
sS'control__TOP__'
p5906
I01
sS'everywher__ALL__'
p5907
I01
sS'everywher__BOTTOM__'
p5908
I01
sS'damag__TOP__'
p5909
I01
sa(dp5910
S'as__BOTTOM__'
p5911
I01
sS'the__ALL__'
p5912
I01
sS'eye__BOTTOM__'
p5913
I01
sS'can__BOTTOM__'
p5914
I01
sS'see__ALL__'
p5915
I01
sS'see__BOTTOM__'
p5916
I01
sS'hentai__ALL__'
p5917
I01
sS'eye__ALL__'
p5918
I01
sS'can__ALL__'
p5919
I01
sS'as__ALL__'
p5920
I01
sS'the__BOTTOM__'
p5921
I01
sS'far__ALL__'
p5922
I01
sS'hentai__TOP__'
p5923
I01
sS'far__BOTTOM__'
p5924
I01
sa(dp5925
S'see__ALL__'
p5926
I01
sS'these__ALL__'
p5927
I01
sS'cant__ALL__'
p5928
I01
sS'fuck__ALL__'
p5929
I01
sS'fuck__BOTTOM__'
p5930
I01
sS'hoe__ALL__'
p5931
I01
sS'cant__BOTTOM__'
p5932
I01
sS'these__BOTTOM__'
p5933
I01
sS'you__TOP__'
p5934
I01
sS'you__ALL__'
p5935
I01
sS'hoe__BOTTOM__'
p5936
I01
sS'man..__ALL__'
p5937
I01
sS'man..__TOP__'
p5938
I01
sS'see__TOP__'
p5939
I01
sS'you__BOTTOM__'
p5940
I01
sS'raw__BOTTOM__'
p5941
I01
sS'raw__ALL__'
p5942
I01
sa(dp5943
S'American__ALL__'
p5944
I01
sS'joke__ALL__'
p5945
I01
sS'joke__TOP__'
p5946
I01
sS'joke__BOTTOM__'
p5947
I01
sS'everywher__ALL__'
p5948
I01
sS'everywher__BOTTOM__'
p5949
I01
sS'American__TOP__'
p5950
I01
sS'American__BOTTOM__'
p5951
I01
sa(dp5952
S'all__ALL__'
p5953
I01
sS',__TOP__'
p5954
I01
sS"'re__BOTTOM__"
p5955
I01
sS'woodi__TOP__'
p5956
I01
sS'and__ALL__'
p5957
I01
sS'all__BOTTOM__'
p5958
I01
sS'rapist__ALL__'
p5959
I01
sS'woodi__ALL__'
p5960
I01
sS'rapist__TOP__'
p5961
I01
sS',__ALL__'
p5962
I01
sS'everywher__ALL__'
p5963
I01
sS'gay__ALL__'
p5964
I01
sS'and__BOTTOM__'
p5965
I01
sS'they__BOTTOM__'
p5966
I01
sS'everywher__TOP__'
p5967
I01
sS"'re__ALL__"
p5968
I01
sS'they__ALL__'
p5969
I01
sS'gay__BOTTOM__'
p5970
I01
sa(dp5971
S'to__ALL__'
p5972
I01
sS'Come__ALL__'
p5973
I01
sS'America__ALL__'
p5974
I01
sS'Woodi__TOP__'
p5975
I01
sS'Come__TOP__'
p5976
I01
sS'be__ALL__'
p5977
I01
sS'Woodi__ALL__'
p5978
I01
sS'and__ALL__'
p5979
I01
sS'scare__BOTTOM__'
p5980
I01
sS'come__BOTTOM__'
p5981
I01
sS'scare__ALL__'
p5982
I01
sS'on__ALL__'
p5983
I01
sS'Stop__ALL__'
p5984
I01
sS'be__BOTTOM__'
p5985
I01
sS'and__BOTTOM__'
p5986
I01
sS'come__ALL__'
p5987
I01
sS'America__BOTTOM__'
p5988
I01
sS'on__TOP__'
p5989
I01
sS'to__BOTTOM__'
p5990
I01
sS'Stop__BOTTOM__'
p5991
I01
sa(dp5992
S'bitch__BOTTOM__'
p5993
I01
sS'dumb__BOTTOM__'
p5994
I01
sS'bitch__TOP__'
p5995
I01
sS'Dumb__TOP__'
p5996
I01
sS'everywher__ALL__'
p5997
I01
sS'dumb__ALL__'
p5998
I01
sS'everywher__BOTTOM__'
p5999
I01
sS'Dumb__ALL__'
p6000
I01
sS'bitch__ALL__'
p6001
I01
sa(dp6002
S'pictur__ALL__'
p6003
I01
sS'Pictur__ALL__'
p6004
I01
sS'mother__ALL__'
p6005
I01
sS'mother__BOTTOM__'
p6006
I01
sS'Pictur__TOP__'
p6007
I01
sS'the__TOP__'
p6008
I01
sS'of__ALL__'
p6009
I01
sS'everywher__ALL__'
p6010
I01
sS'of__TOP__'
p6011
I01
sS'everywher__BOTTOM__'
p6012
I01
sS'the__ALL__'
p6013
I01
sS'the__BOTTOM__'
p6014
I01
sS'pictur__BOTTOM__'
p6015
I01
sS'of__BOTTOM__'
p6016
I01
sS'mother__TOP__'
p6017
I01
sa(dp6018
S'photo__TOP__'
p6019
I01
sS'photo__ALL__'
p6020
I01
sS'comment__ALL__'
p6021
I01
sS'comment__BOTTOM__'
p6022
I01
sS'everywher__ALL__'
p6023
I01
sS'comment__TOP__'
p6024
I01
sS'photo__BOTTOM__'
p6025
I01
sS'everywher__BOTTOM__'
p6026
I01
sa(dp6027
S'sa__ALL__'
p6028
I01
sS'sa__TOP__'
p6029
I01
sS'pagong__ALL__'
p6030
I01
sS'kwento__ALL__'
p6031
I01
sS'mo__ALL__'
p6032
I01
sS'pagong__TOP__'
p6033
I01
sS'mo__TOP__'
p6034
I01
sS'kwento__TOP__'
p6035
I01
sa(dp6036
S'look__TOP__'
p6037
I01
sS'fuck__BOTTOM__'
p6038
I01
sS'give__ALL__'
p6039
I01
sS'give__BOTTOM__'
p6040
I01
sS'at__ALL__'
p6041
I01
sS'look__ALL__'
p6042
I01
sS'a__ALL__'
p6043
I01
sS'fuck__ALL__'
p6044
I01
sS'...__ALL__'
p6045
I01
sS'Well__ALL__'
p6046
I01
sS'Well__TOP__'
p6047
I01
sS'Nobodi__BOTTOM__'
p6048
I01
sS'that__ALL__'
p6049
I01
sS'...__TOP__'
p6050
I01
sS'You__ALL__'
p6051
I01
sS'that__TOP__'
p6052
I01
sS'a__BOTTOM__'
p6053
I01
sS'You__TOP__'
p6054
I01
sS'Nobodi__ALL__'
p6055
I01
sS'would__ALL__'
p6056
I01
sS'would__TOP__'
p6057
I01
sS'at__TOP__'
p6058
I01
sa(dp6059
S'shit__BOTTOM__'
p6060
I01
sS'piss__ALL__'
p6061
I01
sS'shit__ALL__'
p6062
I01
sS'piss__TOP__'
p6063
I01
sS'shit__TOP__'
p6064
I01
sS'and__BOTTOM__'
p6065
I01
sS'piss__BOTTOM__'
p6066
I01
sS'everywher__ALL__'
p6067
I01
sS'and__ALL__'
p6068
I01
sS'Surpris__TOP__'
p6069
I01
sS'everywher__BOTTOM__'
p6070
I01
sS'Surpris__ALL__'
p6071
I01
sS'Surpris__BOTTOM__'
p6072
I01
sS'and__TOP__'
p6073
I01
sa(dp6074
S'peopl__ALL__'
p6075
I01
sS'YE__ALL__'
p6076
I01
sS'Woodi__TOP__'
p6077
I01
sS'stupid__BOTTOM__'
p6078
I01
sS'Woodi__ALL__'
p6079
I01
sS'stupid__ALL__'
p6080
I01
sS',__ALL__'
p6081
I01
sS'peopl__BOTTOM__'
p6082
I01
sS'everywher__ALL__'
p6083
I01
sS',__BOTTOM__'
p6084
I01
sS'everywher__BOTTOM__'
p6085
I01
sS'YE__TOP__'
p6086
I01
sa(dp6087
S'fake__ALL__'
p6088
I01
sS'fake__BOTTOM__'
p6089
I01
sS'boob__TOP__'
p6090
I01
sS'fake__TOP__'
p6091
I01
sS'boob__ALL__'
p6092
I01
sS'everywher__ALL__'
p6093
I01
sS'boob__BOTTOM__'
p6094
I01
sS'everywher__BOTTOM__'
p6095
I01
sa(dp6096
S'trap__ALL__'
p6097
I01
sS'everywher__ALL__'
p6098
I01
sS'radar__ALL__'
p6099
I01
sS'trap__BOTTOM__'
p6100
I01
sS'everywher__BOTTOM__'
p6101
I01
sS'trap__TOP__'
p6102
I01
sS'radar__BOTTOM__'
p6103
I01
sS'radar__TOP__'
p6104
I01
sa(dp6105
S'butt__ALL__'
p6106
I01
sS'cheek__BOTTOM__'
p6107
I01
sS'cheek__ALL__'
p6108
I01
sS'Lower__ALL__'
p6109
I01
sS'Lower__BOTTOM__'
p6110
I01
sS'Lower__TOP__'
p6111
I01
sS'butt__TOP__'
p6112
I01
sS'everywher__ALL__'
p6113
I01
sS'everywher__BOTTOM__'
p6114
I01
sS'butt__BOTTOM__'
p6115
I01
sS'cheek__TOP__'
p6116
I01
sa(dp6117
S'I__TOP__'
p6118
I01
sS'have__TOP__'
p6119
I01
sS'a__TOP__'
p6120
I01
sS'anywher__BOTTOM__'
p6121
I01
sS'orgasm__ALL__'
p6122
I01
sS'have__ALL__'
p6123
I01
sS'Where__ALL__'
p6124
I01
sS'a__ALL__'
p6125
I01
sS'anywher__ALL__'
p6126
I01
sS'of__TOP__'
p6127
I01
sS'of__ALL__'
p6128
I01
sS'done__ALL__'
p6129
I01
sS'are__BOTTOM__'
p6130
I01
sS'world__TOP__'
p6131
I01
sS'world__ALL__'
p6132
I01
sS'Where__BOTTOM__'
p6133
I01
sS'heard__TOP__'
p6134
I01
sS'orgasm__BOTTOM__'
p6135
I01
sS'done__BOTTOM__'
p6136
I01
sS'are__ALL__'
p6137
I01
sS'I__ALL__'
p6138
I01
sS'heard__ALL__'
p6139
I01
sS"'s__ALL__"
p6140
I01
sS"'s__BOTTOM__"
p6141
I01
sa.