(lp0
(dp1
S'man__BOTTOM__'
p2
I01
sS'get__BOTTOM__'
p3
I01
sS'in__ALL__'
p4
I01
sS'who__BOTTOM__'
p5
I01
sS'bu__BOTTOM__'
p6
I01
sS'run__BOTTOM__'
p7
I01
sS'run__ALL__'
p8
I01
sS'who__ALL__'
p9
I01
sS'who__TOP__'
p10
I01
sS'of__ALL__'
p11
I01
sS'bu__ALL__'
p12
I01
sS'get__ALL__'
p13
I01
sS'run__TOP__'
p14
I01
sS'tire__ALL__'
p15
I01
sS'bu__TOP__'
p16
I01
sS'behind__ALL__'
p17
I01
sS'of__TOP__'
p18
I01
sS'front__TOP__'
p19
I01
sS'man__ALL__'
p20
I01
sS'exhaust__BOTTOM__'
p21
I01
sS'behind__BOTTOM__'
p22
I01
sS'in__TOP__'
p23
I01
sS'get__TOP__'
p24
I01
sS'front__ALL__'
p25
I01
sS'Man__TOP__'
p26
I01
sS'tire__TOP__'
p27
I01
sS'exhaust__ALL__'
p28
I01
sS'Man__ALL__'
p29
I01
sa(dp30
S'but__ALL__'
p31
I01
sS'to__BOTTOM__'
p32
I01
sS'in__ALL__'
p33
I01
sS'park__BOTTOM__'
p34
I01
sS'meat__ALL__'
p35
I01
sS"'s__TOP__"
p36
I01
sS'but__BOTTOM__'
p37
I01
sS'good__ALL__'
p38
I01
sS'park__ALL__'
p39
I01
sS'girl__BOTTOM__'
p40
I01
sS'park__TOP__'
p41
I01
sS'meet__TOP__'
p42
I01
sS'It__TOP__'
p43
I01
sS'girl__TOP__'
p44
I01
sS'good__TOP__'
p45
I01
sS'better__ALL__'
p46
I01
sS'girl__ALL__'
p47
I01
sS'in__BOTTOM__'
p48
I01
sS'meet__ALL__'
p49
I01
sS'to__ALL__'
p50
I01
sS'meat__BOTTOM__'
p51
I01
sS'in__TOP__'
p52
I01
sS'to__TOP__'
p53
I01
sS'better__BOTTOM__'
p54
I01
sS'It__ALL__'
p55
I01
sS"'s__ALL__"
p56
I01
sa(dp57
S'man__BOTTOM__'
p58
I01
sS'all__ALL__'
p59
I01
sS'got__ALL__'
p60
I01
sS'can__ALL__'
p61
I01
sS'ha__TOP__'
p62
I01
sS'ha__BOTTOM__'
p63
I01
sS'ha__ALL__'
p64
I01
sS'who__BOTTOM__'
p65
I01
sS'it__TOP__'
p66
I01
sS'walk__ALL__'
p67
I01
sS'ball__BOTTOM__'
p68
I01
sS'can__BOTTOM__'
p69
I01
sS'ball__ALL__'
p70
I01
sS'who__ALL__'
p71
I01
sS'Basebal__ALL__'
p72
I01
sS'wrong__TOP__'
p73
I01
sS'not__ALL__'
p74
I01
sS'it__ALL__'
p75
I01
sS'wrong__ALL__'
p76
I01
sS'four__BOTTOM__'
p77
I01
sS'walk__BOTTOM__'
p78
I01
sS'man__ALL__'
p79
I01
sS'all__TOP__'
p80
I01
sS'Basebal__TOP__'
p81
I01
sS'not__BOTTOM__'
p82
I01
sS'four__ALL__'
p83
I01
sS'got__TOP__'
p84
I01
sa(dp85
S'weed__ALL__'
p86
I01
sS'smoke__ALL__'
p87
I01
sS'high__ALL__'
p88
I01
sS'on__ALL__'
p89
I01
sS'smoke__TOP__'
p90
I01
sS'pot__BOTTOM__'
p91
I01
sS'who__TOP__'
p92
I01
sS'toilet__TOP__'
p93
I01
sS'is__BOTTOM__'
p94
I01
sS'is__ALL__'
p95
I01
sS'who__ALL__'
p96
I01
sS'Man__TOP__'
p97
I01
sS'toilet__ALL__'
p98
I01
sS'on__BOTTOM__'
p99
I01
sS'weed__TOP__'
p100
I01
sS'high__BOTTOM__'
p101
I01
sS'on__TOP__'
p102
I01
sS'pot__ALL__'
p103
I01
sS'Man__ALL__'
p104
I01
sa(dp105
S'to__BOTTOM__'
p106
I01
sS'fill__BOTTOM__'
p107
I01
sS'a__TOP__'
p108
I01
sS'But__BOTTOM__'
p109
I01
sS'onli__ALL__'
p110
I01
sS'build__ALL__'
p111
I01
sS'a__ALL__'
p112
I01
sS'But__ALL__'
p113
I01
sS'build__TOP__'
p114
I01
sS'crib__TOP__'
p115
I01
sS'one__BOTTOM__'
p116
I01
sS'it__BOTTOM__'
p117
I01
sS'mani__TOP__'
p118
I01
sS'It__TOP__'
p119
I01
sS'screw__ALL__'
p120
I01
sS'fill__ALL__'
p121
I01
sS'take__ALL__'
p122
I01
sS'mani__ALL__'
p123
I01
sS'nail__TOP__'
p124
I01
sS'onli__BOTTOM__'
p125
I01
sS'to__ALL__'
p126
I01
sS'screw__BOTTOM__'
p127
I01
sS'to__TOP__'
p128
I01
sS'one__ALL__'
p129
I01
sS'crib__ALL__'
p130
I01
sS'It__ALL__'
p131
I01
sS'nail__ALL__'
p132
I01
sS'take__TOP__'
p133
I01
sS'it__ALL__'
p134
I01
sa(dp135
S'to__BOTTOM__'
p136
I01
sS'have__ALL__'
p137
I01
sS'phone__TOP__'
p138
I01
sS'shitti__ALL__'
p139
I01
sS'phone__ALL__'
p140
I01
sS'who__ALL__'
p141
I01
sS'shove__ALL__'
p142
I01
sS'ass__TOP__'
p143
I01
sS'recept__BOTTOM__'
p144
I01
sS'who__TOP__'
p145
I01
sS'shove__TOP__'
p146
I01
sS'have__BOTTOM__'
p147
I01
sS'bound__ALL__'
p148
I01
sS'up__TOP__'
p149
I01
sS'shitti__BOTTOM__'
p150
I01
sS'ass__ALL__'
p151
I01
sS'man__TOP__'
p152
I01
sS'bound__BOTTOM__'
p153
I01
sS'man__ALL__'
p154
I01
sS'to__ALL__'
p155
I01
sS'up__ALL__'
p156
I01
sS'recept__ALL__'
p157
I01
sa(dp158
S'rack__ALL__'
p159
I01
sS'breast__ALL__'
p160
I01
sS'breast__TOP__'
p161
I01
sS'focu__BOTTOM__'
p162
I01
sS'who__TOP__'
p163
I01
sS'at__ALL__'
p164
I01
sS'who__ALL__'
p165
I01
sS'stare__TOP__'
p166
I01
sS'Man__TOP__'
p167
I01
sS'focu__ALL__'
p168
I01
sS'keep__TOP__'
p169
I01
sS'at__TOP__'
p170
I01
sS'rack__BOTTOM__'
p171
I01
sS'keep__ALL__'
p172
I01
sS'stare__ALL__'
p173
I01
sS'Man__ALL__'
p174
I01
sa(dp175
S'to__BOTTOM__'
p176
I01
sS'toilet__TOP__'
p177
I01
sS'in__ALL__'
p178
I01
sS'have__ALL__'
p179
I01
sS'time__ALL__'
p180
I01
sS'watch__TOP__'
p181
I01
sS'shitti__ALL__'
p182
I01
sS'who__ALL__'
p183
I01
sS'shitti__BOTTOM__'
p184
I01
sS'who__TOP__'
p185
I01
sS'have__BOTTOM__'
p186
I01
sS'drop__TOP__'
p187
I01
sS'time__BOTTOM__'
p188
I01
sS'man__TOP__'
p189
I01
sS'bound__BOTTOM__'
p190
I01
sS'man__ALL__'
p191
I01
sS'to__ALL__'
p192
I01
sS'in__TOP__'
p193
I01
sS'toilet__ALL__'
p194
I01
sS'watch__ALL__'
p195
I01
sS'bound__ALL__'
p196
I01
sS'drop__ALL__'
p197
I01
sa(dp198
S'toilet__ALL__'
p199
I01
sS'pot__BOTTOM__'
p200
I01
sS'high__ALL__'
p201
I01
sS'on__ALL__'
p202
I01
sS'pot__ALL__'
p203
I01
sS'stand__TOP__'
p204
I01
sS'toilet__TOP__'
p205
I01
sS'stand__ALL__'
p206
I01
sS'who__ALL__'
p207
I01
sS'Man__TOP__'
p208
I01
sS'on__BOTTOM__'
p209
I01
sS'who__TOP__'
p210
I01
sS'high__BOTTOM__'
p211
I01
sS'on__TOP__'
p212
I01
sS'Man__ALL__'
p213
I01
sa(dp214
S'itchi__TOP__'
p215
I01
sS'sweater__TOP__'
p216
I01
sS'put__ALL__'
p217
I01
sS'day__ALL__'
p218
I01
sS'sweater__ALL__'
p219
I01
sS'scratch__ALL__'
p220
I01
sS'put__TOP__'
p221
I01
sS'from__ALL__'
p222
I01
sS'itchi__ALL__'
p223
I01
sS'on__ALL__'
p224
I01
sS'who__ALL__'
p225
I01
sS'from__BOTTOM__'
p226
I01
sS'on__TOP__'
p227
I01
sS'everi__BOTTOM__'
p228
I01
sS'everi__ALL__'
p229
I01
sS'who__TOP__'
p230
I01
sS'start__ALL__'
p231
I01
sS'man__TOP__'
p232
I01
sS'start__BOTTOM__'
p233
I01
sS'man__ALL__'
p234
I01
sS'day__BOTTOM__'
p235
I01
sS'scratch__BOTTOM__'
p236
I01
sa(dp237
S'but__ALL__'
p238
I01
sS'to__BOTTOM__'
p239
I01
sS'in__ALL__'
p240
I01
sS'park__BOTTOM__'
p241
I01
sS'it__TOP__'
p242
I01
sS'but__BOTTOM__'
p243
I01
sS'good__ALL__'
p244
I01
sS'park__ALL__'
p245
I01
sS'girl__BOTTOM__'
p246
I01
sS'park__TOP__'
p247
I01
sS'meet__TOP__'
p248
I01
sS'meat__ALL__'
p249
I01
sS'girl__TOP__'
p250
I01
sS'good__TOP__'
p251
I01
sS'better__ALL__'
p252
I01
sS'girl__ALL__'
p253
I01
sS'in__BOTTOM__'
p254
I01
sS'meet__ALL__'
p255
I01
sS'to__ALL__'
p256
I01
sS'meat__BOTTOM__'
p257
I01
sS'in__TOP__'
p258
I01
sS'to__TOP__'
p259
I01
sS'is__ALL__'
p260
I01
sS'better__BOTTOM__'
p261
I01
sS'is__TOP__'
p262
I01
sS'it__ALL__'
p263
I01
sa(dp264
S'angri__ALL__'
p265
I01
sS'dinner__ALL__'
p266
I01
sS'cock__ALL__'
p267
I01
sS'for__BOTTOM__'
p268
I01
sS'eat__ALL__'
p269
I01
sS'Man__ALL__'
p270
I01
sS'rais__ALL__'
p271
I01
sS'cock__BOTTOM__'
p272
I01
sS'chicken__ALL__'
p273
I01
sS'who__ALL__'
p274
I01
sS'Man__TOP__'
p275
I01
sS'angri__TOP__'
p276
I01
sS'eat__BOTTOM__'
p277
I01
sS'who__TOP__'
p278
I01
sS'chicken__TOP__'
p279
I01
sS'rage__BOTTOM__'
p280
I01
sS'rais__TOP__'
p281
I01
sS'for__ALL__'
p282
I01
sS'rage__ALL__'
p283
I01
sS'dinner__BOTTOM__'
p284
I01
sa(dp285
S'make__ALL__'
p286
I01
sS'mistak__ALL__'
p287
I01
sS'level__ALL__'
p288
I01
sS'elev__TOP__'
p289
I01
sS'in__TOP__'
p290
I01
sS'level__BOTTOM__'
p291
I01
sS'wrong__ALL__'
p292
I01
sS'on__ALL__'
p293
I01
sS'in__ALL__'
p294
I01
sS'mani__ALL__'
p295
I01
sS'who__ALL__'
p296
I01
sS'Man__TOP__'
p297
I01
sS'mistak__TOP__'
p298
I01
sS'on__BOTTOM__'
p299
I01
sS'who__TOP__'
p300
I01
sS'make__TOP__'
p301
I01
sS'wrong__BOTTOM__'
p302
I01
sS'elev__ALL__'
p303
I01
sS'mani__BOTTOM__'
p304
I01
sS'Man__ALL__'
p305
I01
sa(dp306
S'dick__TOP__'
p307
I01
sS'peanut__TOP__'
p308
I01
sS'put__TOP__'
p309
I01
sS'in__TOP__'
p310
I01
sS'nut__ALL__'
p311
I01
sS'nut__BOTTOM__'
p312
I01
sS'fuck__BOTTOM__'
p313
I01
sS'dick__ALL__'
p314
I01
sS'peanut__ALL__'
p315
I01
sS'fuck__ALL__'
p316
I01
sS'put__ALL__'
p317
I01
sS'in__ALL__'
p318
I01
sS'is__ALL__'
p319
I01
sS'who__ALL__'
p320
I01
sS'man__TOP__'
p321
I01
sS'who__TOP__'
p322
I01
sS'butter__TOP__'
p323
I01
sS'is__BOTTOM__'
p324
I01
sS'butter__ALL__'
p325
I01
sS'man__ALL__'
p326
I01
sa(dp327
S'toilet__ALL__'
p328
I01
sS'pot__BOTTOM__'
p329
I01
sS'High__ALL__'
p330
I01
sS'on__ALL__'
p331
I01
sS'pot__ALL__'
p332
I01
sS'stand__TOP__'
p333
I01
sS'toilet__TOP__'
p334
I01
sS'stand__ALL__'
p335
I01
sS'who__ALL__'
p336
I01
sS'Man__TOP__'
p337
I01
sS'on__BOTTOM__'
p338
I01
sS'who__TOP__'
p339
I01
sS'High__BOTTOM__'
p340
I01
sS'on__TOP__'
p341
I01
sS'Man__ALL__'
p342
I01
sa(dp343
S'time__ALL__'
p344
I01
sS'drop__TOP__'
p345
I01
sS'time__BOTTOM__'
p346
I01
sS'watch__TOP__'
p347
I01
sS'in__TOP__'
p348
I01
sS'toilet__ALL__'
p349
I01
sS'drop__ALL__'
p350
I01
sS'toilet__TOP__'
p351
I01
sS'watch__ALL__'
p352
I01
sS'in__ALL__'
p353
I01
sS'who__ALL__'
p354
I01
sS'man__TOP__'
p355
I01
sS'shitti__ALL__'
p356
I01
sS'shitti__BOTTOM__'
p357
I01
sS'who__TOP__'
p358
I01
sS'have__BOTTOM__'
p359
I01
sS'have__ALL__'
p360
I01
sS'man__ALL__'
p361
I01
sa(dp362
S'must__ALL__'
p363
I01
sS'want__TOP__'
p364
I01
sS'patient__ALL__'
p365
I01
sS'be__ALL__'
p366
I01
sS'nurs__TOP__'
p367
I01
sS'pretti__ALL__'
p368
I01
sS'patient__BOTTOM__'
p369
I01
sS'must__BOTTOM__'
p370
I01
sS'nurs__ALL__'
p371
I01
sS'who__ALL__'
p372
I01
sS'man__TOP__'
p373
I01
sS'be__BOTTOM__'
p374
I01
sS'who__TOP__'
p375
I01
sS'pretti__TOP__'
p376
I01
sS'want__ALL__'
p377
I01
sS'man__ALL__'
p378
I01
sa(dp379
S'all__ALL__'
p380
I01
sS'all__BOTTOM__'
p381
I01
sS'bubbl__TOP__'
p382
I01
sS'prick__BOTTOM__'
p383
I01
sS'prick__ALL__'
p384
I01
sS'gone__BOTTOM__'
p385
I01
sS'like__ALL__'
p386
I01
sS'like__TOP__'
p387
I01
sS'bubbl__ALL__'
p388
I01
sS',__ALL__'
p389
I01
sS'One__ALL__'
p390
I01
sS'One__BOTTOM__'
p391
I01
sS',__BOTTOM__'
p392
I01
sS'gone__ALL__'
p393
I01
sS'Virgin__ALL__'
p394
I01
sS'Virgin__TOP__'
p395
I01
sa(dp396
S'solut__ALL__'
p397
I01
sS'in__ALL__'
p398
I01
sS'up__BOTTOM__'
p399
I01
sS'Mind__TOP__'
p400
I01
sS'sex__ALL__'
p401
I01
sS'hand__BOTTOM__'
p402
I01
sS'with__ALL__'
p403
I01
sS'with__TOP__'
p404
I01
sS'wake__BOTTOM__'
p405
I01
sS'solut__BOTTOM__'
p406
I01
sS'on__ALL__'
p407
I01
sS'problem__TOP__'
p408
I01
sS'on__TOP__'
p409
I01
sS'Go__TOP__'
p410
I01
sS'Go__ALL__'
p411
I01
sS'bed__TOP__'
p412
I01
sS'problem__ALL__'
p413
I01
sS'in__BOTTOM__'
p414
I01
sS'hand__ALL__'
p415
I01
sS'wake__ALL__'
p416
I01
sS'to__ALL__'
p417
I01
sS'sex__TOP__'
p418
I01
sS'bed__ALL__'
p419
I01
sS'to__TOP__'
p420
I01
sS'with__BOTTOM__'
p421
I01
sS'up__ALL__'
p422
I01
sS'Mind__ALL__'
p423
I01
sa(dp424
S'asshol__BOTTOM__'
p425
I01
sS'are__ALL__'
p426
I01
sS'fuck__BOTTOM__'
p427
I01
sS'fuck__ALL__'
p428
I01
sS'are__TOP__'
p429
I01
sS'men__ALL__'
p430
I01
sS'gay__TOP__'
p431
I01
sS'men__TOP__'
p432
I01
sS'asshol__ALL__'
p433
I01
sS'gay__ALL__'
p434
I01
sa(dp435
S'feel__BOTTOM__'
p436
I01
sS'cocki__BOTTOM__'
p437
I01
sS'cocki__ALL__'
p438
I01
sS'put__TOP__'
p439
I01
sS'in__TOP__'
p440
I01
sS'put__ALL__'
p441
I01
sS'who__TOP__'
p442
I01
sS'pocket__ALL__'
p443
I01
sS'in__ALL__'
p444
I01
sS'who__ALL__'
p445
I01
sS'Man__TOP__'
p446
I01
sS'feel__ALL__'
p447
I01
sS'pocket__TOP__'
p448
I01
sS'hand__TOP__'
p449
I01
sS'hand__ALL__'
p450
I01
sS'Man__ALL__'
p451
I01
sa(dp452
S'to__ALL__'
p453
I01
sS'Come__ALL__'
p454
I01
sS'learn__TOP__'
p455
I01
sS'should__ALL__'
p456
I01
sS'learn__ALL__'
p457
I01
sS'should__TOP__'
p458
I01
sS'to__TOP__'
p459
I01
sS'masturb__TOP__'
p460
I01
sS'in__ALL__'
p461
I01
sS'Man__TOP__'
p462
I01
sS'in__BOTTOM__'
p463
I01
sS'handi__ALL__'
p464
I01
sS'masturb__ALL__'
p465
I01
sS'Come__BOTTOM__'
p466
I01
sS'handi__BOTTOM__'
p467
I01
sS'Man__ALL__'
p468
I01
sa(dp469
S'sex__TOP__'
p470
I01
sS'Have__TOP__'
p471
I01
sS'in__TOP__'
p472
I01
sS'ward__TOP__'
p473
I01
sS'fuck__ALL__'
p474
I01
sS'fuck__BOTTOM__'
p475
I01
sS'sex__ALL__'
p476
I01
sS'ward__ALL__'
p477
I01
sS'Man__TOP__'
p478
I01
sS'psych__ALL__'
p479
I01
sS'crazi__ALL__'
p480
I01
sS'crazi__BOTTOM__'
p481
I01
sS'in__ALL__'
p482
I01
sS'Have__ALL__'
p483
I01
sS'psych__TOP__'
p484
I01
sS'Man__ALL__'
p485
I01
sa(dp486
S'Man__BOTTOM__'
p487
I01
sS'ball__ALL__'
p488
I01
sS'with__ALL__'
p489
I01
sS'walk__ALL__'
p490
I01
sS'no__BOTTOM__'
p491
I01
sS'ball__BOTTOM__'
p492
I01
sS'walk__BOTTOM__'
p493
I01
sS'BASEBAL__TOP__'
p494
I01
sS'can__BOTTOM__'
p495
I01
sS'with__BOTTOM__'
p496
I01
sS'can__ALL__'
p497
I01
sS'four__ALL__'
p498
I01
sS'Man__ALL__'
p499
I01
sS'WRONG__ALL__'
p500
I01
sS'no__ALL__'
p501
I01
sS'four__BOTTOM__'
p502
I01
sS'WRONG__TOP__'
p503
I01
sS'BASEBAL__ALL__'
p504
I01
sa(dp505
S'.__BOTTOM__'
p506
I01
sS'suffer__ALL__'
p507
I01
sS'lose__ALL__'
p508
I01
sS'lose__BOTTOM__'
p509
I01
sS'Doctor__ALL__'
p510
I01
sS'from__ALL__'
p511
I01
sS'patient__BOTTOM__'
p512
I01
sS'Doctor__TOP__'
p513
I01
sS'who__ALL__'
p514
I01
sS'patient__ALL__'
p515
I01
sS'who__TOP__'
p516
I01
sS'.__ALL__'
p517
I01
sS'suffer__TOP__'
p518
I01
sS'anxieti__ALL__'
p519
I01
sS'from__TOP__'
p520
I01
sS'anxieti__TOP__'
p521
I01
sa(dp522
S'airport__TOP__'
p523
I01
sS'into__ALL__'
p524
I01
sS'go__BOTTOM__'
p525
I01
sS'sideway__TOP__'
p526
I01
sS'to__BOTTOM__'
p527
I01
sS'bangkok__BOTTOM__'
p528
I01
sS'airport__ALL__'
p529
I01
sS'who__TOP__'
p530
I01
sS'sideway__ALL__'
p531
I01
sS'is__ALL__'
p532
I01
sS'who__ALL__'
p533
I01
sS'man__TOP__'
p534
I01
sS'go__ALL__'
p535
I01
sS'walk__TOP__'
p536
I01
sS'into__TOP__'
p537
I01
sS'bangkok__ALL__'
p538
I01
sS'walk__ALL__'
p539
I01
sS'to__ALL__'
p540
I01
sS'is__BOTTOM__'
p541
I01
sS'man__ALL__'
p542
I01
sa(dp543
S'pant__ALL__'
p544
I01
sS'all__BOTTOM__'
p545
I01
sS'with__ALL__'
p546
I01
sS'cocki__BOTTOM__'
p547
I01
sS'down__ALL__'
p548
I01
sS'with__TOP__'
p549
I01
sS'all__ALL__'
p550
I01
sS'hand__TOP__'
p551
I01
sS'hand__ALL__'
p552
I01
sS'day__ALL__'
p553
I01
sS'feel__BOTTOM__'
p554
I01
sS'feel__ALL__'
p555
I01
sS'day__BOTTOM__'
p556
I01
sS'Man__TOP__'
p557
I01
sS'down__TOP__'
p558
I01
sS'Man__ALL__'
p559
I01
sS'cocki__ALL__'
p560
I01
sS'pant__TOP__'
p561
I01
sa(dp562
S'well__TOP__'
p563
I01
sS'in__ALL__'
p564
I01
sS'well__ALL__'
p565
I01
sS'often__BOTTOM__'
p566
I01
sS'fish__TOP__'
p567
I01
sS'fish__ALL__'
p568
I01
sS"'s__TOP__"
p569
I01
sS'who__ALL__'
p570
I01
sS'who__TOP__'
p571
I01
sS'often__ALL__'
p572
I01
sS'other__ALL__'
p573
I01
sS'man__TOP__'
p574
I01
sS'crab__BOTTOM__'
p575
I01
sS'man__ALL__'
p576
I01
sS'in__TOP__'
p577
I01
sS'catch__ALL__'
p578
I01
sS'Man__TOP__'
p579
I01
sS'other__TOP__'
p580
I01
sS"'s__ALL__"
p581
I01
sS'catch__BOTTOM__'
p582
I01
sS'crab__ALL__'
p583
I01
sS'Man__ALL__'
p584
I01
sa(dp585
S'exhaust__BOTTOM__'
p586
I01
sS'get__ALL__'
p587
I01
sS'get__BOTTOM__'
p588
I01
sS'run__TOP__'
p589
I01
sS'car__TOP__'
p590
I01
sS'run__ALL__'
p591
I01
sS'behind__ALL__'
p592
I01
sS'who__ALL__'
p593
I01
sS'man__TOP__'
p594
I01
sS'car__ALL__'
p595
I01
sS'who__TOP__'
p596
I01
sS'behind__TOP__'
p597
I01
sS'exhaust__ALL__'
p598
I01
sS'man__ALL__'
p599
I01
sa(dp600
S'bu__ALL__'
p601
I01
sS'in__TOP__'
p602
I01
sS'get__BOTTOM__'
p603
I01
sS'tire__BOTTOM__'
p604
I01
sS'run__TOP__'
p605
I01
sS'get__ALL__'
p606
I01
sS'tire__ALL__'
p607
I01
sS'bu__TOP__'
p608
I01
sS'run__ALL__'
p609
I01
sS'in__ALL__'
p610
I01
sS'who__ALL__'
p611
I01
sS'front__ALL__'
p612
I01
sS'Man__TOP__'
p613
I01
sS'of__TOP__'
p614
I01
sS'who__TOP__'
p615
I01
sS'of__ALL__'
p616
I01
sS'front__TOP__'
p617
I01
sS'Man__ALL__'
p618
I01
sa(dp619
S'to__BOTTOM__'
p620
I01
sS'in__ALL__'
p621
I01
sS'park__BOTTOM__'
p622
I01
sS'it__TOP__'
p623
I01
sS'good__ALL__'
p624
I01
sS'park__ALL__'
p625
I01
sS'girl__BOTTOM__'
p626
I01
sS'park__TOP__'
p627
I01
sS'meet__TOP__'
p628
I01
sS'meat__ALL__'
p629
I01
sS'girl__TOP__'
p630
I01
sS'good__TOP__'
p631
I01
sS'better__ALL__'
p632
I01
sS'girl__ALL__'
p633
I01
sS'in__BOTTOM__'
p634
I01
sS'meet__ALL__'
p635
I01
sS'to__ALL__'
p636
I01
sS'meat__BOTTOM__'
p637
I01
sS'in__TOP__'
p638
I01
sS'to__TOP__'
p639
I01
sS'is__ALL__'
p640
I01
sS'better__BOTTOM__'
p641
I01
sS'is__TOP__'
p642
I01
sS'it__ALL__'
p643
I01
sa(dp644
S'to__BOTTOM__'
p645
I01
sS'toilet__TOP__'
p646
I01
sS'in__ALL__'
p647
I01
sS'have__ALL__'
p648
I01
sS'time__ALL__'
p649
I01
sS'watch__TOP__'
p650
I01
sS'shitti__ALL__'
p651
I01
sS'who__ALL__'
p652
I01
sS'shitti__BOTTOM__'
p653
I01
sS'who__TOP__'
p654
I01
sS'have__BOTTOM__'
p655
I01
sS'drop__TOP__'
p656
I01
sS'time__BOTTOM__'
p657
I01
sS'man__TOP__'
p658
I01
sS'is__BOTTOM__'
p659
I01
sS'bound__BOTTOM__'
p660
I01
sS'man__ALL__'
p661
I01
sS'to__ALL__'
p662
I01
sS'in__TOP__'
p663
I01
sS'toilet__ALL__'
p664
I01
sS'watch__ALL__'
p665
I01
sS'is__ALL__'
p666
I01
sS'bound__ALL__'
p667
I01
sS'drop__ALL__'
p668
I01
sa(dp669
S'pick__ALL__'
p670
I01
sS'watch__TOP__'
p671
I01
sS'snatch__TOP__'
p672
I01
sS'watch__ALL__'
p673
I01
sS'watch__BOTTOM__'
p674
I01
sS'pocket__ALL__'
p675
I01
sS'pick__TOP__'
p676
I01
sS'peep__ALL__'
p677
I01
sS'snatch__BOTTOM__'
p678
I01
sS'peep__BOTTOM__'
p679
I01
sS'pocket__TOP__'
p680
I01
sS'tom__ALL__'
p681
I01
sS'tom__BOTTOM__'
p682
I01
sS'snatch__ALL__'
p683
I01
sa(dp684
S'feel__BOTTOM__'
p685
I01
sS'cocki__BOTTOM__'
p686
I01
sS'cocki__ALL__'
p687
I01
sS'put__TOP__'
p688
I01
sS'in__TOP__'
p689
I01
sS'put__ALL__'
p690
I01
sS'who__TOP__'
p691
I01
sS'pocket__ALL__'
p692
I01
sS'in__ALL__'
p693
I01
sS'who__ALL__'
p694
I01
sS'man__TOP__'
p695
I01
sS'feel__ALL__'
p696
I01
sS'pocket__TOP__'
p697
I01
sS'hand__TOP__'
p698
I01
sS'hand__ALL__'
p699
I01
sS'man__ALL__'
p700
I01
sa(dp701
S'exhaust__BOTTOM__'
p702
I01
sS'get__ALL__'
p703
I01
sS'get__BOTTOM__'
p704
I01
sS'run__TOP__'
p705
I01
sS'car__TOP__'
p706
I01
sS'run__ALL__'
p707
I01
sS'behind__ALL__'
p708
I01
sS'who__ALL__'
p709
I01
sS'man__TOP__'
p710
I01
sS'car__ALL__'
p711
I01
sS'who__TOP__'
p712
I01
sS'behind__TOP__'
p713
I01
sS'exhaust__ALL__'
p714
I01
sS'man__ALL__'
p715
I01
sa(dp716
S'itchi__TOP__'
p717
I01
sS'sweater__TOP__'
p718
I01
sS'put__ALL__'
p719
I01
sS'day__ALL__'
p720
I01
sS'sweater__ALL__'
p721
I01
sS'scratch__ALL__'
p722
I01
sS'put__TOP__'
p723
I01
sS'from__ALL__'
p724
I01
sS'itchi__ALL__'
p725
I01
sS'on__ALL__'
p726
I01
sS'who__ALL__'
p727
I01
sS'from__BOTTOM__'
p728
I01
sS'on__TOP__'
p729
I01
sS'everi__BOTTOM__'
p730
I01
sS'everi__ALL__'
p731
I01
sS'who__TOP__'
p732
I01
sS'start__ALL__'
p733
I01
sS'man__TOP__'
p734
I01
sS'start__BOTTOM__'
p735
I01
sS'man__ALL__'
p736
I01
sS'day__BOTTOM__'
p737
I01
sS'scratch__BOTTOM__'
p738
I01
sa(dp739
S'airport__TOP__'
p740
I01
sS'into__ALL__'
p741
I01
sS'go__BOTTOM__'
p742
I01
sS'sideway__TOP__'
p743
I01
sS'to__BOTTOM__'
p744
I01
sS'bangkok__BOTTOM__'
p745
I01
sS'airport__ALL__'
p746
I01
sS'who__TOP__'
p747
I01
sS'sideway__ALL__'
p748
I01
sS'is__ALL__'
p749
I01
sS'who__ALL__'
p750
I01
sS'man__TOP__'
p751
I01
sS'go__ALL__'
p752
I01
sS'walk__TOP__'
p753
I01
sS'into__TOP__'
p754
I01
sS'bangkok__ALL__'
p755
I01
sS'walk__ALL__'
p756
I01
sS'to__ALL__'
p757
I01
sS'is__BOTTOM__'
p758
I01
sS'man__ALL__'
p759
I01
sa(dp760
S'toilet__ALL__'
p761
I01
sS'pot__BOTTOM__'
p762
I01
sS'high__ALL__'
p763
I01
sS'stand__ALL__'
p764
I01
sS'pot__ALL__'
p765
I01
sS'stand__TOP__'
p766
I01
sS'he__ALL__'
p767
I01
sS'toilet__TOP__'
p768
I01
sS'on__TOP__'
p769
I01
sS'is__ALL__'
p770
I01
sS'on__ALL__'
p771
I01
sS'who__ALL__'
p772
I01
sS'on__BOTTOM__'
p773
I01
sS'who__TOP__'
p774
I01
sS'high__BOTTOM__'
p775
I01
sS'is__BOTTOM__'
p776
I01
sS'he__TOP__'
p777
I01
sa(dp778
S'asshol__BOTTOM__'
p779
I01
sS'are__ALL__'
p780
I01
sS'fuck__BOTTOM__'
p781
I01
sS'fuck__ALL__'
p782
I01
sS'are__BOTTOM__'
p783
I01
sS'men__ALL__'
p784
I01
sS'gay__TOP__'
p785
I01
sS'men__TOP__'
p786
I01
sS'asshol__ALL__'
p787
I01
sS'gay__ALL__'
p788
I01
sa(dp789
S'toilet__ALL__'
p790
I01
sS'pot__BOTTOM__'
p791
I01
sS'high__ALL__'
p792
I01
sS'on__ALL__'
p793
I01
sS'pot__ALL__'
p794
I01
sS'stand__TOP__'
p795
I01
sS'toilet__TOP__'
p796
I01
sS'stand__ALL__'
p797
I01
sS'who__ALL__'
p798
I01
sS'man__TOP__'
p799
I01
sS'on__BOTTOM__'
p800
I01
sS'who__TOP__'
p801
I01
sS'high__BOTTOM__'
p802
I01
sS'on__TOP__'
p803
I01
sS'man__ALL__'
p804
I01
sa(dp805
S'make__ALL__'
p806
I01
sS'mistak__ALL__'
p807
I01
sS'level__ALL__'
p808
I01
sS'elev__TOP__'
p809
I01
sS'in__TOP__'
p810
I01
sS'level__BOTTOM__'
p811
I01
sS'wrong__ALL__'
p812
I01
sS'on__ALL__'
p813
I01
sS'in__ALL__'
p814
I01
sS'mani__ALL__'
p815
I01
sS'who__ALL__'
p816
I01
sS'man__TOP__'
p817
I01
sS'mistak__TOP__'
p818
I01
sS'on__BOTTOM__'
p819
I01
sS'who__TOP__'
p820
I01
sS'make__TOP__'
p821
I01
sS'wrong__BOTTOM__'
p822
I01
sS'elev__ALL__'
p823
I01
sS'mani__BOTTOM__'
p824
I01
sS'man__ALL__'
p825
I01
sa(dp826
S'dick__TOP__'
p827
I01
sS'peanut__TOP__'
p828
I01
sS'put__TOP__'
p829
I01
sS'in__TOP__'
p830
I01
sS'nut__ALL__'
p831
I01
sS'nut__BOTTOM__'
p832
I01
sS'fuck__BOTTOM__'
p833
I01
sS'dick__ALL__'
p834
I01
sS'peanut__ALL__'
p835
I01
sS'fuck__ALL__'
p836
I01
sS'put__ALL__'
p837
I01
sS'in__ALL__'
p838
I01
sS'is__ALL__'
p839
I01
sS'who__ALL__'
p840
I01
sS'man__TOP__'
p841
I01
sS'who__TOP__'
p842
I01
sS'butter__TOP__'
p843
I01
sS'is__BOTTOM__'
p844
I01
sS'butter__ALL__'
p845
I01
sS'man__ALL__'
p846
I01
sa(dp847
S'retard__ALL__'
p848
I01
sS'argu__TOP__'
p849
I01
sS'internet__ALL__'
p850
I01
sS'retard__BOTTOM__'
p851
I01
sS'like__TOP__'
p852
I01
sS'still__ALL__'
p853
I01
sS'like__ALL__'
p854
I01
sS'argu__ALL__'
p855
I01
sS'is__ALL__'
p856
I01
sS'on__ALL__'
p857
I01
sS'special__TOP__'
p858
I01
sS'you__BOTTOM__'
p859
I01
sS'olymp__TOP__'
p860
I01
sS'internet__TOP__'
p861
I01
sS'you__ALL__'
p862
I01
sS'is__TOP__'
p863
I01
sS'special__ALL__'
p864
I01
sS'on__TOP__'
p865
I01
sS'olymp__ALL__'
p866
I01
sS'still__BOTTOM__'
p867
I01
sa(dp868
S'solut__ALL__'
p869
I01
sS'in__ALL__'
p870
I01
sS'up__BOTTOM__'
p871
I01
sS'sex__ALL__'
p872
I01
sS'hand__BOTTOM__'
p873
I01
sS'go__TOP__'
p874
I01
sS'with__ALL__'
p875
I01
sS'go__ALL__'
p876
I01
sS'wake__BOTTOM__'
p877
I01
sS'solut__BOTTOM__'
p878
I01
sS'on__ALL__'
p879
I01
sS'problem__TOP__'
p880
I01
sS'on__TOP__'
p881
I01
sS'bed__TOP__'
p882
I01
sS'problem__ALL__'
p883
I01
sS'in__BOTTOM__'
p884
I01
sS'hand__ALL__'
p885
I01
sS'to__ALL__'
p886
I01
sS'sex__TOP__'
p887
I01
sS'bed__ALL__'
p888
I01
sS'with__TOP__'
p889
I01
sS'to__TOP__'
p890
I01
sS'with__BOTTOM__'
p891
I01
sS'mind__ALL__'
p892
I01
sS'up__ALL__'
p893
I01
sS'mind__TOP__'
p894
I01
sS'wake__ALL__'
p895
I01
sa(dp896
S'man__BOTTOM__'
p897
I01
sS'peni__BOTTOM__'
p898
I01
sS'with__ALL__'
p899
I01
sS'suit__ALL__'
p900
I01
sS'peni__ALL__'
p901
I01
sS'wear__ALL__'
p902
I01
sS'suit__TOP__'
p903
I01
sS'is__ALL__'
p904
I01
sS'who__ALL__'
p905
I01
sS'big__BOTTOM__'
p906
I01
sS'man__TOP__'
p907
I01
sS'white__TOP__'
p908
I01
sS'big__ALL__'
p909
I01
sS'who__TOP__'
p910
I01
sS'white__ALL__'
p911
I01
sS'wear__TOP__'
p912
I01
sS'with__BOTTOM__'
p913
I01
sS'is__BOTTOM__'
p914
I01
sS'man__ALL__'
p915
I01
sa(dp916
S'dont__ALL__'
p917
I01
sS'your__BOTTOM__'
p918
I01
sS'at__ALL__'
p919
I01
sS'if__TOP__'
p920
I01
sS'told__ALL__'
p921
I01
sS'it__BOTTOM__'
p922
I01
sS'succeed__ALL__'
p923
I01
sS'if__ALL__'
p924
I01
sS'you__ALL__'
p925
I01
sS'you__BOTTOM__'
p926
I01
sS'first__TOP__'
p927
I01
sS'succeed__TOP__'
p928
I01
sS'first__ALL__'
p929
I01
sS'wife__ALL__'
p930
I01
sS'told__BOTTOM__'
p931
I01
sS'you__TOP__'
p932
I01
sS'do__ALL__'
p933
I01
sS'it__ALL__'
p934
I01
sS'do__BOTTOM__'
p935
I01
sS'at__TOP__'
p936
I01
sS'your__ALL__'
p937
I01
sS'dont__TOP__'
p938
I01
sS'way__ALL__'
p939
I01
sS'wife__BOTTOM__'
p940
I01
sS'way__BOTTOM__'
p941
I01
sS'the__ALL__'
p942
I01
sS'the__BOTTOM__'
p943
I01
sa(dp944
S'to__BOTTOM__'
p945
I01
sS'in__ALL__'
p946
I01
sS'park__BOTTOM__'
p947
I01
sS'it__TOP__'
p948
I01
sS'good__ALL__'
p949
I01
sS'park__ALL__'
p950
I01
sS'girl__BOTTOM__'
p951
I01
sS'park__TOP__'
p952
I01
sS'meet__TOP__'
p953
I01
sS'meat__ALL__'
p954
I01
sS'girl__TOP__'
p955
I01
sS'good__TOP__'
p956
I01
sS'better__ALL__'
p957
I01
sS'girl__ALL__'
p958
I01
sS'in__BOTTOM__'
p959
I01
sS'meet__ALL__'
p960
I01
sS'to__ALL__'
p961
I01
sS'meat__BOTTOM__'
p962
I01
sS'in__TOP__'
p963
I01
sS'to__TOP__'
p964
I01
sS'better__BOTTOM__'
p965
I01
sS'it__ALL__'
p966
I01
sa(dp967
S'with__ALL__'
p968
I01
sS'itchi__TOP__'
p969
I01
sS'finger__ALL__'
p970
I01
sS'with__TOP__'
p971
I01
sS'wake__BOTTOM__'
p972
I01
sS'smelli__ALL__'
p973
I01
sS'ass__ALL__'
p974
I01
sS'with__BOTTOM__'
p975
I01
sS'itchi__ALL__'
p976
I01
sS'up__BOTTOM__'
p977
I01
sS'man__TOP__'
p978
I01
sS'up__ALL__'
p979
I01
sS'smelli__BOTTOM__'
p980
I01
sS'finger__BOTTOM__'
p981
I01
sS'wake__ALL__'
p982
I01
sS'ass__TOP__'
p983
I01
sS'man__ALL__'
p984
I01
sa(dp985
S'see__ALL__'
p986
I01
sS'i__TOP__'
p987
I01
sS'troll__BOTTOM__'
p988
I01
sS'i__ALL__'
p989
I01
sS'you__TOP__'
p990
I01
sS'you__ALL__'
p991
I01
sS'see__TOP__'
p992
I01
sS'you__BOTTOM__'
p993
I01
sS'troll__ALL__'
p994
I01
sa(dp995
S'compens__BOTTOM__'
p996
I01
sS'have__TOP__'
p997
I01
sS'for__BOTTOM__'
p998
I01
sS'for__ALL__'
p999
I01
sS'dick__ALL__'
p1000
I01
sS'car__ALL__'
p1001
I01
sS'big__TOP__'
p1002
I01
sS'car__TOP__'
p1003
I01
sS'dick__BOTTOM__'
p1004
I01
sS'who__ALL__'
p1005
I01
sS'small__ALL__'
p1006
I01
sS'man__TOP__'
p1007
I01
sS'big__ALL__'
p1008
I01
sS'who__TOP__'
p1009
I01
sS'man__ALL__'
p1010
I01
sS'have__ALL__'
p1011
I01
sS'compens__ALL__'
p1012
I01
sS'small__BOTTOM__'
p1013
I01
sa(dp1014
S'differ__ALL__'
p1015
I01
sS'to__ALL__'
p1016
I01
sS'to__BOTTOM__'
p1017
I01
sS'midget__BOTTOM__'
p1018
I01
sS'confuciu__TOP__'
p1019
I01
sS'smell__ALL__'
p1020
I01
sS'say__ALL__'
p1021
I01
sS'crowd__ALL__'
p1022
I01
sS'crowd__BOTTOM__'
p1023
I01
sS'say__TOP__'
p1024
I01
sS'elev__BOTTOM__'
p1025
I01
sS'midget__ALL__'
p1026
I01
sS'smell__BOTTOM__'
p1027
I01
sS'elev__ALL__'
p1028
I01
sS'confuciu__ALL__'
p1029
I01
sS'differ__BOTTOM__'
p1030
I01
sa(dp1031
S'throw__TOP__'
p1032
I01
sS'lose__ALL__'
p1033
I01
sS'lose__BOTTOM__'
p1034
I01
sS'throw__ALL__'
p1035
I01
sS'window__TOP__'
p1036
I01
sS'control__ALL__'
p1037
I01
sS'control__BOTTOM__'
p1038
I01
sS'control__TOP__'
p1039
I01
sS'window__ALL__'
p1040
I01
sS'who__ALL__'
p1041
I01
sS'man__TOP__'
p1042
I01
sS'who__TOP__'
p1043
I01
sS'out__ALL__'
p1044
I01
sS'out__TOP__'
p1045
I01
sS'man__ALL__'
p1046
I01
sa(dp1047
S'to__ALL__'
p1048
I01
sS'cocki__ALL__'
p1049
I01
sS'be__BOTTOM__'
p1050
I01
sS'to__BOTTOM__'
p1051
I01
sS'dickish__ALL__'
p1052
I01
sS'dickish__BOTTOM__'
p1053
I01
sS'to__TOP__'
p1054
I01
sS'cocki__TOP__'
p1055
I01
sS'be__ALL__'
p1056
I01
sS'better__ALL__'
p1057
I01
sS'better__TOP__'
p1058
I01
sS'act__ALL__'
p1059
I01
sS'than__ALL__'
p1060
I01
sS'than__BOTTOM__'
p1061
I01
sS'act__TOP__'
p1062
I01
sa(dp1063
S'no__BOTTOM__'
p1064
I01
sS'money__TOP__'
p1065
I01
sS'money__ALL__'
p1066
I01
sS'honey__ALL__'
p1067
I01
sS'no__TOP__'
p1068
I01
sS'honey__BOTTOM__'
p1069
I01
sS'no__ALL__'
p1070
I01
sa(dp1071
S'!__ALL__'
p1072
I01
sS'work__TOP__'
p1073
I01
sS'round__ALL__'
p1074
I01
sS'!__BOTTOM__'
p1075
I01
sS'harder__TOP__'
p1076
I01
sS'eye__BOTTOM__'
p1077
I01
sS'round__BOTTOM__'
p1078
I01
sS'harder__ALL__'
p1079
I01
sS'eye__ALL__'
p1080
I01
sS'work__ALL__'
p1081
I01
sS'!__TOP__'
p1082
I01
sa(dp1083
S'who__ALL__'
p1084
I01
sS'fire__TOP__'
p1085
I01
sS'himself__ALL__'
p1086
I01
sS'for__BOTTOM__'
p1087
I01
sS'on__ALL__'
p1088
I01
sS'for__ALL__'
p1089
I01
sS'set__ALL__'
p1090
I01
sS'fire__ALL__'
p1091
I01
sS'himself__TOP__'
p1092
I01
sS'life__BOTTOM__'
p1093
I01
sS'man__TOP__'
p1094
I01
sS'who__TOP__'
p1095
I01
sS'warm__BOTTOM__'
p1096
I01
sS'life__ALL__'
p1097
I01
sS'warm__ALL__'
p1098
I01
sS'man__ALL__'
p1099
I01
sS'stay__BOTTOM__'
p1100
I01
sS'on__TOP__'
p1101
I01
sS'stay__ALL__'
p1102
I01
sS'set__TOP__'
p1103
I01
sa(dp1104
S'basketbal__TOP__'
p1105
I01
sS'with__ALL__'
p1106
I01
sS'court__BOTTOM__'
p1107
I01
sS'basketbal__ALL__'
p1108
I01
sS'court__ALL__'
p1109
I01
sS'with__TOP__'
p1110
I01
sS'dribbl__BOTTOM__'
p1111
I01
sS'dribbl__ALL__'
p1112
I01
sS'diarrhea__ALL__'
p1113
I01
sS'diarrhea__TOP__'
p1114
I01
sS'down__ALL__'
p1115
I01
sS'player__ALL__'
p1116
I01
sS'down__BOTTOM__'
p1117
I01
sS'player__TOP__'
p1118
I01
sa(dp1119
S'fish__ALL__'
p1120
I01
sS'other__ALL__'
p1121
I01
sS'often__BOTTOM__'
p1122
I01
sS'in__TOP__'
p1123
I01
sS'who__TOP__'
p1124
I01
sS'often__ALL__'
p1125
I01
sS'in__ALL__'
p1126
I01
sS'who__ALL__'
p1127
I01
sS'well__ALL__'
p1128
I01
sS'man__TOP__'
p1129
I01
sS'catch__ALL__'
p1130
I01
sS'well__TOP__'
p1131
I01
sS'other__TOP__'
p1132
I01
sS'fish__TOP__'
p1133
I01
sS'crab__BOTTOM__'
p1134
I01
sS'man__ALL__'
p1135
I01
sS'crab__ALL__'
p1136
I01
sS'catch__BOTTOM__'
p1137
I01
sa(dp1138
S'man__BOTTOM__'
p1139
I01
sS'itchi__TOP__'
p1140
I01
sS'ha__TOP__'
p1141
I01
sS'finger__BOTTOM__'
p1142
I01
sS'ha__ALL__'
p1143
I01
sS'with__ALL__'
p1144
I01
sS'itchi__ALL__'
p1145
I01
sS'who__ALL__'
p1146
I01
sS'who__TOP__'
p1147
I01
sS'confuci__TOP__'
p1148
I01
sS'butt__ALL__'
p1149
I01
sS'butt__TOP__'
p1150
I01
sS'say..h__ALL__'
p1151
I01
sS'say..h__TOP__'
p1152
I01
sS'confuci__ALL__'
p1153
I01
sS'is__BOTTOM__'
p1154
I01
sS'man__ALL__'
p1155
I01
sS'finger__ALL__'
p1156
I01
sS'smelli__ALL__'
p1157
I01
sS'with__BOTTOM__'
p1158
I01
sS'is__ALL__'
p1159
I01
sS'smelli__BOTTOM__'
p1160
I01
sa(dp1161
S'.__BOTTOM__'
p1162
I01
sS'.__ALL__'
p1163
I01
sS'leav__BOTTOM__'
p1164
I01
sS'like__TOP__'
p1165
I01
sS'a__TOP__'
p1166
I01
sS'must__ALL__'
p1167
I01
sS'bag__BOTTOM__'
p1168
I01
sS'leav__ALL__'
p1169
I01
sS'like__ALL__'
p1170
I01
sS'a__ALL__'
p1171
I01
sS'one__BOTTOM__'
p1172
I01
sS'hi__ALL__'
p1173
I01
sS'small__TOP__'
p1174
I01
sS'vagina__TOP__'
p1175
I01
sS'bag__ALL__'
p1176
I01
sS'hi__BOTTOM__'
p1177
I01
sS'small__ALL__'
p1178
I01
sS'outsid__BOTTOM__'
p1179
I01
sS'outsid__ALL__'
p1180
I01
sS'veri__ALL__'
p1181
I01
sS'hotel__TOP__'
p1182
I01
sS'vagina__ALL__'
p1183
I01
sS'hotel__ALL__'
p1184
I01
sS'must__BOTTOM__'
p1185
I01
sS'veri__TOP__'
p1186
I01
sS'one__ALL__'
p1187
I01
sS'is__ALL__'
p1188
I01
sS'is__TOP__'
p1189
I01
sS'.__TOP__'
p1190
I01
sa(dp1191
S'man__BOTTOM__'
p1192
I01
sS'ball__ALL__'
p1193
I01
sS'with__ALL__'
p1194
I01
sS'not__BOTTOM__'
p1195
I01
sS'ball__BOTTOM__'
p1196
I01
sS'walk__BOTTOM__'
p1197
I01
sS'not__ALL__'
p1198
I01
sS'basebal__TOP__'
p1199
I01
sS'can__BOTTOM__'
p1200
I01
sS'with__BOTTOM__'
p1201
I01
sS'man__ALL__'
p1202
I01
sS'four__ALL__'
p1203
I01
sS'can__ALL__'
p1204
I01
sS'wrong__ALL__'
p1205
I01
sS'walk__ALL__'
p1206
I01
sS'four__BOTTOM__'
p1207
I01
sS'wrong__TOP__'
p1208
I01
sS'basebal__ALL__'
p1209
I01
sa(dp1210
S'fag__ALL__'
p1211
I01
sS'a__ALL__'
p1212
I01
sS'a__BOTTOM__'
p1213
I01
sS'say__ALL__'
p1214
I01
sS'connfuci__TOP__'
p1215
I01
sS'fag__BOTTOM__'
p1216
I01
sS'your__ALL__'
p1217
I01
sS'say__TOP__'
p1218
I01
sS'connfuci__ALL__'
p1219
I01
sS'your__BOTTOM__'
p1220
I01
sa(dp1221
S'dont__ALL__'
p1222
I01
sS'hate__ALL__'
p1223
I01
sS'hate__TOP__'
p1224
I01
sS'probabl__ALL__'
p1225
I01
sS'made__BOTTOM__'
p1226
I01
sS'dont__TOP__'
p1227
I01
sS'i__ALL__'
p1228
I01
sS'sit__ALL__'
p1229
I01
sS'whateev__ALL__'
p1230
I01
sS'i__BOTTOM__'
p1231
I01
sS'probabl__BOTTOM__'
p1232
I01
sS'sit__BOTTOM__'
p1233
I01
sS'whateev__BOTTOM__'
p1234
I01
sS'on__ALL__'
p1235
I01
sS'on__BOTTOM__'
p1236
I01
sS'bitch__TOP__'
p1237
I01
sS'your__ALL__'
p1238
I01
sS'your__BOTTOM__'
p1239
I01
sS'made__ALL__'
p1240
I01
sS'bitch__ALL__'
p1241
I01
sa(dp1242
S'own__ALL__'
p1243
I01
sS'fart__TOP__'
p1244
I01
sS'in__TOP__'
p1245
I01
sS'sit__BOTTOM__'
p1246
I01
sS'church__ALL__'
p1247
I01
sS'fart__ALL__'
p1248
I01
sS'pew__ALL__'
p1249
I01
sS'in__ALL__'
p1250
I01
sS'who__ALL__'
p1251
I01
sS'man__TOP__'
p1252
I01
sS'in__BOTTOM__'
p1253
I01
sS'who__TOP__'
p1254
I01
sS'own__BOTTOM__'
p1255
I01
sS'man__ALL__'
p1256
I01
sS'pew__BOTTOM__'
p1257
I01
sS'sit__ALL__'
p1258
I01
sS'church__TOP__'
p1259
I01
sa(dp1260
S'infant__ALL__'
p1261
I01
sS'to__ALL__'
p1262
I01
sS'with__ALL__'
p1263
I01
sS'hangov__ALL__'
p1264
I01
sS'to__BOTTOM__'
p1265
I01
sS'confuciu__TOP__'
p1266
I01
sS'tear__ALL__'
p1267
I01
sS'with__BOTTOM__'
p1268
I01
sS'say__ALL__'
p1269
I01
sS'cure__BOTTOM__'
p1270
I01
sS'tear__BOTTOM__'
p1271
I01
sS'infant__BOTTOM__'
p1272
I01
sS'say__TOP__'
p1273
I01
sS'hangov__BOTTOM__'
p1274
I01
sS'gargl__ALL__'
p1275
I01
sS'gargl__BOTTOM__'
p1276
I01
sS'confuciu__ALL__'
p1277
I01
sS'cure__ALL__'
p1278
I01
sa(dp1279
S'man__BOTTOM__'
p1280
I01
sS'get__BOTTOM__'
p1281
I01
sS'in__ALL__'
p1282
I01
sS'who__BOTTOM__'
p1283
I01
sS'bu__BOTTOM__'
p1284
I01
sS'run__BOTTOM__'
p1285
I01
sS'front__ALL__'
p1286
I01
sS'run__ALL__'
p1287
I01
sS'who__ALL__'
p1288
I01
sS'who__TOP__'
p1289
I01
sS'of__ALL__'
p1290
I01
sS'bu__ALL__'
p1291
I01
sS'get__ALL__'
p1292
I01
sS'run__TOP__'
p1293
I01
sS'tire__ALL__'
p1294
I01
sS'bu__TOP__'
p1295
I01
sS'exhuast__ALL__'
p1296
I01
sS'behind__ALL__'
p1297
I01
sS'man__TOP__'
p1298
I01
sS'of__TOP__'
p1299
I01
sS'front__TOP__'
p1300
I01
sS'man__ALL__'
p1301
I01
sS'behind__BOTTOM__'
p1302
I01
sS'in__TOP__'
p1303
I01
sS'get__TOP__'
p1304
I01
sS'exhuast__BOTTOM__'
p1305
I01
sS'tire__TOP__'
p1306
I01
sa(dp1307
S'get__ALL__'
p1308
I01
sS'discharg__ALL__'
p1309
I01
sS'honor__ALL__'
p1310
I01
sS'lap__ALL__'
p1311
I01
sS'woman__TOP__'
p1312
I01
sS'get__BOTTOM__'
p1313
I01
sS'sit__TOP__'
p1314
I01
sS'judg__ALL__'
p1315
I01
sS'honor__BOTTOM__'
p1316
I01
sS'on__ALL__'
p1317
I01
sS'lap__TOP__'
p1318
I01
sS'who__ALL__'
p1319
I01
sS'discharg__BOTTOM__'
p1320
I01
sS'judg__TOP__'
p1321
I01
sS'who__TOP__'
p1322
I01
sS'sit__ALL__'
p1323
I01
sS'on__TOP__'
p1324
I01
sS'woman__ALL__'
p1325
I01
sa(dp1326
S'smash__ALL__'
p1327
I01
sS'for__BOTTOM__'
p1328
I01
sS'mother__BOTTOM__'
p1329
I01
sS'smash__TOP__'
p1330
I01
sS'russia__ALL__'
p1331
I01
sS'the__TOP__'
p1332
I01
sS'russia__BOTTOM__'
p1333
I01
sS'monkey__ALL__'
p1334
I01
sS'mother__ALL__'
p1335
I01
sS'the__ALL__'
p1336
I01
sS'monkey__TOP__'
p1337
I01
sS'for__ALL__'
p1338
I01
sa(dp1339
S'grope__ALL__'
p1340
I01
sS'hand__BOTTOM__'
p1341
I01
sS'hand__ALL__'
p1342
I01
sS'woman__TOP__'
p1343
I01
sS'get__BOTTOM__'
p1344
I01
sS'day__TOP__'
p1345
I01
sS'caught__ALL__'
p1346
I01
sS'get__ALL__'
p1347
I01
sS'caught__BOTTOM__'
p1348
I01
sS'day__ALL__'
p1349
I01
sS'who__ALL__'
p1350
I01
sS'man__TOP__'
p1351
I01
sS'grope__TOP__'
p1352
I01
sS'who__TOP__'
p1353
I01
sS'wrong__ALL__'
p1354
I01
sS'red__ALL__'
p1355
I01
sS'woman__ALL__'
p1356
I01
sS'wrong__TOP__'
p1357
I01
sS'red__BOTTOM__'
p1358
I01
sS'man__ALL__'
p1359
I01
sa(dp1360
S'to__BOTTOM__'
p1361
I01
sS'room__TOP__'
p1362
I01
sS'in__ALL__'
p1363
I01
sS'have__ALL__'
p1364
I01
sS'room__ALL__'
p1365
I01
sS'a__ALL__'
p1366
I01
sS'shit__ALL__'
p1367
I01
sS'shit__TOP__'
p1368
I01
sS'who__ALL__'
p1369
I01
sS'who__TOP__'
p1370
I01
sS'have__BOTTOM__'
p1371
I01
sS'to__ALL__'
p1372
I01
sS'hous__ALL__'
p1373
I01
sS'man__TOP__'
p1374
I01
sS'is__BOTTOM__'
p1375
I01
sS'bound__BOTTOM__'
p1376
I01
sS'man__ALL__'
p1377
I01
sS'shit__BOTTOM__'
p1378
I01
sS'in__TOP__'
p1379
I01
sS'a__BOTTOM__'
p1380
I01
sS'is__ALL__'
p1381
I01
sS'hous__BOTTOM__'
p1382
I01
sS'bound__ALL__'
p1383
I01
sa(dp1384
S'rep__TOP__'
p1385
I01
sS'man__BOTTOM__'
p1386
I01
sS'with__ALL__'
p1387
I01
sS'lot__TOP__'
p1388
I01
sS'peni__BOTTOM__'
p1389
I01
sS'rep__ALL__'
p1390
I01
sS'lot__ALL__'
p1391
I01
sS'wif__ALL__'
p1392
I01
sS'big__ALL__'
p1393
I01
sS'with__BOTTOM__'
p1394
I01
sS'is__ALL__'
p1395
I01
sS'big__BOTTOM__'
p1396
I01
sS'man__TOP__'
p1397
I01
sS'wif__TOP__'
p1398
I01
sS'peni__ALL__'
p1399
I01
sS'is__BOTTOM__'
p1400
I01
sS'man__ALL__'
p1401
I01
sa(dp1402
S'all__ALL__'
p1403
I01
sS'all__BOTTOM__'
p1404
I01
sS'bubbl__TOP__'
p1405
I01
sS'prick__BOTTOM__'
p1406
I01
sS'prick__ALL__'
p1407
I01
sS'gone__BOTTOM__'
p1408
I01
sS'like__ALL__'
p1409
I01
sS'like__TOP__'
p1410
I01
sS'bubbl__ALL__'
p1411
I01
sS'one__ALL__'
p1412
I01
sS'one__BOTTOM__'
p1413
I01
sS'gone__ALL__'
p1414
I01
sS'virgin__ALL__'
p1415
I01
sS'virgin__TOP__'
p1416
I01
sa(dp1417
S'man__BOTTOM__'
p1418
I01
sS'but__ALL__'
p1419
I01
sS'get__BOTTOM__'
p1420
I01
sS'front__ALL__'
p1421
I01
sS'in__ALL__'
p1422
I01
sS'car__ALL__'
p1423
I01
sS'walk__ALL__'
p1424
I01
sS'who__BOTTOM__'
p1425
I01
sS'but__BOTTOM__'
p1426
I01
sS'who__ALL__'
p1427
I01
sS'who__TOP__'
p1428
I01
sS'of__ALL__'
p1429
I01
sS'get__ALL__'
p1430
I01
sS'walk__TOP__'
p1431
I01
sS'tire__ALL__'
p1432
I01
sS'car__TOP__'
p1433
I01
sS'behind__ALL__'
p1434
I01
sS'man__TOP__'
p1435
I01
sS'of__TOP__'
p1436
I01
sS'front__TOP__'
p1437
I01
sS'walk__BOTTOM__'
p1438
I01
sS'man__ALL__'
p1439
I01
sS'exhaust__BOTTOM__'
p1440
I01
sS'behind__BOTTOM__'
p1441
I01
sS'in__TOP__'
p1442
I01
sS'get__TOP__'
p1443
I01
sS'car__BOTTOM__'
p1444
I01
sS'tire__TOP__'
p1445
I01
sS'exhaust__ALL__'
p1446
I01
sa(dp1447
S'nut__BOTTOM__'
p1448
I01
sS'squirrel__ALL__'
p1449
I01
sS'no__BOTTOM__'
p1450
I01
sS'woman__TOP__'
p1451
I01
sS'nut__ALL__'
p1452
I01
sS'squirrel__TOP__'
p1453
I01
sS'leg__TOP__'
p1454
I01
sS'leg__ALL__'
p1455
I01
sS'who__ALL__'
p1456
I01
sS'climb__TOP__'
p1457
I01
sS'climb__ALL__'
p1458
I01
sS'who__TOP__'
p1459
I01
sS'find__ALL__'
p1460
I01
sS'find__BOTTOM__'
p1461
I01
sS'no__ALL__'
p1462
I01
sS'woman__ALL__'
p1463
I01
sa(dp1464
S'told__ALL__'
p1465
I01
sS'i__ALL__'
p1466
I01
sS'get__BOTTOM__'
p1467
I01
sS'car__ALL__'
p1468
I01
sS'exhaust__BOTTOM__'
p1469
I01
sS'told__TOP__'
p1470
I01
sS'run__ALL__'
p1471
I01
sS'who__ALL__'
p1472
I01
sS'who__TOP__'
p1473
I01
sS'that__TOP__'
p1474
I01
sS'behind__TOP__'
p1475
I01
sS'bitch__ALL__'
p1476
I01
sS'get__ALL__'
p1477
I01
sS'bitch__TOP__'
p1478
I01
sS'run__TOP__'
p1479
I01
sS'car__TOP__'
p1480
I01
sS'behind__ALL__'
p1481
I01
sS'man__TOP__'
p1482
I01
sS'man__ALL__'
p1483
I01
sS'i__TOP__'
p1484
I01
sS'that__ALL__'
p1485
I01
sS'exhaust__ALL__'
p1486
I01
sa(dp1487
S'get__ALL__'
p1488
I01
sS'dog__ALL__'
p1489
I01
sS'with__ALL__'
p1490
I01
sS'dog__BOTTOM__'
p1491
I01
sS'with__TOP__'
p1492
I01
sS'on__ALL__'
p1493
I01
sS'get__BOTTOM__'
p1494
I01
sS'who__TOP__'
p1495
I01
sS'long__TOP__'
p1496
I01
sS'who__ALL__'
p1497
I01
sS'man__TOP__'
p1498
I01
sS'long__ALL__'
p1499
I01
sS'walk__TOP__'
p1500
I01
sS'dog__TOP__'
p1501
I01
sS'he__ALL__'
p1502
I01
sS'walk__ALL__'
p1503
I01
sS'he__BOTTOM__'
p1504
I01
sS'on__TOP__'
p1505
I01
sS'man__ALL__'
p1506
I01
sa(dp1507
S'say:__TOP__'
p1508
I01
sS'hey__BOTTOM__'
p1509
I01
sS'hey__ALL__'
p1510
I01
sS'say:__ALL__'
p1511
I01
sS'alejandro__ALL__'
p1512
I01
sS'alejandro__TOP__'
p1513
I01
sa(dp1514
S'then__ALL__'
p1515
I01
sS'if__TOP__'
p1516
I01
sS'go__ALL__'
p1517
I01
sS'!__BOTTOM__'
p1518
I01
sS'at__ALL__'
p1519
I01
sS'succeed__ALL__'
p1520
I01
sS'if__ALL__'
p1521
I01
sS'you__ALL__'
p1522
I01
sS'kill__ALL__'
p1523
I01
sS'first__TOP__'
p1524
I01
sS'no__ALL__'
p1525
I01
sS'succeed__TOP__'
p1526
I01
sS'first__ALL__'
p1527
I01
sS'then__BOTTOM__'
p1528
I01
sS'you__TOP__'
p1529
I01
sS'no__TOP__'
p1530
I01
sS'!__ALL__'
p1531
I01
sS'go__BOTTOM__'
p1532
I01
sS'kill__BOTTOM__'
p1533
I01
sS'yourself__ALL__'
p1534
I01
sS'yourself__BOTTOM__'
p1535
I01
sS'at__TOP__'
p1536
I01
sa(dp1537
S'wit__ALL__'
p1538
I01
sS'wit__BOTTOM__'
p1539
I01
sS'dough__ALL__'
p1540
I01
sS'get__ALL__'
p1541
I01
sS'get__BOTTOM__'
p1542
I01
sS'old__TOP__'
p1543
I01
sS'da__ALL__'
p1544
I01
sS'da__BOTTOM__'
p1545
I01
sS'most__ALL__'
p1546
I01
sS'old__ALL__'
p1547
I01
sS'chines__ALL__'
p1548
I01
sS'cooki__ALL__'
p1549
I01
sS'dough__BOTTOM__'
p1550
I01
sS'proverb:__ALL__'
p1551
I01
sS'most__BOTTOM__'
p1552
I01
sS'chines__TOP__'
p1553
I01
sS'proverb:__TOP__'
p1554
I01
sS'nigga__ALL__'
p1555
I01
sS'nigga__BOTTOM__'
p1556
I01
sS'cooki__BOTTOM__'
p1557
I01
sa(dp1558
S'best__BOTTOM__'
p1559
I01
sS'a__ALL__'
p1560
I01
sS'&__TOP__'
p1561
I01
sS'best__ALL__'
p1562
I01
sS'money__TOP__'
p1563
I01
sS'fool__ALL__'
p1564
I01
sS'a__BOTTOM__'
p1565
I01
sS'money__ALL__'
p1566
I01
sS'a__TOP__'
p1567
I01
sS'&__ALL__'
p1568
I01
sS'girl__ALL__'
p1569
I01
sS'friend__BOTTOM__'
p1570
I01
sS'hi__ALL__'
p1571
I01
sS'girl__BOTTOM__'
p1572
I01
sS'friend__ALL__'
p1573
I01
sS'hi__TOP__'
p1574
I01
sS'r__BOTTOM__'
p1575
I01
sS'fool__TOP__'
p1576
I01
sS'r__ALL__'
p1577
I01
sa(dp1578
S'result__ALL__'
p1579
I01
sS'thing__TOP__'
p1580
I01
sS'get__BOTTOM__'
p1581
I01
sS'same__TOP__'
p1582
I01
sS'get__ALL__'
p1583
I01
sS'as__TOP__'
p1584
I01
sS'befor__TOP__'
p1585
I01
sS'same__BOTTOM__'
p1586
I01
sS'thing__ALL__'
p1587
I01
sS'same__ALL__'
p1588
I01
sS'befor__ALL__'
p1589
I01
sS'as__ALL__'
p1590
I01
sS'result__BOTTOM__'
p1591
I01
sS'do__TOP__'
p1592
I01
sS'do__ALL__'
p1593
I01
sa(dp1594
S'dinner__ALL__'
p1595
I01
sS'cock__ALL__'
p1596
I01
sS'for__BOTTOM__'
p1597
I01
sS'eat__ALL__'
p1598
I01
sS'rais__ALL__'
p1599
I01
sS'cock__BOTTOM__'
p1600
I01
sS'chicken__ALL__'
p1601
I01
sS'who__ALL__'
p1602
I01
sS'man__ALL__'
p1603
I01
sS'man__TOP__'
p1604
I01
sS'rage__BOTTOM__'
p1605
I01
sS'mani__ALL__'
p1606
I01
sS'eat__BOTTOM__'
p1607
I01
sS'who__TOP__'
p1608
I01
sS'chicken__TOP__'
p1609
I01
sS'rage__ALL__'
p1610
I01
sS'rais__TOP__'
p1611
I01
sS'for__ALL__'
p1612
I01
sS'mani__TOP__'
p1613
I01
sS'dinner__BOTTOM__'
p1614
I01
sa(dp1615
S'to__ALL__'
p1616
I01
sS'dick__TOP__'
p1617
I01
sS'to__BOTTOM__'
p1618
I01
sS'get__ALL__'
p1619
I01
sS'get__BOTTOM__'
p1620
I01
sS'my__TOP__'
p1621
I01
sS'off__BOTTOM__'
p1622
I01
sS'off__ALL__'
p1623
I01
sS'say__ALL__'
p1624
I01
sS'my__ALL__'
p1625
I01
sS'peter__BOTTOM__'
p1626
I01
sS'dick__ALL__'
p1627
I01
sS'say__TOP__'
p1628
I01
sS'peter__ALL__'
p1629
I01
sa(dp1630
S'fuck__BOTTOM__'
p1631
I01
sS'fuck__ALL__'
p1632
I01
sS'confuciu__TOP__'
p1633
I01
sS'yourself__ALL__'
p1634
I01
sS'say__ALL__'
p1635
I01
sS'yourself__BOTTOM__'
p1636
I01
sS'say__TOP__'
p1637
I01
sS'goooo__ALL__'
p1638
I01
sS'goooo__BOTTOM__'
p1639
I01
sS'confuciu__ALL__'
p1640
I01
sa(dp1641
S'tire__ALL__'
p1642
I01
sS'in__TOP__'
p1643
I01
sS'get__BOTTOM__'
p1644
I01
sS'tire__BOTTOM__'
p1645
I01
sS'run__TOP__'
p1646
I01
sS'get__ALL__'
p1647
I01
sS'car__ALL__'
p1648
I01
sS'car__TOP__'
p1649
I01
sS'run__ALL__'
p1650
I01
sS'in__ALL__'
p1651
I01
sS'who__ALL__'
p1652
I01
sS'front__ALL__'
p1653
I01
sS'man__TOP__'
p1654
I01
sS'of__TOP__'
p1655
I01
sS'who__TOP__'
p1656
I01
sS'of__ALL__'
p1657
I01
sS'front__TOP__'
p1658
I01
sS'man__ALL__'
p1659
I01
sa(dp1660
S'out__TOP__'
p1661
I01
sS'gay__ALL__'
p1662
I01
sS'burnt__ALL__'
p1663
I01
sS'out__ALL__'
p1664
I01
sS'lifestyl__TOP__'
p1665
I01
sS'each__ALL__'
p1666
I01
sS'shit__ALL__'
p1667
I01
sS'lifestyl__ALL__'
p1668
I01
sS'on__ALL__'
p1669
I01
sS'gay__TOP__'
p1670
I01
sS'bore__BOTTOM__'
p1671
I01
sS'burnt__TOP__'
p1672
I01
sS'faggot__ALL__'
p1673
I01
sS'faggot__TOP__'
p1674
I01
sS'on__TOP__'
p1675
I01
sS'of__BOTTOM__'
p1676
I01
sS'out__BOTTOM__'
p1677
I01
sS'each__BOTTOM__'
p1678
I01
sS'other__ALL__'
p1679
I01
sS'bore__ALL__'
p1680
I01
sS'of__ALL__'
p1681
I01
sS'shit__BOTTOM__'
p1682
I01
sS'other__BOTTOM__'
p1683
I01
sS'the__ALL__'
p1684
I01
sS'the__BOTTOM__'
p1685
I01
sa(dp1686
S'.__ALL__'
p1687
I01
sS'one__BOTTOM__'
p1688
I01
sS'a__ALL__'
p1689
I01
sS'one__TOP__'
p1690
I01
sS'won__BOTTOM__'
p1691
I01
sS'to__ALL__'
p1692
I01
sS'wa__TOP__'
p1693
I01
sS'too__ALL__'
p1694
I01
sS'a__TOP__'
p1695
I01
sS'hors__ALL__'
p1696
I01
sS'to__TOP__'
p1697
I01
sS'one__ALL__'
p1698
I01
sS'hors__TOP__'
p1699
I01
sS'too__TOP__'
p1700
I01
sS'.__TOP__'
p1701
I01
sS'won__ALL__'
p1702
I01
sS'race__BOTTOM__'
p1703
I01
sS'wa__ALL__'
p1704
I01
sS'race__TOP__'
p1705
I01
sS'race__ALL__'
p1706
I01
sa(dp1707
S'experi__BOTTOM__'
p1708
I01
sS'who__ALL__'
p1709
I01
sS'ha__ALL__'
p1710
I01
sS'by__ALL__'
p1711
I01
sS'blow__ALL__'
p1712
I01
sS'struck__ALL__'
p1713
I01
sS'lightn__TOP__'
p1714
I01
sS'blow__BOTTOM__'
p1715
I01
sS'mind__ALL__'
p1716
I01
sS'is__ALL__'
p1717
I01
sS'by__TOP__'
p1718
I01
sS'lightn__ALL__'
p1719
I01
sS'man__TOP__'
p1720
I01
sS'struck__TOP__'
p1721
I01
sS'who__TOP__'
p1722
I01
sS'ha__BOTTOM__'
p1723
I01
sS'is__TOP__'
p1724
I01
sS'experi__ALL__'
p1725
I01
sS'man__ALL__'
p1726
I01
sS'mind__BOTTOM__'
p1727
I01
sa(dp1728
S'solut__ALL__'
p1729
I01
sS'in__ALL__'
p1730
I01
sS'up__BOTTOM__'
p1731
I01
sS'hand__BOTTOM__'
p1732
I01
sS'go__TOP__'
p1733
I01
sS'with__ALL__'
p1734
I01
sS'go__ALL__'
p1735
I01
sS'woman__TOP__'
p1736
I01
sS'solut__BOTTOM__'
p1737
I01
sS'on__ALL__'
p1738
I01
sS'who__ALL__'
p1739
I01
sS'sleep__TOP__'
p1740
I01
sS'who__TOP__'
p1741
I01
sS'problem__TOP__'
p1742
I01
sS'on__TOP__'
p1743
I01
sS'mind__TOP__'
p1744
I01
sS'problem__ALL__'
p1745
I01
sS'man__TOP__'
p1746
I01
sS'in__BOTTOM__'
p1747
I01
sS'hand__ALL__'
p1748
I01
sS'man__ALL__'
p1749
I01
sS'to__ALL__'
p1750
I01
sS'with__TOP__'
p1751
I01
sS'wake__BOTTOM__'
p1752
I01
sS'to__TOP__'
p1753
I01
sS'with__BOTTOM__'
p1754
I01
sS'mind__ALL__'
p1755
I01
sS'up__ALL__'
p1756
I01
sS'sleep__ALL__'
p1757
I01
sS'wake__ALL__'
p1758
I01
sS'woman__ALL__'
p1759
I01
sa(dp1760
S'man__BOTTOM__'
p1761
I01
sS'white__ALL__'
p1762
I01
sS'suit__ALL__'
p1763
I01
sS'wear__ALL__'
p1764
I01
sS'get__BOTTOM__'
p1765
I01
sS'men__BOTTOM__'
p1766
I01
sS'get__ALL__'
p1767
I01
sS'suit__TOP__'
p1768
I01
sS'is__ALL__'
p1769
I01
sS'who__ALL__'
p1770
I01
sS'man__TOP__'
p1771
I01
sS'white__TOP__'
p1772
I01
sS'mani__ALL__'
p1773
I01
sS'who__TOP__'
p1774
I01
sS'wear__TOP__'
p1775
I01
sS'men__ALL__'
p1776
I01
sS'who__BOTTOM__'
p1777
I01
sS'is__BOTTOM__'
p1778
I01
sS'mani__BOTTOM__'
p1779
I01
sS'man__ALL__'
p1780
I01
sa(dp1781
S'play__TOP__'
p1782
I01
sS'h.o.n__TOP__'
p1783
I01
sS'one__TOP__'
p1784
I01
sS'most__BOTTOM__'
p1785
I01
sS'h.o.n__ALL__'
p1786
I01
sS'dick__ALL__'
p1787
I01
sS'most__ALL__'
p1788
I01
sS'one__ALL__'
p1789
I01
sS'dick__BOTTOM__'
p1790
I01
sS'eat__ALL__'
p1791
I01
sS'who__ALL__'
p1792
I01
sS'eat__BOTTOM__'
p1793
I01
sS'who__TOP__'
p1794
I01
sS'play__ALL__'
p1795
I01
sS'.__ALL__'
p1796
I01
sS'.__TOP__'
p1797
I01
sa(dp1798
S'rebel__TOP__'
p1799
I01
sS'idea__BOTTOM__'
p1800
I01
sS'mean__BOTTOM__'
p1801
I01
sS'0r__ALL__'
p1802
I01
sS'what__ALL__'
p1803
I01
sS'minecraft__TOP__'
p1804
I01
sS'no__BOTTOM__'
p1805
I01
sS'either__ALL__'
p1806
I01
sS'rebel__BOTTOM__'
p1807
I01
sS'either__TOP__'
p1808
I01
sS'hous__ALL__'
p1809
I01
sS'0r__TOP__'
p1810
I01
sS'no__ALL__'
p1811
I01
sS'minecraft__ALL__'
p1812
I01
sS'what__BOTTOM__'
p1813
I01
sS'my__TOP__'
p1814
I01
sS'mean__ALL__'
p1815
I01
sS'ive__ALL__'
p1816
I01
sS'is__ALL__'
p1817
I01
sS'ive__BOTTOM__'
p1818
I01
sS'my__ALL__'
p1819
I01
sS'is__TOP__'
p1820
I01
sS'idea__ALL__'
p1821
I01
sS'hous__TOP__'
p1822
I01
sS'rebel__ALL__'
p1823
I01
sa(dp1824
S'is__ALL__'
p1825
I01
sS'becaus__BOTTOM__'
p1826
I01
sS'japanes__BOTTOM__'
p1827
I01
sS'just__BOTTOM__'
p1828
I01
sS'confuciu__TOP__'
p1829
I01
sS'just__ALL__'
p1830
I01
sS'becaus__ALL__'
p1831
I01
sS'say__ALL__'
p1832
I01
sS'say__TOP__'
p1833
I01
sS'japanes__ALL__'
p1834
I01
sS'is__BOTTOM__'
p1835
I01
sS'confuciu__ALL__'
p1836
I01
sa(dp1837
S'bitch__BOTTOM__'
p1838
I01
sS'fuck__ALL__'
p1839
I01
sS'fuck__BOTTOM__'
p1840
I01
sS'god__TOP__'
p1841
I01
sS'my__ALL__'
p1842
I01
sS'god__ALL__'
p1843
I01
sS'my__BOTTOM__'
p1844
I01
sS'base__TOP__'
p1845
I01
sS'bitch__ALL__'
p1846
I01
sS'base__ALL__'
p1847
I01
sa(dp1848
S'get__ALL__'
p1849
I01
sS'in__TOP__'
p1850
I01
sS'get__BOTTOM__'
p1851
I01
sS'get__TOP__'
p1852
I01
sS'block__ALL__'
p1853
I01
sS'block__BOTTOM__'
p1854
I01
sS'kill__TOP__'
p1855
I01
sS'in__ALL__'
p1856
I01
sS'who__ALL__'
p1857
I01
sS'man__TOP__'
p1858
I01
sS'minecraft__ALL__'
p1859
I01
sS'who__TOP__'
p1860
I01
sS'kill__ALL__'
p1861
I01
sS'minecraft__TOP__'
p1862
I01
sS'man__ALL__'
p1863
I01
sa(dp1864
S'to__ALL__'
p1865
I01
sS'!__ALL__'
p1866
I01
sS'to__BOTTOM__'
p1867
I01
sS'machin__TOP__'
p1868
I01
sS'enjoy__BOTTOM__'
p1869
I01
sS'!__BOTTOM__'
p1870
I01
sS'way__ALL__'
p1871
I01
sS'problem__ALL__'
p1872
I01
sS'life__ALL__'
p1873
I01
sS'enjoy__ALL__'
p1874
I01
sS'way__BOTTOM__'
p1875
I01
sS'problem__TOP__'
p1876
I01
sS'your__ALL__'
p1877
I01
sS'your__BOTTOM__'
p1878
I01
sS'life__BOTTOM__'
p1879
I01
sS'machin__ALL__'
p1880
I01
sa(dp1881
S'man__BOTTOM__'
p1882
I01
sS'imposs__TOP__'
p1883
I01
sS'up__BOTTOM__'
p1884
I01
sS'pant__ALL__'
p1885
I01
sS'pant__BOTTOM__'
p1886
I01
sS'than__ALL__'
p1887
I01
sS'skirt__BOTTOM__'
p1888
I01
sS'rape__TOP__'
p1889
I01
sS'with__ALL__'
p1890
I01
sS'rape__ALL__'
p1891
I01
sS'faster__ALL__'
p1892
I01
sS'than__BOTTOM__'
p1893
I01
sS'down__BOTTOM__'
p1894
I01
sS'skirt__ALL__'
p1895
I01
sS'man__ALL__'
p1896
I01
sS'faster__BOTTOM__'
p1897
I01
sS'imposs__ALL__'
p1898
I01
sS'with__BOTTOM__'
p1899
I01
sS'up__ALL__'
p1900
I01
sS'down__ALL__'
p1901
I01
sS'woman__BOTTOM__'
p1902
I01
sS'woman__ALL__'
p1903
I01
sa(dp1904
S'is__ALL__'
p1905
I01
sS'confuciu__ALL__'
p1906
I01
sS'most__TOP__'
p1907
I01
sS'epic__ALL__'
p1908
I01
sS'most__ALL__'
p1909
I01
sS'the__TOP__'
p1910
I01
sS'epic__TOP__'
p1911
I01
sS'is__TOP__'
p1912
I01
sS'of__TOP__'
p1913
I01
sS'the__ALL__'
p1914
I01
sS'of__ALL__'
p1915
I01
sS'confuciu__BOTTOM__'
p1916
I01
sS'quiet__BOTTOM__'
p1917
I01
sS'quiet__ALL__'
p1918
I01
sa(dp1919
S'hey__ALL__'
p1920
I01
sS'hey__BOTTOM__'
p1921
I01
sS'say__ALL__'
p1922
I01
sS'say__TOP__'
p1923
I01
sS'alejandro__ALL__'
p1924
I01
sS'alejandro__TOP__'
p1925
I01
sa(dp1926
S'glu__BOTTOM__'
p1927
I01
sS'my__BOTTOM__'
p1928
I01
sS'friend__ALL__'
p1929
I01
sS'super__ALL__'
p1930
I01
sS'pube__BOTTOM__'
p1931
I01
sS'pube__ALL__'
p1932
I01
sS'on__ALL__'
p1933
I01
sS'face__ALL__'
p1934
I01
sS'face__BOTTOM__'
p1935
I01
sS'wa__ALL__'
p1936
I01
sS'i__ALL__'
p1937
I01
sS'friend__BOTTOM__'
p1938
I01
sS'when__ALL__'
p1939
I01
sS'young__ALL__'
p1940
I01
sS'when__TOP__'
p1941
I01
sS'super__BOTTOM__'
p1942
I01
sS'their__ALL__'
p1943
I01
sS'i__TOP__'
p1944
I01
sS'young__TOP__'
p1945
I01
sS'wa__TOP__'
p1946
I01
sS'glu__ALL__'
p1947
I01
sS'my__ALL__'
p1948
I01
sS'on__BOTTOM__'
p1949
I01
sS'their__BOTTOM__'
p1950
I01
sa(dp1951
S'firm__BOTTOM__'
p1952
I01
sS'in__ALL__'
p1953
I01
sS'masterb__ALL__'
p1954
I01
sS'ha__ALL__'
p1955
I01
sS'grasp__BOTTOM__'
p1956
I01
sS'who__ALL__'
p1957
I01
sS'who__TOP__'
p1958
I01
sS'of__ALL__'
p1959
I01
sS'of__BOTTOM__'
p1960
I01
sS'penal__BOTTOM__'
p1961
I01
sS'penal__ALL__'
p1962
I01
sS'firm__ALL__'
p1963
I01
sS'court__TOP__'
p1964
I01
sS'grasp__ALL__'
p1965
I01
sS'man__TOP__'
p1966
I01
sS'ha__BOTTOM__'
p1967
I01
sS'man__ALL__'
p1968
I01
sS'system__BOTTOM__'
p1969
I01
sS'court__ALL__'
p1970
I01
sS'in__TOP__'
p1971
I01
sS'system__ALL__'
p1972
I01
sS'masterb__TOP__'
p1973
I01
sa(dp1974
S'who__ALL__'
p1975
I01
sS'get__ALL__'
p1976
I01
sS'point__ALL__'
p1977
I01
sS'sit__ALL__'
p1978
I01
sS'get__BOTTOM__'
p1979
I01
sS'sit__TOP__'
p1980
I01
sS'tack__ALL__'
p1981
I01
sS'point__BOTTOM__'
p1982
I01
sS'man__TOP__'
p1983
I01
sS'on__ALL__'
p1984
I01
sS'who__TOP__'
p1985
I01
sS'tack__TOP__'
p1986
I01
sS'on__TOP__'
p1987
I01
sS'man__ALL__'
p1988
I01
sa(dp1989
S'dont__ALL__'
p1990
I01
sS'i__TOP__'
p1991
I01
sS'ident__TOP__'
p1992
I01
sS'rememb__TOP__'
p1993
I01
sS'dont__TOP__'
p1994
I01
sS'my__TOP__'
p1995
I01
sS'am__BOTTOM__'
p1996
I01
sS'confus__ALL__'
p1997
I01
sS'am__ALL__'
p1998
I01
sS'i__BOTTOM__'
p1999
I01
sS'my__ALL__'
p2000
I01
sS'ident__ALL__'
p2001
I01
sS'rememb__ALL__'
p2002
I01
sS'i__ALL__'
p2003
I01
sS'confus__BOTTOM__'
p2004
I01
sa(dp2005
S'rep__TOP__'
p2006
I01
sS'man__BOTTOM__'
p2007
I01
sS'peni__ALL__'
p2008
I01
sS'have__TOP__'
p2009
I01
sS'littl__ALL__'
p2010
I01
sS'peni__BOTTOM__'
p2011
I01
sS'rep__ALL__'
p2012
I01
sS'have__ALL__'
p2013
I01
sS'is__ALL__'
p2014
I01
sS'littl__BOTTOM__'
p2015
I01
sS'littl__TOP__'
p2016
I01
sS'who__ALL__'
p2017
I01
sS'man__TOP__'
p2018
I01
sS'who__TOP__'
p2019
I01
sS'have__BOTTOM__'
p2020
I01
sS'who__BOTTOM__'
p2021
I01
sS'is__BOTTOM__'
p2022
I01
sS'man__ALL__'
p2023
I01
sa(dp2024
S'over__ALL__'
p2025
I01
sS'get__ALL__'
p2026
I01
sS'over__BOTTOM__'
p2027
I01
sS'a__BOTTOM__'
p2028
I01
sS'get__BOTTOM__'
p2029
I01
sS'fuck__ALL__'
p2030
I01
sS'fuck__BOTTOM__'
p2031
I01
sS'knee__ALL__'
p2032
I01
sS'on__ALL__'
p2033
I01
sS'a__ALL__'
p2034
I01
sS'on__TOP__'
p2035
I01
sS'live__TOP__'
p2036
I01
sS'who__ALL__'
p2037
I01
sS'man__TOP__'
p2038
I01
sS'live__ALL__'
p2039
I01
sS'lot__BOTTOM__'
p2040
I01
sS'who__TOP__'
p2041
I01
sS'knee__TOP__'
p2042
I01
sS'lot__ALL__'
p2043
I01
sS'man__ALL__'
p2044
I01
sa(dp2045
S'to__BOTTOM__'
p2046
I01
sS'a__TOP__'
p2047
I01
sS'in__ALL__'
p2048
I01
sS'work__BOTTOM__'
p2049
I01
sS'day__ALL__'
p2050
I01
sS'and__ALL__'
p2051
I01
sS'will__ALL__'
p2052
I01
sS'and__BOTTOM__'
p2053
I01
sS'your__BOTTOM__'
p2054
I01
sS'have__ALL__'
p2055
I01
sS'a__ALL__'
p2056
I01
sS'choos__TOP__'
p2057
I01
sS'never__BOTTOM__'
p2058
I01
sS'job__ALL__'
p2059
I01
sS'you__ALL__'
p2060
I01
sS'you__BOTTOM__'
p2061
I01
sS'choos__ALL__'
p2062
I01
sS'love__ALL__'
p2063
I01
sS'you__TOP__'
p2064
I01
sS'in__BOTTOM__'
p2065
I01
sS'have__BOTTOM__'
p2066
I01
sS'job__TOP__'
p2067
I01
sS'your__ALL__'
p2068
I01
sS'love__TOP__'
p2069
I01
sS'to__ALL__'
p2070
I01
sS'will__BOTTOM__'
p2071
I01
sS'a__BOTTOM__'
p2072
I01
sS'never__ALL__'
p2073
I01
sS'day__BOTTOM__'
p2074
I01
sS'work__ALL__'
p2075
I01
sS'life__ALL__'
p2076
I01
sS'life__BOTTOM__'
p2077
I01
sa(dp2078
S'must__ALL__'
p2079
I01
sS'shit__ALL__'
p2080
I01
sS'poor__ALL__'
p2081
I01
sS'poor__BOTTOM__'
p2082
I01
sS'must__BOTTOM__'
p2083
I01
sS'feel__ALL__'
p2084
I01
sS'feel__BOTTOM__'
p2085
I01
sS'you__ALL__'
p2086
I01
sS'you__BOTTOM__'
p2087
I01
sS'shit__TOP__'
p2088
I01
sa(dp2089
S'itchi__TOP__'
p2090
I01
sS'up__BOTTOM__'
p2091
I01
sS'goe__TOP__'
p2092
I01
sS'finger__BOTTOM__'
p2093
I01
sS'sleep__TOP__'
p2094
I01
sS'with__ALL__'
p2095
I01
sS'with__TOP__'
p2096
I01
sS'wake__BOTTOM__'
p2097
I01
sS'itchi__ALL__'
p2098
I01
sS'who__ALL__'
p2099
I01
sS'who__TOP__'
p2100
I01
sS'man__TOP__'
p2101
I01
sS'buttonhol__TOP__'
p2102
I01
sS'goe__ALL__'
p2103
I01
sS'man__ALL__'
p2104
I01
sS'to__ALL__'
p2105
I01
sS'finger__ALL__'
p2106
I01
sS'smelli__ALL__'
p2107
I01
sS'to__TOP__'
p2108
I01
sS'with__BOTTOM__'
p2109
I01
sS'up__ALL__'
p2110
I01
sS'sleep__ALL__'
p2111
I01
sS'smelli__BOTTOM__'
p2112
I01
sS'wake__ALL__'
p2113
I01
sS'buttonhol__ALL__'
p2114
I01
sa(dp2115
S'?__ALL__'
p2116
I01
sS'?__BOTTOM__'
p2117
I01
sS'chines__ALL__'
p2118
I01
sS'are__ALL__'
p2119
I01
sS'confuciu__TOP__'
p2120
I01
sS'chines__BOTTOM__'
p2121
I01
sS'are__BOTTOM__'
p2122
I01
sS'say__ALL__'
p2123
I01
sS'learn__BOTTOM__'
p2124
I01
sS'you__ALL__'
p2125
I01
sS'say__TOP__'
p2126
I01
sS'you__BOTTOM__'
p2127
I01
sS'learn__ALL__'
p2128
I01
sS'confuciu__ALL__'
p2129
I01
sa(dp2130
S'like__ALL__'
p2131
I01
sS'like__BOTTOM__'
p2132
I01
sS'jack__ALL__'
p2133
I01
sS'cock__ALL__'
p2134
I01
sS'barker__BOTTOM__'
p2135
I01
sS'cock__BOTTOM__'
p2136
I01
sS'say__ALL__'
p2137
I01
sS'connfuci__TOP__'
p2138
I01
sS'jack__BOTTOM__'
p2139
I01
sS'say__TOP__'
p2140
I01
sS'connfuci__ALL__'
p2141
I01
sS'barker__ALL__'
p2142
I01
sa(dp2143
S'to__BOTTOM__'
p2144
I01
sS'in__ALL__'
p2145
I01
sS'park__BOTTOM__'
p2146
I01
sS'it__TOP__'
p2147
I01
sS'good__ALL__'
p2148
I01
sS'park__ALL__'
p2149
I01
sS'girl__BOTTOM__'
p2150
I01
sS'park__TOP__'
p2151
I01
sS'meet__TOP__'
p2152
I01
sS'meat__ALL__'
p2153
I01
sS'girl__TOP__'
p2154
I01
sS'good__TOP__'
p2155
I01
sS'better__ALL__'
p2156
I01
sS'girl__ALL__'
p2157
I01
sS'in__BOTTOM__'
p2158
I01
sS'meet__ALL__'
p2159
I01
sS'to__ALL__'
p2160
I01
sS'meat__BOTTOM__'
p2161
I01
sS'in__TOP__'
p2162
I01
sS'to__TOP__'
p2163
I01
sS'better__BOTTOM__'
p2164
I01
sS'it__ALL__'
p2165
I01
sa(dp2166
S'peopl__ALL__'
p2167
I01
sS'feel__TOP__'
p2168
I01
sS'?__ALL__'
p2169
I01
sS'?__BOTTOM__'
p2170
I01
sS'can__ALL__'
p2171
I01
sS'deaf__ALL__'
p2172
I01
sS'can__BOTTOM__'
p2173
I01
sS'is__ALL__'
p2174
I01
sS'peopl__BOTTOM__'
p2175
I01
sS'feel__BOTTOM__'
p2176
I01
sS'is__TOP__'
p2177
I01
sS'hear__TOP__'
p2178
I01
sS'if__ALL__'
p2179
I01
sS'hear__ALL__'
p2180
I01
sS'if__TOP__'
p2181
I01
sS'feel__ALL__'
p2182
I01
sS'deaf__BOTTOM__'
p2183
I01
sa(dp2184
S'who__ALL__'
p2185
I01
sS'cock__ALL__'
p2186
I01
sS'ha__ALL__'
p2187
I01
sS'eat__ALL__'
p2188
I01
sS'eat__TOP__'
p2189
I01
sS'who__TOP__'
p2190
I01
sS'cock__BOTTOM__'
p2191
I01
sS'chicken__ALL__'
p2192
I01
sS'ha__BOTTOM__'
p2193
I01
sS'man__TOP__'
p2194
I01
sS'no__TOP__'
p2195
I01
sS'chicken__TOP__'
p2196
I01
sS'no__ALL__'
p2197
I01
sS'littl__ALL__'
p2198
I01
sS'littl__BOTTOM__'
p2199
I01
sS'man__ALL__'
p2200
I01
sa(dp2201
S'stank__ALL__'
p2202
I01
sS'stank__BOTTOM__'
p2203
I01
sS'i__TOP__'
p2204
I01
sS'lol__ALL__'
p2205
I01
sS'kenneth__ALL__'
p2206
I01
sS'kenneth__TOP__'
p2207
I01
sS'i__ALL__'
p2208
I01
sS'dame__ALL__'
p2209
I01
sS'dame__BOTTOM__'
p2210
I01
sS'lol__BOTTOM__'
p2211
I01
sS'do__ALL__'
p2212
I01
sS'smell__TOP__'
p2213
I01
sS'you__ALL__'
p2214
I01
sS'you__BOTTOM__'
p2215
I01
sS'do__TOP__'
p2216
I01
sS'smell__ALL__'
p2217
I01
sa(dp2218
S'feel__BOTTOM__'
p2219
I01
sS'ball__TOP__'
p2220
I01
sS'touch__ALL__'
p2221
I01
sS'feel__ALL__'
p2222
I01
sS'ball__ALL__'
p2223
I01
sS'ballsi__ALL__'
p2224
I01
sS'who__ALL__'
p2225
I01
sS'ballsi__BOTTOM__'
p2226
I01
sS'man__TOP__'
p2227
I01
sS'who__TOP__'
p2228
I01
sS'touch__TOP__'
p2229
I01
sS'man__ALL__'
p2230
I01
sa(dp2231
S'mi__ALL__'
p2232
I01
sS'and__ALL__'
p2233
I01
sS'mi__BOTTOM__'
p2234
I01
sS'yu__TOP__'
p2235
I01
sS'he__ALL__'
p2236
I01
sS'im__ALL__'
p2237
I01
sS'yu__ALL__'
p2238
I01
sS'is__ALL__'
p2239
I01
sS'im__TOP__'
p2240
I01
sS'and__BOTTOM__'
p2241
I01
sS'he__BOTTOM__'
p2242
I01
sS'is__BOTTOM__'
p2243
I01
sa(dp2244
S'yo__ALL__'
p2245
I01
sS'fool__ALL__'
p2246
I01
sS'yo__TOP__'
p2247
I01
sS'fool__BOTTOM__'
p2248
I01
sS'as__TOP__'
p2249
I01
sS'cap__ALL__'
p2250
I01
sS'cap__TOP__'
p2251
I01
sS'as__ALL__'
p2252
I01
sa(dp2253
S'street__TOP__'
p2254
I01
sS'for__BOTTOM__'
p2255
I01
sS'street__ALL__'
p2256
I01
sS'corolla__BOTTOM__'
p2257
I01
sS'it__BOTTOM__'
p2258
I01
sS'corolla__ALL__'
p2259
I01
sS'it__ALL__'
p2260
I01
sS'onli__ALL__'
p2261
I01
sS'race__TOP__'
p2262
I01
sS'for__ALL__'
p2263
I01
sS'onli__BOTTOM__'
p2264
I01
sS'race__ALL__'
p2265
I01
sa(dp2266
S'have__ALL__'
p2267
I01
sS'crack__ALL__'
p2268
I01
sS'woman__TOP__'
p2269
I01
sS'stand__TOP__'
p2270
I01
sS'who__TOP__'
p2271
I01
sS'up__BOTTOM__'
p2272
I01
sS'who__ALL__'
p2273
I01
sS'perfrom__TOP__'
p2274
I01
sS'up__ALL__'
p2275
I01
sS'hand__TOP__'
p2276
I01
sS'crack__BOTTOM__'
p2277
I01
sS'have__BOTTOM__'
p2278
I01
sS'hand__ALL__'
p2279
I01
sS'perfrom__ALL__'
p2280
I01
sS'stand__ALL__'
p2281
I01
sS'woman__ALL__'
p2282
I01
sa(dp2283
S'man__BOTTOM__'
p2284
I01
sS'stress__ALL__'
p2285
I01
sS'bong__ALL__'
p2286
I01
sS'need__BOTTOM__'
p2287
I01
sS'toke__BOTTOM__'
p2288
I01
sS'confuciu__TOP__'
p2289
I01
sS'bong__BOTTOM__'
p2290
I01
sS'say__ALL__'
p2291
I01
sS'who__ALL__'
p2292
I01
sS'stress__BOTTOM__'
p2293
I01
sS'toke__ALL__'
p2294
I01
sS'say__TOP__'
p2295
I01
sS'need__ALL__'
p2296
I01
sS'who__BOTTOM__'
p2297
I01
sS'confuciu__ALL__'
p2298
I01
sS'man__ALL__'
p2299
I01
sa(dp2300
S'one__TOP__'
p2301
I01
sS'time__BOTTOM__'
p2302
I01
sS'watch__TOP__'
p2303
I01
sS'in__TOP__'
p2304
I01
sS'toilet__ALL__'
p2305
I01
sS'drop__ALL__'
p2306
I01
sS'ha__ALL__'
p2307
I01
sS'toilet__TOP__'
p2308
I01
sS'watch__ALL__'
p2309
I01
sS'one__ALL__'
p2310
I01
sS'who__ALL__'
p2311
I01
sS'drop__TOP__'
p2312
I01
sS'shitti__BOTTOM__'
p2313
I01
sS'who__TOP__'
p2314
I01
sS'ha__BOTTOM__'
p2315
I01
sS'shitti__ALL__'
p2316
I01
sS'in__ALL__'
p2317
I01
sS'time__ALL__'
p2318
I01
sa(dp2319
S'last..__ALL__'
p2320
I01
sS'slowest__BOTTOM__'
p2321
I01
sS'one__TOP__'
p2322
I01
sS'laugh__ALL__'
p2323
I01
sS'think__ALL__'
p2324
I01
sS'laugh__TOP__'
p2325
I01
sS'last..__TOP__'
p2326
I01
sS'think__BOTTOM__'
p2327
I01
sS'one__ALL__'
p2328
I01
sS'the__TOP__'
p2329
I01
sS'who__ALL__'
p2330
I01
sS'who__TOP__'
p2331
I01
sS'the__ALL__'
p2332
I01
sS'slowest__ALL__'
p2333
I01
sa(dp2334
S'not__TOP__'
p2335
I01
sS'wait__TOP__'
p2336
I01
sS'not__ALL__'
p2337
I01
sS'wait__ALL__'
p2338
I01
sS'wok__ALL__'
p2339
I01
sS'wok__BOTTOM__'
p2340
I01
sS'want__BOTTOM__'
p2341
I01
sS'want__ALL__'
p2342
I01
sa(dp2343
S'who__ALL__'
p2344
I01
sS'no__ALL__'
p2345
I01
sS'sorri__TOP__'
p2346
I01
sS'real__ALL__'
p2347
I01
sS'spam__ALL__'
p2348
I01
sS'sorri__ALL__'
p2349
I01
sS'real__BOTTOM__'
p2350
I01
sS'but__BOTTOM__'
p2351
I01
sS'say__ALL__'
p2352
I01
sS'sorri__BOTTOM__'
p2353
I01
sS'man__TOP__'
p2354
I01
sS'for__TOP__'
p2355
I01
sS'but__ALL__'
p2356
I01
sS'who__TOP__'
p2357
I01
sS'say__TOP__'
p2358
I01
sS'no__BOTTOM__'
p2359
I01
sS'man__ALL__'
p2360
I01
sS'for__ALL__'
p2361
I01
sS'spam__TOP__'
p2362
I01
sa(dp2363
S'!__ALL__'
p2364
I01
sS'?__ALL__'
p2365
I01
sS'clan__ALL__'
p2366
I01
sS'not__TOP__'
p2367
I01
sS'in__TOP__'
p2368
I01
sS'clan__TOP__'
p2369
I01
sS'!__BOTTOM__'
p2370
I01
sS'rank__TOP__'
p2371
I01
sS'harder__ALL__'
p2372
I01
sS'harder__BOTTOM__'
p2373
I01
sS'?__TOP__'
p2374
I01
sS'tri__ALL__'
p2375
I01
sS'rank__ALL__'
p2376
I01
sS'tri__BOTTOM__'
p2377
I01
sS'in__ALL__'
p2378
I01
sS'not__ALL__'
p2379
I01
sa(dp2380
S'weifang__BOTTOM__'
p2381
I01
sS'weifang__ALL__'
p2382
I01
sS'call__BOTTOM__'
p2383
I01
sS'me__BOTTOM__'
p2384
I01
sS'me__ALL__'
p2385
I01
sS'ladi__ALL__'
p2386
I01
sS'ladi__TOP__'
p2387
I01
sS'call__ALL__'
p2388
I01
sa(dp2389
S'rout__ALL__'
p2390
I01
sS'22__TOP__'
p2391
I01
sS'and__ALL__'
p2392
I01
sS'20__ALL__'
p2393
I01
sS'at__ALL__'
p2394
I01
sS'and__TOP__'
p2395
I01
sS'out__ALL__'
p2396
I01
sS'top__BOTTOM__'
p2397
I01
sS'top__ALL__'
p2398
I01
sS'who__ALL__'
p2399
I01
sS'student__ALL__'
p2400
I01
sS'stair__BOTTOM__'
p2401
I01
sS'who__TOP__'
p2402
I01
sS'of__ALL__'
p2403
I01
sS'of__BOTTOM__'
p2404
I01
sS'out__BOTTOM__'
p2405
I01
sS'20__TOP__'
p2406
I01
sS'breath__ALL__'
p2407
I01
sS'take__ALL__'
p2408
I01
sS'student__TOP__'
p2409
I01
sS'22__ALL__'
p2410
I01
sS'breath__BOTTOM__'
p2411
I01
sS'stair__ALL__'
p2412
I01
sS'rout__TOP__'
p2413
I01
sS'take__TOP__'
p2414
I01
sS'at__BOTTOM__'
p2415
I01
sa(dp2416
S'tejaswi__BOTTOM__'
p2417
I01
sS'god__TOP__'
p2418
I01
sS'is__ALL__'
p2419
I01
sS'who__ALL__'
p2420
I01
sS'man__TOP__'
p2421
I01
sS'is__TOP__'
p2422
I01
sS'god__ALL__'
p2423
I01
sS'who__TOP__'
p2424
I01
sS'tejaswi__ALL__'
p2425
I01
sS'is__BOTTOM__'
p2426
I01
sS'man__ALL__'
p2427
I01
sa(dp2428
S'eventu__BOTTOM__'
p2429
I01
sS'come__ALL__'
p2430
I01
sS'circl__ALL__'
p2431
I01
sS'in__TOP__'
p2432
I01
sS'circl__TOP__'
p2433
I01
sS'around__BOTTOM__'
p2434
I01
sS'jerk__ALL__'
p2435
I01
sS'come__BOTTOM__'
p2436
I01
sS'who__ALL__'
p2437
I01
sS'man__TOP__'
p2438
I01
sS'jerk__TOP__'
p2439
I01
sS'around__ALL__'
p2440
I01
sS'who__TOP__'
p2441
I01
sS'eventu__ALL__'
p2442
I01
sS'in__ALL__'
p2443
I01
sS'man__ALL__'
p2444
I01
sa(dp2445
S'is__ALL__'
p2446
I01
sS'damn__BOTTOM__'
p2447
I01
sS'too__ALL__'
p2448
I01
sS'confuciu__TOP__'
p2449
I01
sS'too__BOTTOM__'
p2450
I01
sS'is__BOTTOM__'
p2451
I01
sS'say__ALL__'
p2452
I01
sS'the__ALL__'
p2453
I01
sS'small__ALL__'
p2454
I01
sS'say__TOP__'
p2455
I01
sS'the__BOTTOM__'
p2456
I01
sS'damn__ALL__'
p2457
I01
sS'shed__ALL__'
p2458
I01
sS'shed__BOTTOM__'
p2459
I01
sS'confuciu__ALL__'
p2460
I01
sS'small__BOTTOM__'
p2461
I01
sa(dp2462
S'man__BOTTOM__'
p2463
I01
sS'sideway__BOTTOM__'
p2464
I01
sS'walk__ALL__'
p2465
I01
sS'through__ALL__'
p2466
I01
sS'airport__ALL__'
p2467
I01
sS'who__BOTTOM__'
p2468
I01
sS'turnstil__ALL__'
p2469
I01
sS'say__ALL__'
p2470
I01
sS'who__ALL__'
p2471
I01
sS'turnstil__BOTTOM__'
p2472
I01
sS'airport__BOTTOM__'
p2473
I01
sS'say__TOP__'
p2474
I01
sS'confuci__ALL__'
p2475
I01
sS'through__BOTTOM__'
p2476
I01
sS'walk__BOTTOM__'
p2477
I01
sS'sideway__ALL__'
p2478
I01
sS'confuci__TOP__'
p2479
I01
sS'man__ALL__'
p2480
I01
sa(dp2481
S'hate__ALL__'
p2482
I01
sS'hate__TOP__'
p2483
I01
sS'fuck__ALL__'
p2484
I01
sS'fuck__BOTTOM__'
p2485
I01
sS'someon__ALL__'
p2486
I01
sS'you__TOP__'
p2487
I01
sS'someon__TOP__'
p2488
I01
sS'when__ALL__'
p2489
I01
sS'when__TOP__'
p2490
I01
sS'you__ALL__'
p2491
I01
sS'them__ALL__'
p2492
I01
sS'them__BOTTOM__'
p2493
I01
sa(dp2494
S'name__ALL__'
p2495
I01
sS'richard__ALL__'
p2496
I01
sS'name__TOP__'
p2497
I01
sS'my__TOP__'
p2498
I01
sS'is__ALL__'
p2499
I01
sS'my__ALL__'
p2500
I01
sS'is__TOP__'
p2501
I01
sS'bolter__BOTTOM__'
p2502
I01
sS'bolter__ALL__'
p2503
I01
sS'richard__BOTTOM__'
p2504
I01
sa(dp2505
S'.__BOTTOM__'
p2506
I01
sS'say__ALL__'
p2507
I01
sS'.__ALL__'
p2508
I01
sS'confuciu__TOP__'
p2509
I01
sS'one__ALL__'
p2510
I01
sS'one__BOTTOM__'
p2511
I01
sS'play__ALL__'
p2512
I01
sS'who__ALL__'
p2513
I01
sS'h.o.n__ALL__'
p2514
I01
sS'h.o.n__BOTTOM__'
p2515
I01
sS'say__TOP__'
p2516
I01
sS'who__BOTTOM__'
p2517
I01
sS'play__BOTTOM__'
p2518
I01
sS'confuciu__ALL__'
p2519
I01
sa(dp2520
S'fix__TOP__'
p2521
I01
sS'a__ALL__'
p2522
I01
sS'machin__TOP__'
p2523
I01
sS'fix__ALL__'
p2524
I01
sS'a__TOP__'
p2525
I01
sS'work__BOTTOM__'
p2526
I01
sS'it__BOTTOM__'
p2527
I01
sS'it__ALL__'
p2528
I01
sS'work__ALL__'
p2529
I01
sS'machin__ALL__'
p2530
I01
sa(dp2531
S'grandpar__BOTTOM__'
p2532
I01
sS'to__BOTTOM__'
p2533
I01
sS'a__TOP__'
p2534
I01
sS'your__BOTTOM__'
p2535
I01
sS'a__ALL__'
p2536
I01
sS'go__ALL__'
p2537
I01
sS'!__BOTTOM__'
p2538
I01
sS'back__ALL__'
p2539
I01
sS'china__ALL__'
p2540
I01
sS'you__ALL__'
p2541
I01
sS'you__BOTTOM__'
p2542
I01
sS'back__BOTTOM__'
p2543
I01
sS'no__ALL__'
p2544
I01
sS'get__ALL__'
p2545
I01
sS'!__TOP__'
p2546
I01
sS'with__ALL__'
p2547
I01
sS'you__TOP__'
p2548
I01
sS'china__BOTTOM__'
p2549
I01
sS'no__TOP__'
p2550
I01
sS'your__ALL__'
p2551
I01
sS'grandpar__ALL__'
p2552
I01
sS'to__ALL__'
p2553
I01
sS'!__ALL__'
p2554
I01
sS'go__BOTTOM__'
p2555
I01
sS'get__TOP__'
p2556
I01
sS'with__BOTTOM__'
p2557
I01
sa(dp2558
S'to__ALL__'
p2559
I01
sS'that__ALL__'
p2560
I01
sS'explod__BOTTOM__'
p2561
I01
sS'peopl__TOP__'
p2562
I01
sS'to__BOTTOM__'
p2563
I01
sS'bore__TOP__'
p2564
I01
sS'peopl__ALL__'
p2565
I01
sS'to__TOP__'
p2566
I01
sS'explod__ALL__'
p2567
I01
sS'bore__ALL__'
p2568
I01
sS'brain__ALL__'
p2569
I01
sS'ot__TOP__'
p2570
I01
sS'bound__BOTTOM__'
p2571
I01
sS'bound__ALL__'
p2572
I01
sS'ot__ALL__'
p2573
I01
sS'have__BOTTOM__'
p2574
I01
sS'brain__BOTTOM__'
p2575
I01
sS'go__ALL__'
p2576
I01
sS'have__ALL__'
p2577
I01
sS'go__TOP__'
p2578
I01
sS'that__TOP__'
p2579
I01
sa(dp2580
S'ciggi__ALL__'
p2581
I01
sS'who__ALL__'
p2582
I01
sS'like__BOTTOM__'
p2583
I01
sS'up__ALL__'
p2584
I01
sS'smoke__ALL__'
p2585
I01
sS'like__ALL__'
p2586
I01
sS'smoke__TOP__'
p2587
I01
sS'end__BOTTOM__'
p2588
I01
sS'dad__ALL__'
p2589
I01
sS'dad__BOTTOM__'
p2590
I01
sS'ryan__BOTTOM__'
p2591
I01
sS'up__BOTTOM__'
p2592
I01
sS'man__TOP__'
p2593
I01
sS'ciggi__TOP__'
p2594
I01
sS'end__ALL__'
p2595
I01
sS'who__TOP__'
p2596
I01
sS'ryan__ALL__'
p2597
I01
sS'man__ALL__'
p2598
I01
sa(dp2599
S'a__ALL__'
p2600
I01
sS'time__ALL__'
p2601
I01
sS'call__BOTTOM__'
p2602
I01
sS'a__TOP__'
p2603
I01
sS'good__TOP__'
p2604
I01
sS'time__TOP__'
p2605
I01
sS'ryan__BOTTOM__'
p2606
I01
sS'for__TOP__'
p2607
I01
sS'ryan__ALL__'
p2608
I01
sS'call__ALL__'
p2609
I01
sS'good__ALL__'
p2610
I01
sS'for__ALL__'
p2611
I01
sa(dp2612
S'kevin__TOP__'
p2613
I01
sS'!__BOTTOM__'
p2614
I01
sS'get__ALL__'
p2615
I01
sS'diari__BOTTOM__'
p2616
I01
sS'guan__ALL__'
p2617
I01
sS'diari__ALL__'
p2618
I01
sS'a__BOTTOM__'
p2619
I01
sS'get__BOTTOM__'
p2620
I01
sS'fool__BOTTOM__'
p2621
I01
sS'kevin__ALL__'
p2622
I01
sS'guan__TOP__'
p2623
I01
sS'!__ALL__'
p2624
I01
sS'dam__BOTTOM__'
p2625
I01
sS'a__ALL__'
p2626
I01
sS'fool__ALL__'
p2627
I01
sS'dam__ALL__'
p2628
I01
sa(dp2629
S'earth__BOTTOM__'
p2630
I01
sS'sex__TOP__'
p2631
I01
sS'ha__TOP__'
p2632
I01
sS'on__ALL__'
p2633
I01
sS'who__TOP__'
p2634
I01
sS'sex__ALL__'
p2635
I01
sS'who__ALL__'
p2636
I01
sS'man__TOP__'
p2637
I01
sS'pice__ALL__'
p2638
I01
sS'on__BOTTOM__'
p2639
I01
sS'ground__TOP__'
p2640
I01
sS'ha__BOTTOM__'
p2641
I01
sS'earth__ALL__'
p2642
I01
sS'ground__ALL__'
p2643
I01
sS'ha__ALL__'
p2644
I01
sS'on__TOP__'
p2645
I01
sS'pice__BOTTOM__'
p2646
I01
sS'man__ALL__'
p2647
I01
sa(dp2648
S'vagina__ALL__'
p2649
I01
sS'!__ALL__'
p2650
I01
sS'now__ALL__'
p2651
I01
sS'vagina__BOTTOM__'
p2652
I01
sS'!__BOTTOM__'
p2653
I01
sS'confuciu__TOP__'
p2654
I01
sS'now__BOTTOM__'
p2655
I01
sS'say__ALL__'
p2656
I01
sS'say__TOP__'
p2657
I01
sS'confuciu__ALL__'
p2658
I01
sa(dp2659
S'.__BOTTOM__'
p2660
I01
sS'pig__TOP__'
p2661
I01
sS'daughter__TOP__'
p2662
I01
sS'brother__ALL__'
p2663
I01
sS'twin__ALL__'
p2664
I01
sS'daughter__ALL__'
p2665
I01
sS'trade__TOP__'
p2666
I01
sS'twin__BOTTOM__'
p2667
I01
sS'brother__BOTTOM__'
p2668
I01
sS'pig__ALL__'
p2669
I01
sS'gain__ALL__'
p2670
I01
sS'gain__BOTTOM__'
p2671
I01
sS'trade__ALL__'
p2672
I01
sS'for__TOP__'
p2673
I01
sS'.__ALL__'
p2674
I01
sS'.__TOP__'
p2675
I01
sS'for__ALL__'
p2676
I01
sa(dp2677
S'to__ALL__'
p2678
I01
sS'poor__ALL__'
p2679
I01
sS'girl__TOP__'
p2680
I01
sS'poor__BOTTOM__'
p2681
I01
sS'to__TOP__'
p2682
I01
sS'feel__ALL__'
p2683
I01
sS'girl__ALL__'
p2684
I01
sS'tri__ALL__'
p2685
I01
sS'feel__BOTTOM__'
p2686
I01
sS'girl__BOTTOM__'
p2687
I01
sS'knowledg__ALL__'
p2688
I01
sS'acquir__TOP__'
p2689
I01
sS'knowledg__TOP__'
p2690
I01
sS'tri__TOP__'
p2691
I01
sS'acquir__ALL__'
p2692
I01
sa(dp2693
S'to__ALL__'
p2694
I01
sS'fli__ALL__'
p2695
I01
sS'up__ALL__'
p2696
I01
sS'to__BOTTOM__'
p2697
I01
sS'down__TOP__'
p2698
I01
sS'upsid__ALL__'
p2699
I01
sS'fli__TOP__'
p2700
I01
sS'is__ALL__'
p2701
I01
sS'who__ALL__'
p2702
I01
sS'up__BOTTOM__'
p2703
I01
sS'man__TOP__'
p2704
I01
sS'bound__ALL__'
p2705
I01
sS'down__ALL__'
p2706
I01
sS'who__TOP__'
p2707
I01
sS'crack__BOTTOM__'
p2708
I01
sS'upsid__TOP__'
p2709
I01
sS'crack__ALL__'
p2710
I01
sS'is__BOTTOM__'
p2711
I01
sS'bound__BOTTOM__'
p2712
I01
sS'man__ALL__'
p2713
I01
sa(dp2714
S'human__ALL__'
p2715
I01
sS'to__BOTTOM__'
p2716
I01
sS'rike__BOTTOM__'
p2717
I01
sS'monocl__ALL__'
p2718
I01
sS'rook__ALL__'
p2719
I01
sS'and__ALL__'
p2720
I01
sS'and__BOTTOM__'
p2721
I01
sS'a__ALL__'
p2722
I01
sS'!__BOTTOM__'
p2723
I01
sS'wear__ALL__'
p2724
I01
sS'tophat__BOTTOM__'
p2725
I01
sS'tophat__ALL__'
p2726
I01
sS'!__TOP__'
p2727
I01
sS'rook__BOTTOM__'
p2728
I01
sS'monocl__BOTTOM__'
p2729
I01
sS'i__ALL__'
p2730
I01
sS'rike__ALL__'
p2731
I01
sS'rick__ALL__'
p2732
I01
sS'wear__BOTTOM__'
p2733
I01
sS'rick__TOP__'
p2734
I01
sS'to__ALL__'
p2735
I01
sS'!__ALL__'
p2736
I01
sS'human__BOTTOM__'
p2737
I01
sS'a__BOTTOM__'
p2738
I01
sS'i__BOTTOM__'
p2739
I01
sS'the__ALL__'
p2740
I01
sS'the__BOTTOM__'
p2741
I01
sS'bowti__BOTTOM__'
p2742
I01
sS'bowti__ALL__'
p2743
I01
sa(dp2744
S'fathaaa__ALL__'
p2745
I01
sS'forbid__ALL__'
p2746
I01
sS'bradrey__ALL__'
p2747
I01
sS'bradrey__BOTTOM__'
p2748
I01
sS'i__ALL__'
p2749
I01
sS'as__TOP__'
p2750
I01
sS'i__BOTTOM__'
p2751
I01
sS'you__ALL__'
p2752
I01
sS'sarah__TOP__'
p2753
I01
sS'as__ALL__'
p2754
I01
sS'you__BOTTOM__'
p2755
I01
sS'sarah__ALL__'
p2756
I01
sS'forbid__BOTTOM__'
p2757
I01
sS'fathaaa__TOP__'
p2758
I01
sa(dp2759
S'ruin__ALL__'
p2760
I01
sS'ruin__BOTTOM__'
p2761
I01
sS'christma__TOP__'
p2762
I01
sS'not__ALL__'
p2763
I01
sS'must__ALL__'
p2764
I01
sS'says..__TOP__'
p2765
I01
sS'becaus__ALL__'
p2766
I01
sS'christma__ALL__'
p2767
I01
sS'becaus__TOP__'
p2768
I01
sS'who__ALL__'
p2769
I01
sS'who__TOP__'
p2770
I01
sS'of__ALL__'
p2771
I01
sS'he__TOP__'
p2772
I01
sS'confuci__TOP__'
p2773
I01
sS'parti__TOP__'
p2774
I01
sS'promenad__BOTTOM__'
p2775
I01
sS'parti__ALL__'
p2776
I01
sS'failur__ALL__'
p2777
I01
sS'the__ALL__'
p2778
I01
sS'of__TOP__'
p2779
I01
sS'confuci__ALL__'
p2780
I01
sS'failur__TOP__'
p2781
I01
sS'says..__ALL__'
p2782
I01
sS'must__BOTTOM__'
p2783
I01
sS'not__BOTTOM__'
p2784
I01
sS'promenad__ALL__'
p2785
I01
sS'he__ALL__'
p2786
I01
sS'ruin__TOP__'
p2787
I01
sS'the__BOTTOM__'
p2788
I01
sa(dp2789
S'what__TOP__'
p2790
I01
sS'obama__BOTTOM__'
p2791
I01
sS'obama__ALL__'
p2792
I01
sS'?__ALL__'
p2793
I01
sS'?__BOTTOM__'
p2794
I01
sS'do__ALL__'
p2795
I01
sS'what__ALL__'
p2796
I01
sS'would__ALL__'
p2797
I01
sS'do__BOTTOM__'
p2798
I01
sS'would__TOP__'
p2799
I01
sa(dp2800
S'confuciu__TOP__'
p2801
I01
sS'i__BOTTOM__'
p2802
I01
sS'say__ALL__'
p2803
I01
sS'die__BOTTOM__'
p2804
I01
sS'should__BOTTOM__'
p2805
I01
sS'die__ALL__'
p2806
I01
sS'say__TOP__'
p2807
I01
sS'should__ALL__'
p2808
I01
sS'i__ALL__'
p2809
I01
sS'confuciu__ALL__'
p2810
I01
sa(dp2811
S'must__ALL__'
p2812
I01
sS'want__TOP__'
p2813
I01
sS'patient__ALL__'
p2814
I01
sS'nurs__TOP__'
p2815
I01
sS'pretti__ALL__'
p2816
I01
sS'patient__BOTTOM__'
p2817
I01
sS'must__BOTTOM__'
p2818
I01
sS'nurs__ALL__'
p2819
I01
sS'be__ALL__'
p2820
I01
sS'who__ALL__'
p2821
I01
sS'be__BOTTOM__'
p2822
I01
sS'who__TOP__'
p2823
I01
sS'pretti__TOP__'
p2824
I01
sS'he__ALL__'
p2825
I01
sS'want__ALL__'
p2826
I01
sS'he__TOP__'
p2827
I01
sa(dp2828
S'better__ALL__'
p2829
I01
sS'teacher__ALL__'
p2830
I01
sS'test__BOTTOM__'
p2831
I01
sS'69__TOP__'
p2832
I01
sS'to__BOTTOM__'
p2833
I01
sS'to__ALL__'
p2834
I01
sS'69__ALL__'
p2835
I01
sS'69__BOTTOM__'
p2836
I01
sS'on__ALL__'
p2837
I01
sS'test__TOP__'
p2838
I01
sS'better__BOTTOM__'
p2839
I01
sS'give__ALL__'
p2840
I01
sS'test__ALL__'
p2841
I01
sS'on__BOTTOM__'
p2842
I01
sS'teacher__TOP__'
p2843
I01
sS'on__TOP__'
p2844
I01
sS'teacher__BOTTOM__'
p2845
I01
sS'give__TOP__'
p2846
I01
sa(dp2847
S'asian__ALL__'
p2848
I01
sS'asian__BOTTOM__'
p2849
I01
sS'im__ALL__'
p2850
I01
sS'yedricka__ALL__'
p2851
I01
sS'not__BOTTOM__'
p2852
I01
sS'say__ALL__'
p2853
I01
sS'mista__TOP__'
p2854
I01
sS'say__TOP__'
p2855
I01
sS'mista__ALL__'
p2856
I01
sS'yedricka__TOP__'
p2857
I01
sS'im__BOTTOM__'
p2858
I01
sS'not__ALL__'
p2859
I01
sa(dp2860
S'!__ALL__'
p2861
I01
sS'rack__ALL__'
p2862
I01
sS'breast__ALL__'
p2863
I01
sS'!__BOTTOM__'
p2864
I01
sS'breast__TOP__'
p2865
I01
sS'focu__BOTTOM__'
p2866
I01
sS'who__TOP__'
p2867
I01
sS'at__ALL__'
p2868
I01
sS'who__ALL__'
p2869
I01
sS'stare__TOP__'
p2870
I01
sS'man__TOP__'
p2871
I01
sS'focu__ALL__'
p2872
I01
sS'keep__TOP__'
p2873
I01
sS'at__TOP__'
p2874
I01
sS'rack__BOTTOM__'
p2875
I01
sS'keep__ALL__'
p2876
I01
sS'stare__ALL__'
p2877
I01
sS'man__ALL__'
p2878
I01
sa(dp2879
S'itchi__TOP__'
p2880
I01
sS'up__BOTTOM__'
p2881
I01
sS'goe__TOP__'
p2882
I01
sS'finger__BOTTOM__'
p2883
I01
sS'with__ALL__'
p2884
I01
sS'with__TOP__'
p2885
I01
sS'wake__BOTTOM__'
p2886
I01
sS'itchi__ALL__'
p2887
I01
sS'who__ALL__'
p2888
I01
sS'who__TOP__'
p2889
I01
sS'smelli__BOTTOM__'
p2890
I01
sS'bed__TOP__'
p2891
I01
sS'man__TOP__'
p2892
I01
sS'wake__ALL__'
p2893
I01
sS'man__ALL__'
p2894
I01
sS'to__ALL__'
p2895
I01
sS'bed__ALL__'
p2896
I01
sS'finger__ALL__'
p2897
I01
sS'smelli__ALL__'
p2898
I01
sS'to__TOP__'
p2899
I01
sS'with__BOTTOM__'
p2900
I01
sS'buttock__TOP__'
p2901
I01
sS'up__ALL__'
p2902
I01
sS'buttock__ALL__'
p2903
I01
sS'goe__ALL__'
p2904
I01
sa(dp2905
S'to__ALL__'
p2906
I01
sS'need__BOTTOM__'
p2907
I01
sS'work__TOP__'
p2908
I01
sS'never__BOTTOM__'
p2909
I01
sS'to__BOTTOM__'
p2910
I01
sS'never__ALL__'
p2911
I01
sS'for__ALL__'
p2912
I01
sS'work__ALL__'
p2913
I01
sS'work__BOTTOM__'
p2914
I01
sS'who__ALL__'
p2915
I01
sS'man__TOP__'
p2916
I01
sS'for__TOP__'
p2917
I01
sS'who__TOP__'
p2918
I01
sS'state__ALL__'
p2919
I01
sS'state__TOP__'
p2920
I01
sS'need__ALL__'
p2921
I01
sS'man__ALL__'
p2922
I01
sa(dp2923
S'hot__ALL__'
p2924
I01
sS'!__ALL__'
p2925
I01
sS';__TOP__'
p2926
I01
sS'!__BOTTOM__'
p2927
I01
sS';__ALL__'
p2928
I01
sS'confuciu__TOP__'
p2929
I01
sS'fire__ALL__'
p2930
I01
sS'say__ALL__'
p2931
I01
sS'hot__BOTTOM__'
p2932
I01
sS'fire__BOTTOM__'
p2933
I01
sS'say__TOP__'
p2934
I01
sS'confuciu__ALL__'
p2935
I01
sa(dp2936
S'wait__ALL__'
p2937
I01
sS'corner__ALL__'
p2938
I01
sS'street__TOP__'
p2939
I01
sS'bu__ALL__'
p2940
I01
sS'for__BOTTOM__'
p2941
I01
sS'bu__BOTTOM__'
p2942
I01
sS'woman__TOP__'
p2943
I01
sS'stand__TOP__'
p2944
I01
sS'not__ALL__'
p2945
I01
sS'street__ALL__'
p2946
I01
sS'wait__BOTTOM__'
p2947
I01
sS'not__BOTTOM__'
p2948
I01
sS'on__ALL__'
p2949
I01
sS'who__ALL__'
p2950
I01
sS'corner__TOP__'
p2951
I01
sS'who__TOP__'
p2952
I01
sS'stand__ALL__'
p2953
I01
sS'on__TOP__'
p2954
I01
sS'for__ALL__'
p2955
I01
sS'woman__ALL__'
p2956
I01
sa(dp2957
S'best__BOTTOM__'
p2958
I01
sS'a__ALL__'
p2959
I01
sS'&__TOP__'
p2960
I01
sS'gal__BOTTOM__'
p2961
I01
sS'money__TOP__'
p2962
I01
sS'fool__ALL__'
p2963
I01
sS'a__BOTTOM__'
p2964
I01
sS'gal__ALL__'
p2965
I01
sS'money__ALL__'
p2966
I01
sS'a__TOP__'
p2967
I01
sS'&__ALL__'
p2968
I01
sS'are__BOTTOM__'
p2969
I01
sS'friend__BOTTOM__'
p2970
I01
sS'hi__ALL__'
p2971
I01
sS'are__ALL__'
p2972
I01
sS'best__ALL__'
p2973
I01
sS'hi__TOP__'
p2974
I01
sS'friend__ALL__'
p2975
I01
sS'fool__TOP__'
p2976
I01
sa(dp2977
S'shut__ALL__'
p2978
I01
sS'fuck__BOTTOM__'
p2979
I01
sS'the__ALL__'
p2980
I01
sS'confuciu__TOP__'
p2981
I01
sS'shut__BOTTOM__'
p2982
I01
sS'say__ALL__'
p2983
I01
sS'matt__ALL__'
p2984
I01
sS'up__BOTTOM__'
p2985
I01
sS'up__ALL__'
p2986
I01
sS'fuck__ALL__'
p2987
I01
sS'say__TOP__'
p2988
I01
sS'the__BOTTOM__'
p2989
I01
sS'matt__BOTTOM__'
p2990
I01
sS'confuciu__ALL__'
p2991
I01
sa(dp2992
S'exhaust__BOTTOM__'
p2993
I01
sS'get__ALL__'
p2994
I01
sS'get__BOTTOM__'
p2995
I01
sS'run__TOP__'
p2996
I01
sS'car__TOP__'
p2997
I01
sS'run__ALL__'
p2998
I01
sS'behind__ALL__'
p2999
I01
sS'who__ALL__'
p3000
I01
sS'man__TOP__'
p3001
I01
sS'car__ALL__'
p3002
I01
sS'who__TOP__'
p3003
I01
sS'behind__TOP__'
p3004
I01
sS'exhaust__ALL__'
p3005
I01
sS'man__ALL__'
p3006
I01
sa(dp3007
S'block__TOP__'
p3008
I01
sS'cock__ALL__'
p3009
I01
sS'no__BOTTOM__'
p3010
I01
sS'block__ALL__'
p3011
I01
sS'cock__BOTTOM__'
p3012
I01
sS'who__ALL__'
p3013
I01
sS'man__TOP__'
p3014
I01
sS'who__TOP__'
p3015
I01
sS'have__BOTTOM__'
p3016
I01
sS'no__ALL__'
p3017
I01
sS'have__ALL__'
p3018
I01
sS'man__ALL__'
p3019
I01
sa(dp3020
S'feel__BOTTOM__'
p3021
I01
sS'cocki__BOTTOM__'
p3022
I01
sS'cocki__ALL__'
p3023
I01
sS'put__TOP__'
p3024
I01
sS'in__TOP__'
p3025
I01
sS'put__ALL__'
p3026
I01
sS'who__TOP__'
p3027
I01
sS'pocket__ALL__'
p3028
I01
sS'in__ALL__'
p3029
I01
sS'who__ALL__'
p3030
I01
sS'man__TOP__'
p3031
I01
sS'feel__ALL__'
p3032
I01
sS'pocket__TOP__'
p3033
I01
sS'hand__TOP__'
p3034
I01
sS'hand__ALL__'
p3035
I01
sS'man__ALL__'
p3036
I01
sa(dp3037
S'flar__ALL__'
p3038
I01
sS'get__ALL__'
p3039
I01
sS'get__BOTTOM__'
p3040
I01
sS'window__ALL__'
p3041
I01
sS'who__ALL__'
p3042
I01
sS'out__TOP__'
p3043
I01
sS'man__TOP__'
p3044
I01
sS'flar__BOTTOM__'
p3045
I01
sS'jump__ALL__'
p3046
I01
sS'who__TOP__'
p3047
I01
sS'jump__TOP__'
p3048
I01
sS'out__ALL__'
p3049
I01
sS'window__TOP__'
p3050
I01
sS'man__ALL__'
p3051
I01
sa(dp3052
S'it__TOP__'
p3053
I01
sS'break__TOP__'
p3054
I01
sS'break__ALL__'
p3055
I01
sS'buy__ALL__'
p3056
I01
sS'you__TOP__'
p3057
I01
sS'it__BOTTOM__'
p3058
I01
sS'buy__BOTTOM__'
p3059
I01
sS'it__ALL__'
p3060
I01
sS'you__ALL__'
p3061
I01
sS'you__BOTTOM__'
p3062
I01
sa(dp3063
S'say__ALL__'
p3064
I01
sS'name__BOTTOM__'
p3065
I01
sS'name__ALL__'
p3066
I01
sS'confuciu__TOP__'
p3067
I01
sS'my__ALL__'
p3068
I01
sS'hi__BOTTOM__'
p3069
I01
sS'max__BOTTOM__'
p3070
I01
sS'hi__ALL__'
p3071
I01
sS'max__ALL__'
p3072
I01
sS'my__BOTTOM__'
p3073
I01
sS'say__TOP__'
p3074
I01
sS'confuciu__ALL__'
p3075
I01
sa(dp3076
S'chang__ALL__'
p3077
I01
sS'name__ALL__'
p3078
I01
sS'work__TOP__'
p3079
I01
sS'?__ALL__'
p3080
I01
sS'not__TOP__'
p3081
I01
sS'again__ALL__'
p3082
I01
sS'name__TOP__'
p3083
I01
sS'again__BOTTOM__'
p3084
I01
sS'buy__ALL__'
p3085
I01
sS'?__TOP__'
p3086
I01
sS'chang__TOP__'
p3087
I01
sS'work__ALL__'
p3088
I01
sS'buy__BOTTOM__'
p3089
I01
sS'not__ALL__'
p3090
I01
sa(dp3091
S'solut__ALL__'
p3092
I01
sS'in__ALL__'
p3093
I01
sS'up__BOTTOM__'
p3094
I01
sS'wiyh__ALL__'
p3095
I01
sS'hand__BOTTOM__'
p3096
I01
sS'go__TOP__'
p3097
I01
sS'wiyh__BOTTOM__'
p3098
I01
sS'with__ALL__'
p3099
I01
sS'go__ALL__'
p3100
I01
sS'woman__TOP__'
p3101
I01
sS'solut__BOTTOM__'
p3102
I01
sS'on__ALL__'
p3103
I01
sS'who__ALL__'
p3104
I01
sS'sleep__TOP__'
p3105
I01
sS'who__TOP__'
p3106
I01
sS'problem__TOP__'
p3107
I01
sS'on__TOP__'
p3108
I01
sS'mind__TOP__'
p3109
I01
sS'problem__ALL__'
p3110
I01
sS'man__TOP__'
p3111
I01
sS'in__BOTTOM__'
p3112
I01
sS'hand__ALL__'
p3113
I01
sS'man__ALL__'
p3114
I01
sS'to__ALL__'
p3115
I01
sS'with__TOP__'
p3116
I01
sS'wake__BOTTOM__'
p3117
I01
sS'to__TOP__'
p3118
I01
sS'mind__ALL__'
p3119
I01
sS'up__ALL__'
p3120
I01
sS'sleep__ALL__'
p3121
I01
sS'wake__ALL__'
p3122
I01
sS'woman__ALL__'
p3123
I01
sa(dp3124
S'.__BOTTOM__'
p3125
I01
sS'say:__TOP__'
p3126
I01
sS'.__ALL__'
p3127
I01
sS'girlfriend__ALL__'
p3128
I01
sS'get__BOTTOM__'
p3129
I01
sS'wait__ALL__'
p3130
I01
sS'rpg__ALL__'
p3131
I01
sS'day__ALL__'
p3132
I01
sS'mario__BOTTOM__'
p3133
I01
sS'your__BOTTOM__'
p3134
I01
sS'confuciu__ALL__'
p3135
I01
sS'girlfriend__BOTTOM__'
p3136
I01
sS'for__BOTTOM__'
p3137
I01
sS'confuciu__TOP__'
p3138
I01
sS'mario__ALL__'
p3139
I01
sS'super__ALL__'
p3140
I01
sS'if__ALL__'
p3141
I01
sS'you__ALL__'
p3142
I01
sS'you__BOTTOM__'
p3143
I01
sS'if__BOTTOM__'
p3144
I01
sS'for__ALL__'
p3145
I01
sS'get__ALL__'
p3146
I01
sS'mayb__ALL__'
p3147
I01
sS'mayb__BOTTOM__'
p3148
I01
sS'rpg__BOTTOM__'
p3149
I01
sS'your__ALL__'
p3150
I01
sS'super__BOTTOM__'
p3151
I01
sS'valentin__ALL__'
p3152
I01
sS'say:__ALL__'
p3153
I01
sS'wait__BOTTOM__'
p3154
I01
sS'day__BOTTOM__'
p3155
I01
sS'valentin__BOTTOM__'
p3156
I01
sa(dp3157
S'brick__ALL__'
p3158
I01
sS'is__ALL__'
p3159
I01
sS'!__ALL__'
p3160
I01
sS'!__BOTTOM__'
p3161
I01
sS'ortiz__ALL__'
p3162
I01
sS'hit__TOP__'
p3163
I01
sS'madd__BOTTOM__'
p3164
I01
sS'hit__ALL__'
p3165
I01
sS'is__BOTTOM__'
p3166
I01
sS'the__TOP__'
p3167
I01
sS'madd__ALL__'
p3168
I01
sS'ortiz__BOTTOM__'
p3169
I01
sS'brick__TOP__'
p3170
I01
sS'the__ALL__'
p3171
I01
sS'!__TOP__'
p3172
I01
sa(dp3173
S'u__TOP__'
p3174
I01
sS'lower__ALL__'
p3175
I01
sS'cut__ALL__'
p3176
I01
sS'lower__TOP__'
p3177
I01
sS'u__ALL__'
p3178
I01
sS'grass__TOP__'
p3179
I01
sS'the__TOP__'
p3180
I01
sS'grass__ALL__'
p3181
I01
sS'the__ALL__'
p3182
I01
sS'cut__TOP__'
p3183
I01
sa(dp3184
S'doe__TOP__'
p3185
I01
sS'gener__TOP__'
p3186
I01
sS'feed__ALL__'
p3187
I01
sS'not__TOP__'
p3188
I01
sS'lunch__ALL__'
p3189
I01
sS'not__ALL__'
p3190
I01
sS'feed__BOTTOM__'
p3191
I01
sS'other__BOTTOM__'
p3192
I01
sS'doe__ALL__'
p3193
I01
sS'gener__ALL__'
p3194
I01
sS'who__ALL__'
p3195
I01
sS'so__TOP__'
p3196
I01
sS'man__TOP__'
p3197
I01
sS'who__TOP__'
p3198
I01
sS'lunch__BOTTOM__'
p3199
I01
sS'other__ALL__'
p3200
I01
sS'so__ALL__'
p3201
I01
sS'man__ALL__'
p3202
I01
sa(dp3203
S'make__ALL__'
p3204
I01
sS'who__ALL__'
p3205
I01
sS'with__ALL__'
p3206
I01
sS'no__ALL__'
p3207
I01
sS'sorri__TOP__'
p3208
I01
sS'make__BOTTOM__'
p3209
I01
sS'with__TOP__'
p3210
I01
sS'be__ALL__'
p3211
I01
sS'sorri__ALL__'
p3212
I01
sS'man__TOP__'
p3213
I01
sS'say__ALL__'
p3214
I01
sS'friend__BOTTOM__'
p3215
I01
sS'out__TOP__'
p3216
I01
sS'who__TOP__'
p3217
I01
sS'say__TOP__'
p3218
I01
sS'no__BOTTOM__'
p3219
I01
sS'out__ALL__'
p3220
I01
sS'friend__ALL__'
p3221
I01
sS'be__TOP__'
p3222
I01
sS'man__ALL__'
p3223
I01
sa(dp3224
S'everyon__ALL__'
p3225
I01
sS'date__BOTTOM__'
p3226
I01
sS'too__ALL__'
p3227
I01
sS'too__BOTTOM__'
p3228
I01
sS'who__ALL__'
p3229
I01
sS'up__BOTTOM__'
p3230
I01
sS'man__TOP__'
p3231
I01
sS'date__ALL__'
p3232
I01
sS'up__ALL__'
p3233
I01
sS'high__ALL__'
p3234
I01
sS'who__TOP__'
p3235
I01
sS'high__TOP__'
p3236
I01
sS'keep__ALL__'
p3237
I01
sS'keep__BOTTOM__'
p3238
I01
sS'everyon__BOTTOM__'
p3239
I01
sS'man__ALL__'
p3240
I01
sa(dp3241
S'those__TOP__'
p3242
I01
sS'hate__ALL__'
p3243
I01
sS'hate__TOP__'
p3244
I01
sS'shall__BOTTOM__'
p3245
I01
sS'fuck__ALL__'
p3246
I01
sS'fuck__BOTTOM__'
p3247
I01
sS'shall__ALL__'
p3248
I01
sS'those__ALL__'
p3249
I01
sS'be__ALL__'
p3250
I01
sS'who__ALL__'
p3251
I01
sS'be__BOTTOM__'
p3252
I01
sS'who__TOP__'
p3253
I01
sa(dp3254
S'brown__ALL__'
p3255
I01
sS'with__ALL__'
p3256
I01
sS'itchi__TOP__'
p3257
I01
sS'finger__ALL__'
p3258
I01
sS'with__TOP__'
p3259
I01
sS'wake__BOTTOM__'
p3260
I01
sS'brown__BOTTOM__'
p3261
I01
sS'bum__ALL__'
p3262
I01
sS'with__BOTTOM__'
p3263
I01
sS'itchi__ALL__'
p3264
I01
sS'who__ALL__'
p3265
I01
sS'up__BOTTOM__'
p3266
I01
sS'man__TOP__'
p3267
I01
sS'up__ALL__'
p3268
I01
sS'sleep__ALL__'
p3269
I01
sS'who__TOP__'
p3270
I01
sS'finger__BOTTOM__'
p3271
I01
sS'bum__TOP__'
p3272
I01
sS'wake__ALL__'
p3273
I01
sS'sleep__TOP__'
p3274
I01
sS'man__ALL__'
p3275
I01
sa(dp3276
S'cash__TOP__'
p3277
I01
sS'storag__ALL__'
p3278
I01
sS'tabl__ALL__'
p3279
I01
sS'tabl__BOTTOM__'
p3280
I01
sS'in__TOP__'
p3281
I01
sS'cash__ALL__'
p3282
I01
sS'!__BOTTOM__'
p3283
I01
sS'!__ALL__'
p3284
I01
sS'better__ALL__'
p3285
I01
sS'in__ALL__'
p3286
I01
sS'better__BOTTOM__'
p3287
I01
sS'in__BOTTOM__'
p3288
I01
sS'hand__TOP__'
p3289
I01
sS'than__ALL__'
p3290
I01
sS'than__BOTTOM__'
p3291
I01
sS'hand__ALL__'
p3292
I01
sS'storag__BOTTOM__'
p3293
I01
sa(dp3294
S'defect__BOTTOM__'
p3295
I01
sS'prioriti__BOTTOM__'
p3296
I01
sS'prioriti__ALL__'
p3297
I01
sS'confuciu__TOP__'
p3298
I01
sS'say__ALL__'
p3299
I01
sS'high__ALL__'
p3300
I01
sS'say__TOP__'
p3301
I01
sS'high__BOTTOM__'
p3302
I01
sS'defect__ALL__'
p3303
I01
sS'confuciu__ALL__'
p3304
I01
sa(dp3305
S'yuku__TOP__'
p3306
I01
sS'like__ALL__'
p3307
I01
sS'like__BOTTOM__'
p3308
I01
sS':__BOTTOM__'
p3309
I01
sS':__ALL__'
p3310
I01
sS'bbcode__BOTTOM__'
p3311
I01
sS'(__ALL__'
p3312
I01
sS'bbcode__ALL__'
p3313
I01
sS'yuku__ALL__'
p3314
I01
sS'no__BOTTOM__'
p3315
I01
sS'(__BOTTOM__'
p3316
I01
sS'no__ALL__'
p3317
I01
sa(dp3318
S'get__BOTTOM__'
p3319
I01
sS'fight__TOP__'
p3320
I01
sS'night__BOTTOM__'
p3321
I01
sS'at__ALL__'
p3322
I01
sS'with__ALL__'
p3323
I01
sS'night__TOP__'
p3324
I01
sS'no__BOTTOM__'
p3325
I01
sS'with__TOP__'
p3326
I01
sS'wife__ALL__'
p3327
I01
sS'who__TOP__'
p3328
I01
sS'night__ALL__'
p3329
I01
sS'no__ALL__'
p3330
I01
sS'get__ALL__'
p3331
I01
sS'piec__BOTTOM__'
p3332
I01
sS'man__TOP__'
p3333
I01
sS'man__ALL__'
p3334
I01
sS'piec__ALL__'
p3335
I01
sS'who__ALL__'
p3336
I01
sS'fight__ALL__'
p3337
I01
sS'at__TOP__'
p3338
I01
sS'at__BOTTOM__'
p3339
I01
sS'wife__TOP__'
p3340
I01
sa(dp3341
S'a__ALL__'
p3342
I01
sS'ohhhhh__TOP__'
p3343
I01
sS'!__BOTTOM__'
p3344
I01
sS'great__ALL__'
p3345
I01
sS'great__BOTTOM__'
p3346
I01
sS'a__BOTTOM__'
p3347
I01
sS'ohhhhh__ALL__'
p3348
I01
sS'!__ALL__'
p3349
I01
sS'.__ALL__'
p3350
I01
sS'such__ALL__'
p3351
I01
sS'.__TOP__'
p3352
I01
sS'such__BOTTOM__'
p3353
I01
sa(dp3354
S'anyway__BOTTOM__'
p3355
I01
sS'way__TOP__'
p3356
I01
sS'by__ALL__'
p3357
I01
sS'way__ALL__'
p3358
I01
sS'the__TOP__'
p3359
I01
sS'by__TOP__'
p3360
I01
sS'the__ALL__'
p3361
I01
sS'anyway__ALL__'
p3362
I01
sa(dp3363
S'dont__ALL__'
p3364
I01
sS'caus__ALL__'
p3365
I01
sS'drink__ALL__'
p3366
I01
sS'dont__TOP__'
p3367
I01
sS'accid__BOTTOM__'
p3368
I01
sS'and__ALL__'
p3369
I01
sS'peopl__BOTTOM__'
p3370
I01
sS'park__TOP__'
p3371
I01
sS'peopl__ALL__'
p3372
I01
sS'park__ALL__'
p3373
I01
sS'caus__BOTTOM__'
p3374
I01
sS'accid__ALL__'
p3375
I01
sS'and__TOP__'
p3376
I01
sS'drink__TOP__'
p3377
I01
sa(dp3378
S'itchi__TOP__'
p3379
I01
sS'up__BOTTOM__'
p3380
I01
sS'finger__BOTTOM__'
p3381
I01
sS'go__TOP__'
p3382
I01
sS'with__ALL__'
p3383
I01
sS'go__ALL__'
p3384
I01
sS'wake__BOTTOM__'
p3385
I01
sS'itchi__ALL__'
p3386
I01
sS'who__ALL__'
p3387
I01
sS'who__TOP__'
p3388
I01
sS'butt__ALL__'
p3389
I01
sS'bed__TOP__'
p3390
I01
sS'butt__TOP__'
p3391
I01
sS'man__TOP__'
p3392
I01
sS'man__ALL__'
p3393
I01
sS'to__ALL__'
p3394
I01
sS'bed__ALL__'
p3395
I01
sS'with__TOP__'
p3396
I01
sS'to__TOP__'
p3397
I01
sS'with__BOTTOM__'
p3398
I01
sS'up__ALL__'
p3399
I01
sS'stinki__ALL__'
p3400
I01
sS'wake__ALL__'
p3401
I01
sS'finger__ALL__'
p3402
I01
sS'stinki__BOTTOM__'
p3403
I01
sa(dp3404
S'man__BOTTOM__'
p3405
I01
sS'use__ALL__'
p3406
I01
sS'one__TOP__'
p3407
I01
sS'skin__BOTTOM__'
p3408
I01
sS'use__TOP__'
p3409
I01
sS'anoth__ALL__'
p3410
I01
sS'skin__TOP__'
p3411
I01
sS'anoth__BOTTOM__'
p3412
I01
sS'skin__ALL__'
p3413
I01
sS'want__BOTTOM__'
p3414
I01
sS'one__ALL__'
p3415
I01
sS'want__ALL__'
p3416
I01
sS'man__ALL__'
p3417
I01
sa(dp3418
S'yuku__TOP__'
p3419
I01
sS'speak__BOTTOM__'
p3420
I01
sS'speak__ALL__'
p3421
I01
sS'no__BOTTOM__'
p3422
I01
sS'?__BOTTOM__'
p3423
I01
sS'bbcode__BOTTOM__'
p3424
I01
sS'bbcode__ALL__'
p3425
I01
sS'yuku__ALL__'
p3426
I01
sS'?__ALL__'
p3427
I01
sS'no__ALL__'
p3428
I01
sa(dp3429
S'shortcut__BOTTOM__'
p3430
I01
sS'via__BOTTOM__'
p3431
I01
sS'your__BOTTOM__'
p3432
I01
sS'shortcut__ALL__'
p3433
I01
sS'it__TOP__'
p3434
I01
sS'a__ALL__'
p3435
I01
sS'easier__ALL__'
p3436
I01
sS'on__ALL__'
p3437
I01
sS'alway__TOP__'
p3438
I01
sS'easier__TOP__'
p3439
I01
sS'access__TOP__'
p3440
I01
sS'via__ALL__'
p3441
I01
sS'access__ALL__'
p3442
I01
sS'alway__ALL__'
p3443
I01
sS'desktop__TOP__'
p3444
I01
sS'it__ALL__'
p3445
I01
sS'desktop__ALL__'
p3446
I01
sS'your__ALL__'
p3447
I01
sS'desktop__BOTTOM__'
p3448
I01
sS'to__ALL__'
p3449
I01
sS'a__BOTTOM__'
p3450
I01
sS'to__TOP__'
p3451
I01
sS'is__ALL__'
p3452
I01
sS'your__TOP__'
p3453
I01
sS'is__TOP__'
p3454
I01
sS'on__BOTTOM__'
p3455
I01
sa(dp3456
S'to__ALL__'
p3457
I01
sS'cook__BOTTOM__'
p3458
I01
sS'order__ALL__'
p3459
I01
sS'to__BOTTOM__'
p3460
I01
sS'in__TOP__'
p3461
I01
sS'order__BOTTOM__'
p3462
I01
sS'in__ALL__'
p3463
I01
sS'hub__TOP__'
p3464
I01
sS'chef__ALL__'
p3465
I01
sS'chef__TOP__'
p3466
I01
sS'hub__ALL__'
p3467
I01
sS'cook__ALL__'
p3468
I01
sa(dp3469
S'man__BOTTOM__'
p3470
I01
sS'infront__TOP__'
p3471
I01
sS'get__BOTTOM__'
p3472
I01
sS'infront__ALL__'
p3473
I01
sS'who__BOTTOM__'
p3474
I01
sS'bu__BOTTOM__'
p3475
I01
sS'run__BOTTOM__'
p3476
I01
sS'run__ALL__'
p3477
I01
sS'who__ALL__'
p3478
I01
sS'who__TOP__'
p3479
I01
sS'of__ALL__'
p3480
I01
sS'bu__ALL__'
p3481
I01
sS'get__ALL__'
p3482
I01
sS'run__TOP__'
p3483
I01
sS'tire__ALL__'
p3484
I01
sS'bu__TOP__'
p3485
I01
sS'behind__ALL__'
p3486
I01
sS'man__TOP__'
p3487
I01
sS'of__TOP__'
p3488
I01
sS'man__ALL__'
p3489
I01
sS'exhaust__BOTTOM__'
p3490
I01
sS'behind__BOTTOM__'
p3491
I01
sS'get__TOP__'
p3492
I01
sS'tire__TOP__'
p3493
I01
sS'exhaust__ALL__'
p3494
I01
sa(dp3495
S'veri__BOTTOM__'
p3496
I01
sS'is__ALL__'
p3497
I01
sS'antonio__TOP__'
p3498
I01
sS'is__TOP__'
p3499
I01
sS'antonio__ALL__'
p3500
I01
sS'stinki__ALL__'
p3501
I01
sS'stinki__BOTTOM__'
p3502
I01
sS'veri__ALL__'
p3503
I01
sa(dp3504
S'oceanz__ALL__'
p3505
I01
sS'mess__TOP__'
p3506
I01
sS'wave__ALL__'
p3507
I01
sS'with__TOP__'
p3508
I01
sS'drown__BOTTOM__'
p3509
I01
sS'he__ALL__'
p3510
I01
sS'oceanz__TOP__'
p3511
I01
sS'with__ALL__'
p3512
I01
sS'mess__ALL__'
p3513
I01
sS'often__ALL__'
p3514
I01
sS'in__ALL__'
p3515
I01
sS'who__ALL__'
p3516
I01
sS'in__BOTTOM__'
p3517
I01
sS'often__BOTTOM__'
p3518
I01
sS'who__TOP__'
p3519
I01
sS'the__ALL__'
p3520
I01
sS'the__BOTTOM__'
p3521
I01
sS'drown__ALL__'
p3522
I01
sS'wave__BOTTOM__'
p3523
I01
sS'he__TOP__'
p3524
I01
sa(dp3525
S'gloucest__TOP__'
p3526
I01
sS'gloucest__ALL__'
p3527
I01
sS'000__BOTTOM__'
p3528
I01
sS'?__BOTTOM__'
p3529
I01
sS'with__TOP__'
p3530
I01
sS'defend__ALL__'
p3531
I01
sS'?__ALL__'
p3532
I01
sS'defend__TOP__'
p3533
I01
sS'with__ALL__'
p3534
I01
sS'hill__ALL__'
p3535
I01
sS'men__ALL__'
p3536
I01
sS'4__ALL__'
p3537
I01
sS'4__TOP__'
p3538
I01
sS'hill__TOP__'
p3539
I01
sS'000__ALL__'
p3540
I01
sS'men__BOTTOM__'
p3541
I01
sa(dp3542
S'make__ALL__'
p3543
I01
sS'girlfriend__ALL__'
p3544
I01
sS'in__ALL__'
p3545
I01
sS'safe__ALL__'
p3546
I01
sS'say__TOP__'
p3547
I01
sS'trichi__ALL__'
p3548
I01
sS'girlfriend__TOP__'
p3549
I01
sS'it__TOP__'
p3550
I01
sS'nit__ALL__'
p3551
I01
sS'confuci__TOP__'
p3552
I01
sS'trichi__BOTTOM__'
p3553
I01
sS'it__ALL__'
p3554
I01
sS'confuci__ALL__'
p3555
I01
sS'nit__TOP__'
p3556
I01
sS'to__ALL__'
p3557
I01
sS'safe__TOP__'
p3558
I01
sS'in__TOP__'
p3559
I01
sS'to__TOP__'
p3560
I01
sS'say__ALL__'
p3561
I01
sS'is__TOP__'
p3562
I01
sS'make__TOP__'
p3563
I01
sS'is__ALL__'
p3564
I01
sa(dp3565
S'!__BOTTOM__'
p3566
I01
sS'!__ALL__'
p3567
I01
sS'no__BOTTOM__'
p3568
I01
sS'not__ALL__'
p3569
I01
sS'wirr__BOTTOM__'
p3570
I01
sS'!__TOP__'
p3571
I01
sS'off__BOTTOM__'
p3572
I01
sS'my__ALL__'
p3573
I01
sS'off__ALL__'
p3574
I01
sS'not__BOTTOM__'
p3575
I01
sS'i__ALL__'
p3576
I01
sS'rick__ALL__'
p3577
I01
sS'take__BOTTOM__'
p3578
I01
sS'take__ALL__'
p3579
I01
sS'my__BOTTOM__'
p3580
I01
sS'tophat__ALL__'
p3581
I01
sS'rick__TOP__'
p3582
I01
sS'wirr__ALL__'
p3583
I01
sS'i__BOTTOM__'
p3584
I01
sS'tophat__BOTTOM__'
p3585
I01
sS'no__ALL__'
p3586
I01
sa(dp3587
S'ruin__ALL__'
p3588
I01
sS'ruin__BOTTOM__'
p3589
I01
sS'christma__TOP__'
p3590
I01
sS'not__ALL__'
p3591
I01
sS'must__ALL__'
p3592
I01
sS'says..__TOP__'
p3593
I01
sS'junior__ALL__'
p3594
I01
sS'and__ALL__'
p3595
I01
sS'and__BOTTOM__'
p3596
I01
sS'becaus__ALL__'
p3597
I01
sS'christma__ALL__'
p3598
I01
sS'becaus__TOP__'
p3599
I01
sS'who__ALL__'
p3600
I01
sS'who__TOP__'
p3601
I01
sS'senior__ALL__'
p3602
I01
sS'of__ALL__'
p3603
I01
sS'he__TOP__'
p3604
I01
sS'senior__BOTTOM__'
p3605
I01
sS'confuci__TOP__'
p3606
I01
sS'parti__TOP__'
p3607
I01
sS'prom__ALL__'
p3608
I01
sS'parti__ALL__'
p3609
I01
sS'failur__ALL__'
p3610
I01
sS'the__ALL__'
p3611
I01
sS'of__TOP__'
p3612
I01
sS'confuci__ALL__'
p3613
I01
sS'failur__TOP__'
p3614
I01
sS'says..__ALL__'
p3615
I01
sS'must__BOTTOM__'
p3616
I01
sS'prom__BOTTOM__'
p3617
I01
sS'not__BOTTOM__'
p3618
I01
sS'junior__BOTTOM__'
p3619
I01
sS'he__ALL__'
p3620
I01
sS'ruin__TOP__'
p3621
I01
sS'the__BOTTOM__'
p3622
I01
sa(dp3623
S'man__BOTTOM__'
p3624
I01
sS'ball__ALL__'
p3625
I01
sS'with__ALL__'
p3626
I01
sS'walk__ALL__'
p3627
I01
sS'no__BOTTOM__'
p3628
I01
sS'ball__BOTTOM__'
p3629
I01
sS'walk__BOTTOM__'
p3630
I01
sS'basebal__TOP__'
p3631
I01
sS'can__BOTTOM__'
p3632
I01
sS'with__BOTTOM__'
p3633
I01
sS'man__ALL__'
p3634
I01
sS'four__ALL__'
p3635
I01
sS'can__ALL__'
p3636
I01
sS'wrong__ALL__'
p3637
I01
sS'no__ALL__'
p3638
I01
sS'four__BOTTOM__'
p3639
I01
sS'wrong__TOP__'
p3640
I01
sS'basebal__ALL__'
p3641
I01
sa(dp3642
S'all__ALL__'
p3643
I01
sS'all__BOTTOM__'
p3644
I01
sS'with__ALL__'
p3645
I01
sS'cocki__BOTTOM__'
p3646
I01
sS'day__BOTTOM__'
p3647
I01
sS'with__TOP__'
p3648
I01
sS'in__TOP__'
p3649
I01
sS'hole__TOP__'
p3650
I01
sS'man__TOP__'
p3651
I01
sS'in__ALL__'
p3652
I01
sS'hole__ALL__'
p3653
I01
sS'long__BOTTOM__'
p3654
I01
sS'feel__BOTTOM__'
p3655
I01
sS'day__ALL__'
p3656
I01
sS'pocket__ALL__'
p3657
I01
sS'pocket__TOP__'
p3658
I01
sS'long__ALL__'
p3659
I01
sS'cocki__ALL__'
p3660
I01
sS'feel__ALL__'
p3661
I01
sS'man__ALL__'
p3662
I01
sa(dp3663
S'vote__BOTTOM__'
p3664
I01
sS'for__BOTTOM__'
p3665
I01
sS'treasur__ALL__'
p3666
I01
sS'confuciu__TOP__'
p3667
I01
sS'samir__ALL__'
p3668
I01
sS'say__ALL__'
p3669
I01
sS'vote__ALL__'
p3670
I01
sS'samir__BOTTOM__'
p3671
I01
sS'say__TOP__'
p3672
I01
sS'for__ALL__'
p3673
I01
sS'confuciu__ALL__'
p3674
I01
sS'treasur__BOTTOM__'
p3675
I01
sa(dp3676
S'prosttu__BOTTOM__'
p3677
I01
sS'is__ALL__'
p3678
I01
sS'hi__ALL__'
p3679
I01
sS'a__BOTTOM__'
p3680
I01
sS'mum__ALL__'
p3681
I01
sS'shai__ALL__'
p3682
I01
sS'a__ALL__'
p3683
I01
sS'mum__BOTTOM__'
p3684
I01
sS'hi__BOTTOM__'
p3685
I01
sS'and__ALL__'
p3686
I01
sS'shai__TOP__'
p3687
I01
sS'gay__TOP__'
p3688
I01
sS'and__BOTTOM__'
p3689
I01
sS'prosttu__ALL__'
p3690
I01
sS'is__TOP__'
p3691
I01
sS'gay__ALL__'
p3692
I01
sa(dp3693
S'fuck__TOP__'
p3694
I01
sS'ninja__BOTTOM__'
p3695
I01
sS'offf__ALL__'
p3696
I01
sS'ninja__ALL__'
p3697
I01
sS'fuck__ALL__'
p3698
I01
sS'i__ALL__'
p3699
I01
sS'ur__ALL__'
p3700
I01
sS'ur__BOTTOM__'
p3701
I01
sS'me__ALL__'
p3702
I01
sS'offf__TOP__'
p3703
I01
sS'you__TOP__'
p3704
I01
sS'tell__TOP__'
p3705
I01
sS'ass__ALL__'
p3706
I01
sS'me__TOP__'
p3707
I01
sS'ass__BOTTOM__'
p3708
I01
sS'you__ALL__'
p3709
I01
sS'tell__ALL__'
p3710
I01
sS'i__BOTTOM__'
p3711
I01
sa(dp3712
S'say__ALL__'
p3713
I01
sS'bahd__ALL__'
p3714
I01
sS'bahd__BOTTOM__'
p3715
I01
sS'confuciu__TOP__'
p3716
I01
sS'bee__ALL__'
p3717
I01
sS'bee__BOTTOM__'
p3718
I01
sS'yew__ALL__'
p3719
I01
sS'boi__ALL__'
p3720
I01
sS'say__TOP__'
p3721
I01
sS'boi__BOTTOM__'
p3722
I01
sS'yew__BOTTOM__'
p3723
I01
sS'confuciu__ALL__'
p3724
I01
sa(dp3725
S'teacher__ALL__'
p3726
I01
sS'test__BOTTOM__'
p3727
I01
sS'69__TOP__'
p3728
I01
sS'to__BOTTOM__'
p3729
I01
sS'to__ALL__'
p3730
I01
sS'69__ALL__'
p3731
I01
sS'better__ALL__'
p3732
I01
sS'on__ALL__'
p3733
I01
sS'test__TOP__'
p3734
I01
sS'better__BOTTOM__'
p3735
I01
sS'give__ALL__'
p3736
I01
sS'test__ALL__'
p3737
I01
sS'on__BOTTOM__'
p3738
I01
sS'teacher__TOP__'
p3739
I01
sS'59__ALL__'
p3740
I01
sS'59__BOTTOM__'
p3741
I01
sS'on__TOP__'
p3742
I01
sS'teacher__BOTTOM__'
p3743
I01
sS'give__TOP__'
p3744
I01
sa(dp3745
S'heart__ALL__'
p3746
I01
sS'with__ALL__'
p3747
I01
sS'go__BOTTOM__'
p3748
I01
sS'go__ALL__'
p3749
I01
sS'heart__BOTTOM__'
p3750
I01
sS'with__BOTTOM__'
p3751
I01
sS'you__TOP__'
p3752
I01
sS'wherev__ALL__'
p3753
I01
sS'you__ALL__'
p3754
I01
sS'your__ALL__'
p3755
I01
sS'your__BOTTOM__'
p3756
I01
sS'wherev__TOP__'
p3757
I01
sS'go__TOP__'
p3758
I01
sa(dp3759
S'all__ALL__'
p3760
I01
sS'all__BOTTOM__'
p3761
I01
sS'bro__ALL__'
p3762
I01
sS'samurai__ALL__'
p3763
I01
sS'bro__TOP__'
p3764
I01
sS'and__ALL__'
p3765
I01
sS'himself__BOTTOM__'
p3766
I01
sS'and__TOP__'
p3767
I01
sS'for__BOTTOM__'
p3768
I01
sS'offer__ALL__'
p3769
I01
sS'take__BOTTOM__'
p3770
I01
sS'samurai__TOP__'
p3771
I01
sS'you__ALL__'
p3772
I01
sS'for__ALL__'
p3773
I01
sS'himself__ALL__'
p3774
I01
sS'you__TOP__'
p3775
I01
sS'take__ALL__'
p3776
I01
sS'offer__TOP__'
p3777
I01
sS'sword__ALL__'
p3778
I01
sS'chicklet__ALL__'
p3779
I01
sS'sword__TOP__'
p3780
I01
sS'chicklet__TOP__'
p3781
I01
sa(dp3782
S'airport__TOP__'
p3783
I01
sS'waddl__TOP__'
p3784
I01
sS'waddl__ALL__'
p3785
I01
sS'to__BOTTOM__'
p3786
I01
sS'to__ALL__'
p3787
I01
sS'airport__ALL__'
p3788
I01
sS'thailand__ALL__'
p3789
I01
sS'out__ALL__'
p3790
I01
sS'thailand__BOTTOM__'
p3791
I01
sS'went__ALL__'
p3792
I01
sS'who__ALL__'
p3793
I01
sS'man__TOP__'
p3794
I01
sS'of__TOP__'
p3795
I01
sS'who__TOP__'
p3796
I01
sS'of__ALL__'
p3797
I01
sS'man__ALL__'
p3798
I01
sS'out__TOP__'
p3799
I01
sS'went__BOTTOM__'
p3800
I01
sa(dp3801
S'like__ALL__'
p3802
I01
sS'philosophi__TOP__'
p3803
I01
sS'full__BOTTOM__'
p3804
I01
sS'like__TOP__'
p3805
I01
sS'crap__ALL__'
p3806
I01
sS'philosophi__ALL__'
p3807
I01
sS'full__ALL__'
p3808
I01
sS'is__ALL__'
p3809
I01
sS'plumb__TOP__'
p3810
I01
sS'is__TOP__'
p3811
I01
sS'plumb__ALL__'
p3812
I01
sS'crap__BOTTOM__'
p3813
I01
sS'of__ALL__'
p3814
I01
sS'of__BOTTOM__'
p3815
I01
sa(dp3816
S'pizza__BOTTOM__'
p3817
I01
sS'broadcast__ALL__'
p3818
I01
sS'seal__ALL__'
p3819
I01
sS'to__BOTTOM__'
p3820
I01
sS'osama__ALL__'
p3821
I01
sS'us__ALL__'
p3822
I01
sS'wifi__BOTTOM__'
p3823
I01
sS'us__BOTTOM__'
p3824
I01
sS'pizza__ALL__'
p3825
I01
sS'goe__TOP__'
p3826
I01
sS'fish__TOP__'
p3827
I01
sS'compliment__TOP__'
p3828
I01
sS'locat__BOTTOM__'
p3829
I01
sS'for__BOTTOM__'
p3830
I01
sS'navi__BOTTOM__'
p3831
I01
sS'troll__ALL__'
p3832
I01
sS'for__ALL__'
p3833
I01
sS'fish__ALL__'
p3834
I01
sS'broadcast__BOTTOM__'
p3835
I01
sS'compliment__ALL__'
p3836
I01
sS'troll__TOP__'
p3837
I01
sS'for__TOP__'
p3838
I01
sS'osama__BOTTOM__'
p3839
I01
sS'to__ALL__'
p3840
I01
sS'osama__TOP__'
p3841
I01
sS'seal__BOTTOM__'
p3842
I01
sS'locat__ALL__'
p3843
I01
sS'navi__ALL__'
p3844
I01
sS'wifi__ALL__'
p3845
I01
sS'goe__ALL__'
p3846
I01
sa(dp3847
S'make__ALL__'
p3848
I01
sS'fat__ALL__'
p3849
I01
sS'make__BOTTOM__'
p3850
I01
sS'meme__ALL__'
p3851
I01
sS'asian__TOP__'
p3852
I01
sS'meme__TOP__'
p3853
I01
sS'fat__TOP__'
p3854
I01
sS'grab__ALL__'
p3855
I01
sS'grab__BOTTOM__'
p3856
I01
sS'your__ALL__'
p3857
I01
sS'you__ALL__'
p3858
I01
sS'you__BOTTOM__'
p3859
I01
sS'your__BOTTOM__'
p3860
I01
sS'wew__BOTTOM__'
p3861
I01
sS'asian__ALL__'
p3862
I01
sS'wew__ALL__'
p3863
I01
sa(dp3864
S'all__ALL__'
p3865
I01
sS'all__BOTTOM__'
p3866
I01
sS'bro__ALL__'
p3867
I01
sS'offer__ALL__'
p3868
I01
sS'for__BOTTOM__'
p3869
I01
sS'himself__ALL__'
p3870
I01
sS'chicklet__ALL__'
p3871
I01
sS'chicklet__TOP__'
p3872
I01
sS'bro__TOP__'
p3873
I01
sS'you__TOP__'
p3874
I01
sS'take__ALL__'
p3875
I01
sS'take__BOTTOM__'
p3876
I01
sS'offer__TOP__'
p3877
I01
sS'himself__BOTTOM__'
p3878
I01
sS'you__ALL__'
p3879
I01
sS'for__ALL__'
p3880
I01
sa(dp3881
S'to__ALL__'
p3882
I01
sS'master__TOP__'
p3883
I01
sS'wit__ALL__'
p3884
I01
sS'wit__BOTTOM__'
p3885
I01
sS'to__BOTTOM__'
p3886
I01
sS'axe__ALL__'
p3887
I01
sS'sharp__BOTTOM__'
p3888
I01
sS'is__ALL__'
p3889
I01
sS'who__ALL__'
p3890
I01
sS'man__TOP__'
p3891
I01
sS'sharp__ALL__'
p3892
I01
sS'bound__ALL__'
p3893
I01
sS'who__TOP__'
p3894
I01
sS'have__BOTTOM__'
p3895
I01
sS'master__ALL__'
p3896
I01
sS'axe__TOP__'
p3897
I01
sS'have__ALL__'
p3898
I01
sS'is__BOTTOM__'
p3899
I01
sS'bound__BOTTOM__'
p3900
I01
sS'man__ALL__'
p3901
I01
sa(dp3902
S'man__BOTTOM__'
p3903
I01
sS'old__ALL__'
p3904
I01
sS'timeless__ALL__'
p3905
I01
sS'scrub__BOTTOM__'
p3906
I01
sS'scrub__ALL__'
p3907
I01
sS'luck__TOP__'
p3908
I01
sS'back__ALL__'
p3909
I01
sS'back__BOTTOM__'
p3910
I01
sS'old__BOTTOM__'
p3911
I01
sS'timeless__TOP__'
p3912
I01
sS'luck__ALL__'
p3913
I01
sS'wiseman__TOP__'
p3914
I01
sS'wiseman__ALL__'
p3915
I01
sS'man__ALL__'
p3916
I01
sa(dp3917
S'to__ALL__'
p3918
I01
sS'want__TOP__'
p3919
I01
sS'?__BOTTOM__'
p3920
I01
sS'to__BOTTOM__'
p3921
I01
sS'fuck__ALL__'
p3922
I01
sS'fuck__BOTTOM__'
p3923
I01
sS'me__BOTTOM__'
p3924
I01
sS'me__ALL__'
p3925
I01
sS'you__TOP__'
p3926
I01
sS'on__ALL__'
p3927
I01
sS'on__BOTTOM__'
p3928
I01
sS'you__ALL__'
p3929
I01
sS'?__ALL__'
p3930
I01
sS'want__ALL__'
p3931
I01
sa(dp3932
S'bu__ALL__'
p3933
I01
sS'chase__ALL__'
p3934
I01
sS'get__ALL__'
p3935
I01
sS'get__BOTTOM__'
p3936
I01
sS'tire__BOTTOM__'
p3937
I01
sS'tire__ALL__'
p3938
I01
sS'bu__TOP__'
p3939
I01
sS'who__ALL__'
p3940
I01
sS'man__TOP__'
p3941
I01
sS'who__TOP__'
p3942
I01
sS'chase__TOP__'
p3943
I01
sS'man__ALL__'
p3944
I01
sa(dp3945
S'peni__ALL__'
p3946
I01
sS'peanut__TOP__'
p3947
I01
sS'butter__TOP__'
p3948
I01
sS'nut__BOTTOM__'
p3949
I01
sS'in__ALL__'
p3950
I01
sS'f__BOTTOM__'
p3951
I01
sS'with__ALL__'
p3952
I01
sS'%__BOTTOM__'
p3953
I01
sS'with__TOP__'
p3954
I01
sS'#__BOTTOM__'
p3955
I01
sS'nut__ALL__'
p3956
I01
sS'peanut__ALL__'
p3957
I01
sS'%__ALL__'
p3958
I01
sS'man__TOP__'
p3959
I01
sS'f__ALL__'
p3960
I01
sS'butter__ALL__'
p3961
I01
sS'man__ALL__'
p3962
I01
sS'king__BOTTOM__'
p3963
I01
sS'in__TOP__'
p3964
I01
sS'#__ALL__'
p3965
I01
sS'peni__TOP__'
p3966
I01
sS'king__ALL__'
p3967
I01
sa(dp3968
S'again__ALL__'
p3969
I01
sS'?__ALL__'
p3970
I01
sS'again__BOTTOM__'
p3971
I01
sS'no__TOP__'
p3972
I01
sS'score__ALL__'
p3973
I01
sS'?__TOP__'
p3974
I01
sS'score__TOP__'
p3975
I01
sS'play__ALL__'
p3976
I01
sS'play__BOTTOM__'
p3977
I01
sS'no__ALL__'
p3978
I01
sa(dp3979
S'wagstaff__ALL__'
p3980
I01
sS'runni__ALL__'
p3981
I01
sS'nathan__ALL__'
p3982
I01
sS'he__ALL__'
p3983
I01
sS'runni__BOTTOM__'
p3984
I01
sS'so__BOTTOM__'
p3985
I01
sS'nathan__TOP__'
p3986
I01
sS'wagstaff__TOP__'
p3987
I01
sS'he__BOTTOM__'
p3988
I01
sS'so__ALL__'
p3989
I01
sa(dp3990
S'ignor__ALL__'
p3991
I01
sS'she__ALL__'
p3992
I01
sS'a__TOP__'
p3993
I01
sS'give__ALL__'
p3994
I01
sS'will__ALL__'
p3995
I01
sS'ps3__TOP__'
p3996
I01
sS'if__TOP__'
p3997
I01
sS'a__ALL__'
p3998
I01
sS'ps3__ALL__'
p3999
I01
sS'game__ALL__'
p4000
I01
sS'she__BOTTOM__'
p4001
I01
sS'if__ALL__'
p4002
I01
sS'you__ALL__'
p4003
I01
sS'you__BOTTOM__'
p4004
I01
sS'will__BOTTOM__'
p4005
I01
sS'crush__TOP__'
p4006
I01
sS'game__TOP__'
p4007
I01
sS'your__ALL__'
p4008
I01
sS'you__TOP__'
p4009
I01
sS'give__TOP__'
p4010
I01
sS'crush__ALL__'
p4011
I01
sS'your__TOP__'
p4012
I01
sS'ignor__BOTTOM__'
p4013
I01
sa(dp4014
S'to__BOTTOM__'
p4015
I01
sS'a__TOP__'
p4016
I01
sS'and__ALL__'
p4017
I01
sS'and__BOTTOM__'
p4018
I01
sS'find__BOTTOM__'
p4019
I01
sS'a__ALL__'
p4020
I01
sS'hard__TOP__'
p4021
I01
sS'shell__TOP__'
p4022
I01
sS'good__BOTTOM__'
p4023
I01
sS'good__ALL__'
p4024
I01
sS'hard__BOTTOM__'
p4025
I01
sS'good__TOP__'
p4026
I01
sS'hard__ALL__'
p4027
I01
sS'find__ALL__'
p4028
I01
sS'is__BOTTOM__'
p4029
I01
sS'to__ALL__'
p4030
I01
sS'a__BOTTOM__'
p4031
I01
sS'to__TOP__'
p4032
I01
sS'is__ALL__'
p4033
I01
sS'find__TOP__'
p4034
I01
sS'is__TOP__'
p4035
I01
sS'shell__BOTTOM__'
p4036
I01
sS'shell__ALL__'
p4037
I01
sa(dp4038
S'swallow__ALL__'
p4039
I01
sS'that__ALL__'
p4040
I01
sS'women__ALL__'
p4041
I01
sS'are__ALL__'
p4042
I01
sS'ken__BOTTOM__'
p4043
I01
sS'love__BOTTOM__'
p4044
I01
sS'ken__ALL__'
p4045
I01
sS'are__BOTTOM__'
p4046
I01
sS'one__ALL__'
p4047
I01
sS'one__BOTTOM__'
p4048
I01
sS'the__ALL__'
p4049
I01
sS'who__ALL__'
p4050
I01
sS'that__BOTTOM__'
p4051
I01
sS'who__TOP__'
p4052
I01
sS'swallow__TOP__'
p4053
I01
sS'the__BOTTOM__'
p4054
I01
sS'women__TOP__'
p4055
I01
sS'love__ALL__'
p4056
I01
sa(dp4057
S'look__TOP__'
p4058
I01
sS'not__ALL__'
p4059
I01
sS'doe__ALL__'
p4060
I01
sS'doe__BOTTOM__'
p4061
I01
sS'give__ALL__'
p4062
I01
sS'give__BOTTOM__'
p4063
I01
sS'at__ALL__'
p4064
I01
sS'look__ALL__'
p4065
I01
sS'a__ALL__'
p4066
I01
sS'!__BOTTOM__'
p4067
I01
sS'fuck__ALL__'
p4068
I01
sS'it__BOTTOM__'
p4069
I01
sS'face__ALL__'
p4070
I01
sS'fuck__BOTTOM__'
p4071
I01
sS'it__ALL__'
p4072
I01
sS'face__TOP__'
p4073
I01
sS'!__ALL__'
p4074
I01
sS'a__BOTTOM__'
p4075
I01
sS'my__TOP__'
p4076
I01
sS'not__BOTTOM__'
p4077
I01
sS'my__ALL__'
p4078
I01
sS'at__TOP__'
p4079
I01
sa(dp4080
S'to__BOTTOM__'
p4081
I01
sS'a__TOP__'
p4082
I01
sS'toilet__TOP__'
p4083
I01
sS'in__ALL__'
p4084
I01
sS'have__ALL__'
p4085
I01
sS'a__ALL__'
p4086
I01
sS'time__ALL__'
p4087
I01
sS'watch__TOP__'
p4088
I01
sS'shitti__ALL__'
p4089
I01
sS'who__ALL__'
p4090
I01
sS'shitti__BOTTOM__'
p4091
I01
sS'who__TOP__'
p4092
I01
sS'have__BOTTOM__'
p4093
I01
sS'drop__TOP__'
p4094
I01
sS'time__BOTTOM__'
p4095
I01
sS'man__TOP__'
p4096
I01
sS'is__BOTTOM__'
p4097
I01
sS'bound__BOTTOM__'
p4098
I01
sS'man__ALL__'
p4099
I01
sS'to__ALL__'
p4100
I01
sS'in__TOP__'
p4101
I01
sS'toilet__ALL__'
p4102
I01
sS'watch__ALL__'
p4103
I01
sS'is__ALL__'
p4104
I01
sS'bound__ALL__'
p4105
I01
sS'drop__ALL__'
p4106
I01
sa(dp4107
S'to__BOTTOM__'
p4108
I01
sS'a__TOP__'
p4109
I01
sS'in__ALL__'
p4110
I01
sS'work__BOTTOM__'
p4111
I01
sS'day__ALL__'
p4112
I01
sS'and__ALL__'
p4113
I01
sS'will__ALL__'
p4114
I01
sS'and__BOTTOM__'
p4115
I01
sS'your__BOTTOM__'
p4116
I01
sS'have__ALL__'
p4117
I01
sS'a__ALL__'
p4118
I01
sS'choos__TOP__'
p4119
I01
sS'never__BOTTOM__'
p4120
I01
sS'job__ALL__'
p4121
I01
sS'you__ALL__'
p4122
I01
sS'you__BOTTOM__'
p4123
I01
sS'choos__ALL__'
p4124
I01
sS'love__ALL__'
p4125
I01
sS'you__TOP__'
p4126
I01
sS'in__BOTTOM__'
p4127
I01
sS'have__BOTTOM__'
p4128
I01
sS'job__TOP__'
p4129
I01
sS'your__ALL__'
p4130
I01
sS'love__TOP__'
p4131
I01
sS'to__ALL__'
p4132
I01
sS'will__BOTTOM__'
p4133
I01
sS'a__BOTTOM__'
p4134
I01
sS'never__ALL__'
p4135
I01
sS'day__BOTTOM__'
p4136
I01
sS'work__ALL__'
p4137
I01
sS'life__ALL__'
p4138
I01
sS'life__BOTTOM__'
p4139
I01
sa(dp4140
S'rout__ALL__'
p4141
I01
sS'22__TOP__'
p4142
I01
sS'and__ALL__'
p4143
I01
sS'will__ALL__'
p4144
I01
sS'20__ALL__'
p4145
I01
sS'and__TOP__'
p4146
I01
sS'out__ALL__'
p4147
I01
sS'who__ALL__'
p4148
I01
sS'student__ALL__'
p4149
I01
sS'who__TOP__'
p4150
I01
sS'of__ALL__'
p4151
I01
sS'will__BOTTOM__'
p4152
I01
sS'of__BOTTOM__'
p4153
I01
sS'out__BOTTOM__'
p4154
I01
sS'bu__ALL__'
p4155
I01
sS'20__TOP__'
p4156
I01
sS'bu__TOP__'
p4157
I01
sS'breath__ALL__'
p4158
I01
sS'take__ALL__'
p4159
I01
sS'be__BOTTOM__'
p4160
I01
sS'student__TOP__'
p4161
I01
sS'22__ALL__'
p4162
I01
sS'be__ALL__'
p4163
I01
sS'breath__BOTTOM__'
p4164
I01
sS'rout__TOP__'
p4165
I01
sS'take__TOP__'
p4166
I01
sa(dp4167
S'set__ALL__'
p4168
I01
sS'fart__TOP__'
p4169
I01
sS'in__TOP__'
p4170
I01
sS'church__ALL__'
p4171
I01
sS'fart__ALL__'
p4172
I01
sS'pew__ALL__'
p4173
I01
sS'in__ALL__'
p4174
I01
sS'who__ALL__'
p4175
I01
sS'man__TOP__'
p4176
I01
sS'set__BOTTOM__'
p4177
I01
sS'on__ALL__'
p4178
I01
sS'on__BOTTOM__'
p4179
I01
sS'who__TOP__'
p4180
I01
sS'man__ALL__'
p4181
I01
sS'pew__BOTTOM__'
p4182
I01
sS'church__TOP__'
p4183
I01
sa(dp4184
S'set__ALL__'
p4185
I01
sS'fart__TOP__'
p4186
I01
sS'in__TOP__'
p4187
I01
sS'church__ALL__'
p4188
I01
sS'fart__ALL__'
p4189
I01
sS'pew__ALL__'
p4190
I01
sS'in__ALL__'
p4191
I01
sS'who__ALL__'
p4192
I01
sS'man__TOP__'
p4193
I01
sS'set__BOTTOM__'
p4194
I01
sS'on__ALL__'
p4195
I01
sS'on__BOTTOM__'
p4196
I01
sS'who__TOP__'
p4197
I01
sS'man__ALL__'
p4198
I01
sS'pew__BOTTOM__'
p4199
I01
sS'church__TOP__'
p4200
I01
sa(dp4201
S'those__TOP__'
p4202
I01
sS'stupid__TOP__'
p4203
I01
sS'stupid__BOTTOM__'
p4204
I01
sS'are__ALL__'
p4205
I01
sS'stupid__ALL__'
p4206
I01
sS'those__ALL__'
p4207
I01
sS'are__BOTTOM__'
p4208
I01
sS'realli__ALL__'
p4209
I01
sS'are__TOP__'
p4210
I01
sS'who__ALL__'
p4211
I01
sS'realli__BOTTOM__'
p4212
I01
sS'who__TOP__'
p4213
I01
sa(dp4214
S'gloucest__TOP__'
p4215
I01
sS'gloucest__ALL__'
p4216
I01
sS'000__BOTTOM__'
p4217
I01
sS'?__BOTTOM__'
p4218
I01
sS'with__TOP__'
p4219
I01
sS'defend__ALL__'
p4220
I01
sS'?__ALL__'
p4221
I01
sS'defend__TOP__'
p4222
I01
sS'with__ALL__'
p4223
I01
sS'hill__ALL__'
p4224
I01
sS'men__ALL__'
p4225
I01
sS'4__ALL__'
p4226
I01
sS'4__TOP__'
p4227
I01
sS'hill__TOP__'
p4228
I01
sS'000__ALL__'
p4229
I01
sS'men__BOTTOM__'
p4230
I01
sa(dp4231
S'masturb__ALL__'
p4232
I01
sS'period__ALL__'
p4233
I01
sS'woman__TOP__'
p4234
I01
sS'get__BOTTOM__'
p4235
I01
sS'red__BOTTOM__'
p4236
I01
sS'get__ALL__'
p4237
I01
sS'caught__BOTTOM__'
p4238
I01
sS'masturb__TOP__'
p4239
I01
sS'caught__ALL__'
p4240
I01
sS'period__TOP__'
p4241
I01
sS'who__ALL__'
p4242
I01
sS'red__ALL__'
p4243
I01
sS'on__ALL__'
p4244
I01
sS'who__TOP__'
p4245
I01
sS'hand__ALL__'
p4246
I01
sS'hand__BOTTOM__'
p4247
I01
sS'on__TOP__'
p4248
I01
sS'woman__ALL__'
p4249
I01
sa(dp4250
S'all__ALL__'
p4251
I01
sS'shake__TOP__'
p4252
I01
sS'damn__BOTTOM__'
p4253
I01
sS'the__TOP__'
p4254
I01
sS'than__ALL__'
p4255
I01
sS'damn__ALL__'
p4256
I01
sS'shake__ALL__'
p4257
I01
sS'bring__ALL__'
p4258
I01
sS'it__BOTTOM__'
p4259
I01
sS'right__BOTTOM__'
p4260
I01
sS'right__ALL__'
p4261
I01
sS'girl__TOP__'
p4262
I01
sS'ur__BOTTOM__'
p4263
I01
sS'better__ALL__'
p4264
I01
sS'girl__ALL__'
p4265
I01
sS'it__ALL__'
p4266
I01
sS'milk__ALL__'
p4267
I01
sS'than__BOTTOM__'
p4268
I01
sS'bring__TOP__'
p4269
I01
sS'to__ALL__'
p4270
I01
sS'ur__ALL__'
p4271
I01
sS'all__TOP__'
p4272
I01
sS'my__TOP__'
p4273
I01
sS'to__TOP__'
p4274
I01
sS'milk__TOP__'
p4275
I01
sS'my__ALL__'
p4276
I01
sS'better__BOTTOM__'
p4277
I01
sS'the__ALL__'
p4278
I01
sS'yard__ALL__'
p4279
I01
sS'yard__TOP__'
p4280
I01
sa(dp4281
S'best__BOTTOM__'
p4282
I01
sS'a__ALL__'
p4283
I01
sS'best__ALL__'
p4284
I01
sS'money__TOP__'
p4285
I01
sS'fool__ALL__'
p4286
I01
sS'a__BOTTOM__'
p4287
I01
sS'money__ALL__'
p4288
I01
sS'a__TOP__'
p4289
I01
sS'are__BOTTOM__'
p4290
I01
sS'girl__ALL__'
p4291
I01
sS'friend__BOTTOM__'
p4292
I01
sS'and__ALL__'
p4293
I01
sS'hi__ALL__'
p4294
I01
sS'girl__BOTTOM__'
p4295
I01
sS'are__ALL__'
p4296
I01
sS'$__BOTTOM__'
p4297
I01
sS'friend__ALL__'
p4298
I01
sS'hi__TOP__'
p4299
I01
sS'fool__TOP__'
p4300
I01
sS'and__TOP__'
p4301
I01
sS'$__ALL__'
p4302
I01
sa(dp4303
S'i__TOP__'
p4304
I01
sS'thi__ALL__'
p4305
I01
sS'time__BOTTOM__'
p4306
I01
sS'wont__ALL__'
p4307
I01
sS'spit__BOTTOM__'
p4308
I01
sS'i__ALL__'
p4309
I01
sS'wont__BOTTOM__'
p4310
I01
sS'spit__ALL__'
p4311
I01
sS'i__BOTTOM__'
p4312
I01
sS'on__ALL__'
p4313
I01
sS'time__ALL__'
p4314
I01
sS'thi__BOTTOM__'
p4315
I01
sS'on__BOTTOM__'
p4316
I01
sS'swear__TOP__'
p4317
I01
sS'you__ALL__'
p4318
I01
sS'you__BOTTOM__'
p4319
I01
sS'swear__ALL__'
p4320
I01
sa(dp4321
S'feel__BOTTOM__'
p4322
I01
sS'cocki__BOTTOM__'
p4323
I01
sS'cocki__ALL__'
p4324
I01
sS'put__TOP__'
p4325
I01
sS'in__TOP__'
p4326
I01
sS'put__ALL__'
p4327
I01
sS'who__TOP__'
p4328
I01
sS'pocket__ALL__'
p4329
I01
sS'in__ALL__'
p4330
I01
sS'who__ALL__'
p4331
I01
sS'man__TOP__'
p4332
I01
sS'feel__ALL__'
p4333
I01
sS'pocket__TOP__'
p4334
I01
sS'hand__TOP__'
p4335
I01
sS'hand__ALL__'
p4336
I01
sS'man__ALL__'
p4337
I01
sa(dp4338
S'class__TOP__'
p4339
I01
sS'class__ALL__'
p4340
I01
sS'dodril__ALL__'
p4341
I01
sS'in__TOP__'
p4342
I01
sS'about__ALL__'
p4343
I01
sS'about__BOTTOM__'
p4344
I01
sS'in__ALL__'
p4345
I01
sS'who__ALL__'
p4346
I01
sS'know__BOTTOM__'
p4347
I01
sS'man__TOP__'
p4348
I01
sS'wife__BOTTOM__'
p4349
I01
sS'who__TOP__'
p4350
I01
sS'onli__ALL__'
p4351
I01
sS'wife__ALL__'
p4352
I01
sS'know__ALL__'
p4353
I01
sS'onli__BOTTOM__'
p4354
I01
sS'dodril__TOP__'
p4355
I01
sS'man__ALL__'
p4356
I01
sa(dp4357
S'cliff__BOTTOM__'
p4358
I01
sS'to__ALL__'
p4359
I01
sS'ha__ALL__'
p4360
I01
sS'cliff__ALL__'
p4361
I01
sS'off__BOTTOM__'
p4362
I01
sS'to__TOP__'
p4363
I01
sS'off__ALL__'
p4364
I01
sS'who__ALL__'
p4365
I01
sS'man__TOP__'
p4366
I01
sS'conclus__TOP__'
p4367
I01
sS'jump__ALL__'
p4368
I01
sS'who__TOP__'
p4369
I01
sS'ha__BOTTOM__'
p4370
I01
sS'jump__TOP__'
p4371
I01
sS'jump__BOTTOM__'
p4372
I01
sS'conclus__ALL__'
p4373
I01
sS'man__ALL__'
p4374
I01
sa(dp4375
S'dont__ALL__'
p4376
I01
sS'dont__BOTTOM__'
p4377
I01
sS'wont__BOTTOM__'
p4378
I01
sS'to__BOTTOM__'
p4379
I01
sS'post__ALL__'
p4380
I01
sS'and__ALL__'
p4381
I01
sS'and__BOTTOM__'
p4382
I01
sS'say__TOP__'
p4383
I01
sS'shit__ALL__'
p4384
I01
sS'wont__ALL__'
p4385
I01
sS'told__ALL__'
p4386
I01
sS'you__ALL__'
p4387
I01
sS'you__BOTTOM__'
p4388
I01
sS'to__ALL__'
p4389
I01
sS'told__BOTTOM__'
p4390
I01
sS'be__ALL__'
p4391
I01
sS'man__TOP__'
p4392
I01
sS'be__BOTTOM__'
p4393
I01
sS'man__ALL__'
p4394
I01
sS'shit__BOTTOM__'
p4395
I01
sS'wise__ALL__'
p4396
I01
sS'say__ALL__'
p4397
I01
sS'post__BOTTOM__'
p4398
I01
sS'wise__TOP__'
p4399
I01
sa(dp4400
S'shortcut__BOTTOM__'
p4401
I01
sS'via__BOTTOM__'
p4402
I01
sS'say__TOP__'
p4403
I01
sS'your__BOTTOM__'
p4404
I01
sS'shortcut__ALL__'
p4405
I01
sS'it__TOP__'
p4406
I01
sS'a__ALL__'
p4407
I01
sS'conficiu__TOP__'
p4408
I01
sS'your__TOP__'
p4409
I01
sS'conficiu__ALL__'
p4410
I01
sS':__ALL__'
p4411
I01
sS'easier__ALL__'
p4412
I01
sS'on__ALL__'
p4413
I01
sS'alway__TOP__'
p4414
I01
sS'easier__TOP__'
p4415
I01
sS'access__TOP__'
p4416
I01
sS'via__ALL__'
p4417
I01
sS'access__ALL__'
p4418
I01
sS'alway__ALL__'
p4419
I01
sS'desktop__TOP__'
p4420
I01
sS'it__ALL__'
p4421
I01
sS'desktop__ALL__'
p4422
I01
sS'your__ALL__'
p4423
I01
sS'desktop__BOTTOM__'
p4424
I01
sS'to__ALL__'
p4425
I01
sS'a__BOTTOM__'
p4426
I01
sS'to__TOP__'
p4427
I01
sS'is__ALL__'
p4428
I01
sS'say__ALL__'
p4429
I01
sS'is__TOP__'
p4430
I01
sS'on__BOTTOM__'
p4431
I01
sS':__TOP__'
p4432
I01
sa(dp4433
S'man__BOTTOM__'
p4434
I01
sS'scrub__BOTTOM__'
p4435
I01
sS'scrub__ALL__'
p4436
I01
sS'luck__TOP__'
p4437
I01
sS'back__ALL__'
p4438
I01
sS'back__BOTTOM__'
p4439
I01
sS'old__BOTTOM__'
p4440
I01
sS'old__ALL__'
p4441
I01
sS'time__TOP__'
p4442
I01
sS'time__ALL__'
p4443
I01
sS'luck__ALL__'
p4444
I01
sS'wiseman__TOP__'
p4445
I01
sS'wiseman__ALL__'
p4446
I01
sS'man__ALL__'
p4447
I01
sa(dp4448
S'out__BOTTOM__'
p4449
I01
sS'until__TOP__'
p4450
I01
sS'get__ALL__'
p4451
I01
sS'wait__ALL__'
p4452
I01
sS'until__ALL__'
p4453
I01
sS'it__TOP__'
p4454
I01
sS'get__TOP__'
p4455
I01
sS'dragon__ALL__'
p4456
I01
sS'bring__ALL__'
p4457
I01
sS'my__ALL__'
p4458
I01
sS'dragon__BOTTOM__'
p4459
I01
sS'it__ALL__'
p4460
I01
sS'dark__ALL__'
p4461
I01
sS'my__BOTTOM__'
p4462
I01
sS'wait__TOP__'
p4463
I01
sS'bring__BOTTOM__'
p4464
I01
sS'dark__TOP__'
p4465
I01
sS'out__ALL__'
p4466
I01
sa(dp4467
S'holland__ALL__'
p4468
I01
sS'fuck__BOTTOM__'
p4469
I01
sS'the__ALL__'
p4470
I01
sS'fuck__ALL__'
p4471
I01
sS'holland__TOP__'
p4472
I01
sS'snitch__ALL__'
p4473
I01
sS'what__ALL__'
p4474
I01
sS'the__BOTTOM__'
p4475
I01
sS'what__BOTTOM__'
p4476
I01
sS'snitch__TOP__'
p4477
I01
sa(dp4478
S'make__ALL__'
p4479
I01
sS'mistak__ALL__'
p4480
I01
sS'dont__BOTTOM__'
p4481
I01
sS'then__BOTTOM__'
p4482
I01
sS'not__TOP__'
p4483
I01
sS'do__ALL__'
p4484
I01
sS'anyth__BOTTOM__'
p4485
I01
sS'not__ALL__'
p4486
I01
sS'anyth__ALL__'
p4487
I01
sS'then__ALL__'
p4488
I01
sS'you__TOP__'
p4489
I01
sS'you__ALL__'
p4490
I01
sS'mistak__TOP__'
p4491
I01
sS'do__BOTTOM__'
p4492
I01
sS'if__ALL__'
p4493
I01
sS'make__TOP__'
p4494
I01
sS'you__BOTTOM__'
p4495
I01
sS'dont__ALL__'
p4496
I01
sS'do__TOP__'
p4497
I01
sS'if__TOP__'
p4498
I01
sa(dp4499
S'but__ALL__'
p4500
I01
sS'sit__TOP__'
p4501
I01
sS'stuff__ALL__'
p4502
I01
sS'say__TOP__'
p4503
I01
sS'sex__ALL__'
p4504
I01
sS'use__BOTTOM__'
p4505
I01
sS'peopl__TOP__'
p4506
I01
sS'know__ALL__'
p4507
I01
sS'peopl__ALL__'
p4508
I01
sS'but__BOTTOM__'
p4509
I01
sS'sex__BOTTOM__'
p4510
I01
sS'on__ALL__'
p4511
I01
sS'it__BOTTOM__'
p4512
I01
sS'1__BOTTOM__'
p4513
I01
sS'for__ALL__'
p4514
I01
sS'alway__TOP__'
p4515
I01
sS'everi__BOTTOM__'
p4516
I01
sS'they__TOP__'
p4517
I01
sS'everi__ALL__'
p4518
I01
sS'stuff__TOP__'
p4519
I01
sS'alway__ALL__'
p4520
I01
sS'know__BOTTOM__'
p4521
I01
sS'that__ALL__'
p4522
I01
sS'that__BOTTOM__'
p4523
I01
sS'it__ALL__'
p4524
I01
sS'they__ALL__'
p4525
I01
sS'for__BOTTOM__'
p4526
I01
sS'use__ALL__'
p4527
I01
sS'sit__ALL__'
p4528
I01
sS'1__ALL__'
p4529
I01
sS'on__TOP__'
p4530
I01
sS'say__ALL__'
p4531
I01
sS'they__BOTTOM__'
p4532
I01
sa(dp4533
S'osama__TOP__'
p4534
I01
sS'veri__BOTTOM__'
p4535
I01
sS'eat__TOP__'
p4536
I01
sS'osama__ALL__'
p4537
I01
sS'ball__TOP__'
p4538
I01
sS'nice__BOTTOM__'
p4539
I01
sS'nice__ALL__'
p4540
I01
sS'ball__ALL__'
p4541
I01
sS'eat__ALL__'
p4542
I01
sS'veri__ALL__'
p4543
I01
sa(dp4544
S'.__ALL__'
p4545
I01
sS'me__ALL__'
p4546
I01
sS'my__BOTTOM__'
p4547
I01
sS'say__TOP__'
p4548
I01
sS'!__BOTTOM__'
p4549
I01
sS'more__ALL__'
p4550
I01
sS'filter__BOTTOM__'
p4551
I01
sS'me__TOP__'
p4552
I01
sS'no__ALL__'
p4553
I01
sS'more__TOP__'
p4554
I01
sS'quang__ALL__'
p4555
I01
sS'lie__ALL__'
p4556
I01
sS'filter__ALL__'
p4557
I01
sS'no__TOP__'
p4558
I01
sS'to__ALL__'
p4559
I01
sS'!__ALL__'
p4560
I01
sS'.__TOP__'
p4561
I01
sS'to__TOP__'
p4562
I01
sS'say__ALL__'
p4563
I01
sS'my__ALL__'
p4564
I01
sS'quang__TOP__'
p4565
I01
sS'lie__TOP__'
p4566
I01
sS'where__BOTTOM__'
p4567
I01
sS'where__ALL__'
p4568
I01
sa(dp4569
S'but__ALL__'
p4570
I01
sS'to__BOTTOM__'
p4571
I01
sS'in__ALL__'
p4572
I01
sS'park__BOTTOM__'
p4573
I01
sS'it__TOP__'
p4574
I01
sS'but__BOTTOM__'
p4575
I01
sS'good__ALL__'
p4576
I01
sS'park__ALL__'
p4577
I01
sS'girl__BOTTOM__'
p4578
I01
sS'park__TOP__'
p4579
I01
sS'meet__TOP__'
p4580
I01
sS'meat__ALL__'
p4581
I01
sS'girl__TOP__'
p4582
I01
sS'good__TOP__'
p4583
I01
sS'better__ALL__'
p4584
I01
sS'girl__ALL__'
p4585
I01
sS'in__BOTTOM__'
p4586
I01
sS'meet__ALL__'
p4587
I01
sS'to__ALL__'
p4588
I01
sS'meat__BOTTOM__'
p4589
I01
sS'in__TOP__'
p4590
I01
sS'to__TOP__'
p4591
I01
sS'better__BOTTOM__'
p4592
I01
sS'it__ALL__'
p4593
I01
sa(dp4594
S'kind__TOP__'
p4595
I01
sS'two__ALL__'
p4596
I01
sS'there__ALL__'
p4597
I01
sS'kota__ALL__'
p4598
I01
sS'in__ALL__'
p4599
I01
sS'are__TOP__'
p4600
I01
sS'into__TOP__'
p4601
I01
sS'who__BOTTOM__'
p4602
I01
sS'into__ALL__'
p4603
I01
sS'peopl__TOP__'
p4604
I01
sS'peopl__ALL__'
p4605
I01
sS'iit__ALL__'
p4606
I01
sS'one__BOTTOM__'
p4607
I01
sS'who__ALL__'
p4608
I01
sS'who__TOP__'
p4609
I01
sS'of__ALL__'
p4610
I01
sS'get__ALL__'
p4611
I01
sS'are__BOTTOM__'
p4612
I01
sS'in__BOTTOM__'
p4613
I01
sS'of__TOP__'
p4614
I01
sS'kind__ALL__'
p4615
I01
sS'are__ALL__'
p4616
I01
sS'get__TOP__'
p4617
I01
sS'kota__BOTTOM__'
p4618
I01
sS'one__ALL__'
p4619
I01
sS'two__TOP__'
p4620
I01
sS'there__TOP__'
p4621
I01
sS'iit__TOP__'
p4622
I01
sa(dp4623
S'dickuhh__BOTTOM__'
p4624
I01
sS'sayuhh__TOP__'
p4625
I01
sS'confuciu__TOP__'
p4626
I01
sS'mai__BOTTOM__'
p4627
I01
sS'suck__ALL__'
p4628
I01
sS'suck__BOTTOM__'
p4629
I01
sS'dickuhh__ALL__'
p4630
I01
sS'mai__ALL__'
p4631
I01
sS'confuciu__ALL__'
p4632
I01
sS'sayuhh__ALL__'
p4633
I01
sa(dp4634
S'think__TOP__'
p4635
I01
sS'sought__BOTTOM__'
p4636
I01
sS'think__ALL__'
p4637
I01
sS'a__TOP__'
p4638
I01
sS'proceed__BOTTOM__'
p4639
I01
sS'embark__TOP__'
p4640
I01
sS'thought__TOP__'
p4641
I01
sS'dure__ALL__'
p4642
I01
sS'embark__ALL__'
p4643
I01
sS'a__ALL__'
p4644
I01
sS'drink__BOTTOM__'
p4645
I01
sS'shall__BOTTOM__'
p4646
I01
sS'shall__ALL__'
p4647
I01
sS'one__BOTTOM__'
p4648
I01
sS'on__ALL__'
p4649
I01
sS'thought__ALL__'
p4650
I01
sS'on__TOP__'
p4651
I01
sS'proceed__ALL__'
p4652
I01
sS'when__ALL__'
p4653
I01
sS'when__TOP__'
p4654
I01
sS'sought__ALL__'
p4655
I01
sS'dure__BOTTOM__'
p4656
I01
sS'a__BOTTOM__'
p4657
I01
sS'drink__ALL__'
p4658
I01
sS'one__ALL__'
p4659
I01
sa(dp4660
S'give__ALL__'
p4661
I01
sS'freeli__ALL__'
p4662
I01
sS'type__ALL__'
p4663
I01
sS'enter__TOP__'
p4664
I01
sS'tab__TOP__'
p4665
I01
sS'finger__ALL__'
p4666
I01
sS'type__TOP__'
p4667
I01
sS'f5__BOTTOM__'
p4668
I01
sS'tab__ALL__'
p4669
I01
sS'f5__ALL__'
p4670
I01
sS'give__BOTTOM__'
p4671
I01
sS'i__BOTTOM__'
p4672
I01
sS'ctrl__ALL__'
p4673
I01
sS'ctrl__BOTTOM__'
p4674
I01
sS'+__ALL__'
p4675
I01
sS'+__BOTTOM__'
p4676
I01
sS'finger__BOTTOM__'
p4677
I01
sS'enter__ALL__'
p4678
I01
sS'i__ALL__'
p4679
I01
sS'freeli__BOTTOM__'
p4680
I01
sa(dp4681
S'man__BOTTOM__'
p4682
I01
sS'high__ALL__'
p4683
I01
sS'toilet__BOTTOM__'
p4684
I01
sS'stand__BOTTOM__'
p4685
I01
sS'pot__ALL__'
p4686
I01
sS'pot__BOTTOM__'
p4687
I01
sS'confuciu__TOP__'
p4688
I01
sS'say__ALL__'
p4689
I01
sS'on__ALL__'
p4690
I01
sS'who__ALL__'
p4691
I01
sS'on__BOTTOM__'
p4692
I01
sS'toilet__ALL__'
p4693
I01
sS'say__TOP__'
p4694
I01
sS'high__BOTTOM__'
p4695
I01
sS'who__BOTTOM__'
p4696
I01
sS'stand__ALL__'
p4697
I01
sS'confuciu__ALL__'
p4698
I01
sS'man__ALL__'
p4699
I01
sa(dp4700
S'the__TOP__'
p4701
I01
sS'arrow__ALL__'
p4702
I01
sS'find__ALL__'
p4703
I01
sS'be__ALL__'
p4704
I01
sS'arrow__TOP__'
p4705
I01
sS'the__ALL__'
p4706
I01
sS'yourself__ALL__'
p4707
I01
sS'yourself__TOP__'
p4708
I01
sS'you__TOP__'
p4709
I01
sS'find__TOP__'
p4710
I01
sS'for__TOP__'
p4711
I01
sS'target__ALL__'
p4712
I01
sS'if__ALL__'
p4713
I01
sS'you__ALL__'
p4714
I01
sS'target__TOP__'
p4715
I01
sS'for__ALL__'
p4716
I01
sS'be__TOP__'
p4717
I01
sS'if__TOP__'
p4718
I01
sa(dp4719
S'think__TOP__'
p4720
I01
sS'think__ALL__'
p4721
I01
sS'to__BOTTOM__'
p4722
I01
sS'follow__ALL__'
p4723
I01
sS'a__TOP__'
p4724
I01
sS'must__ALL__'
p4725
I01
sS'embark__TOP__'
p4726
I01
sS'a__ALL__'
p4727
I01
sS'drink__BOTTOM__'
p4728
I01
sS'sought__BOTTOM__'
p4729
I01
sS'though__TOP__'
p4730
I01
sS'embark__ALL__'
p4731
I01
sS'on__ALL__'
p4732
I01
sS'upon__ALL__'
p4733
I01
sS'upon__TOP__'
p4734
I01
sS'on__TOP__'
p4735
I01
sS'though__ALL__'
p4736
I01
sS'with__ALL__'
p4737
I01
sS'sought__ALL__'
p4738
I01
sS'is__BOTTOM__'
p4739
I01
sS'follow__BOTTOM__'
p4740
I01
sS'to__ALL__'
p4741
I01
sS'a__BOTTOM__'
p4742
I01
sS'drink__ALL__'
p4743
I01
sS'must__BOTTOM__'
p4744
I01
sS'with__BOTTOM__'
p4745
I01
sS'is__ALL__'
p4746
I01
sa(dp4747
S'.__BOTTOM__'
p4748
I01
sS'!__ALL__'
p4749
I01
sS'huevona__TOP__'
p4750
I01
sS'no__BOTTOM__'
p4751
I01
sS'ay__ALL__'
p4752
I01
sS'soy__TOP__'
p4753
I01
sS'!__BOTTOM__'
p4754
I01
sS'!__TOP__'
p4755
I01
sS'huevona__ALL__'
p4756
I01
sS'si__TOP__'
p4757
I01
sS'sabidura__BOTTOM__'
p4758
I01
sS'si__ALL__'
p4759
I01
sS'.__ALL__'
p4760
I01
sS'sabidura__ALL__'
p4761
I01
sS'erika__BOTTOM__'
p4762
I01
sS'erika__ALL__'
p4763
I01
sS'soy__ALL__'
p4764
I01
sS'ay__TOP__'
p4765
I01
sS'no__ALL__'
p4766
I01
sa.