(lp0
(dp1
S'Joke__ALL__'
p2
I01
sS'about__ALL__'
p3
I01
sS'look__TOP__'
p4
I01
sS'a__TOP__'
p5
I01
sS'hors__TOP__'
p6
I01
sS'look__ALL__'
p7
I01
sS'a__ALL__'
p8
I01
sS'jessica__ALL__'
p9
I01
sS'A__TOP__'
p10
I01
sS'about__TOP__'
p11
I01
sS'like__TOP__'
p12
I01
sS'sarah__ALL__'
p13
I01
sS'A__ALL__'
p14
I01
sS'like__ALL__'
p15
I01
sS'jessica__TOP__'
p16
I01
sS'sarah__TOP__'
p17
I01
sS'parker__ALL__'
p18
I01
sS'Nay__BOTTOM__'
p19
I01
sS'Nay__ALL__'
p20
I01
sS'hors__ALL__'
p21
I01
sS'Joke__TOP__'
p22
I01
sS'parker__TOP__'
p23
I01
sa(dp24
S'help__ALL__'
p25
I01
sS'help__BOTTOM__'
p26
I01
sS'me__ALL__'
p27
I01
sS'Your__TOP__'
p28
I01
sS'die__ALL__'
p29
I01
sS'pet__TOP__'
p30
I01
sS'Let__BOTTOM__'
p31
I01
sS'buri__BOTTOM__'
p32
I01
sS'buri__ALL__'
p33
I01
sS'?__TOP__'
p34
I01
sS'it__BOTTOM__'
p35
I01
sS'you__ALL__'
p36
I01
sS'you__BOTTOM__'
p37
I01
sS'me__BOTTOM__'
p38
I01
sS'die__TOP__'
p39
I01
sS'ador__TOP__'
p40
I01
sS'it__ALL__'
p41
I01
sS'yesterday__ALL__'
p42
I01
sS'ador__ALL__'
p43
I01
sS'?__ALL__'
p44
I01
sS'yesterday__TOP__'
p45
I01
sS'Your__ALL__'
p46
I01
sS'pet__ALL__'
p47
I01
sS'Let__ALL__'
p48
I01
sa(dp49
S'comic__ALL__'
p50
I01
sS'get__ALL__'
p51
I01
sS'tradit__BOTTOM__'
p52
I01
sS'to__BOTTOM__'
p53
I01
sS'about__ALL__'
p54
I01
sS'a__TOP__'
p55
I01
sS'made__ALL__'
p56
I01
sS'Would__ALL__'
p57
I01
sS'Would__BOTTOM__'
p58
I01
sS'break__BOTTOM__'
p59
I01
sS'want__ALL__'
p60
I01
sS'a__ALL__'
p61
I01
sS'made__TOP__'
p62
I01
sS'about__TOP__'
p63
I01
sS'?__TOP__'
p64
I01
sS'rage__ALL__'
p65
I01
sS'you__ALL__'
p66
I01
sS'want__BOTTOM__'
p67
I01
sS'alway__TOP__'
p68
I01
sS'rage__TOP__'
p69
I01
sS"n't__BOTTOM__"
p70
I01
sS'downvot__ALL__'
p71
I01
sS"n't__ALL__"
p72
I01
sS'you__TOP__'
p73
I01
sS'alway__ALL__'
p74
I01
sS'comic__TOP__'
p75
I01
sS'break__ALL__'
p76
I01
sS'tradit__ALL__'
p77
I01
sS'to__ALL__'
p78
I01
sS'?__ALL__'
p79
I01
sS'how__TOP__'
p80
I01
sS'get__TOP__'
p81
I01
sS'downvot__TOP__'
p82
I01
sS'how__ALL__'
p83
I01
sa(dp84
S'I__TOP__'
p85
I01
sS'got__ALL__'
p86
I01
sS'to__BOTTOM__'
p87
I01
sS'Good__BOTTOM__'
p88
I01
sS'so__ALL__'
p89
I01
sS'friendzon__TOP__'
p90
I01
sS'just__TOP__'
p91
I01
sS'use__BOTTOM__'
p92
I01
sS'reject__BOTTOM__'
p93
I01
sS'so__BOTTOM__'
p94
I01
sS'FML__ALL__'
p95
I01
sS'you__ALL__'
p96
I01
sS'you__BOTTOM__'
p97
I01
sS',__TOP__'
p98
I01
sS"'re__BOTTOM__"
p99
I01
sS'!__TOP__'
p100
I01
sS',__ALL__'
p101
I01
sS'Good__ALL__'
p102
I01
sS',__BOTTOM__'
p103
I01
sS'reject__ALL__'
p104
I01
sS'FML__TOP__'
p105
I01
sS"'re__ALL__"
p106
I01
sS'use__ALL__'
p107
I01
sS'to__ALL__'
p108
I01
sS'!__ALL__'
p109
I01
sS'friendzon__ALL__'
p110
I01
sS'I__ALL__'
p111
I01
sS'just__ALL__'
p112
I01
sS'got__TOP__'
p113
I01
sa(dp114
S'make__ALL__'
p115
I01
sS'thi__TOP__'
p116
I01
sS',__BOTTOM__'
p117
I01
sS'girlfriend__ALL__'
p118
I01
sS',__TOP__'
p119
I01
sS'a__TOP__'
p120
I01
sS'and__BOTTOM__'
p121
I01
sS'me__ALL__'
p122
I01
sS'50__BOTTOM__'
p123
I01
sS'will__ALL__'
p124
I01
sS'downvot__BOTTOM__'
p125
I01
sS'&__ALL__'
p126
I01
sS'8221__ALL__'
p127
I01
sS'girlfriend__TOP__'
p128
I01
sS'if__TOP__'
p129
I01
sS'a__ALL__'
p130
I01
sS'and__ALL__'
p131
I01
sS'hot__BOTTOM__'
p132
I01
sS';__ALL__'
p133
I01
sS'fuck__ALL__'
p134
I01
sS'cheerio__ALL__'
p135
I01
sS'upvot__ALL__'
p136
I01
sS'thi__ALL__'
p137
I01
sS'Here__BOTTOM__'
p138
I01
sS'cheerio__TOP__'
p139
I01
sS'cup__ALL__'
p140
I01
sS'8221__TOP__'
p141
I01
sS'me__TOP__'
p142
I01
sS'if__ALL__'
p143
I01
sS'of__ALL__'
p144
I01
sS'fuck__BOTTOM__'
p145
I01
sS'of__BOTTOM__'
p146
I01
sS'upvot__TOP__'
p147
I01
sS'50__TOP__'
p148
I01
sS'&__TOP__'
p149
I01
sS';__TOP__'
p150
I01
sS'8220__ALL__'
p151
I01
sS'get__ALL__'
p152
I01
sS'downvot__ALL__'
p153
I01
sS',__ALL__'
p154
I01
sS'hot__ALL__'
p155
I01
sS'shut__ALL__'
p156
I01
sS'bowl__ALL__'
p157
I01
sS'Here__ALL__'
p158
I01
sS'of__TOP__'
p159
I01
sS'bowl__TOP__'
p160
I01
sS"'s__ALL__"
p161
I01
sS'up__ALL__'
p162
I01
sS'a__BOTTOM__'
p163
I01
sS'cup__BOTTOM__'
p164
I01
sS'the__ALL__'
p165
I01
sS'8220__TOP__'
p166
I01
sS'get__TOP__'
p167
I01
sS'up__BOTTOM__'
p168
I01
sS'shut__BOTTOM__'
p169
I01
sS'#__ALL__'
p170
I01
sS'my__ALL__'
p171
I01
sS'50__ALL__'
p172
I01
sS'make__TOP__'
p173
I01
sS'the__BOTTOM__'
p174
I01
sS'will__TOP__'
p175
I01
sS'#__TOP__'
p176
I01
sS'my__TOP__'
p177
I01
sS"'s__BOTTOM__"
p178
I01
sa(dp179
S'ruin__ALL__'
p180
I01
sS'ruin__BOTTOM__'
p181
I01
sS'not__ALL__'
p182
I01
sS'Your__TOP__'
p183
I01
sS'friendship__ALL__'
p184
I01
sS'your__BOTTOM__'
p185
I01
sS'Let__BOTTOM__'
p186
I01
sS'then__ALL__'
p187
I01
sS'if__TOP__'
p188
I01
sS'meme__ALL__'
p189
I01
sS'piss__ALL__'
p190
I01
sS'got__ALL__'
p191
I01
sS'?__TOP__'
p192
I01
sS'hi__ALL__'
p193
I01
sS'big__ALL__'
p194
I01
sS'friendship__BOTTOM__'
p195
I01
sS'friend__TOP__'
p196
I01
sS'friend__ALL__'
p197
I01
sS'then__BOTTOM__'
p198
I01
sS'piss__TOP__'
p199
I01
sS'if__ALL__'
p200
I01
sS',__ALL__'
p201
I01
sS'be__ALL__'
p202
I01
sS',__BOTTOM__'
p203
I01
sS'your__ALL__'
p204
I01
sS'hi__TOP__'
p205
I01
sS'be__TOP__'
p206
I01
sS'?__ALL__'
p207
I01
sS'meme__TOP__'
p208
I01
sS'big__TOP__'
p209
I01
sS'not__BOTTOM__'
p210
I01
sS'would__ALL__'
p211
I01
sS'would__TOP__'
p212
I01
sS'Your__ALL__'
p213
I01
sS"'s__ALL__"
p214
I01
sS'got__TOP__'
p215
I01
sS'Let__ALL__'
p216
I01
sS"'s__BOTTOM__"
p217
I01
sa(dp218
S'mine__BOTTOM__'
p219
I01
sS'bad__ALL__'
p220
I01
sS'It__BOTTOM__'
p221
I01
sS"n't__ALL__"
p222
I01
sS'mine__ALL__'
p223
I01
sS'same__BOTTOM__'
p224
I01
sS'as__ALL__'
p225
I01
sS'It__ALL__'
p226
I01
sS"n't__BOTTOM__"
p227
I01
sS'too__ALL__'
p228
I01
sS'Nice__ALL__'
p229
I01
sS'same__ALL__'
p230
I01
sS'is__BOTTOM__'
p231
I01
sS'as__BOTTOM__'
p232
I01
sS'Nice__TOP__'
p233
I01
sS'opinion__TOP__'
p234
I01
sS'too__BOTTOM__'
p235
I01
sS'is__ALL__'
p236
I01
sS'bad__BOTTOM__'
p237
I01
sS'opinion__ALL__'
p238
I01
sS'the__ALL__'
p239
I01
sS'the__BOTTOM__'
p240
I01
sa(dp241
S'got__BOTTOM__'
p242
I01
sS'probabl__TOP__'
p243
I01
sS'Thi__TOP__'
p244
I01
sS'got__ALL__'
p245
I01
sS'probabl__ALL__'
p246
I01
sS'downvot__ALL__'
p247
I01
sS'Thi__ALL__'
p248
I01
sS'downvot__TOP__'
p249
I01
sS'be__ALL__'
p250
I01
sS'that__ALL__'
p251
I01
sS'that__BOTTOM__'
p252
I01
sS'will__ALL__'
p253
I01
sS'You__ALL__'
p254
I01
sS'You__BOTTOM__'
p255
I01
sS'will__TOP__'
p256
I01
sS'right__BOTTOM__'
p257
I01
sS'be__TOP__'
p258
I01
sS'right__ALL__'
p259
I01
sa(dp260
S'see__ALL__'
p261
I01
sS'not__ALL__'
p262
I01
sS'in__ALL__'
p263
I01
sS'see__BOTTOM__'
p264
I01
sS'your__ALL__'
p265
I01
sS'one__ALL__'
p266
I01
sS'video__TOP__'
p267
I01
sS'ca__ALL__'
p268
I01
sS"n't__ALL__"
p269
I01
sS'Thi__TOP__'
p270
I01
sS'not__TOP__'
p271
I01
sS'shall__BOTTOM__'
p272
I01
sS'shall__ALL__'
p273
I01
sS'one__BOTTOM__'
p274
I01
sS'it__BOTTOM__'
p275
I01
sS'if__ALL__'
p276
I01
sS'if__BOTTOM__'
p277
I01
sS'no__ALL__'
p278
I01
sS'avail__TOP__'
p279
I01
sS"n't__BOTTOM__"
p280
I01
sS'i__ALL__'
p281
I01
sS'Thi__ALL__'
p282
I01
sS'it__ALL__'
p283
I01
sS'no__BOTTOM__'
p284
I01
sS'ca__BOTTOM__'
p285
I01
sS'in__TOP__'
p286
I01
sS'avail__ALL__'
p287
I01
sS'countri__TOP__'
p288
I01
sS'i__BOTTOM__'
p289
I01
sS'is__ALL__'
p290
I01
sS'your__TOP__'
p291
I01
sS'is__TOP__'
p292
I01
sS'countri__ALL__'
p293
I01
sS'video__ALL__'
p294
I01
sa(dp295
S'.__BOTTOM__'
p296
I01
sS'.__ALL__'
p297
I01
sS'How__TOP__'
p298
I01
sS'day__TOP__'
p299
I01
sS'wed__TOP__'
p300
I01
sS'day__ALL__'
p301
I01
sS'have__ALL__'
p302
I01
sS'How__ALL__'
p303
I01
sS"'s__TOP__"
p304
I01
sS'?__TOP__'
p305
I01
sS'Here__BOTTOM__'
p306
I01
sS'have__BOTTOM__'
p307
I01
sS'It__TOP__'
p308
I01
sS'someth__ALL__'
p309
I01
sS'someth__BOTTOM__'
p310
I01
sS',__ALL__'
p311
I01
sS'Here__ALL__'
p312
I01
sS',__BOTTOM__'
p313
I01
sS'your__ALL__'
p314
I01
sS'?__ALL__'
p315
I01
sS'sweet__TOP__'
p316
I01
sS'blue__ALL__'
p317
I01
sS'wed__ALL__'
p318
I01
sS'sweet__ALL__'
p319
I01
sS'blue__BOTTOM__'
p320
I01
sS'your__TOP__'
p321
I01
sS'It__ALL__'
p322
I01
sS"'s__ALL__"
p323
I01
sS'.__TOP__'
p324
I01
sa(dp325
S'maker__TOP__'
p326
I01
sS'year__ALL__'
p327
I01
sS'maker__ALL__'
p328
I01
sS'cousin__ALL__'
p329
I01
sS'old__TOP__'
p330
I01
sS'So__BOTTOM__'
p331
I01
sS'the__TOP__'
p332
I01
sS'.__ALL__'
p333
I01
sS'cousin__TOP__'
p334
I01
sS'limit__ALL__'
p335
I01
sS'rage__ALL__'
p336
I01
sS'Show__TOP__'
p337
I01
sS'So__ALL__'
p338
I01
sS'Show__ALL__'
p339
I01
sS'of__ALL__'
p340
I01
sS'mine__BOTTOM__'
p341
I01
sS'limit__TOP__'
p342
I01
sS'rage__TOP__'
p343
I01
sS'8__ALL__'
p344
I01
sS'8__TOP__'
p345
I01
sS'humor__TOP__'
p346
I01
sS'Hi__ALL__'
p347
I01
sS'of__TOP__'
p348
I01
sS'year__TOP__'
p349
I01
sS'is__BOTTOM__'
p350
I01
sS'Hi__TOP__'
p351
I01
sS'humor__ALL__'
p352
I01
sS'my__TOP__'
p353
I01
sS'old__ALL__'
p354
I01
sS'is__ALL__'
p355
I01
sS'my__ALL__'
p356
I01
sS'is__TOP__'
p357
I01
sS'mine__ALL__'
p358
I01
sS'the__ALL__'
p359
I01
sS'.__TOP__'
p360
I01
sS'sens__TOP__'
p361
I01
sS'sens__ALL__'
p362
I01
sa(dp363
S'I__TOP__'
p364
I01
sS'thi__TOP__'
p365
I01
sS'vote__TOP__'
p366
I01
sS'na__TOP__'
p367
I01
sS'at__ALL__'
p368
I01
sS'vote__ALL__'
p369
I01
sS'Well__BOTTOM__'
p370
I01
sS"'m__ALL__"
p371
I01
sS"'m__TOP__"
p372
I01
sS'gon__ALL__'
p373
I01
sS'thi__ALL__'
p374
I01
sS'know__ALL__'
p375
I01
sS'Well__ALL__'
p376
I01
sS'you__ALL__'
p377
I01
sS'you__BOTTOM__'
p378
I01
sS'for__ALL__'
p379
I01
sS'gon__TOP__'
p380
I01
sS'get__ALL__'
p381
I01
sS'someth__ALL__'
p382
I01
sS'someth__BOTTOM__'
p383
I01
sS'know__BOTTOM__'
p384
I01
sS'for__TOP__'
p385
I01
sS'know__TOP__'
p386
I01
sS'down__TOP__'
p387
I01
sS'I__ALL__'
p388
I01
sS'get__TOP__'
p389
I01
sS'down__ALL__'
p390
I01
sS'na__ALL__'
p391
I01
sS'at__BOTTOM__'
p392
I01
sS'least__ALL__'
p393
I01
sS'least__BOTTOM__'
p394
I01
sa(dp395
S'all__ALL__'
p396
I01
sS'I__TOP__'
p397
I01
sS'about__ALL__'
p398
I01
sS'Kelli__ALL__'
p399
I01
sS'post__ALL__'
p400
I01
sS'Thi__TOP__'
p401
I01
sS'about__TOP__'
p402
I01
sS'post__TOP__'
p403
I01
sS'essenti__ALL__'
p404
I01
sS'these__TOP__'
p405
I01
sS'Thi__ALL__'
p406
I01
sS'these__ALL__'
p407
I01
sS'Kelli__TOP__'
p408
I01
sS'feel__TOP__'
p409
I01
sS'how__TOP__'
p410
I01
sS'all__TOP__'
p411
I01
sS'I__ALL__'
p412
I01
sS'essenti__BOTTOM__'
p413
I01
sS'Megyn__ALL__'
p414
I01
sS'feel__ALL__'
p415
I01
sS'is__ALL__'
p416
I01
sS'is__TOP__'
p417
I01
sS'Megyn__TOP__'
p418
I01
sS'how__ALL__'
p419
I01
sa(dp420
S'.__ALL__'
p421
I01
sS'one__TOP__'
p422
I01
sS'Google+__ALL__'
p423
I01
sS'one__ALL__'
p424
I01
sS'lack__ALL__'
p425
I01
sS'featur__TOP__'
p426
I01
sS'still__TOP__'
p427
I01
sS'.__TOP__'
p428
I01
sS'and__ALL__'
p429
I01
sS'lack__TOP__'
p430
I01
sS'Facebook__TOP__'
p431
I01
sS'still__ALL__'
p432
I01
sS'featur__ALL__'
p433
I01
sS'Facebook__ALL__'
p434
I01
sS'Google+__TOP__'
p435
I01
sS'and__TOP__'
p436
I01
sa(dp437
S'comic__ALL__'
p438
I01
sS'all__ALL__'
p439
I01
sS'wonder__BOTTOM__'
p440
I01
sS'got__ALL__'
p441
I01
sS'to__BOTTOM__'
p442
I01
sS'about__ALL__'
p443
I01
sS'thi__ALL__'
p444
I01
sS'happen__ALL__'
p445
I01
sS'will__ALL__'
p446
I01
sS'what__ALL__'
p447
I01
sS'one__ALL__'
p448
I01
sS'?__TOP__'
p449
I01
sS'A__TOP__'
p450
I01
sS'about__TOP__'
p451
I01
sS'what__BOTTOM__'
p452
I01
sS'one__BOTTOM__'
p453
I01
sS'thi__BOTTOM__'
p454
I01
sS'will__BOTTOM__'
p455
I01
sS'A__ALL__'
p456
I01
sS'downvot__ALL__'
p457
I01
sS'I__BOTTOM__'
p458
I01
sS'comic__TOP__'
p459
I01
sS'your__ALL__'
p460
I01
sS'other__ALL__'
p461
I01
sS'happen__BOTTOM__'
p462
I01
sS'wonder__ALL__'
p463
I01
sS'to__ALL__'
p464
I01
sS'?__ALL__'
p465
I01
sS'how__TOP__'
p466
I01
sS'all__TOP__'
p467
I01
sS'I__ALL__'
p468
I01
sS'downvot__TOP__'
p469
I01
sS'got__TOP__'
p470
I01
sS'your__TOP__'
p471
I01
sS'other__TOP__'
p472
I01
sS'how__ALL__'
p473
I01
sa(dp474
S'make__ALL__'
p475
I01
sS'TIL__ALL__'
p476
I01
sS'a__TOP__'
p477
I01
sS'TIL__TOP__'
p478
I01
sS'and__ALL__'
p479
I01
sS'downvot__BOTTOM__'
p480
I01
sS'and__TOP__'
p481
I01
sS'a__ALL__'
p482
I01
sS'wikipedia__ALL__'
p483
I01
sS'?__TOP__'
p484
I01
sS'on__ALL__'
p485
I01
sS'on__TOP__'
p486
I01
sS'downvot__ALL__'
p487
I01
sS'Random__TOP__'
p488
I01
sS'Hit__ALL__'
p489
I01
sS'wikipedia__TOP__'
p490
I01
sS'Random__ALL__'
p491
I01
sS'?__ALL__'
p492
I01
sS'Hit__TOP__'
p493
I01
sS'TI__ALL__'
p494
I01
sS'TI__BOTTOM__'
p495
I01
sS'make__TOP__'
p496
I01
sa(dp497
S'a__TOP__'
p498
I01
sS"'__BOTTOM__"
p499
I01
sS'and__ALL__'
p500
I01
sS'mental__ALL__'
p501
I01
sS'and__BOTTOM__'
p502
I01
sS'mental__TOP__'
p503
I01
sS'have__ALL__'
p504
I01
sS'person__TOP__'
p505
I01
sS'with__ALL__'
p506
I01
sS'with__TOP__'
p507
I01
sS'syndrom__BOTTOM__'
p508
I01
sS'iama__ALL__'
p509
I01
sS'condit__TOP__'
p510
I01
sS'iama__TOP__'
p511
I01
sS'person__ALL__'
p512
I01
sS'i__ALL__'
p513
I01
sS"'__ALL__"
p514
I01
sS'a__ALL__'
p515
I01
sS'have__BOTTOM__'
p516
I01
sS'condit__ALL__'
p517
I01
sS'syndrom__ALL__'
p518
I01
sS"'down__ALL__"
p519
I01
sS"'down__BOTTOM__"
p520
I01
sS'i__BOTTOM__'
p521
I01
sa(dp522
S'I__TOP__'
p523
I01
sS'downvot__ALL__'
p524
I01
sS'care__TOP__'
p525
I01
sS'Good__BOTTOM__'
p526
I01
sS'I__ALL__'
p527
I01
sS'care__ALL__'
p528
I01
sS"n't__ALL__"
p529
I01
sS"n't__TOP__"
p530
I01
sS'Good__ALL__'
p531
I01
sS'you__TOP__'
p532
I01
sS'do__ALL__'
p533
I01
sS'downvot__TOP__'
p534
I01
sS'me__TOP__'
p535
I01
sS'if__ALL__'
p536
I01
sS'you__ALL__'
p537
I01
sS'me__ALL__'
p538
I01
sS'do__TOP__'
p539
I01
sS'if__TOP__'
p540
I01
sa(dp541
S'.__BOTTOM__'
p542
I01
sS'to__ALL__'
p543
I01
sS'thi__ALL__'
p544
I01
sS'Thi__TOP__'
p545
I01
sS'just__ALL__'
p546
I01
sS'So__ALL__'
p547
I01
sS'Thi__ALL__'
p548
I01
sS'to__TOP__'
p549
I01
sS'me__ALL__'
p550
I01
sS'So__BOTTOM__'
p551
I01
sS'.__ALL__'
p552
I01
sS'just__TOP__'
p553
I01
sS'thi__BOTTOM__'
p554
I01
sS'me__TOP__'
p555
I01
sS'happen__ALL__'
p556
I01
sS'happen__TOP__'
p557
I01
sS'did__ALL__'
p558
I01
sS'did__BOTTOM__'
p559
I01
sa(dp560
S'.__BOTTOM__'
p561
I01
sS'mayb__ALL__'
p562
I01
sS'.__ALL__'
p563
I01
sS'thi__TOP__'
p564
I01
sS"'ll__TOP__"
p565
I01
sS'thi__ALL__'
p566
I01
sS"'ll__ALL__"
p567
I01
sS'not__BOTTOM__'
p568
I01
sS'see__ALL__'
p569
I01
sS'Mayb__ALL__'
p570
I01
sS'mayb__BOTTOM__'
p571
I01
sS'he__ALL__'
p572
I01
sS'see__TOP__'
p573
I01
sS'Mayb__TOP__'
p574
I01
sS'not__ALL__'
p575
I01
sS'he__TOP__'
p576
I01
sa(dp577
S'thi__TOP__'
p578
I01
sS'facebook__TOP__'
p579
I01
sS'button__ALL__'
p580
I01
sS'oh__TOP__'
p581
I01
sS'button__BOTTOM__'
p582
I01
sS'downvot__BOTTOM__'
p583
I01
sS"'s__TOP__"
p584
I01
sS'thi__ALL__'
p585
I01
sS',__ALL__'
p586
I01
sS'?__TOP__'
p587
I01
sS'on__ALL__'
p588
I01
sS'here__ALL__'
p589
I01
sS'found__TOP__'
p590
I01
sS'you__ALL__'
p591
I01
sS'found__ALL__'
p592
I01
sS'right__BOTTOM__'
p593
I01
sS'on__TOP__'
p594
I01
sS'right__ALL__'
p595
I01
sS'friend__TOP__'
p596
I01
sS'friend__ALL__'
p597
I01
sS'downvot__ALL__'
p598
I01
sS'found__BOTTOM__'
p599
I01
sS'I__BOTTOM__'
p600
I01
sS'you__TOP__'
p601
I01
sS'here__BOTTOM__'
p602
I01
sS'that__ALL__'
p603
I01
sS'that__BOTTOM__'
p604
I01
sS',__BOTTOM__'
p605
I01
sS'your__ALL__'
p606
I01
sS'facebook__ALL__'
p607
I01
sS"'s__ALL__"
p608
I01
sS'?__ALL__'
p609
I01
sS'funni__ALL__'
p610
I01
sS'I__ALL__'
p611
I01
sS'your__TOP__'
p612
I01
sS'the__ALL__'
p613
I01
sS'the__BOTTOM__'
p614
I01
sS'funni__BOTTOM__'
p615
I01
sS"'s__BOTTOM__"
p616
I01
sS'oh__ALL__'
p617
I01
sa(dp618
S'Friend__TOP__'
p619
I01
sS'use__BOTTOM__'
p620
I01
sS'alreadi__BOTTOM__'
p621
I01
sS'Phil__TOP__'
p622
I01
sS"'re__BOTTOM__"
p623
I01
sS'to__BOTTOM__'
p624
I01
sS'Then__BOTTOM__'
p625
I01
sS'to__ALL__'
p626
I01
sS'Zone__ALL__'
p627
I01
sS'reject__ALL__'
p628
I01
sS'reject__BOTTOM__'
p629
I01
sS'Friend__ALL__'
p630
I01
sS'alreadi__ALL__'
p631
I01
sS'Zone__TOP__'
p632
I01
sS'Phil__ALL__'
p633
I01
sS'you__ALL__'
p634
I01
sS'you__BOTTOM__'
p635
I01
sS"'re__ALL__"
p636
I01
sS'Then__ALL__'
p637
I01
sS'use__ALL__'
p638
I01
sa(dp639
S'Today__TOP__'
p640
I01
sS'Reddit__ALL__'
p641
I01
sS"'s__TOP__"
p642
I01
sS'birthday__TOP__'
p643
I01
sS'present__BOTTOM__'
p644
I01
sS'Enjoy__BOTTOM__'
p645
I01
sS'Enjoy__ALL__'
p646
I01
sS'Today__ALL__'
p647
I01
sS'!__TOP__'
p648
I01
sS'Reddit__TOP__'
p649
I01
sS'!__ALL__'
p650
I01
sS'birthday__ALL__'
p651
I01
sS'my__ALL__'
p652
I01
sS'your__ALL__'
p653
I01
sS"'s__ALL__"
p654
I01
sS'your__BOTTOM__'
p655
I01
sS'present__ALL__'
p656
I01
sS'my__TOP__'
p657
I01
sa(dp658
S'help__ALL__'
p659
I01
sS'help__BOTTOM__'
p660
I01
sS'expect__ALL__'
p661
I01
sS':__ALL__'
p662
I01
sS'expect__TOP__'
p663
I01
sS'so__ALL__'
p664
I01
sS'I__TOP__'
p665
I01
sS'me__ALL__'
p666
I01
sS'meet__ALL__'
p667
I01
sS'Edit__ALL__'
p668
I01
sS'your__BOTTOM__'
p669
I01
sS'Let__BOTTOM__'
p670
I01
sS'meet__BOTTOM__'
p671
I01
sS'Edit__TOP__'
p672
I01
sS"n't__TOP__"
p673
I01
sS'so__TOP__'
p674
I01
sS'you__ALL__'
p675
I01
sS'you__BOTTOM__'
p676
I01
sS'did__ALL__'
p677
I01
sS'mani__TOP__'
p678
I01
sS'upvot__TOP__'
p679
I01
sS'upvot__ALL__'
p680
I01
sS'!__TOP__'
p681
I01
sS'me__BOTTOM__'
p682
I01
sS"n't__ALL__"
p683
I01
sS'mani__ALL__'
p684
I01
sS'did__TOP__'
p685
I01
sS'your__ALL__'
p686
I01
sS'!__ALL__'
p687
I01
sS'I__ALL__'
p688
I01
sS'expect__BOTTOM__'
p689
I01
sS'Let__ALL__'
p690
I01
sS':__TOP__'
p691
I01
sa(dp692
S'make__ALL__'
p693
I01
sS'WHi__ALL__'
p694
I01
sS'I__TOP__'
p695
I01
sS'No__BOTTOM__'
p696
I01
sS'the__TOP__'
p697
I01
sS'ca__ALL__'
p698
I01
sS'THI__BOTTOM__'
p699
I01
sS'IS__BOTTOM__'
p700
I01
sS'it__TOP__'
p701
I01
sS"n't__ALL__"
p702
I01
sS'Thi__TOP__'
p703
I01
sS"n't__TOP__"
p704
I01
sS'IS__ALL__'
p705
I01
sS'ca__TOP__'
p706
I01
sS'to__ALL__'
p707
I01
sS'THI__ALL__'
p708
I01
sS'Thi__ALL__'
p709
I01
sS',__ALL__'
p710
I01
sS'the__ALL__'
p711
I01
sS'it__ALL__'
p712
I01
sS',__BOTTOM__'
p713
I01
sS'whi__TOP__'
p714
I01
sS'front__TOP__'
p715
I01
sS'No__ALL__'
p716
I01
sS'whi__ALL__'
p717
I01
sS'WHi__BOTTOM__'
p718
I01
sS'page__TOP__'
p719
I01
sS'I__ALL__'
p720
I01
sS'to__TOP__'
p721
I01
sS'is__ALL__'
p722
I01
sS'front__ALL__'
p723
I01
sS'is__TOP__'
p724
I01
sS'make__TOP__'
p725
I01
sS'page__ALL__'
p726
I01
sa(dp727
S'?__TOP__'
p728
I01
sS'?__ALL__'
p729
I01
sS'how__TOP__'
p730
I01
sS'much__ALL__'
p731
I01
sS'weight__ALL__'
p732
I01
sS'not__ALL__'
p733
I01
sS'lost__ALL__'
p734
I01
sS'not__BOTTOM__'
p735
I01
sS'You__TOP__'
p736
I01
sS'You__ALL__'
p737
I01
sS'enough__ALL__'
p738
I01
sS'lost__TOP__'
p739
I01
sS'weight__TOP__'
p740
I01
sS'much__TOP__'
p741
I01
sS'how__ALL__'
p742
I01
sS'enough__BOTTOM__'
p743
I01
sa(dp744
S'.__BOTTOM__'
p745
I01
sS'doe__TOP__'
p746
I01
sS'thi__TOP__'
p747
I01
sS'girlfriend__ALL__'
p748
I01
sS'She__BOTTOM__'
p749
I01
sS'redditor__ALL__'
p750
I01
sS'.__ALL__'
p751
I01
sS'see__TOP__'
p752
I01
sS'hope__ALL__'
p753
I01
sS'girlfriend__TOP__'
p754
I01
sS"n't__ALL__"
p755
I01
sS'redditor__TOP__'
p756
I01
sS'She__ALL__'
p757
I01
sS'thi__ALL__'
p758
I01
sS"n't__TOP__"
p759
I01
sS'wo__ALL__'
p760
I01
sS"n't__BOTTOM__"
p761
I01
sS'wo__BOTTOM__'
p762
I01
sS'doe__ALL__'
p763
I01
sS'my__TOP__'
p764
I01
sS'see__ALL__'
p765
I01
sS'my__ALL__'
p766
I01
sS'hope__TOP__'
p767
I01
sa(dp768
S'new__ALL__'
p769
I01
sS'classic__BOTTOM__'
p770
I01
sS'me__ALL__'
p771
I01
sS'show__ALL__'
p772
I01
sS'Introduc__TOP__'
p773
I01
sS'a__ALL__'
p774
I01
sS'[__TOP__'
p775
I01
sS'[__ALL__'
p776
I01
sS']__TOP__'
p777
I01
sS'you__ALL__'
p778
I01
sS'you__BOTTOM__'
p779
I01
sS'let__BOTTOM__'
p780
I01
sS'meme__ALL__'
p781
I01
sS'me__BOTTOM__'
p782
I01
sS'classic__ALL__'
p783
I01
sS'let__ALL__'
p784
I01
sS'a__BOTTOM__'
p785
I01
sS'meme__TOP__'
p786
I01
sS'Introduc__ALL__'
p787
I01
sS']__ALL__'
p788
I01
sS'show__BOTTOM__'
p789
I01
sS'new__TOP__'
p790
I01
sa(dp791
S'comic__ALL__'
p792
I01
sS'panel__ALL__'
p793
I01
sS'GTFO__ALL__'
p794
I01
sS'rage__ALL__'
p795
I01
sS'comic__TOP__'
p796
I01
sS'18__TOP__'
p797
I01
sS'GTFO__BOTTOM__'
p798
I01
sS'18__ALL__'
p799
I01
sS'panel__TOP__'
p800
I01
sS'rage__TOP__'
p801
I01
sa(dp802
S'Sure__BOTTOM__'
p803
I01
sS'can__ALL__'
p804
I01
sS'the__TOP__'
p805
I01
sS"n't__TOP__"
p806
I01
sS'onli__ALL__'
p807
I01
sS'person__TOP__'
p808
I01
sS"n't__ALL__"
p809
I01
sS'...__ALL__'
p810
I01
sS'can__BOTTOM__'
p811
I01
sS"'I__TOP__"
p812
I01
sS'who__ALL__'
p813
I01
sS'who__TOP__'
p814
I01
sS'you__ALL__'
p815
I01
sS'person__ALL__'
p816
I01
sS"'I__ALL__"
p817
I01
sS'onli__TOP__'
p818
I01
sS'Sure__ALL__'
p819
I01
sS'be__ALL__'
p820
I01
sS'...__TOP__'
p821
I01
sS'you__BOTTOM__'
p822
I01
sS'be__TOP__'
p823
I01
sS'ca__ALL__'
p824
I01
sS'ca__TOP__'
p825
I01
sS'the__ALL__'
p826
I01
sa(dp827
S'I__TOP__'
p828
I01
sS'thi__TOP__'
p829
I01
sS'to__BOTTOM__'
p830
I01
sS'in__ALL__'
p831
I01
sS'just__TOP__'
p832
I01
sS'downvot__BOTTOM__'
p833
I01
sS'sign__ALL__'
p834
I01
sS'thi__ALL__'
p835
I01
sS'sign__TOP__'
p836
I01
sS'you__ALL__'
p837
I01
sS'you__BOTTOM__'
p838
I01
sS'upvot__TOP__'
p839
I01
sS'upvot__ALL__'
p840
I01
sS'downvot__ALL__'
p841
I01
sS',__ALL__'
p842
I01
sS'I__BOTTOM__'
p843
I01
sS'funni__ALL__'
p844
I01
sS'that__ALL__'
p845
I01
sS'in__BOTTOM__'
p846
I01
sS',__BOTTOM__'
p847
I01
sS'sign__BOTTOM__'
p848
I01
sS"'s__ALL__"
p849
I01
sS'to__ALL__'
p850
I01
sS'in__TOP__'
p851
I01
sS'just__BOTTOM__'
p852
I01
sS'I__ALL__'
p853
I01
sS'just__ALL__'
p854
I01
sS'to__TOP__'
p855
I01
sS'that__BOTTOM__'
p856
I01
sS'funni__BOTTOM__'
p857
I01
sS"'s__BOTTOM__"
p858
I01
sa(dp859
S'disagre__BOTTOM__'
p860
I01
sS'just__TOP__'
p861
I01
sS'becaus__ALL__'
p862
I01
sS'them__TOP__'
p863
I01
sS"n't__ALL__"
p864
I01
sS'with__TOP__'
p865
I01
sS'...__BOTTOM__'
p866
I01
sS'...__ALL__'
p867
I01
sS"n't__TOP__"
p868
I01
sS'becaus__TOP__'
p869
I01
sS'you__ALL__'
p870
I01
sS'i__ALL__'
p871
I01
sS'downvot__ALL__'
p872
I01
sS'with__ALL__'
p873
I01
sS'you__TOP__'
p874
I01
sS'do__ALL__'
p875
I01
sS'do__TOP__'
p876
I01
sS'disagre__ALL__'
p877
I01
sS'just__ALL__'
p878
I01
sS'opinion__TOP__'
p879
I01
sS'downvot__TOP__'
p880
I01
sS'i__BOTTOM__'
p881
I01
sS'disagre__TOP__'
p882
I01
sS'opinion__ALL__'
p883
I01
sS'them__ALL__'
p884
I01
sa(dp885
S'I__TOP__'
p886
I01
sS'have__TOP__'
p887
I01
sS'How__TOP__'
p888
I01
sS'60__TOP__'
p889
I01
sS'Karma__TOP__'
p890
I01
sS'so__ALL__'
p891
I01
sS'onli__ALL__'
p892
I01
sS'have__ALL__'
p893
I01
sS'How__ALL__'
p894
I01
sS'60__ALL__'
p895
I01
sS'59__BOTTOM__'
p896
I01
sS'?__TOP__'
p897
I01
sS'so__TOP__'
p898
I01
sS'you__ALL__'
p899
I01
sS'onli__TOP__'
p900
I01
sS'get__ALL__'
p901
I01
sS'!__TOP__'
p902
I01
sS'you__TOP__'
p903
I01
sS'do__ALL__'
p904
I01
sS'59__ALL__'
p905
I01
sS'much__TOP__'
p906
I01
sS'do__TOP__'
p907
I01
sS'!__ALL__'
p908
I01
sS'?__ALL__'
p909
I01
sS'I__ALL__'
p910
I01
sS'get__TOP__'
p911
I01
sS'Karma__ALL__'
p912
I01
sS'much__ALL__'
p913
I01
sa(dp914
S'post__TOP__'
p915
I01
sS'My__TOP__'
p916
I01
sS"'ll__BOTTOM__"
p917
I01
sS'post__ALL__'
p918
I01
sS'My__ALL__'
p919
I01
sS'onli__ALL__'
p920
I01
sS'finger__BOTTOM__'
p921
I01
sS'ok__BOTTOM__'
p922
I01
sS'use__BOTTOM__'
p923
I01
sS'be__TOP__'
p924
I01
sS'one__BOTTOM__'
p925
I01
sS'first__TOP__'
p926
I01
sS',__TOP__'
p927
I01
sS'first__ALL__'
p928
I01
sS'gentl__TOP__'
p929
I01
sS',__ALL__'
p930
I01
sS"'ll__ALL__"
p931
I01
sS'I__BOTTOM__'
p932
I01
sS'be__ALL__'
p933
I01
sS',__BOTTOM__'
p934
I01
sS'ok__ALL__'
p935
I01
sS'gentl__ALL__'
p936
I01
sS'onli__BOTTOM__'
p937
I01
sS'use__ALL__'
p938
I01
sS'finger__ALL__'
p939
I01
sS'I__ALL__'
p940
I01
sS'It__BOTTOM__'
p941
I01
sS'one__ALL__'
p942
I01
sS'It__ALL__'
p943
I01
sS"'s__ALL__"
p944
I01
sS"'s__BOTTOM__"
p945
I01
sa(dp946
S'look__ALL__'
p947
I01
sS'not__ALL__'
p948
I01
sS'whi__BOTTOM__'
p949
I01
sS'zoidberg__BOTTOM__'
p950
I01
sS'look__TOP__'
p951
I01
sS'downvot__ALL__'
p952
I01
sS'to__TOP__'
p953
I01
sS'downvot__TOP__'
p954
I01
sS'not__BOTTOM__'
p955
I01
sS'someon__TOP__'
p956
I01
sS'zoidberg__ALL__'
p957
I01
sS'for__TOP__'
p958
I01
sS'to__ALL__'
p959
I01
sS'for__ALL__'
p960
I01
sS'someon__ALL__'
p961
I01
sS'whi__ALL__'
p962
I01
sa(dp963
S'.__BOTTOM__'
p964
I01
sS'.__ALL__'
p965
I01
sS'saw__ALL__'
p966
I01
sS'look__TOP__'
p967
I01
sS'downvot__BOTTOM__'
p968
I01
sS'upvot__ALL__'
p969
I01
sS'look__ALL__'
p970
I01
sS'a__ALL__'
p971
I01
sS'arrow__ALL__'
p972
I01
sS'on__ALL__'
p973
I01
sS'arrow__TOP__'
p974
I01
sS'an__ALL__'
p975
I01
sS'an__TOP__'
p976
I01
sS'?__TOP__'
p977
I01
sS'Here__BOTTOM__'
p978
I01
sS'like__TOP__'
p979
I01
sS'IRL__TOP__'
p980
I01
sS'upvot__TOP__'
p981
I01
sS'someth__TOP__'
p982
I01
sS'arrow__BOTTOM__'
p983
I01
sS'like__ALL__'
p984
I01
sS'someth__ALL__'
p985
I01
sS'downvot__ALL__'
p986
I01
sS'like__BOTTOM__'
p987
I01
sS'someth__BOTTOM__'
p988
I01
sS'saw__TOP__'
p989
I01
sS'that__ALL__'
p990
I01
sS'that__BOTTOM__'
p991
I01
sS'You__ALL__'
p992
I01
sS'Here__ALL__'
p993
I01
sS'IRL__ALL__'
p994
I01
sS'that__TOP__'
p995
I01
sS'look__BOTTOM__'
p996
I01
sS'internet__ALL__'
p997
I01
sS'?__ALL__'
p998
I01
sS'a__BOTTOM__'
p999
I01
sS'You__TOP__'
p1000
I01
sS'on__BOTTOM__'
p1001
I01
sS'the__ALL__'
p1002
I01
sS'the__BOTTOM__'
p1003
I01
sS"'s__ALL__"
p1004
I01
sS'internet__BOTTOM__'
p1005
I01
sS"'s__BOTTOM__"
p1006
I01
sa(dp1007
S'comic__ALL__'
p1008
I01
sS'but__ALL__'
p1009
I01
sS'Your__TOP__'
p1010
I01
sS'give__ALL__'
p1011
I01
sS'give__BOTTOM__'
p1012
I01
sS'touch__TOP__'
p1013
I01
sS'life__TOP__'
p1014
I01
sS"n't__ALL__"
p1015
I01
sS'shit__ALL__'
p1016
I01
sS'but__BOTTOM__'
p1017
I01
sS'touch__ALL__'
p1018
I01
sS'rage__ALL__'
p1019
I01
sS'do__ALL__'
p1020
I01
sS'rage__TOP__'
p1021
I01
sS"n't__BOTTOM__"
p1022
I01
sS'i__ALL__'
p1023
I01
sS'a__ALL__'
p1024
I01
sS'life__ALL__'
p1025
I01
sS'veri__TOP__'
p1026
I01
sS'comic__TOP__'
p1027
I01
sS'do__BOTTOM__'
p1028
I01
sS'stori__TOP__'
p1029
I01
sS'veri__ALL__'
p1030
I01
sS'shit__BOTTOM__'
p1031
I01
sS'a__BOTTOM__'
p1032
I01
sS'i__BOTTOM__'
p1033
I01
sS'is__ALL__'
p1034
I01
sS'is__TOP__'
p1035
I01
sS'stori__ALL__'
p1036
I01
sS'Your__ALL__'
p1037
I01
sa(dp1038
S'hate__ALL__'
p1039
I01
sS'Hater__ALL__'
p1040
I01
sS'hate__TOP__'
p1041
I01
sS'Good__BOTTOM__'
p1042
I01
sS'gon__ALL__'
p1043
I01
sS'point__ALL__'
p1044
I01
sS'Good__ALL__'
p1045
I01
sS'point__BOTTOM__'
p1046
I01
sS'na__TOP__'
p1047
I01
sS'na__ALL__'
p1048
I01
sS'Hater__TOP__'
p1049
I01
sS'gon__TOP__'
p1050
I01
sa(dp1051
S'to__ALL__'
p1052
I01
sS'Russian__ALL__'
p1053
I01
sS'learn__TOP__'
p1054
I01
sS'how__TOP__'
p1055
I01
sS'in__TOP__'
p1056
I01
sS'Just__ALL__'
p1057
I01
sS'to__TOP__'
p1058
I01
sS'Jakucha__BOTTOM__'
p1059
I01
sS'say__ALL__'
p1060
I01
sS'down-vot__ALL__'
p1061
I01
sS'in__ALL__'
p1062
I01
sS'Just__TOP__'
p1063
I01
sS'Russian__TOP__'
p1064
I01
sS'say__TOP__'
p1065
I01
sS'learn__ALL__'
p1066
I01
sS'Jakucha__ALL__'
p1067
I01
sS'how__ALL__'
p1068
I01
sS'down-vot__TOP__'
p1069
I01
sa(dp1070
S'a__TOP__'
p1071
I01
sS'Your__TOP__'
p1072
I01
sS'?__TOP__'
p1073
I01
sS'pet__TOP__'
p1074
I01
sS'am__ALL__'
p1075
I01
sS'give__TOP__'
p1076
I01
sS'Neither__BOTTOM__'
p1077
I01
sS"n't__ALL__"
p1078
I01
sS'fuck__ALL__'
p1079
I01
sS"n't__TOP__"
p1080
I01
sS'Neither__ALL__'
p1081
I01
sS'fuck__TOP__'
p1082
I01
sS'a__ALL__'
p1083
I01
sS'I__BOTTOM__'
p1084
I01
sS'?__ALL__'
p1085
I01
sS'am__BOTTOM__'
p1086
I01
sS'I__ALL__'
p1087
I01
sS'is__ALL__'
p1088
I01
sS'give__ALL__'
p1089
I01
sS'is__TOP__'
p1090
I01
sS'Your__ALL__'
p1091
I01
sS'pet__ALL__'
p1092
I01
sa(dp1093
S'I__TOP__'
p1094
I01
sS'thi__TOP__'
p1095
I01
sS'Well__BOTTOM__'
p1096
I01
sS"'m__ALL__"
p1097
I01
sS"'m__TOP__"
p1098
I01
sS'thi__ALL__'
p1099
I01
sS'...__ALL__'
p1100
I01
sS'sure__ALL__'
p1101
I01
sS'Well__ALL__'
p1102
I01
sS'if__ALL__'
p1103
I01
sS'you__ALL__'
p1104
I01
sS'you__BOTTOM__'
p1105
I01
sS'for__ALL__'
p1106
I01
sS'insist__BOTTOM__'
p1107
I01
sS'get__ALL__'
p1108
I01
sS'downvot__ALL__'
p1109
I01
sS'sure__TOP__'
p1110
I01
sS',__ALL__'
p1111
I01
sS"'ll__ALL__"
p1112
I01
sS'for__TOP__'
p1113
I01
sS'...__TOP__'
p1114
I01
sS',__BOTTOM__'
p1115
I01
sS'if__BOTTOM__'
p1116
I01
sS"'ll__TOP__"
p1117
I01
sS'get__TOP__'
p1118
I01
sS'downvot__TOP__'
p1119
I01
sS'insist__ALL__'
p1120
I01
sS'I__ALL__'
p1121
I01
sa(dp1122
S'marri__ALL__'
p1123
I01
sS',__TOP__'
p1124
I01
sS'nope__ALL__'
p1125
I01
sS'?__ALL__'
p1126
I01
sS'will__ALL__'
p1127
I01
sS',__ALL__'
p1128
I01
sS'me__ALL__'
p1129
I01
sS'nope__BOTTOM__'
p1130
I01
sS'You__TOP__'
p1131
I01
sS'april__ALL__'
p1132
I01
sS'?__TOP__'
p1133
I01
sS'marri__TOP__'
p1134
I01
sS'me__TOP__'
p1135
I01
sS'You__ALL__'
p1136
I01
sS'will__TOP__'
p1137
I01
sS'april__TOP__'
p1138
I01
sa(dp1139
S'what__TOP__'
p1140
I01
sS'one__BOTTOM__'
p1141
I01
sS'jesu__ALL__'
p1142
I01
sS'?__ALL__'
p1143
I01
sS'real__ALL__'
p1144
I01
sS'crucifi__BOTTOM__'
p1145
I01
sS'I__ALL__'
p1146
I01
sS'real__BOTTOM__'
p1147
I01
sS'I__BOTTOM__'
p1148
I01
sS'?__TOP__'
p1149
I01
sS'the__ALL__'
p1150
I01
sS'one__ALL__'
p1151
I01
sS'what__ALL__'
p1152
I01
sS'the__BOTTOM__'
p1153
I01
sS'crucifi__ALL__'
p1154
I01
sS'jesu__TOP__'
p1155
I01
sa(dp1156
S'.__BOTTOM__'
p1157
I01
sS'hate__ALL__'
p1158
I01
sS'hater__ALL__'
p1159
I01
sS'hate__TOP__'
p1160
I01
sS'sure__BOTTOM__'
p1161
I01
sS'gon__ALL__'
p1162
I01
sS'sure__ALL__'
p1163
I01
sS'do__ALL__'
p1164
I01
sS'.__ALL__'
p1165
I01
sS'na__TOP__'
p1166
I01
sS'do__BOTTOM__'
p1167
I01
sS'na__ALL__'
p1168
I01
sS'hater__TOP__'
p1169
I01
sS'gon__TOP__'
p1170
I01
sa(dp1171
S'help__ALL__'
p1172
I01
sS'help__BOTTOM__'
p1173
I01
sS"'ll__BOTTOM__"
p1174
I01
sS'birthday__ALL__'
p1175
I01
sS'birthday__TOP__'
p1176
I01
sS'Cat__ALL__'
p1177
I01
sS'?__TOP__'
p1178
I01
sS'you__ALL__'
p1179
I01
sS'you__BOTTOM__'
p1180
I01
sS'for__ALL__'
p1181
I01
sS'reddit__ALL__'
p1182
I01
sS'celebr__ALL__'
p1183
I01
sS"'ll__ALL__"
p1184
I01
sS'pictur__TOP__'
p1185
I01
sS'Cat__TOP__'
p1186
I01
sS'for__TOP__'
p1187
I01
sS'your__ALL__'
p1188
I01
sS'I__BOTTOM__'
p1189
I01
sS'?__ALL__'
p1190
I01
sS'pictur__ALL__'
p1191
I01
sS'I__ALL__'
p1192
I01
sS'reddit__TOP__'
p1193
I01
sS'celebr__BOTTOM__'
p1194
I01
sS'your__TOP__'
p1195
I01
sa(dp1196
S'came__ALL__'
p1197
I01
sS'came__BOTTOM__'
p1198
I01
sS'thi__ALL__'
p1199
I01
sS'thi__TOP__'
p1200
I01
sS'for__BOTTOM__'
p1201
I01
sS'what__ALL__'
p1202
I01
sS'to__ALL__'
p1203
I01
sS'Guess__ALL__'
p1204
I01
sS'Guess__BOTTOM__'
p1205
I01
sS'I__ALL__'
p1206
I01
sS'here__TOP__'
p1207
I01
sS'to__TOP__'
p1208
I01
sS'I__BOTTOM__'
p1209
I01
sS'say__ALL__'
p1210
I01
sS'here__BOTTOM__'
p1211
I01
sS'here__ALL__'
p1212
I01
sS'say__TOP__'
p1213
I01
sS'Came__ALL__'
p1214
I01
sS'Came__TOP__'
p1215
I01
sS'what__BOTTOM__'
p1216
I01
sS'for__ALL__'
p1217
I01
sa(dp1218
S'new__ALL__'
p1219
I01
sS'a__TOP__'
p1220
I01
sS'page__TOP__'
p1221
I01
sS'my__BOTTOM__'
p1222
I01
sS'a__ALL__'
p1223
I01
sS'begin__ALL__'
p1224
I01
sS'takeov__ALL__'
p1225
I01
sS'my__ALL__'
p1226
I01
sS'on__ALL__'
p1227
I01
sS'not__ALL__'
p1228
I01
sS'meme__ALL__'
p1229
I01
sS'watch__BOTTOM__'
p1230
I01
sS'begin__TOP__'
p1231
I01
sS'takeov__TOP__'
p1232
I01
sS'front__TOP__'
p1233
I01
sS'meme__TOP__'
p1234
I01
sS'watch__ALL__'
p1235
I01
sS'not__BOTTOM__'
p1236
I01
sS'front__ALL__'
p1237
I01
sS'on__BOTTOM__'
p1238
I01
sS'page__ALL__'
p1239
I01
sS'new__TOP__'
p1240
I01
sa(dp1241
S'I__TOP__'
p1242
I01
sS'thi__TOP__'
p1243
I01
sS'post__TOP__'
p1244
I01
sS'been__TOP__'
p1245
I01
sS'post__ALL__'
p1246
I01
sS'You__BOTTOM__'
p1247
I01
sS'ha__ALL__'
p1248
I01
sS'befor__TOP__'
p1249
I01
sS"'m__ALL__"
p1250
I01
sS"'m__TOP__"
p1251
I01
sS'thi__ALL__'
p1252
I01
sS'sure__ALL__'
p1253
I01
sS'probabl__BOTTOM__'
p1254
I01
sS'befor__ALL__'
p1255
I01
sS'ha__TOP__'
p1256
I01
sS'right__BOTTOM__'
p1257
I01
sS'right__ALL__'
p1258
I01
sS"'re__BOTTOM__"
p1259
I01
sS'sure__TOP__'
p1260
I01
sS'been__ALL__'
p1261
I01
sS'You__ALL__'
p1262
I01
sS"'re__ALL__"
p1263
I01
sS'probabl__ALL__'
p1264
I01
sS'I__ALL__'
p1265
I01
sa(dp1266
S'[__ALL__'
p1267
I01
sS'can__ALL__'
p1268
I01
sS'guy__TOP__'
p1269
I01
sS'Edit__ALL__'
p1270
I01
sS'Edit__TOP__'
p1271
I01
sS'[__TOP__'
p1272
I01
sS'fix__BOTTOM__'
p1273
I01
sS'can__BOTTOM__'
p1274
I01
sS'fix__ALL__'
p1275
I01
sS'That__BOTTOM__'
p1276
I01
sS'for__ALL__'
p1277
I01
sS'upvot__TOP__'
p1278
I01
sS'upvot__ALL__'
p1279
I01
sS'Thank__ALL__'
p1280
I01
sS'the__ALL__'
p1281
I01
sS'for__TOP__'
p1282
I01
sS'be__BOTTOM__'
p1283
I01
sS'Thank__TOP__'
p1284
I01
sS']__TOP__'
p1285
I01
sS'the__TOP__'
p1286
I01
sS'be__ALL__'
p1287
I01
sS'That__ALL__'
p1288
I01
sS']__ALL__'
p1289
I01
sS'guy__ALL__'
p1290
I01
sa(dp1291
S'like__ALL__'
p1292
I01
sS'soup__TOP__'
p1293
I01
sS'$__TOP__'
p1294
I01
sS'a__TOP__'
p1295
I01
sS'will__ALL__'
p1296
I01
sS'100__ALL__'
p1297
I01
sS'?__TOP__'
p1298
I01
sS'a__ALL__'
p1299
I01
sS'kitchen__TOP__'
p1300
I01
sS'10__ALL__'
p1301
I01
sS'they__ALL__'
p1302
I01
sS'soup__ALL__'
p1303
I01
sS'everi__TOP__'
p1304
I01
sS'100__TOP__'
p1305
I01
sS'donat__TOP__'
p1306
I01
sS'donat__ALL__'
p1307
I01
sS'you__ALL__'
p1308
I01
sS'will__BOTTOM__'
p1309
I01
sS'10__TOP__'
p1310
I01
sS'upvot__TOP__'
p1311
I01
sS'Look__ALL__'
p1312
I01
sS'Look__BOTTOM__'
p1313
I01
sS'everi__ALL__'
p1314
I01
sS'upvot__ALL__'
p1315
I01
sS"'ll__ALL__"
p1316
I01
sS'starv__ALL__'
p1317
I01
sS'you__TOP__'
p1318
I01
sS'For__ALL__'
p1319
I01
sS'to__ALL__'
p1320
I01
sS'like__BOTTOM__'
p1321
I01
sS'?__ALL__'
p1322
I01
sS'$__ALL__'
p1323
I01
sS"'ll__TOP__"
p1324
I01
sS'kitchen__ALL__'
p1325
I01
sS'starv__BOTTOM__'
p1326
I01
sS'to__TOP__'
p1327
I01
sS'For__TOP__'
p1328
I01
sS'they__BOTTOM__'
p1329
I01
sa(dp1330
S'TIL__ALL__'
p1331
I01
sS'Alreadi__BOTTOM__'
p1332
I01
sS'TIL__TOP__'
p1333
I01
sS'knew__BOTTOM__'
p1334
I01
sS'Alreadi__ALL__'
p1335
I01
sS'that__BOTTOM__'
p1336
I01
sS'knew__ALL__'
p1337
I01
sS'that__ALL__'
p1338
I01
sa(dp1339
S'.__BOTTOM__'
p1340
I01
sS'.__ALL__'
p1341
I01
sS'thi__TOP__'
p1342
I01
sS'am__ALL__'
p1343
I01
sS'Not__ALL__'
p1344
I01
sS'thi__ALL__'
p1345
I01
sS'sure__ALL__'
p1346
I01
sS'you__ALL__'
p1347
I01
sS'for__ALL__'
p1348
I01
sS'Not__TOP__'
p1349
I01
sS'downvot__ALL__'
p1350
I01
sS'sure__TOP__'
p1351
I01
sS'I__BOTTOM__'
p1352
I01
sS'you__TOP__'
p1353
I01
sS'be__ALL__'
p1354
I01
sS'for__TOP__'
p1355
I01
sS'whi__TOP__'
p1356
I01
sS"'re__ALL__"
p1357
I01
sS'be__TOP__'
p1358
I01
sS'whi__ALL__'
p1359
I01
sS'am__BOTTOM__'
p1360
I01
sS'I__ALL__'
p1361
I01
sS'downvot__TOP__'
p1362
I01
sS"'re__TOP__"
p1363
I01
sa(dp1364
S'away__ALL__'
p1365
I01
sS'pass__ALL__'
p1366
I01
sS'dog__ALL__'
p1367
I01
sS'Just__ALL__'
p1368
I01
sS'pass__TOP__'
p1369
I01
sS'Today__ALL__'
p1370
I01
sS'day__ALL__'
p1371
I01
sS'just__TOP__'
p1372
I01
sS'your__BOTTOM__'
p1373
I01
sS"n't__ALL__"
p1374
I01
sS'Thi__TOP__'
p1375
I01
sS'today__ALL__'
p1376
I01
sS'Today__BOTTOM__'
p1377
I01
sS'dog__TOP__'
p1378
I01
sS'today__TOP__'
p1379
I01
sS',__TOP__'
p1380
I01
sS"n't__BOTTOM__"
p1381
I01
sS'Just__BOTTOM__'
p1382
I01
sS'Thi__ALL__'
p1383
I01
sS',__ALL__'
p1384
I01
sS'your__ALL__'
p1385
I01
sS'is__BOTTOM__'
p1386
I01
sS'he__TOP__'
p1387
I01
sS'my__TOP__'
p1388
I01
sS'just__ALL__'
p1389
I01
sS'is__ALL__'
p1390
I01
sS'my__ALL__'
p1391
I01
sS'is__TOP__'
p1392
I01
sS'day__BOTTOM__'
p1393
I01
sS'he__ALL__'
p1394
I01
sS'away__TOP__'
p1395
I01
sa(dp1396
S'to__BOTTOM__'
p1397
I01
sS'All__TOP__'
p1398
I01
sS'post__ALL__'
p1399
I01
sS'Would__ALL__'
p1400
I01
sS'Would__BOTTOM__'
p1401
I01
sS'break__BOTTOM__'
p1402
I01
sS'want__ALL__'
p1403
I01
sS'All__ALL__'
p1404
I01
sS"n't__ALL__"
p1405
I01
sS'streak__BOTTOM__'
p1406
I01
sS"n't__BOTTOM__"
p1407
I01
sS'post__TOP__'
p1408
I01
sS'want__BOTTOM__'
p1409
I01
sS'downvot__ALL__'
p1410
I01
sS'streak__ALL__'
p1411
I01
sS'get__ALL__'
p1412
I01
sS'break__ALL__'
p1413
I01
sS'a__ALL__'
p1414
I01
sS'to__ALL__'
p1415
I01
sS'a__BOTTOM__'
p1416
I01
sS'my__TOP__'
p1417
I01
sS'get__TOP__'
p1418
I01
sS'downvot__TOP__'
p1419
I01
sS'my__ALL__'
p1420
I01
sa(dp1421
S'.__BOTTOM__'
p1422
I01
sS'think__TOP__'
p1423
I01
sS'.__ALL__'
p1424
I01
sS'thi__TOP__'
p1425
I01
sS'think__ALL__'
p1426
I01
sS'she__ALL__'
p1427
I01
sS'My__TOP__'
p1428
I01
sS'NOT__BOTTOM__'
p1429
I01
sS'My__ALL__'
p1430
I01
sS'IT__ALL__'
p1431
I01
sS'it__TOP__'
p1432
I01
sS'made__TOP__'
p1433
I01
sS'thi__ALL__'
p1434
I01
sS'...__ALL__'
p1435
I01
sS'good__ALL__'
p1436
I01
sS'she__TOP__'
p1437
I01
sS'friend__TOP__'
p1438
I01
sS',__TOP__'
p1439
I01
sS'friend__ALL__'
p1440
I01
sS'good__TOP__'
p1441
I01
sS',__ALL__'
p1442
I01
sS'veri__TOP__'
p1443
I01
sS'...__TOP__'
p1444
I01
sS'made__ALL__'
p1445
I01
sS'veri__ALL__'
p1446
I01
sS"does't__TOP__"
p1447
I01
sS'NOT__ALL__'
p1448
I01
sS'IT__BOTTOM__'
p1449
I01
sS"does't__ALL__"
p1450
I01
sS'it__ALL__'
p1451
I01
sa(dp1452
S'into__ALL__'
p1453
I01
sS'downvot__BOTTOM__'
p1454
I01
sS'I__TOP__'
p1455
I01
sS'Guess__ALL__'
p1456
I01
sS'I__ALL__'
p1457
I01
sS'who__TOP__'
p1458
I01
sS'Guess__TOP__'
p1459
I01
sS'My__ALL__'
p1460
I01
sS'who__ALL__'
p1461
I01
sS'ran__TOP__'
p1462
I01
sS'My__BOTTOM__'
p1463
I01
sS'into__TOP__'
p1464
I01
sS'ran__ALL__'
p1465
I01
sS'downvot__ALL__'
p1466
I01
sa(dp1467
S'.__BOTTOM__'
p1468
I01
sS'think__TOP__'
p1469
I01
sS'I__TOP__'
p1470
I01
sS'.__ALL__'
p1471
I01
sS'got__ALL__'
p1472
I01
sS'help__ALL__'
p1473
I01
sS'straight__ALL__'
p1474
I01
sS'even__TOP__'
p1475
I01
sS'happi__TOP__'
p1476
I01
sS'help__BOTTOM__'
p1477
I01
sS'me__ALL__'
p1478
I01
sS'cant__TOP__'
p1479
I01
sS'your__BOTTOM__'
p1480
I01
sS'Let__BOTTOM__'
p1481
I01
sS'so__ALL__'
p1482
I01
sS'think__ALL__'
p1483
I01
sS"'m__ALL__"
p1484
I01
sS"'m__TOP__"
p1485
I01
sS'upvot__ALL__'
p1486
I01
sS'collect__BOTTOM__'
p1487
I01
sS'straight__TOP__'
p1488
I01
sS'so__TOP__'
p1489
I01
sS'you__ALL__'
p1490
I01
sS'you__BOTTOM__'
p1491
I01
sS'thought__ALL__'
p1492
I01
sS'mani__TOP__'
p1493
I01
sS'upvot__TOP__'
p1494
I01
sS',__TOP__'
p1495
I01
sS'believ__ALL__'
p1496
I01
sS'thought__BOTTOM__'
p1497
I01
sS'believ__TOP__'
p1498
I01
sS'!__TOP__'
p1499
I01
sS'me__BOTTOM__'
p1500
I01
sS',__ALL__'
p1501
I01
sS'Omg__ALL__'
p1502
I01
sS'collect__ALL__'
p1503
I01
sS'happi__ALL__'
p1504
I01
sS'I__ALL__'
p1505
I01
sS'your__ALL__'
p1506
I01
sS'!__ALL__'
p1507
I01
sS'how__TOP__'
p1508
I01
sS'even__ALL__'
p1509
I01
sS'cant__ALL__'
p1510
I01
sS'Omg__TOP__'
p1511
I01
sS'how__ALL__'
p1512
I01
sS'got__TOP__'
p1513
I01
sS'Let__ALL__'
p1514
I01
sS'mani__ALL__'
p1515
I01
sa(dp1516
S'.__BOTTOM__'
p1517
I01
sS'.__ALL__'
p1518
I01
sS'look__TOP__'
p1519
I01
sS'so__ALL__'
p1520
I01
sS'amaz__ALL__'
p1521
I01
sS'OMG__ALL__'
p1522
I01
sS'ordinari__BOTTOM__'
p1523
I01
sS'what__ALL__'
p1524
I01
sS'your__BOTTOM__'
p1525
I01
sS'look__ALL__'
p1526
I01
sS"'s__TOP__"
p1527
I01
sS'amaz__TOP__'
p1528
I01
sS'OMG__TOP__'
p1529
I01
sS'so__TOP__'
p1530
I01
sS'did__ALL__'
p1531
I01
sS'he__TOP__'
p1532
I01
sS'what__TOP__'
p1533
I01
sS'ordinari__ALL__'
p1534
I01
sS'kid__TOP__'
p1535
I01
sS'did__TOP__'
p1536
I01
sS'your__ALL__'
p1537
I01
sS'child__ALL__'
p1538
I01
sS'is__BOTTOM__'
p1539
I01
sS'kid__ALL__'
p1540
I01
sS'my__TOP__'
p1541
I01
sS'is__ALL__'
p1542
I01
sS'my__ALL__'
p1543
I01
sS'he__ALL__'
p1544
I01
sS'child__BOTTOM__'
p1545
I01
sS"'s__ALL__"
p1546
I01
sS'.__TOP__'
p1547
I01
sa(dp1548
S'thi__TOP__'
p1549
I01
sS'the__TOP__'
p1550
I01
sS'page__TOP__'
p1551
I01
sS'if__TOP__'
p1552
I01
sS'thi__ALL__'
p1553
I01
sS'win__TOP__'
p1554
I01
sS'?__TOP__'
p1555
I01
sS'if__ALL__'
p1556
I01
sS'you__ALL__'
p1557
I01
sS'bet__TOP__'
p1558
I01
sS'nope__ALL__'
p1559
I01
sS'get__ALL__'
p1560
I01
sS'nope__BOTTOM__'
p1561
I01
sS'you__TOP__'
p1562
I01
sS'bet__ALL__'
p1563
I01
sS'front__TOP__'
p1564
I01
sS'to__ALL__'
p1565
I01
sS'?__ALL__'
p1566
I01
sS'get__TOP__'
p1567
I01
sS'to__TOP__'
p1568
I01
sS'front__ALL__'
p1569
I01
sS'win__ALL__'
p1570
I01
sS'the__ALL__'
p1571
I01
sS'page__ALL__'
p1572
I01
sa(dp1573
S'I__TOP__'
p1574
I01
sS'like__TOP__'
p1575
I01
sS'Reddit__TOP__'
p1576
I01
sS'misinform__ALL__'
p1577
I01
sS'Hey__TOP__'
p1578
I01
sS'You__BOTTOM__'
p1579
I01
sS'like__ALL__'
p1580
I01
sS'were__ALL__'
p1581
I01
sS'...__ALL__'
p1582
I01
sS'you__ALL__'
p1583
I01
sS',__TOP__'
p1584
I01
sS'were__BOTTOM__'
p1585
I01
sS'Hey__ALL__'
p1586
I01
sS',__ALL__'
p1587
I01
sS'you__TOP__'
p1588
I01
sS'...__TOP__'
p1589
I01
sS'You__ALL__'
p1590
I01
sS'heard__TOP__'
p1591
I01
sS'Reddit__ALL__'
p1592
I01
sS'I__ALL__'
p1593
I01
sS'misinform__BOTTOM__'
p1594
I01
sS'heard__ALL__'
p1595
I01
sa(dp1596
S'midnight__ALL__'
p1597
I01
sS"''__TOP__"
p1598
I01
sS'bacon__BOTTOM__'
p1599
I01
sS'the__TOP__'
p1600
I01
sS'narwhal__TOP__'
p1601
I01
sS'bacon__ALL__'
p1602
I01
sS'huh__ALL__'
p1603
I01
sS'downvot__BOTTOM__'
p1604
I01
sS'at__ALL__'
p1605
I01
sS"''__ALL__"
p1606
I01
sS'now__ALL__'
p1607
I01
sS'midnight__TOP__'
p1608
I01
sS'?__TOP__'
p1609
I01
sS',__TOP__'
p1610
I01
sS'bacon__TOP__'
p1611
I01
sS'downvot__ALL__'
p1612
I01
sS',__ALL__'
p1613
I01
sS'at__TOP__'
p1614
I01
sS'huh__TOP__'
p1615
I01
sS'?__ALL__'
p1616
I01
sS'now__BOTTOM__'
p1617
I01
sS'the__ALL__'
p1618
I01
sS'the__BOTTOM__'
p1619
I01
sS'narwhal__ALL__'
p1620
I01
sa(dp1621
S'I__TOP__'
p1622
I01
sS'to__BOTTOM__'
p1623
I01
sS'came__BOTTOM__'
p1624
I01
sS'``__ALL__'
p1625
I01
sS'Comment__ALL__'
p1626
I01
sS'read__ALL__'
p1627
I01
sS'say__TOP__'
p1628
I01
sS'``__TOP__'
p1629
I01
sS'read__TOP__'
p1630
I01
sS'Comment__TOP__'
p1631
I01
sS'here__ALL__'
p1632
I01
sS'destroy__ALL__'
p1633
I01
sS'you__ALL__'
p1634
I01
sS'you__BOTTOM__'
p1635
I01
sS'came__TOP__'
p1636
I01
sS',__TOP__'
p1637
I01
sS'came__ALL__'
p1638
I01
sS'destroy__BOTTOM__'
p1639
I01
sS',__ALL__'
p1640
I01
sS'I__BOTTOM__'
p1641
I01
sS'here__BOTTOM__'
p1642
I01
sS'that__ALL__'
p1643
I01
sS'that__TOP__'
p1644
I01
sS'to__ALL__'
p1645
I01
sS'I__ALL__'
p1646
I01
sS'here__TOP__'
p1647
I01
sS'to__TOP__'
p1648
I01
sS'say__ALL__'
p1649
I01
sa(dp1650
S'can__ALL__'
p1651
I01
sS'alon__ALL__'
p1652
I01
sS'alon__TOP__'
p1653
I01
sS'You__BOTTOM__'
p1654
I01
sS'at__ALL__'
p1655
I01
sS'can__BOTTOM__'
p1656
I01
sS'?__TOP__'
p1657
I01
sS'of__ALL__'
p1658
I01
sS'bottom__BOTTOM__'
p1659
I01
sS'of__BOTTOM__'
p1660
I01
sS'alon__BOTTOM__'
p1661
I01
sS'be__ALL__'
p1662
I01
sS'be__BOTTOM__'
p1663
I01
sS'You__ALL__'
p1664
I01
sS'?__ALL__'
p1665
I01
sS'bottom__ALL__'
p1666
I01
sS'comment__ALL__'
p1667
I01
sS'Forev__TOP__'
p1668
I01
sS'Forev__ALL__'
p1669
I01
sS'comment__BOTTOM__'
p1670
I01
sS'the__ALL__'
p1671
I01
sS'the__BOTTOM__'
p1672
I01
sS'at__BOTTOM__'
p1673
I01
sa(dp1674
S'coincid__BOTTOM__'
p1675
I01
sS'I__TOP__'
p1676
I01
sS'downvot__ALL__'
p1677
I01
sS'a__BOTTOM__'
p1678
I01
sS'!__TOP__'
p1679
I01
sS'coincid__ALL__'
p1680
I01
sS'LOL__TOP__'
p1681
I01
sS'!__ALL__'
p1682
I01
sS'downvot__TOP__'
p1683
I01
sS'...__ALL__'
p1684
I01
sS'everyth__ALL__'
p1685
I01
sS'what__ALL__'
p1686
I01
sS'a__ALL__'
p1687
I01
sS'I__ALL__'
p1688
I01
sS'everyth__TOP__'
p1689
I01
sS'LOL__ALL__'
p1690
I01
sS'what__BOTTOM__'
p1691
I01
sS'...__BOTTOM__'
p1692
I01
sa(dp1693
S'.__BOTTOM__'
p1694
I01
sS'.__ALL__'
p1695
I01
sS'``__ALL__'
p1696
I01
sS'not__ALL__'
p1697
I01
sS'brother__ALL__'
p1698
I01
sS'He__ALL__'
p1699
I01
sS'onli__ALL__'
p1700
I01
sS'not__BOTTOM__'
p1701
I01
sS"''__ALL__"
p1702
I01
sS'one__BOTTOM__'
p1703
I01
sS'with__ALL__'
p1704
I01
sS'ha__ALL__'
p1705
I01
sS'card__TOP__'
p1706
I01
sS'from__ALL__'
p1707
I01
sS'Birthday__ALL__'
p1708
I01
sS'syndrom__BOTTOM__'
p1709
I01
sS'ha__TOP__'
p1710
I01
sS'who__TOP__'
p1711
I01
sS"''__BOTTOM__"
p1712
I01
sS'from__TOP__'
p1713
I01
sS'Birthday__TOP__'
p1714
I01
sS'brother__TOP__'
p1715
I01
sS'``__BOTTOM__'
p1716
I01
sS'down__TOP__'
p1717
I01
sS'down__BOTTOM__'
p1718
I01
sS'He__BOTTOM__'
p1719
I01
sS'onli__BOTTOM__'
p1720
I01
sS'syndrom__TOP__'
p1721
I01
sS'card__ALL__'
p1722
I01
sS'one__ALL__'
p1723
I01
sS'syndrom__ALL__'
p1724
I01
sS'my__TOP__'
p1725
I01
sS'with__BOTTOM__'
p1726
I01
sS'who__ALL__'
p1727
I01
sS'my__ALL__'
p1728
I01
sS'down__ALL__'
p1729
I01
sS'the__ALL__'
p1730
I01
sS'the__BOTTOM__'
p1731
I01
sS"'s__ALL__"
p1732
I01
sS"'s__BOTTOM__"
p1733
I01
sa(dp1734
S'thi__TOP__'
p1735
I01
sS'girlfriend__ALL__'
p1736
I01
sS'the__TOP__'
p1737
I01
sS'page__TOP__'
p1738
I01
sS'read__ALL__'
p1739
I01
sS'worri__ALL__'
p1740
I01
sS'girlfriend__TOP__'
p1741
I01
sS'read__TOP__'
p1742
I01
sS'no__BOTTOM__'
p1743
I01
sS'thi__ALL__'
p1744
I01
sS'my__ALL__'
p1745
I01
sS"n't__TOP__"
p1746
I01
sS'let__TOP__'
p1747
I01
sS'no__ALL__'
p1748
I01
sS'reddit__ALL__'
p1749
I01
sS',__TOP__'
p1750
I01
sS'get__ALL__'
p1751
I01
sS"n't__ALL__"
p1752
I01
sS',__ALL__'
p1753
I01
sS'front__TOP__'
p1754
I01
sS'worri__BOTTOM__'
p1755
I01
sS'let__ALL__'
p1756
I01
sS'to__ALL__'
p1757
I01
sS'my__TOP__'
p1758
I01
sS'get__TOP__'
p1759
I01
sS'reddit__TOP__'
p1760
I01
sS'to__TOP__'
p1761
I01
sS'Do__ALL__'
p1762
I01
sS'front__ALL__'
p1763
I01
sS'the__ALL__'
p1764
I01
sS'page__ALL__'
p1765
I01
sS'Do__TOP__'
p1766
I01
sa(dp1767
S'into__ALL__'
p1768
I01
sS'Look__ALL__'
p1769
I01
sS'I__TOP__'
p1770
I01
sS'!__ALL__'
p1771
I01
sS'Look__TOP__'
p1772
I01
sS'!__TOP__'
p1773
I01
sS'yesterday__ALL__'
p1774
I01
sS'Look__BOTTOM__'
p1775
I01
sS'I__BOTTOM__'
p1776
I01
sS'yesterday__TOP__'
p1777
I01
sS'who__ALL__'
p1778
I01
sS'ran__TOP__'
p1779
I01
sS'who__TOP__'
p1780
I01
sS'into__TOP__'
p1781
I01
sS'ran__ALL__'
p1782
I01
sS'who__BOTTOM__'
p1783
I01
sS'I__ALL__'
p1784
I01
sa(dp1785
S'a__ALL__'
p1786
I01
sS'law__ALL__'
p1787
I01
sS'peasant__BOTTOM__'
p1788
I01
sS'democraci__TOP__'
p1789
I01
sS'law__BOTTOM__'
p1790
I01
sS'a__TOP__'
p1791
I01
sS'my__BOTTOM__'
p1792
I01
sS'impli__TOP__'
p1793
I01
sS'my__ALL__'
p1794
I01
sS',__ALL__'
p1795
I01
sS'is__ALL__'
p1796
I01
sS'impli__ALL__'
p1797
I01
sS'vote__TOP__'
p1798
I01
sS'peasant__ALL__'
p1799
I01
sS'word__ALL__'
p1800
I01
sS',__BOTTOM__'
p1801
I01
sS'word__BOTTOM__'
p1802
I01
sS'democraci__ALL__'
p1803
I01
sS'is__BOTTOM__'
p1804
I01
sS'vote__ALL__'
p1805
I01
sa(dp1806
S'said__BOTTOM__'
p1807
I01
sS'and__ALL__'
p1808
I01
sS'boss__BOTTOM__'
p1809
I01
sS'and__TOP__'
p1810
I01
sS'like__ALL__'
p1811
I01
sS'a__ALL__'
p1812
I01
sS'boss__ALL__'
p1813
I01
sS'``__ALL__'
p1814
I01
sS'you__ALL__'
p1815
I01
sS'you__BOTTOM__'
p1816
I01
sS'funni__TOP__'
p1817
I01
sS'origin__ALL__'
p1818
I01
sS'respons__ALL__'
p1819
I01
sS',__TOP__'
p1820
I01
sS'wa__ALL__'
p1821
I01
sS'until__ALL__'
p1822
I01
sS'respons__TOP__'
p1823
I01
sS',__ALL__'
p1824
I01
sS'until__BOTTOM__'
p1825
I01
sS'provoc__ALL__'
p1826
I01
sS'funni__ALL__'
p1827
I01
sS'``__BOTTOM__'
p1828
I01
sS'your__ALL__'
p1829
I01
sS'said__ALL__'
p1830
I01
sS'provoc__TOP__'
p1831
I01
sS'like__BOTTOM__'
p1832
I01
sS'origin__TOP__'
p1833
I01
sS'a__BOTTOM__'
p1834
I01
sS'wa__TOP__'
p1835
I01
sS'your__TOP__'
p1836
I01
sa(dp1837
S'all__ALL__'
p1838
I01
sS'I__TOP__'
p1839
I01
sS'thi__TOP__'
p1840
I01
sS'to__BOTTOM__'
p1841
I01
sS':__ALL__'
p1842
I01
sS'back__BOTTOM__'
p1843
I01
sS'amaz__ALL__'
p1844
I01
sS'the__TOP__'
p1845
I01
sS'earth__ALL__'
p1846
I01
sS'at__ALL__'
p1847
I01
sS'Well__BOTTOM__'
p1848
I01
sS"'m__ALL__"
p1849
I01
sS'Edit__TOP__'
p1850
I01
sS"'m__TOP__"
p1851
I01
sS'amaz__TOP__'
p1852
I01
sS'Wow__ALL__'
p1853
I01
sS'back__ALL__'
p1854
I01
sS'thi__ALL__'
p1855
I01
sS'Edit__ALL__'
p1856
I01
sS'Well__ALL__'
p1857
I01
sS'here__ALL__'
p1858
I01
sS'you__ALL__'
p1859
I01
sS'you__BOTTOM__'
p1860
I01
sS'posit__TOP__'
p1861
I01
sS'respons__ALL__'
p1862
I01
sS'Wow__TOP__'
p1863
I01
sS',__TOP__'
p1864
I01
sS'earth__BOTTOM__'
p1865
I01
sS'get__ALL__'
p1866
I01
sS'someth__ALL__'
p1867
I01
sS'respons__TOP__'
p1868
I01
sS'someth__BOTTOM__'
p1869
I01
sS',__ALL__'
p1870
I01
sS'here__BOTTOM__'
p1871
I01
sS'posit__ALL__'
p1872
I01
sS'bring__BOTTOM__'
p1873
I01
sS'is__BOTTOM__'
p1874
I01
sS'to__ALL__'
p1875
I01
sS'all__TOP__'
p1876
I01
sS'I__ALL__'
p1877
I01
sS'get__TOP__'
p1878
I01
sS'is__ALL__'
p1879
I01
sS'bring__ALL__'
p1880
I01
sS'is__TOP__'
p1881
I01
sS'the__ALL__'
p1882
I01
sS'at__TOP__'
p1883
I01
sS':__TOP__'
p1884
I01
sa(dp1885
S'comic__ALL__'
p1886
I01
sS'.__ALL__'
p1887
I01
sS'have__TOP__'
p1888
I01
sS'been__TOP__'
p1889
I01
sS'should__ALL__'
p1890
I01
sS'and__ALL__'
p1891
I01
sS'and__BOTTOM__'
p1892
I01
sS'thi__TOP__'
p1893
I01
sS'have__ALL__'
p1894
I01
sS'fail__ALL__'
p1895
I01
sS'studi__ALL__'
p1896
I01
sS'should__TOP__'
p1897
I01
sS'made__TOP__'
p1898
I01
sS'thi__ALL__'
p1899
I01
sS'instead__TOP__'
p1900
I01
sS'instead__ALL__'
p1901
I01
sS'but__ALL__'
p1902
I01
sS'you__ALL__'
p1903
I01
sS'you__BOTTOM__'
p1904
I01
sS'for__ALL__'
p1905
I01
sS',__TOP__'
p1906
I01
sS'fail__BOTTOM__'
p1907
I01
sS',__ALL__'
p1908
I01
sS'for__TOP__'
p1909
I01
sS'made__ALL__'
p1910
I01
sS'been__ALL__'
p1911
I01
sS'both__BOTTOM__'
p1912
I01
sS'but__TOP__'
p1913
I01
sS'test__TOP__'
p1914
I01
sS'studi__TOP__'
p1915
I01
sS'comic__TOP__'
p1916
I01
sS'.__TOP__'
p1917
I01
sS'both__ALL__'
p1918
I01
sS'test__ALL__'
p1919
I01
sa(dp1920
S'had__TOP__'
p1921
I01
sS"'ve__TOP__"
p1922
I01
sS'pet__TOP__'
p1923
I01
sS"'ve__ALL__"
p1924
I01
sS'Your__TOP__'
p1925
I01
sS'die__ALL__'
p1926
I01
sS'whole__TOP__'
p1927
I01
sS'life__TOP__'
p1928
I01
sS'with__ALL__'
p1929
I01
sS'yesterday__TOP__'
p1930
I01
sS'?__TOP__'
p1931
I01
sS'it__BOTTOM__'
p1932
I01
sS'had__ALL__'
p1933
I01
sS'you__ALL__'
p1934
I01
sS'die__TOP__'
p1935
I01
sS'you__TOP__'
p1936
I01
sS'ador__TOP__'
p1937
I01
sS'it__ALL__'
p1938
I01
sS'your__ALL__'
p1939
I01
sS'yesterday__ALL__'
p1940
I01
sS'ador__ALL__'
p1941
I01
sS'?__ALL__'
p1942
I01
sS'deal__BOTTOM__'
p1943
I01
sS'deal__ALL__'
p1944
I01
sS'with__BOTTOM__'
p1945
I01
sS'your__TOP__'
p1946
I01
sS'life__ALL__'
p1947
I01
sS'Your__ALL__'
p1948
I01
sS'pet__ALL__'
p1949
I01
sS'whole__ALL__'
p1950
I01
sa(dp1951
S'Instant__BOTTOM__'
p1952
I01
sS'thi__TOP__'
p1953
I01
sS'How__TOP__'
p1954
I01
sS'girlfriend__ALL__'
p1955
I01
sS'nice__TOP__'
p1956
I01
sS'downvot__ALL__'
p1957
I01
sS'made__TOP__'
p1958
I01
sS'thi__ALL__'
p1959
I01
sS'?__ALL__'
p1960
I01
sS'made__ALL__'
p1961
I01
sS'?__TOP__'
p1962
I01
sS'Your__TOP__'
p1963
I01
sS'Instant__ALL__'
p1964
I01
sS'downvot__BOTTOM__'
p1965
I01
sS'nice__ALL__'
p1966
I01
sS'Your__ALL__'
p1967
I01
sS'How__ALL__'
p1968
I01
sS'girlfriend__TOP__'
p1969
I01
sa(dp1970
S'veri__BOTTOM__'
p1971
I01
sS'resembl__ALL__'
p1972
I01
sS'Object__TOP__'
p1973
I01
sS'downvot__BOTTOM__'
p1974
I01
sS'Have__BOTTOM__'
p1975
I01
sS'a__ALL__'
p1976
I01
sS'Object__ALL__'
p1977
I01
sS'upvot__ALL__'
p1978
I01
sS'an__TOP__'
p1979
I01
sS'?__TOP__'
p1980
I01
sS'Have__ALL__'
p1981
I01
sS'upvot__TOP__'
p1982
I01
sS'an__ALL__'
p1983
I01
sS'downvot__ALL__'
p1984
I01
sS'that__ALL__'
p1985
I01
sS'veri__ALL__'
p1986
I01
sS'that__TOP__'
p1987
I01
sS'?__ALL__'
p1988
I01
sS'a__BOTTOM__'
p1989
I01
sS'realist__BOTTOM__'
p1990
I01
sS'realist__ALL__'
p1991
I01
sS'resembl__TOP__'
p1992
I01
sa(dp1993
S'.__BOTTOM__'
p1994
I01
sS'.__ALL__'
p1995
I01
sS'terribl__BOTTOM__'
p1996
I01
sS'childhood__ALL__'
p1997
I01
sS'It__BOTTOM__'
p1998
I01
sS'show__ALL__'
p1999
I01
sS'show__TOP__'
p2000
I01
sS'from__ALL__'
p2001
I01
sS'?__TOP__'
p2002
I01
sS'still__BOTTOM__'
p2003
I01
sS'from__TOP__'
p2004
I01
sS'terribl__ALL__'
p2005
I01
sS'still__ALL__'
p2006
I01
sS'your__ALL__'
p2007
I01
sS'childhood__TOP__'
p2008
I01
sS'?__ALL__'
p2009
I01
sS'your__TOP__'
p2010
I01
sS'That__ALL__'
p2011
I01
sS'It__ALL__'
p2012
I01
sS"'s__ALL__"
p2013
I01
sS'That__TOP__'
p2014
I01
sS"'s__BOTTOM__"
p2015
I01
sa(dp2016
S'.__ALL__'
p2017
I01
sS'My__TOP__'
p2018
I01
sS'My__ALL__'
p2019
I01
sS'good__ALL__'
p2020
I01
sS'Think__TOP__'
p2021
I01
sS"n't__ALL__"
p2022
I01
sS'Doe__TOP__'
p2023
I01
sS'Think__ALL__'
p2024
I01
sS"n't__TOP__"
p2025
I01
sS'Doe__ALL__'
p2026
I01
sS'hi__ALL__'
p2027
I01
sS'right__BOTTOM__'
p2028
I01
sS'art__TOP__'
p2029
I01
sS'right__ALL__'
p2030
I01
sS'good__TOP__'
p2031
I01
sS'veri__TOP__'
p2032
I01
sS'Boyfriend__ALL__'
p2033
I01
sS'hi__TOP__'
p2034
I01
sS'veri__ALL__'
p2035
I01
sS'Boyfriend__TOP__'
p2036
I01
sS'art__ALL__'
p2037
I01
sS'is__ALL__'
p2038
I01
sS'is__TOP__'
p2039
I01
sS'he__ALL__'
p2040
I01
sS"'s__ALL__"
p2041
I01
sS'.__TOP__'
p2042
I01
sS'he__BOTTOM__'
p2043
I01
sS"'s__BOTTOM__"
p2044
I01
sa(dp2045
S'avail__TOP__'
p2046
I01
sS'upvot__BOTTOM__'
p2047
I01
sS'Not__TOP__'
p2048
I01
sS'in__TOP__'
p2049
I01
sS'my__TOP__'
p2050
I01
sS'upvot__ALL__'
p2051
I01
sS'?__ALL__'
p2052
I01
sS'Not__BOTTOM__'
p2053
I01
sS'?__TOP__'
p2054
I01
sS'my__ALL__'
p2055
I01
sS'area__ALL__'
p2056
I01
sS'in__BOTTOM__'
p2057
I01
sS'avail__ALL__'
p2058
I01
sS'my__BOTTOM__'
p2059
I01
sS'area__BOTTOM__'
p2060
I01
sS'in__ALL__'
p2061
I01
sS'Not__ALL__'
p2062
I01
sS'area__TOP__'
p2063
I01
sa(dp2064
S'reddit__ALL__'
p2065
I01
sS'got__ALL__'
p2066
I01
sS'post__TOP__'
p2067
I01
sS'look__TOP__'
p2068
I01
sS'post__ALL__'
p2069
I01
sS'what__ALL__'
p2070
I01
sS'look__ALL__'
p2071
I01
sS'omg__ALL__'
p2072
I01
sS'omg__TOP__'
p2073
I01
sS'later__TOP__'
p2074
I01
sS'what__TOP__'
p2075
I01
sS',__TOP__'
p2076
I01
sS'later__ALL__'
p2077
I01
sS'too__ALL__'
p2078
I01
sS'i__ALL__'
p2079
I01
sS',__ALL__'
p2080
I01
sS"'ll__ALL__"
p2081
I01
sS'late__ALL__'
p2082
I01
sS'i__TOP__'
p2083
I01
sS"'ll__TOP__"
p2084
I01
sS'reddit__TOP__'
p2085
I01
sS'too__BOTTOM__'
p2086
I01
sS'pic__ALL__'
p2087
I01
sS'pic__TOP__'
p2088
I01
sS'late__BOTTOM__'
p2089
I01
sS'got__TOP__'
p2090
I01
sa(dp2091
S'.__BOTTOM__'
p2092
I01
sS'I__TOP__'
p2093
I01
sS'.__ALL__'
p2094
I01
sS'deal__ALL__'
p2095
I01
sS'a__TOP__'
p2096
I01
sS'deal__TOP__'
p2097
I01
sS'babe__TOP__'
p2098
I01
sS"'m__ALL__"
p2099
I01
sS'ani__ALL__'
p2100
I01
sS'a__ALL__'
p2101
I01
sS"'m__TOP__"
p2102
I01
sS'Not__ALL__'
p2103
I01
sS'more__ALL__'
p2104
I01
sS'pretti__ALL__'
p2105
I01
sS'on__ALL__'
p2106
I01
sS'big__ALL__'
p2107
I01
sS'pretti__TOP__'
p2108
I01
sS'babe__ALL__'
p2109
I01
sS'reddit__ALL__'
p2110
I01
sS',__TOP__'
p2111
I01
sS'Yeah__ALL__'
p2112
I01
sS'more__BOTTOM__'
p2113
I01
sS',__ALL__'
p2114
I01
sS'Not__BOTTOM__'
p2115
I01
sS'Yeah__TOP__'
p2116
I01
sS'ani__BOTTOM__'
p2117
I01
sS'I__ALL__'
p2118
I01
sS'reddit__TOP__'
p2119
I01
sS'big__TOP__'
p2120
I01
sS'on__TOP__'
p2121
I01
sS'.__TOP__'
p2122
I01
sa(dp2123
S'regist__TOP__'
p2124
I01
sS'live__BOTTOM__'
p2125
I01
sS'need__TOP__'
p2126
I01
sS'need__ALL__'
p2127
I01
sS'login__ALL__'
p2128
I01
sS'or__ALL__'
p2129
I01
sS'today__ALL__'
p2130
I01
sS'you__ALL__'
p2131
I01
sS'you__BOTTOM__'
p2132
I01
sS'live__ALL__'
p2133
I01
sS'today__BOTTOM__'
p2134
I01
sS"'ll__ALL__"
p2135
I01
sS'do__ALL__'
p2136
I01
sS'regist__ALL__'
p2137
I01
sS'that__ALL__'
p2138
I01
sS'You__ALL__'
p2139
I01
sS'do__TOP__'
p2140
I01
sS'that__TOP__'
p2141
I01
sS'to__ALL__'
p2142
I01
sS"'ll__TOP__"
p2143
I01
sS'to__TOP__'
p2144
I01
sS'You__TOP__'
p2145
I01
sS'or__TOP__'
p2146
I01
sS'login__TOP__'
p2147
I01
sa(dp2148
S'what__TOP__'
p2149
I01
sS'see__ALL__'
p2150
I01
sS'I__TOP__'
p2151
I01
sS'?__ALL__'
p2152
I01
sS'?__BOTTOM__'
p2153
I01
sS'what__ALL__'
p2154
I01
sS'here__BOTTOM__'
p2155
I01
sS'I__ALL__'
p2156
I01
sS'there__ALL__'
p2157
I01
sS'I__BOTTOM__'
p2158
I01
sS'you__TOP__'
p2159
I01
sS'See__BOTTOM__'
p2160
I01
sS'here__ALL__'
p2161
I01
sS'did__TOP__'
p2162
I01
sS'you__ALL__'
p2163
I01
sS'see__TOP__'
p2164
I01
sS'did__ALL__'
p2165
I01
sS'did__BOTTOM__'
p2166
I01
sS'what__BOTTOM__'
p2167
I01
sS'See__ALL__'
p2168
I01
sS'there__TOP__'
p2169
I01
sa(dp2170
S'.__BOTTOM__'
p2171
I01
sS'comic__ALL__'
p2172
I01
sS'.__ALL__'
p2173
I01
sS'about__ALL__'
p2174
I01
sS'Have__BOTTOM__'
p2175
I01
sS'A__TOP__'
p2176
I01
sS'about__TOP__'
p2177
I01
sS'?__TOP__'
p2178
I01
sS'rage__ALL__'
p2179
I01
sS'Have__ALL__'
p2180
I01
sS'rage__TOP__'
p2181
I01
sS'A__ALL__'
p2182
I01
sS'inspir__ALL__'
p2183
I01
sS'downvot__ALL__'
p2184
I01
sS'be__ALL__'
p2185
I01
sS'comic__TOP__'
p2186
I01
sS'be__TOP__'
p2187
I01
sS'some__BOTTOM__'
p2188
I01
sS'?__ALL__'
p2189
I01
sS'downvot__TOP__'
p2190
I01
sS'inspir__BOTTOM__'
p2191
I01
sS'some__ALL__'
p2192
I01
sa(dp2193
S'agre__BOTTOM__'
p2194
I01
sS'hate__ALL__'
p2195
I01
sS'Hater__ALL__'
p2196
I01
sS'hate__TOP__'
p2197
I01
sS'agre__ALL__'
p2198
I01
sS'gon__ALL__'
p2199
I01
sS'na__TOP__'
p2200
I01
sS'na__ALL__'
p2201
I01
sS'Hater__TOP__'
p2202
I01
sS'gon__TOP__'
p2203
I01
sa(dp2204
S'correct__ALL__'
p2205
I01
sS'.__ALL__'
p2206
I01
sS'thi__TOP__'
p2207
I01
sS'will__ALL__'
p2208
I01
sS'downvot__BOTTOM__'
p2209
I01
sS'correct__BOTTOM__'
p2210
I01
sS'thi__ALL__'
p2211
I01
sS'...__ALL__'
p2212
I01
sS'know__ALL__'
p2213
I01
sS'instant__ALL__'
p2214
I01
sS'you__ALL__'
p2215
I01
sS'you__BOTTOM__'
p2216
I01
sS'i__ALL__'
p2217
I01
sS'downvot__ALL__'
p2218
I01
sS'are__BOTTOM__'
p2219
I01
sS'be__ALL__'
p2220
I01
sS'...__TOP__'
p2221
I01
sS'know__TOP__'
p2222
I01
sS'be__TOP__'
p2223
I01
sS'i__TOP__'
p2224
I01
sS'are__ALL__'
p2225
I01
sS'instant__BOTTOM__'
p2226
I01
sS'downvot__TOP__'
p2227
I01
sS'will__TOP__'
p2228
I01
sS'.__TOP__'
p2229
I01
sa(dp2230
S'thi__TOP__'
p2231
I01
sS'facebook__TOP__'
p2232
I01
sS'like__TOP__'
p2233
I01
sS'stuff__ALL__'
p2234
I01
sS'and__ALL__'
p2235
I01
sS'less__ALL__'
p2236
I01
sS'just__TOP__'
p2237
I01
sS'reddit__BOTTOM__'
p2238
I01
sS'and__BOTTOM__'
p2239
I01
sS'like__ALL__'
p2240
I01
sS"n't__ALL__"
p2241
I01
sS'ye__BOTTOM__'
p2242
I01
sS'ye__ALL__'
p2243
I01
sS'thi__ALL__'
p2244
I01
sS"n't__TOP__"
p2245
I01
sS'?__TOP__'
p2246
I01
sS'on__ALL__'
p2247
I01
sS'it__BOTTOM__'
p2248
I01
sS'stuff__TOP__'
p2249
I01
sS'you__ALL__'
p2250
I01
sS'on__TOP__'
p2251
I01
sS'reddit__ALL__'
p2252
I01
sS'i__ALL__'
p2253
I01
sS'hate__ALL__'
p2254
I01
sS',__ALL__'
p2255
I01
sS'you__TOP__'
p2256
I01
sS'it__ALL__'
p2257
I01
sS',__BOTTOM__'
p2258
I01
sS'facebook__ALL__'
p2259
I01
sS'like__BOTTOM__'
p2260
I01
sS'?__ALL__'
p2261
I01
sS'even__ALL__'
p2262
I01
sS'hate__TOP__'
p2263
I01
sS'even__BOTTOM__'
p2264
I01
sS'just__ALL__'
p2265
I01
sS'i__BOTTOM__'
p2266
I01
sS'Do__ALL__'
p2267
I01
sS'on__BOTTOM__'
p2268
I01
sS'less__BOTTOM__'
p2269
I01
sS'Do__TOP__'
p2270
I01
sa(dp2271
S'ponder__ALL__'
p2272
I01
sS'whi__ALL__'
p2273
I01
sS"'re__ALL__"
p2274
I01
sS'downvot__ALL__'
p2275
I01
sS'Not__TOP__'
p2276
I01
sS'Not__ALL__'
p2277
I01
sS'sure__TOP__'
p2278
I01
sS'thi__ALL__'
p2279
I01
sS'downvot__TOP__'
p2280
I01
sS"'re__TOP__"
p2281
I01
sS'you__TOP__'
p2282
I01
sS'be__ALL__'
p2283
I01
sS'ponder__BOTTOM__'
p2284
I01
sS'you__ALL__'
p2285
I01
sS'whi__TOP__'
p2286
I01
sS'sure__ALL__'
p2287
I01
sS'be__TOP__'
p2288
I01
sS'thi__BOTTOM__'
p2289
I01
sa(dp2290
S'.__BOTTOM__'
p2291
I01
sS'self__ALL__'
p2292
I01
sS'.__ALL__'
p2293
I01
sS'Click__ALL__'
p2294
I01
sS'post__TOP__'
p2295
I01
sS'Click__BOTTOM__'
p2296
I01
sS'post__ALL__'
p2297
I01
sS'usernam__ALL__'
p2298
I01
sS'downvot__BOTTOM__'
p2299
I01
sS'?__TOP__'
p2300
I01
sS'matter__ALL__'
p2301
I01
sS'matter__BOTTOM__'
p2302
I01
sS'someth__ALL__'
p2303
I01
sS'downvot__ALL__'
p2304
I01
sS',__ALL__'
p2305
I01
sS'someth__BOTTOM__'
p2306
I01
sS'that__ALL__'
p2307
I01
sS'that__BOTTOM__'
p2308
I01
sS',__BOTTOM__'
p2309
I01
sS'Obnoxi__TOP__'
p2310
I01
sS'?__ALL__'
p2311
I01
sS'usernam__BOTTOM__'
p2312
I01
sS'self__TOP__'
p2313
I01
sS'Obnoxi__ALL__'
p2314
I01
sa(dp2315
S'.__BOTTOM__'
p2316
I01
sS'.__ALL__'
p2317
I01
sS'guess__BOTTOM__'
p2318
I01
sS'life__TOP__'
p2319
I01
sS"n't__ALL__"
p2320
I01
sS'Then__BOTTOM__'
p2321
I01
sS'nice__ALL__'
p2322
I01
sS'thi__ALL__'
p2323
I01
sS'?__TOP__'
p2324
I01
sS'guess__ALL__'
p2325
I01
sS'thi__BOTTOM__'
p2326
I01
sS"n't__BOTTOM__"
p2327
I01
sS'you__ALL__'
p2328
I01
sS'you__BOTTOM__'
p2329
I01
sS'did__ALL__'
p2330
I01
sS'for__ALL__'
p2331
I01
sS'Then__ALL__'
p2332
I01
sS'someth__TOP__'
p2333
I01
sS'wo__ALL__'
p2334
I01
sS'real__ALL__'
p2335
I01
sS'nice__TOP__'
p2336
I01
sS'someth__ALL__'
p2337
I01
sS'I__BOTTOM__'
p2338
I01
sS'wo__BOTTOM__'
p2339
I01
sS'for__TOP__'
p2340
I01
sS'did__TOP__'
p2341
I01
sS'You__ALL__'
p2342
I01
sS'karma__ALL__'
p2343
I01
sS'mind__BOTTOM__'
p2344
I01
sS'?__ALL__'
p2345
I01
sS'karma__TOP__'
p2346
I01
sS'real__TOP__'
p2347
I01
sS'You__TOP__'
p2348
I01
sS'mind__ALL__'
p2349
I01
sS'life__ALL__'
p2350
I01
sS'I__ALL__'
p2351
I01
sa(dp2352
S'thi__TOP__'
p2353
I01
sS'her__BOTTOM__'
p2354
I01
sS'girlfriend__ALL__'
p2355
I01
sS'her__ALL__'
p2356
I01
sS'my__TOP__'
p2357
I01
sS'made__TOP__'
p2358
I01
sS'thi__ALL__'
p2359
I01
sS'me__ALL__'
p2360
I01
sS'made__ALL__'
p2361
I01
sS'my__ALL__'
p2362
I01
sS'give__ALL__'
p2363
I01
sS'for__TOP__'
p2364
I01
sS'thi__BOTTOM__'
p2365
I01
sS'me__TOP__'
p2366
I01
sS'downvot__BOTTOM__'
p2367
I01
sS'give__BOTTOM__'
p2368
I01
sS'for__ALL__'
p2369
I01
sS'downvot__ALL__'
p2370
I01
sS'girlfriend__TOP__'
p2371
I01
sa(dp2372
S'.__BOTTOM__'
p2373
I01
sS'bad__ALL__'
p2374
I01
sS'Had__TOP__'
p2375
I01
sS'.__ALL__'
p2376
I01
sS'?__ALL__'
p2377
I01
sS'got__ALL__'
p2378
I01
sS'day__ALL__'
p2379
I01
sS'day__TOP__'
p2380
I01
sS'a__TOP__'
p2381
I01
sS'Just__ALL__'
p2382
I01
sS'got__BOTTOM__'
p2383
I01
sS'?__TOP__'
p2384
I01
sS'wors__BOTTOM__'
p2385
I01
sS'a__ALL__'
p2386
I01
sS'Had__ALL__'
p2387
I01
sS'Just__BOTTOM__'
p2388
I01
sS'bad__TOP__'
p2389
I01
sS'wors__ALL__'
p2390
I01
sa(dp2391
S'Comic__ALL__'
p2392
I01
sS'use__BOTTOM__'
p2393
I01
sS'First__ALL__'
p2394
I01
sS'to__BOTTOM__'
p2395
I01
sS'Get__ALL__'
p2396
I01
sS'Get__BOTTOM__'
p2397
I01
sS'use__ALL__'
p2398
I01
sS'it__BOTTOM__'
p2399
I01
sS'Comic__TOP__'
p2400
I01
sS'it__ALL__'
p2401
I01
sS'to__ALL__'
p2402
I01
sS'First__TOP__'
p2403
I01
sa(dp2404
S'to__BOTTOM__'
p2405
I01
sS'downvot__BOTTOM__'
p2406
I01
sS'link__TOP__'
p2407
I01
sS'work__BOTTOM__'
p2408
I01
sS'my__BOTTOM__'
p2409
I01
sS'fine__BOTTOM__'
p2410
I01
sS'?__TOP__'
p2411
I01
sS'seem__BOTTOM__'
p2412
I01
sS'downvot__ALL__'
p2413
I01
sS'seem__ALL__'
p2414
I01
sS'be__ALL__'
p2415
I01
sS'be__BOTTOM__'
p2416
I01
sS'Broken__TOP__'
p2417
I01
sS'to__ALL__'
p2418
I01
sS'fine__ALL__'
p2419
I01
sS'?__ALL__'
p2420
I01
sS'just__BOTTOM__'
p2421
I01
sS'just__ALL__'
p2422
I01
sS'my__ALL__'
p2423
I01
sS'work__ALL__'
p2424
I01
sS'Broken__ALL__'
p2425
I01
sS'link__ALL__'
p2426
I01
sa(dp2427
S"'ve__TOP__"
p2428
I01
sS'new__ALL__'
p2429
I01
sS'strict__BOTTOM__'
p2430
I01
sS'a__TOP__'
p2431
I01
sS"'ve__ALL__"
p2432
I01
sS"'ve__BOTTOM__"
p2433
I01
sS'pet__TOP__'
p2434
I01
sS'downvot__BOTTOM__'
p2435
I01
sS'polici__BOTTOM__'
p2436
I01
sS'a__ALL__'
p2437
I01
sS'polici__ALL__'
p2438
I01
sS'?__TOP__'
p2439
I01
sS'adopt__TOP__'
p2440
I01
sS'adopt__BOTTOM__'
p2441
I01
sS'adopt__ALL__'
p2442
I01
sS'downvot__ALL__'
p2443
I01
sS'I__BOTTOM__'
p2444
I01
sS'You__ALL__'
p2445
I01
sS'?__ALL__'
p2446
I01
sS'a__BOTTOM__'
p2447
I01
sS'I__ALL__'
p2448
I01
sS'You__TOP__'
p2449
I01
sS'strict__ALL__'
p2450
I01
sS'pet__ALL__'
p2451
I01
sS'new__TOP__'
p2452
I01
sa(dp2453
S'Wish__ALL__'
p2454
I01
sS'``__ALL__'
p2455
I01
sS'page__TOP__'
p2456
I01
sS'comment__TOP__'
p2457
I01
sS'the__TOP__'
p2458
I01
sS'say__BOTTOM__'
p2459
I01
sS'``__TOP__'
p2460
I01
sS'say__ALL__'
p2461
I01
sS'for__BOTTOM__'
p2462
I01
sS'on__ALL__'
p2463
I01
sS'Wish__BOTTOM__'
p2464
I01
sS'same__BOTTOM__'
p2465
I01
sS'you__ALL__'
p2466
I01
sS'you__BOTTOM__'
p2467
I01
sS'for__ALL__'
p2468
I01
sS'on__TOP__'
p2469
I01
sS'I__BOTTOM__'
p2470
I01
sS'you__TOP__'
p2471
I01
sS'See__TOP__'
p2472
I01
sS'same__ALL__'
p2473
I01
sS'page__ALL__'
p2474
I01
sS'front__TOP__'
p2475
I01
sS'See__ALL__'
p2476
I01
sS'could__BOTTOM__'
p2477
I01
sS'comment__ALL__'
p2478
I01
sS'could__ALL__'
p2479
I01
sS'front__ALL__'
p2480
I01
sS'the__ALL__'
p2481
I01
sS'the__BOTTOM__'
p2482
I01
sS'I__ALL__'
p2483
I01
sa(dp2484
S'.__BOTTOM__'
p2485
I01
sS'Whi__ALL__'
p2486
I01
sS'.__ALL__'
p2487
I01
sS'to__BOTTOM__'
p2488
I01
sS'Is__ALL__'
p2489
I01
sS'Front__ALL__'
p2490
I01
sS'Is__TOP__'
p2491
I01
sS'Thi__BOTTOM__'
p2492
I01
sS'downvot__BOTTOM__'
p2493
I01
sS'The__ALL__'
p2494
I01
sS'Page__ALL__'
p2495
I01
sS'have__ALL__'
p2496
I01
sS'The__TOP__'
p2497
I01
sS"n't__ALL__"
p2498
I01
sS'Thi__TOP__'
p2499
I01
sS"n't__TOP__"
p2500
I01
sS'?__TOP__'
p2501
I01
sS'Page__TOP__'
p2502
I01
sS'it__BOTTOM__'
p2503
I01
sS'have__BOTTOM__'
p2504
I01
sS'might__BOTTOM__'
p2505
I01
sS'might__ALL__'
p2506
I01
sS'someth__ALL__'
p2507
I01
sS'downvot__ALL__'
p2508
I01
sS'Thi__ALL__'
p2509
I01
sS'someth__BOTTOM__'
p2510
I01
sS'On__ALL__'
p2511
I01
sS'it__ALL__'
p2512
I01
sS'do__BOTTOM__'
p2513
I01
sS'On__TOP__'
p2514
I01
sS'to__ALL__'
p2515
I01
sS'?__ALL__'
p2516
I01
sS'do__ALL__'
p2517
I01
sS'with__ALL__'
p2518
I01
sS'with__BOTTOM__'
p2519
I01
sS'Whi__TOP__'
p2520
I01
sS'Front__TOP__'
p2521
I01
sa(dp2522
S"'s__TOP__"
p2523
I01
sS'syndrom__TOP__'
p2524
I01
sS'?__ALL__'
p2525
I01
sS'down__ALL__'
p2526
I01
sS"'s__ALL__"
p2527
I01
sS'syndrom__ALL__'
p2528
I01
sS'rais__ALL__'
p2529
I01
sS"'s__BOTTOM__"
p2530
I01
sS'?__TOP__'
p2531
I01
sS'vote__BOTTOM__'
p2532
I01
sS'awar__TOP__'
p2533
I01
sS'down__BOTTOM__'
p2534
I01
sS'of__ALL__'
p2535
I01
sS'down__TOP__'
p2536
I01
sS'rais__TOP__'
p2537
I01
sS'awar__ALL__'
p2538
I01
sS'vote__ALL__'
p2539
I01
sS'of__TOP__'
p2540
I01
sa(dp2541
S'?__TOP__'
p2542
I01
sS'?__ALL__'
p2543
I01
sS'As__BOTTOM__'
p2544
I01
sS'on__ALL__'
p2545
I01
sS'As__ALL__'
p2546
I01
sS'Downvot__ALL__'
p2547
I01
sS'Downvot__TOP__'
p2548
I01
sS'on__TOP__'
p2549
I01
sS'the__TOP__'
p2550
I01
sS'Bring__ALL__'
p2551
I01
sS'wish__BOTTOM__'
p2552
I01
sS'you__ALL__'
p2553
I01
sS'the__ALL__'
p2554
I01
sS'you__BOTTOM__'
p2555
I01
sS'Bring__TOP__'
p2556
I01
sS'wish__ALL__'
p2557
I01
sa(dp2558
S'agre__BOTTOM__'
p2559
I01
sS"n't__ALL__"
p2560
I01
sS'doe__TOP__'
p2561
I01
sS'mean__TOP__'
p2562
I01
sS'anyth__ALL__'
p2563
I01
sS'Karma__TOP__'
p2564
I01
sS'!__TOP__'
p2565
I01
sS'mean__ALL__'
p2566
I01
sS'!__ALL__'
p2567
I01
sS"n't__TOP__"
p2568
I01
sS'I__BOTTOM__'
p2569
I01
sS'anyth__TOP__'
p2570
I01
sS'I__ALL__'
p2571
I01
sS'agre__ALL__'
p2572
I01
sS'doe__ALL__'
p2573
I01
sS'Karma__ALL__'
p2574
I01
sa(dp2575
S'.__BOTTOM__'
p2576
I01
sS'comic__ALL__'
p2577
I01
sS'.__ALL__'
p2578
I01
sS'?__ALL__'
p2579
I01
sS'iron__ALL__'
p2580
I01
sS'Downvot__ALL__'
p2581
I01
sS'Downvot__TOP__'
p2582
I01
sS'?__TOP__'
p2583
I01
sS'comic__TOP__'
p2584
I01
sS'roman__ALL__'
p2585
I01
sS'iron__BOTTOM__'
p2586
I01
sS'How__BOTTOM__'
p2587
I01
sS'roman__TOP__'
p2588
I01
sS'How__ALL__'
p2589
I01
sa(dp2590
S'whore__TOP__'
p2591
I01
sS'reddit__ALL__'
p2592
I01
sS'Karma__TOP__'
p2593
I01
sS'Downvot__ALL__'
p2594
I01
sS'whore__ALL__'
p2595
I01
sS'Downvot__TOP__'
p2596
I01
sS'birthday__ALL__'
p2597
I01
sS'birthday__BOTTOM__'
p2598
I01
sS'on__ALL__'
p2599
I01
sS'for__TOP__'
p2600
I01
sS'reddit__BOTTOM__'
p2601
I01
sS'on__BOTTOM__'
p2602
I01
sS'your__ALL__'
p2603
I01
sS'your__BOTTOM__'
p2604
I01
sS'for__ALL__'
p2605
I01
sS'Karma__ALL__'
p2606
I01
sa(dp2607
S'go__BOTTOM__'
p2608
I01
sS'thi__TOP__'
p2609
I01
sS'repli__TOP__'
p2610
I01
sS'go__ALL__'
p2611
I01
sS':__ALL__'
p2612
I01
sS'``__ALL__'
p2613
I01
sS'repli__ALL__'
p2614
I01
sS'comment__ALL__'
p2615
I01
sS'thi__ALL__'
p2616
I01
sS'comment__TOP__'
p2617
I01
sS'down__ALL__'
p2618
I01
sS'you__ALL__'
p2619
I01
sS'you__BOTTOM__'
p2620
I01
sS'down__BOTTOM__'
p2621
I01
sS'``__TOP__'
p2622
I01
sS':__TOP__'
p2623
I01
sa(dp2624
S'hope__ALL__'
p2625
I01
sS'a__TOP__'
p2626
I01
sS'redditor__ALL__'
p2627
I01
sS'bad__ALL__'
p2628
I01
sS'and__ALL__'
p2629
I01
sS'see__TOP__'
p2630
I01
sS'thi__TOP__'
p2631
I01
sS'and__TOP__'
p2632
I01
sS'see__ALL__'
p2633
I01
sS'a__ALL__'
p2634
I01
sS'redditor__TOP__'
p2635
I01
sS'thi__ALL__'
p2636
I01
sS'?__TOP__'
p2637
I01
sS'they__TOP__'
p2638
I01
sS'met__TOP__'
p2639
I01
sS'too__ALL__'
p2640
I01
sS'You__ALL__'
p2641
I01
sS'they__ALL__'
p2642
I01
sS'met__ALL__'
p2643
I01
sS'?__ALL__'
p2644
I01
sS'too__BOTTOM__'
p2645
I01
sS'You__TOP__'
p2646
I01
sS'bad__BOTTOM__'
p2647
I01
sS'hope__TOP__'
p2648
I01
sa(dp2649
S'post__TOP__'
p2650
I01
sS'titl__TOP__'
p2651
I01
sS'in__ALL__'
p2652
I01
sS'post__ALL__'
p2653
I01
sS'happen__TOP__'
p2654
I01
sS'downvot__BOTTOM__'
p2655
I01
sS'happen__ALL__'
p2656
I01
sS'true__ALL__'
p2657
I01
sS'or__ALL__'
p2658
I01
sS'true__TOP__'
p2659
I01
sS',__TOP__'
p2660
I01
sS'downvot__ALL__'
p2661
I01
sS'Instant__BOTTOM__'
p2662
I01
sS',__ALL__'
p2663
I01
sS'Instant__ALL__'
p2664
I01
sS'First__TOP__'
p2665
I01
sS'stori__TOP__'
p2666
I01
sS'titl__ALL__'
p2667
I01
sS'First__ALL__'
p2668
I01
sS'in__TOP__'
p2669
I01
sS'just__ALL__'
p2670
I01
sS'or__TOP__'
p2671
I01
sS'stori__ALL__'
p2672
I01
sS'just__TOP__'
p2673
I01
sa(dp2674
S'miss__ALL__'
p2675
I01
sS'miss__TOP__'
p2676
I01
sS'an__ALL__'
p2677
I01
sS'downvot__ALL__'
p2678
I01
sS'Instant__BOTTOM__'
p2679
I01
sS'an__TOP__'
p2680
I01
sS'apostroph__ALL__'
p2681
I01
sS'Instant__ALL__'
p2682
I01
sS'downvot__BOTTOM__'
p2683
I01
sS'apostroph__TOP__'
p2684
I01
sa(dp2685
S'.__BOTTOM__'
p2686
I01
sS'Whi__ALL__'
p2687
I01
sS'I__TOP__'
p2688
I01
sS'.__ALL__'
p2689
I01
sS'thi__TOP__'
p2690
I01
sS'Whi__BOTTOM__'
p2691
I01
sS'will__ALL__'
p2692
I01
sS'ye__BOTTOM__'
p2693
I01
sS'thi__ALL__'
p2694
I01
sS'know__ALL__'
p2695
I01
sS'you__ALL__'
p2696
I01
sS'you__BOTTOM__'
p2697
I01
sS'will__BOTTOM__'
p2698
I01
sS'for__ALL__'
p2699
I01
sS'get__ALL__'
p2700
I01
sS'downvot__ALL__'
p2701
I01
sS',__ALL__'
p2702
I01
sS"'ll__ALL__"
p2703
I01
sS'for__TOP__'
p2704
I01
sS',__BOTTOM__'
p2705
I01
sS'know__TOP__'
p2706
I01
sS'ye__ALL__'
p2707
I01
sS"'ll__TOP__"
p2708
I01
sS'get__TOP__'
p2709
I01
sS'downvot__TOP__'
p2710
I01
sS'I__ALL__'
p2711
I01
sa(dp2712
S'out__BOTTOM__'
p2713
I01
sS'i__TOP__'
p2714
I01
sS'minitre__ALL__'
p2715
I01
sS'hate__TOP__'
p2716
I01
sS'minitre__TOP__'
p2717
I01
sS'get__BOTTOM__'
p2718
I01
sS'i__ALL__'
p2719
I01
sS'!__BOTTOM__'
p2720
I01
sS'hate__ALL__'
p2721
I01
sS'get__ALL__'
p2722
I01
sS'you__TOP__'
p2723
I01
sS'!__ALL__'
p2724
I01
sS'you__ALL__'
p2725
I01
sS'out__ALL__'
p2726
I01
sa(dp2727
S'out__BOTTOM__'
p2728
I01
sS'i__TOP__'
p2729
I01
sS'minitre__ALL__'
p2730
I01
sS'hate__TOP__'
p2731
I01
sS'minitre__TOP__'
p2732
I01
sS'get__BOTTOM__'
p2733
I01
sS'i__ALL__'
p2734
I01
sS'!__BOTTOM__'
p2735
I01
sS'hate__ALL__'
p2736
I01
sS'get__ALL__'
p2737
I01
sS'you__TOP__'
p2738
I01
sS'!__ALL__'
p2739
I01
sS'you__ALL__'
p2740
I01
sS'out__ALL__'
p2741
I01
sa(dp2742
S'hilari__TOP__'
p2743
I01
sS"'s__TOP__"
p2744
I01
sS'screw__ALL__'
p2745
I01
sS'screw__BOTTOM__'
p2746
I01
sS'hilari__ALL__'
p2747
I01
sS'that__ALL__'
p2748
I01
sS'you__ALL__'
p2749
I01
sS'you__BOTTOM__'
p2750
I01
sS"'s__ALL__"
p2751
I01
sS'that__TOP__'
p2752
I01
sa(dp2753
S'ill__TOP__'
p2754
I01
sS'self__ALL__'
p2755
I01
sS'masjid__TOP__'
p2756
I01
sS'own__ALL__'
p2757
I01
sS'clean__ALL__'
p2758
I01
sS'self__BOTTOM__'
p2759
I01
sS'damn__BOTTOM__'
p2760
I01
sS'clean__TOP__'
p2761
I01
sS'!__BOTTOM__'
p2762
I01
sS'!__ALL__'
p2763
I01
sS'the__TOP__'
p2764
I01
sS'ill__ALL__'
p2765
I01
sS'my__ALL__'
p2766
I01
sS'own__BOTTOM__'
p2767
I01
sS'my__BOTTOM__'
p2768
I01
sS'the__ALL__'
p2769
I01
sS'masjid__ALL__'
p2770
I01
sS'damn__ALL__'
p2771
I01
sa(dp2772
S'imag__ALL__'
p2773
I01
sS'a__ALL__'
p2774
I01
sS'?__ALL__'
p2775
I01
sS'not__TOP__'
p2776
I01
sS'memedad__TOP__'
p2777
I01
sS'quickmem__TOP__'
p2778
I01
sS'not__ALL__'
p2779
I01
sS'a__BOTTOM__'
p2780
I01
sS'?__TOP__'
p2781
I01
sS'or__TOP__'
p2782
I01
sS'memedad__ALL__'
p2783
I01
sS'downvot__ALL__'
p2784
I01
sS'downvot__BOTTOM__'
p2785
I01
sS'imag__TOP__'
p2786
I01
sS'have__BOTTOM__'
p2787
I01
sS'quickmem__ALL__'
p2788
I01
sS'have__ALL__'
p2789
I01
sS'from__ALL__'
p2790
I01
sS'from__TOP__'
p2791
I01
sS'or__ALL__'
p2792
I01
sa(dp2793
S"n't__ALL__"
p2794
I01
sS'have__TOP__'
p2795
I01
sS'either__ALL__'
p2796
I01
sS'upvot__ALL__'
p2797
I01
sS'either__TOP__'
p2798
I01
sS'my__TOP__'
p2799
I01
sS"n't__TOP__"
p2800
I01
sS'You__TOP__'
p2801
I01
sS'my__ALL__'
p2802
I01
sS'seen__ALL__'
p2803
I01
sS'You__ALL__'
p2804
I01
sS'have__ALL__'
p2805
I01
sS'seen__TOP__'
p2806
I01
sS'upvot__TOP__'
p2807
I01
sa(dp2808
S'.__BOTTOM__'
p2809
I01
sS'.__ALL__'
p2810
I01
sS"''__TOP__"
p2811
I01
sS'fix__ALL__'
p2812
I01
sS'a__TOP__'
p2813
I01
sS'post__ALL__'
p2814
I01
sS'my__BOTTOM__'
p2815
I01
sS'broke__ALL__'
p2816
I01
sS'``__TOP__'
p2817
I01
sS"''__ALL__"
p2818
I01
sS'fix__TOP__'
p2819
I01
sS'a__ALL__'
p2820
I01
sS'broke__BOTTOM__'
p2821
I01
sS'?__TOP__'
p2822
I01
sS'post__TOP__'
p2823
I01
sS'upvot__BOTTOM__'
p2824
I01
sS'upvot__ALL__'
p2825
I01
sS'I__BOTTOM__'
p2826
I01
sS'You__ALL__'
p2827
I01
sS'?__ALL__'
p2828
I01
sS'``__ALL__'
p2829
I01
sS'I__ALL__'
p2830
I01
sS'You__TOP__'
p2831
I01
sS'my__ALL__'
p2832
I01
sa(dp2833
S'.__BOTTOM__'
p2834
I01
sS'It__TOP__'
p2835
I01
sS'.__ALL__'
p2836
I01
sS'vex__ALL__'
p2837
I01
sS"'m__ALL__"
p2838
I01
sS'terribl__BOTTOM__'
p2839
I01
sS'I__ALL__'
p2840
I01
sS'vex__TOP__'
p2841
I01
sS"'m__BOTTOM__"
p2842
I01
sS'me__ALL__'
p2843
I01
sS'I__BOTTOM__'
p2844
I01
sS'It__ALL__'
p2845
I01
sS'me__TOP__'
p2846
I01
sS'terribl__ALL__'
p2847
I01
sS'.__TOP__'
p2848
I01
sS'vex__BOTTOM__'
p2849
I01
sa(dp2850
S'.__BOTTOM__'
p2851
I01
sS'.__ALL__'
p2852
I01
sS'to__BOTTOM__'
p2853
I01
sS'forgot__BOTTOM__'
p2854
I01
sS'forgot__TOP__'
p2855
I01
sS'?__TOP__'
p2856
I01
sS'grammar__ALL__'
p2857
I01
sS'grammar__TOP__'
p2858
I01
sS'upvot__BOTTOM__'
p2859
I01
sS'upvot__ALL__'
p2860
I01
sS'use__TOP__'
p2861
I01
sS'proper__TOP__'
p2862
I01
sS'I__BOTTOM__'
p2863
I01
sS'proper__ALL__'
p2864
I01
sS'You__ALL__'
p2865
I01
sS'how__BOTTOM__'
p2866
I01
sS'use__ALL__'
p2867
I01
sS'to__ALL__'
p2868
I01
sS'?__ALL__'
p2869
I01
sS'how__TOP__'
p2870
I01
sS'I__ALL__'
p2871
I01
sS'to__TOP__'
p2872
I01
sS'You__TOP__'
p2873
I01
sS'forgot__ALL__'
p2874
I01
sS'how__ALL__'
p2875
I01
sa(dp2876
S'livemem__TOP__'
p2877
I01
sS'neither__BOTTOM__'
p2878
I01
sS"n't__ALL__"
p2879
I01
sS'upvot__BOTTOM__'
p2880
I01
sS'load__ALL__'
p2881
I01
sS'upvot__ALL__'
p2882
I01
sS'livemem__ALL__'
p2883
I01
sS'load__TOP__'
p2884
I01
sS'?__ALL__'
p2885
I01
sS"n't__TOP__"
p2886
I01
sS'neither__ALL__'
p2887
I01
sS'?__TOP__'
p2888
I01
sS'Your__TOP__'
p2889
I01
sS'my__ALL__'
p2890
I01
sS'link__TOP__'
p2891
I01
sS'did__TOP__'
p2892
I01
sS'my__BOTTOM__'
p2893
I01
sS'Your__ALL__'
p2894
I01
sS'link__ALL__'
p2895
I01
sS'did__ALL__'
p2896
I01
sS'did__BOTTOM__'
p2897
I01
sa(dp2898
S"n't__ALL__"
p2899
I01
sS'upvot__BOTTOM__'
p2900
I01
sS'either__ALL__'
p2901
I01
sS"n't__BOTTOM__"
p2902
I01
sS'upvot__ALL__'
p2903
I01
sS'my__ALL__'
p2904
I01
sS'seen__ALL__'
p2905
I01
sS'my__BOTTOM__'
p2906
I01
sS'You__ALL__'
p2907
I01
sS'You__BOTTOM__'
p2908
I01
sS'either__BOTTOM__'
p2909
I01
sS'have__ALL__'
p2910
I01
sS'have__BOTTOM__'
p2911
I01
sS'seen__BOTTOM__'
p2912
I01
sa(dp2913
S'exceed__ALL__'
p2914
I01
sS'Bandwidth__ALL__'
p2915
I01
sS'Upvot__BOTTOM__'
p2916
I01
sS'Upvot__ALL__'
p2917
I01
sS'exceed__TOP__'
p2918
I01
sS'?__TOP__'
p2919
I01
sS'exceed__BOTTOM__'
p2920
I01
sS'?__ALL__'
p2921
I01
sS'Bandwidth__TOP__'
p2922
I01
sa(dp2923
S'which__BOTTOM__'
p2924
I01
sS'to__BOTTOM__'
p2925
I01
sS'wa__BOTTOM__'
p2926
I01
sS'what__ALL__'
p2927
I01
sS'were__TOP__'
p2928
I01
sS"n't__ALL__"
p2929
I01
sS'were__ALL__'
p2930
I01
sS'arrow__ALL__'
p2931
I01
sS'sure__BOTTOM__'
p2932
I01
sS"n't__TOP__"
p2933
I01
sS'sure__ALL__'
p2934
I01
sS'?__TOP__'
p2935
I01
sS'what__TOP__'
p2936
I01
sS'wa__ALL__'
p2937
I01
sS'arrow__BOTTOM__'
p2938
I01
sS'meme__ALL__'
p2939
I01
sS"n't__BOTTOM__"
p2940
I01
sS'use__TOP__'
p2941
I01
sS'sure__TOP__'
p2942
I01
sS'I__BOTTOM__'
p2943
I01
sS'You__ALL__'
p2944
I01
sS'which__ALL__'
p2945
I01
sS'use__ALL__'
p2946
I01
sS'to__ALL__'
p2947
I01
sS'?__ALL__'
p2948
I01
sS'meme__TOP__'
p2949
I01
sS'to__TOP__'
p2950
I01
sS'You__TOP__'
p2951
I01
sS'press__ALL__'
p2952
I01
sS'I__ALL__'
p2953
I01
sS'press__BOTTOM__'
p2954
I01
sa(dp2955
S'I__TOP__'
p2956
I01
sS"''__TOP__"
p2957
I01
sS'``__ALL__'
p2958
I01
sS'the__TOP__'
p2959
I01
sS'onli__ALL__'
p2960
I01
sS'``__TOP__'
p2961
I01
sS"''__ALL__"
p2962
I01
sS'ye__BOTTOM__'
p2963
I01
sS'?__TOP__'
p2964
I01
sS'here__ALL__'
p2965
I01
sS'Am__TOP__'
p2966
I01
sS'onli__TOP__'
p2967
I01
sS'Am__ALL__'
p2968
I01
sS'around__ALL__'
p2969
I01
sS'around__TOP__'
p2970
I01
sS'ye__ALL__'
p2971
I01
sS'one__TOP__'
p2972
I01
sS'?__ALL__'
p2973
I01
sS'I__ALL__'
p2974
I01
sS'here__TOP__'
p2975
I01
sS'one__ALL__'
p2976
I01
sS'the__ALL__'
p2977
I01
sa(dp2978
S'Poor__TOP__'
p2979
I01
sS'lol__BOTTOM__'
p2980
I01
sS'in__ALL__'
p2981
I01
sS'and__ALL__'
p2982
I01
sS'ur__ALL__'
p2983
I01
sS'and__TOP__'
p2984
I01
sS'lol__ALL__'
p2985
I01
sS'her__BOTTOM__'
p2986
I01
sS'?__TOP__'
p2987
I01
sS'downvowt__BOTTOM__'
p2988
I01
sS'grammar__ALL__'
p2989
I01
sS'grammar__TOP__'
p2990
I01
sS'her__ALL__'
p2991
I01
sS'meme__ALL__'
p2992
I01
sS'ur__BOTTOM__'
p2993
I01
sS'your__ALL__'
p2994
I01
sS'is__BOTTOM__'
p2995
I01
sS'spell__TOP__'
p2996
I01
sS'?__ALL__'
p2997
I01
sS'downvowt__ALL__'
p2998
I01
sS'Poor__ALL__'
p2999
I01
sS'in__TOP__'
p3000
I01
sS'meme__TOP__'
p3001
I01
sS'spell__ALL__'
p3002
I01
sS'is__ALL__'
p3003
I01
sS'your__TOP__'
p3004
I01
sa(dp3005
S'.__BOTTOM__'
p3006
I01
sS'.__ALL__'
p3007
I01
sS'confess__TOP__'
p3008
I01
sS'not__ALL__'
p3009
I01
sS'my__BOTTOM__'
p3010
I01
sS'Apolog__TOP__'
p3011
I01
sS'Apolog__ALL__'
p3012
I01
sS'downvot__BOTTOM__'
p3013
I01
sS'confess__ALL__'
p3014
I01
sS"'m__ALL__"
p3015
I01
sS'for__BOTTOM__'
p3016
I01
sS'?__TOP__'
p3017
I01
sS'for__ALL__'
p3018
I01
sS'apolog__BOTTOM__'
p3019
I01
sS'downvot__ALL__'
p3020
I01
sS'I__BOTTOM__'
p3021
I01
sS'for__TOP__'
p3022
I01
sS'your__ALL__'
p3023
I01
sS'?__ALL__'
p3024
I01
sS'I__ALL__'
p3025
I01
sS"'m__BOTTOM__"
p3026
I01
sS'not__BOTTOM__'
p3027
I01
sS'your__TOP__'
p3028
I01
sS'my__ALL__'
p3029
I01
sS'apolog__ALL__'
p3030
I01
sa(dp3031
S'Annual__ALL__'
p3032
I01
sS'Battl__TOP__'
p3033
I01
sS'Royal__TOP__'
p3034
I01
sS'get__ALL__'
p3035
I01
sS'get__BOTTOM__'
p3036
I01
sS'Annual__TOP__'
p3037
I01
sS'Homeless__TOP__'
p3038
I01
sS'Battl__ALL__'
p3039
I01
sS'one__ALL__'
p3040
I01
sS'one__BOTTOM__'
p3041
I01
sS'the__ALL__'
p3042
I01
sS'Homeless__ALL__'
p3043
I01
sS'Royal__ALL__'
p3044
I01
sS'donut__ALL__'
p3045
I01
sS'onli__ALL__'
p3046
I01
sS'the__BOTTOM__'
p3047
I01
sS'donut__BOTTOM__'
p3048
I01
sS'onli__BOTTOM__'
p3049
I01
sa(dp3050
S'it__TOP__'
p3051
I01
sS'there__BOTTOM__'
p3052
I01
sS'there__ALL__'
p3053
I01
sS'left__ALL__'
p3054
I01
sS'left__BOTTOM__'
p3055
I01
sS'?__ALL__'
p3056
I01
sS'Should__ALL__'
p3057
I01
sS'?__TOP__'
p3058
I01
sS'on__ALL__'
p3059
I01
sS'it__BOTTOM__'
p3060
I01
sS'Should__BOTTOM__'
p3061
I01
sS'Found__TOP__'
p3062
I01
sS'Facebook__TOP__'
p3063
I01
sS'Found__ALL__'
p3064
I01
sS'have__BOTTOM__'
p3065
I01
sS'Facebook__ALL__'
p3066
I01
sS'have__ALL__'
p3067
I01
sS'on__TOP__'
p3068
I01
sS'it__ALL__'
p3069
I01
sa(dp3070
S'Pollic__ALL__'
p3071
I01
sS'Colleg__TOP__'
p3072
I01
sS'verso__ALL__'
p3073
I01
sS'advic__ALL__'
p3074
I01
sS'advic__TOP__'
p3075
I01
sS'Colleg__ALL__'
p3076
I01
sS'Pollic__BOTTOM__'
p3077
I01
sS'verso__BOTTOM__'
p3078
I01
sa(dp3079
S'.__BOTTOM__'
p3080
I01
sS'.__ALL__'
p3081
I01
sS'like__TOP__'
p3082
I01
sS'Bear__TOP__'
p3083
I01
sS'downvot__BOTTOM__'
p3084
I01
sS'admit__TOP__'
p3085
I01
sS"'m__ALL__"
p3086
I01
sS'like__ALL__'
p3087
I01
sS'Confess__TOP__'
p3088
I01
sS'?__TOP__'
p3089
I01
sS'you__ALL__'
p3090
I01
sS'you__BOTTOM__'
p3091
I01
sS'Confess__ALL__'
p3092
I01
sS'downvot__ALL__'
p3093
I01
sS'I__BOTTOM__'
p3094
I01
sS'you__TOP__'
p3095
I01
sS'admit__ALL__'
p3096
I01
sS'Bear__ALL__'
p3097
I01
sS'You__ALL__'
p3098
I01
sS'admit__BOTTOM__'
p3099
I01
sS"'re__ALL__"
p3100
I01
sS'?__ALL__'
p3101
I01
sS'I__ALL__'
p3102
I01
sS"'m__BOTTOM__"
p3103
I01
sS"'re__TOP__"
p3104
I01
sS'You__TOP__'
p3105
I01
sa(dp3106
S'all__ALL__'
p3107
I01
sS'all__BOTTOM__'
p3108
I01
sS'garbag__BOTTOM__'
p3109
I01
sS'the__TOP__'
p3110
I01
sS'roostar__TOP__'
p3111
I01
sS'roostar__ALL__'
p3112
I01
sS'mc__ALL__'
p3113
I01
sS'garbag__ALL__'
p3114
I01
sS'mc__BOTTOM__'
p3115
I01
sS'compar__ALL__'
p3116
I01
sS'compar__TOP__'
p3117
I01
sS'of__ALL__'
p3118
I01
sS'of__BOTTOM__'
p3119
I01
sS'are__BOTTOM__'
p3120
I01
sS'other__ALL__'
p3121
I01
sS'these__BOTTOM__'
p3122
I01
sS'to__ALL__'
p3123
I01
sS'these__ALL__'
p3124
I01
sS'are__ALL__'
p3125
I01
sS'other__BOTTOM__'
p3126
I01
sS'to__TOP__'
p3127
I01
sS'the__ALL__'
p3128
I01
sS"'s__ALL__"
p3129
I01
sS"'s__BOTTOM__"
p3130
I01
sa(dp3131
S'think__TOP__'
p3132
I01
sS'I__TOP__'
p3133
I01
sS'think__ALL__'
p3134
I01
sS"''__TOP__"
p3135
I01
sS'``__ALL__'
p3136
I01
sS'a__TOP__'
p3137
I01
sS'titl__TOP__'
p3138
I01
sS'think__BOTTOM__'
p3139
I01
sS'could__BOTTOM__'
p3140
I01
sS'upvot__BOTTOM__'
p3141
I01
sS'clever__ALL__'
p3142
I01
sS'``__TOP__'
p3143
I01
sS"''__ALL__"
p3144
I01
sS"n't__ALL__"
p3145
I01
sS'titl__ALL__'
p3146
I01
sS'an__ALL__'
p3147
I01
sS"n't__TOP__"
p3148
I01
sS'clever__TOP__'
p3149
I01
sS'upvot__ALL__'
p3150
I01
sS'of__ALL__'
p3151
I01
sS'of__BOTTOM__'
p3152
I01
sS'could__TOP__'
p3153
I01
sS"n't__BOTTOM__"
p3154
I01
sS'a__ALL__'
p3155
I01
sS'I__BOTTOM__'
p3156
I01
sS'of__TOP__'
p3157
I01
sS'I__ALL__'
p3158
I01
sS'an__BOTTOM__'
p3159
I01
sS'could__ALL__'
p3160
I01
sa(dp3161
S'rant__TOP__'
p3162
I01
sS'zimmerman__ALL__'
p3163
I01
sS'rant__ALL__'
p3164
I01
sS'on__ALL__'
p3165
I01
sS'goe__TOP__'
p3166
I01
sS'goe__ALL__'
p3167
I01
sS'on__TOP__'
p3168
I01
sS'zimmerman__TOP__'
p3169
I01
sa(dp3170
S"n't__ALL__"
p3171
I01
sS'have__TOP__'
p3172
I01
sS'titl__ALL__'
p3173
I01
sS"n't__BOTTOM__"
p3174
I01
sS'upvot__BOTTOM__'
p3175
I01
sS'?__ALL__'
p3176
I01
sS'a__TOP__'
p3177
I01
sS'an__ALL__'
p3178
I01
sS'an__BOTTOM__'
p3179
I01
sS'titl__TOP__'
p3180
I01
sS"n't__TOP__"
p3181
I01
sS'?__TOP__'
p3182
I01
sS'Do__ALL__'
p3183
I01
sS'a__ALL__'
p3184
I01
sS'Do__BOTTOM__'
p3185
I01
sS'have__BOTTOM__'
p3186
I01
sS'have__ALL__'
p3187
I01
sS'Do__TOP__'
p3188
I01
sS'upvot__ALL__'
p3189
I01
sa(dp3190
S'Cyru__ALL__'
p3191
I01
sS"''__TOP__"
p3192
I01
sS'``__ALL__'
p3193
I01
sS'Cyru__TOP__'
p3194
I01
sS'your__ALL__'
p3195
I01
sS'your__BOTTOM__'
p3196
I01
sS'Let__BOTTOM__'
p3197
I01
sS'``__TOP__'
p3198
I01
sS"''__ALL__"
p3199
I01
sS'watch__TOP__'
p3200
I01
sS'?__TOP__'
p3201
I01
sS'same__BOTTOM__'
p3202
I01
sS'karma__BOTTOM__'
p3203
I01
sS'get__ALL__'
p3204
I01
sS'watch__BOTTOM__'
p3205
I01
sS'do__ALL__'
p3206
I01
sS'same__ALL__'
p3207
I01
sS'Miley__TOP__'
p3208
I01
sS'do__BOTTOM__'
p3209
I01
sS'You__ALL__'
p3210
I01
sS'Miley__ALL__'
p3211
I01
sS'down__TOP__'
p3212
I01
sS'karma__ALL__'
p3213
I01
sS'?__ALL__'
p3214
I01
sS'get__TOP__'
p3215
I01
sS'watch__ALL__'
p3216
I01
sS'You__TOP__'
p3217
I01
sS'down__ALL__'
p3218
I01
sS'the__ALL__'
p3219
I01
sS'the__BOTTOM__'
p3220
I01
sS"'s__ALL__"
p3221
I01
sS'Let__ALL__'
p3222
I01
sS"'s__BOTTOM__"
p3223
I01
sa(dp3224
S'avail__TOP__'
p3225
I01
sS'?__ALL__'
p3226
I01
sS'?__BOTTOM__'
p3227
I01
sS'Not__TOP__'
p3228
I01
sS'a__BOTTOM__'
p3229
I01
sS'about__ALL__'
p3230
I01
sS'about__BOTTOM__'
p3231
I01
sS'Not__ALL__'
p3232
I01
sS'a__ALL__'
p3233
I01
sS'How__ALL__'
p3234
I01
sS'?__TOP__'
p3235
I01
sS'downvot__ALL__'
p3236
I01
sS'for__TOP__'
p3237
I01
sS'mobil__TOP__'
p3238
I01
sS'downvot__BOTTOM__'
p3239
I01
sS'How__BOTTOM__'
p3240
I01
sS'for__ALL__'
p3241
I01
sS'avail__ALL__'
p3242
I01
sS'mobil__ALL__'
p3243
I01
sa(dp3244
S'like__ALL__'
p3245
I01
sS'Thi__TOP__'
p3246
I01
sS'or__ALL__'
p3247
I01
sS"''__TOP__"
p3248
I01
sS'``__ALL__'
p3249
I01
sS'like__TOP__'
p3250
I01
sS'LOL__TOP__'
p3251
I01
sS'or__TOP__'
p3252
I01
sS'Nobodi__ALL__'
p3253
I01
sS'either__TOP__'
p3254
I01
sS'Thi__ALL__'
p3255
I01
sS'LOL__ALL__'
p3256
I01
sS'Nobodi__TOP__'
p3257
I01
sS'``__TOP__'
p3258
I01
sS"''__ALL__"
p3259
I01
sS'either__ALL__'
p3260
I01
sa(dp3261
S'non__ALL__'
p3262
I01
sS'Fuck__TOP__'
p3263
I01
sS'a__ALL__'
p3264
I01
sS'it__TOP__'
p3265
I01
sS'non__TOP__'
p3266
I01
sS'Fuck__ALL__'
p3267
I01
sS'a__TOP__'
p3268
I01
sS"'re__TOP__"
p3269
I01
sS'you__TOP__'
p3270
I01
sS'it__ALL__'
p3271
I01
sS'factor__ALL__'
p3272
I01
sS'you__ALL__'
p3273
I01
sS"'re__ALL__"
p3274
I01
sS'factor__TOP__'
p3275
I01
sa(dp3276
S'is__ALL__'
p3277
I01
sS'with__ALL__'
p3278
I01
sS'thi__TOP__'
p3279
I01
sS'how__TOP__'
p3280
I01
sS'with__TOP__'
p3281
I01
sS'deal__ALL__'
p3282
I01
sS'thi__ALL__'
p3283
I01
sS'you__TOP__'
p3284
I01
sS'is__TOP__'
p3285
I01
sS'repost__TOP__'
p3286
I01
sS'you__ALL__'
p3287
I01
sS'deal__TOP__'
p3288
I01
sS'how__ALL__'
p3289
I01
sS'repost__ALL__'
p3290
I01
sa(dp3291
S'nobodi__BOTTOM__'
p3292
I01
sS'Annual__ALL__'
p3293
I01
sS'Battl__TOP__'
p3294
I01
sS'Royal__TOP__'
p3295
I01
sS'get__ALL__'
p3296
I01
sS'get__BOTTOM__'
p3297
I01
sS'Annual__TOP__'
p3298
I01
sS'Homeless__TOP__'
p3299
I01
sS'Battl__ALL__'
p3300
I01
sS'donut__ALL__'
p3301
I01
sS'nobodi__ALL__'
p3302
I01
sS'Homeless__ALL__'
p3303
I01
sS'Royal__ALL__'
p3304
I01
sS'the__ALL__'
p3305
I01
sS'the__BOTTOM__'
p3306
I01
sS'donut__BOTTOM__'
p3307
I01
sa(dp3308
S"''__TOP__"
p3309
I01
sS',__TOP__'
p3310
I01
sS'``__ALL__'
p3311
I01
sS'Karma__TOP__'
p3312
I01
sS'me__ALL__'
p3313
I01
sS'Neg__BOTTOM__'
p3314
I01
sS'give__ALL__'
p3315
I01
sS'``__TOP__'
p3316
I01
sS"''__ALL__"
p3317
I01
sS'give__TOP__'
p3318
I01
sS"'s__TOP__"
p3319
I01
sS'cakeday__ALL__'
p3320
I01
sS'me__TOP__'
p3321
I01
sS'Neg__ALL__'
p3322
I01
sS'It__TOP__'
p3323
I01
sS'karma__BOTTOM__'
p3324
I01
sS',__ALL__'
p3325
I01
sS'karma__ALL__'
p3326
I01
sS'cakeday__TOP__'
p3327
I01
sS'my__TOP__'
p3328
I01
sS'my__ALL__'
p3329
I01
sS'It__ALL__'
p3330
I01
sS"'s__ALL__"
p3331
I01
sS'Karma__ALL__'
p3332
I01
sa(dp3333
S'fix__ALL__'
p3334
I01
sS'have__TOP__'
p3335
I01
sS'post__TOP__'
p3336
I01
sS'me__ALL__'
p3337
I01
sS'post__ALL__'
p3338
I01
sS'have__ALL__'
p3339
I01
sS'Oh__ALL__'
p3340
I01
sS'for__BOTTOM__'
p3341
I01
sS'fix__BOTTOM__'
p3342
I01
sS'?__TOP__'
p3343
I01
sS'on__ALL__'
p3344
I01
sS'Oh__TOP__'
p3345
I01
sS'you__ALL__'
p3346
I01
sS'you__BOTTOM__'
p3347
I01
sS'let__BOTTOM__'
p3348
I01
sS'for__ALL__'
p3349
I01
sS'on__TOP__'
p3350
I01
sS',__TOP__'
p3351
I01
sS'me__BOTTOM__'
p3352
I01
sS',__ALL__'
p3353
I01
sS'you__TOP__'
p3354
I01
sS'that__ALL__'
p3355
I01
sS'that__BOTTOM__'
p3356
I01
sS'your__ALL__'
p3357
I01
sS'karma__ALL__'
p3358
I01
sS'let__ALL__'
p3359
I01
sS'?__ALL__'
p3360
I01
sS'karma__TOP__'
p3361
I01
sS'901__ALL__'
p3362
I01
sS'your__TOP__'
p3363
I01
sS'901__TOP__'
p3364
I01
sa(dp3365
S'to__ALL__'
p3366
I01
sS'go__BOTTOM__'
p3367
I01
sS'go__ALL__'
p3368
I01
sS'to__BOTTOM__'
p3369
I01
sS'back__ALL__'
p3370
I01
sS'back__BOTTOM__'
p3371
I01
sS'ingli__TOP__'
p3372
I01
sS'bowra__ALL__'
p3373
I01
sS'bowra__BOTTOM__'
p3374
I01
sS'ingli__ALL__'
p3375
I01
sS'greg__TOP__'
p3376
I01
sS'greg__ALL__'
p3377
I01
sa(dp3378
S'refer__BOTTOM__'
p3379
I01
sS'refer__ALL__'
p3380
I01
sS'so__ALL__'
p3381
I01
sS'doe__ALL__'
p3382
I01
sS'doe__BOTTOM__'
p3383
I01
sS'are__TOP__'
p3384
I01
sS'&__ALL__'
p3385
I01
sS'have__ALL__'
p3386
I01
sS'then__ALL__'
p3387
I01
sS'if__TOP__'
p3388
I01
sS'statist__TOP__'
p3389
I01
sS'no__BOTTOM__'
p3390
I01
sS'whi__BOTTOM__'
p3391
I01
sS'so__TOP__'
p3392
I01
sS'import__TOP__'
p3393
I01
sS'if__ALL__'
p3394
I01
sS'statist__ALL__'
p3395
I01
sS'no__ALL__'
p3396
I01
sS'bibl__ALL__'
p3397
I01
sS'bibl__BOTTOM__'
p3398
I01
sS'&__TOP__'
p3399
I01
sS'then__BOTTOM__'
p3400
I01
sS'whi__ALL__'
p3401
I01
sS'have__BOTTOM__'
p3402
I01
sS'scienc__ALL__'
p3403
I01
sS'import__ALL__'
p3404
I01
sS'?__ALL__'
p3405
I01
sS'?__BOTTOM__'
p3406
I01
sS'are__ALL__'
p3407
I01
sS'page__ALL__'
p3408
I01
sS'scienc__TOP__'
p3409
I01
sS'the__ALL__'
p3410
I01
sS'the__BOTTOM__'
p3411
I01
sS'page__BOTTOM__'
p3412
I01
sa(dp3413
S'I__TOP__'
p3414
I01
sS'thi__TOP__'
p3415
I01
sS"''__TOP__"
p3416
I01
sS'``__ALL__'
p3417
I01
sS'You__BOTTOM__'
p3418
I01
sS'``__TOP__'
p3419
I01
sS'go__TOP__'
p3420
I01
sS'go__ALL__'
p3421
I01
sS'thi__ALL__'
p3422
I01
sS'know__ALL__'
p3423
I01
sS'buri__ALL__'
p3424
I01
sS"''__ALL__"
p3425
I01
sS'buri__TOP__'
p3426
I01
sS'right__BOTTOM__'
p3427
I01
sS'right__ALL__'
p3428
I01
sS',__TOP__'
p3429
I01
sS"'re__BOTTOM__"
p3430
I01
sS'get__ALL__'
p3431
I01
sS',__ALL__'
p3432
I01
sS'You__ALL__'
p3433
I01
sS'know__TOP__'
p3434
I01
sS"'re__ALL__"
p3435
I01
sS'but__ALL__'
p3436
I01
sS'to__ALL__'
p3437
I01
sS'I__ALL__'
p3438
I01
sS'get__TOP__'
p3439
I01
sS'but__TOP__'
p3440
I01
sS'to__TOP__'
p3441
I01
sS'is__ALL__'
p3442
I01
sS'is__TOP__'
p3443
I01
sa(dp3444
S'NSW__BOTTOM__'
p3445
I01
sS'no__BOTTOM__'
p3446
I01
sS'video__ALL__'
p3447
I01
sS'ref__ALL__'
p3448
I01
sS'tri__ALL__'
p3449
I01
sS',__ALL__'
p3450
I01
sS'say__ALL__'
p3451
I01
sS'ref__TOP__'
p3452
I01
sS',__BOTTOM__'
p3453
I01
sS'tri__BOTTOM__'
p3454
I01
sS'say__TOP__'
p3455
I01
sS'NSW__ALL__'
p3456
I01
sS'video__TOP__'
p3457
I01
sS'no__ALL__'
p3458
I01
sa(dp3459
S'.__BOTTOM__'
p3460
I01
sS'.__ALL__'
p3461
I01
sS'experi__ALL__'
p3462
I01
sS'what__ALL__'
p3463
I01
sS"'m__ALL__"
p3464
I01
sS"'s__TOP__"
p3465
I01
sS'for__BOTTOM__'
p3466
I01
sS'known__ALL__'
p3467
I01
sS'?__TOP__'
p3468
I01
sS'hi__ALL__'
p3469
I01
sS'for__ALL__'
p3470
I01
sS'I__BOTTOM__'
p3471
I01
sS'for__TOP__'
p3472
I01
sS'prison__ALL__'
p3473
I01
sS'known__TOP__'
p3474
I01
sS'hi__TOP__'
p3475
I01
sS'what__BOTTOM__'
p3476
I01
sS'Zimbardo__TOP__'
p3477
I01
sS'?__ALL__'
p3478
I01
sS'prison__TOP__'
p3479
I01
sS'Guess__ALL__'
p3480
I01
sS'Guess__BOTTOM__'
p3481
I01
sS'I__ALL__'
p3482
I01
sS"'m__BOTTOM__"
p3483
I01
sS'Zimbardo__ALL__'
p3484
I01
sS"'s__ALL__"
p3485
I01
sS'experi__TOP__'
p3486
I01
sS'known__BOTTOM__'
p3487
I01
sa(dp3488
S'to__BOTTOM__'
p3489
I01
sS'post__TOP__'
p3490
I01
sS'post__ALL__'
p3491
I01
sS'hell__TOP__'
p3492
I01
sS'Oh__ALL__'
p3493
I01
sS'buck__ALL__'
p3494
I01
sS'hate__BOTTOM__'
p3495
I01
sS'?__TOP__'
p3496
I01
sS"'d__ALL__"
p3497
I01
sS'hell__ALL__'
p3498
I01
sS'Oh__TOP__'
p3499
I01
sS',__TOP__'
p3500
I01
sS'trend__ALL__'
p3501
I01
sS'wa__ALL__'
p3502
I01
sS'downvot__ALL__'
p3503
I01
sS',__ALL__'
p3504
I01
sS'I__BOTTOM__'
p3505
I01
sS"'d__BOTTOM__"
p3506
I01
sS'your__ALL__'
p3507
I01
sS'to__ALL__'
p3508
I01
sS'hate__ALL__'
p3509
I01
sS'?__ALL__'
p3510
I01
sS'buck__BOTTOM__'
p3511
I01
sS'wa__TOP__'
p3512
I01
sS'last__ALL__'
p3513
I01
sS'to__TOP__'
p3514
I01
sS'downvot__TOP__'
p3515
I01
sS'trend__BOTTOM__'
p3516
I01
sS'your__TOP__'
p3517
I01
sS'the__ALL__'
p3518
I01
sS'the__BOTTOM__'
p3519
I01
sS'I__ALL__'
p3520
I01
sS'last__TOP__'
p3521
I01
sa(dp3522
S'Annual__ALL__'
p3523
I01
sS'Battl__TOP__'
p3524
I01
sS'Royal__TOP__'
p3525
I01
sS'get__ALL__'
p3526
I01
sS'get__BOTTOM__'
p3527
I01
sS'Annual__TOP__'
p3528
I01
sS'Homeless__TOP__'
p3529
I01
sS'Battl__ALL__'
p3530
I01
sS'one__ALL__'
p3531
I01
sS'one__BOTTOM__'
p3532
I01
sS'the__ALL__'
p3533
I01
sS'Homeless__ALL__'
p3534
I01
sS'Royal__ALL__'
p3535
I01
sS'donut__ALL__'
p3536
I01
sS'Onli__ALL__'
p3537
I01
sS'the__BOTTOM__'
p3538
I01
sS'donut__BOTTOM__'
p3539
I01
sS'Onli__BOTTOM__'
p3540
I01
sa(dp3541
S'.__BOTTOM__'
p3542
I01
sS'a__ALL__'
p3543
I01
sS'.__ALL__'
p3544
I01
sS'?__ALL__'
p3545
I01
sS'meme__ALL__'
p3546
I01
sS'a__BOTTOM__'
p3547
I01
sS'meme__TOP__'
p3548
I01
sS'?__TOP__'
p3549
I01
sS'slowpok__TOP__'
p3550
I01
sS'downvot__BOTTOM__'
p3551
I01
sS'Have__BOTTOM__'
p3552
I01
sS'Have__ALL__'
p3553
I01
sS'downvot__ALL__'
p3554
I01
sS'slowpok__ALL__'
p3555
I01
sa(dp3556
S'got__BOTTOM__'
p3557
I01
sS'probabl__TOP__'
p3558
I01
sS'thi__TOP__'
p3559
I01
sS'got__ALL__'
p3560
I01
sS'probabl__ALL__'
p3561
I01
sS'downvot__ALL__'
p3562
I01
sS'thi__ALL__'
p3563
I01
sS'downvot__TOP__'
p3564
I01
sS'be__ALL__'
p3565
I01
sS'that__ALL__'
p3566
I01
sS'that__BOTTOM__'
p3567
I01
sS'will__ALL__'
p3568
I01
sS'you__ALL__'
p3569
I01
sS'you__BOTTOM__'
p3570
I01
sS'will__TOP__'
p3571
I01
sS'right__BOTTOM__'
p3572
I01
sS'be__TOP__'
p3573
I01
sS'right__ALL__'
p3574
I01
sa(dp3575
S'thi__TOP__'
p3576
I01
sS'im__TOP__'
p3577
I01
sS'at__ALL__'
p3578
I01
sS'go__TOP__'
p3579
I01
sS'go__ALL__'
p3580
I01
sS'thi__ALL__'
p3581
I01
sS'know__ALL__'
p3582
I01
sS'you__ALL__'
p3583
I01
sS'you__BOTTOM__'
p3584
I01
sS'well__ALL__'
p3585
I01
sS'for__ALL__'
p3586
I01
sS'i__ALL__'
p3587
I01
sS'well__BOTTOM__'
p3588
I01
sS'get__ALL__'
p3589
I01
sS'someth__ALL__'
p3590
I01
sS'downvot__ALL__'
p3591
I01
sS'someth__BOTTOM__'
p3592
I01
sS'know__BOTTOM__'
p3593
I01
sS'for__TOP__'
p3594
I01
sS'know__TOP__'
p3595
I01
sS'to__ALL__'
p3596
I01
sS'i__TOP__'
p3597
I01
sS'im__ALL__'
p3598
I01
sS'get__TOP__'
p3599
I01
sS'to__TOP__'
p3600
I01
sS'downvot__TOP__'
p3601
I01
sS'at__BOTTOM__'
p3602
I01
sS'least__ALL__'
p3603
I01
sS'least__BOTTOM__'
p3604
I01
sa(dp3605
S'ok__TOP__'
p3606
I01
sS'kill__BOTTOM__'
p3607
I01
sS'just__BOTTOM__'
p3608
I01
sS'just__ALL__'
p3609
I01
sS'him__ALL__'
p3610
I01
sS'him__BOTTOM__'
p3611
I01
sS'ok__ALL__'
p3612
I01
sS'kill__ALL__'
p3613
I01
sa(dp3614
S'help__ALL__'
p3615
I01
sS'help__BOTTOM__'
p3616
I01
sS'post__TOP__'
p3617
I01
sS'me__ALL__'
p3618
I01
sS'post__ALL__'
p3619
I01
sS'porn__ALL__'
p3620
I01
sS'say__TOP__'
p3621
I01
sS'porn__TOP__'
p3622
I01
sS'with__ALL__'
p3623
I01
sS'you__ALL__'
p3624
I01
sS'you__BOTTOM__'
p3625
I01
sS'poni__ALL__'
p3626
I01
sS'let__BOTTOM__'
p3627
I01
sS'i__ALL__'
p3628
I01
sS'me__BOTTOM__'
p3629
I01
sS'poni__TOP__'
p3630
I01
sS'that__ALL__'
p3631
I01
sS'that__BOTTOM__'
p3632
I01
sS'let__ALL__'
p3633
I01
sS'i__TOP__'
p3634
I01
sS'with__BOTTOM__'
p3635
I01
sS'say__ALL__'
p3636
I01
sa(dp3637
S'.__BOTTOM__'
p3638
I01
sS'is__ALL__'
p3639
I01
sS'stupid__TOP__'
p3640
I01
sS'post__TOP__'
p3641
I01
sS'releas__BOTTOM__'
p3642
I01
sS'lion__BOTTOM__'
p3643
I01
sS'post__ALL__'
p3644
I01
sS'your__TOP__'
p3645
I01
sS'.__ALL__'
p3646
I01
sS'is__TOP__'
p3647
I01
sS'releas__ALL__'
p3648
I01
sS'your__ALL__'
p3649
I01
sS'the__ALL__'
p3650
I01
sS'the__BOTTOM__'
p3651
I01
sS'lion__ALL__'
p3652
I01
sS'.__TOP__'
p3653
I01
sS'stupid__ALL__'
p3654
I01
sa(dp3655
S'a__TOP__'
p3656
I01
sS'and__ALL__'
p3657
I01
sS'mental__ALL__'
p3658
I01
sS'and__BOTTOM__'
p3659
I01
sS'mental__TOP__'
p3660
I01
sS'have__ALL__'
p3661
I01
sS'person__TOP__'
p3662
I01
sS'a__ALL__'
p3663
I01
sS'with__TOP__'
p3664
I01
sS'syndrom__BOTTOM__'
p3665
I01
sS'iama__ALL__'
p3666
I01
sS'condit__TOP__'
p3667
I01
sS'iama__TOP__'
p3668
I01
sS'person__ALL__'
p3669
I01
sS'i__ALL__'
p3670
I01
sS'with__ALL__'
p3671
I01
sS'have__BOTTOM__'
p3672
I01
sS'down__BOTTOM__'
p3673
I01
sS'condit__ALL__'
p3674
I01
sS'syndrom__ALL__'
p3675
I01
sS'i__BOTTOM__'
p3676
I01
sS'down__ALL__'
p3677
I01
sa(dp3678
S'i__TOP__'
p3679
I01
sS'thi__TOP__'
p3680
I01
sS'will__ALL__'
p3681
I01
sS'get__ALL__'
p3682
I01
sS'are__ALL__'
p3683
I01
sS'i__ALL__'
p3684
I01
sS'get__TOP__'
p3685
I01
sS'thi__ALL__'
p3686
I01
sS'are__BOTTOM__'
p3687
I01
sS'how__ALL__'
p3688
I01
sS'know__ALL__'
p3689
I01
sS'buri__ALL__'
p3690
I01
sS'buri__TOP__'
p3691
I01
sS'you__BOTTOM__'
p3692
I01
sS'you__ALL__'
p3693
I01
sS'know__TOP__'
p3694
I01
sS'will__TOP__'
p3695
I01
sS'right__BOTTOM__'
p3696
I01
sS'how__BOTTOM__'
p3697
I01
sS'right__ALL__'
p3698
I01
sa(dp3699
S'new__BOTTOM__'
p3700
I01
sS'new__ALL__'
p3701
I01
sS'giant__ALL__'
p3702
I01
sS'giant__BOTTOM__'
p3703
I01
sS'kill__TOP__'
p3704
I01
sS'york__ALL__'
p3705
I01
sS'york__BOTTOM__'
p3706
I01
sS'the__ALL__'
p3707
I01
sS'the__BOTTOM__'
p3708
I01
sS'kill__ALL__'
p3709
I01
sa(dp3710
S'todd__ALL__'
p3711
I01
sS'post__TOP__'
p3712
I01
sS'given__BOTTOM__'
p3713
I01
sS'todd__TOP__'
p3714
I01
sS'post__ALL__'
p3715
I01
sS'day__ALL__'
p3716
I01
sS'touch__TOP__'
p3717
I01
sS'shit__ALL__'
p3718
I01
sS'thi__ALL__'
p3719
I01
sS'touch__ALL__'
p3720
I01
sS'thi__BOTTOM__'
p3721
I01
sS'as__ALL__'
p3722
I01
sS'amanda__TOP__'
p3723
I01
sS'amanda__ALL__'
p3724
I01
sS'given__ALL__'
p3725
I01
sS'as__TOP__'
p3726
I01
sS'zero__BOTTOM__'
p3727
I01
sS'are__BOTTOM__'
p3728
I01
sS'your__ALL__'
p3729
I01
sS'shit__BOTTOM__'
p3730
I01
sS'zero__ALL__'
p3731
I01
sS'are__ALL__'
p3732
I01
sS'is__ALL__'
p3733
I01
sS'your__TOP__'
p3734
I01
sS'is__TOP__'
p3735
I01
sS'day__BOTTOM__'
p3736
I01
sa(dp3737
S'get__ALL__'
p3738
I01
sS'or__BOTTOM__'
p3739
I01
sS'more__ALL__'
p3740
I01
sS'or__ALL__'
p3741
I01
sS'more__TOP__'
p3742
I01
sS'post__TOP__'
p3743
I01
sS'ban__ALL__'
p3744
I01
sS'!__BOTTOM__'
p3745
I01
sS'!__ALL__'
p3746
I01
sS'u__ALL__'
p3747
I01
sS'ban__BOTTOM__'
p3748
I01
sS'post__ALL__'
p3749
I01
sS'get__BOTTOM__'
p3750
I01
sS'u__BOTTOM__'
p3751
I01
sS'no__TOP__'
p3752
I01
sS'funni__ALL__'
p3753
I01
sS'funni__TOP__'
p3754
I01
sS'no__ALL__'
p3755
I01
sa(dp3756
S'came__BOTTOM__'
p3757
I01
sS'thi__ALL__'
p3758
I01
sS'thi__TOP__'
p3759
I01
sS'for__BOTTOM__'
p3760
I01
sS'what__ALL__'
p3761
I01
sS'to__ALL__'
p3762
I01
sS'guess__ALL__'
p3763
I01
sS'guess__BOTTOM__'
p3764
I01
sS'i__ALL__'
p3765
I01
sS'here__TOP__'
p3766
I01
sS'to__TOP__'
p3767
I01
sS'i__BOTTOM__'
p3768
I01
sS'say__ALL__'
p3769
I01
sS'here__BOTTOM__'
p3770
I01
sS'here__ALL__'
p3771
I01
sS'say__TOP__'
p3772
I01
sS'came__ALL__'
p3773
I01
sS'came__TOP__'
p3774
I01
sS'what__BOTTOM__'
p3775
I01
sS'for__ALL__'
p3776
I01
sa(dp3777
S'post__ALL__'
p3778
I01
sS'cat__TOP__'
p3779
I01
sS'no__BOTTOM__'
p3780
I01
sS'matter__BOTTOM__'
p3781
I01
sS'in__TOP__'
p3782
I01
sS'post__TOP__'
p3783
I01
sS'downvot__ALL__'
p3784
I01
sS'cat__ALL__'
p3785
I01
sS'see__ALL__'
p3786
I01
sS'what__ALL__'
p3787
I01
sS'downvot__BOTTOM__'
p3788
I01
sS'see__TOP__'
p3789
I01
sS'matter__ALL__'
p3790
I01
sS'in__ALL__'
p3791
I01
sS'what__BOTTOM__'
p3792
I01
sS'no__ALL__'
p3793
I01
sa(dp3794
S'but__ALL__'
p3795
I01
sS'bride__BOTTOM__'
p3796
I01
sS'about__ALL__'
p3797
I01
sS'princess__BOTTOM__'
p3798
I01
sS'me__ALL__'
p3799
I01
sS'suck__ALL__'
p3800
I01
sS'thing__ALL__'
p3801
I01
sS'and__ALL__'
p3802
I01
sS'go__TOP__'
p3803
I01
sS'go__ALL__'
p3804
I01
sS'but__BOTTOM__'
p3805
I01
sS'one__BOTTOM__'
p3806
I01
sS'ahead__ALL__'
p3807
I01
sS'and__TOP__'
p3808
I01
sS'me__TOP__'
p3809
I01
sS'princess__ALL__'
p3810
I01
sS'ahead__TOP__'
p3811
I01
sS'thing__BOTTOM__'
p3812
I01
sS'about__BOTTOM__'
p3813
I01
sS'downvot__ALL__'
p3814
I01
sS'that__ALL__'
p3815
I01
sS'that__BOTTOM__'
p3816
I01
sS'is__BOTTOM__'
p3817
I01
sS'bride__ALL__'
p3818
I01
sS'downvot__TOP__'
p3819
I01
sS'one__ALL__'
p3820
I01
sS'is__ALL__'
p3821
I01
sS'suck__BOTTOM__'
p3822
I01
sS'the__ALL__'
p3823
I01
sS'the__BOTTOM__'
p3824
I01
sa(dp3825
S'edit__TOP__'
p3826
I01
sS'?__ALL__'
p3827
I01
sS'realli__TOP__'
p3828
I01
sS'downvot__ALL__'
p3829
I01
sS'instant__BOTTOM__'
p3830
I01
sS'downvot__TOP__'
p3831
I01
sS'realli__ALL__'
p3832
I01
sS'?__TOP__'
p3833
I01
sS':__ALL__'
p3834
I01
sS'edit__ALL__'
p3835
I01
sS'instant__ALL__'
p3836
I01
sS'downvot__BOTTOM__'
p3837
I01
sS':__TOP__'
p3838
I01
sa(dp3839
S'reddit__ALL__'
p3840
I01
sS'!__ALL__'
p3841
I01
sS'!__BOTTOM__'
p3842
I01
sS'love__ALL__'
p3843
I01
sS'some__ALL__'
p3844
I01
sS'show__ALL__'
p3845
I01
sS'reddit__BOTTOM__'
p3846
I01
sS'some__TOP__'
p3847
I01
sS'love__TOP__'
p3848
I01
sS'show__TOP__'
p3849
I01
sa(dp3850
S'ape__BOTTOM__'
p3851
I01
sS'lolololol__ALL__'
p3852
I01
sS'?__BOTTOM__'
p3853
I01
sS'lolololol__TOP__'
p3854
I01
sS'lord__ALL__'
p3855
I01
sS'uchiha__ALL__'
p3856
I01
sS'?__ALL__'
p3857
I01
sS'ape__ALL__'
p3858
I01
sS'for__ALL__'
p3859
I01
sS'uchiha__BOTTOM__'
p3860
I01
sS'lord__BOTTOM__'
p3861
I01
sS'for__BOTTOM__'
p3862
I01
sa(dp3863
S'.__BOTTOM__'
p3864
I01
sS'reddit__ALL__'
p3865
I01
sS'.__ALL__'
p3866
I01
sS'cool__ALL__'
p3867
I01
sS'reddit__BOTTOM__'
p3868
I01
sS'your__BOTTOM__'
p3869
I01
sS'out__ALL__'
p3870
I01
sS'a__ALL__'
p3871
I01
sS'cool__TOP__'
p3872
I01
sS'check__BOTTOM__'
p3873
I01
sS'on__ALL__'
p3874
I01
sS'girl__BOTTOM__'
p3875
I01
sS'let__BOTTOM__'
p3876
I01
sS'out__BOTTOM__'
p3877
I01
sS'profil__ALL__'
p3878
I01
sS'girl__ALL__'
p3879
I01
sS'your__ALL__'
p3880
I01
sS'let__ALL__'
p3881
I01
sS'check__ALL__'
p3882
I01
sS'a__BOTTOM__'
p3883
I01
sS'profil__BOTTOM__'
p3884
I01
sS'on__BOTTOM__'
p3885
I01
sa(dp3886
S'dont__ALL__'
p3887
I01
sS'i__TOP__'
p3888
I01
sS'care__TOP__'
p3889
I01
sS'good__BOTTOM__'
p3890
I01
sS'dont__TOP__'
p3891
I01
sS'i__ALL__'
p3892
I01
sS'care__ALL__'
p3893
I01
sS'downvot__TOP__'
p3894
I01
sS'good__ALL__'
p3895
I01
sS'you__TOP__'
p3896
I01
sS'me__ALL__'
p3897
I01
sS'me__TOP__'
p3898
I01
sS'if__ALL__'
p3899
I01
sS'you__ALL__'
p3900
I01
sS'downvot__ALL__'
p3901
I01
sS'if__TOP__'
p3902
I01
sa(dp3903
S'soapless__ALL__'
p3904
I01
sS'dove__ALL__'
p3905
I01
sS'dove__TOP__'
p3906
I01
sS'a__BOTTOM__'
p3907
I01
sS'we__ALL__'
p3908
I01
sS'a__ALL__'
p3909
I01
sS'in__ALL__'
p3910
I01
sS'place__BOTTOM__'
p3911
I01
sS'in__BOTTOM__'
p3912
I01
sS'found__TOP__'
p3913
I01
sS'place__ALL__'
p3914
I01
sS'found__ALL__'
p3915
I01
sS'we__TOP__'
p3916
I01
sS'soapless__BOTTOM__'
p3917
I01
sa(dp3918
S'it__TOP__'
p3919
I01
sS'wed__ALL__'
p3920
I01
sS'day__TOP__'
p3921
I01
sS'wed__TOP__'
p3922
I01
sS'day__ALL__'
p3923
I01
sS'your__TOP__'
p3924
I01
sS'sweet__BOTTOM__'
p3925
I01
sS'it__ALL__'
p3926
I01
sS'sweet__ALL__'
p3927
I01
sS'your__ALL__'
p3928
I01
sS'how__BOTTOM__'
p3929
I01
sS'how__ALL__'
p3930
I01
sa(dp3931
S'problem__BOTTOM__'
p3932
I01
sS'year__ALL__'
p3933
I01
sS'said__BOTTOM__'
p3934
I01
sS'a__TOP__'
p3935
I01
sS'soniy__ALL__'
p3936
I01
sS'sardar__BOTTOM__'
p3937
I01
sS'year__TOP__'
p3938
I01
sS'im__TOP__'
p3939
I01
sS'propos__TOP__'
p3940
I01
sS'a__ALL__'
p3941
I01
sS'no__BOTTOM__'
p3942
I01
sS'elder__ALL__'
p3943
I01
sS'you__ALL__'
p3944
I01
sS'oye__BOTTOM__'
p3945
I01
sS'no__ALL__'
p3946
I01
sS'sardar__TOP__'
p3947
I01
sS'to__ALL__'
p3948
I01
sS'girl__TOP__'
p3949
I01
sS'said__ALL__'
p3950
I01
sS'you__TOP__'
p3951
I01
sS'oye__ALL__'
p3952
I01
sS'1__ALL__'
p3953
I01
sS'elder__TOP__'
p3954
I01
sS'girl__ALL__'
p3955
I01
sS'im__ALL__'
p3956
I01
sS'said__TOP__'
p3957
I01
sS'to__TOP__'
p3958
I01
sS'sardar__ALL__'
p3959
I01
sS'soniy__BOTTOM__'
p3960
I01
sS'1__TOP__'
p3961
I01
sS'problem__ALL__'
p3962
I01
sS'propos__ALL__'
p3963
I01
sa(dp3964
S'today__TOP__'
p3965
I01
sS'reddit__ALL__'
p3966
I01
sS'!__ALL__'
p3967
I01
sS'birthday__TOP__'
p3968
I01
sS'present__BOTTOM__'
p3969
I01
sS'enjoy__BOTTOM__'
p3970
I01
sS'today__ALL__'
p3971
I01
sS'my__TOP__'
p3972
I01
sS'reddit__TOP__'
p3973
I01
sS'birthday__ALL__'
p3974
I01
sS'my__ALL__'
p3975
I01
sS'enjoy__ALL__'
p3976
I01
sS'your__ALL__'
p3977
I01
sS'your__BOTTOM__'
p3978
I01
sS'present__ALL__'
p3979
I01
sS'!__TOP__'
p3980
I01
sa(dp3981
S'to__BOTTOM__'
p3982
I01
sS'comment__TOP__'
p3983
I01
sS'?__TOP__'
p3984
I01
sS'hi__ALL__'
p3985
I01
sS'here__ALL__'
p3986
I01
sS'destroy__ALL__'
p3987
I01
sS'you__ALL__'
p3988
I01
sS'you__BOTTOM__'
p3989
I01
sS'came__TOP__'
p3990
I01
sS'i__ALL__'
p3991
I01
sS'upvot__TOP__'
p3992
I01
sS'came__BOTTOM__'
p3993
I01
sS'came__ALL__'
p3994
I01
sS'upvot__ALL__'
p3995
I01
sS'destroy__BOTTOM__'
p3996
I01
sS'you__TOP__'
p3997
I01
sS'here__BOTTOM__'
p3998
I01
sS'hi__TOP__'
p3999
I01
sS'to__ALL__'
p4000
I01
sS'?__ALL__'
p4001
I01
sS'comment__ALL__'
p4002
I01
sS'here__TOP__'
p4003
I01
sS'to__TOP__'
p4004
I01
sS'i__BOTTOM__'
p4005
I01
sa(dp4006
S'spend__TOP__'
p4007
I01
sS'univers__ALL__'
p4008
I01
sS'spend__ALL__'
p4009
I01
sS'univers__TOP__'
p4010
I01
sS'doesnt__BOTTOM__'
p4011
I01
sS'download__TOP__'
p4012
I01
sS'dc__TOP__'
p4013
I01
sS'hour__ALL__'
p4014
I01
sS'game__BOTTOM__'
p4015
I01
sS'work__BOTTOM__'
p4016
I01
sS'game__ALL__'
p4017
I01
sS'9__TOP__'
p4018
I01
sS'hour__TOP__'
p4019
I01
sS'dc__ALL__'
p4020
I01
sS'work__ALL__'
p4021
I01
sS'9__ALL__'
p4022
I01
sS'doesnt__ALL__'
p4023
I01
sS'download__ALL__'
p4024
I01
sa(dp4025
S'til__ALL__'
p4026
I01
sS'alreadi__BOTTOM__'
p4027
I01
sS'i__ALL__'
p4028
I01
sS'til__TOP__'
p4029
I01
sS'i__BOTTOM__'
p4030
I01
sS'knew__BOTTOM__'
p4031
I01
sS'alreadi__ALL__'
p4032
I01
sS'that__BOTTOM__'
p4033
I01
sS'knew__ALL__'
p4034
I01
sS'that__ALL__'
p4035
I01
sa(dp4036
S'with__ALL__'
p4037
I01
sS'punish__ALL__'
p4038
I01
sS'nake__TOP__'
p4039
I01
sS'nake__ALL__'
p4040
I01
sS'koutelaki__ALL__'
p4041
I01
sS'punish__BOTTOM__'
p4042
I01
sS'with__BOTTOM__'
p4043
I01
sS'see__ALL__'
p4044
I01
sS'koutelaki__TOP__'
p4045
I01
sS'see__TOP__'
p4046
I01
sS'death__BOTTOM__'
p4047
I01
sS'death__ALL__'
p4048
I01
sa(dp4049
S'.__BOTTOM__'
p4050
I01
sS'?__TOP__'
p4051
I01
sS'a__ALL__'
p4052
I01
sS'.__ALL__'
p4053
I01
sS'?__ALL__'
p4054
I01
sS'friendzon__ALL__'
p4055
I01
sS'be__ALL__'
p4056
I01
sS'about__ALL__'
p4057
I01
sS'a__TOP__'
p4058
I01
sS'about__TOP__'
p4059
I01
sS'friendzon__TOP__'
p4060
I01
sS'not__BOTTOM__'
p4061
I01
sS'you__TOP__'
p4062
I01
sS'you__ALL__'
p4063
I01
sS'not__ALL__'
p4064
I01
sS'funni__ALL__'
p4065
I01
sS'stori__ALL__'
p4066
I01
sS'funni__BOTTOM__'
p4067
I01
sS'stori__TOP__'
p4068
I01
sS'be__TOP__'
p4069
I01
sa(dp4070
S'thi__TOP__'
p4071
I01
sS'about__ALL__'
p4072
I01
sS'thi__ALL__'
p4073
I01
sS'care__ALL__'
p4074
I01
sS'feel__ALL__'
p4075
I01
sS'caus__ALL__'
p4076
I01
sS'pussi__ALL__'
p4077
I01
sS'drak__BOTTOM__'
p4078
I01
sS'album__BOTTOM__'
p4079
I01
sS'about__TOP__'
p4080
I01
sS'take__BOTTOM__'
p4081
I01
sS'it__BOTTOM__'
p4082
I01
sS'album__ALL__'
p4083
I01
sS'caus__BOTTOM__'
p4084
I01
sS'pussi__BOTTOM__'
p4085
I01
sS'too__ALL__'
p4086
I01
sS'i__ALL__'
p4087
I01
sS'feel__TOP__'
p4088
I01
sS'take__ALL__'
p4089
I01
sS'it__ALL__'
p4090
I01
sS'i__TOP__'
p4091
I01
sS'drak__ALL__'
p4092
I01
sS'how__TOP__'
p4093
I01
sS'care__BOTTOM__'
p4094
I01
sS'too__BOTTOM__'
p4095
I01
sS'is__ALL__'
p4096
I01
sS'is__TOP__'
p4097
I01
sS'how__ALL__'
p4098
I01
sa(dp4099
S'instant__BOTTOM__'
p4100
I01
sS'thi__TOP__'
p4101
I01
sS'girlfriend__ALL__'
p4102
I01
sS'downvot__ALL__'
p4103
I01
sS'made__TOP__'
p4104
I01
sS'thi__ALL__'
p4105
I01
sS'?__ALL__'
p4106
I01
sS'made__ALL__'
p4107
I01
sS'?__TOP__'
p4108
I01
sS'your__TOP__'
p4109
I01
sS'instant__ALL__'
p4110
I01
sS'downvot__BOTTOM__'
p4111
I01
sS'your__ALL__'
p4112
I01
sS'girlfriend__TOP__'
p4113
I01
sa(dp4114
S'disapprov__BOTTOM__'
p4115
I01
sS'lesbian__ALL__'
p4116
I01
sS'liber__ALL__'
p4117
I01
sS'vloasi__ALL__'
p4118
I01
sS'liber__BOTTOM__'
p4119
I01
sS'the__TOP__'
p4120
I01
sS'vloasi__TOP__'
p4121
I01
sS'disapprov__ALL__'
p4122
I01
sS'lesbian__BOTTOM__'
p4123
I01
sS'elit__ALL__'
p4124
I01
sS'your__ALL__'
p4125
I01
sS'the__ALL__'
p4126
I01
sS'of__ALL__'
p4127
I01
sS'your__BOTTOM__'
p4128
I01
sS'elit__TOP__'
p4129
I01
sS'of__BOTTOM__'
p4130
I01
sa(dp4131
S'.__BOTTOM__'
p4132
I01
sS'i__TOP__'
p4133
I01
sS'.__ALL__'
p4134
I01
sS'thi__TOP__'
p4135
I01
sS'right__TOP__'
p4136
I01
sS'?__ALL__'
p4137
I01
sS'i__ALL__'
p4138
I01
sS'thi__ALL__'
p4139
I01
sS'am__ALL__'
p4140
I01
sS'?__TOP__'
p4141
I01
sS'do__ALL__'
p4142
I01
sS'no__BOTTOM__'
p4143
I01
sS'am__TOP__'
p4144
I01
sS'no__ALL__'
p4145
I01
sS'do__TOP__'
p4146
I01
sS'right__ALL__'
p4147
I01
sa(dp4148
S'claim__ALL__'
p4149
I01
sS'so__ALL__'
p4150
I01
sS'off__ALL__'
p4151
I01
sS'and__ALL__'
p4152
I01
sS'say__TOP__'
p4153
I01
sS'have__ALL__'
p4154
I01
sS'and__TOP__'
p4155
I01
sS'with__ALL__'
p4156
I01
sS'spoken__ALL__'
p4157
I01
sS'peopl__ALL__'
p4158
I01
sS'claim__TOP__'
p4159
I01
sS'so__TOP__'
p4160
I01
sS'hi__ALL__'
p4161
I01
sS'you__ALL__'
p4162
I01
sS'have__BOTTOM__'
p4163
I01
sS'off__BOTTOM__'
p4164
I01
sS'hi__BOTTOM__'
p4165
I01
sS'head__ALL__'
p4166
I01
sS'you__TOP__'
p4167
I01
sS'with__BOTTOM__'
p4168
I01
sS'say__ALL__'
p4169
I01
sS'peopl__BOTTOM__'
p4170
I01
sS'the__ALL__'
p4171
I01
sS'the__BOTTOM__'
p4172
I01
sS'spoken__BOTTOM__'
p4173
I01
sS'head__BOTTOM__'
p4174
I01
sa(dp4175
S'dont__ALL__'
p4176
I01
sS'i__TOP__'
p4177
I01
sS'i__ALL__'
p4178
I01
sS'even__ALL__'
p4179
I01
sS'curr__ALL__'
p4180
I01
sS'dont__TOP__'
p4181
I01
sS'even__TOP__'
p4182
I01
sS'about__ALL__'
p4183
I01
sS'about__BOTTOM__'
p4184
I01
sS'life__ALL__'
p4185
I01
sS'your__ALL__'
p4186
I01
sS'your__BOTTOM__'
p4187
I01
sS'life__BOTTOM__'
p4188
I01
sS'curr__TOP__'
p4189
I01
sa(dp4190
S'today__TOP__'
p4191
I01
sS'dog__ALL__'
p4192
I01
sS'help__BOTTOM__'
p4193
I01
sS'?__ALL__'
p4194
I01
sS'her__BOTTOM__'
p4195
I01
sS'help__ALL__'
p4196
I01
sS'me__BOTTOM__'
p4197
I01
sS'today__ALL__'
p4198
I01
sS'die__TOP__'
p4199
I01
sS'me__ALL__'
p4200
I01
sS'?__TOP__'
p4201
I01
sS'your__TOP__'
p4202
I01
sS'buri__ALL__'
p4203
I01
sS'die__ALL__'
p4204
I01
sS'your__ALL__'
p4205
I01
sS'dog__TOP__'
p4206
I01
sS'let__BOTTOM__'
p4207
I01
sS'her__ALL__'
p4208
I01
sS'let__ALL__'
p4209
I01
sS'buri__BOTTOM__'
p4210
I01
sa(dp4211
S'dont__ALL__'
p4212
I01
sS'dick__TOP__'
p4213
I01
sS'but__ALL__'
p4214
I01
sS'expect__ALL__'
p4215
I01
sS'suck__TOP__'
p4216
I01
sS'she__ALL__'
p4217
I01
sS'me__ALL__'
p4218
I01
sS'suck__ALL__'
p4219
I01
sS'eat__ALL__'
p4220
I01
sS'her__BOTTOM__'
p4221
I01
sS'but__BOTTOM__'
p4222
I01
sS'she__TOP__'
p4223
I01
sS'dick__ALL__'
p4224
I01
sS'her__ALL__'
p4225
I01
sS'me__BOTTOM__'
p4226
I01
sS'4__ALL__'
p4227
I01
sS'2__BOTTOM__'
p4228
I01
sS'?__BOTTOM__'
p4229
I01
sS'?__ALL__'
p4230
I01
sS'how__TOP__'
p4231
I01
sS'dont__TOP__'
p4232
I01
sS'eat__BOTTOM__'
p4233
I01
sS'expect__BOTTOM__'
p4234
I01
sS'how__ALL__'
p4235
I01
sS'4__BOTTOM__'
p4236
I01
sS'2__ALL__'
p4237
I01
sa(dp4238
S'disapprov__BOTTOM__'
p4239
I01
sS'!__ALL__'
p4240
I01
sS'sellimg__ALL__'
p4241
I01
sS'!__BOTTOM__'
p4242
I01
sS'thi__ALL__'
p4243
I01
sS'i__ALL__'
p4244
I01
sS'sellimg__TOP__'
p4245
I01
sS'i__BOTTOM__'
p4246
I01
sS'?__TOP__'
p4247
I01
sS'disapprov__ALL__'
p4248
I01
sS'thi__BOTTOM__'
p4249
I01
sS'yemstafa__TOP__'
p4250
I01
sS'of__ALL__'
p4251
I01
sS'?__ALL__'
p4252
I01
sS'yemstafa__ALL__'
p4253
I01
sS'of__BOTTOM__'
p4254
I01
sa(dp4255
S'away__ALL__'
p4256
I01
sS'dog__ALL__'
p4257
I01
sS'just__ALL__'
p4258
I01
sS'thi__TOP__'
p4259
I01
sS'away__BOTTOM__'
p4260
I01
sS'just__BOTTOM__'
p4261
I01
sS'my__TOP__'
p4262
I01
sS'thi__ALL__'
p4263
I01
sS'today__BOTTOM__'
p4264
I01
sS'today__ALL__'
p4265
I01
sS'is__ALL__'
p4266
I01
sS'my__ALL__'
p4267
I01
sS'pass__ALL__'
p4268
I01
sS'is__TOP__'
p4269
I01
sS'pass__BOTTOM__'
p4270
I01
sS'he__ALL__'
p4271
I01
sS'dog__TOP__'
p4272
I01
sS'he__BOTTOM__'
p4273
I01
sa(dp4274
S'new__BOTTOM__'
p4275
I01
sS'new__ALL__'
p4276
I01
sS'downvot__ALL__'
p4277
I01
sS'downvot__TOP__'
p4278
I01
sS'the__ALL__'
p4279
I01
sS'the__BOTTOM__'
p4280
I01
sS'facebook__ALL__'
p4281
I01
sS'facebook__BOTTOM__'
p4282
I01
sa(dp4283
S'to__BOTTOM__'
p4284
I01
sS'post__TOP__'
p4285
I01
sS'a__TOP__'
p4286
I01
sS'post__ALL__'
p4287
I01
sS'give__ALL__'
p4288
I01
sS'give__BOTTOM__'
p4289
I01
sS'a__ALL__'
p4290
I01
sS'more__ALL__'
p4291
I01
sS'about__TOP__'
p4292
I01
sS'?__TOP__'
p4293
I01
sS'about__ALL__'
p4294
I01
sS'you__ALL__'
p4295
I01
sS'you__BOTTOM__'
p4296
I01
sS'get__ALL__'
p4297
I01
sS'ill__ALL__'
p4298
I01
sS'about__BOTTOM__'
p4299
I01
sS'downvot__ALL__'
p4300
I01
sS'more__BOTTOM__'
p4301
I01
sS'to__ALL__'
p4302
I01
sS'?__ALL__'
p4303
I01
sS'ill__BOTTOM__'
p4304
I01
sS'get__TOP__'
p4305
I01
sS'downvot__TOP__'
p4306
I01
sS'post__BOTTOM__'
p4307
I01
sa(dp4308
S'thi__TOP__'
p4309
I01
sS'to__BOTTOM__'
p4310
I01
sS'day__TOP__'
p4311
I01
sS'wake__TOP__'
p4312
I01
sS'day__ALL__'
p4313
I01
sS'up__BOTTOM__'
p4314
I01
sS'can__BOTTOM__'
p4315
I01
sS'now__ALL__'
p4316
I01
sS'wake__BOTTOM__'
p4317
I01
sS'thi__ALL__'
p4318
I01
sS'everi__TOP__'
p4319
I01
sS'thi__BOTTOM__'
p4320
I01
sS'can__ALL__'
p4321
I01
sS'you__ALL__'
p4322
I01
sS'you__BOTTOM__'
p4323
I01
sS'up__TOP__'
p4324
I01
sS'everi__ALL__'
p4325
I01
sS'i__ALL__'
p4326
I01
sS'to__ALL__'
p4327
I01
sS'i__TOP__'
p4328
I01
sS'now__BOTTOM__'
p4329
I01
sS'to__TOP__'
p4330
I01
sS'up__ALL__'
p4331
I01
sS'wake__ALL__'
p4332
I01
sa(dp4333
S'about__ALL__'
p4334
I01
sS'phoenix__TOP__'
p4335
I01
sS'20__ALL__'
p4336
I01
sS'about__TOP__'
p4337
I01
sS'you__ALL__'
p4338
I01
sS'20__BOTTOM__'
p4339
I01
sS'joaquin__TOP__'
p4340
I01
sS'phoenix__ALL__'
p4341
I01
sS'jeremi__BOTTOM__'
p4342
I01
sS'you__TOP__'
p4343
I01
sS'do__ALL__'
p4344
I01
sS'gif__BOTTOM__'
p4345
I01
sS'do__TOP__'
p4346
I01
sS'?__BOTTOM__'
p4347
I01
sS'feel__TOP__'
p4348
I01
sS'?__ALL__'
p4349
I01
sS'how__TOP__'
p4350
I01
sS'joaquin__ALL__'
p4351
I01
sS'last__ALL__'
p4352
I01
sS'feel__ALL__'
p4353
I01
sS'gif__ALL__'
p4354
I01
sS'last__BOTTOM__'
p4355
I01
sS'jeremi__ALL__'
p4356
I01
sS'how__ALL__'
p4357
I01
sa(dp4358
S'thi__ALL__'
p4359
I01
sS'thi__TOP__'
p4360
I01
sS'can__ALL__'
p4361
I01
sS'welcom__BOTTOM__'
p4362
I01
sS'but__TOP__'
p4363
I01
sS'downvot__TOP__'
p4364
I01
sS'you__TOP__'
p4365
I01
sS'can__TOP__'
p4366
I01
sS'welcom__ALL__'
p4367
I01
sS'your__ALL__'
p4368
I01
sS'you__ALL__'
p4369
I01
sS'but__ALL__'
p4370
I01
sS'your__BOTTOM__'
p4371
I01
sS'downvot__ALL__'
p4372
I01
sa(dp4373
S'dont__ALL__'
p4374
I01
sS'i__TOP__'
p4375
I01
sS'redditor__TOP__'
p4376
I01
sS'thi__TOP__'
p4377
I01
sS'girlfriend__ALL__'
p4378
I01
sS'i__ALL__'
p4379
I01
sS'worri__ALL__'
p4380
I01
sS'my__TOP__'
p4381
I01
sS'doesnt__ALL__'
p4382
I01
sS'thi__ALL__'
p4383
I01
sS'dont__BOTTOM__'
p4384
I01
sS'redditor__ALL__'
p4385
I01
sS'see__ALL__'
p4386
I01
sS'my__ALL__'
p4387
I01
sS'doesnt__TOP__'
p4388
I01
sS'see__TOP__'
p4389
I01
sS'hope__ALL__'
p4390
I01
sS'hope__TOP__'
p4391
I01
sS'worri__BOTTOM__'
p4392
I01
sS'girlfriend__TOP__'
p4393
I01
sa(dp4394
S'like__ALL__'
p4395
I01
sS'like__BOTTOM__'
p4396
I01
sS'fogel__ALL__'
p4397
I01
sS'fogel__BOTTOM__'
p4398
I01
sS'!__BOTTOM__'
p4399
I01
sS'oberarm__BOTTOM__'
p4400
I01
sS'him__TOP__'
p4401
I01
sS'!__TOP__'
p4402
I01
sS'!__ALL__'
p4403
I01
sS'kill__TOP__'
p4404
I01
sS'oberarm__ALL__'
p4405
I01
sS'him__ALL__'
p4406
I01
sS'13er__ALL__'
p4407
I01
sS'he__ALL__'
p4408
I01
sS'ha__BOTTOM__'
p4409
I01
sS'kill__ALL__'
p4410
I01
sS'ha__ALL__'
p4411
I01
sS'he__BOTTOM__'
p4412
I01
sS'13er__BOTTOM__'
p4413
I01
sa(dp4414
S'.__BOTTOM__'
p4415
I01
sS'make__ALL__'
p4416
I01
sS'.__ALL__'
p4417
I01
sS'receiv__ALL__'
p4418
I01
sS'post__TOP__'
p4419
I01
sS'a__TOP__'
p4420
I01
sS'post__ALL__'
p4421
I01
sS'your__BOTTOM__'
p4422
I01
sS'use__BOTTOM__'
p4423
I01
sS'a__ALL__'
p4424
I01
sS'success__ALL__'
p4425
I01
sS'for__BOTTOM__'
p4426
I01
sS'shall__BOTTOM__'
p4427
I01
sS'shall__ALL__'
p4428
I01
sS'about__TOP__'
p4429
I01
sS'about__ALL__'
p4430
I01
sS'failur__ALL__'
p4431
I01
sS'for__ALL__'
p4432
I01
sS'not__ALL__'
p4433
I01
sS'downvot__ALL__'
p4434
I01
sS'failur__BOTTOM__'
p4435
I01
sS'be__ALL__'
p4436
I01
sS'be__BOTTOM__'
p4437
I01
sS'your__ALL__'
p4438
I01
sS'use__ALL__'
p4439
I01
sS'downvot__TOP__'
p4440
I01
sS'not__BOTTOM__'
p4441
I01
sS'make__TOP__'
p4442
I01
sS'success__BOTTOM__'
p4443
I01
sS'receiv__TOP__'
p4444
I01
sa(dp4445
S'dice__ALL__'
p4446
I01
sS'no__BOTTOM__'
p4447
I01
sS'isma__TOP__'
p4448
I01
sS'dice__TOP__'
p4449
I01
sS'isma__ALL__'
p4450
I01
sS'que__TOP__'
p4451
I01
sS'que__ALL__'
p4452
I01
sS'no__ALL__'
p4453
I01
sa(dp4454
S'make__ALL__'
p4455
I01
sS'a__ALL__'
p4456
I01
sS'about__ALL__'
p4457
I01
sS'receiv__ALL__'
p4458
I01
sS'post__TOP__'
p4459
I01
sS'more__BOTTOM__'
p4460
I01
sS'a__TOP__'
p4461
I01
sS'more__ALL__'
p4462
I01
sS'about__TOP__'
p4463
I01
sS'downvot__TOP__'
p4464
I01
sS'post__ALL__'
p4465
I01
sS'here__BOTTOM__'
p4466
I01
sS'some__ALL__'
p4467
I01
sS'here__ALL__'
p4468
I01
sS'make__TOP__'
p4469
I01
sS'downvot__ALL__'
p4470
I01
sS'receiv__TOP__'
p4471
I01
sS'some__BOTTOM__'
p4472
I01
sa(dp4473
S'?__TOP__'
p4474
I01
sS'happili__ALL__'
p4475
I01
sS'want__TOP__'
p4476
I01
sS'aquiesc__BOTTOM__'
p4477
I01
sS'downvot__ALL__'
p4478
I01
sS'downvot__TOP__'
p4479
I01
sS'i__BOTTOM__'
p4480
I01
sS'you__TOP__'
p4481
I01
sS'you__ALL__'
p4482
I01
sS'?__ALL__'
p4483
I01
sS'aquiesc__ALL__'
p4484
I01
sS'want__ALL__'
p4485
I01
sS'i__ALL__'
p4486
I01
sS'happili__BOTTOM__'
p4487
I01
sa(dp4488
S'.__BOTTOM__'
p4489
I01
sS'argu__TOP__'
p4490
I01
sS'.__ALL__'
p4491
I01
sS'?__ALL__'
p4492
I01
sS'to__ALL__'
p4493
I01
sS'about__ALL__'
p4494
I01
sS'continu__TOP__'
p4495
I01
sS'about__TOP__'
p4496
I01
sS'to__TOP__'
p4497
I01
sS'argu__ALL__'
p4498
I01
sS'?__TOP__'
p4499
I01
sS'continu__ALL__'
p4500
I01
sS'tri__ALL__'
p4501
I01
sS'tri__BOTTOM__'
p4502
I01
sS'roman__ALL__'
p4503
I01
sS'roman__BOTTOM__'
p4504
I01
sS'greek__ALL__'
p4505
I01
sS'greek__TOP__'
p4506
I01
sa(dp4507
S'first__BOTTOM__'
p4508
I01
sS'!__ALL__'
p4509
I01
sS'first__ALL__'
p4510
I01
sS'[__TOP__'
p4511
I01
sS'post__TOP__'
p4512
I01
sS'!__TOP__'
p4513
I01
sS'post__ALL__'
p4514
I01
sS'[__ALL__'
p4515
I01
sS']__ALL__'
p4516
I01
sS'downvot__BOTTOM__'
p4517
I01
sS'first__TOP__'
p4518
I01
sS'downvot__ALL__'
p4519
I01
sS']__TOP__'
p4520
I01
sa(dp4521
S'to__ALL__'
p4522
I01
sS'i__TOP__'
p4523
I01
sS'thi__TOP__'
p4524
I01
sS'in__TOP__'
p4525
I01
sS'thi__ALL__'
p4526
I01
sS'i__ALL__'
p4527
I01
sS'upvot__ALL__'
p4528
I01
sS'just__ALL__'
p4529
I01
sS'to__TOP__'
p4530
I01
sS'in__ALL__'
p4531
I01
sS'funni__ALL__'
p4532
I01
sS'just__TOP__'
p4533
I01
sS'sign__TOP__'
p4534
I01
sS'funni__BOTTOM__'
p4535
I01
sS'sign__ALL__'
p4536
I01
sS'upvot__TOP__'
p4537
I01
sa(dp4538
S'edit__TOP__'
p4539
I01
sS'thi__TOP__'
p4540
I01
sS':__ALL__'
p4541
I01
sS'fix__ALL__'
p4542
I01
sS'lol__TOP__'
p4543
I01
sS'edit__ALL__'
p4544
I01
sS'cant__TOP__'
p4545
I01
sS'lol__ALL__'
p4546
I01
sS'most__TOP__'
p4547
I01
sS'fix__BOTTOM__'
p4548
I01
sS'thi__ALL__'
p4549
I01
sS'you__ALL__'
p4550
I01
sS'you__BOTTOM__'
p4551
I01
sS'let__BOTTOM__'
p4552
I01
sS'for__ALL__'
p4553
I01
sS'i__ALL__'
p4554
I01
sS'upvot__TOP__'
p4555
I01
sS'believ__ALL__'
p4556
I01
sS'upvot__ALL__'
p4557
I01
sS'believ__TOP__'
p4558
I01
sS'!__TOP__'
p4559
I01
sS'me__BOTTOM__'
p4560
I01
sS'most__ALL__'
p4561
I01
sS'that__ALL__'
p4562
I01
sS'that__BOTTOM__'
p4563
I01
sS'comment__TOP__'
p4564
I01
sS'let__ALL__'
p4565
I01
sS'for__BOTTOM__'
p4566
I01
sS'i__TOP__'
p4567
I01
sS'cant__ALL__'
p4568
I01
sS'my__TOP__'
p4569
I01
sS'is__ALL__'
p4570
I01
sS'!__ALL__'
p4571
I01
sS'my__ALL__'
p4572
I01
sS'is__TOP__'
p4573
I01
sS'me__ALL__'
p4574
I01
sS'comment__ALL__'
p4575
I01
sS':__TOP__'
p4576
I01
sa(dp4577
S'.__BOTTOM__'
p4578
I01
sS'.__ALL__'
p4579
I01
sS'downvot__TOP__'
p4580
I01
sS'onli__ALL__'
p4581
I01
sS'earn__BOTTOM__'
p4582
I01
sS'more__ALL__'
p4583
I01
sS'here__ALL__'
p4584
I01
sS'youv__ALL__'
p4585
I01
sS'i__ALL__'
p4586
I01
sS'youv__BOTTOM__'
p4587
I01
sS'onli__TOP__'
p4588
I01
sS'get__ALL__'
p4589
I01
sS'downvot__ALL__'
p4590
I01
sS'more__BOTTOM__'
p4591
I01
sS'i__TOP__'
p4592
I01
sS'here__BOTTOM__'
p4593
I01
sS'when__ALL__'
p4594
I01
sS'when__TOP__'
p4595
I01
sS'earn__ALL__'
p4596
I01
sS'some__BOTTOM__'
p4597
I01
sS'feel__TOP__'
p4598
I01
sS'how__TOP__'
p4599
I01
sS'get__TOP__'
p4600
I01
sS'feel__ALL__'
p4601
I01
sS'how__ALL__'
p4602
I01
sS'some__ALL__'
p4603
I01
sS'them__ALL__'
p4604
I01
sS'them__BOTTOM__'
p4605
I01
sa(dp4606
S'had__TOP__'
p4607
I01
sS'so__ALL__'
p4608
I01
sS'those__ALL__'
p4609
I01
sS'could__BOTTOM__'
p4610
I01
sS'give__ALL__'
p4611
I01
sS'give__BOTTOM__'
p4612
I01
sS'hand__ALL__'
p4613
I01
sS'!__BOTTOM__'
p4614
I01
sS'more__ALL__'
p4615
I01
sS'thumb__ALL__'
p4616
I01
sS'so__BOTTOM__'
p4617
I01
sS'had__ALL__'
p4618
I01
sS'wa__ALL__'
p4619
I01
sS'thumb__BOTTOM__'
p4620
I01
sS'more__TOP__'
p4621
I01
sS'i__ALL__'
p4622
I01
sS'!__ALL__'
p4623
I01
sS'titti__ALL__'
p4624
I01
sS'4__ALL__'
p4625
I01
sS'down__BOTTOM__'
p4626
I01
sS'i__TOP__'
p4627
I01
sS'wa__TOP__'
p4628
I01
sS'titti__BOTTOM__'
p4629
I01
sS'those__BOTTOM__'
p4630
I01
sS'i__BOTTOM__'
p4631
I01
sS'could__ALL__'
p4632
I01
sS'down__ALL__'
p4633
I01
sS'hand__TOP__'
p4634
I01
sS'4__BOTTOM__'
p4635
I01
sa(dp4636
S'like__ALL__'
p4637
I01
sS'doesnt__TOP__'
p4638
I01
sS'turtl__ALL__'
p4639
I01
sS'like__TOP__'
p4640
I01
sS'doesnt__ALL__'
p4641
I01
sS'turtl__TOP__'
p4642
I01
sS'him__ALL__'
p4643
I01
sS'him__BOTTOM__'
p4644
I01
sS'he__ALL__'
p4645
I01
sS'finish__BOTTOM__'
p4646
I01
sS'finish__ALL__'
p4647
I01
sS'he__TOP__'
p4648
I01
sa(dp4649
S'.__BOTTOM__'
p4650
I01
sS'voic__TOP__'
p4651
I01
sS'sign__ALL__'
p4652
I01
sS'?__ALL__'
p4653
I01
sS'languag__BOTTOM__'
p4654
I01
sS'they__ALL__'
p4655
I01
sS'hope__BOTTOM__'
p4656
I01
sS'voic__ALL__'
p4657
I01
sS'i__ALL__'
p4658
I01
sS'parent__ALL__'
p4659
I01
sS'languag__ALL__'
p4660
I01
sS'i__BOTTOM__'
p4661
I01
sS'?__TOP__'
p4662
I01
sS'hope__ALL__'
p4663
I01
sS'.__ALL__'
p4664
I01
sS'parent__TOP__'
p4665
I01
sS'they__BOTTOM__'
p4666
I01
sS'understand__BOTTOM__'
p4667
I01
sS'sign__BOTTOM__'
p4668
I01
sS'understand__ALL__'
p4669
I01
sa(dp4670
S'.__BOTTOM__'
p4671
I01
sS'go__BOTTOM__'
p4672
I01
sS'yal__TOP__'
p4673
I01
sS'go__ALL__'
p4674
I01
sS'i__ALL__'
p4675
I01
sS'work__ALL__'
p4676
I01
sS'smart__ALL__'
p4677
I01
sS'smart__BOTTOM__'
p4678
I01
sS'i__BOTTOM__'
p4679
I01
sS'work__BOTTOM__'
p4680
I01
sS'hard__TOP__'
p4681
I01
sS'hard__ALL__'
p4682
I01
sS'.__ALL__'
p4683
I01
sS'howzit__BOTTOM__'
p4684
I01
sS'yal__ALL__'
p4685
I01
sS'go__TOP__'
p4686
I01
sS'howzit__ALL__'
p4687
I01
sa(dp4688
S'friend__TOP__'
p4689
I01
sS'veri__BOTTOM__'
p4690
I01
sS'thi__TOP__'
p4691
I01
sS'think__ALL__'
p4692
I01
sS'doesnt__BOTTOM__'
p4693
I01
sS'she__ALL__'
p4694
I01
sS'my__TOP__'
p4695
I01
sS'made__TOP__'
p4696
I01
sS'thi__ALL__'
p4697
I01
sS'my__ALL__'
p4698
I01
sS'she__BOTTOM__'
p4699
I01
sS'made__ALL__'
p4700
I01
sS'good__BOTTOM__'
p4701
I01
sS'it__BOTTOM__'
p4702
I01
sS'think__BOTTOM__'
p4703
I01
sS'friend__ALL__'
p4704
I01
sS'good__ALL__'
p4705
I01
sS'doesnt__ALL__'
p4706
I01
sS'veri__ALL__'
p4707
I01
sS'it__ALL__'
p4708
I01
sa(dp4709
S'post__TOP__'
p4710
I01
sS'given__BOTTOM__'
p4711
I01
sS'post__ALL__'
p4712
I01
sS'day__ALL__'
p4713
I01
sS'touch__TOP__'
p4714
I01
sS'shit__ALL__'
p4715
I01
sS'thi__ALL__'
p4716
I01
sS'touch__ALL__'
p4717
I01
sS'thi__BOTTOM__'
p4718
I01
sS'as__ALL__'
p4719
I01
sS'given__ALL__'
p4720
I01
sS'as__TOP__'
p4721
I01
sS'zero__BOTTOM__'
p4722
I01
sS'are__BOTTOM__'
p4723
I01
sS'your__ALL__'
p4724
I01
sS'shit__BOTTOM__'
p4725
I01
sS'zero__ALL__'
p4726
I01
sS'are__ALL__'
p4727
I01
sS'is__ALL__'
p4728
I01
sS'your__TOP__'
p4729
I01
sS'is__TOP__'
p4730
I01
sS'day__BOTTOM__'
p4731
I01
sa(dp4732
S'.__BOTTOM__'
p4733
I01
sS'f__TOP__'
p4734
I01
sS')__ALL__'
p4735
I01
sS'g__ALL__'
p4736
I01
sS'.__ALL__'
p4737
I01
sS')__TOP__'
p4738
I01
sS'shit__ALL__'
p4739
I01
sS'g__TOP__'
p4740
I01
sS'thi__ALL__'
p4741
I01
sS'?__TOP__'
p4742
I01
sS'here__ALL__'
p4743
I01
sS'thi__BOTTOM__'
p4744
I01
sS'of__ALL__'
p4745
I01
sS'for__ALL__'
p4746
I01
sS'of__BOTTOM__'
p4747
I01
sS'upvot__TOP__'
p4748
I01
sS'upvot__ALL__'
p4749
I01
sS'use__TOP__'
p4750
I01
sS'instead__BOTTOM__'
p4751
I01
sS'here__BOTTOM__'
p4752
I01
sS'for__TOP__'
p4753
I01
sS'(__TOP__'
p4754
I01
sS'instead__ALL__'
p4755
I01
sS'your__ALL__'
p4756
I01
sS'f__ALL__'
p4757
I01
sS'some__BOTTOM__'
p4758
I01
sS'use__ALL__'
p4759
I01
sS'shit__BOTTOM__'
p4760
I01
sS'?__ALL__'
p4761
I01
sS'(__ALL__'
p4762
I01
sS'your__TOP__'
p4763
I01
sS'some__ALL__'
p4764
I01
sa(dp4765
S'comic__ALL__'
p4766
I01
sS'wonder__BOTTOM__'
p4767
I01
sS'got__ALL__'
p4768
I01
sS'about__ALL__'
p4769
I01
sS'thi__ALL__'
p4770
I01
sS'a__TOP__'
p4771
I01
sS'will__ALL__'
p4772
I01
sS'one__ALL__'
p4773
I01
sS'?__TOP__'
p4774
I01
sS'a__ALL__'
p4775
I01
sS'about__TOP__'
p4776
I01
sS'one__BOTTOM__'
p4777
I01
sS'thi__BOTTOM__'
p4778
I01
sS'will__BOTTOM__'
p4779
I01
sS'i__ALL__'
p4780
I01
sS'got__TOP__'
p4781
I01
sS'downvot__ALL__'
p4782
I01
sS'other__ALL__'
p4783
I01
sS'do__ALL__'
p4784
I01
sS'comic__TOP__'
p4785
I01
sS'do__BOTTOM__'
p4786
I01
sS'your__ALL__'
p4787
I01
sS'how__BOTTOM__'
p4788
I01
sS'wonder__ALL__'
p4789
I01
sS'?__ALL__'
p4790
I01
sS'how__TOP__'
p4791
I01
sS'downvot__TOP__'
p4792
I01
sS'i__BOTTOM__'
p4793
I01
sS'your__TOP__'
p4794
I01
sS'other__TOP__'
p4795
I01
sS'how__ALL__'
p4796
I01
sa(dp4797
S'new__ALL__'
p4798
I01
sS'a__TOP__'
p4799
I01
sS'yikessssss__ALL__'
p4800
I01
sS'say__BOTTOM__'
p4801
I01
sS'qb__ALL__'
p4802
I01
sS'lover__BOTTOM__'
p4803
I01
sS'qb__BOTTOM__'
p4804
I01
sS'a__ALL__'
p4805
I01
sS'best__ALL__'
p4806
I01
sS'eli__ALL__'
p4807
I01
sS'york__ALL__'
p4808
I01
sS'eli__BOTTOM__'
p4809
I01
sS'justin__ALL__'
p4810
I01
sS'justin__TOP__'
p4811
I01
sS'lover__ALL__'
p4812
I01
sS'giant__ALL__'
p4813
I01
sS'yikessssss__BOTTOM__'
p4814
I01
sS'york__TOP__'
p4815
I01
sS'is__BOTTOM__'
p4816
I01
sS'best__BOTTOM__'
p4817
I01
sS'giant__TOP__'
p4818
I01
sS'is__ALL__'
p4819
I01
sS'say__ALL__'
p4820
I01
sS'is__TOP__'
p4821
I01
sS'he__ALL__'
p4822
I01
sS'the__ALL__'
p4823
I01
sS'the__BOTTOM__'
p4824
I01
sS'he__BOTTOM__'
p4825
I01
sS'new__TOP__'
p4826
I01
sa(dp4827
S'israel__ALL__'
p4828
I01
sS'hors__TOP__'
p4829
I01
sS'pale__ALL__'
p4830
I01
sS'under__TOP__'
p4831
I01
sS'pale__TOP__'
p4832
I01
sS'hors__ALL__'
p4833
I01
sS'under__ALL__'
p4834
I01
sS'thumb__ALL__'
p4835
I01
sS'the__TOP__'
p4836
I01
sS'israel__BOTTOM__'
p4837
I01
sS'thumb__BOTTOM__'
p4838
I01
sS'keep__TOP__'
p4839
I01
sS'the__ALL__'
p4840
I01
sS'the__BOTTOM__'
p4841
I01
sS'keep__ALL__'
p4842
I01
sa(dp4843
S'asshol__BOTTOM__'
p4844
I01
sS'to__BOTTOM__'
p4845
I01
sS'hey__ALL__'
p4846
I01
sS'girl__TOP__'
p4847
I01
sS'guess__BOTTOM__'
p4848
I01
sS'happen__ALL__'
p4849
I01
sS'happen__BOTTOM__'
p4850
I01
sS'girl__ALL__'
p4851
I01
sS'guess__ALL__'
p4852
I01
sS'who__ALL__'
p4853
I01
sS'asshol__ALL__'
p4854
I01
sS'to__ALL__'
p4855
I01
sS'what__ALL__'
p4856
I01
sS'hey__TOP__'
p4857
I01
sS'who__BOTTOM__'
p4858
I01
sS'what__BOTTOM__'
p4859
I01
sa(dp4860
S'agre__ALL__'
p4861
I01
sS'expert__ALL__'
p4862
I01
sS'africa__BOTTOM__'
p4863
I01
sS'suck__ALL__'
p4864
I01
sS'africa__ALL__'
p4865
I01
sS'agre__TOP__'
p4866
I01
sS'suck__BOTTOM__'
p4867
I01
sS'expert__TOP__'
p4868
I01
sa(dp4869
S'said__TOP__'
p4870
I01
sS'thi__TOP__'
p4871
I01
sS'will__ALL__'
p4872
I01
sS'hell__TOP__'
p4873
I01
sS'were__ALL__'
p4874
I01
sS'thi__ALL__'
p4875
I01
sS'?__TOP__'
p4876
I01
sS'hell__ALL__'
p4877
I01
sS'you__ALL__'
p4878
I01
sS'you__BOTTOM__'
p4879
I01
sS'right__BOTTOM__'
p4880
I01
sS'right__ALL__'
p4881
I01
sS'were__BOTTOM__'
p4882
I01
sS'get__ALL__'
p4883
I01
sS'downvot__ALL__'
p4884
I01
sS'said__ALL__'
p4885
I01
sS'you__TOP__'
p4886
I01
sS'to__ALL__'
p4887
I01
sS'?__ALL__'
p4888
I01
sS'get__TOP__'
p4889
I01
sS'to__TOP__'
p4890
I01
sS'downvot__TOP__'
p4891
I01
sS'will__TOP__'
p4892
I01
sa(dp4893
S'edit__TOP__'
p4894
I01
sS'downvot__ALL__'
p4895
I01
sS':__ALL__'
p4896
I01
sS'!__TOP__'
p4897
I01
sS'omg__BOTTOM__'
p4898
I01
sS'!__ALL__'
p4899
I01
sS'edit__ALL__'
p4900
I01
sS'thank__ALL__'
p4901
I01
sS'guy__TOP__'
p4902
I01
sS'page__TOP__'
p4903
I01
sS'front__ALL__'
p4904
I01
sS'page__ALL__'
p4905
I01
sS'omg__ALL__'
p4906
I01
sS'downvot__BOTTOM__'
p4907
I01
sS'guy__ALL__'
p4908
I01
sS'thank__TOP__'
p4909
I01
sS'front__TOP__'
p4910
I01
sS'omg__TOP__'
p4911
I01
sS':__TOP__'
p4912
I01
sa(dp4913
S'.__BOTTOM__'
p4914
I01
sS'probabl__ALL__'
p4915
I01
sS'there__BOTTOM__'
p4916
I01
sS'reason__BOTTOM__'
p4917
I01
sS'there__ALL__'
p4918
I01
sS'post__TOP__'
p4919
I01
sS'so__ALL__'
p4920
I01
sS'reason__ALL__'
p4921
I01
sS'post__ALL__'
p4922
I01
sS'.__ALL__'
p4923
I01
sS'?__TOP__'
p4924
I01
sS'a__ALL__'
p4925
I01
sS'about__TOP__'
p4926
I01
sS'probabl__BOTTOM__'
p4927
I01
sS'about__ALL__'
p4928
I01
sS'so__TOP__'
p4929
I01
sS'get__ALL__'
p4930
I01
sS'downvot__ALL__'
p4931
I01
sS'your__ALL__'
p4932
I01
sS'is__BOTTOM__'
p4933
I01
sS'?__ALL__'
p4934
I01
sS'a__BOTTOM__'
p4935
I01
sS'get__TOP__'
p4936
I01
sS'downvot__TOP__'
p4937
I01
sS'is__ALL__'
p4938
I01
sS'your__TOP__'
p4939
I01
sa(dp4940
S'edit__TOP__'
p4941
I01
sS'thi__TOP__'
p4942
I01
sS':__ALL__'
p4943
I01
sS'can__ALL__'
p4944
I01
sS'lol__TOP__'
p4945
I01
sS'edit__ALL__'
p4946
I01
sS'cant__TOP__'
p4947
I01
sS'lol__ALL__'
p4948
I01
sS'most__TOP__'
p4949
I01
sS'thi__ALL__'
p4950
I01
sS'can__BOTTOM__'
p4951
I01
sS'!__TOP__'
p4952
I01
sS'upvot__TOP__'
p4953
I01
sS'neither__BOTTOM__'
p4954
I01
sS'believ__ALL__'
p4955
I01
sS'upvot__ALL__'
p4956
I01
sS'believ__TOP__'
p4957
I01
sS'i__ALL__'
p4958
I01
sS'most__ALL__'
p4959
I01
sS'comment__TOP__'
p4960
I01
sS'neither__ALL__'
p4961
I01
sS'i__TOP__'
p4962
I01
sS'cant__ALL__'
p4963
I01
sS'my__TOP__'
p4964
I01
sS'i__BOTTOM__'
p4965
I01
sS'is__ALL__'
p4966
I01
sS'!__ALL__'
p4967
I01
sS'my__ALL__'
p4968
I01
sS'is__TOP__'
p4969
I01
sS'comment__ALL__'
p4970
I01
sS':__TOP__'
p4971
I01
sa(dp4972
S'asshol__BOTTOM__'
p4973
I01
sS'downstair__ALL__'
p4974
I01
sS'downstair__BOTTOM__'
p4975
I01
sS'to__BOTTOM__'
p4976
I01
sS'hey__ALL__'
p4977
I01
sS'girl__TOP__'
p4978
I01
sS'guess__BOTTOM__'
p4979
I01
sS'live__BOTTOM__'
p4980
I01
sS'happen__ALL__'
p4981
I01
sS'happen__BOTTOM__'
p4982
I01
sS'girl__ALL__'
p4983
I01
sS'guess__ALL__'
p4984
I01
sS'who__ALL__'
p4985
I01
sS'asshol__ALL__'
p4986
I01
sS'to__ALL__'
p4987
I01
sS'what__ALL__'
p4988
I01
sS'hey__TOP__'
p4989
I01
sS'who__BOTTOM__'
p4990
I01
sS'what__BOTTOM__'
p4991
I01
sS'live__ALL__'
p4992
I01
sa(dp4993
S'but__ALL__'
p4994
I01
sS'secur__BOTTOM__'
p4995
I01
sS'a__TOP__'
p4996
I01
sS'social__ALL__'
p4997
I01
sS'and__ALL__'
p4998
I01
sS'and__BOTTOM__'
p4999
I01
sS'i__BOTTOM__'
p5000
I01
sS'rumpl__TOP__'
p5001
I01
sS'a__ALL__'
p5002
I01
sS'rumpl__ALL__'
p5003
I01
sS'yesterday__TOP__'
p5004
I01
sS'today__ALL__'
p5005
I01
sS'but__BOTTOM__'
p5006
I01
sS'am__ALL__'
p5007
I01
sS'thu__ALL__'
p5008
I01
sS'god__BOTTOM__'
p5009
I01
sS'lawyer__ALL__'
p5010
I01
sS'wa__ALL__'
p5011
I01
sS'lawyer__TOP__'
p5012
I01
sS'i__ALL__'
p5013
I01
sS'secur__ALL__'
p5014
I01
sS'today__BOTTOM__'
p5015
I01
sS'god__ALL__'
p5016
I01
sS'mere__ALL__'
p5017
I01
sS'a__BOTTOM__'
p5018
I01
sS'yesterday__ALL__'
p5019
I01
sS'i__TOP__'
p5020
I01
sS'suit__ALL__'
p5021
I01
sS'am__BOTTOM__'
p5022
I01
sS'wa__TOP__'
p5023
I01
sS'thu__BOTTOM__'
p5024
I01
sS'alj__BOTTOM__'
p5025
I01
sS'social__BOTTOM__'
p5026
I01
sS'alj__ALL__'
p5027
I01
sS'suit__TOP__'
p5028
I01
sS'mere__TOP__'
p5029
I01
sa(dp5030
S'photo__TOP__'
p5031
I01
sS'real__ALL__'
p5032
I01
sS'photo__ALL__'
p5033
I01
sS'real__TOP__'
p5034
I01
sS'are__BOTTOM__'
p5035
I01
sS'bad__ALL__'
p5036
I01
sS'you__ALL__'
p5037
I01
sS'unedit__TOP__'
p5038
I01
sS'are__ALL__'
p5039
I01
sS'bad__TOP__'
p5040
I01
sS'you__BOTTOM__'
p5041
I01
sS'how__BOTTOM__'
p5042
I01
sS'unedit__ALL__'
p5043
I01
sS'right__BOTTOM__'
p5044
I01
sS'how__ALL__'
p5045
I01
sS'right__ALL__'
p5046
I01
sa(dp5047
S'to__ALL__'
p5048
I01
sS'go__BOTTOM__'
p5049
I01
sS'gauntlet__ALL__'
p5050
I01
sS'gauntlet__BOTTOM__'
p5051
I01
sS'to__BOTTOM__'
p5052
I01
sS'misbehav__ALL__'
p5053
I01
sS'misbehav__TOP__'
p5054
I01
sS'now__BOTTOM__'
p5055
I01
sS'you__TOP__'
p5056
I01
sS'the__ALL__'
p5057
I01
sS'now__ALL__'
p5058
I01
sS'you__ALL__'
p5059
I01
sS'the__BOTTOM__'
p5060
I01
sS'go__ALL__'
p5061
I01
sa(dp5062
S'?__TOP__'
p5063
I01
sS'upvot__BOTTOM__'
p5064
I01
sS'?__BOTTOM__'
p5065
I01
sS'whi__BOTTOM__'
p5066
I01
sS'whi__ALL__'
p5067
I01
sS'downvot__ALL__'
p5068
I01
sS'upvot__ALL__'
p5069
I01
sS'?__ALL__'
p5070
I01
sS'downvot__TOP__'
p5071
I01
sS'the__TOP__'
p5072
I01
sS'the__BOTTOM__'
p5073
I01
sS'the__ALL__'
p5074
I01
sS'whi__TOP__'
p5075
I01
sa(dp5076
S'cant__TOP__'
p5077
I01
sS'?__ALL__'
p5078
I01
sS'enough__ALL__'
p5079
I01
sS'enough__BOTTOM__'
p5080
I01
sS'upvot__ALL__'
p5081
I01
sS'cant__ALL__'
p5082
I01
sS'him__TOP__'
p5083
I01
sS'i__ALL__'
p5084
I01
sS'cant__BOTTOM__'
p5085
I01
sS'i__BOTTOM__'
p5086
I01
sS'you__TOP__'
p5087
I01
sS'him__ALL__'
p5088
I01
sS'?__TOP__'
p5089
I01
sS'downvot__BOTTOM__'
p5090
I01
sS'you__ALL__'
p5091
I01
sS'you__BOTTOM__'
p5092
I01
sS'enough__TOP__'
p5093
I01
sS'downvot__ALL__'
p5094
I01
sS'upvot__TOP__'
p5095
I01
sa(dp5096
S'the__TOP__'
p5097
I01
sS'now__ALL__'
p5098
I01
sS'gauntlet__ALL__'
p5099
I01
sS'gauntlet__BOTTOM__'
p5100
I01
sS'now__TOP__'
p5101
I01
sS'the__ALL__'
p5102
I01
sS'shall__ALL__'
p5103
I01
sS'to__TOP__'
p5104
I01
sS'you__TOP__'
p5105
I01
sS'be__ALL__'
p5106
I01
sS'taken__ALL__'
p5107
I01
sS'shall__TOP__'
p5108
I01
sS'to__ALL__'
p5109
I01
sS'you__ALL__'
p5110
I01
sS'taken__TOP__'
p5111
I01
sS'be__TOP__'
p5112
I01
sa(dp5113
S'code__TOP__'
p5114
I01
sS'code__ALL__'
p5115
I01
sS'suck__ALL__'
p5116
I01
sS'your__TOP__'
p5117
I01
sS'it__BOTTOM__'
p5118
I01
sS'suck__BOTTOM__'
p5119
I01
sS'your__ALL__'
p5120
I01
sS'it__ALL__'
p5121
I01
sa(dp5122
S'make__ALL__'
p5123
I01
sS'a__TOP__'
p5124
I01
sS'grandma__TOP__'
p5125
I01
sS'show__ALL__'
p5126
I01
sS'show__TOP__'
p5127
I01
sS'a__ALL__'
p5128
I01
sS'?__TOP__'
p5129
I01
sS'you__ALL__'
p5130
I01
sS'bullshit__BOTTOM__'
p5131
I01
sS'meme__ALL__'
p5132
I01
sS'bullshit__ALL__'
p5133
I01
sS'you__TOP__'
p5134
I01
sS'your__ALL__'
p5135
I01
sS'to__ALL__'
p5136
I01
sS'?__ALL__'
p5137
I01
sS'how__TOP__'
p5138
I01
sS'meme__TOP__'
p5139
I01
sS'to__TOP__'
p5140
I01
sS'your__TOP__'
p5141
I01
sS'make__TOP__'
p5142
I01
sS'how__ALL__'
p5143
I01
sS'grandma__ALL__'
p5144
I01
sa(dp5145
S'ani__ALL__'
p5146
I01
sS'i__TOP__'
p5147
I01
sS'not__TOP__'
p5148
I01
sS'ani__BOTTOM__'
p5149
I01
sS'fuck__ALL__'
p5150
I01
sS'fuck__BOTTOM__'
p5151
I01
sS'shall__ALL__'
p5152
I01
sS'give__ALL__'
p5153
I01
sS'not__ALL__'
p5154
I01
sS'shall__TOP__'
p5155
I01
sS'give__BOTTOM__'
p5156
I01
sS'i__ALL__'
p5157
I01
sa(dp5158
S'check__TOP__'
p5159
I01
sS'i__TOP__'
p5160
I01
sS'check__ALL__'
p5161
I01
sS'it__TOP__'
p5162
I01
sS'i__ALL__'
p5163
I01
sS'lie__ALL__'
p5164
I01
sS'it__BOTTOM__'
p5165
I01
sS'it__ALL__'
p5166
I01
sS'lie__BOTTOM__'
p5167
I01
sa(dp5168
S'post__ALL__'
p5169
I01
sS'thi__TOP__'
p5170
I01
sS'downvot__ALL__'
p5171
I01
sS'everytim__BOTTOM__'
p5172
I01
sS'i__ALL__'
p5173
I01
sS'thi__ALL__'
p5174
I01
sS'me__ALL__'
p5175
I01
sS'i__BOTTOM__'
p5176
I01
sS'is__ALL__'
p5177
I01
sS'is__TOP__'
p5178
I01
sS'post__BOTTOM__'
p5179
I01
sS'me__TOP__'
p5180
I01
sS'downvot__BOTTOM__'
p5181
I01
sS'your__ALL__'
p5182
I01
sS'your__BOTTOM__'
p5183
I01
sS'everytim__ALL__'
p5184
I01
sa(dp5185
S'fuck__TOP__'
p5186
I01
sS'a__ALL__'
p5187
I01
sS'never__BOTTOM__'
p5188
I01
sS'never__ALL__'
p5189
I01
sS'style__ALL__'
p5190
I01
sS'style__BOTTOM__'
p5191
I01
sS'a__TOP__'
p5192
I01
sS'fuck__ALL__'
p5193
I01
sS'been__BOTTOM__'
p5194
I01
sS'my__ALL__'
p5195
I01
sS'give__ALL__'
p5196
I01
sS'been__ALL__'
p5197
I01
sS'my__BOTTOM__'
p5198
I01
sS'give__TOP__'
p5199
I01
sa(dp5200
S'meyer__BOTTOM__'
p5201
I01
sS'meyer__ALL__'
p5202
I01
sS'watch__TOP__'
p5203
I01
sS'decid__ALL__'
p5204
I01
sS'decid__BOTTOM__'
p5205
I01
sS'fate__ALL__'
p5206
I01
sS'watch__ALL__'
p5207
I01
sS'twilight__ALL__'
p5208
I01
sS'fate__BOTTOM__'
p5209
I01
sS'twilight__TOP__'
p5210
I01
sa(dp5211
S'matt__TOP__'
p5212
I01
sS'sitarski__ALL__'
p5213
I01
sS'!__BOTTOM__'
p5214
I01
sS'!__ALL__'
p5215
I01
sS'sitarski__TOP__'
p5216
I01
sS'suck__ALL__'
p5217
I01
sS'you__ALL__'
p5218
I01
sS'suck__BOTTOM__'
p5219
I01
sS'matt__ALL__'
p5220
I01
sS'you__BOTTOM__'
p5221
I01
sa(dp5222
S'dont__ALL__'
p5223
I01
sS'dont__BOTTOM__'
p5224
I01
sS'to__BOTTOM__'
p5225
I01
sS'post__TOP__'
p5226
I01
sS'me__ALL__'
p5227
I01
sS'post__ALL__'
p5228
I01
sS'what__ALL__'
p5229
I01
sS'it__TOP__'
p5230
I01
sS'nice__ALL__'
p5231
I01
sS'be__TOP__'
p5232
I01
sS'tell__ALL__'
p5233
I01
sS'tell__BOTTOM__'
p5234
I01
sS'first__TOP__'
p5235
I01
sS'first__ALL__'
p5236
I01
sS'nice__TOP__'
p5237
I01
sS'me__BOTTOM__'
p5238
I01
sS'be__ALL__'
p5239
I01
sS'it__ALL__'
p5240
I01
sS'do__BOTTOM__'
p5241
I01
sS'what__BOTTOM__'
p5242
I01
sS'to__ALL__'
p5243
I01
sS'do__ALL__'
p5244
I01
sS'my__TOP__'
p5245
I01
sS'my__ALL__'
p5246
I01
sa(dp5247
S'to__ALL__'
p5248
I01
sS'to__BOTTOM__'
p5249
I01
sS'dumb__BOTTOM__'
p5250
I01
sS'say__ALL__'
p5251
I01
sS'no__TOP__'
p5252
I01
sS'say__TOP__'
p5253
I01
sS'dumb__ALL__'
p5254
I01
sS'no__ALL__'
p5255
I01
sa(dp5256
S'by__BOTTOM__'
p5257
I01
sS'thi__TOP__'
p5258
I01
sS'not__ALL__'
p5259
I01
sS'will__ALL__'
p5260
I01
sS'kingdom__ALL__'
p5261
I01
sS'thi__ALL__'
p5262
I01
sS'mindless__ALL__'
p5263
I01
sS'disgrac__ALL__'
p5264
I01
sS'will__BOTTOM__'
p5265
I01
sS'bass__ALL__'
p5266
I01
sS'bass__BOTTOM__'
p5267
I01
sS'wobbl__BOTTOM__'
p5268
I01
sS'by__ALL__'
p5269
I01
sS'wobbl__ALL__'
p5270
I01
sS'!__TOP__'
p5271
I01
sS'ur__BOTTOM__'
p5272
I01
sS'kingdom__TOP__'
p5273
I01
sS'mindless__BOTTOM__'
p5274
I01
sS'be__ALL__'
p5275
I01
sS'be__BOTTOM__'
p5276
I01
sS'!__ALL__'
p5277
I01
sS'ur__ALL__'
p5278
I01
sS'disgrac__BOTTOM__'
p5279
I01
sS'not__BOTTOM__'
p5280
I01
sa(dp5281
S'agre__ALL__'
p5282
I01
sS'expert__ALL__'
p5283
I01
sS'suck__ALL__'
p5284
I01
sS'you__ALL__'
p5285
I01
sS'agre__TOP__'
p5286
I01
sS'suck__BOTTOM__'
p5287
I01
sS'expert__TOP__'
p5288
I01
sS'you__BOTTOM__'
p5289
I01
sa(dp5290
S'maker__TOP__'
p5291
I01
sS'year__ALL__'
p5292
I01
sS'maker__ALL__'
p5293
I01
sS'8__ALL__'
p5294
I01
sS'old__TOP__'
p5295
I01
sS'year__TOP__'
p5296
I01
sS'the__TOP__'
p5297
I01
sS'show__ALL__'
p5298
I01
sS'cousin__TOP__'
p5299
I01
sS'limit__ALL__'
p5300
I01
sS'rage__ALL__'
p5301
I01
sS'show__TOP__'
p5302
I01
sS'humor__BOTTOM__'
p5303
I01
sS'hi__ALL__'
p5304
I01
sS'rage__TOP__'
p5305
I01
sS'cousin__ALL__'
p5306
I01
sS'8__TOP__'
p5307
I01
sS'hi__BOTTOM__'
p5308
I01
sS'is__BOTTOM__'
p5309
I01
sS'humor__ALL__'
p5310
I01
sS'old__ALL__'
p5311
I01
sS'is__ALL__'
p5312
I01
sS'limit__BOTTOM__'
p5313
I01
sS'the__ALL__'
p5314
I01
sa(dp5315
S'.__BOTTOM__'
p5316
I01
sS'it__TOP__'
p5317
I01
sS'i__TOP__'
p5318
I01
sS'.__ALL__'
p5319
I01
sS'no__BOTTOM__'
p5320
I01
sS'right__TOP__'
p5321
I01
sS'i__ALL__'
p5322
I01
sS'am__ALL__'
p5323
I01
sS'?__TOP__'
p5324
I01
sS'do__ALL__'
p5325
I01
sS'it__ALL__'
p5326
I01
sS'?__ALL__'
p5327
I01
sS'am__TOP__'
p5328
I01
sS'no__ALL__'
p5329
I01
sS'do__TOP__'
p5330
I01
sS'right__ALL__'
p5331
I01
sa(dp5332
S'make__ALL__'
p5333
I01
sS'thi__TOP__'
p5334
I01
sS'girlfriend__ALL__'
p5335
I01
sS'about__ALL__'
p5336
I01
sS'a__TOP__'
p5337
I01
sS'downvot__BOTTOM__'
p5338
I01
sS'me__ALL__'
p5339
I01
sS'50__BOTTOM__'
p5340
I01
sS'will__ALL__'
p5341
I01
sS'and__BOTTOM__'
p5342
I01
sS'girlfriend__TOP__'
p5343
I01
sS'if__TOP__'
p5344
I01
sS'a__ALL__'
p5345
I01
sS'cerial__TOP__'
p5346
I01
sS'and__ALL__'
p5347
I01
sS'cerial__ALL__'
p5348
I01
sS'fuck__ALL__'
p5349
I01
sS'upvot__ALL__'
p5350
I01
sS'thi__ALL__'
p5351
I01
sS'me__TOP__'
p5352
I01
sS'if__ALL__'
p5353
I01
sS'of__ALL__'
p5354
I01
sS'fuck__BOTTOM__'
p5355
I01
sS'of__BOTTOM__'
p5356
I01
sS'upvot__TOP__'
p5357
I01
sS'50__TOP__'
p5358
I01
sS'get__ALL__'
p5359
I01
sS'about__BOTTOM__'
p5360
I01
sS'downvot__ALL__'
p5361
I01
sS'shut__ALL__'
p5362
I01
sS'bowl__ALL__'
p5363
I01
sS'of__TOP__'
p5364
I01
sS'bowl__TOP__'
p5365
I01
sS'how__BOTTOM__'
p5366
I01
sS'up__ALL__'
p5367
I01
sS'a__BOTTOM__'
p5368
I01
sS'the__ALL__'
p5369
I01
sS'my__TOP__'
p5370
I01
sS'get__TOP__'
p5371
I01
sS'up__BOTTOM__'
p5372
I01
sS'how__ALL__'
p5373
I01
sS'my__ALL__'
p5374
I01
sS'50__ALL__'
p5375
I01
sS'make__TOP__'
p5376
I01
sS'the__BOTTOM__'
p5377
I01
sS'will__TOP__'
p5378
I01
sS'shut__BOTTOM__'
p5379
I01
sS'bowl__BOTTOM__'
p5380
I01
sa(dp5381
S'logic__TOP__'
p5382
I01
sS'downvot__ALL__'
p5383
I01
sS'prove__ALL__'
p5384
I01
sS'me__ALL__'
p5385
I01
sS'you__TOP__'
p5386
I01
sS'wrong__ALL__'
p5387
I01
sS'prove__TOP__'
p5388
I01
sS'me__TOP__'
p5389
I01
sS'downvot__BOTTOM__'
p5390
I01
sS'you__ALL__'
p5391
I01
sS'logic__ALL__'
p5392
I01
sS'wrong__TOP__'
p5393
I01
sa(dp5394
S'help__ALL__'
p5395
I01
sS'edit__TOP__'
p5396
I01
sS'expect__ALL__'
p5397
I01
sS':__ALL__'
p5398
I01
sS'expect__TOP__'
p5399
I01
sS'so__ALL__'
p5400
I01
sS'help__BOTTOM__'
p5401
I01
sS'edit__ALL__'
p5402
I01
sS'didnt__TOP__'
p5403
I01
sS'your__BOTTOM__'
p5404
I01
sS'upvot__ALL__'
p5405
I01
sS'so__TOP__'
p5406
I01
sS'you__ALL__'
p5407
I01
sS'you__BOTTOM__'
p5408
I01
sS'let__BOTTOM__'
p5409
I01
sS'!__TOP__'
p5410
I01
sS'upvot__TOP__'
p5411
I01
sS'me__BOTTOM__'
p5412
I01
sS'get__ALL__'
p5413
I01
sS'i__ALL__'
p5414
I01
sS'reach__BOTTOM__'
p5415
I01
sS'!__ALL__'
p5416
I01
sS'mani__ALL__'
p5417
I01
sS'your__ALL__'
p5418
I01
sS'let__ALL__'
p5419
I01
sS'to__ALL__'
p5420
I01
sS'i__TOP__'
p5421
I01
sS'me__ALL__'
p5422
I01
sS'get__TOP__'
p5423
I01
sS'to__TOP__'
p5424
I01
sS'reach__ALL__'
p5425
I01
sS'mani__TOP__'
p5426
I01
sS'expect__BOTTOM__'
p5427
I01
sS'didnt__ALL__'
p5428
I01
sS':__TOP__'
p5429
I01
sa(dp5430
S'reddit__ALL__'
p5431
I01
sS'youintroduc__TOP__'
p5432
I01
sS'bad__ALL__'
p5433
I01
sS'than__ALL__'
p5434
I01
sS'ha__ALL__'
p5435
I01
sS'youintroduc__ALL__'
p5436
I01
sS'more__ALL__'
p5437
I01
sS'than__TOP__'
p5438
I01
sS'ha__TOP__'
p5439
I01
sS'you__ALL__'
p5440
I01
sS'friend__TOP__'
p5441
I01
sS'friend__ALL__'
p5442
I01
sS'more__TOP__'
p5443
I01
sS'too__ALL__'
p5444
I01
sS'you__TOP__'
p5445
I01
sS'karma__ALL__'
p5446
I01
sS'to__ALL__'
p5447
I01
sS'karma__TOP__'
p5448
I01
sS'reddit__TOP__'
p5449
I01
sS'to__TOP__'
p5450
I01
sS'too__BOTTOM__'
p5451
I01
sS'bad__BOTTOM__'
p5452
I01
sa(dp5453
S'!__ALL__'
p5454
I01
sS'doubl__BOTTOM__'
p5455
I01
sS'!__BOTTOM__'
p5456
I01
sS'karma__TOP__'
p5457
I01
sS'downvot__ALL__'
p5458
I01
sS'doubl__ALL__'
p5459
I01
sS'?__TOP__'
p5460
I01
sS'downvot__BOTTOM__'
p5461
I01
sS'?__ALL__'
p5462
I01
sS'karma__ALL__'
p5463
I01
sS'doubl__TOP__'
p5464
I01
sa(dp5465
S'man__BOTTOM__'
p5466
I01
sS'fuck__TOP__'
p5467
I01
sS'unit__ALL__'
p5468
I01
sS'?__BOTTOM__'
p5469
I01
sS'unit__BOTTOM__'
p5470
I01
sS'are__ALL__'
p5471
I01
sS'fuck__ALL__'
p5472
I01
sS'are__BOTTOM__'
p5473
I01
sS'the__TOP__'
p5474
I01
sS'who__ALL__'
p5475
I01
sS'who__TOP__'
p5476
I01
sS'the__ALL__'
p5477
I01
sS'?__ALL__'
p5478
I01
sS'man__ALL__'
p5479
I01
sa(dp5480
S'screw__ALL__'
p5481
I01
sS'mess__TOP__'
p5482
I01
sS'with__TOP__'
p5483
I01
sS'!__BOTTOM__'
p5484
I01
sS'screw__BOTTOM__'
p5485
I01
sS'with__ALL__'
p5486
I01
sS'role__TOP__'
p5487
I01
sS'you__TOP__'
p5488
I01
sS'!__ALL__'
p5489
I01
sS'hcm__TOP__'
p5490
I01
sS'mess__ALL__'
p5491
I01
sS'if__ALL__'
p5492
I01
sS'you__ALL__'
p5493
I01
sS'your__ALL__'
p5494
I01
sS'your__BOTTOM__'
p5495
I01
sS'hcm__ALL__'
p5496
I01
sS'role__ALL__'
p5497
I01
sS'if__TOP__'
p5498
I01
sa(dp5499
S'la__ALL__'
p5500
I01
sS'de__TOP__'
p5501
I01
sS'seguir__BOTTOM__'
p5502
I01
sS'lo__ALL__'
p5503
I01
sS'leon__BOTTOM__'
p5504
I01
sS'nutricion__ALL__'
p5505
I01
sS'tradicion__BOTTOM__'
p5506
I01
sS'ramo__TOP__'
p5507
I01
sS'se__TOP__'
p5508
I01
sS'a__ALL__'
p5509
I01
sS'no__BOTTOM__'
p5510
I01
sS'de__ALL__'
p5511
I01
sS'?__TOP__'
p5512
I01
sS'por__BOTTOM__'
p5513
I01
sS'que__TOP__'
p5514
I01
sS'se__ALL__'
p5515
I01
sS'tradicion__ALL__'
p5516
I01
sS'echa__TOP__'
p5517
I01
sS'wne__ALL__'
p5518
I01
sS'echa__ALL__'
p5519
I01
sS'seguir__ALL__'
p5520
I01
sS'por__ALL__'
p5521
I01
sS'no__TOP__'
p5522
I01
sS'la__BOTTOM__'
p5523
I01
sS'nutricion__TOP__'
p5524
I01
sS'que__ALL__'
p5525
I01
sS'?__ALL__'
p5526
I01
sS'a__BOTTOM__'
p5527
I01
sS'wne__TOP__'
p5528
I01
sS'leon__ALL__'
p5529
I01
sS'hombr__TOP__'
p5530
I01
sS'hombr__ALL__'
p5531
I01
sS'no__ALL__'
p5532
I01
sS'ramo__ALL__'
p5533
I01
sS'lo__BOTTOM__'
p5534
I01
sa(dp5535
S'onli__TOP__'
p5536
I01
sS'?__TOP__'
p5537
I01
sS'test__BOTTOM__'
p5538
I01
sS'?__ALL__'
p5539
I01
sS'theori__ALL__'
p5540
I01
sS'test__ALL__'
p5541
I01
sS'live__ALL__'
p5542
I01
sS'onc__TOP__'
p5543
I01
sS'you__TOP__'
p5544
I01
sS'onli__ALL__'
p5545
I01
sS'that__ALL__'
p5546
I01
sS'that__BOTTOM__'
p5547
I01
sS'onc__ALL__'
p5548
I01
sS'you__ALL__'
p5549
I01
sS'theori__BOTTOM__'
p5550
I01
sS'let__BOTTOM__'
p5551
I01
sS'live__TOP__'
p5552
I01
sS'let__ALL__'
p5553
I01
sa(dp5554
S'to__ALL__'
p5555
I01
sS'helicopterjim__TOP__'
p5556
I01
sS'reaction__TOP__'
p5557
I01
sS'!__BOTTOM__'
p5558
I01
sS'helicopterjim__ALL__'
p5559
I01
sS'freddie..__ALL__'
p5560
I01
sS'to__TOP__'
p5561
I01
sS'reaction__ALL__'
p5562
I01
sS'!__ALL__'
p5563
I01
sS'and__ALL__'
p5564
I01
sS'downvot__BOTTOM__'
p5565
I01
sS'freddie..__TOP__'
p5566
I01
sS'downvot__ALL__'
p5567
I01
sS'and__TOP__'
p5568
I01
sa(dp5569
S'.__BOTTOM__'
p5570
I01
sS'dont__ALL__'
p5571
I01
sS'dont__BOTTOM__'
p5572
I01
sS'.__ALL__'
p5573
I01
sS'barg__TOP__'
p5574
I01
sS'to__BOTTOM__'
p5575
I01
sS'sand__ALL__'
p5576
I01
sS'rescu__ALL__'
p5577
I01
sS'shelter__ALL__'
p5578
I01
sS'oh__TOP__'
p5579
I01
sS'i__BOTTOM__'
p5580
I01
sS'barg__ALL__'
p5581
I01
sS'direct__ALL__'
p5582
I01
sS'a__ALL__'
p5583
I01
sS'whi__BOTTOM__'
p5584
I01
sS'from__ALL__'
p5585
I01
sS'sand__TOP__'
p5586
I01
sS'rescu__TOP__'
p5587
I01
sS'jabba__TOP__'
p5588
I01
sS'kitten__ALL__'
p5589
I01
sS'you__ALL__'
p5590
I01
sS'you__BOTTOM__'
p5591
I01
sS'kitten__TOP__'
p5592
I01
sS'from__TOP__'
p5593
I01
sS'direct__BOTTOM__'
p5594
I01
sS'to__ALL__'
p5595
I01
sS'i__ALL__'
p5596
I01
sS'you__TOP__'
p5597
I01
sS'that__ALL__'
p5598
I01
sS'jabba__ALL__'
p5599
I01
sS'that__TOP__'
p5600
I01
sS'whi__ALL__'
p5601
I01
sS'a__BOTTOM__'
p5602
I01
sS'shelter__BOTTOM__'
p5603
I01
sS'oh__ALL__'
p5604
I01
sa(dp5605
S'.__BOTTOM__'
p5606
I01
sS'clear__ALL__'
p5607
I01
sS'.__ALL__'
p5608
I01
sS'meekro__ALL__'
p5609
I01
sS'matter__BOTTOM__'
p5610
I01
sS'on__ALL__'
p5611
I01
sS'made__BOTTOM__'
p5612
I01
sS'meekro__TOP__'
p5613
I01
sS'opinion__BOTTOM__'
p5614
I01
sS'thi__ALL__'
p5615
I01
sS'made__ALL__'
p5616
I01
sS'hi__BOTTOM__'
p5617
I01
sS'clear__BOTTOM__'
p5618
I01
sS'hi__ALL__'
p5619
I01
sS'thi__BOTTOM__'
p5620
I01
sS'on__BOTTOM__'
p5621
I01
sS'ha__BOTTOM__'
p5622
I01
sS'matter__ALL__'
p5623
I01
sS'ha__ALL__'
p5624
I01
sS'opinion__ALL__'
p5625
I01
sa(dp5626
S'.__BOTTOM__'
p5627
I01
sS'.__ALL__'
p5628
I01
sS'didnt__TOP__'
p5629
I01
sS'post__TOP__'
p5630
I01
sS'post__ALL__'
p5631
I01
sS'will__ALL__'
p5632
I01
sS'thi__ALL__'
p5633
I01
sS'one__BOTTOM__'
p5634
I01
sS'thi__BOTTOM__'
p5635
I01
sS'will__BOTTOM__'
p5636
I01
sS'neither__BOTTOM__'
p5637
I01
sS'get__ALL__'
p5638
I01
sS'love__ALL__'
p5639
I01
sS'much__TOP__'
p5640
I01
sS'love__TOP__'
p5641
I01
sS'neither__ALL__'
p5642
I01
sS'my__TOP__'
p5643
I01
sS'get__TOP__'
p5644
I01
sS'one__ALL__'
p5645
I01
sS'my__ALL__'
p5646
I01
sS'last__TOP__'
p5647
I01
sS'last__ALL__'
p5648
I01
sS'didnt__ALL__'
p5649
I01
sS'much__ALL__'
p5650
I01
sa(dp5651
S'to__ALL__'
p5652
I01
sS'time__ALL__'
p5653
I01
sS'time__BOTTOM__'
p5654
I01
sS'gauntlet__BOTTOM__'
p5655
I01
sS'to__BOTTOM__'
p5656
I01
sS'misbehav__ALL__'
p5657
I01
sS'gauntlet__ALL__'
p5658
I01
sS'put__ALL__'
p5659
I01
sS'misbehav__TOP__'
p5660
I01
sS'put__BOTTOM__'
p5661
I01
sS'you__TOP__'
p5662
I01
sS'the__ALL__'
p5663
I01
sS'in__BOTTOM__'
p5664
I01
sS'the__BOTTOM__'
p5665
I01
sS'you__ALL__'
p5666
I01
sS'you__BOTTOM__'
p5667
I01
sS'in__ALL__'
p5668
I01
sa(dp5669
S'i__ALL__'
p5670
I01
sS'downvot__ALL__'
p5671
I01
sS'pictur__ALL__'
p5672
I01
sS'post__TOP__'
p5673
I01
sS'my__TOP__'
p5674
I01
sS'downvot__BOTTOM__'
p5675
I01
sS'pictur__TOP__'
p5676
I01
sS'post__ALL__'
p5677
I01
sS'on__ALL__'
p5678
I01
sS'my__ALL__'
p5679
I01
sS'no__TOP__'
p5680
I01
sS'their__BOTTOM__'
p5681
I01
sS'i__BOTTOM__'
p5682
I01
sS'on__TOP__'
p5683
I01
sS'their__ALL__'
p5684
I01
sS'no__ALL__'
p5685
I01
sa(dp5686
S'.__BOTTOM__'
p5687
I01
sS'go__BOTTOM__'
p5688
I01
sS'yal__TOP__'
p5689
I01
sS'go__ALL__'
p5690
I01
sS'work__ALL__'
p5691
I01
sS'i__ALL__'
p5692
I01
sS'howit__BOTTOM__'
p5693
I01
sS'smart__ALL__'
p5694
I01
sS'smart__BOTTOM__'
p5695
I01
sS'howit__ALL__'
p5696
I01
sS'i__BOTTOM__'
p5697
I01
sS'work__BOTTOM__'
p5698
I01
sS'hard__TOP__'
p5699
I01
sS'hard__ALL__'
p5700
I01
sS'.__ALL__'
p5701
I01
sS'yal__ALL__'
p5702
I01
sS'go__TOP__'
p5703
I01
sa(dp5704
S'into__ALL__'
p5705
I01
sS'shall__ALL__'
p5706
I01
sS'gauntlet__ALL__'
p5707
I01
sS'into__BOTTOM__'
p5708
I01
sS'throw__ALL__'
p5709
I01
sS'misbehav__ALL__'
p5710
I01
sS'shall__BOTTOM__'
p5711
I01
sS'the__ALL__'
p5712
I01
sS'so__ALL__'
p5713
I01
sS'misbehav__TOP__'
p5714
I01
sS'throw__BOTTOM__'
p5715
I01
sS'so__BOTTOM__'
p5716
I01
sS'you__TOP__'
p5717
I01
sS'we__ALL__'
p5718
I01
sS'we__BOTTOM__'
p5719
I01
sS'the__BOTTOM__'
p5720
I01
sS'you__ALL__'
p5721
I01
sS'you__BOTTOM__'
p5722
I01
sS'gauntlet__BOTTOM__'
p5723
I01
sa(dp5724
S'reddit__ALL__'
p5725
I01
sS'!__ALL__'
p5726
I01
sS'!__BOTTOM__'
p5727
I01
sS'love__ALL__'
p5728
I01
sS'some__ALL__'
p5729
I01
sS'show__ALL__'
p5730
I01
sS'reddit__BOTTOM__'
p5731
I01
sS'some__TOP__'
p5732
I01
sS'love__TOP__'
p5733
I01
sS'show__TOP__'
p5734
I01
sa(dp5735
S'ha__ALL__'
p5736
I01
sS'thi__TOP__'
p5737
I01
sS'befor__ALL__'
p5738
I01
sS'post__TOP__'
p5739
I01
sS'thi__ALL__'
p5740
I01
sS'im__ALL__'
p5741
I01
sS'sure__TOP__'
p5742
I01
sS'been__TOP__'
p5743
I01
sS'im__BOTTOM__'
p5744
I01
sS'post__ALL__'
p5745
I01
sS'sure__BOTTOM__'
p5746
I01
sS'im__TOP__'
p5747
I01
sS'ha__TOP__'
p5748
I01
sS'been__ALL__'
p5749
I01
sS'your__ALL__'
p5750
I01
sS'your__BOTTOM__'
p5751
I01
sS'sure__ALL__'
p5752
I01
sS'right__BOTTOM__'
p5753
I01
sS'befor__TOP__'
p5754
I01
sS'right__ALL__'
p5755
I01
sa(dp5756
S'is__ALL__'
p5757
I01
sS'?__ALL__'
p5758
I01
sS'to__BOTTOM__'
p5759
I01
sS'excit__BOTTOM__'
p5760
I01
sS'bore__TOP__'
p5761
I01
sS'perfect__ALL__'
p5762
I01
sS'prepar__BOTTOM__'
p5763
I01
sS'perfect__TOP__'
p5764
I01
sS'?__TOP__'
p5765
I01
sS'prepar__ALL__'
p5766
I01
sS'is__TOP__'
p5767
I01
sS'be__BOTTOM__'
p5768
I01
sS'to__ALL__'
p5769
I01
sS'be__ALL__'
p5770
I01
sS'bore__ALL__'
p5771
I01
sS'excit__ALL__'
p5772
I01
sa(dp5773
S'.__BOTTOM__'
p5774
I01
sS'say__ALL__'
p5775
I01
sS'reelect__TOP__'
p5776
I01
sS'no__BOTTOM__'
p5777
I01
sS'no__ALL__'
p5778
I01
sS'should__TOP__'
p5779
I01
sS'the__ALL__'
p5780
I01
sS'reelect__ALL__'
p5781
I01
sS'?__ALL__'
p5782
I01
sS'should__ALL__'
p5783
I01
sS'?__TOP__'
p5784
I01
sS'say__BOTTOM__'
p5785
I01
sS'obama__ALL__'
p5786
I01
sS'.__ALL__'
p5787
I01
sS'citizen__BOTTOM__'
p5788
I01
sS'the__BOTTOM__'
p5789
I01
sS'be__ALL__'
p5790
I01
sS'obama__TOP__'
p5791
I01
sS'be__TOP__'
p5792
I01
sS'citizen__ALL__'
p5793
I01
sa(dp5794
S'mistak__ALL__'
p5795
I01
sS'to__BOTTOM__'
p5796
I01
sS'and__BOTTOM__'
p5797
I01
sS'made__ALL__'
p5798
I01
sS'and__ALL__'
p5799
I01
sS'oh__TOP__'
p5800
I01
sS'like__ALL__'
p5801
I01
sS'a__ALL__'
p5802
I01
sS'would__BOTTOM__'
p5803
I01
sS'you__ALL__'
p5804
I01
sS'you__BOTTOM__'
p5805
I01
sS'apolog__BOTTOM__'
p5806
I01
sS'made__BOTTOM__'
p5807
I01
sS'apolog__ALL__'
p5808
I01
sS'mistak__BOTTOM__'
p5809
I01
sS'to__ALL__'
p5810
I01
sS'like__BOTTOM__'
p5811
I01
sS'?__ALL__'
p5812
I01
sS'?__BOTTOM__'
p5813
I01
sS'a__BOTTOM__'
p5814
I01
sS'would__ALL__'
p5815
I01
sS'oh__ALL__'
p5816
I01
sa(dp5817
S'say__ALL__'
p5818
I01
sS'?__ALL__'
p5819
I01
sS'priscilla__BOTTOM__'
p5820
I01
sS'girlfriend__ALL__'
p5821
I01
sS'new__TOP__'
p5822
I01
sS'?__TOP__'
p5823
I01
sS'say__BOTTOM__'
p5824
I01
sS'priscilla__ALL__'
p5825
I01
sS'new__ALL__'
p5826
I01
sS'phillip__TOP__'
p5827
I01
sS'girlfriend__TOP__'
p5828
I01
sS'phillip__ALL__'
p5829
I01
sa(dp5830
S'get__BOTTOM__'
p5831
I01
sS'differ__TOP__'
p5832
I01
sS'chanc__BOTTOM__'
p5833
I01
sS'give__ALL__'
p5834
I01
sS'didnt__TOP__'
p5835
I01
sS'onli__ALL__'
p5836
I01
sS'give__TOP__'
p5837
I01
sS'one__BOTTOM__'
p5838
I01
sS'subreddit__ALL__'
p5839
I01
sS'!__BOTTOM__'
p5840
I01
sS'?__TOP__'
p5841
I01
sS'you__ALL__'
p5842
I01
sS'you__BOTTOM__'
p5843
I01
sS'get__ALL__'
p5844
I01
sS'love__ALL__'
p5845
I01
sS'you__TOP__'
p5846
I01
sS'onli__BOTTOM__'
p5847
I01
sS'love__TOP__'
p5848
I01
sS'differ__ALL__'
p5849
I01
sS'!__ALL__'
p5850
I01
sS'?__ALL__'
p5851
I01
sS'chanc__ALL__'
p5852
I01
sS'one__ALL__'
p5853
I01
sS'subreddit__TOP__'
p5854
I01
sS'didnt__ALL__'
p5855
I01
sa(dp5856
S'australian__ALL__'
p5857
I01
sS'call__BOTTOM__'
p5858
I01
sS'oh__TOP__'
p5859
I01
sS'and__ALL__'
p5860
I01
sS'and__BOTTOM__'
p5861
I01
sS'call__ALL__'
p5862
I01
sS'australian__BOTTOM__'
p5863
I01
sS'upsid__ALL__'
p5864
I01
sS'it__BOTTOM__'
p5865
I01
sS'you__ALL__'
p5866
I01
sS'you__BOTTOM__'
p5867
I01
sS'upsid__BOTTOM__'
p5868
I01
sS'someth__ALL__'
p5869
I01
sS'flip__ALL__'
p5870
I01
sS'someth__BOTTOM__'
p5871
I01
sS'it__ALL__'
p5872
I01
sS'down__BOTTOM__'
p5873
I01
sS'?__ALL__'
p5874
I01
sS'?__BOTTOM__'
p5875
I01
sS'flip__BOTTOM__'
p5876
I01
sS'down__ALL__'
p5877
I01
sS'oh__ALL__'
p5878
I01
sa(dp5879
S'.__BOTTOM__'
p5880
I01
sS'austin__ALL__'
p5881
I01
sS'.__ALL__'
p5882
I01
sS'wa__ALL__'
p5883
I01
sS'how__TOP__'
p5884
I01
sS'wa__TOP__'
p5885
I01
sS'from__ALL__'
p5886
I01
sS'you__TOP__'
p5887
I01
sS'that__ALL__'
p5888
I01
sS'bought__TOP__'
p5889
I01
sS'you__ALL__'
p5890
I01
sS'shit__ALL__'
p5891
I01
sS'austin__TOP__'
p5892
I01
sS'bought__ALL__'
p5893
I01
sS'shit__TOP__'
p5894
I01
sS'how__ALL__'
p5895
I01
sS'from__TOP__'
p5896
I01
sS'that__TOP__'
p5897
I01
sa(dp5898
S'into__ALL__'
p5899
I01
sS'thrown__BOTTOM__'
p5900
I01
sS'shall__ALL__'
p5901
I01
sS'into__BOTTOM__'
p5902
I01
sS'misbehav__ALL__'
p5903
I01
sS'shall__BOTTOM__'
p5904
I01
sS'the__ALL__'
p5905
I01
sS'misbehav__TOP__'
p5906
I01
sS'gauntlet__ALL__'
p5907
I01
sS'you__TOP__'
p5908
I01
sS'be__ALL__'
p5909
I01
sS'be__BOTTOM__'
p5910
I01
sS'the__BOTTOM__'
p5911
I01
sS'you__ALL__'
p5912
I01
sS'you__BOTTOM__'
p5913
I01
sS'thrown__ALL__'
p5914
I01
sS'gauntlet__BOTTOM__'
p5915
I01
sa(dp5916
S'i__TOP__'
p5917
I01
sS'thi__TOP__'
p5918
I01
sS'get__ALL__'
p5919
I01
sS'are__ALL__'
p5920
I01
sS'i__ALL__'
p5921
I01
sS'get__TOP__'
p5922
I01
sS'thi__ALL__'
p5923
I01
sS'vuri__TOP__'
p5924
I01
sS'are__BOTTOM__'
p5925
I01
sS'how__ALL__'
p5926
I01
sS'know__ALL__'
p5927
I01
sS'vuri__ALL__'
p5928
I01
sS'will__ALL__'
p5929
I01
sS'you__BOTTOM__'
p5930
I01
sS'you__ALL__'
p5931
I01
sS'know__TOP__'
p5932
I01
sS'will__TOP__'
p5933
I01
sS'right__BOTTOM__'
p5934
I01
sS'how__BOTTOM__'
p5935
I01
sS'right__ALL__'
p5936
I01
sa(dp5937
S'what__TOP__'
p5938
I01
sS'is__ALL__'
p5939
I01
sS'dont__BOTTOM__'
p5940
I01
sS'vote__BOTTOM__'
p5941
I01
sS'thi__TOP__'
p5942
I01
sS'for__BOTTOM__'
p5943
I01
sS'dont__ALL__'
p5944
I01
sS'for__ALL__'
p5945
I01
sS'thi__ALL__'
p5946
I01
sS'meztli__BOTTOM__'
p5947
I01
sS'happen__ALL__'
p5948
I01
sS'when__ALL__'
p5949
I01
sS'meztli__ALL__'
p5950
I01
sS'is__TOP__'
p5951
I01
sS'you__BOTTOM__'
p5952
I01
sS'what__ALL__'
p5953
I01
sS'happen__TOP__'
p5954
I01
sS'you__ALL__'
p5955
I01
sS'vote__ALL__'
p5956
I01
sS'when__BOTTOM__'
p5957
I01
sa(dp5958
S'team__ALL__'
p5959
I01
sS'team__BOTTOM__'
p5960
I01
sS'kill__BOTTOM__'
p5961
I01
sS'perfect__ALL__'
p5962
I01
sS'attend__ALL__'
p5963
I01
sS'perfect__TOP__'
p5964
I01
sS'team__TOP__'
p5965
I01
sS'?__TOP__'
p5966
I01
sS'member__BOTTOM__'
p5967
I01
sS'member__ALL__'
p5968
I01
sS'kill__TOP__'
p5969
I01
sS'member__TOP__'
p5970
I01
sS'attend__TOP__'
p5971
I01
sS'?__ALL__'
p5972
I01
sS'kill__ALL__'
p5973
I01
sa(dp5974
S'like__ALL__'
p5975
I01
sS'soup__TOP__'
p5976
I01
sS'$__TOP__'
p5977
I01
sS'a__TOP__'
p5978
I01
sS'will__ALL__'
p5979
I01
sS'theyll__BOTTOM__'
p5980
I01
sS'look__ALL__'
p5981
I01
sS'a__ALL__'
p5982
I01
sS'kitchen__TOP__'
p5983
I01
sS'donat__TOP__'
p5984
I01
sS'soup__ALL__'
p5985
I01
sS'everi__TOP__'
p5986
I01
sS'10__ALL__'
p5987
I01
sS'donat__ALL__'
p5988
I01
sS'for__ALL__'
p5989
I01
sS'10__TOP__'
p5990
I01
sS'upvot__TOP__'
p5991
I01
sS'everi__ALL__'
p5992
I01
sS'upvot__ALL__'
p5993
I01
sS'like__BOTTOM__'
p5994
I01
sS'i__ALL__'
p5995
I01
sS'i__TOP__'
p5996
I01
sS'starv__ALL__'
p5997
I01
sS'for__TOP__'
p5998
I01
sS'theyll__ALL__'
p5999
I01
sS'to__ALL__'
p6000
I01
sS'look__BOTTOM__'
p6001
I01
sS'$__ALL__'
p6002
I01
sS'kitchen__ALL__'
p6003
I01
sS'starv__BOTTOM__'
p6004
I01
sS'to__TOP__'
p6005
I01
sS'will__TOP__'
p6006
I01
sa(dp6007
S'go__BOTTOM__'
p6008
I01
sS'go__ALL__'
p6009
I01
sS'team__TOP__'
p6010
I01
sS'your__TOP__'
p6011
I01
sS'team__ALL__'
p6012
I01
sS'still__BOTTOM__'
p6013
I01
sS'down__ALL__'
p6014
I01
sS'still__ALL__'
p6015
I01
sS'your__ALL__'
p6016
I01
sS'down__BOTTOM__'
p6017
I01
sa(dp6018
S'cliff__BOTTOM__'
p6019
I01
sS'to__ALL__'
p6020
I01
sS'fiscal__BOTTOM__'
p6021
I01
sS'to__BOTTOM__'
p6022
I01
sS'cliff__ALL__'
p6023
I01
sS'welcom__ALL__'
p6024
I01
sS'the__BOTTOM__'
p6025
I01
sS'the__ALL__'
p6026
I01
sS'welcom__TOP__'
p6027
I01
sS'fiscal__ALL__'
p6028
I01
sa(dp6029
S'.__BOTTOM__'
p6030
I01
sS'readi__ALL__'
p6031
I01
sS'.__ALL__'
p6032
I01
sS'collegefest__ALL__'
p6033
I01
sS'for__BOTTOM__'
p6034
I01
sS'get__ALL__'
p6035
I01
sS'get__BOTTOM__'
p6036
I01
sS'thi__ALL__'
p6037
I01
sS'readi__TOP__'
p6038
I01
sS'get__TOP__'
p6039
I01
sS'collegefest__TOP__'
p6040
I01
sS'readi__BOTTOM__'
p6041
I01
sS'for__TOP__'
p6042
I01
sS'thi__BOTTOM__'
p6043
I01
sS'for__ALL__'
p6044
I01
sa(dp6045
S'the__TOP__'
p6046
I01
sS'gauntlet__ALL__'
p6047
I01
sS'gauntlet__BOTTOM__'
p6048
I01
sS'to__ALL__'
p6049
I01
sS'the__ALL__'
p6050
I01
sS'shall__ALL__'
p6051
I01
sS'to__TOP__'
p6052
I01
sS'you__TOP__'
p6053
I01
sS'be__ALL__'
p6054
I01
sS'taken__ALL__'
p6055
I01
sS'shall__TOP__'
p6056
I01
sS'you__ALL__'
p6057
I01
sS'taken__TOP__'
p6058
I01
sS'be__TOP__'
p6059
I01
sa(dp6060
S'make__ALL__'
p6061
I01
sS'topic__TOP__'
p6062
I01
sS'staff__ALL__'
p6063
I01
sS'about__ALL__'
p6064
I01
sS'more__BOTTOM__'
p6065
I01
sS'a__TOP__'
p6066
I01
sS'more__ALL__'
p6067
I01
sS'about__TOP__'
p6068
I01
sS'a__ALL__'
p6069
I01
sS'some__ALL__'
p6070
I01
sS'make__TOP__'
p6071
I01
sS'have__BOTTOM__'
p6072
I01
sS'staff__TOP__'
p6073
I01
sS'have__ALL__'
p6074
I01
sS'topic__ALL__'
p6075
I01
sS'some__BOTTOM__'
p6076
I01
sa(dp6077
S'guess__BOTTOM__'
p6078
I01
sS'dont__ALL__'
p6079
I01
sS'i__TOP__'
p6080
I01
sS'selecta__TOP__'
p6081
I01
sS'?__BOTTOM__'
p6082
I01
sS'what__ALL__'
p6083
I01
sS'support__TOP__'
p6084
I01
sS'dont__TOP__'
p6085
I01
sS'i__ALL__'
p6086
I01
sS'support__ALL__'
p6087
I01
sS'selecta__ALL__'
p6088
I01
sS'so__BOTTOM__'
p6089
I01
sS'the__TOP__'
p6090
I01
sS'guess__ALL__'
p6091
I01
sS'either__TOP__'
p6092
I01
sS'the__ALL__'
p6093
I01
sS'?__ALL__'
p6094
I01
sS'what__BOTTOM__'
p6095
I01
sS'so__ALL__'
p6096
I01
sS'either__ALL__'
p6097
I01
sa(dp6098
S'guy__TOP__'
p6099
I01
sS'now__ALL__'
p6100
I01
sS'you__ALL__'
p6101
I01
sS'love__ALL__'
p6102
I01
sS'now__BOTTOM__'
p6103
I01
sS'thank__ALL__'
p6104
I01
sS'the__TOP__'
p6105
I01
sS'guy__ALL__'
p6106
I01
sS'die__BOTTOM__'
p6107
I01
sS'for__TOP__'
p6108
I01
sS'die__ALL__'
p6109
I01
sS'you__BOTTOM__'
p6110
I01
sS'the__ALL__'
p6111
I01
sS'thank__TOP__'
p6112
I01
sS'for__ALL__'
p6113
I01
sS'love__TOP__'
p6114
I01
sa(dp6115
S'is__ALL__'
p6116
I01
sS'line__ALL__'
p6117
I01
sS'to__BOTTOM__'
p6118
I01
sS'to__ALL__'
p6119
I01
sS'line__TOP__'
p6120
I01
sS'back__ALL__'
p6121
I01
sS'back__BOTTOM__'
p6122
I01
sS'the__TOP__'
p6123
I01
sS'the__ALL__'
p6124
I01
sS'when__ALL__'
p6125
I01
sS'third__ALL__'
p6126
I01
sS'home__ALL__'
p6127
I01
sS'when__TOP__'
p6128
I01
sS'third__TOP__'
p6129
I01
sS'is__BOTTOM__'
p6130
I01
sS'home__BOTTOM__'
p6131
I01
sa(dp6132
S'say__ALL__'
p6133
I01
sS'were__ALL__'
p6134
I01
sS'thi__TOP__'
p6135
I01
sS'get__ALL__'
p6136
I01
sS'thi__ALL__'
p6137
I01
sS'downvot__ALL__'
p6138
I01
sS'get__TOP__'
p6139
I01
sS'were__BOTTOM__'
p6140
I01
sS'to__TOP__'
p6141
I01
sS'downvot__TOP__'
p6142
I01
sS'you__TOP__'
p6143
I01
sS'you__ALL__'
p6144
I01
sS'hell__ALL__'
p6145
I01
sS'will__ALL__'
p6146
I01
sS'to__ALL__'
p6147
I01
sS'say__TOP__'
p6148
I01
sS'you__BOTTOM__'
p6149
I01
sS'will__TOP__'
p6150
I01
sS'right__BOTTOM__'
p6151
I01
sS'hell__TOP__'
p6152
I01
sS'right__ALL__'
p6153
I01
sa(dp6154
S'realiti__ALL__'
p6155
I01
sS'to__BOTTOM__'
p6156
I01
sS'back__BOTTOM__'
p6157
I01
sS'happi__TOP__'
p6158
I01
sS'made__ALL__'
p6159
I01
sS'the__TOP__'
p6160
I01
sS'page__TOP__'
p6161
I01
sS'back__ALL__'
p6162
I01
sS'made__TOP__'
p6163
I01
sS'?__TOP__'
p6164
I01
sS'here__ALL__'
p6165
I01
sS'you__ALL__'
p6166
I01
sS'you__BOTTOM__'
p6167
I01
sS'put__ALL__'
p6168
I01
sS'to__ALL__'
p6169
I01
sS'someth__ALL__'
p6170
I01
sS'someth__BOTTOM__'
p6171
I01
sS'you__TOP__'
p6172
I01
sS'here__BOTTOM__'
p6173
I01
sS'that__ALL__'
p6174
I01
sS'front__TOP__'
p6175
I01
sS'that__TOP__'
p6176
I01
sS'realiti__BOTTOM__'
p6177
I01
sS'?__ALL__'
p6178
I01
sS'put__BOTTOM__'
p6179
I01
sS'front__ALL__'
p6180
I01
sS'happi__ALL__'
p6181
I01
sS'the__ALL__'
p6182
I01
sS'page__ALL__'
p6183
I01
sa(dp6184
S'reddit__ALL__'
p6185
I01
sS'dare__BOTTOM__'
p6186
I01
sS'thi__TOP__'
p6187
I01
sS'meme__ALL__'
p6188
I01
sS'i__ALL__'
p6189
I01
sS'post__TOP__'
p6190
I01
sS'thi__ALL__'
p6191
I01
sS'meme__TOP__'
p6192
I01
sS'reddit__TOP__'
p6193
I01
sS'i__BOTTOM__'
p6194
I01
sS'post__ALL__'
p6195
I01
sS'on__ALL__'
p6196
I01
sS'you__ALL__'
p6197
I01
sS'dare__ALL__'
p6198
I01
sS'you__BOTTOM__'
p6199
I01
sS'on__TOP__'
p6200
I01
sa(dp6201
S'differ__ALL__'
p6202
I01
sS'?__TOP__'
p6203
I01
sS'subreddit__ALL__'
p6204
I01
sS'?__ALL__'
p6205
I01
sS'love__ALL__'
p6206
I01
sS'differ__TOP__'
p6207
I01
sS'you__TOP__'
p6208
I01
sS'here__BOTTOM__'
p6209
I01
sS'give__ALL__'
p6210
I01
sS'here__ALL__'
p6211
I01
sS'didnt__ALL__'
p6212
I01
sS'didnt__TOP__'
p6213
I01
sS'you__ALL__'
p6214
I01
sS'subreddit__TOP__'
p6215
I01
sS'love__TOP__'
p6216
I01
sS'give__TOP__'
p6217
I01
sa(dp6218
S'to__ALL__'
p6219
I01
sS'now__ALL__'
p6220
I01
sS'shall__ALL__'
p6221
I01
sS'gauntlet__BOTTOM__'
p6222
I01
sS'to__BOTTOM__'
p6223
I01
sS'misbehav__ALL__'
p6224
I01
sS'shall__BOTTOM__'
p6225
I01
sS'the__ALL__'
p6226
I01
sS'misbehav__TOP__'
p6227
I01
sS'now__BOTTOM__'
p6228
I01
sS'gauntlet__ALL__'
p6229
I01
sS'you__TOP__'
p6230
I01
sS'be__ALL__'
p6231
I01
sS'taken__ALL__'
p6232
I01
sS'be__BOTTOM__'
p6233
I01
sS'the__BOTTOM__'
p6234
I01
sS'you__ALL__'
p6235
I01
sS'you__BOTTOM__'
p6236
I01
sS'taken__BOTTOM__'
p6237
I01
sa(dp6238
S'.__BOTTOM__'
p6239
I01
sS'out__BOTTOM__'
p6240
I01
sS'go__BOTTOM__'
p6241
I01
sS'yall__ALL__'
p6242
I01
sS'howzit__ALL__'
p6243
I01
sS'go__ALL__'
p6244
I01
sS'i__ALL__'
p6245
I01
sS'work__ALL__'
p6246
I01
sS'smart__ALL__'
p6247
I01
sS'smart__BOTTOM__'
p6248
I01
sS'i__BOTTOM__'
p6249
I01
sS'work__BOTTOM__'
p6250
I01
sS'hard__TOP__'
p6251
I01
sS'hard__ALL__'
p6252
I01
sS'.__ALL__'
p6253
I01
sS'howzit__BOTTOM__'
p6254
I01
sS'yall__TOP__'
p6255
I01
sS'go__TOP__'
p6256
I01
sS'out__ALL__'
p6257
I01
sa(dp6258
S'look__ALL__'
p6259
I01
sS'i__TOP__'
p6260
I01
sS'thi__TOP__'
p6261
I01
sS'littl__ALL__'
p6262
I01
sS'look__TOP__'
p6263
I01
sS'i__ALL__'
p6264
I01
sS'thi__ALL__'
p6265
I01
sS'littl__TOP__'
p6266
I01
sS'downvot__ALL__'
p6267
I01
sS'gem__ALL__'
p6268
I01
sS'downvot__BOTTOM__'
p6269
I01
sS'at__TOP__'
p6270
I01
sS'gem__TOP__'
p6271
I01
sS'at__ALL__'
p6272
I01
sa(dp6273
S'gig__ALL__'
p6274
I01
sS'gig__BOTTOM__'
p6275
I01
sS'thi__ALL__'
p6276
I01
sS'em__ALL__'
p6277
I01
sS'gig__TOP__'
p6278
I01
sS'thi__BOTTOM__'
p6279
I01
sS'em__TOP__'
p6280
I01
sa(dp6281
S'someon__BOTTOM__'
p6282
I01
sS'like__ALL__'
p6283
I01
sS'about__ALL__'
p6284
I01
sS'thi__ALL__'
p6285
I01
sS'care__ALL__'
p6286
I01
sS'doe__ALL__'
p6287
I01
sS'the__TOP__'
p6288
I01
sS'who__BOTTOM__'
p6289
I01
sS'look__ALL__'
p6290
I01
sS'told__ALL__'
p6291
I01
sS'about__TOP__'
p6292
I01
sS'who__ALL__'
p6293
I01
sS'thi__BOTTOM__'
p6294
I01
sS'hr__ALL__'
p6295
I01
sS'you__ALL__'
p6296
I01
sS'of__ALL__'
p6297
I01
sS'face__ALL__'
p6298
I01
sS'face__BOTTOM__'
p6299
I01
sS'of__BOTTOM__'
p6300
I01
sS'told__TOP__'
p6301
I01
sS'leaver__TOP__'
p6302
I01
sS'like__BOTTOM__'
p6303
I01
sS'you__TOP__'
p6304
I01
sS'someon__ALL__'
p6305
I01
sS'never__TOP__'
p6306
I01
sS'doe__BOTTOM__'
p6307
I01
sS'look__BOTTOM__'
p6308
I01
sS'leaver__ALL__'
p6309
I01
sS'never__ALL__'
p6310
I01
sS'care__BOTTOM__'
p6311
I01
sS'hr__TOP__'
p6312
I01
sS'the__ALL__'
p6313
I01
sS'the__BOTTOM__'
p6314
I01
sa(dp6315
S'.__BOTTOM__'
p6316
I01
sS'.__ALL__'
p6317
I01
sS'post__TOP__'
p6318
I01
sS'photoshop__TOP__'
p6319
I01
sS'post__ALL__'
p6320
I01
sS'go__ALL__'
p6321
I01
sS'?__TOP__'
p6322
I01
sS'on__ALL__'
p6323
I01
sS'here__ALL__'
p6324
I01
sS'you__ALL__'
p6325
I01
sS'you__BOTTOM__'
p6326
I01
sS'first__TOP__'
p6327
I01
sS'on__TOP__'
p6328
I01
sS'/r/pic__TOP__'
p6329
I01
sS'first__ALL__'
p6330
I01
sS'you__TOP__'
p6331
I01
sS'here__BOTTOM__'
p6332
I01
sS'your__ALL__'
p6333
I01
sS'/r/pic__ALL__'
p6334
I01
sS'go__BOTTOM__'
p6335
I01
sS'?__ALL__'
p6336
I01
sS'photoshop__ALL__'
p6337
I01
sS'my__TOP__'
p6338
I01
sS'opinion__TOP__'
p6339
I01
sS'your__TOP__'
p6340
I01
sS'my__ALL__'
p6341
I01
sS'opinion__ALL__'
p6342
I01
sa(dp6343
S'!__ALL__'
p6344
I01
sS'moder__ALL__'
p6345
I01
sS'!__TOP__'
p6346
I01
sS'off__BOTTOM__'
p6347
I01
sS'with__ALL__'
p6348
I01
sS'moder__TOP__'
p6349
I01
sS'with__BOTTOM__'
p6350
I01
sS'hi__BOTTOM__'
p6351
I01
sS'hi__ALL__'
p6352
I01
sS'off__ALL__'
p6353
I01
sS'head__ALL__'
p6354
I01
sS'head__BOTTOM__'
p6355
I01
sa(dp6356
S'what__TOP__'
p6357
I01
sS'to__ALL__'
p6358
I01
sS'to__BOTTOM__'
p6359
I01
sS'rohin__ALL__'
p6360
I01
sS'skit__ALL__'
p6361
I01
sS'skit__BOTTOM__'
p6362
I01
sS'the__ALL__'
p6363
I01
sS'to__TOP__'
p6364
I01
sS'happen__ALL__'
p6365
I01
sS'when__ALL__'
p6366
I01
sS'happen__TOP__'
p6367
I01
sS'when__TOP__'
p6368
I01
sS'he__ALL__'
p6369
I01
sS'what__ALL__'
p6370
I01
sS'the__BOTTOM__'
p6371
I01
sS'teacher__ALL__'
p6372
I01
sS'he__BOTTOM__'
p6373
I01
sS'teacher__BOTTOM__'
p6374
I01
sS'rohin__TOP__'
p6375
I01
sa(dp6376
S'to__ALL__'
p6377
I01
sS'time__ALL__'
p6378
I01
sS'gauntlet__ALL__'
p6379
I01
sS'gauntlet__BOTTOM__'
p6380
I01
sS'him__ALL__'
p6381
I01
sS'him__TOP__'
p6382
I01
sS'to__TOP__'
p6383
I01
sS'time__TOP__'
p6384
I01
sS'the__TOP__'
p6385
I01
sS'take__ALL__'
p6386
I01
sS'the__ALL__'
p6387
I01
sS'take__TOP__'
p6388
I01
sa(dp6389
S'.__BOTTOM__'
p6390
I01
sS'away__ALL__'
p6391
I01
sS'dont__BOTTOM__'
p6392
I01
sS'.__ALL__'
p6393
I01
sS'dont__ALL__'
p6394
I01
sS'gron__ALL__'
p6395
I01
sS'and__ALL__'
p6396
I01
sS'flame__ALL__'
p6397
I01
sS'and__TOP__'
p6398
I01
sS'?__TOP__'
p6399
I01
sS'gron__TOP__'
p6400
I01
sS'if__ALL__'
p6401
I01
sS'if__BOTTOM__'
p6402
I01
sS'flame__TOP__'
p6403
I01
sS'i__ALL__'
p6404
I01
sS'do__ALL__'
p6405
I01
sS'do__BOTTOM__'
p6406
I01
sS'mind__BOTTOM__'
p6407
I01
sS'?__ALL__'
p6408
I01
sS'i__BOTTOM__'
p6409
I01
sS'mind__ALL__'
p6410
I01
sS'away__TOP__'
p6411
I01
sa(dp6412
S'a__TOP__'
p6413
I01
sS'sass__ALL__'
p6414
I01
sS'off__ALL__'
p6415
I01
sS'bridg__ALL__'
p6416
I01
sS'him__ALL__'
p6417
I01
sS'and__ALL__'
p6418
I01
sS'went__BOTTOM__'
p6419
I01
sS'and__BOTTOM__'
p6420
I01
sS'your__BOTTOM__'
p6421
I01
sS'then__ALL__'
p6422
I01
sS'and__TOP__'
p6423
I01
sS'a__ALL__'
p6424
I01
sS'off__TOP__'
p6425
I01
sS'then__TOP__'
p6426
I01
sS'bridg__TOP__'
p6427
I01
sS'fell__TOP__'
p6428
I01
sS'sass__BOTTOM__'
p6429
I01
sS'with__ALL__'
p6430
I01
sS'your__ALL__'
p6431
I01
sS'he__TOP__'
p6432
I01
sS'fell__ALL__'
p6433
I01
sS'with__BOTTOM__'
p6434
I01
sS'went__ALL__'
p6435
I01
sS'him__BOTTOM__'
p6436
I01
sS'he__ALL__'
p6437
I01
sa(dp6438
S'state__ALL__'
p6439
I01
sS'heavenli__BOTTOM__'
p6440
I01
sS'heavenli__ALL__'
p6441
I01
sS'is__ALL__'
p6442
I01
sS'treason__BOTTOM__'
p6443
I01
sS'treason__ALL__'
p6444
I01
sS'of__TOP__'
p6445
I01
sS'govern__ALL__'
p6446
I01
sS'under__BOTTOM__'
p6447
I01
sS'of__ALL__'
p6448
I01
sS'current__ALL__'
p6449
I01
sS'under__ALL__'
p6450
I01
sS'state__TOP__'
p6451
I01
sS'is__BOTTOM__'
p6452
I01
sS'current__TOP__'
p6453
I01
sS'govern__TOP__'
p6454
I01
sa(dp6455
S'mistak__ALL__'
p6456
I01
sS'to__BOTTOM__'
p6457
I01
sS'and__BOTTOM__'
p6458
I01
sS'made__ALL__'
p6459
I01
sS'and__ALL__'
p6460
I01
sS'oh__TOP__'
p6461
I01
sS'your__BOTTOM__'
p6462
I01
sS'want__ALL__'
p6463
I01
sS'a__ALL__'
p6464
I01
sS'express__ALL__'
p6465
I01
sS'you__ALL__'
p6466
I01
sS'want__BOTTOM__'
p6467
I01
sS'apolog__BOTTOM__'
p6468
I01
sS'made__BOTTOM__'
p6469
I01
sS'you__BOTTOM__'
p6470
I01
sS'your__ALL__'
p6471
I01
sS'mistak__BOTTOM__'
p6472
I01
sS'to__ALL__'
p6473
I01
sS'?__ALL__'
p6474
I01
sS'?__BOTTOM__'
p6475
I01
sS'a__BOTTOM__'
p6476
I01
sS'express__BOTTOM__'
p6477
I01
sS'apolog__ALL__'
p6478
I01
sS'oh__ALL__'
p6479
I01
sa(dp6480
S'reddit__ALL__'
p6481
I01
sS'!__ALL__'
p6482
I01
sS'!__BOTTOM__'
p6483
I01
sS'love__ALL__'
p6484
I01
sS'some__ALL__'
p6485
I01
sS'show__ALL__'
p6486
I01
sS'reddit__BOTTOM__'
p6487
I01
sS'some__TOP__'
p6488
I01
sS'love__TOP__'
p6489
I01
sS'show__TOP__'
p6490
I01
sa(dp6491
S'worth__ALL__'
p6492
I01
sS'excit__BOTTOM__'
p6493
I01
sS'adsl__TOP__'
p6494
I01
sS'not__ALL__'
p6495
I01
sS'worth__BOTTOM__'
p6496
I01
sS'not__BOTTOM__'
p6497
I01
sS'adsl__ALL__'
p6498
I01
sS'uncap__ALL__'
p6499
I01
sS'uncap__TOP__'
p6500
I01
sS'your__ALL__'
p6501
I01
sS'your__BOTTOM__'
p6502
I01
sS'excit__ALL__'
p6503
I01
sa(dp6504
S'ha__ALL__'
p6505
I01
sS'meekro__ALL__'
p6506
I01
sS'matter__BOTTOM__'
p6507
I01
sS'spoken__ALL__'
p6508
I01
sS'meekro__TOP__'
p6509
I01
sS'the__ALL__'
p6510
I01
sS'on__ALL__'
p6511
I01
sS'on__BOTTOM__'
p6512
I01
sS'matter__ALL__'
p6513
I01
sS'ha__BOTTOM__'
p6514
I01
sS'the__BOTTOM__'
p6515
I01
sS'spoken__BOTTOM__'
p6516
I01
sa(dp6517
S'to__ALL__'
p6518
I01
sS'shall__ALL__'
p6519
I01
sS'gauntlet__ALL__'
p6520
I01
sS'gauntlet__BOTTOM__'
p6521
I01
sS'to__BOTTOM__'
p6522
I01
sS'misbehav__ALL__'
p6523
I01
sS'shall__BOTTOM__'
p6524
I01
sS'the__ALL__'
p6525
I01
sS'misbehav__TOP__'
p6526
I01
sS'you__TOP__'
p6527
I01
sS'be__ALL__'
p6528
I01
sS'taken__ALL__'
p6529
I01
sS'be__BOTTOM__'
p6530
I01
sS'the__BOTTOM__'
p6531
I01
sS'you__ALL__'
p6532
I01
sS'you__BOTTOM__'
p6533
I01
sS'taken__BOTTOM__'
p6534
I01
sa(dp6535
S'itll__TOP__'
p6536
I01
sS'won__BOTTOM__'
p6537
I01
sS'here__TOP__'
p6538
I01
sS'better__ALL__'
p6539
I01
sS'do__ALL__'
p6540
I01
sS'it__BOTTOM__'
p6541
I01
sS'mayb__ALL__'
p6542
I01
sS'mayb__BOTTOM__'
p6543
I01
sS'it__ALL__'
p6544
I01
sS'better__TOP__'
p6545
I01
sS'itll__ALL__'
p6546
I01
sS'here__ALL__'
p6547
I01
sS'won__ALL__'
p6548
I01
sS'do__TOP__'
p6549
I01
sS'mayb__TOP__'
p6550
I01
sa(dp6551
S'itll__TOP__'
p6552
I01
sS'wont__ALL__'
p6553
I01
sS'wont__BOTTOM__'
p6554
I01
sS'here__TOP__'
p6555
I01
sS'better__ALL__'
p6556
I01
sS'do__ALL__'
p6557
I01
sS'it__BOTTOM__'
p6558
I01
sS'mayb__ALL__'
p6559
I01
sS'mayb__BOTTOM__'
p6560
I01
sS'it__ALL__'
p6561
I01
sS'better__TOP__'
p6562
I01
sS'itll__ALL__'
p6563
I01
sS'here__ALL__'
p6564
I01
sS'do__TOP__'
p6565
I01
sS'mayb__TOP__'
p6566
I01
sa(dp6567
S'to__ALL__'
p6568
I01
sS'shall__ALL__'
p6569
I01
sS'gauntlet__ALL__'
p6570
I01
sS'gauntlet__BOTTOM__'
p6571
I01
sS'to__BOTTOM__'
p6572
I01
sS'misbehav__ALL__'
p6573
I01
sS'shall__BOTTOM__'
p6574
I01
sS'the__ALL__'
p6575
I01
sS'misbehav__TOP__'
p6576
I01
sS'you__TOP__'
p6577
I01
sS'be__ALL__'
p6578
I01
sS'taken__ALL__'
p6579
I01
sS'be__BOTTOM__'
p6580
I01
sS'the__BOTTOM__'
p6581
I01
sS'you__ALL__'
p6582
I01
sS'you__BOTTOM__'
p6583
I01
sS'taken__BOTTOM__'
p6584
I01
sa(dp6585
S'itll__TOP__'
p6586
I01
sS'won__BOTTOM__'
p6587
I01
sS'here__TOP__'
p6588
I01
sS'better__ALL__'
p6589
I01
sS'do__ALL__'
p6590
I01
sS'it__BOTTOM__'
p6591
I01
sS'mayb__ALL__'
p6592
I01
sS'mayb__BOTTOM__'
p6593
I01
sS'it__ALL__'
p6594
I01
sS'better__TOP__'
p6595
I01
sS'itll__ALL__'
p6596
I01
sS'here__ALL__'
p6597
I01
sS'won__ALL__'
p6598
I01
sS'do__TOP__'
p6599
I01
sS'mayb__TOP__'
p6600
I01
sa(dp6601
S'to__ALL__'
p6602
I01
sS'time__ALL__'
p6603
I01
sS'gauntlet__ALL__'
p6604
I01
sS'gauntlet__BOTTOM__'
p6605
I01
sS'him__ALL__'
p6606
I01
sS'him__TOP__'
p6607
I01
sS'to__TOP__'
p6608
I01
sS'time__TOP__'
p6609
I01
sS'the__TOP__'
p6610
I01
sS'take__ALL__'
p6611
I01
sS'down__ALL__'
p6612
I01
sS'the__ALL__'
p6613
I01
sS'take__TOP__'
p6614
I01
sS'down__TOP__'
p6615
I01
sa(dp6616
S'first__BOTTOM__'
p6617
I01
sS'problem__ALL__'
p6618
I01
sS'world__BOTTOM__'
p6619
I01
sS'first__ALL__'
p6620
I01
sS'?__ALL__'
p6621
I01
sS'solut__BOTTOM__'
p6622
I01
sS'solut__ALL__'
p6623
I01
sS'?__TOP__'
p6624
I01
sS'world__TOP__'
p6625
I01
sS'problem__TOP__'
p6626
I01
sS'world__ALL__'
p6627
I01
sS'first__TOP__'
p6628
I01
sa(dp6629
S'hardi__ALL__'
p6630
I01
sS'chafouha__TOP__'
p6631
I01
sS'goinig__ALL__'
p6632
I01
sS'your__BOTTOM__'
p6633
I01
sS'chafouha__ALL__'
p6634
I01
sS'hardi__TOP__'
p6635
I01
sS'3liha__TOP__'
p6636
I01
sS'w9fat__TOP__'
p6637
I01
sS'w9fat__ALL__'
p6638
I01
sS'm3a__TOP__'
p6639
I01
sS'bitch__ALL__'
p6640
I01
sS'easi__ALL__'
p6641
I01
sS'm3a__ALL__'
p6642
I01
sS'your__ALL__'
p6643
I01
sS'down__BOTTOM__'
p6644
I01
sS'semmaw__TOP__'
p6645
I01
sS'3liha__ALL__'
p6646
I01
sS'semmaw__ALL__'
p6647
I01
sS'bitch__BOTTOM__'
p6648
I01
sS'goinig__BOTTOM__'
p6649
I01
sS'easi__TOP__'
p6650
I01
sS'down__ALL__'
p6651
I01
sa(dp6652
S'region__TOP__'
p6653
I01
sS'region__ALL__'
p6654
I01
sS'a__TOP__'
p6655
I01
sS'the__TOP__'
p6656
I01
sS'taken__ALL__'
p6657
I01
sS'dark__TOP__'
p6658
I01
sS'call__ALL__'
p6659
I01
sS'a__ALL__'
p6660
I01
sS'now__ALL__'
p6661
I01
sS'now__TOP__'
p6662
I01
sS'shall__ALL__'
p6663
I01
sS'call__TOP__'
p6664
I01
sS'dark__ALL__'
p6665
I01
sS'you__ALL__'
p6666
I01
sS'you__TOP__'
p6667
I01
sS'be__ALL__'
p6668
I01
sS'shall__TOP__'
p6669
I01
sS'gauntlet__ALL__'
p6670
I01
sS'be__TOP__'
p6671
I01
sS'to__ALL__'
p6672
I01
sS'gauntlet__BOTTOM__'
p6673
I01
sS'to__TOP__'
p6674
I01
sS'the__ALL__'
p6675
I01
sS'taken__TOP__'
p6676
I01
sa(dp6677
S'to__ALL__'
p6678
I01
sS'time__ALL__'
p6679
I01
sS'time__BOTTOM__'
p6680
I01
sS'gauntlet__BOTTOM__'
p6681
I01
sS'to__BOTTOM__'
p6682
I01
sS'misbehav__ALL__'
p6683
I01
sS'the__ALL__'
p6684
I01
sS'misbehav__TOP__'
p6685
I01
sS'you__TOP__'
p6686
I01
sS'take__ALL__'
p6687
I01
sS'take__BOTTOM__'
p6688
I01
sS'gauntlet__ALL__'
p6689
I01
sS'you__ALL__'
p6690
I01
sS'the__BOTTOM__'
p6691
I01
sa(dp6692
S'not__ALL__'
p6693
I01
sS'sip__ALL__'
p6694
I01
sS'fun__BOTTOM__'
p6695
I01
sS'is__ALL__'
p6696
I01
sS'fun__ALL__'
p6697
I01
sS'not__BOTTOM__'
p6698
I01
sS'is__BOTTOM__'
p6699
I01
sS'sip__TOP__'
p6700
I01
sa(dp6701
S'cri__ALL__'
p6702
I01
sS'to__BOTTOM__'
p6703
I01
sS'cri__TOP__'
p6704
I01
sS'cri__BOTTOM__'
p6705
I01
sS'proceed__BOTTOM__'
p6706
I01
sS'at__ALL__'
p6707
I01
sS'peopl__TOP__'
p6708
I01
sS'mad__ALL__'
p6709
I01
sS'on__ALL__'
p6710
I01
sS'for__ALL__'
p6711
I01
sS'on__TOP__'
p6712
I01
sS'twitter__ALL__'
p6713
I01
sS'get__ALL__'
p6714
I01
sS'proceed__ALL__'
p6715
I01
sS'mad__TOP__'
p6716
I01
sS'for__TOP__'
p6717
I01
sS'facebook__TOP__'
p6718
I01
sS'facebook__ALL__'
p6719
I01
sS'to__ALL__'
p6720
I01
sS'get__TOP__'
p6721
I01
sS'twitter__BOTTOM__'
p6722
I01
sS'on__BOTTOM__'
p6723
I01
sS'peopl__ALL__'
p6724
I01
sS'at__TOP__'
p6725
I01
sa(dp6726
S'into__ALL__'
p6727
I01
sS'?__TOP__'
p6728
I01
sS'get__ALL__'
p6729
I01
sS'univers__ALL__'
p6730
I01
sS'want__TOP__'
p6731
I01
sS'univers__TOP__'
p6732
I01
sS'want__ALL__'
p6733
I01
sS'get__TOP__'
p6734
I01
sS'to__TOP__'
p6735
I01
sS'you__TOP__'
p6736
I01
sS'here__BOTTOM__'
p6737
I01
sS'to__ALL__'
p6738
I01
sS'here__ALL__'
p6739
I01
sS'oh__TOP__'
p6740
I01
sS'into__TOP__'
p6741
I01
sS'?__ALL__'
p6742
I01
sS'you__ALL__'
p6743
I01
sS'oh__ALL__'
p6744
I01
sa(dp6745
S'to__ALL__'
p6746
I01
sS'time__ALL__'
p6747
I01
sS'time__BOTTOM__'
p6748
I01
sS'gauntlet__BOTTOM__'
p6749
I01
sS'to__BOTTOM__'
p6750
I01
sS'misbehav__ALL__'
p6751
I01
sS'gauntlet__ALL__'
p6752
I01
sS'the__ALL__'
p6753
I01
sS'misbehav__TOP__'
p6754
I01
sS'you__TOP__'
p6755
I01
sS'take__ALL__'
p6756
I01
sS'take__BOTTOM__'
p6757
I01
sS'down__ALL__'
p6758
I01
sS'the__BOTTOM__'
p6759
I01
sS'you__ALL__'
p6760
I01
sS'you__BOTTOM__'
p6761
I01
sS'down__BOTTOM__'
p6762
I01
sa(dp6763
S'els__BOTTOM__'
p6764
I01
sS'els__ALL__'
p6765
I01
sS'boooooooo__ALL__'
p6766
I01
sS'someth__ALL__'
p6767
I01
sS'with__ALL__'
p6768
I01
sS'someth__BOTTOM__'
p6769
I01
sS'come__BOTTOM__'
p6770
I01
sS'come__ALL__'
p6771
I01
sS'up__BOTTOM__'
p6772
I01
sS'up__ALL__'
p6773
I01
sS'boooooooo__TOP__'
p6774
I01
sS'with__BOTTOM__'
p6775
I01
sa(dp6776
S'tabl__ALL__'
p6777
I01
sS'thi__TOP__'
p6778
I01
sS'fuck__BOTTOM__'
p6779
I01
sS'fool__BOTTOM__'
p6780
I01
sS'tabl__TOP__'
p6781
I01
sS'will__ALL__'
p6782
I01
sS'shit__TOP__'
p6783
I01
sS'shit__ALL__'
p6784
I01
sS'indefinit__ALL__'
p6785
I01
sS'indefinit__TOP__'
p6786
I01
sS'thi__ALL__'
p6787
I01
sS'it__BOTTOM__'
p6788
I01
sS'you__ALL__'
p6789
I01
sS'you__BOTTOM__'
p6790
I01
sS'believ__BOTTOM__'
p6791
I01
sS'believ__ALL__'
p6792
I01
sS'fool__ALL__'
p6793
I01
sS'better__ALL__'
p6794
I01
sS'be__ALL__'
p6795
I01
sS'it__ALL__'
p6796
I01
sS'be__TOP__'
p6797
I01
sS'probabl__TOP__'
p6798
I01
sS'probabl__ALL__'
p6799
I01
sS'better__BOTTOM__'
p6800
I01
sS'fuck__ALL__'
p6801
I01
sS'will__TOP__'
p6802
I01
sa(dp6803
S'3__ALL__'
p6804
I01
sS'work__TOP__'
p6805
I01
sS'correctli__ALL__'
p6806
I01
sS'not__ALL__'
p6807
I01
sS'month__TOP__'
p6808
I01
sS'3__TOP__'
p6809
I01
sS'correctli__BOTTOM__'
p6810
I01
sS'logo__TOP__'
p6811
I01
sS'on__ALL__'
p6812
I01
sS'month__ALL__'
p6813
I01
sS'for__TOP__'
p6814
I01
sS'logo__ALL__'
p6815
I01
sS'work__ALL__'
p6816
I01
sS'mat__ALL__'
p6817
I01
sS'not__BOTTOM__'
p6818
I01
sS'for__ALL__'
p6819
I01
sS'on__TOP__'
p6820
I01
sS'mat__BOTTOM__'
p6821
I01
sa(dp6822
S'.__BOTTOM__'
p6823
I01
sS'.__ALL__'
p6824
I01
sS'wa__ALL__'
p6825
I01
sS'chrisbank__BOTTOM__'
p6826
I01
sS'argument__TOP__'
p6827
I01
sS'wa__TOP__'
p6828
I01
sS'as__TOP__'
p6829
I01
sS'your__TOP__'
p6830
I01
sS'chrisbank__ALL__'
p6831
I01
sS'impass__ALL__'
p6832
I01
sS'as__ALL__'
p6833
I01
sS'your__ALL__'
p6834
I01
sS'argument__ALL__'
p6835
I01
sS'impass__TOP__'
p6836
I01
sa(dp6837
S'permaban__ALL__'
p6838
I01
sS'got__BOTTOM__'
p6839
I01
sS'?__ALL__'
p6840
I01
sS'?__BOTTOM__'
p6841
I01
sS'wait__TOP__'
p6842
I01
sS'wait__ALL__'
p6843
I01
sS'user__ALL__'
p6844
I01
sS'user__BOTTOM__'
p6845
I01
sS'the__ALL__'
p6846
I01
sS'the__BOTTOM__'
p6847
I01
sS'permaban__BOTTOM__'
p6848
I01
sS'got__ALL__'
p6849
I01
sa(dp6850
S'the__TOP__'
p6851
I01
sS'time__ALL__'
p6852
I01
sS'gauntlet__ALL__'
p6853
I01
sS'gauntlet__BOTTOM__'
p6854
I01
sS'to__ALL__'
p6855
I01
sS'the__ALL__'
p6856
I01
sS'to__TOP__'
p6857
I01
sS'time__TOP__'
p6858
I01
sS'you__TOP__'
p6859
I01
sS'take__ALL__'
p6860
I01
sS'you__ALL__'
p6861
I01
sS'take__TOP__'
p6862
I01
sa(dp6863
S'?__TOP__'
p6864
I01
sS'?__ALL__'
p6865
I01
sS'think__ALL__'
p6866
I01
sS'follow__ALL__'
p6867
I01
sS'i__ALL__'
p6868
I01
sS'think__BOTTOM__'
p6869
I01
sS'not__BOTTOM__'
p6870
I01
sS'you__TOP__'
p6871
I01
sS'follow__TOP__'
p6872
I01
sS'you__ALL__'
p6873
I01
sS'i__BOTTOM__'
p6874
I01
sS'not__ALL__'
p6875
I01
sa(dp6876
S'tabl__ALL__'
p6877
I01
sS'thi__TOP__'
p6878
I01
sS'fuck__BOTTOM__'
p6879
I01
sS'tabl__TOP__'
p6880
I01
sS'will__ALL__'
p6881
I01
sS'indefinit__ALL__'
p6882
I01
sS'indefinit__TOP__'
p6883
I01
sS'thi__ALL__'
p6884
I01
sS'it__BOTTOM__'
p6885
I01
sS'you__ALL__'
p6886
I01
sS'you__BOTTOM__'
p6887
I01
sS'believ__BOTTOM__'
p6888
I01
sS'believ__ALL__'
p6889
I01
sS'better__ALL__'
p6890
I01
sS'be__ALL__'
p6891
I01
sS'it__ALL__'
p6892
I01
sS'be__TOP__'
p6893
I01
sS'probabl__TOP__'
p6894
I01
sS'probabl__ALL__'
p6895
I01
sS'better__BOTTOM__'
p6896
I01
sS'fuck__ALL__'
p6897
I01
sS'will__TOP__'
p6898
I01
sa(dp6899
S'hope__BOTTOM__'
p6900
I01
sS'hope__ALL__'
p6901
I01
sS'call__BOTTOM__'
p6902
I01
sS'fuck__BOTTOM__'
p6903
I01
sS'me__ALL__'
p6904
I01
sS'babi__ALL__'
p6905
I01
sS'call__ALL__'
p6906
I01
sS'a__ALL__'
p6907
I01
sS'mom__TOP__'
p6908
I01
sS'for__BOTTOM__'
p6909
I01
sS'fuck__ALL__'
p6910
I01
sS'u__ALL__'
p6911
I01
sS'on__ALL__'
p6912
I01
sS'it__BOTTOM__'
p6913
I01
sS'u__BOTTOM__'
p6914
I01
sS'rain__ALL__'
p6915
I01
sS'for__ALL__'
p6916
I01
sS'13th__ALL__'
p6917
I01
sS'me__BOTTOM__'
p6918
I01
sS'mom__ALL__'
p6919
I01
sS'rain__BOTTOM__'
p6920
I01
sS'it__ALL__'
p6921
I01
sS'13th__BOTTOM__'
p6922
I01
sS'a__BOTTOM__'
p6923
I01
sS'babi__BOTTOM__'
p6924
I01
sS'on__BOTTOM__'
p6925
I01
sS'the__ALL__'
p6926
I01
sS'the__BOTTOM__'
p6927
I01
sa(dp6928
S'post__ALL__'
p6929
I01
sS'a__ALL__'
p6930
I01
sS'?__ALL__'
p6931
I01
sS'post__TOP__'
p6932
I01
sS'a__TOP__'
p6933
I01
sS'made__TOP__'
p6934
I01
sS'downvot__TOP__'
p6935
I01
sS'made__ALL__'
p6936
I01
sS'?__TOP__'
p6937
I01
sS'good__BOTTOM__'
p6938
I01
sS'roman__ALL__'
p6939
I01
sS'good__ALL__'
p6940
I01
sS'roman__TOP__'
p6941
I01
sS'downvot__ALL__'
p6942
I01
sa(dp6943
S'asshol__BOTTOM__'
p6944
I01
sS'to__BOTTOM__'
p6945
I01
sS'hey__ALL__'
p6946
I01
sS'guess__BOTTOM__'
p6947
I01
sS'what__ALL__'
p6948
I01
sS'and__ALL__'
p6949
I01
sS'and__BOTTOM__'
p6950
I01
sS'happen__ALL__'
p6951
I01
sS'who__BOTTOM__'
p6952
I01
sS'downstair__ALL__'
p6953
I01
sS'what__BOTTOM__'
p6954
I01
sS'guess__ALL__'
p6955
I01
sS'who__ALL__'
p6956
I01
sS'asshol__ALL__'
p6957
I01
sS'downstair__BOTTOM__'
p6958
I01
sS'girl__TOP__'
p6959
I01
sS'girl__ALL__'
p6960
I01
sS'live__ALL__'
p6961
I01
sS'happen__BOTTOM__'
p6962
I01
sS'to__ALL__'
p6963
I01
sS'live__BOTTOM__'
p6964
I01
sS'hey__TOP__'
p6965
I01
sa(dp6966
S'lost__ALL__'
p6967
I01
sS'punish__ALL__'
p6968
I01
sS'propellor__BOTTOM__'
p6969
I01
sS'chief__TOP__'
p6970
I01
sS'with__ALL__'
p6971
I01
sS'boat__ALL__'
p6972
I01
sS'hi__ALL__'
p6973
I01
sS'lost__TOP__'
p6974
I01
sS'chief__ALL__'
p6975
I01
sS'of__ALL__'
p6976
I01
sS'nutsack__BOTTOM__'
p6977
I01
sS'carthag__TOP__'
p6978
I01
sS'carthag__ALL__'
p6979
I01
sS'nutsack__ALL__'
p6980
I01
sS'a__ALL__'
p6981
I01
sS'battl__ALL__'
p6982
I01
sS'hi__BOTTOM__'
p6983
I01
sS'of__TOP__'
p6984
I01
sS'boat__BOTTOM__'
p6985
I01
sS'master__TOP__'
p6986
I01
sS'battl__TOP__'
p6987
I01
sS'a__BOTTOM__'
p6988
I01
sS'punish__BOTTOM__'
p6989
I01
sS'with__BOTTOM__'
p6990
I01
sS'propellor__ALL__'
p6991
I01
sS'master__ALL__'
p6992
I01
sa(dp6993
S'.__BOTTOM__'
p6994
I01
sS'new__BOTTOM__'
p6995
I01
sS'.__ALL__'
p6996
I01
sS'new__ALL__'
p6997
I01
sS'propel__BOTTOM__'
p6998
I01
sS'lost__ALL__'
p6999
I01
sS'punish__ALL__'
p7000
I01
sS'chief__TOP__'
p7001
I01
sS'with__ALL__'
p7002
I01
sS'boat__ALL__'
p7003
I01
sS'hi__ALL__'
p7004
I01
sS'lost__TOP__'
p7005
I01
sS'chief__ALL__'
p7006
I01
sS'of__ALL__'
p7007
I01
sS'nutsack__BOTTOM__'
p7008
I01
sS'carthag__TOP__'
p7009
I01
sS'carthag__ALL__'
p7010
I01
sS'nutsack__ALL__'
p7011
I01
sS'propel__ALL__'
p7012
I01
sS'battl__ALL__'
p7013
I01
sS'hi__BOTTOM__'
p7014
I01
sS'of__TOP__'
p7015
I01
sS'boat__BOTTOM__'
p7016
I01
sS'master__TOP__'
p7017
I01
sS'battl__TOP__'
p7018
I01
sS'punish__BOTTOM__'
p7019
I01
sS'with__BOTTOM__'
p7020
I01
sS'the__ALL__'
p7021
I01
sS'the__BOTTOM__'
p7022
I01
sS'master__ALL__'
p7023
I01
sa(dp7024
S'lost__ALL__'
p7025
I01
sS'punish__ALL__'
p7026
I01
sS'chief__TOP__'
p7027
I01
sS'with__ALL__'
p7028
I01
sS'boat__ALL__'
p7029
I01
sS'hi__ALL__'
p7030
I01
sS'lost__TOP__'
p7031
I01
sS'chief__ALL__'
p7032
I01
sS'of__ALL__'
p7033
I01
sS'nutsack__BOTTOM__'
p7034
I01
sS'carthag__TOP__'
p7035
I01
sS'carthag__ALL__'
p7036
I01
sS'nutsack__ALL__'
p7037
I01
sS'a__ALL__'
p7038
I01
sS'battl__ALL__'
p7039
I01
sS'hi__BOTTOM__'
p7040
I01
sS'of__TOP__'
p7041
I01
sS'boat__BOTTOM__'
p7042
I01
sS'master__TOP__'
p7043
I01
sS'battl__TOP__'
p7044
I01
sS'a__BOTTOM__'
p7045
I01
sS'punish__BOTTOM__'
p7046
I01
sS'with__BOTTOM__'
p7047
I01
sS'master__ALL__'
p7048
I01
sS'prop__ALL__'
p7049
I01
sS'prop__BOTTOM__'
p7050
I01
sa(dp7051
S'.__BOTTOM__'
p7052
I01
sS'.__ALL__'
p7053
I01
sS'through__ALL__'
p7054
I01
sS'through__TOP__'
p7055
I01
sS'fuko__ALL__'
p7056
I01
sS'me__ALL__'
p7057
I01
sS'call__ALL__'
p7058
I01
sS'text__ALL__'
p7059
I01
sS'text__TOP__'
p7060
I01
sS'call__TOP__'
p7061
I01
sS'?__TOP__'
p7062
I01
sS'it__BOTTOM__'
p7063
I01
sS'me__TOP__'
p7064
I01
sS'of__ALL__'
p7065
I01
sS'of__BOTTOM__'
p7066
I01
sS'carthag__ALL__'
p7067
I01
sS'battl__ALL__'
p7068
I01
sS'it__ALL__'
p7069
I01
sS'carthag__BOTTOM__'
p7070
I01
sS'is__BOTTOM__'
p7071
I01
sS'?__ALL__'
p7072
I01
sS'fuko__TOP__'
p7073
I01
sS'battl__BOTTOM__'
p7074
I01
sS'is__ALL__'
p7075
I01
sa(dp7076
S'it__TOP__'
p7077
I01
sS'!__ALL__'
p7078
I01
sS'!__BOTTOM__'
p7079
I01
sS'too__ALL__'
p7080
I01
sS'fuck__BOTTOM__'
p7081
I01
sS'mom__ALL__'
p7082
I01
sS'too__TOP__'
p7083
I01
sS'mom__BOTTOM__'
p7084
I01
sS'late__ALL__'
p7085
I01
sS'fuck__ALL__'
p7086
I01
sS'you__ALL__'
p7087
I01
sS'you__BOTTOM__'
p7088
I01
sS'late__TOP__'
p7089
I01
sS'it__ALL__'
p7090
I01
sa.