(lp0
(dp1
S'ruin__ALL__'
p2
I01
sS'think__TOP__'
p3
I01
sS'ruin__BOTTOM__'
p4
I01
sS'vote__TOP__'
p5
I01
sS'derek__ALL__'
p6
I01
sS'band__BOTTOM__'
p7
I01
sS'and__BOTTOM__'
p8
I01
sS'than__ALL__'
p9
I01
sS'ethan__ALL__'
p10
I01
sS'vote__ALL__'
p11
I01
sS'think__ALL__'
p12
I01
sS'!__BOTTOM__'
p13
I01
sS'ethan__TOP__'
p14
I01
sS'than__TOP__'
p15
I01
sS'and__TOP__'
p16
I01
sS'for__ALL__'
p17
I01
sS'i__ALL__'
p18
I01
sS'band__ALL__'
p19
I01
sS"'ll__ALL__"
p20
I01
sS'other__ALL__'
p21
I01
sS'for__TOP__'
p22
I01
sS'forev__ALL__'
p23
I01
sS'somebodi__TOP__'
p24
I01
sS'somebodi__ALL__'
p25
I01
sS'i__TOP__'
p26
I01
sS"'ll__TOP__"
p27
I01
sS'and__ALL__'
p28
I01
sS'!__ALL__'
p29
I01
sS'derek__TOP__'
p30
I01
sS'other__TOP__'
p31
I01
sS'the__ALL__'
p32
I01
sS'the__BOTTOM__'
p33
I01
sS'forev__BOTTOM__'
p34
I01
sa(dp35
S'make__ALL__'
p36
I01
sS'had__TOP__'
p37
I01
sS'cri__ALL__'
p38
I01
sS'there__BOTTOM__'
p39
I01
sS'to__BOTTOM__'
p40
I01
sS'cri__TOP__'
p41
I01
sS'a__TOP__'
p42
I01
sS'tear__ALL__'
p43
I01
sS'drop__BOTTOM__'
p44
I01
sS'tear__BOTTOM__'
p45
I01
sS'but__ALL__'
p46
I01
sS"n't__ALL__"
p47
I01
sS'a__ALL__'
p48
I01
sS'there__ALL__'
p49
I01
sS'but__BOTTOM__'
p50
I01
sS'wase__BOTTOM__'
p51
I01
sS'plan__ALL__'
p52
I01
sS'evil__ALL__'
p53
I01
sS'had__ALL__'
p54
I01
sS'you__ALL__'
p55
I01
sS'enough__ALL__'
p56
I01
sS"n't__BOTTOM__"
p57
I01
sS'i__ALL__'
p58
I01
sS'wase__ALL__'
p59
I01
sS'you__TOP__'
p60
I01
sS'plan__TOP__'
p61
I01
sS'to__ALL__'
p62
I01
sS'i__TOP__'
p63
I01
sS'enough__BOTTOM__'
p64
I01
sS'evil__TOP__'
p65
I01
sS'to__TOP__'
p66
I01
sS'drop__ALL__'
p67
I01
sS'make__TOP__'
p68
I01
sa(dp69
S'get__ALL__'
p70
I01
sS'new__ALL__'
p71
I01
sS'can__ALL__'
p72
I01
sS'so__ALL__'
p73
I01
sS'game__BOTTOM__'
p74
I01
sS'new__TOP__'
p75
I01
sS'3000__BOTTOM__'
p76
I01
sS'place__ALL__'
p77
I01
sS'my__BOTTOM__'
p78
I01
sS'warcraft__ALL__'
p79
I01
sS'at__ALL__'
p80
I01
sS'them__TOP__'
p81
I01
sS'game__ALL__'
p82
I01
sS'told__ALL__'
p83
I01
sS'can__BOTTOM__'
p84
I01
sS'so__BOTTOM__'
p85
I01
sS'of__ALL__'
p86
I01
sS'play__ALL__'
p87
I01
sS'of__BOTTOM__'
p88
I01
sS'they__TOP__'
p89
I01
sS'told__TOP__'
p90
I01
sS'i__ALL__'
p91
I01
sS'them__ALL__'
p92
I01
sS'they__ALL__'
p93
I01
sS'their__BOTTOM__'
p94
I01
sS'warcraft__BOTTOM__'
p95
I01
sS'i__TOP__'
p96
I01
sS'their__ALL__'
p97
I01
sS'comput__ALL__'
p98
I01
sS'get__TOP__'
p99
I01
sS'comput__TOP__'
p100
I01
sS'i__BOTTOM__'
p101
I01
sS'3000__ALL__'
p102
I01
sS'my__ALL__'
p103
I01
sS'place__BOTTOM__'
p104
I01
sS'would__ALL__'
p105
I01
sS'would__TOP__'
p106
I01
sS'at__BOTTOM__'
p107
I01
sS'play__BOTTOM__'
p108
I01
sa(dp109
S'daughter__TOP__'
p110
I01
sS'``__ALL__'
p111
I01
sS'daughter__ALL__'
p112
I01
sS'menu__TOP__'
p113
I01
sS'me__ALL__'
p114
I01
sS'the__TOP__'
p115
I01
sS'teach__TOP__'
p116
I01
sS'lunch__BOTTOM__'
p117
I01
sS'``__TOP__'
p118
I01
sS"''__ALL__"
p119
I01
sS'Have__TOP__'
p120
I01
sS"''__TOP__"
p121
I01
sS'lunch__ALL__'
p122
I01
sS'Free__BOTTOM__'
p123
I01
sS'me__TOP__'
p124
I01
sS'Have__ALL__'
p125
I01
sS'teach__ALL__'
p126
I01
sS'famili__ALL__'
p127
I01
sS'Free__ALL__'
p128
I01
sS'the__BOTTOM__'
p129
I01
sS'for__BOTTOM__'
p130
I01
sS'menu__ALL__'
p131
I01
sS'for__ALL__'
p132
I01
sS'my__TOP__'
p133
I01
sS'my__ALL__'
p134
I01
sS'the__ALL__'
p135
I01
sS'famili__BOTTOM__'
p136
I01
sS'whole__BOTTOM__'
p137
I01
sS'whole__ALL__'
p138
I01
sa(dp139
S'all__ALL__'
p140
I01
sS'there__ALL__'
p141
I01
sS'Get__TOP__'
p142
I01
sS'by__TOP__'
p143
I01
sS'Book__ALL__'
p144
I01
sS'them__TOP__'
p145
I01
sS'Air__TOP__'
p146
I01
sS'Then__BOTTOM__'
p147
I01
sS'Air__ALL__'
p148
I01
sS'box__ALL__'
p149
I01
sS'free__ALL__'
p150
I01
sS'them__ALL__'
p151
I01
sS'tell__BOTTOM__'
p152
I01
sS'Then__ALL__'
p153
I01
sS'were__BOTTOM__'
p154
I01
sS'by__ALL__'
p155
I01
sS'the__ALL__'
p156
I01
sS'Mac__ALL__'
p157
I01
sS'tell__TOP__'
p158
I01
sS'excit__TOP__'
p159
I01
sS'were__ALL__'
p160
I01
sS'tell__ALL__'
p161
I01
sS'excit__ALL__'
p162
I01
sS'are__TOP__'
p163
I01
sS'all__TOP__'
p164
I01
sS'are__ALL__'
p165
I01
sS'Get__ALL__'
p166
I01
sS'free__TOP__'
p167
I01
sS'them__BOTTOM__'
p168
I01
sS'box__BOTTOM__'
p169
I01
sS'Mac__TOP__'
p170
I01
sS'the__BOTTOM__'
p171
I01
sS'Book__TOP__'
p172
I01
sS'empti__ALL__'
p173
I01
sS'empti__BOTTOM__'
p174
I01
sS'there__TOP__'
p175
I01
sa(dp176
S'have__TOP__'
p177
I01
sS'a__TOP__'
p178
I01
sS'boy__ALL__'
p179
I01
sS'the__TOP__'
p180
I01
sS'quiet__TOP__'
p181
I01
sS'quiet__ALL__'
p182
I01
sS'have__ALL__'
p183
I01
sS'at__ALL__'
p184
I01
sS'a__ALL__'
p185
I01
sS'night__TOP__'
p186
I01
sS'!__BOTTOM__'
p187
I01
sS'were__TOP__'
p188
I01
sS'con__TOP__'
p189
I01
sS'boy__TOP__'
p190
I01
sS'night__ALL__'
p191
I01
sS'con__ALL__'
p192
I01
sS'were__ALL__'
p193
I01
sS'Tell__ALL__'
p194
I01
sS'Jagermeist__ALL__'
p195
I01
sS'!__ALL__'
p196
I01
sS'Jagermeist__BOTTOM__'
p197
I01
sS'Tell__TOP__'
p198
I01
sS'the__ALL__'
p199
I01
sS'at__TOP__'
p200
I01
sa(dp201
S'make__ALL__'
p202
I01
sS'alway__ALL__'
p203
I01
sS'a__ALL__'
p204
I01
sS'cake__BOTTOM__'
p205
I01
sS'new__ALL__'
p206
I01
sS'everi__ALL__'
p207
I01
sS'day__ALL__'
p208
I01
sS'day__TOP__'
p209
I01
sS'a__TOP__'
p210
I01
sS'everi__TOP__'
p211
I01
sS'year__TOP__'
p212
I01
sS'account__TOP__'
p213
I01
sS'account__ALL__'
p214
I01
sS'year__ALL__'
p215
I01
sS'for__TOP__'
p216
I01
sS'day__BOTTOM__'
p217
I01
sS'make__TOP__'
p218
I01
sS'alway__BOTTOM__'
p219
I01
sS'for__ALL__'
p220
I01
sS'new__TOP__'
p221
I01
sS'cake__ALL__'
p222
I01
sa(dp223
S'I__TOP__'
p224
I01
sS'to__BOTTOM__'
p225
I01
sS'a__TOP__'
p226
I01
sS'me__ALL__'
p227
I01
sS'should__ALL__'
p228
I01
sS'line__ALL__'
p229
I01
sS'what__ALL__'
p230
I01
sS'am__TOP__'
p231
I01
sS'have__ALL__'
p232
I01
sS"n't__ALL__"
p233
I01
sS'am__ALL__'
p234
I01
sS'mention__ALL__'
p235
I01
sS'?__TOP__'
p236
I01
sS'on__ALL__'
p237
I01
sS'oppos__ALL__'
p238
I01
sS'should__BOTTOM__'
p239
I01
sS'if__ALL__'
p240
I01
sS'you__ALL__'
p241
I01
sS'you__BOTTOM__'
p242
I01
sS'tell__BOTTOM__'
p243
I01
sS'if__BOTTOM__'
p244
I01
sS'oppos__BOTTOM__'
p245
I01
sS'Did__TOP__'
p246
I01
sS"n't__BOTTOM__"
p247
I01
sS'me__BOTTOM__'
p248
I01
sS'a__ALL__'
p249
I01
sS'tell__ALL__'
p250
I01
sS'I__BOTTOM__'
p251
I01
sS'cecilian__TOP__'
p252
I01
sS'mention__TOP__'
p253
I01
sS'cecilian__ALL__'
p254
I01
sS'have__BOTTOM__'
p255
I01
sS'Did__ALL__'
p256
I01
sS'what__BOTTOM__'
p257
I01
sS'to__ALL__'
p258
I01
sS'?__ALL__'
p259
I01
sS'I__ALL__'
p260
I01
sS'line__BOTTOM__'
p261
I01
sS'on__BOTTOM__'
p262
I01
sS'the__ALL__'
p263
I01
sS'the__BOTTOM__'
p264
I01
sS"'s__ALL__"
p265
I01
sS"'s__BOTTOM__"
p266
I01
sa(dp267
S'dont__ALL__'
p268
I01
sS"''__TOP__"
p269
I01
sS'``__ALL__'
p270
I01
sS'titl__TOP__'
p271
I01
sS'in__ALL__'
p272
I01
sS'bath__ALL__'
p273
I01
sS'``__TOP__'
p274
I01
sS"''__ALL__"
p275
I01
sS'titl__ALL__'
p276
I01
sS'Put__ALL__'
p277
I01
sS'upvot__TOP__'
p278
I01
sS'upvot__BOTTOM__'
p279
I01
sS'Put__TOP__'
p280
I01
sS'upvot__ALL__'
p281
I01
sS'in__BOTTOM__'
p282
I01
sS'pleas__ALL__'
p283
I01
sS'bath__BOTTOM__'
p284
I01
sS'in__TOP__'
p285
I01
sS'dont__TOP__'
p286
I01
sS'pleas__TOP__'
p287
I01
sS'the__ALL__'
p288
I01
sS'the__BOTTOM__'
p289
I01
sa(dp290
S'all__ALL__'
p291
I01
sS'ma__TOP__'
p292
I01
sS'year__ALL__'
p293
I01
sS'like__TOP__'
p294
I01
sS'year__TOP__'
p295
I01
sS'and__ALL__'
p296
I01
sS'yo__ALL__'
p297
I01
sS'and__TOP__'
p298
I01
sS'like__ALL__'
p299
I01
sS"'s__TOP__"
p300
I01
sS'raccoon__ALL__'
p301
I01
sS'gon__ALL__'
p302
I01
sS'ball__ALL__'
p303
I01
sS'10__ALL__'
p304
I01
sS'10__TOP__'
p305
I01
sS'gon__TOP__'
p306
I01
sS'friend__TOP__'
p307
I01
sS',__TOP__'
p308
I01
sS'friend__ALL__'
p309
I01
sS'get__ALL__'
p310
I01
sS'i__ALL__'
p311
I01
sS'ball__TOP__'
p312
I01
sS',__ALL__'
p313
I01
sS'be__ALL__'
p314
I01
sS'ma__ALL__'
p315
I01
sS'be__TOP__'
p316
I01
sS'i__TOP__'
p317
I01
sS'take__ALL__'
p318
I01
sS'all__TOP__'
p319
I01
sS'get__TOP__'
p320
I01
sS'yo__TOP__'
p321
I01
sS'raccoon__TOP__'
p322
I01
sS'take__TOP__'
p323
I01
sS"'s__ALL__"
p324
I01
sa(dp325
S'iz__BOTTOM__'
p326
I01
sS'all__ALL__'
p327
I01
sS'ma__TOP__'
p328
I01
sS'year__ALL__'
p329
I01
sS'we__ALL__'
p330
I01
sS'like__TOP__'
p331
I01
sS'year__TOP__'
p332
I01
sS'im__TOP__'
p333
I01
sS'iz__ALL__'
p334
I01
sS'ball__ALL__'
p335
I01
sS'we__TOP__'
p336
I01
sS'solee__BOTTOM__'
p337
I01
sS'like__ALL__'
p338
I01
sS"'s__TOP__"
p339
I01
sS'fwend__ALL__'
p340
I01
sS'gon__ALL__'
p341
I01
sS'be__TOP__'
p342
I01
sS'10__ALL__'
p343
I01
sS'and__TOP__'
p344
I01
sS'solee__ALL__'
p345
I01
sS'co__ALL__'
p346
I01
sS'10__TOP__'
p347
I01
sS'co__BOTTOM__'
p348
I01
sS'tek__ALL__'
p349
I01
sS'yo__ALL__'
p350
I01
sS'get__ALL__'
p351
I01
sS'ball__TOP__'
p352
I01
sS'be__ALL__'
p353
I01
sS'we__BOTTOM__'
p354
I01
sS'ma__ALL__'
p355
I01
sS'fwend__TOP__'
p356
I01
sS'tek__TOP__'
p357
I01
sS'all__TOP__'
p358
I01
sS'im__ALL__'
p359
I01
sS'get__TOP__'
p360
I01
sS'and__ALL__'
p361
I01
sS'yo__TOP__'
p362
I01
sS"'s__ALL__"
p363
I01
sS'gon__TOP__'
p364
I01
sa(dp365
S'.__BOTTOM__'
p366
I01
sS'.__ALL__'
p367
I01
sS"''__TOP__"
p368
I01
sS'``__ALL__'
p369
I01
sS'titl__TOP__'
p370
I01
sS'shower__ALL__'
p371
I01
sS'in__ALL__'
p372
I01
sS'``__TOP__'
p373
I01
sS"''__ALL__"
p374
I01
sS"n't__ALL__"
p375
I01
sS'titl__ALL__'
p376
I01
sS'my__ALL__'
p377
I01
sS"n't__TOP__"
p378
I01
sS'shower__BOTTOM__'
p379
I01
sS'upvot__TOP__'
p380
I01
sS'upvot__BOTTOM__'
p381
I01
sS'upvot__ALL__'
p382
I01
sS'do__ALL__'
p383
I01
sS'in__BOTTOM__'
p384
I01
sS'pleas__ALL__'
p385
I01
sS'do__TOP__'
p386
I01
sS'Type__ALL__'
p387
I01
sS'Type__TOP__'
p388
I01
sS'in__TOP__'
p389
I01
sS'my__TOP__'
p390
I01
sS'pleas__TOP__'
p391
I01
sS'the__ALL__'
p392
I01
sS'the__BOTTOM__'
p393
I01
sa(dp394
S'.__BOTTOM__'
p395
I01
sS'new__BOTTOM__'
p396
I01
sS'.__ALL__'
p397
I01
sS'new__ALL__'
p398
I01
sS'like__TOP__'
p399
I01
sS'herd__BOTTOM__'
p400
I01
sS'like__ALL__'
p401
I01
sS'hood__ALL__'
p402
I01
sS'...__ALL__'
p403
I01
sS'beat__ALL__'
p404
I01
sS'killa__ALL__'
p405
I01
sS'bitch__ALL__'
p406
I01
sS'bitch__TOP__'
p407
I01
sS'be__ALL__'
p408
I01
sS'killa__BOTTOM__'
p409
I01
sS'that__BOTTOM__'
p410
I01
sS'...__TOP__'
p411
I01
sS'herd__ALL__'
p412
I01
sS'be__TOP__'
p413
I01
sS'hood__BOTTOM__'
p414
I01
sS'that__ALL__'
p415
I01
sS'just__BOTTOM__'
p416
I01
sS'just__ALL__'
p417
I01
sS'beat__BOTTOM__'
p418
I01
sa(dp419
S'world__BOTTOM__'
p420
I01
sS'!__BOTTOM__'
p421
I01
sS'mine__ALL__'
p422
I01
sS'!__TOP__'
p423
I01
sS'Hurhhahahaa__ALL__'
p424
I01
sS'Hurhhahahaa__TOP__'
p425
I01
sS'is__BOTTOM__'
p426
I01
sS'is__ALL__'
p427
I01
sS'!__ALL__'
p428
I01
sS'world__ALL__'
p429
I01
sS'The__ALL__'
p430
I01
sS'The__BOTTOM__'
p431
I01
sS'mine__BOTTOM__'
p432
I01
sa(dp433
S'all__ALL__'
p434
I01
sS',__TOP__'
p435
I01
sS'yess__ALL__'
p436
I01
sS'yess__TOP__'
p437
I01
sS'it__TOP__'
p438
I01
sS'all__TOP__'
p439
I01
sS'off__TOP__'
p440
I01
sS',__ALL__'
p441
I01
sS'off__ALL__'
p442
I01
sS'miss__BOTTOM__'
p443
I01
sS'take__ALL__'
p444
I01
sS'it__ALL__'
p445
I01
sS'miss__ALL__'
p446
I01
sS'Luscomb__ALL__'
p447
I01
sS'take__TOP__'
p448
I01
sS'Luscomb__BOTTOM__'
p449
I01
sa(dp450
S',__BOTTOM__'
p451
I01
sS'herself__ALL__'
p452
I01
sS'in__ALL__'
p453
I01
sS'the__TOP__'
p454
I01
sS'and__ALL__'
p455
I01
sS'first__ALL__'
p456
I01
sS'engag__BOTTOM__'
p457
I01
sS'and__BOTTOM__'
p458
I01
sS'find__ALL__'
p459
I01
sS'find__BOTTOM__'
p460
I01
sS'perfectli__TOP__'
p461
I01
sS'jealou__ALL__'
p462
I01
sS'Facefight__ALL__'
p463
I01
sS'come__ALL__'
p464
I01
sS'will__ALL__'
p465
I01
sS'!__BOTTOM__'
p466
I01
sS'first__TOP__'
p467
I01
sS'Excel__ALL__'
p468
I01
sS'my__ALL__'
p469
I01
sS'Jennif__BOTTOM__'
p470
I01
sS'jealou__BOTTOM__'
p471
I01
sS'of__ALL__'
p472
I01
sS'part__TOP__'
p473
I01
sS',__TOP__'
p474
I01
sS'work__TOP__'
p475
I01
sS'Excel__TOP__'
p476
I01
sS'Soon__ALL__'
p477
I01
sS'me__BOTTOM__'
p478
I01
sS',__ALL__'
p479
I01
sS'Jennif__ALL__'
p480
I01
sS'engag__ALL__'
p481
I01
sS'be__ALL__'
p482
I01
sS'in__BOTTOM__'
p483
I01
sS'of__TOP__'
p484
I01
sS'be__BOTTOM__'
p485
I01
sS'perfectli__ALL__'
p486
I01
sS'plan__TOP__'
p487
I01
sS'with__BOTTOM__'
p488
I01
sS'!__ALL__'
p489
I01
sS'will__BOTTOM__'
p490
I01
sS'plan__ALL__'
p491
I01
sS'my__TOP__'
p492
I01
sS'with__ALL__'
p493
I01
sS'come__BOTTOM__'
p494
I01
sS'is__ALL__'
p495
I01
sS'part__ALL__'
p496
I01
sS'herself__BOTTOM__'
p497
I01
sS'is__TOP__'
p498
I01
sS'Facefight__BOTTOM__'
p499
I01
sS'work__ALL__'
p500
I01
sS'the__ALL__'
p501
I01
sS'me__ALL__'
p502
I01
sS'Soon__BOTTOM__'
p503
I01
sa(dp504
S'all__ALL__'
p505
I01
sS'all__BOTTOM__'
p506
I01
sS'the__TOP__'
p507
I01
sS'by__BOTTOM__'
p508
I01
sS'congressmen__BOTTOM__'
p509
I01
sS'in__ALL__'
p510
I01
sS'bill__BOTTOM__'
p511
I01
sS'dc__ALL__'
p512
I01
sS'lobbyist__BOTTOM__'
p513
I01
sS'have__ALL__'
p514
I01
sS'stop__BOTTOM__'
p515
I01
sS'valu__BOTTOM__'
p516
I01
sS'washington__ALL__'
p517
I01
sS'go__ALL__'
p518
I01
sS'Union__TOP__'
p519
I01
sS'by__ALL__'
p520
I01
sS'on__ALL__'
p521
I01
sS'stop__ALL__'
p522
I01
sS'strike__ALL__'
p523
I01
sS'conserv__BOTTOM__'
p524
I01
sS'have__BOTTOM__'
p525
I01
sS'famili__ALL__'
p526
I01
sS'Union__ALL__'
p527
I01
sS'until__ALL__'
p528
I01
sS'submit__BOTTOM__'
p529
I01
sS'lobbyist__ALL__'
p530
I01
sS'strike__BOTTOM__'
p531
I01
sS'until__BOTTOM__'
p532
I01
sS'submit__ALL__'
p533
I01
sS'prostitut__TOP__'
p534
I01
sS'corpor__BOTTOM__'
p535
I01
sS'famili__BOTTOM__'
p536
I01
sS'valu__ALL__'
p537
I01
sS'dc__TOP__'
p538
I01
sS'go__BOTTOM__'
p539
I01
sS'propos__BOTTOM__'
p540
I01
sS'in__TOP__'
p541
I01
sS'all__TOP__'
p542
I01
sS'prostitut__ALL__'
p543
I01
sS'bill__ALL__'
p544
I01
sS'corpor__ALL__'
p545
I01
sS'on__BOTTOM__'
p546
I01
sS'congressmen__ALL__'
p547
I01
sS'the__ALL__'
p548
I01
sS'the__BOTTOM__'
p549
I01
sS'washington__TOP__'
p550
I01
sS'propos__ALL__'
p551
I01
sS'conserv__ALL__'
p552
I01
sa(dp553
S'hehe__ALL__'
p554
I01
sS'time__ALL__'
p555
I01
sS'time__BOTTOM__'
p556
I01
sS'for__BOTTOM__'
p557
I01
sS'hehe__TOP__'
p558
I01
sS'A__BOTTOM__'
p559
I01
sS'A__ALL__'
p560
I01
sS'plan__ALL__'
p561
I01
sS'plan__BOTTOM__'
p562
I01
sS'for__ALL__'
p563
I01
sa(dp564
S'els__ALL__'
p565
I01
sS'the__TOP__'
p566
I01
sS'or__BOTTOM__'
p567
I01
sS'or__ALL__'
p568
I01
sS'follow__ALL__'
p569
I01
sS';__ALL__'
p570
I01
sS';__BOTTOM__'
p571
I01
sS')__ALL__'
p572
I01
sS'rule__TOP__'
p573
I01
sS'els__BOTTOM__'
p574
I01
sS'better__ALL__'
p575
I01
sS')__BOTTOM__'
p576
I01
sS'you__TOP__'
p577
I01
sS'the__ALL__'
p578
I01
sS'ict__TOP__'
p579
I01
sS'rule__ALL__'
p580
I01
sS'follow__TOP__'
p581
I01
sS'better__TOP__'
p582
I01
sS'you__ALL__'
p583
I01
sS'ict__ALL__'
p584
I01
sa(dp585
S'I__TOP__'
p586
I01
sS"'ve__TOP__"
p587
I01
sS'year__BOTTOM__'
p588
I01
sS'for__BOTTOM__'
p589
I01
sS'in__TOP__'
p590
I01
sS'wa__TOP__'
p591
I01
sS'I__ALL__'
p592
I01
sS'vacat__BOTTOM__'
p593
I01
sS'Savannah__ALL__'
p594
I01
sS"'ve__ALL__"
p595
I01
sS'year__ALL__'
p596
I01
sS'vacat__ALL__'
p597
I01
sS'last__BOTTOM__'
p598
I01
sS'wa__ALL__'
p599
I01
sS'Savannah__TOP__'
p600
I01
sS'in__ALL__'
p601
I01
sS'for__ALL__'
p602
I01
sS'last__ALL__'
p603
I01
sa(dp604
S'.__BOTTOM__'
p605
I01
sS'.__ALL__'
p606
I01
sS'to__BOTTOM__'
p607
I01
sS'essay__BOTTOM__'
p608
I01
sS'not__ALL__'
p609
I01
sS'Bring__ALL__'
p610
I01
sS'burn__ALL__'
p611
I01
sS'The__ALL__'
p612
I01
sS'your__BOTTOM__'
p613
I01
sS'Well__BOTTOM__'
p614
I01
sS'is__ALL__'
p615
I01
sS'fire__TOP__'
p616
I01
sS'fire__ALL__'
p617
I01
sS'The__TOP__'
p618
I01
sS'on__ALL__'
p619
I01
sS'Well__ALL__'
p620
I01
sS'Bring__BOTTOM__'
p621
I01
sS'let__BOTTOM__'
p622
I01
sS'on__TOP__'
p623
I01
sS'friend__ALL__'
p624
I01
sS',__ALL__'
p625
I01
sS'friend__BOTTOM__'
p626
I01
sS'church__TOP__'
p627
I01
sS',__BOTTOM__'
p628
I01
sS'your__ALL__'
p629
I01
sS'essay__ALL__'
p630
I01
sS'let__ALL__'
p631
I01
sS'part__ALL__'
p632
I01
sS'to__ALL__'
p633
I01
sS'test__BOTTOM__'
p634
I01
sS'part__TOP__'
p635
I01
sS'2__TOP__'
p636
I01
sS'not__BOTTOM__'
p637
I01
sS'burn__BOTTOM__'
p638
I01
sS'is__TOP__'
p639
I01
sS'church__ALL__'
p640
I01
sS"'s__ALL__"
p641
I01
sS'2__ALL__'
p642
I01
sS'test__ALL__'
p643
I01
sS"'s__BOTTOM__"
p644
I01
sa(dp645
S'all__ALL__'
p646
I01
sS'all__BOTTOM__'
p647
I01
sS"''__TOP__"
p648
I01
sS'the__BOTTOM__'
p649
I01
sS'``__ALL__'
p650
I01
sS'``__TOP__'
p651
I01
sS'the__ALL__'
p652
I01
sS'slide__ALL__'
p653
I01
sS'slide__BOTTOM__'
p654
I01
sS'Slide__ALL__'
p655
I01
sS'show__ALL__'
p656
I01
sS'Forget__ALL__'
p657
I01
sS'at__TOP__'
p658
I01
sS'Ha__BOTTOM__'
p659
I01
sS'Forget__TOP__'
p660
I01
sS'Ha__ALL__'
p661
I01
sS'Slide__TOP__'
p662
I01
sS'at__ALL__'
p663
I01
sS"''__ALL__"
p664
I01
sS'show__TOP__'
p665
I01
sa(dp666
S'Today__TOP__'
p667
I01
sS',__TOP__'
p668
I01
sS'world__BOTTOM__'
p669
I01
sS'.__ALL__'
p670
I01
sS'world__ALL__'
p671
I01
sS'garbadg__TOP__'
p672
I01
sS'Tomorrow__BOTTOM__'
p673
I01
sS'Today__ALL__'
p674
I01
sS',__ALL__'
p675
I01
sS'the__TOP__'
p676
I01
sS'garbadg__ALL__'
p677
I01
sS',__BOTTOM__'
p678
I01
sS'Tomorrow__ALL__'
p679
I01
sS'the__ALL__'
p680
I01
sS'the__BOTTOM__'
p681
I01
sS'.__BOTTOM__'
p682
I01
sS'.__TOP__'
p683
I01
sa(dp684
S'nephew__ALL__'
p685
I01
sS'easter__ALL__'
p686
I01
sS'niec__TOP__'
p687
I01
sS'in__ALL__'
p688
I01
sS'the__TOP__'
p689
I01
sS'sure__ALL__'
p690
I01
sS'and__ALL__'
p691
I01
sS'onli__ALL__'
p692
I01
sS'niec__ALL__'
p693
I01
sS'and__TOP__'
p694
I01
sS'into__ALL__'
p695
I01
sS'use__BOTTOM__'
p696
I01
sS'egss__TOP__'
p697
I01
sS'sure__BOTTOM__'
p698
I01
sS'plant__BOTTOM__'
p699
I01
sS'onli__BOTTOM__'
p700
I01
sS'backyard__ALL__'
p701
I01
sS'that__BOTTOM__'
p702
I01
sS'color__ALL__'
p703
I01
sS'made__BOTTOM__'
p704
I01
sS'I__BOTTOM__'
p705
I01
sS'life__ALL__'
p706
I01
sS'that__ALL__'
p707
I01
sS'for__TOP__'
p708
I01
sS'nephew__TOP__'
p709
I01
sS'Hid__TOP__'
p710
I01
sS'made__ALL__'
p711
I01
sS'backyard__TOP__'
p712
I01
sS'for__ALL__'
p713
I01
sS'use__ALL__'
p714
I01
sS'into__BOTTOM__'
p715
I01
sS'in__TOP__'
p716
I01
sS'egss__ALL__'
p717
I01
sS'I__ALL__'
p718
I01
sS'color__BOTTOM__'
p719
I01
sS'plant__ALL__'
p720
I01
sS'blend__ALL__'
p721
I01
sS'the__ALL__'
p722
I01
sS'the__BOTTOM__'
p723
I01
sS'easter__TOP__'
p724
I01
sS'blend__BOTTOM__'
p725
I01
sS'life__BOTTOM__'
p726
I01
sS'Hid__ALL__'
p727
I01
sa(dp728
S'I__TOP__'
p729
I01
sS',__BOTTOM__'
p730
I01
sS'wa__BOTTOM__'
p731
I01
sS'wait__ALL__'
p732
I01
sS'think__BOTTOM__'
p733
I01
sS'say__BOTTOM__'
p734
I01
sS'cheesecak__ALL__'
p735
I01
sS'what__ALL__'
p736
I01
sS'think__ALL__'
p737
I01
sS'say__ALL__'
p738
I01
sS"n't__ALL__"
p739
I01
sS'wait__TOP__'
p740
I01
sS'gon__ALL__'
p741
I01
sS'some__ALL__'
p742
I01
sS"n't__TOP__"
p743
I01
sS'on__ALL__'
p744
I01
sS'gon__BOTTOM__'
p745
I01
sS'on__TOP__'
p746
I01
sS'wa__ALL__'
p747
I01
sS'get__ALL__'
p748
I01
sS'i__ALL__'
p749
I01
sS',__ALL__'
p750
I01
sS'do__ALL__'
p751
I01
sS'cheesecak__BOTTOM__'
p752
I01
sS'do__BOTTOM__'
p753
I01
sS'hand__ALL__'
p754
I01
sS'what__BOTTOM__'
p755
I01
sS'to__ALL__'
p756
I01
sS'my__TOP__'
p757
I01
sS'get__TOP__'
p758
I01
sS'to__TOP__'
p759
I01
sS'i__BOTTOM__'
p760
I01
sS'ca__ALL__'
p761
I01
sS'my__ALL__'
p762
I01
sS'ca__TOP__'
p763
I01
sS'some__TOP__'
p764
I01
sS'hand__TOP__'
p765
I01
sS'na__ALL__'
p766
I01
sS'I__ALL__'
p767
I01
sS'na__BOTTOM__'
p768
I01
sa(dp769
S'kick__BOTTOM__'
p770
I01
sS'kick__ALL__'
p771
I01
sS'we__ALL__'
p772
I01
sS'not__ALL__'
p773
I01
sS'thano__TOP__'
p774
I01
sS'the__TOP__'
p775
I01
sS'out__TOP__'
p776
I01
sS"'re__BOTTOM__"
p777
I01
sS'your__BOTTOM__'
p778
I01
sS'we__TOP__'
p779
I01
sS'out__ALL__'
p780
I01
sS'not__TOP__'
p781
I01
sS'from__ALL__'
p782
I01
sS'from__TOP__'
p783
I01
sS'defend__TOP__'
p784
I01
sS'univers__TOP__'
p785
I01
sS'defend__ALL__'
p786
I01
sS'univers__ALL__'
p787
I01
sS'when__ALL__'
p788
I01
sS'we__BOTTOM__'
p789
I01
sS'when__TOP__'
p790
I01
sS'ass__BOTTOM__'
p791
I01
sS'your__ALL__'
p792
I01
sS"'re__ALL__"
p793
I01
sS'thano__ALL__'
p794
I01
sS'ass__ALL__'
p795
I01
sS"'re__TOP__"
p796
I01
sS'the__ALL__'
p797
I01
sa(dp798
S'transport__TOP__'
p799
I01
sS'public__TOP__'
p800
I01
sS'transport__ALL__'
p801
I01
sS'in__TOP__'
p802
I01
sS'excel__BOTTOM__'
p803
I01
sS'monday__ALL__'
p804
I01
sS'public__ALL__'
p805
I01
sS'morn__TOP__'
p806
I01
sS'in__ALL__'
p807
I01
sS'excel__ALL__'
p808
I01
sS'no__TOP__'
p809
I01
sS'monday__TOP__'
p810
I01
sS'morn__ALL__'
p811
I01
sS'no__ALL__'
p812
I01
sa(dp813
S'got__BOTTOM__'
p814
I01
sS'got__ALL__'
p815
I01
sS'get__BOTTOM__'
p816
I01
sS'like__TOP__'
p817
I01
sS'ta__ALL__'
p818
I01
sS'rid__BOTTOM__'
p819
I01
sS'like__ALL__'
p820
I01
sS'of__ALL__'
p821
I01
sS'nigga__BOTTOM__'
p822
I01
sS'of__BOTTOM__'
p823
I01
sS'nigga__ALL__'
p824
I01
sS'get__ALL__'
p825
I01
sS'I__BOTTOM__'
p826
I01
sS'be__ALL__'
p827
I01
sS'that__ALL__'
p828
I01
sS'that__BOTTOM__'
p829
I01
sS'rid__ALL__'
p830
I01
sS'other__ALL__'
p831
I01
sS'ta__BOTTOM__'
p832
I01
sS'be__TOP__'
p833
I01
sS'nigga__TOP__'
p834
I01
sS'I__ALL__'
p835
I01
sS'other__BOTTOM__'
p836
I01
sa(dp837
S'all__ALL__'
p838
I01
sS'all__BOTTOM__'
p839
I01
sS'want__TOP__'
p840
I01
sS'comdom__ALL__'
p841
I01
sS'in__ALL__'
p842
I01
sS'hole__ALL__'
p843
I01
sS'want__ALL__'
p844
I01
sS'befor__TOP__'
p845
I01
sS'comdom__BOTTOM__'
p846
I01
sS'befor__ALL__'
p847
I01
sS'Wife__TOP__'
p848
I01
sS'travel__TOP__'
p849
I01
sS'travel__ALL__'
p850
I01
sS'kid__TOP__'
p851
I01
sS'in__BOTTOM__'
p852
I01
sS'kid__ALL__'
p853
I01
sS'to__ALL__'
p854
I01
sS'Chew__BOTTOM__'
p855
I01
sS'to__TOP__'
p856
I01
sS'Wife__ALL__'
p857
I01
sS'hole__BOTTOM__'
p858
I01
sS'the__ALL__'
p859
I01
sS'the__BOTTOM__'
p860
I01
sS'Chew__ALL__'
p861
I01
sa(dp862
S'.__BOTTOM__'
p863
I01
sS'.__ALL__'
p864
I01
sS'not__ALL__'
p865
I01
sS'tear__ALL__'
p866
I01
sS'stuff__ALL__'
p867
I01
sS'are__TOP__'
p868
I01
sS'up__BOTTOM__'
p869
I01
sS'tear__BOTTOM__'
p870
I01
sS'or__BOTTOM__'
p871
I01
sS'shit__ALL__'
p872
I01
sS'or__ALL__'
p873
I01
sS'stuff__BOTTOM__'
p874
I01
sS"'re__BOTTOM__"
p875
I01
sS'raccoon__TOP__'
p876
I01
sS'raccoon__ALL__'
p877
I01
sS',__ALL__'
p878
I01
sS'Men__ALL__'
p879
I01
sS',__BOTTOM__'
p880
I01
sS'Men__TOP__'
p881
I01
sS"'re__ALL__"
p882
I01
sS'they__ALL__'
p883
I01
sS'When__BOTTOM__'
p884
I01
sS'shit__BOTTOM__'
p885
I01
sS'eat__ALL__'
p886
I01
sS'are__ALL__'
p887
I01
sS'not__BOTTOM__'
p888
I01
sS'When__ALL__'
p889
I01
sS'up__ALL__'
p890
I01
sS'eat__BOTTOM__'
p891
I01
sS'they__BOTTOM__'
p892
I01
sS'.__TOP__'
p893
I01
sa(dp894
S'friend__TOP__'
p895
I01
sS'onli__TOP__'
p896
I01
sS'humor__BOTTOM__'
p897
I01
sS'friend__ALL__'
p898
I01
sS'Reddit__ALL__'
p899
I01
sS'humor__ALL__'
p900
I01
sS'invit__ALL__'
p901
I01
sS'Reddit__TOP__'
p902
I01
sS'is__ALL__'
p903
I01
sS'Tell__TOP__'
p904
I01
sS'invit__TOP__'
p905
I01
sS'is__TOP__'
p906
I01
sS'edg__ALL__'
p907
I01
sS'onli__ALL__'
p908
I01
sS'Tell__ALL__'
p909
I01
sS'Keep__ALL__'
p910
I01
sS'Keep__BOTTOM__'
p911
I01
sS'edg__BOTTOM__'
p912
I01
sa(dp913
S'se__BOTTOM__'
p914
I01
sS'!__ALL__'
p915
I01
sS'pass__ALL__'
p916
I01
sS'pass__BOTTOM__'
p917
I01
sS'EXCEL__TOP__'
p918
I01
sS'Tout__BOTTOM__'
p919
I01
sS'!__TOP__'
p920
I01
sS'comm__BOTTOM__'
p921
I01
sS'EXCEL__ALL__'
p922
I01
sS'prvu..__BOTTOM__'
p923
I01
sS'prvu..__ALL__'
p924
I01
sS'Tout__ALL__'
p925
I01
sS'exact__BOTTOM__'
p926
I01
sS'se__ALL__'
p927
I01
sS'comm__ALL__'
p928
I01
sS'exact__ALL__'
p929
I01
sa(dp930
S'studi__ALL__'
p931
I01
sS'get__ALL__'
p932
I01
sS'get__BOTTOM__'
p933
I01
sS'famou__ALL__'
p934
I01
sS'sociolog__TOP__'
p935
I01
sS'do__ALL__'
p936
I01
sS'famou__BOTTOM__'
p937
I01
sS'studi__TOP__'
p938
I01
sS'sociolog__ALL__'
p939
I01
sS'do__TOP__'
p940
I01
sa(dp941
S'there__ALL__'
p942
I01
sS'will__ALL__'
p943
I01
sS'have__ALL__'
p944
I01
sS'You__TOP__'
p945
I01
sS'a__ALL__'
p946
I01
sS'never__BOTTOM__'
p947
I01
sS'!__BOTTOM__'
p948
I01
sS'you__ALL__'
p949
I01
sS'have__BOTTOM__'
p950
I01
sS'will__BOTTOM__'
p951
I01
sS'soul__ALL__'
p952
I01
sS'you__BOTTOM__'
p953
I01
sS'You__ALL__'
p954
I01
sS'again__ALL__'
p955
I01
sS'!__ALL__'
p956
I01
sS'a__BOTTOM__'
p957
I01
sS'soul__BOTTOM__'
p958
I01
sS'never__ALL__'
p959
I01
sS'ginger__TOP__'
p960
I01
sS'ginger__ALL__'
p961
I01
sS'again__BOTTOM__'
p962
I01
sS'there__TOP__'
p963
I01
sa(dp964
S'els__BOTTOM__'
p965
I01
sS'els__ALL__'
p966
I01
sS'me__ALL__'
p967
I01
sS'You__BOTTOM__'
p968
I01
sS'have__ALL__'
p969
I01
sS'or__BOTTOM__'
p970
I01
sS'cake__BOTTOM__'
p971
I01
sS'for__BOTTOM__'
p972
I01
sS'!__BOTTOM__'
p973
I01
sS'...__BOTTOM__'
p974
I01
sS'Happi__TOP__'
p975
I01
sS'...__ALL__'
p976
I01
sS'Birthday__ALL__'
p977
I01
sS"'d__ALL__"
p978
I01
sS'have__BOTTOM__'
p979
I01
sS'for__ALL__'
p980
I01
sS'cake__ALL__'
p981
I01
sS'Birthday__TOP__'
p982
I01
sS'!__TOP__'
p983
I01
sS'me__BOTTOM__'
p984
I01
sS'better__ALL__'
p985
I01
sS"'d__BOTTOM__"
p986
I01
sS'Happi__ALL__'
p987
I01
sS'You__ALL__'
p988
I01
sS'or__ALL__'
p989
I01
sS'!__ALL__'
p990
I01
sS'better__BOTTOM__'
p991
I01
sa(dp992
S'make__ALL__'
p993
I01
sS'make__BOTTOM__'
p994
I01
sS'post__TOP__'
p995
I01
sS'like__TOP__'
p996
I01
sS'me__ALL__'
p997
I01
sS'post__ALL__'
p998
I01
sS'untouch__ALL__'
p999
I01
sS'will__ALL__'
p1000
I01
sS'like__ALL__'
p1001
I01
sS'it__BOTTOM__'
p1002
I01
sS'keep__ALL__'
p1003
I01
sS'me__BOTTOM__'
p1004
I01
sS'mwahaha__ALL__'
p1005
I01
sS'it__ALL__'
p1006
I01
sS'keep__TOP__'
p1007
I01
sS'ye__TOP__'
p1008
I01
sS'ye__ALL__'
p1009
I01
sS'will__BOTTOM__'
p1010
I01
sS'my__TOP__'
p1011
I01
sS'my__ALL__'
p1012
I01
sS'mwahaha__BOTTOM__'
p1013
I01
sS'untouch__BOTTOM__'
p1014
I01
sa(dp1015
S'all__ALL__'
p1016
I01
sS'all__BOTTOM__'
p1017
I01
sS'I__TOP__'
p1018
I01
sS'time__ALL__'
p1019
I01
sS'time__BOTTOM__'
p1020
I01
sS'pretend__TOP__'
p1021
I01
sS'the__ALL__'
p1022
I01
sS'I__ALL__'
p1023
I01
sS'pretend__ALL__'
p1024
I01
sS"n't__ALL__"
p1025
I01
sS"n't__TOP__"
p1026
I01
sS'So__BOTTOM__'
p1027
I01
sS'ca__ALL__'
p1028
I01
sS'drive__TOP__'
p1029
I01
sS'ca__TOP__'
p1030
I01
sS'drive__ALL__'
p1031
I01
sS'the__BOTTOM__'
p1032
I01
sS'you__ALL__'
p1033
I01
sS'you__BOTTOM__'
p1034
I01
sS'So__ALL__'
p1035
I01
sS'drive__BOTTOM__'
p1036
I01
sa(dp1037
S'all__ALL__'
p1038
I01
sS'OBEY__ALL__'
p1039
I01
sS'OBEY__BOTTOM__'
p1040
I01
sS'will__ALL__'
p1041
I01
sS'ME__ALL__'
p1042
I01
sS'the__TOP__'
p1043
I01
sS'steel__TOP__'
p1044
I01
sS'WILL__ALL__'
p1045
I01
sS'!__BOTTOM__'
p1046
I01
sS'WILL__BOTTOM__'
p1047
I01
sS'SQUIRREL__ALL__'
p1048
I01
sS'acorn__ALL__'
p1049
I01
sS'acorn__TOP__'
p1050
I01
sS'i__ALL__'
p1051
I01
sS'ME__BOTTOM__'
p1052
I01
sS'!__ALL__'
p1053
I01
sS'steel__ALL__'
p1054
I01
sS'i__TOP__'
p1055
I01
sS'all__TOP__'
p1056
I01
sS'SQUIRREL__BOTTOM__'
p1057
I01
sS'the__ALL__'
p1058
I01
sS'will__TOP__'
p1059
I01
sa(dp1060
S'All__ALL__'
p1061
I01
sS'All__BOTTOM__'
p1062
I01
sS'to__BOTTOM__'
p1063
I01
sS'to__ALL__'
p1064
I01
sS'...__BOTTOM__'
p1065
I01
sS'Good__TOP__'
p1066
I01
sS'...__ALL__'
p1067
I01
sS'Good__ALL__'
p1068
I01
sS'plan__ALL__'
p1069
I01
sS'plan__BOTTOM__'
p1070
I01
sS'...__TOP__'
p1071
I01
sS'accord__ALL__'
p1072
I01
sS'accord__BOTTOM__'
p1073
I01
sa(dp1074
S'Patricio__BOTTOM__'
p1075
I01
sS'cambiamo__TOP__'
p1076
I01
sS'Plaza__BOTTOM__'
p1077
I01
sS'Plaza__ALL__'
p1078
I01
sS'6pm__ALL__'
p1079
I01
sS'reunion__TOP__'
p1080
I01
sS'para__ALL__'
p1081
I01
sS',__ALL__'
p1082
I01
sS'6pm__BOTTOM__'
p1083
I01
sS'Patricio__ALL__'
p1084
I01
sS'para__TOP__'
p1085
I01
sS',__BOTTOM__'
p1086
I01
sS'la__TOP__'
p1087
I01
sS'San__ALL__'
p1088
I01
sS'cambiamo__ALL__'
p1089
I01
sS'reunion__ALL__'
p1090
I01
sS'San__BOTTOM__'
p1091
I01
sS'la__ALL__'
p1092
I01
sa(dp1093
S'is__ALL__'
p1094
I01
sS'as__BOTTOM__'
p1095
I01
sS'go__ALL__'
p1096
I01
sS'plan__ALL__'
p1097
I01
sS'Everyth__ALL__'
p1098
I01
sS'as__ALL__'
p1099
I01
sS'plan__BOTTOM__'
p1100
I01
sS'is__TOP__'
p1101
I01
sS'Everyth__TOP__'
p1102
I01
sS'Exactli__ALL__'
p1103
I01
sS'Exactli__BOTTOM__'
p1104
I01
sS'go__TOP__'
p1105
I01
sa(dp1106
S'make__ALL__'
p1107
I01
sS'american__ALL__'
p1108
I01
sS'I__TOP__'
p1109
I01
sS'fake__ALL__'
p1110
I01
sS'about__ALL__'
p1111
I01
sS'NSA__TOP__'
p1112
I01
sS'public__ALL__'
p1113
I01
sS'the__TOP__'
p1114
I01
sS'potenti__ALL__'
p1115
I01
sS'will__ALL__'
p1116
I01
sS'bomb__BOTTOM__'
p1117
I01
sS'what__ALL__'
p1118
I01
sS'warn__BOTTOM__'
p1119
I01
sS'data__ALL__'
p1120
I01
sS'data__TOP__'
p1121
I01
sS'about__TOP__'
p1122
I01
sS'consul__BOTTOM__'
p1123
I01
sS'know__ALL__'
p1124
I01
sS'collect__TOP__'
p1125
I01
sS'warn__ALL__'
p1126
I01
sS'american__TOP__'
p1127
I01
sS'of__ALL__'
p1128
I01
sS'American__BOTTOM__'
p1129
I01
sS'of__BOTTOM__'
p1130
I01
sS'what__TOP__'
p1131
I01
sS'public__TOP__'
p1132
I01
sS'A__ALL__'
p1133
I01
sS'A__BOTTOM__'
p1134
I01
sS'bomb__ALL__'
p1135
I01
sS'collect__ALL__'
p1136
I01
sS'the__ALL__'
p1137
I01
sS'NSA__ALL__'
p1138
I01
sS'know__TOP__'
p1139
I01
sS'down__TOP__'
p1140
I01
sS'American__ALL__'
p1141
I01
sS'fake__BOTTOM__'
p1142
I01
sS'calm__ALL__'
p1143
I01
sS'consul__ALL__'
p1144
I01
sS'I__ALL__'
p1145
I01
sS'potenti__BOTTOM__'
p1146
I01
sS'down__ALL__'
p1147
I01
sS'make__TOP__'
p1148
I01
sS'calm__TOP__'
p1149
I01
sS'will__TOP__'
p1150
I01
sa(dp1151
S'US__TOP__'
p1152
I01
sS'scare__TOP__'
p1153
I01
sS'fake__ALL__'
p1154
I01
sS'scare__ALL__'
p1155
I01
sS'US__ALL__'
p1156
I01
sS'fake__TOP__'
p1157
I01
sS'the__TOP__'
p1158
I01
sS'us__BOTTOM__'
p1159
I01
sS'up__BOTTOM__'
p1160
I01
sS'.__ALL__'
p1161
I01
sS'own__BOTTOM__'
p1162
I01
sS'will__ALL__'
p1163
I01
sS'The__ALL__'
p1164
I01
sS'Let__BOTTOM__'
p1165
I01
sS'then__ALL__'
p1166
I01
sS'believ__ALL__'
p1167
I01
sS"n't__ALL__"
p1168
I01
sS'our__ALL__'
p1169
I01
sS'consul__BOTTOM__'
p1170
I01
sS"n't__TOP__"
p1171
I01
sS'The__TOP__'
p1172
I01
sS'believ__BOTTOM__'
p1173
I01
sS'will__BOTTOM__'
p1174
I01
sS'attack__TOP__'
p1175
I01
sS'populac__TOP__'
p1176
I01
sS'attack__ALL__'
p1177
I01
sS'populac__ALL__'
p1178
I01
sS'then__BOTTOM__'
p1179
I01
sS'seem__TOP__'
p1180
I01
sS'believ__TOP__'
p1181
I01
sS'own__ALL__'
p1182
I01
sS',__ALL__'
p1183
I01
sS'us__ALL__'
p1184
I01
sS'seem__ALL__'
p1185
I01
sS'do__ALL__'
p1186
I01
sS',__BOTTOM__'
p1187
I01
sS'.__BOTTOM__'
p1188
I01
sS'they__ALL__'
p1189
I01
sS'do__TOP__'
p1190
I01
sS'to__ALL__'
p1191
I01
sS'our__BOTTOM__'
p1192
I01
sS'consul__TOP__'
p1193
I01
sS'blow__ALL__'
p1194
I01
sS'consul__ALL__'
p1195
I01
sS'blow__BOTTOM__'
p1196
I01
sS'to__TOP__'
p1197
I01
sS'up__ALL__'
p1198
I01
sS'the__ALL__'
p1199
I01
sS'they__BOTTOM__'
p1200
I01
sS"'s__ALL__"
p1201
I01
sS'Let__ALL__'
p1202
I01
sS"'s__BOTTOM__"
p1203
I01
sa(dp1204
S'be__BOTTOM__'
p1205
I01
sS'a__TOP__'
p1206
I01
sS'gloriou__ALL__'
p1207
I01
sS'play__TOP__'
p1208
I01
sS"'s__TOP__"
p1209
I01
sS'shall__BOTTOM__'
p1210
I01
sS'shall__ALL__'
p1211
I01
sS'it__BOTTOM__'
p1212
I01
sS'let__TOP__'
p1213
I01
sS',__ALL__'
p1214
I01
sS'game__TOP__'
p1215
I01
sS'be__ALL__'
p1216
I01
sS'it__ALL__'
p1217
I01
sS',__BOTTOM__'
p1218
I01
sS'let__ALL__'
p1219
I01
sS'yesssh__BOTTOM__'
p1220
I01
sS'gloriou__BOTTOM__'
p1221
I01
sS'game__ALL__'
p1222
I01
sS'a__ALL__'
p1223
I01
sS'play__ALL__'
p1224
I01
sS"'s__ALL__"
p1225
I01
sS'yesssh__ALL__'
p1226
I01
sa(dp1227
S'world__BOTTOM__'
p1228
I01
sS'!__BOTTOM__'
p1229
I01
sS'mine__ALL__'
p1230
I01
sS'!__TOP__'
p1231
I01
sS'Hurhhahahaa__ALL__'
p1232
I01
sS'Hurhhahahaa__TOP__'
p1233
I01
sS'is__BOTTOM__'
p1234
I01
sS'is__ALL__'
p1235
I01
sS'!__ALL__'
p1236
I01
sS'world__ALL__'
p1237
I01
sS'The__ALL__'
p1238
I01
sS'The__BOTTOM__'
p1239
I01
sS'mine__BOTTOM__'
p1240
I01
sa(dp1241
S'keep__ALL__'
p1242
I01
sS'G__TOP__'
p1243
I01
sS'G__ALL__'
p1244
I01
sS'Code__ALL__'
p1245
I01
sS'Code__BOTTOM__'
p1246
I01
sS'will__ALL__'
p1247
I01
sS'them__ALL__'
p1248
I01
sS'will__BOTTOM__'
p1249
I01
sS'keep__BOTTOM__'
p1250
I01
sS'them__BOTTOM__'
p1251
I01
sa(dp1252
S'to__ALL__'
p1253
I01
sS'a__ALL__'
p1254
I01
sS'racoon__BOTTOM__'
p1255
I01
sS'hee__TOP__'
p1256
I01
sS'to__BOTTOM__'
p1257
I01
sS'a__BOTTOM__'
p1258
I01
sS'femal__ALL__'
p1259
I01
sS'femal__BOTTOM__'
p1260
I01
sS'tri__ALL__'
p1261
I01
sS'racoon__ALL__'
p1262
I01
sS'tri__BOTTOM__'
p1263
I01
sS'steal__BOTTOM__'
p1264
I01
sS'hee__ALL__'
p1265
I01
sS'steal__ALL__'
p1266
I01
sa(dp1267
S'a__ALL__'
p1268
I01
sS'Pick__ALL__'
p1269
I01
sS'goon__ALL__'
p1270
I01
sS'Master__BOTTOM__'
p1271
I01
sS'a__TOP__'
p1272
I01
sS'goon__TOP__'
p1273
I01
sS'pocket__ALL__'
p1274
I01
sS'Pick__TOP__'
p1275
I01
sS'Thief__ALL__'
p1276
I01
sS'pocket__TOP__'
p1277
I01
sS'Master__ALL__'
p1278
I01
sS'Thief__BOTTOM__'
p1279
I01
sa(dp1280
S'I__TOP__'
p1281
I01
sS'to__BOTTOM__'
p1282
I01
sS'``__ALL__'
p1283
I01
sS'act__ALL__'
p1284
I01
sS'the__TOP__'
p1285
I01
sS'win__BOTTOM__'
p1286
I01
sS'Friendliest__TOP__'
p1287
I01
sS'and__BOTTOM__'
p1288
I01
sS'Friendliest__ALL__'
p1289
I01
sS'``__TOP__'
p1290
I01
sS'becaus__ALL__'
p1291
I01
sS"''__ALL__"
p1292
I01
sS'like__ALL__'
p1293
I01
sS'a__ALL__'
p1294
I01
sS"''__TOP__"
p1295
I01
sS'and__ALL__'
p1296
I01
sS'win__TOP__'
p1297
I01
sS'tri__ALL__'
p1298
I01
sS'dick__ALL__'
p1299
I01
sS'act__BOTTOM__'
p1300
I01
sS'of__ALL__'
p1301
I01
sS'if__BOTTOM__'
p1302
I01
sS'of__BOTTOM__'
p1303
I01
sS'win__ALL__'
p1304
I01
sS'everyon__ALL__'
p1305
I01
sS'becaus__BOTTOM__'
p1306
I01
sS'to__ALL__'
p1307
I01
sS'if__ALL__'
p1308
I01
sS"'ll__ALL__"
p1309
I01
sS'I__BOTTOM__'
p1310
I01
sS'dick__BOTTOM__'
p1311
I01
sS'award__ALL__'
p1312
I01
sS'everyon__BOTTOM__'
p1313
I01
sS'ironi__ALL__'
p1314
I01
sS'ironi__BOTTOM__'
p1315
I01
sS'like__BOTTOM__'
p1316
I01
sS'a__BOTTOM__'
p1317
I01
sS"'ll__TOP__"
p1318
I01
sS'to__TOP__'
p1319
I01
sS'award__TOP__'
p1320
I01
sS'tri__TOP__'
p1321
I01
sS'the__ALL__'
p1322
I01
sS'I__ALL__'
p1323
I01
sa(dp1324
S'asshol__BOTTOM__'
p1325
I01
sS'nick__TOP__'
p1326
I01
sS'an__ALL__'
p1327
I01
sS'an__BOTTOM__'
p1328
I01
sS'nick__ALL__'
p1329
I01
sS'is__ALL__'
p1330
I01
sS'asshol__ALL__'
p1331
I01
sS'is__BOTTOM__'
p1332
I01
sa(dp1333
S'i__TOP__'
p1334
I01
sS'masturb__ALL__'
p1335
I01
sS'an__ALL__'
p1336
I01
sS'i__ALL__'
p1337
I01
sS'am__ALL__'
p1338
I01
sS'an__TOP__'
p1339
I01
sS'masturb__BOTTOM__'
p1340
I01
sS'obsess__TOP__'
p1341
I01
sS'am__TOP__'
p1342
I01
sS'obsess__ALL__'
p1343
I01
sa(dp1344
S'i__TOP__'
p1345
I01
sS'have__TOP__'
p1346
I01
sS'i__ALL__'
p1347
I01
sS'her__ALL__'
p1348
I01
sS'my__TOP__'
p1349
I01
sS'as__TOP__'
p1350
I01
sS'my__ALL__'
p1351
I01
sS'her__TOP__'
p1352
I01
sS'idea__ALL__'
p1353
I01
sS'as__ALL__'
p1354
I01
sS'have__ALL__'
p1355
I01
sS'idea__BOTTOM__'
p1356
I01
sa(dp1357
S'i__TOP__'
p1358
I01
sS'have__TOP__'
p1359
I01
sS'with__TOP__'
p1360
I01
sS'her__ALL__'
p1361
I01
sS'i__ALL__'
p1362
I01
sS"'idea__ALL__"
p1363
I01
sS'with__ALL__'
p1364
I01
sS'my__ALL__'
p1365
I01
sS"'idea__BOTTOM__"
p1366
I01
sS'my__BOTTOM__'
p1367
I01
sS'her__TOP__'
p1368
I01
sS'have__ALL__'
p1369
I01
sa(dp1370
S'i__TOP__'
p1371
I01
sS'have__TOP__'
p1372
I01
sS"'idea__ALL__"
p1373
I01
sS'with__TOP__'
p1374
I01
sS'her__ALL__'
p1375
I01
sS'i__ALL__'
p1376
I01
sS'with__ALL__'
p1377
I01
sS"'__ALL__"
p1378
I01
sS"'__BOTTOM__"
p1379
I01
sS'so__BOTTOM__'
p1380
I01
sS'my__ALL__'
p1381
I01
sS'her__TOP__'
p1382
I01
sS'my__BOTTOM__'
p1383
I01
sS"'idea__BOTTOM__"
p1384
I01
sS'have__ALL__'
p1385
I01
sS'so__ALL__'
p1386
I01
sa(dp1387
S'beer__TOP__'
p1388
I01
sS'Artuur__ALL__'
p1389
I01
sS'?__ALL__'
p1390
I01
sS'to__ALL__'
p1391
I01
sS'beer__ALL__'
p1392
I01
sS'BOY__BOTTOM__'
p1393
I01
sS'drink__ALL__'
p1394
I01
sS'to__TOP__'
p1395
I01
sS'BOY__ALL__'
p1396
I01
sS'You__TOP__'
p1397
I01
sS'Sneak__TOP__'
p1398
I01
sS'BIG__BOTTOM__'
p1399
I01
sS'?__TOP__'
p1400
I01
sS'Artuur__BOTTOM__'
p1401
I01
sS'Sneak__ALL__'
p1402
I01
sS'tri__ALL__'
p1403
I01
sS'You__ALL__'
p1404
I01
sS'BIG__ALL__'
p1405
I01
sS'tri__TOP__'
p1406
I01
sS'drink__TOP__'
p1407
I01
sa(dp1408
S'.__BOTTOM__'
p1409
I01
sS'.__ALL__'
p1410
I01
sS'agre__ALL__'
p1411
I01
sS'about__ALL__'
p1412
I01
sS'a__TOP__'
p1413
I01
sS'me__ALL__'
p1414
I01
sS'up__BOTTOM__'
p1415
I01
sS'give__ALL__'
p1416
I01
sS'give__BOTTOM__'
p1417
I01
sS'will__ALL__'
p1418
I01
sS'say__TOP__'
p1419
I01
sS'vote__ALL__'
p1420
I01
sS'give__TOP__'
p1421
I01
sS"n't__ALL__"
p1422
I01
sS'fuck__ALL__'
p1423
I01
sS'about__TOP__'
p1424
I01
sS"n't__TOP__"
p1425
I01
sS'cakeday__ALL__'
p1426
I01
sS'will__BOTTOM__'
p1427
I01
sS'agre__BOTTOM__'
p1428
I01
sS'fuck__TOP__'
p1429
I01
sS'vote__BOTTOM__'
p1430
I01
sS'they__TOP__'
p1431
I01
sS'i__ALL__'
p1432
I01
sS'me__BOTTOM__'
p1433
I01
sS'a__ALL__'
p1434
I01
sS'do__ALL__'
p1435
I01
sS'when__ALL__'
p1436
I01
sS'they__ALL__'
p1437
I01
sS'do__TOP__'
p1438
I01
sS'i__TOP__'
p1439
I01
sS'cakeday__TOP__'
p1440
I01
sS'my__TOP__'
p1441
I01
sS'with__ALL__'
p1442
I01
sS'with__BOTTOM__'
p1443
I01
sS'say__ALL__'
p1444
I01
sS'my__ALL__'
p1445
I01
sS'up__ALL__'
p1446
I01
sS'they__BOTTOM__'
p1447
I01
sS'will__TOP__'
p1448
I01
sS'when__BOTTOM__'
p1449
I01
sa(dp1450
S'BUT__ALL__'
p1451
I01
sS'BUT__BOTTOM__'
p1452
I01
sS'the__TOP__'
p1453
I01
sS'your__ALL__'
p1454
I01
sS'THE__ALL__'
p1455
I01
sS'your__BOTTOM__'
p1456
I01
sS'demis__ALL__'
p1457
I01
sS'bah__BOTTOM__'
p1458
I01
sS"'m__ALL__"
p1459
I01
sS'plot__ALL__'
p1460
I01
sS'ha__ALL__'
p1461
I01
sS"'m__TOP__"
p1462
I01
sS'secretli__BOTTOM__'
p1463
I01
sS'!__BOTTOM__'
p1464
I01
sS'...__ALL__'
p1465
I01
sS'on__ALL__'
p1466
I01
sS'haa__BOTTOM__'
p1467
I01
sS'INSID__BOTTOM__'
p1468
I01
sS'demis__BOTTOM__'
p1469
I01
sS'on__TOP__'
p1470
I01
sS'secretli__ALL__'
p1471
I01
sS'ON__ALL__'
p1472
I01
sS'i__ALL__'
p1473
I01
sS'!__ALL__'
p1474
I01
sS'bah__ALL__'
p1475
I01
sS'...__TOP__'
p1476
I01
sS'ha__BOTTOM__'
p1477
I01
sS'THE__BOTTOM__'
p1478
I01
sS'outsid__ALL__'
p1479
I01
sS'i__TOP__'
p1480
I01
sS'plot__BOTTOM__'
p1481
I01
sS'outsid__TOP__'
p1482
I01
sS"'m__BOTTOM__"
p1483
I01
sS'i__BOTTOM__'
p1484
I01
sS'INSID__ALL__'
p1485
I01
sS'smile__TOP__'
p1486
I01
sS'ON__BOTTOM__'
p1487
I01
sS'the__ALL__'
p1488
I01
sS'smile__ALL__'
p1489
I01
sS'haa__ALL__'
p1490
I01
sa(dp1491
S'Brewer__TOP__'
p1492
I01
sS'and__ALL__'
p1493
I01
sS't__ALL__'
p1494
I01
sS'and__BOTTOM__'
p1495
I01
sS'!__BOTTOM__'
p1496
I01
sS'We__ALL__'
p1497
I01
sS'shall__ALL__'
p1498
I01
sS'march__TOP__'
p1499
I01
sS'#__BOTTOM__'
p1500
I01
sS'Sh__ALL__'
p1501
I01
sS'on__ALL__'
p1502
I01
sS'We__TOP__'
p1503
I01
sS'on__TOP__'
p1504
I01
sS't__BOTTOM__'
p1505
I01
sS'march__ALL__'
p1506
I01
sS'Sh__BOTTOM__'
p1507
I01
sS'shall__TOP__'
p1508
I01
sS'stadium__ALL__'
p1509
I01
sS'Brewer__ALL__'
p1510
I01
sS'!__ALL__'
p1511
I01
sS'ck__BOTTOM__'
p1512
I01
sS'up__BOTTOM__'
p1513
I01
sS'ck__ALL__'
p1514
I01
sS'#__ALL__'
p1515
I01
sS'up__ALL__'
p1516
I01
sS'F__BOTTOM__'
p1517
I01
sS'F__ALL__'
p1518
I01
sS'stadium__TOP__'
p1519
I01
sa(dp1520
S'to__ALL__'
p1521
I01
sS"n't__ALL__"
p1522
I01
sS'want__TOP__'
p1523
I01
sS'ski__ALL__'
p1524
I01
sS'...__BOTTOM__'
p1525
I01
sS'to__TOP__'
p1526
I01
sS"n't__TOP__"
p1527
I01
sS'...__ALL__'
p1528
I01
sS'you__TOP__'
p1529
I01
sS'do__ALL__'
p1530
I01
sS'ski__TOP__'
p1531
I01
sS'If__ALL__'
p1532
I01
sS'you__ALL__'
p1533
I01
sS'want__ALL__'
p1534
I01
sS'do__TOP__'
p1535
I01
sS'If__TOP__'
p1536
I01
sa(dp1537
S'to__ALL__'
p1538
I01
sS'i__TOP__'
p1539
I01
sS'bank__ALL__'
p1540
I01
sS'go__ALL__'
p1541
I01
sS'grab__TOP__'
p1542
I01
sS'i__ALL__'
p1543
I01
sS'to__TOP__'
p1544
I01
sS'the__TOP__'
p1545
I01
sS'the__ALL__'
p1546
I01
sS'am__TOP__'
p1547
I01
sS'am__ALL__'
p1548
I01
sS'bank__TOP__'
p1549
I01
sS'grab__ALL__'
p1550
I01
sS'go__TOP__'
p1551
I01
sa(dp1552
S'follow__ALL__'
p1553
I01
sS'els__BOTTOM__'
p1554
I01
sS'els__ALL__'
p1555
I01
sS')__ALL__'
p1556
I01
sS'the__TOP__'
p1557
I01
sS'rule__ALL__'
p1558
I01
sS';__ALL__'
p1559
I01
sS'...__BOTTOM__'
p1560
I01
sS'...__ALL__'
p1561
I01
sS')__BOTTOM__'
p1562
I01
sS'.or__ALL__'
p1563
I01
sS'you__ALL__'
p1564
I01
sS'.or__BOTTOM__'
p1565
I01
sS';__BOTTOM__'
p1566
I01
sS'rule__TOP__'
p1567
I01
sS'better__ALL__'
p1568
I01
sS'you__TOP__'
p1569
I01
sS'follow__TOP__'
p1570
I01
sS'ict__TOP__'
p1571
I01
sS'better__TOP__'
p1572
I01
sS'the__ALL__'
p1573
I01
sS'ict__ALL__'
p1574
I01
sa(dp1575
S'make__ALL__'
p1576
I01
sS'enter__BOTTOM__'
p1577
I01
sS'room__ALL__'
p1578
I01
sS'a__ALL__'
p1579
I01
sS'full__BOTTOM__'
p1580
I01
sS'full__ALL__'
p1581
I01
sS'you__ALL__'
p1582
I01
sS'you__BOTTOM__'
p1583
I01
sS'enter__ALL__'
p1584
I01
sS'bitch__ALL__'
p1585
I01
sS'of__BOTTOM__'
p1586
I01
sS'you__TOP__'
p1587
I01
sS'of__ALL__'
p1588
I01
sS'Face__ALL__'
p1589
I01
sS'When__BOTTOM__'
p1590
I01
sS'room__BOTTOM__'
p1591
I01
sS'bitch__BOTTOM__'
p1592
I01
sS'a__BOTTOM__'
p1593
I01
sS'drunk__BOTTOM__'
p1594
I01
sS'drunk__ALL__'
p1595
I01
sS'When__ALL__'
p1596
I01
sS'That__ALL__'
p1597
I01
sS'Face__TOP__'
p1598
I01
sS'make__TOP__'
p1599
I01
sS'That__TOP__'
p1600
I01
sa(dp1601
S'to__ALL__'
p1602
I01
sS'Ye__ALL__'
p1603
I01
sS'to__BOTTOM__'
p1604
I01
sS'Someth__ALL__'
p1605
I01
sS'Someth__BOTTOM__'
p1606
I01
sS'Ye__TOP__'
p1607
I01
sS'steal__BOTTOM__'
p1608
I01
sS'steal__ALL__'
p1609
I01
sa(dp1610
S'help__ALL__'
p1611
I01
sS'help__BOTTOM__'
p1612
I01
sS'get__BOTTOM__'
p1613
I01
sS"'ll__BOTTOM__"
p1614
I01
sS'stiner__ALL__'
p1615
I01
sS'out__ALL__'
p1616
I01
sS'stiner__TOP__'
p1617
I01
sS'good__ALL__'
p1618
I01
sS'we__ALL__'
p1619
I01
sS'you__ALL__'
p1620
I01
sS'of__ALL__'
p1621
I01
sS'of__BOTTOM__'
p1622
I01
sS'out__BOTTOM__'
p1623
I01
sS'get__ALL__'
p1624
I01
sS'good__TOP__'
p1625
I01
sS"'ll__ALL__"
p1626
I01
sS'we__BOTTOM__'
p1627
I01
sS'you__BOTTOM__'
p1628
I01
sS'corp__BOTTOM__'
p1629
I01
sS'the__ALL__'
p1630
I01
sS'the__BOTTOM__'
p1631
I01
sS'corp__ALL__'
p1632
I01
sa(dp1633
S'ict__BOTTOM__'
p1634
I01
sS'follow__ALL__'
p1635
I01
sS'better__ALL__'
p1636
I01
sS'you__TOP__'
p1637
I01
sS'the__ALL__'
p1638
I01
sS'ruil__BOTTOM__'
p1639
I01
sS'follow__TOP__'
p1640
I01
sS'better__TOP__'
p1641
I01
sS'you__ALL__'
p1642
I01
sS'the__BOTTOM__'
p1643
I01
sS'ruil__ALL__'
p1644
I01
sS'ict__ALL__'
p1645
I01
sa(dp1646
S'open__ALL__'
p1647
I01
sS'Erin__ALL__'
p1648
I01
sS'open__TOP__'
p1649
I01
sS'left__TOP__'
p1650
I01
sS'left__ALL__'
p1651
I01
sS'Muah__BOTTOM__'
p1652
I01
sS'her__TOP__'
p1653
I01
sS'facebook__TOP__'
p1654
I01
sS'Erin__TOP__'
p1655
I01
sS'her__ALL__'
p1656
I01
sS'facebook__ALL__'
p1657
I01
sS'Muah__ALL__'
p1658
I01
sa(dp1659
S'at__TOP__'
p1660
I01
sS'to__BOTTOM__'
p1661
I01
sS'him__ALL__'
p1662
I01
sS'im__TOP__'
p1663
I01
sS'movi__ALL__'
p1664
I01
sS'movi__BOTTOM__'
p1665
I01
sS'na__TOP__'
p1666
I01
sS'and__BOTTOM__'
p1667
I01
sS'at__ALL__'
p1668
I01
sS'chill__TOP__'
p1669
I01
sS'without__BOTTOM__'
p1670
I01
sS'go__ALL__'
p1671
I01
sS'gon__ALL__'
p1672
I01
sS'hi__ALL__'
p1673
I01
sS'hous__TOP__'
p1674
I01
sS'hous__ALL__'
p1675
I01
sS'go__BOTTOM__'
p1676
I01
sS'na__ALL__'
p1677
I01
sS'hi__TOP__'
p1678
I01
sS'to__ALL__'
p1679
I01
sS'chill__ALL__'
p1680
I01
sS'im__ALL__'
p1681
I01
sS'and__ALL__'
p1682
I01
sS'without__ALL__'
p1683
I01
sS'him__BOTTOM__'
p1684
I01
sS'the__ALL__'
p1685
I01
sS'the__BOTTOM__'
p1686
I01
sS'gon__TOP__'
p1687
I01
sa(dp1688
S'all__ALL__'
p1689
I01
sS'all__BOTTOM__'
p1690
I01
sS"''__TOP__"
p1691
I01
sS'``__ALL__'
p1692
I01
sS'show__ALL__'
p1693
I01
sS'``__TOP__'
p1694
I01
sS'at__ALL__'
p1695
I01
sS"''__ALL__"
p1696
I01
sS'show__TOP__'
p1697
I01
sS'Forget__ALL__'
p1698
I01
sS'slide__ALL__'
p1699
I01
sS'Forget__TOP__'
p1700
I01
sS'Ha__ALL__'
p1701
I01
sS'Slide__TOP__'
p1702
I01
sS'Now__ALL__'
p1703
I01
sS'Now__BOTTOM__'
p1704
I01
sS'Ha__BOTTOM__'
p1705
I01
sS'at__TOP__'
p1706
I01
sS'Slide__ALL__'
p1707
I01
sS'slide__BOTTOM__'
p1708
I01
sS'the__ALL__'
p1709
I01
sS'the__BOTTOM__'
p1710
I01
sa(dp1711
S'it__TOP__'
p1712
I01
sS'look__BOTTOM__'
p1713
I01
sS"''__TOP__"
p1714
I01
sS'look__ALL__'
p1715
I01
sS'``__ALL__'
p1716
I01
sS'see__ALL__'
p1717
I01
sS'you__TOP__'
p1718
I01
sS'you__ALL__'
p1719
I01
sS'when__ALL__'
p1720
I01
sS'still__BOTTOM__'
p1721
I01
sS'it__ALL__'
p1722
I01
sS'when__TOP__'
p1723
I01
sS'still__ALL__'
p1724
I01
sS'see__TOP__'
p1725
I01
sS'``__TOP__'
p1726
I01
sS"''__ALL__"
p1727
I01
sa(dp1728
S'.__BOTTOM__'
p1729
I01
sS'have__ALL__'
p1730
I01
sS'.__ALL__'
p1731
I01
sS'have__TOP__'
p1732
I01
sS'expect__ALL__'
p1733
I01
sS'bond__BOTTOM__'
p1734
I01
sS'We__ALL__'
p1735
I01
sS'expect__TOP__'
p1736
I01
sS'bond__ALL__'
p1737
I01
sS'been__TOP__'
p1738
I01
sS'mr__ALL__'
p1739
I01
sS'mr__BOTTOM__'
p1740
I01
sS'you__ALL__'
p1741
I01
sS'you__BOTTOM__'
p1742
I01
sS'We__TOP__'
p1743
I01
sS'been__ALL__'
p1744
I01
sa(dp1745
S'I__TOP__'
p1746
I01
sS'.__ALL__'
p1747
I01
sS'have__TOP__'
p1748
I01
sS'a__TOP__'
p1749
I01
sS'me__ALL__'
p1750
I01
sS'temptat__ALL__'
p1751
I01
sS'have__ALL__'
p1752
I01
sS'at__ALL__'
p1753
I01
sS'a__ALL__'
p1754
I01
sS'!__BOTTOM__'
p1755
I01
sS'...__ALL__'
p1756
I01
sS'plan__ALL__'
p1757
I01
sS'me__BOTTOM__'
p1758
I01
sS'...__TOP__'
p1759
I01
sS'plan__TOP__'
p1760
I01
sS'!__ALL__'
p1761
I01
sS'I__ALL__'
p1762
I01
sS'temptat__BOTTOM__'
p1763
I01
sS'Meet__ALL__'
p1764
I01
sS'at__BOTTOM__'
p1765
I01
sS'.__TOP__'
p1766
I01
sS'Meet__BOTTOM__'
p1767
I01
sa(dp1768
S'all__ALL__'
p1769
I01
sS'all__BOTTOM__'
p1770
I01
sS"''__TOP__"
p1771
I01
sS'``__ALL__'
p1772
I01
sS'show__ALL__'
p1773
I01
sS'band__BOTTOM__'
p1774
I01
sS'``__TOP__'
p1775
I01
sS'at__ALL__'
p1776
I01
sS"''__ALL__"
p1777
I01
sS'show__TOP__'
p1778
I01
sS'Forget__ALL__'
p1779
I01
sS'slide__ALL__'
p1780
I01
sS'Forget__TOP__'
p1781
I01
sS'Ha__ALL__'
p1782
I01
sS'Slide__TOP__'
p1783
I01
sS'band__ALL__'
p1784
I01
sS'Ha__BOTTOM__'
p1785
I01
sS'at__TOP__'
p1786
I01
sS'Slide__ALL__'
p1787
I01
sS'slide__BOTTOM__'
p1788
I01
sS'the__ALL__'
p1789
I01
sS'the__BOTTOM__'
p1790
I01
sa(dp1791
S'make__ALL__'
p1792
I01
sS'imposs__TOP__'
p1793
I01
sS'imposs__ALL__'
p1794
I01
sS'and__ALL__'
p1795
I01
sS'will__ALL__'
p1796
I01
sS'and__BOTTOM__'
p1797
I01
sS'then__ALL__'
p1798
I01
sS'it__TOP__'
p1799
I01
sS"'s__TOP__"
p1800
I01
sS'no__BOTTOM__'
p1801
I01
sS'cancel__BOTTOM__'
p1802
I01
sS'one__BOTTOM__'
p1803
I01
sS'will__BOTTOM__'
p1804
I01
sS'no__ALL__'
p1805
I01
sS'then__BOTTOM__'
p1806
I01
sS'cancel__TOP__'
p1807
I01
sS'it__ALL__'
p1808
I01
sS'cancel__ALL__'
p1809
I01
sS'Let__TOP__'
p1810
I01
sS'to__ALL__'
p1811
I01
sS'to__TOP__'
p1812
I01
sS'one__ALL__'
p1813
I01
sS'make__TOP__'
p1814
I01
sS"'s__ALL__"
p1815
I01
sS'Let__ALL__'
p1816
I01
sa(dp1817
S'one__TOP__'
p1818
I01
sS'...__BOTTOM__'
p1819
I01
sS'todger__TOP__'
p1820
I01
sS'todger__ALL__'
p1821
I01
sS'my__ALL__'
p1822
I01
sS'one__ALL__'
p1823
I01
sS'...__ALL__'
p1824
I01
sS'touch__ALL__'
p1825
I01
sS'preciou__BOTTOM__'
p1826
I01
sS'preciou__ALL__'
p1827
I01
sS'No__TOP__'
p1828
I01
sS'touch__TOP__'
p1829
I01
sS'No__ALL__'
p1830
I01
sS'my__TOP__'
p1831
I01
sS'My__ALL__'
p1832
I01
sS'My__BOTTOM__'
p1833
I01
sa(dp1834
S'all__ALL__'
p1835
I01
sS'fuck__TOP__'
p1836
I01
sS'!__ALL__'
p1837
I01
sS'peopl__TOP__'
p1838
I01
sS'!__BOTTOM__'
p1839
I01
sS'all__TOP__'
p1840
I01
sS'fuck__ALL__'
p1841
I01
sS'server__BOTTOM__'
p1842
I01
sS'in__ALL__'
p1843
I01
sS'the__TOP__'
p1844
I01
sS'in__BOTTOM__'
p1845
I01
sS'will__ALL__'
p1846
I01
sS'peopl__ALL__'
p1847
I01
sS'the__ALL__'
p1848
I01
sS'the__BOTTOM__'
p1849
I01
sS'will__TOP__'
p1850
I01
sS'server__ALL__'
p1851
I01
sa(dp1852
S'name__ALL__'
p1853
I01
sS'behbeh__ALL__'
p1854
I01
sS'name__TOP__'
p1855
I01
sS'my__TOP__'
p1856
I01
sS'is__ALL__'
p1857
I01
sS'evil__BOTTOM__'
p1858
I01
sS'my__ALL__'
p1859
I01
sS'is__TOP__'
p1860
I01
sS'evil__ALL__'
p1861
I01
sS'behbeh__TOP__'
p1862
I01
sS'behbeh__BOTTOM__'
p1863
I01
sa(dp1864
S'rape__BOTTOM__'
p1865
I01
sS'i__TOP__'
p1866
I01
sS'rape__ALL__'
p1867
I01
sS'after__BOTTOM__'
p1868
I01
sS'go__ALL__'
p1869
I01
sS'to__ALL__'
p1870
I01
sS'wa__TOP__'
p1871
I01
sS'thi__ALL__'
p1872
I01
sS'i__ALL__'
p1873
I01
sS'after__ALL__'
p1874
I01
sS'decid__TOP__'
p1875
I01
sS'to__TOP__'
p1876
I01
sS'you__TOP__'
p1877
I01
sS'decid__ALL__'
p1878
I01
sS'spare__TOP__'
p1879
I01
sS'spare__ALL__'
p1880
I01
sS'you__ALL__'
p1881
I01
sS'wa__ALL__'
p1882
I01
sS'go__TOP__'
p1883
I01
sS'thi__BOTTOM__'
p1884
I01
sa(dp1885
S'need__BOTTOM__'
p1886
I01
sS'we__ALL__'
p1887
I01
sS'the__TOP__'
p1888
I01
sS'them__ALL__'
p1889
I01
sS'reciept__ALL__'
p1890
I01
sS'we__BOTTOM__'
p1891
I01
sS'the__ALL__'
p1892
I01
sS'them__BOTTOM__'
p1893
I01
sS'need__ALL__'
p1894
I01
sS'reciept__TOP__'
p1895
I01
sa(dp1896
S'transport__TOP__'
p1897
I01
sS'public__TOP__'
p1898
I01
sS'transport__ALL__'
p1899
I01
sS'good__BOTTOM__'
p1900
I01
sS'monday__ALL__'
p1901
I01
sS'public__ALL__'
p1902
I01
sS'morn__TOP__'
p1903
I01
sS'good__ALL__'
p1904
I01
sS'on__ALL__'
p1905
I01
sS'no__TOP__'
p1906
I01
sS'monday__TOP__'
p1907
I01
sS'morn__ALL__'
p1908
I01
sS'on__TOP__'
p1909
I01
sS'no__ALL__'
p1910
I01
sa(dp1911
S'order__TOP__'
p1912
I01
sS'for__BOTTOM__'
p1913
I01
sS'big__TOP__'
p1914
I01
sS'free__BOTTOM__'
p1915
I01
sS'free__ALL__'
p1916
I01
sS'big__ALL__'
p1917
I01
sS'noth__ALL__'
p1918
I01
sS'noth__BOTTOM__'
p1919
I01
sS'for__ALL__'
p1920
I01
sS'order__ALL__'
p1921
I01
sa(dp1922
S'I__TOP__'
p1923
I01
sS'about__ALL__'
p1924
I01
sS'forget__BOTTOM__'
p1925
I01
sS'in__ALL__'
p1926
I01
sS'and__ALL__'
p1927
I01
sS'forget__ALL__'
p1928
I01
sS'will__ALL__'
p1929
I01
sS'and__TOP__'
p1930
I01
sS'it__TOP__'
p1931
I01
sS'blame__TOP__'
p1932
I01
sS'GTA5__ALL__'
p1933
I01
sS'Then__BOTTOM__'
p1934
I01
sS'chemic__TOP__'
p1935
I01
sS'shed__ALL__'
p1936
I01
sS'will__BOTTOM__'
p1937
I01
sS'for__ALL__'
p1938
I01
sS'put__ALL__'
p1939
I01
sS'everyon__ALL__'
p1940
I01
sS'GTA5__BOTTOM__'
p1941
I01
sS'about__BOTTOM__'
p1942
I01
sS'blame__ALL__'
p1943
I01
sS'for__TOP__'
p1944
I01
sS'Syria__TOP__'
p1945
I01
sS'Syria__ALL__'
p1946
I01
sS'everyon__BOTTOM__'
p1947
I01
sS'chemic__ALL__'
p1948
I01
sS'put__TOP__'
p1949
I01
sS'in__TOP__'
p1950
I01
sS'I__ALL__'
p1951
I01
sS'shed__BOTTOM__'
p1952
I01
sS'the__ALL__'
p1953
I01
sS'the__BOTTOM__'
p1954
I01
sS'will__TOP__'
p1955
I01
sS'in__BOTTOM__'
p1956
I01
sS'Then__ALL__'
p1957
I01
sS'it__ALL__'
p1958
I01
sa(dp1959
S'.__BOTTOM__'
p1960
I01
sS'all__ALL__'
p1961
I01
sS'.__ALL__'
p1962
I01
sS'left__TOP__'
p1963
I01
sS"'ll__BOTTOM__"
p1964
I01
sS'alon__ALL__'
p1965
I01
sS'alon__TOP__'
p1966
I01
sS'chicken__TOP__'
p1967
I01
sS'chicken__ALL__'
p1968
I01
sS'So__ALL__'
p1969
I01
sS'?__TOP__'
p1970
I01
sS'you__ALL__'
p1971
I01
sS'watch__BOTTOM__'
p1972
I01
sS"'ll__ALL__"
p1973
I01
sS'I__BOTTOM__'
p1974
I01
sS'you__TOP__'
p1975
I01
sS'So__TOP__'
p1976
I01
sS'your__ALL__'
p1977
I01
sS'?__ALL__'
p1978
I01
sS'all__TOP__'
p1979
I01
sS'I__ALL__'
p1980
I01
sS'left__ALL__'
p1981
I01
sS'watch__ALL__'
p1982
I01
sS'your__TOP__'
p1983
I01
sS'them__ALL__'
p1984
I01
sS'them__BOTTOM__'
p1985
I01
sa(dp1986
S'claim__ALL__'
p1987
I01
sS'food__TOP__'
p1988
I01
sS'plot__BOTTOM__'
p1989
I01
sS'miss__TOP__'
p1990
I01
sS'claim__TOP__'
p1991
I01
sS'food__ALL__'
p1992
I01
sS'plot__ALL__'
p1993
I01
sS'notic__TOP__'
p1994
I01
sS'war__ALL__'
p1995
I01
sS'miss__ALL__'
p1996
I01
sS'is__TOP__'
p1997
I01
sS'three__ALL__'
p1998
I01
sS'war__BOTTOM__'
p1999
I01
sS'world__BOTTOM__'
p2000
I01
sS'world__ALL__'
p2001
I01
sS'notic__ALL__'
p2002
I01
sS'is__ALL__'
p2003
I01
sS'three__BOTTOM__'
p2004
I01
sa(dp2005
S'happi__BOTTOM__'
p2006
I01
sS'beast__TOP__'
p2007
I01
sS'move__TOP__'
p2008
I01
sS'secretli__BOTTOM__'
p2009
I01
sS'beast__ALL__'
p2010
I01
sS'secretli__ALL__'
p2011
I01
sS'The__TOP__'
p2012
I01
sS'happi__ALL__'
p2013
I01
sS'is__TOP__'
p2014
I01
sS'move__ALL__'
p2015
I01
sS'The__ALL__'
p2016
I01
sS'is__ALL__'
p2017
I01
sa(dp2018
S'player__ALL__'
p2019
I01
sS'with__ALL__'
p2020
I01
sS'player__BOTTOM__'
p2021
I01
sS'with__TOP__'
p2022
I01
sS',__ALL__'
p2023
I01
sS'lawyer__TOP__'
p2024
I01
sS'settl__TOP__'
p2025
I01
sS'i__ALL__'
p2026
I01
sS'mean__ALL__'
p2027
I01
sS'mean__BOTTOM__'
p2028
I01
sS'oop__ALL__'
p2029
I01
sS'oop__BOTTOM__'
p2030
I01
sS'i__BOTTOM__'
p2031
I01
sS'the__TOP__'
p2032
I01
sS'nfl__ALL__'
p2033
I01
sS',__BOTTOM__'
p2034
I01
sS'nfl__TOP__'
p2035
I01
sS'the__ALL__'
p2036
I01
sS'the__BOTTOM__'
p2037
I01
sS'lawyer__ALL__'
p2038
I01
sS'settl__ALL__'
p2039
I01
sa(dp2040
S"'s__TOP__"
p2041
I01
sS'More__ALL__'
p2042
I01
sS'?__ALL__'
p2043
I01
sS'Laci__ALL__'
p2044
I01
sS'More__TOP__'
p2045
I01
sS'Excel__BOTTOM__'
p2046
I01
sS'portal__TOP__'
p2047
I01
sS'Excel__ALL__'
p2048
I01
sS'Laci__TOP__'
p2049
I01
sS'?__TOP__'
p2050
I01
sS'for__TOP__'
p2051
I01
sS'face__TOP__'
p2052
I01
sS'portal__ALL__'
p2053
I01
sS'face__ALL__'
p2054
I01
sS'for__ALL__'
p2055
I01
sS"'s__ALL__"
p2056
I01
sa(dp2057
S'had__TOP__'
p2058
I01
sS'not__ALL__'
p2059
I01
sS'Car__TOP__'
p2060
I01
sS'work__BOTTOM__'
p2061
I01
sS'into__TOP__'
p2062
I01
sS'Have__BOTTOM__'
p2063
I01
sS'home__TOP__'
p2064
I01
sS'into__ALL__'
p2065
I01
sS'from__ALL__'
p2066
I01
sS'Car__ALL__'
p2067
I01
sS'had__ALL__'
p2068
I01
sS'fun__BOTTOM__'
p2069
I01
sS'Have__ALL__'
p2070
I01
sS'broken__TOP__'
p2071
I01
sS'from__TOP__'
p2072
I01
sS'home__ALL__'
p2073
I01
sS',__TOP__'
p2074
I01
sS'work__TOP__'
p2075
I01
sS'work__ALL__'
p2076
I01
sS',__ALL__'
p2077
I01
sS'broken__ALL__'
p2078
I01
sS'stay__ALL__'
p2079
I01
sS'to__ALL__'
p2080
I01
sS'fun__ALL__'
p2081
I01
sS'to__TOP__'
p2082
I01
sS'not__BOTTOM__'
p2083
I01
sS'stay__TOP__'
p2084
I01
sa(dp2085
S'to__ALL__'
p2086
I01
sS'I__TOP__'
p2087
I01
sS'piss__ALL__'
p2088
I01
sS'just__ALL__'
p2089
I01
sS'to__BOTTOM__'
p2090
I01
sS'upvot__ALL__'
p2091
I01
sS'just__BOTTOM__'
p2092
I01
sS'I__ALL__'
p2093
I01
sS'off__BOTTOM__'
p2094
I01
sS'piss__BOTTOM__'
p2095
I01
sS'opinion__TOP__'
p2096
I01
sS'popular__ALL__'
p2097
I01
sS'puffin__ALL__'
p2098
I01
sS'off__ALL__'
p2099
I01
sS'peopl__BOTTOM__'
p2100
I01
sS'opinion__ALL__'
p2101
I01
sS'popular__TOP__'
p2102
I01
sS'peopl__ALL__'
p2103
I01
sS'puffin__TOP__'
p2104
I01
sS'upvot__TOP__'
p2105
I01
sa(dp2106
S'to__ALL__'
p2107
I01
sS'I__TOP__'
p2108
I01
sS'piss__ALL__'
p2109
I01
sS'just__ALL__'
p2110
I01
sS'to__BOTTOM__'
p2111
I01
sS'upvot__ALL__'
p2112
I01
sS'just__BOTTOM__'
p2113
I01
sS'I__ALL__'
p2114
I01
sS'off__BOTTOM__'
p2115
I01
sS'piss__BOTTOM__'
p2116
I01
sS'opinion__TOP__'
p2117
I01
sS'popular__ALL__'
p2118
I01
sS'puffin__ALL__'
p2119
I01
sS'off__ALL__'
p2120
I01
sS'peopl__BOTTOM__'
p2121
I01
sS'opinion__ALL__'
p2122
I01
sS'popular__TOP__'
p2123
I01
sS'peopl__ALL__'
p2124
I01
sS'puffin__TOP__'
p2125
I01
sS'upvot__TOP__'
p2126
I01
sa(dp2127
S'to__BOTTOM__'
p2128
I01
sS'about__ALL__'
p2129
I01
sS'chad__ALL__'
p2130
I01
sS'a__TOP__'
p2131
I01
sS'in__ALL__'
p2132
I01
sS'month__BOTTOM__'
p2133
I01
sS'chad__TOP__'
p2134
I01
sS'close__TOP__'
p2135
I01
sS'close__ALL__'
p2136
I01
sS'have__ALL__'
p2137
I01
sS'a__ALL__'
p2138
I01
sS'gap__TOP__'
p2139
I01
sS'for__BOTTOM__'
p2140
I01
sS'with__TOP__'
p2141
I01
sS'Post__TOP__'
p2142
I01
sS'hit__ALL__'
p2143
I01
sS'gap__ALL__'
p2144
I01
sS'Post__ALL__'
p2145
I01
sS'it__BOTTOM__'
p2146
I01
sS'have__BOTTOM__'
p2147
I01
sS'for__ALL__'
p2148
I01
sS'forget__BOTTOM__'
p2149
I01
sS'everyon__ALL__'
p2150
I01
sS'about__BOTTOM__'
p2151
I01
sS'hit__TOP__'
p2152
I01
sS'with__ALL__'
p2153
I01
sS'it__ALL__'
p2154
I01
sS'four__BOTTOM__'
p2155
I01
sS'everyon__BOTTOM__'
p2156
I01
sS'to__ALL__'
p2157
I01
sS'in__TOP__'
p2158
I01
sS'thread__ALL__'
p2159
I01
sS'to__TOP__'
p2160
I01
sS'month__ALL__'
p2161
I01
sS'August__ALL__'
p2162
I01
sS'four__ALL__'
p2163
I01
sS'thread__TOP__'
p2164
I01
sS'August__TOP__'
p2165
I01
sS'forget__ALL__'
p2166
I01
sa(dp2167
S'I__TOP__'
p2168
I01
sS'me__ALL__'
p2169
I01
sS'Frame__BOTTOM__'
p2170
I01
sS'and__ALL__'
p2171
I01
sS'give__ALL__'
p2172
I01
sS'and__BOTTOM__'
p2173
I01
sS'absolv__ALL__'
p2174
I01
sS'give__TOP__'
p2175
I01
sS'plant__ALL__'
p2176
I01
sS'on__ALL__'
p2177
I01
sS'deathb__ALL__'
p2178
I01
sS'their__TOP__'
p2179
I01
sS'deathb__TOP__'
p2180
I01
sS'Kori__TOP__'
p2181
I01
sS'me__BOTTOM__'
p2182
I01
sS'plant__TOP__'
p2183
I01
sS"'ll__ALL__"
p2184
I01
sS'their__ALL__'
p2185
I01
sS'absolv__BOTTOM__'
p2186
I01
sS'Kori__ALL__'
p2187
I01
sS'him__ALL__'
p2188
I01
sS"'ll__TOP__"
p2189
I01
sS'on__TOP__'
p2190
I01
sS'Frame__ALL__'
p2191
I01
sS'him__BOTTOM__'
p2192
I01
sS'I__ALL__'
p2193
I01
sa(dp2194
S'I__TOP__'
p2195
I01
sS'did__TOP__'
p2196
I01
sS'back__BOTTOM__'
p2197
I01
sS'Ye__ALL__'
p2198
I01
sS'will__ALL__'
p2199
I01
sS'what__ALL__'
p2200
I01
sS'back__ALL__'
p2201
I01
sS'know__ALL__'
p2202
I01
sS'pay__BOTTOM__'
p2203
I01
sS'you__ALL__'
p2204
I01
sS'did__ALL__'
p2205
I01
sS'will__BOTTOM__'
p2206
I01
sS'What__BOTTOM__'
p2207
I01
sS'what__TOP__'
p2208
I01
sS',__TOP__'
p2209
I01
sS'!__TOP__'
p2210
I01
sS',__ALL__'
p2211
I01
sS'you__TOP__'
p2212
I01
sS'What__ALL__'
p2213
I01
sS'pay__ALL__'
p2214
I01
sS'be__BOTTOM__'
p2215
I01
sS'know__TOP__'
p2216
I01
sS'!__ALL__'
p2217
I01
sS'?__ALL__'
p2218
I01
sS'?__BOTTOM__'
p2219
I01
sS'be__ALL__'
p2220
I01
sS'I__ALL__'
p2221
I01
sS'the__ALL__'
p2222
I01
sS'the__BOTTOM__'
p2223
I01
sS'Ye__TOP__'
p2224
I01
sa(dp2225
S',__TOP__'
p2226
I01
sS'yess__ALL__'
p2227
I01
sS'yess__TOP__'
p2228
I01
sS'it__TOP__'
p2229
I01
sS'off__TOP__'
p2230
I01
sS',__ALL__'
p2231
I01
sS'off__ALL__'
p2232
I01
sS'miss__BOTTOM__'
p2233
I01
sS'll__ALL__'
p2234
I01
sS'take__ALL__'
p2235
I01
sS'll__TOP__'
p2236
I01
sS'it__ALL__'
p2237
I01
sS'miss__ALL__'
p2238
I01
sS'Luscomb__ALL__'
p2239
I01
sS'take__TOP__'
p2240
I01
sS'Luscomb__BOTTOM__'
p2241
I01
sa(dp2242
S'to__BOTTOM__'
p2243
I01
sS'about__ALL__'
p2244
I01
sS'chad__ALL__'
p2245
I01
sS'a__TOP__'
p2246
I01
sS'in__ALL__'
p2247
I01
sS'month__BOTTOM__'
p2248
I01
sS'out__TOP__'
p2249
I01
sS'chad__TOP__'
p2250
I01
sS'close__TOP__'
p2251
I01
sS'close__ALL__'
p2252
I01
sS'have__ALL__'
p2253
I01
sS'out__ALL__'
p2254
I01
sS'a__ALL__'
p2255
I01
sS'gap__TOP__'
p2256
I01
sS'for__BOTTOM__'
p2257
I01
sS'with__TOP__'
p2258
I01
sS'Post__TOP__'
p2259
I01
sS'hit__ALL__'
p2260
I01
sS'gap__ALL__'
p2261
I01
sS'Post__ALL__'
p2262
I01
sS'it__BOTTOM__'
p2263
I01
sS'have__BOTTOM__'
p2264
I01
sS'for__ALL__'
p2265
I01
sS'forget__BOTTOM__'
p2266
I01
sS'everyon__ALL__'
p2267
I01
sS'about__BOTTOM__'
p2268
I01
sS'hit__TOP__'
p2269
I01
sS'with__ALL__'
p2270
I01
sS'it__ALL__'
p2271
I01
sS'four__BOTTOM__'
p2272
I01
sS'everyon__BOTTOM__'
p2273
I01
sS'to__ALL__'
p2274
I01
sS'in__TOP__'
p2275
I01
sS'thread__ALL__'
p2276
I01
sS'to__TOP__'
p2277
I01
sS'month__ALL__'
p2278
I01
sS'August__ALL__'
p2279
I01
sS'four__ALL__'
p2280
I01
sS'thread__TOP__'
p2281
I01
sS'August__TOP__'
p2282
I01
sS'forget__ALL__'
p2283
I01
sa(dp2284
S'reason__BOTTOM__'
p2285
I01
sS'to__BOTTOM__'
p2286
I01
sS'prove__BOTTOM__'
p2287
I01
sS'unpopular__ALL__'
p2288
I01
sS'Simpli__ALL__'
p2289
I01
sS'unpopular__TOP__'
p2290
I01
sS'puffin__ALL__'
p2291
I01
sS'Made__ALL__'
p2292
I01
sS'unpopular__BOTTOM__'
p2293
I01
sS'puffin__BOTTOM__'
p2294
I01
sS'an__TOP__'
p2295
I01
sS'reason__ALL__'
p2296
I01
sS'prove__ALL__'
p2297
I01
sS'wa__ALL__'
p2298
I01
sS'an__ALL__'
p2299
I01
sS'downvot__ALL__'
p2300
I01
sS'Made__TOP__'
p2301
I01
sS'flaw__ALL__'
p2302
I01
sS'that__ALL__'
p2303
I01
sS'that__BOTTOM__'
p2304
I01
sS'Simpli__BOTTOM__'
p2305
I01
sS'is__BOTTOM__'
p2306
I01
sS'that__TOP__'
p2307
I01
sS'to__ALL__'
p2308
I01
sS'wa__TOP__'
p2309
I01
sS'downvot__TOP__'
p2310
I01
sS'is__ALL__'
p2311
I01
sS'the__ALL__'
p2312
I01
sS'the__BOTTOM__'
p2313
I01
sS'puffin__TOP__'
p2314
I01
sS'flaw__BOTTOM__'
p2315
I01
sa(dp2316
S'the__TOP__'
p2317
I01
sS'wan__BOTTOM__'
p2318
I01
sS'Say__ALL__'
p2319
I01
sS'see__BOTTOM__'
p2320
I01
sS'what__ALL__'
p2321
I01
sS'what__BOTTOM__'
p2322
I01
sS'someth__ALL__'
p2323
I01
sS'Say__TOP__'
p2324
I01
sS'someth__TOP__'
p2325
I01
sS'girl__TOP__'
p2326
I01
sS'wan__ALL__'
p2327
I01
sS'I__BOTTOM__'
p2328
I01
sS'girl__ALL__'
p2329
I01
sS'happen__BOTTOM__'
p2330
I01
sS'to__ALL__'
p2331
I01
sS'sad__TOP__'
p2332
I01
sS'I__ALL__'
p2333
I01
sS'to__TOP__'
p2334
I01
sS'happen__ALL__'
p2335
I01
sS'sad__ALL__'
p2336
I01
sS'see__ALL__'
p2337
I01
sS'the__ALL__'
p2338
I01
sS'na__ALL__'
p2339
I01
sS'na__BOTTOM__'
p2340
I01
sa(dp2341
S'I__TOP__'
p2342
I01
sS'watch__TOP__'
p2343
I01
sS"'ll__TOP__"
p2344
I01
sS'so__ALL__'
p2345
I01
sS'tab__ALL__'
p2346
I01
sS'if__ALL__'
p2347
I01
sS'me__ALL__'
p2348
I01
sS'in__ALL__'
p2349
I01
sS'porn__ALL__'
p2350
I01
sS'can__BOTTOM__'
p2351
I01
sS'she__ALL__'
p2352
I01
sS'while__TOP__'
p2353
I01
sS'porn__TOP__'
p2354
I01
sS'walk__ALL__'
p2355
I01
sS'to__BOTTOM__'
p2356
I01
sS'she__BOTTOM__'
p2357
I01
sS'so__BOTTOM__'
p2358
I01
sS'on__ALL__'
p2359
I01
sS'wife__ALL__'
p2360
I01
sS'can__ALL__'
p2361
I01
sS'while__ALL__'
p2362
I01
sS'of__ALL__'
p2363
I01
sS'keep__ALL__'
p2364
I01
sS'if__BOTTOM__'
p2365
I01
sS'wife__TOP__'
p2366
I01
sS'minim__ALL__'
p2367
I01
sS'me__BOTTOM__'
p2368
I01
sS"'ll__ALL__"
p2369
I01
sS'I__BOTTOM__'
p2370
I01
sS'in__BOTTOM__'
p2371
I01
sS'of__TOP__'
p2372
I01
sS'keep__TOP__'
p2373
I01
sS'pictur__TOP__'
p2374
I01
sS'walk__BOTTOM__'
p2375
I01
sS'to__ALL__'
p2376
I01
sS'pictur__ALL__'
p2377
I01
sS'my__TOP__'
p2378
I01
sS'watch__ALL__'
p2379
I01
sS'my__ALL__'
p2380
I01
sS'minim__TOP__'
p2381
I01
sS'I__ALL__'
p2382
I01
sS'on__BOTTOM__'
p2383
I01
sS'them__ALL__'
p2384
I01
sS'them__BOTTOM__'
p2385
I01
sS'tab__BOTTOM__'
p2386
I01
sa(dp2387
S'I__TOP__'
p2388
I01
sS'year__ALL__'
p2389
I01
sS'thi__TOP__'
p2390
I01
sS'entri__TOP__'
p2391
I01
sS'to__BOTTOM__'
p2392
I01
sS'entri__ALL__'
p2393
I01
sS'a__TOP__'
p2394
I01
sS'level__ALL__'
p2395
I01
sS'year__TOP__'
p2396
I01
sS'hire__ALL__'
p2397
I01
sS'and__ALL__'
p2398
I01
sS'experi__ALL__'
p2399
I01
sS'degre__TOP__'
p2400
I01
sS'hire__BOTTOM__'
p2401
I01
sS'and__TOP__'
p2402
I01
sS"n't__ALL__"
p2403
I01
sS'requir__TOP__'
p2404
I01
sS'a__ALL__'
p2405
I01
sS'requir__ALL__'
p2406
I01
sS'with__TOP__'
p2407
I01
sS'have__ALL__'
p2408
I01
sS'thi__ALL__'
p2409
I01
sS'so__BOTTOM__'
p2410
I01
sS'job__ALL__'
p2411
I01
sS'diploma__ALL__'
p2412
I01
sS'level__TOP__'
p2413
I01
sS'wo__ALL__'
p2414
I01
sS'degre__ALL__'
p2415
I01
sS'have__BOTTOM__'
p2416
I01
sS'minimum__TOP__'
p2417
I01
sS'for__ALL__'
p2418
I01
sS'so__ALL__'
p2419
I01
sS'school__ALL__'
p2420
I01
sS'colleg__TOP__'
p2421
I01
sS'could__TOP__'
p2422
I01
sS'high__ALL__'
p2423
I01
sS"n't__BOTTOM__"
p2424
I01
sS"'__ALL__"
p2425
I01
sS'school__TOP__'
p2426
I01
sS'with__ALL__'
p2427
I01
sS"'ll__ALL__"
p2428
I01
sS'I__BOTTOM__'
p2429
I01
sS'colleg__ALL__'
p2430
I01
sS'do__ALL__'
p2431
I01
sS'wo__BOTTOM__'
p2432
I01
sS'for__TOP__'
p2433
I01
sS'of__TOP__'
p2434
I01
sS'anyon__ALL__'
p2435
I01
sS'of__ALL__'
p2436
I01
sS'job__TOP__'
p2437
I01
sS'high__TOP__'
p2438
I01
sS'in__ALL__'
p2439
I01
sS'do__TOP__'
p2440
I01
sS'that__TOP__'
p2441
I01
sS'to__ALL__'
p2442
I01
sS'that__ALL__'
p2443
I01
sS'twenti__ALL__'
p2444
I01
sS'their__ALL__'
p2445
I01
sS"'__TOP__"
p2446
I01
sS'diploma__TOP__'
p2447
I01
sS"'ll__TOP__"
p2448
I01
sS'their__BOTTOM__'
p2449
I01
sS'could__ALL__'
p2450
I01
sS'minimum__ALL__'
p2451
I01
sS'twenti__BOTTOM__'
p2452
I01
sS'multipl__ALL__'
p2453
I01
sS'anyon__BOTTOM__'
p2454
I01
sS'in__BOTTOM__'
p2455
I01
sS'multipl__TOP__'
p2456
I01
sS'experi__TOP__'
p2457
I01
sS'I__ALL__'
p2458
I01
sS'anyon__TOP__'
p2459
I01
sa(dp2460
S'.__BOTTOM__'
p2461
I01
sS'two__ALL__'
p2462
I01
sS'.__ALL__'
p2463
I01
sS'there__ALL__'
p2464
I01
sS'me__ALL__'
p2465
I01
sS'without__ALL__'
p2466
I01
sS'Let__BOTTOM__'
p2467
I01
sS"'s__TOP__"
p2468
I01
sS'each__ALL__'
p2469
I01
sS'without__BOTTOM__'
p2470
I01
sS'peic__TOP__'
p2471
I01
sS'So__ALL__'
p2472
I01
sS'take__BOTTOM__'
p2473
I01
sS'each__TOP__'
p2474
I01
sS'?__TOP__'
p2475
I01
sS'cake__TOP__'
p2476
I01
sS'you__ALL__'
p2477
I01
sS'you__BOTTOM__'
p2478
I01
sS'tell__BOTTOM__'
p2479
I01
sS'cake__ALL__'
p2480
I01
sS'peic__ALL__'
p2481
I01
sS'three__ALL__'
p2482
I01
sS'me__BOTTOM__'
p2483
I01
sS'tell__ALL__'
p2484
I01
sS'take__ALL__'
p2485
I01
sS'So__TOP__'
p2486
I01
sS'of__TOP__'
p2487
I01
sS'of__ALL__'
p2488
I01
sS'?__ALL__'
p2489
I01
sS'Let__ALL__'
p2490
I01
sS'two__TOP__'
p2491
I01
sS"'s__ALL__"
p2492
I01
sS'three__BOTTOM__'
p2493
I01
sS'there__TOP__'
p2494
I01
sa(dp2495
S'all__ALL__'
p2496
I01
sS'to__BOTTOM__'
p2497
I01
sS'get__BOTTOM__'
p2498
I01
sS'back__BOTTOM__'
p2499
I01
sS'my__BOTTOM__'
p2500
I01
sS'...__ALL__'
p2501
I01
sS'the__TOP__'
p2502
I01
sS'and__ALL__'
p2503
I01
sS'and__BOTTOM__'
p2504
I01
sS'finish__ALL__'
p2505
I01
sS'GNC__ALL__'
p2506
I01
sS'with__ALL__'
p2507
I01
sS'Powder__ALL__'
p2508
I01
sS'refil__BOTTOM__'
p2509
I01
sS'Powder__TOP__'
p2510
I01
sS'Imgo__ALL__'
p2511
I01
sS'money__BOTTOM__'
p2512
I01
sS'Protien__ALL__'
p2513
I01
sS'it__BOTTOM__'
p2514
I01
sS'finish__TOP__'
p2515
I01
sS'return__BOTTOM__'
p2516
I01
sS'GNC__BOTTOM__'
p2517
I01
sS'Then__ALL__'
p2518
I01
sS'Imgo__TOP__'
p2519
I01
sS'back__ALL__'
p2520
I01
sS'get__ALL__'
p2521
I01
sS'...__TOP__'
p2522
I01
sS'Protien__TOP__'
p2523
I01
sS'to__ALL__'
p2524
I01
sS'return__ALL__'
p2525
I01
sS'Then__BOTTOM__'
p2526
I01
sS'all__TOP__'
p2527
I01
sS'ovaltin__BOTTOM__'
p2528
I01
sS'to__TOP__'
p2529
I01
sS'with__BOTTOM__'
p2530
I01
sS'ovaltin__ALL__'
p2531
I01
sS'my__ALL__'
p2532
I01
sS'money__ALL__'
p2533
I01
sS'the__ALL__'
p2534
I01
sS'refil__ALL__'
p2535
I01
sS'it__ALL__'
p2536
I01
sa(dp2537
S'make__ALL__'
p2538
I01
sS'fake__ALL__'
p2539
I01
sS'CNN__ALL__'
p2540
I01
sS'the__TOP__'
p2541
I01
sS'page__TOP__'
p2542
I01
sS'and__ALL__'
p2543
I01
sS'report__ALL__'
p2544
I01
sS'Let__TOP__'
p2545
I01
sS'and__TOP__'
p2546
I01
sS'it__TOP__'
p2547
I01
sS'Let__ALL__'
p2548
I01
sS'then__ALL__'
p2549
I01
sS'up__ALL__'
p2550
I01
sS'up__TOP__'
p2551
I01
sS'then__BOTTOM__'
p2552
I01
sS'upvot__ALL__'
p2553
I01
sS'watch__BOTTOM__'
p2554
I01
sS'the__ALL__'
p2555
I01
sS'it__ALL__'
p2556
I01
sS'page__ALL__'
p2557
I01
sS'front__TOP__'
p2558
I01
sS'news__TOP__'
p2559
I01
sS'to__ALL__'
p2560
I01
sS'fake__BOTTOM__'
p2561
I01
sS'report__BOTTOM__'
p2562
I01
sS'to__TOP__'
p2563
I01
sS'watch__ALL__'
p2564
I01
sS'CNN__BOTTOM__'
p2565
I01
sS'front__ALL__'
p2566
I01
sS'news__ALL__'
p2567
I01
sS'make__TOP__'
p2568
I01
sS'the__BOTTOM__'
p2569
I01
sS'upvot__TOP__'
p2570
I01
sS'news__BOTTOM__'
p2571
I01
sa(dp2572
S'to__BOTTOM__'
p2573
I01
sS'prove__BOTTOM__'
p2574
I01
sS'back__BOTTOM__'
p2575
I01
sS'me__ALL__'
p2576
I01
sS'give__ALL__'
p2577
I01
sS'Chri__TOP__'
p2578
I01
sS'Marvel__ALL__'
p2579
I01
sS'name__ALL__'
p2580
I01
sS'Chri__ALL__'
p2581
I01
sS'back__ALL__'
p2582
I01
sS'on__ALL__'
p2583
I01
sS'it__BOTTOM__'
p2584
I01
sS'me__TOP__'
p2585
I01
sS'Marvel__TOP__'
p2586
I01
sS'Sign__ALL__'
p2587
I01
sS'Sign__BOTTOM__'
p2588
I01
sS'mine__BOTTOM__'
p2589
I01
sS'prove__ALL__'
p2590
I01
sS'authent__ALL__'
p2591
I01
sS'it__ALL__'
p2592
I01
sS'replica__TOP__'
p2593
I01
sS'to__ALL__'
p2594
I01
sS'name__BOTTOM__'
p2595
I01
sS'authent__TOP__'
p2596
I01
sS'give__TOP__'
p2597
I01
sS'replica__ALL__'
p2598
I01
sS'on__BOTTOM__'
p2599
I01
sS'mine__ALL__'
p2600
I01
sS"'s__ALL__"
p2601
I01
sS"'s__BOTTOM__"
p2602
I01
sa(dp2603
S'?__TOP__'
p2604
I01
sS'Separ__TOP__'
p2605
I01
sS'?__ALL__'
p2606
I01
sS'minion__ALL__'
p2607
I01
sS'good__BOTTOM__'
p2608
I01
sS'Separ__ALL__'
p2609
I01
sS'trash__ALL__'
p2610
I01
sS'good__ALL__'
p2611
I01
sS',__ALL__'
p2612
I01
sS'trash__TOP__'
p2613
I01
sS'the__TOP__'
p2614
I01
sS'my__ALL__'
p2615
I01
sS',__BOTTOM__'
p2616
I01
sS'my__BOTTOM__'
p2617
I01
sS'the__ALL__'
p2618
I01
sS'minion__BOTTOM__'
p2619
I01
sa(dp2620
S'to__BOTTOM__'
p2621
I01
sS'prove__BOTTOM__'
p2622
I01
sS'mine__BOTTOM__'
p2623
I01
sS'me__ALL__'
p2624
I01
sS'give__ALL__'
p2625
I01
sS'Chri__TOP__'
p2626
I01
sS'Marvel__ALL__'
p2627
I01
sS'name__ALL__'
p2628
I01
sS'replicata__ALL__'
p2629
I01
sS'Chri__ALL__'
p2630
I01
sS'back__ALL__'
p2631
I01
sS'on__ALL__'
p2632
I01
sS'it__BOTTOM__'
p2633
I01
sS'me__TOP__'
p2634
I01
sS'Marvel__TOP__'
p2635
I01
sS'Sign__ALL__'
p2636
I01
sS'Sign__BOTTOM__'
p2637
I01
sS'back__BOTTOM__'
p2638
I01
sS'replicata__TOP__'
p2639
I01
sS'prove__ALL__'
p2640
I01
sS'authent__ALL__'
p2641
I01
sS'it__ALL__'
p2642
I01
sS'to__ALL__'
p2643
I01
sS'name__BOTTOM__'
p2644
I01
sS'authent__TOP__'
p2645
I01
sS'give__TOP__'
p2646
I01
sS'on__BOTTOM__'
p2647
I01
sS'mine__ALL__'
p2648
I01
sS"'s__ALL__"
p2649
I01
sS"'s__BOTTOM__"
p2650
I01
sa(dp2651
S'lobster__ALL__'
p2652
I01
sS'extend__ALL__'
p2653
I01
sS'Bring__ALL__'
p2654
I01
sS'and__ALL__'
p2655
I01
sS'steak__BOTTOM__'
p2656
I01
sS'and__BOTTOM__'
p2657
I01
sS'extend__TOP__'
p2658
I01
sS'out__ALL__'
p2659
I01
sS'month__TOP__'
p2660
I01
sS'...__ALL__'
p2661
I01
sS'Bring__BOTTOM__'
p2662
I01
sS'out__BOTTOM__'
p2663
I01
sS'2__TOP__'
p2664
I01
sS'get__ALL__'
p2665
I01
sS'Deploy__TOP__'
p2666
I01
sS'...__TOP__'
p2667
I01
sS'Deploy__ALL__'
p2668
I01
sS'get__TOP__'
p2669
I01
sS'month__ALL__'
p2670
I01
sS'steak__ALL__'
p2671
I01
sS'the__ALL__'
p2672
I01
sS'the__BOTTOM__'
p2673
I01
sS'lobster__BOTTOM__'
p2674
I01
sS'2__ALL__'
p2675
I01
sa(dp2676
S'as__BOTTOM__'
p2677
I01
sS'Just__ALL__'
p2678
I01
sS'plan__ALL__'
p2679
I01
sS'plan__BOTTOM__'
p2680
I01
sS'Just__TOP__'
p2681
I01
sS'as__ALL__'
p2682
I01
sS'Exactli__ALL__'
p2683
I01
sS'Exactli__BOTTOM__'
p2684
I01
sa(dp2685
S'I__TOP__'
p2686
I01
sS'thi__TOP__'
p2687
I01
sS'in__ALL__'
p2688
I01
sS'him__ALL__'
p2689
I01
sS'will__ALL__'
p2690
I01
sS'find__BOTTOM__'
p2691
I01
sS"'s__TOP__"
p2692
I01
sS'lose__ALL__'
p2693
I01
sS'thi__ALL__'
p2694
I01
sS'it__BOTTOM__'
p2695
I01
sS'lose__TOP__'
p2696
I01
sS'lodg__ALL__'
p2697
I01
sS'lodg__TOP__'
p2698
I01
sS'Cassio__ALL__'
p2699
I01
sS'let__BOTTOM__'
p2700
I01
sS'napkin__TOP__'
p2701
I01
sS'Cassio__TOP__'
p2702
I01
sS'And__ALL__'
p2703
I01
sS'it__ALL__'
p2704
I01
sS'find__ALL__'
p2705
I01
sS'will__TOP__'
p2706
I01
sS'let__ALL__'
p2707
I01
sS'napkin__ALL__'
p2708
I01
sS'in__TOP__'
p2709
I01
sS'I__ALL__'
p2710
I01
sS'him__BOTTOM__'
p2711
I01
sS'And__BOTTOM__'
p2712
I01
sS"'s__ALL__"
p2713
I01
sa(dp2714
S'about__ALL__'
p2715
I01
sS'day__TOP__'
p2716
I01
sS'Cake__TOP__'
p2717
I01
sS'day__ALL__'
p2718
I01
sS'Lie__TOP__'
p2719
I01
sS"n't__ALL__"
p2720
I01
sS'about__TOP__'
p2721
I01
sS'ca__BOTTOM__'
p2722
I01
sS'user__ALL__'
p2723
I01
sS'tell__ALL__'
p2724
I01
sS'tell__BOTTOM__'
p2725
I01
sS'for__ALL__'
p2726
I01
sS"n't__BOTTOM__"
p2727
I01
sS'user__BOTTOM__'
p2728
I01
sS'for__TOP__'
p2729
I01
sS'karma__ALL__'
p2730
I01
sS'Cake__ALL__'
p2731
I01
sS'karma__TOP__'
p2732
I01
sS'Lie__ALL__'
p2733
I01
sS'ca__ALL__'
p2734
I01
sS'Mobil__BOTTOM__'
p2735
I01
sS'Mobil__ALL__'
p2736
I01
sa(dp2737
S'.__BOTTOM__'
p2738
I01
sS'I__TOP__'
p2739
I01
sS'.__ALL__'
p2740
I01
sS'Good__BOTTOM__'
p2741
I01
sS'a__TOP__'
p2742
I01
sS'work__BOTTOM__'
p2743
I01
sS'are__TOP__'
p2744
I01
sS'My__ALL__'
p2745
I01
sS'say__TOP__'
p2746
I01
sS'is__ALL__'
p2747
I01
sS'a__ALL__'
p2748
I01
sS'get__ALL__'
p2749
I01
sS'Whenev__TOP__'
p2750
I01
sS'plan__ALL__'
p2751
I01
sS'review__TOP__'
p2752
I01
sS'addict__ALL__'
p2753
I01
sS'Whenev__ALL__'
p2754
I01
sS'review__ALL__'
p2755
I01
sS'addict__TOP__'
p2756
I01
sS'work__ALL__'
p2757
I01
sS'Good__ALL__'
p2758
I01
sS'plan__BOTTOM__'
p2759
I01
sS'stori__TOP__'
p2760
I01
sS'is__BOTTOM__'
p2761
I01
sS'are__ALL__'
p2762
I01
sS'I__ALL__'
p2763
I01
sS'get__TOP__'
p2764
I01
sS'say__ALL__'
p2765
I01
sS'my__ALL__'
p2766
I01
sS'My__BOTTOM__'
p2767
I01
sS'stori__ALL__'
p2768
I01
sS'my__TOP__'
p2769
I01
sa(dp2770
S'think__TOP__'
p2771
I01
sS'I__TOP__'
p2772
I01
sS'fat__ALL__'
p2773
I01
sS'think__ALL__'
p2774
I01
sS'fat__TOP__'
p2775
I01
sS'a__TOP__'
p2776
I01
sS'But__BOTTOM__'
p2777
I01
sS'just__TOP__'
p2778
I01
sS'pet__TOP__'
p2779
I01
sS'world__ALL__'
p2780
I01
sS'rule__ALL__'
p2781
I01
sS"'m__ALL__"
p2782
I01
sS'a__ALL__'
p2783
I01
sS"'m__TOP__"
p2784
I01
sS'will__ALL__'
p2785
I01
sS'will__BOTTOM__'
p2786
I01
sS'I__BOTTOM__'
p2787
I01
sS'But__ALL__'
p2788
I01
sS'world__BOTTOM__'
p2789
I01
sS'They__TOP__'
p2790
I01
sS'I__ALL__'
p2791
I01
sS'just__ALL__'
p2792
I01
sS'rule__BOTTOM__'
p2793
I01
sS'the__ALL__'
p2794
I01
sS'the__BOTTOM__'
p2795
I01
sS'pet__ALL__'
p2796
I01
sS'They__ALL__'
p2797
I01
sa(dp2798
S'my__TOP__'
p2799
I01
sS'I__TOP__'
p2800
I01
sS'think__ALL__'
p2801
I01
sS'post__TOP__'
p2802
I01
sS'put__ALL__'
p2803
I01
sS'think__BOTTOM__'
p2804
I01
sS'in__ALL__'
p2805
I01
sS'post__ALL__'
p2806
I01
sS'will__ALL__'
p2807
I01
sS"'m__ALL__"
p2808
I01
sS'put__TOP__'
p2809
I01
sS'!__BOTTOM__'
p2810
I01
sS'so__BOTTOM__'
p2811
I01
sS'will__BOTTOM__'
p2812
I01
sS'so__ALL__'
p2813
I01
sS"'bollock__ALL__"
p2814
I01
sS'american__ALL__'
p2815
I01
sS'british__ALL__'
p2816
I01
sS"'__ALL__"
p2817
I01
sS"'ll__ALL__"
p2818
I01
sS'I__BOTTOM__'
p2819
I01
sS'when__ALL__'
p2820
I01
sS'appropri__TOP__'
p2821
I01
sS'when__TOP__'
p2822
I01
sS'american__BOTTOM__'
p2823
I01
sS'!__ALL__'
p2824
I01
sS'in__TOP__'
p2825
I01
sS"'__TOP__"
p2826
I01
sS"'ll__TOP__"
p2827
I01
sS"'m__BOTTOM__"
p2828
I01
sS'my__ALL__'
p2829
I01
sS"'bollock__TOP__"
p2830
I01
sS'british__BOTTOM__'
p2831
I01
sS'appropri__ALL__'
p2832
I01
sS'I__ALL__'
p2833
I01
sa(dp2834
S'all__ALL__'
p2835
I01
sS'there__ALL__'
p2836
I01
sS'Get__TOP__'
p2837
I01
sS'by__TOP__'
p2838
I01
sS'Book__ALL__'
p2839
I01
sS'them__TOP__'
p2840
I01
sS'were__ALL__'
p2841
I01
sS'Then__BOTTOM__'
p2842
I01
sS'box__ALL__'
p2843
I01
sS'free__ALL__'
p2844
I01
sS'them__ALL__'
p2845
I01
sS'excit__ALL__'
p2846
I01
sS'Then__ALL__'
p2847
I01
sS'were__BOTTOM__'
p2848
I01
sS'by__ALL__'
p2849
I01
sS'the__ALL__'
p2850
I01
sS'Mac__ALL__'
p2851
I01
sS'tell__TOP__'
p2852
I01
sS'excit__TOP__'
p2853
I01
sS'tell__ALL__'
p2854
I01
sS'tell__BOTTOM__'
p2855
I01
sS'are__TOP__'
p2856
I01
sS'all__TOP__'
p2857
I01
sS'are__ALL__'
p2858
I01
sS'Get__ALL__'
p2859
I01
sS'free__TOP__'
p2860
I01
sS'them__BOTTOM__'
p2861
I01
sS'box__BOTTOM__'
p2862
I01
sS'Mac__TOP__'
p2863
I01
sS'the__BOTTOM__'
p2864
I01
sS'Book__TOP__'
p2865
I01
sS'empti__ALL__'
p2866
I01
sS'empti__BOTTOM__'
p2867
I01
sS'there__TOP__'
p2868
I01
sa(dp2869
S'a__ALL__'
p2870
I01
sS'swan__TOP__'
p2871
I01
sS'stand__BOTTOM__'
p2872
I01
sS'a__BOTTOM__'
p2873
I01
sS"n't__BOTTOM__"
p2874
I01
sS"n't__ALL__"
p2875
I01
sS'stand__ALL__'
p2876
I01
sS'ca__ALL__'
p2877
I01
sS'you__ALL__'
p2878
I01
sS'black__TOP__'
p2879
I01
sS'black__ALL__'
p2880
I01
sS'swan__ALL__'
p2881
I01
sS'ha__BOTTOM__'
p2882
I01
sS'you__BOTTOM__'
p2883
I01
sS'ha__ALL__'
p2884
I01
sS'ca__BOTTOM__'
p2885
I01
sS'scene__BOTTOM__'
p2886
I01
sS'scene__ALL__'
p2887
I01
sa(dp2888
S'ruin__ALL__'
p2889
I01
sS'sent__BOTTOM__'
p2890
I01
sS'i__ALL__'
p2891
I01
sS'spoiler__TOP__'
p2892
I01
sS'throne__TOP__'
p2893
I01
sS'3__BOTTOM__'
p2894
I01
sS'post__TOP__'
p2895
I01
sS'post__ALL__'
p2896
I01
sS'him__ALL__'
p2897
I01
sS'Some__ALL__'
p2898
I01
sS'Some__TOP__'
p2899
I01
sS'book__BOTTOM__'
p2900
I01
sS'sent__ALL__'
p2901
I01
sS'with__BOTTOM__'
p2902
I01
sS'season__ALL__'
p2903
I01
sS'them__TOP__'
p2904
I01
sS'it__TOP__'
p2905
I01
sS'a__ALL__'
p2906
I01
sS'peopl__TOP__'
p2907
I01
sS'game__ALL__'
p2908
I01
sS'peopl__ALL__'
p2909
I01
sS'from__ALL__'
p2910
I01
sS'singl__ALL__'
p2911
I01
sS'event__BOTTOM__'
p2912
I01
sS'on__ALL__'
p2913
I01
sS'from__BOTTOM__'
p2914
I01
sS'messag__ALL__'
p2915
I01
sS'of__ALL__'
p2916
I01
sS'for__ALL__'
p2917
I01
sS'on__TOP__'
p2918
I01
sS'signific__ALL__'
p2919
I01
sS'everi__BOTTOM__'
p2920
I01
sS'past__ALL__'
p2921
I01
sS'everi__ALL__'
p2922
I01
sS'to__ALL__'
p2923
I01
sS'douch__TOP__'
p2924
I01
sS'singl__BOTTOM__'
p2925
I01
sS'3__ALL__'
p2926
I01
sS'game__TOP__'
p2927
I01
sS'them__ALL__'
p2928
I01
sS'for__TOP__'
p2929
I01
sS'of__TOP__'
p2930
I01
sS'past__BOTTOM__'
p2931
I01
sS'spoiler__ALL__'
p2932
I01
sS'throne__ALL__'
p2933
I01
sS'privat__ALL__'
p2934
I01
sS'messag__BOTTOM__'
p2935
I01
sS'douch__ALL__'
p2936
I01
sS'event__ALL__'
p2937
I01
sS'a__BOTTOM__'
p2938
I01
sS'the__ALL__'
p2939
I01
sS'with__ALL__'
p2940
I01
sS'to__TOP__'
p2941
I01
sS'season__BOTTOM__'
p2942
I01
sS'i__BOTTOM__'
p2943
I01
sS'privat__BOTTOM__'
p2944
I01
sS'him__BOTTOM__'
p2945
I01
sS'ruin__TOP__'
p2946
I01
sS'the__BOTTOM__'
p2947
I01
sS'book__ALL__'
p2948
I01
sS'signific__BOTTOM__'
p2949
I01
sS'it__ALL__'
p2950
I01
sa(dp2951
S'to__ALL__'
p2952
I01
sS'readi__ALL__'
p2953
I01
sS'FAHMI__ALL__'
p2954
I01
sS'?__BOTTOM__'
p2955
I01
sS'to__BOTTOM__'
p2956
I01
sS'FAHMI__TOP__'
p2957
I01
sS'readi__BOTTOM__'
p2958
I01
sS'start__ALL__'
p2959
I01
sS'hi__ALL__'
p2960
I01
sS'?__ALL__'
p2961
I01
sS'start__BOTTOM__'
p2962
I01
sS'hi__TOP__'
p2963
I01
sa(dp2964
S'.__BOTTOM__'
p2965
I01
sS'it__TOP__'
p2966
I01
sS'.__ALL__'
p2967
I01
sS',__TOP__'
p2968
I01
sS'it__ALL__'
p2969
I01
sS'love__ALL__'
p2970
I01
sS'me__BOTTOM__'
p2971
I01
sS',__ALL__'
p2972
I01
sS'me__ALL__'
p2973
I01
sS'insult__ALL__'
p2974
I01
sS'when__ALL__'
p2975
I01
sS'insult__BOTTOM__'
p2976
I01
sS'Secretli__TOP__'
p2977
I01
sS'they__BOTTOM__'
p2978
I01
sS'they__ALL__'
p2979
I01
sS'Secretli__ALL__'
p2980
I01
sS'love__TOP__'
p2981
I01
sS'when__BOTTOM__'
p2982
I01
sa(dp2983
S'all__ALL__'
p2984
I01
sS'all__BOTTOM__'
p2985
I01
sS'birthday__TOP__'
p2986
I01
sS'Chri__ALL__'
p2987
I01
sS'Organis__ALL__'
p2988
I01
sS'boat__BOTTOM__'
p2989
I01
sS"'__TOP__"
p2990
I01
sS"'__ALL__"
p2991
I01
sS'?__ALL__'
p2992
I01
sS'birthday__ALL__'
p2993
I01
sS'?__TOP__'
p2994
I01
sS'boat__ALL__'
p2995
I01
sS'the__ALL__'
p2996
I01
sS'the__BOTTOM__'
p2997
I01
sS'Organis__BOTTOM__'
p2998
I01
sS'Chri__TOP__'
p2999
I01
sa(dp3000
S'.__BOTTOM__'
p3001
I01
sS'all__ALL__'
p3002
I01
sS'by__BOTTOM__'
p3003
I01
sS'.__ALL__'
p3004
I01
sS'EOD__ALL__'
p3005
I01
sS'back__BOTTOM__'
p3006
I01
sS'DT3__BOTTOM__'
p3007
I01
sS'are__TOP__'
p3008
I01
sS'out__TOP__'
p3009
I01
sS'meet__BOTTOM__'
p3010
I01
sS'out__ALL__'
p3011
I01
sS'for__BOTTOM__'
p3012
I01
sS'client__BOTTOM__'
p3013
I01
sS'back__ALL__'
p3014
I01
sS'client__ALL__'
p3015
I01
sS'for__ALL__'
p3016
I01
sS'out__BOTTOM__'
p3017
I01
sS'by__ALL__'
p3018
I01
sS'EOD__BOTTOM__'
p3019
I01
sS'meet__ALL__'
p3020
I01
sS'boss__ALL__'
p3021
I01
sS'all__TOP__'
p3022
I01
sS'are__ALL__'
p3023
I01
sS'my__TOP__'
p3024
I01
sS'my__ALL__'
p3025
I01
sS'boss__TOP__'
p3026
I01
sS'DT3__ALL__'
p3027
I01
sa(dp3028
S'i__TOP__'
p3029
I01
sS'wait__ALL__'
p3030
I01
sS',__BOTTOM__'
p3031
I01
sS'everi__ALL__'
p3032
I01
sS'i__ALL__'
p3033
I01
sS'watch__BOTTOM__'
p3034
I01
sS'wait__BOTTOM__'
p3035
I01
sS'am__ALL__'
p3036
I01
sS'everi__TOP__'
p3037
I01
sS',__ALL__'
p3038
I01
sS'watch__ALL__'
p3039
I01
sS'where__TOP__'
p3040
I01
sS'am__TOP__'
p3041
I01
sS'where__ALL__'
p3042
I01
sa(dp3043
S'.__BOTTOM__'
p3044
I01
sS'to__ALL__'
p3045
I01
sS'edward__TOP__'
p3046
I01
sS'snowden__TOP__'
p3047
I01
sS'to__BOTTOM__'
p3048
I01
sS'him__ALL__'
p3049
I01
sS'Offer__ALL__'
p3050
I01
sS'to__TOP__'
p3051
I01
sS'hand__ALL__'
p3052
I01
sS'edward__ALL__'
p3053
I01
sS'u.__BOTTOM__'
p3054
I01
sS'asylum__ALL__'
p3055
I01
sS'Offer__TOP__'
p3056
I01
sS'over__ALL__'
p3057
I01
sS'him__BOTTOM__'
p3058
I01
sS'.__ALL__'
p3059
I01
sS'u.__ALL__'
p3060
I01
sS'asylum__TOP__'
p3061
I01
sS'hand__BOTTOM__'
p3062
I01
sS'snowden__ALL__'
p3063
I01
sS'over__BOTTOM__'
p3064
I01
sa(dp3065
S'adeq__ALL__'
p3066
I01
sS'a__ALL__'
p3067
I01
sS'stupid__TOP__'
p3068
I01
sS'i__ALL__'
p3069
I01
sS'thought__BOTTOM__'
p3070
I01
sS'adeq__TOP__'
p3071
I01
sS'so__ALL__'
p3072
I01
sS'a__BOTTOM__'
p3073
I01
sS'i__BOTTOM__'
p3074
I01
sS'is__ALL__'
p3075
I01
sS'bear__BOTTOM__'
p3076
I01
sS'so__TOP__'
p3077
I01
sS'bear__ALL__'
p3078
I01
sS'is__TOP__'
p3079
I01
sS'wa__ALL__'
p3080
I01
sS'wa__BOTTOM__'
p3081
I01
sS'they__BOTTOM__'
p3082
I01
sS'thought__ALL__'
p3083
I01
sS'they__ALL__'
p3084
I01
sS'stupid__ALL__'
p3085
I01
sa(dp3086
S'I__TOP__'
p3087
I01
sS'els__ALL__'
p3088
I01
sS'everyon__ALL__'
p3089
I01
sS'put__ALL__'
p3090
I01
sS'els__BOTTOM__'
p3091
I01
sS'in__ALL__'
p3092
I01
sS'the__TOP__'
p3093
I01
sS'and__ALL__'
p3094
I01
sS'crowd__ALL__'
p3095
I01
sS'crowd__BOTTOM__'
p3096
I01
sS'will__ALL__'
p3097
I01
sS'and__BOTTOM__'
p3098
I01
sS'dress__BOTTOM__'
p3099
I01
sS'best__TOP__'
p3100
I01
sS'festiv__TOP__'
p3101
I01
sS'like__ALL__'
p3102
I01
sS'best__ALL__'
p3103
I01
sS'dress__ALL__'
p3104
I01
sS'festiv__ALL__'
p3105
I01
sS'Throw__TOP__'
p3106
I01
sS'ever__ALL__'
p3107
I01
sS'Throw__ALL__'
p3108
I01
sS'ever__TOP__'
p3109
I01
sS'cop__BOTTOM__'
p3110
I01
sS'are__BOTTOM__'
p3111
I01
sS'cop__ALL__'
p3112
I01
sS'that__ALL__'
p3113
I01
sS'that__BOTTOM__'
p3114
I01
sS'everyon__BOTTOM__'
p3115
I01
sS'like__BOTTOM__'
p3116
I01
sS'are__ALL__'
p3117
I01
sS'I__ALL__'
p3118
I01
sS'put__BOTTOM__'
p3119
I01
sS'the__ALL__'
p3120
I01
sS'the__BOTTOM__'
p3121
I01
sS'will__TOP__'
p3122
I01
sS'in__BOTTOM__'
p3123
I01
sa(dp3124
S'I__TOP__'
p3125
I01
sS'have__TOP__'
p3126
I01
sS'shower__ALL__'
p3127
I01
sS'in__ALL__'
p3128
I01
sS'see__BOTTOM__'
p3129
I01
sS'will__ALL__'
p3130
I01
sS'have__ALL__'
p3131
I01
sS'Then__BOTTOM__'
p3132
I01
sS'A__TOP__'
p3133
I01
sS'shower__TOP__'
p3134
I01
sS'you__ALL__'
p3135
I01
sS'you__BOTTOM__'
p3136
I01
sS'will__BOTTOM__'
p3137
I01
sS'Then__ALL__'
p3138
I01
sS'A__ALL__'
p3139
I01
sS'i__ALL__'
p3140
I01
sS'bed__BOTTOM__'
p3141
I01
sS'in__BOTTOM__'
p3142
I01
sS'First__TOP__'
p3143
I01
sS'First__ALL__'
p3144
I01
sS'bed__ALL__'
p3145
I01
sS'I__ALL__'
p3146
I01
sS'i__BOTTOM__'
p3147
I01
sS'see__ALL__'
p3148
I01
sS'will__TOP__'
p3149
I01
sa(dp3150
S'?__TOP__'
p3151
I01
sS"n't__ALL__"
p3152
I01
sS'want__TOP__'
p3153
I01
sS'ski__ALL__'
p3154
I01
sS'do__ALL__'
p3155
I01
sS'are__ALL__'
p3156
I01
sS'sure__TOP__'
p3157
I01
sS'to__TOP__'
p3158
I01
sS"n't__TOP__"
p3159
I01
sS'sure__ALL__'
p3160
I01
sS'you__TOP__'
p3161
I01
sS'are__TOP__'
p3162
I01
sS'ski__TOP__'
p3163
I01
sS'to__ALL__'
p3164
I01
sS'you__ALL__'
p3165
I01
sS'?__ALL__'
p3166
I01
sS'want__ALL__'
p3167
I01
sS'do__TOP__'
p3168
I01
sa(dp3169
S'to__ALL__'
p3170
I01
sS'Ye__ALL__'
p3171
I01
sS'to__BOTTOM__'
p3172
I01
sS'!__BOTTOM__'
p3173
I01
sS'pretti__BOTTOM__'
p3174
I01
sS'me__BOTTOM__'
p3175
I01
sS'pretti__ALL__'
p3176
I01
sS'Come__ALL__'
p3177
I01
sS'me__ALL__'
p3178
I01
sS'Come__BOTTOM__'
p3179
I01
sS',__ALL__'
p3180
I01
sS'!__ALL__'
p3181
I01
sS'my__ALL__'
p3182
I01
sS',__BOTTOM__'
p3183
I01
sS'my__BOTTOM__'
p3184
I01
sS'Ye__TOP__'
p3185
I01
sa(dp3186
S'.__BOTTOM__'
p3187
I01
sS'Grab__ALL__'
p3188
I01
sS'.__ALL__'
p3189
I01
sS'bank__ALL__'
p3190
I01
sS'to__BOTTOM__'
p3191
I01
sS'to__ALL__'
p3192
I01
sS'Grab__TOP__'
p3193
I01
sS'2.Fli__ALL__'
p3194
I01
sS'2.Fli__BOTTOM__'
p3195
I01
sS'the__TOP__'
p3196
I01
sS'1__ALL__'
p3197
I01
sS'Ohio__ALL__'
p3198
I01
sS'the__ALL__'
p3199
I01
sS'1__TOP__'
p3200
I01
sS'.__TOP__'
p3201
I01
sS'bank__TOP__'
p3202
I01
sS'Ohio__BOTTOM__'
p3203
I01
sa(dp3204
S'i__TOP__'
p3205
I01
sS'some__TOP__'
p3206
I01
sS'will__ALL__'
p3207
I01
sS'a__BOTTOM__'
p3208
I01
sS'day__TOP__'
p3209
I01
sS'i__ALL__'
p3210
I01
sS'hurlingledgend__BOTTOM__'
p3211
I01
sS'a__ALL__'
p3212
I01
sS'be__ALL__'
p3213
I01
sS'day__ALL__'
p3214
I01
sS'some__ALL__'
p3215
I01
sS'be__BOTTOM__'
p3216
I01
sS'hurlingledgend__ALL__'
p3217
I01
sS'will__TOP__'
p3218
I01
sa(dp3219
S'&__TOP__'
p3220
I01
sS'4999__TOP__'
p3221
I01
sS'4999__ALL__'
p3222
I01
sS'easi__BOTTOM__'
p3223
I01
sS'downvot__ALL__'
p3224
I01
sS'upvot__ALL__'
p3225
I01
sS'&__ALL__'
p3226
I01
sS'downvot__TOP__'
p3227
I01
sS'3783__ALL__'
p3228
I01
sS'is__ALL__'
p3229
I01
sS'easi__ALL__'
p3230
I01
sS'Thi__BOTTOM__'
p3231
I01
sS'Thi__ALL__'
p3232
I01
sS'upvot__TOP__'
p3233
I01
sS'is__BOTTOM__'
p3234
I01
sS'3783__TOP__'
p3235
I01
sa(dp3236
S'to__ALL__'
p3237
I01
sS"n't__ALL__"
p3238
I01
sS'want__TOP__'
p3239
I01
sS'ski__ALL__'
p3240
I01
sS'then__BOTTOM__'
p3241
I01
sS'...__BOTTOM__'
p3242
I01
sS'to__TOP__'
p3243
I01
sS"n't__TOP__"
p3244
I01
sS'then__ALL__'
p3245
I01
sS'you__TOP__'
p3246
I01
sS'do__ALL__'
p3247
I01
sS'ski__TOP__'
p3248
I01
sS'...__ALL__'
p3249
I01
sS'If__ALL__'
p3250
I01
sS'you__ALL__'
p3251
I01
sS'want__ALL__'
p3252
I01
sS'do__TOP__'
p3253
I01
sS'If__TOP__'
p3254
I01
sa(dp3255
S'els__BOTTOM__'
p3256
I01
sS'but__ALL__'
p3257
I01
sS',__BOTTOM__'
p3258
I01
sS'to__BOTTOM__'
p3259
I01
sS':__ALL__'
p3260
I01
sS'fix__ALL__'
p3261
I01
sS'Allow__ALL__'
p3262
I01
sS'...__ALL__'
p3263
I01
sS'car__ALL__'
p3264
I01
sS'break__BOTTOM__'
p3265
I01
sS'mwahahahaha__ALL__'
p3266
I01
sS'mwahahahaha__BOTTOM__'
p3267
I01
sS'&__ALL__'
p3268
I01
sS'it__ALL__'
p3269
I01
sS'els__ALL__'
p3270
I01
sS'fix__TOP__'
p3271
I01
sS'it__TOP__'
p3272
I01
sS"'s__TOP__"
p3273
I01
sS'logic__TOP__'
p3274
I01
sS'allow__ALL__'
p3275
I01
sS'Allow__BOTTOM__'
p3276
I01
sS'!__BOTTOM__'
p3277
I01
sS'allow__TOP__'
p3278
I01
sS'more__ALL__'
p3279
I01
sS'but__BOTTOM__'
p3280
I01
sS',__ALL__'
p3281
I01
sS'logic__ALL__'
p3282
I01
sS'wors__ALL__'
p3283
I01
sS'&__TOP__'
p3284
I01
sS'someth__TOP__'
p3285
I01
sS'someth__ALL__'
p3286
I01
sS'break__ALL__'
p3287
I01
sS'more__BOTTOM__'
p3288
I01
sS'car__TOP__'
p3289
I01
sS'someth__BOTTOM__'
p3290
I01
sS'when__ALL__'
p3291
I01
sS'...__TOP__'
p3292
I01
sS'when__TOP__'
p3293
I01
sS'wors__BOTTOM__'
p3294
I01
sS'to__ALL__'
p3295
I01
sS'break__TOP__'
p3296
I01
sS'my__TOP__'
p3297
I01
sS'to__TOP__'
p3298
I01
sS'!__ALL__'
p3299
I01
sS'my__ALL__'
p3300
I01
sS"'s__ALL__"
p3301
I01
sS':__TOP__'
p3302
I01
sa(dp3303
S'see__ALL__'
p3304
I01
sS'we__ALL__'
p3305
I01
sS'boy__BOTTOM__'
p3306
I01
sS'about__TOP__'
p3307
I01
sS'boy__ALL__'
p3308
I01
sS'HAHAHAHAHAHAHAHAHAHAHAHAHAHAHAHAHAHAHAHAHA__BOTTOM__'
p3309
I01
sS'about__ALL__'
p3310
I01
sS'that__ALL__'
p3311
I01
sS'jon__ALL__'
p3312
I01
sS'will__ALL__'
p3313
I01
sS'see__TOP__'
p3314
I01
sS'will__TOP__'
p3315
I01
sS'HAHAHAHAHAHAHAHAHAHAHAHAHAHAHAHAHAHAHAHAHA__ALL__'
p3316
I01
sS'we__TOP__'
p3317
I01
sS'jon__BOTTOM__'
p3318
I01
sS'that__TOP__'
p3319
I01
sa(dp3320
S'``__ALL__'
p3321
I01
sS'like__TOP__'
p3322
I01
sS'a__TOP__'
p3323
I01
sS'OBAMACAR__ALL__'
p3324
I01
sS'page__TOP__'
p3325
I01
sS'and__ALL__'
p3326
I01
sS'oh__TOP__'
p3327
I01
sS'and__TOP__'
p3328
I01
sS'like__ALL__'
p3329
I01
sS'a__ALL__'
p3330
I01
sS'!__BOTTOM__'
p3331
I01
sS"''__ALL__"
p3332
I01
sS'progress__ALL__'
p3333
I01
sS"''__BOTTOM__"
p3334
I01
sS'for__ALL__'
p3335
I01
sS'LOL__ALL__'
p3336
I01
sS'liber__TOP__'
p3337
I01
sS'liber__ALL__'
p3338
I01
sS'OBAMACAR__BOTTOM__'
p3339
I01
sS'for__TOP__'
p3340
I01
sS'``__BOTTOM__'
p3341
I01
sS'REPEAL__BOTTOM__'
p3342
I01
sS'!__ALL__'
p3343
I01
sS'LOL__BOTTOM__'
p3344
I01
sS'mind__ALL__'
p3345
I01
sS'REPEAL__ALL__'
p3346
I01
sS'mind__TOP__'
p3347
I01
sS'page__ALL__'
p3348
I01
sS'progress__TOP__'
p3349
I01
sS'oh__ALL__'
p3350
I01
sa(dp3351
S'day__TOP__'
p3352
I01
sS'day__ALL__'
p3353
I01
sS'everi__BOTTOM__'
p3354
I01
sS'9:30__ALL__'
p3355
I01
sS'at__ALL__'
p3356
I01
sS'meet__BOTTOM__'
p3357
I01
sS'9:30__TOP__'
p3358
I01
sS'compulsori__BOTTOM__'
p3359
I01
sS'compulsori__ALL__'
p3360
I01
sS'8:00__BOTTOM__'
p3361
I01
sS'start__TOP__'
p3362
I01
sS'tuesday__ALL__'
p3363
I01
sS'work__TOP__'
p3364
I01
sS'everi__ALL__'
p3365
I01
sS'set__ALL__'
p3366
I01
sS'8:00__ALL__'
p3367
I01
sS'start__ALL__'
p3368
I01
sS'meet__ALL__'
p3369
I01
sS'set__TOP__'
p3370
I01
sS'to__ALL__'
p3371
I01
sS'to__TOP__'
p3372
I01
sS'tuesday__BOTTOM__'
p3373
I01
sS'work__ALL__'
p3374
I01
sS'at__TOP__'
p3375
I01
sS'at__BOTTOM__'
p3376
I01
sa(dp3377
S'I__TOP__'
p3378
I01
sS'can__ALL__'
p3379
I01
sS'world__BOTTOM__'
p3380
I01
sS'the__TOP__'
p3381
I01
sS'Then__BOTTOM__'
p3382
I01
sS'!__BOTTOM__'
p3383
I01
sS'trash__TOP__'
p3384
I01
sS'can__TOP__'
p3385
I01
sS'trash__ALL__'
p3386
I01
sS'conquer__BOTTOM__'
p3387
I01
sS'Then__ALL__'
p3388
I01
sS',__TOP__'
p3389
I01
sS'conquer__ALL__'
p3390
I01
sS'conquer__TOP__'
p3391
I01
sS',__ALL__'
p3392
I01
sS'I__BOTTOM__'
p3393
I01
sS',__BOTTOM__'
p3394
I01
sS'world__ALL__'
p3395
I01
sS'First__TOP__'
p3396
I01
sS'!__ALL__'
p3397
I01
sS'First__ALL__'
p3398
I01
sS'I__ALL__'
p3399
I01
sS'the__ALL__'
p3400
I01
sS'the__BOTTOM__'
p3401
I01
sa(dp3402
S'I__TOP__'
p3403
I01
sS'year__ALL__'
p3404
I01
sS'year__BOTTOM__'
p3405
I01
sS'for__BOTTOM__'
p3406
I01
sS'in__TOP__'
p3407
I01
sS'wa__TOP__'
p3408
I01
sS'I__ALL__'
p3409
I01
sS'vacat__BOTTOM__'
p3410
I01
sS'Savannah__ALL__'
p3411
I01
sS'in__ALL__'
p3412
I01
sS'vacat__ALL__'
p3413
I01
sS'Last__BOTTOM__'
p3414
I01
sS'wa__ALL__'
p3415
I01
sS'Savannah__TOP__'
p3416
I01
sS'for__ALL__'
p3417
I01
sS'Last__ALL__'
p3418
I01
sa(dp3419
S'again__ALL__'
p3420
I01
sS'open__ALL__'
p3421
I01
sS'muah__ALL__'
p3422
I01
sS'open__TOP__'
p3423
I01
sS'left__TOP__'
p3424
I01
sS'Jessica__ALL__'
p3425
I01
sS'left__ALL__'
p3426
I01
sS'again__TOP__'
p3427
I01
sS'muah__BOTTOM__'
p3428
I01
sS'Jessica__TOP__'
p3429
I01
sS'facebook__TOP__'
p3430
I01
sS'facebook__ALL__'
p3431
I01
sa(dp3432
S'!__ALL__'
p3433
I01
sS'ha__ALL__'
p3434
I01
sS'ha__TOP__'
p3435
I01
sS'!__TOP__'
p3436
I01
sS'Ha__TOP__'
p3437
I01
sS'Ha__ALL__'
p3438
I01
sa(dp3439
S'anderlecht__BOTTOM__'
p3440
I01
sS'anderlecht__ALL__'
p3441
I01
sS'we__ALL__'
p3442
I01
sS'beat__ALL__'
p3443
I01
sS'year__TOP__'
p3444
I01
sS'beat__BOTTOM__'
p3445
I01
sS'year__ALL__'
p3446
I01
sS'we__BOTTOM__'
p3447
I01
sS'Next__TOP__'
p3448
I01
sS'Next__ALL__'
p3449
I01
sa(dp3450
S'homemak__TOP__'
p3451
I01
sS'free__BOTTOM__'
p3452
I01
sS'free__ALL__'
p3453
I01
sS'noth__ALL__'
p3454
I01
sS'noth__BOTTOM__'
p3455
I01
sS'for__ALL__'
p3456
I01
sS'homemak__ALL__'
p3457
I01
sS'for__BOTTOM__'
p3458
I01
sa(dp3459
S'to__BOTTOM__'
p3460
I01
sS'get__BOTTOM__'
p3461
I01
sS'wa__BOTTOM__'
p3462
I01
sS'see__TOP__'
p3463
I01
sS'?__TOP__'
p3464
I01
sS"n't__ALL__"
p3465
I01
sS'get__ALL__'
p3466
I01
sS'hard__BOTTOM__'
p3467
I01
sS'it__BOTTOM__'
p3468
I01
sS'wa__ALL__'
p3469
I01
sS"n't__BOTTOM__"
p3470
I01
sS',__ALL__'
p3471
I01
sS'that__ALL__'
p3472
I01
sS'that__BOTTOM__'
p3473
I01
sS'it__ALL__'
p3474
I01
sS',__BOTTOM__'
p3475
I01
sS'hard__ALL__'
p3476
I01
sS'to__ALL__'
p3477
I01
sS'?__ALL__'
p3478
I01
sS'?__BOTTOM__'
p3479
I01
sS'see__ALL__'
p3480
I01
sS'front__ALL__'
p3481
I01
sS'page__ALL__'
p3482
I01
sS'the__ALL__'
p3483
I01
sS'the__BOTTOM__'
p3484
I01
sS'page__BOTTOM__'
p3485
I01
sS'front__BOTTOM__'
p3486
I01
sa(dp3487
S'to__ALL__'
p3488
I01
sS'everybodi__ALL__'
p3489
I01
sS'to__BOTTOM__'
p3490
I01
sS'excel__TOP__'
p3491
I01
sS'everybodi__BOTTOM__'
p3492
I01
sS'easi__BOTTOM__'
p3493
I01
sS'rememb__ALL__'
p3494
I01
sS'thi__ALL__'
p3495
I01
sS'think__BOTTOM__'
p3496
I01
sS'be__ALL__'
p3497
I01
sS'easi__ALL__'
p3498
I01
sS'thi__BOTTOM__'
p3499
I01
sS'be__BOTTOM__'
p3500
I01
sS'rememb__BOTTOM__'
p3501
I01
sS'excel__ALL__'
p3502
I01
sS'will__BOTTOM__'
p3503
I01
sS'will__ALL__'
p3504
I01
sS'think__ALL__'
p3505
I01
sa(dp3506
S'instantli__ALL__'
p3507
I01
sS'so__ALL__'
p3508
I01
sS"'ll__BOTTOM__"
p3509
I01
sS'But__BOTTOM__'
p3510
I01
sS'out__TOP__'
p3511
I01
sS'pull__TOP__'
p3512
I01
sS'He__ALL__'
p3513
I01
sS'much__BOTTOM__'
p3514
I01
sS'out__ALL__'
p3515
I01
sS'look__ALL__'
p3516
I01
sS'But__ALL__'
p3517
I01
sS'cut__ALL__'
p3518
I01
sS'so__BOTTOM__'
p3519
I01
sS'it__BOTTOM__'
p3520
I01
sS'cut__BOTTOM__'
p3521
I01
sS'part__BOTTOM__'
p3522
I01
sS'wors__ALL__'
p3523
I01
sS'out__BOTTOM__'
p3524
I01
sS'wa__ALL__'
p3525
I01
sS"'ll__ALL__"
p3526
I01
sS'I__BOTTOM__'
p3527
I01
sS'that__ALL__'
p3528
I01
sS'that__BOTTOM__'
p3529
I01
sS'it__ALL__'
p3530
I01
sS'wors__BOTTOM__'
p3531
I01
sS'instantli__TOP__'
p3532
I01
sS'part__ALL__'
p3533
I01
sS'look__BOTTOM__'
p3534
I01
sS'wa__TOP__'
p3535
I01
sS'I__ALL__'
p3536
I01
sS'much__ALL__'
p3537
I01
sS'pull__ALL__'
p3538
I01
sS'He__TOP__'
p3539
I01
sa(dp3540
S'nephew__ALL__'
p3541
I01
sS'easter__ALL__'
p3542
I01
sS'niec__TOP__'
p3543
I01
sS'in__ALL__'
p3544
I01
sS'the__TOP__'
p3545
I01
sS'sure__ALL__'
p3546
I01
sS'and__ALL__'
p3547
I01
sS'onli__ALL__'
p3548
I01
sS'niec__ALL__'
p3549
I01
sS'and__TOP__'
p3550
I01
sS'into__ALL__'
p3551
I01
sS'use__BOTTOM__'
p3552
I01
sS'egss__TOP__'
p3553
I01
sS'sure__BOTTOM__'
p3554
I01
sS'plant__BOTTOM__'
p3555
I01
sS'backyard__TOP__'
p3556
I01
sS'backyard__ALL__'
p3557
I01
sS'that__BOTTOM__'
p3558
I01
sS'for__ALL__'
p3559
I01
sS'color__ALL__'
p3560
I01
sS'made__BOTTOM__'
p3561
I01
sS'Hide__ALL__'
p3562
I01
sS'I__BOTTOM__'
p3563
I01
sS'life__ALL__'
p3564
I01
sS'that__ALL__'
p3565
I01
sS'for__TOP__'
p3566
I01
sS'nephew__TOP__'
p3567
I01
sS'made__ALL__'
p3568
I01
sS'onli__BOTTOM__'
p3569
I01
sS'Hide__TOP__'
p3570
I01
sS'use__ALL__'
p3571
I01
sS'into__BOTTOM__'
p3572
I01
sS'in__TOP__'
p3573
I01
sS'egss__ALL__'
p3574
I01
sS'I__ALL__'
p3575
I01
sS'color__BOTTOM__'
p3576
I01
sS'plant__ALL__'
p3577
I01
sS'the__ALL__'
p3578
I01
sS'the__BOTTOM__'
p3579
I01
sS'easter__TOP__'
p3580
I01
sS'blend__BOTTOM__'
p3581
I01
sS'life__BOTTOM__'
p3582
I01
sS'blend__ALL__'
p3583
I01
sa(dp3584
S'I__TOP__'
p3585
I01
sS'violat__ALL__'
p3586
I01
sS'wa__ALL__'
p3587
I01
sS'wa__BOTTOM__'
p3588
I01
sS'I__ALL__'
p3589
I01
sS'violat__TOP__'
p3590
I01
sS'sexual__ALL__'
p3591
I01
sS'unconsci__ALL__'
p3592
I01
sS'Scott__ALL__'
p3593
I01
sS'unconsci__BOTTOM__'
p3594
I01
sS'while__ALL__'
p3595
I01
sS'while__BOTTOM__'
p3596
I01
sS'sexual__TOP__'
p3597
I01
sS'he__ALL__'
p3598
I01
sS'he__BOTTOM__'
p3599
I01
sS'Scott__TOP__'
p3600
I01
sa(dp3601
S'to__ALL__'
p3602
I01
sS'need__BOTTOM__'
p3603
I01
sS'to__BOTTOM__'
p3604
I01
sS'get__ALL__'
p3605
I01
sS'get__BOTTOM__'
p3606
I01
sS'Now__BOTTOM__'
p3607
I01
sS'we__ALL__'
p3608
I01
sS'Now__ALL__'
p3609
I01
sS'we__BOTTOM__'
p3610
I01
sS'of__ALL__'
p3611
I01
sS'rid__ALL__'
p3612
I01
sS'rid__BOTTOM__'
p3613
I01
sS'need__ALL__'
p3614
I01
sS'Novel__BOTTOM__'
p3615
I01
sS'of__BOTTOM__'
p3616
I01
sS'Novel__ALL__'
p3617
I01
sa(dp3618
S'think__TOP__'
p3619
I01
sS'think__ALL__'
p3620
I01
sS'about__ALL__'
p3621
I01
sS'day__TOP__'
p3622
I01
sS"'ll__BOTTOM__"
p3623
I01
sS'day__ALL__'
p3624
I01
sS'after__ALL__'
p3625
I01
sS'walk__ALL__'
p3626
I01
sS'We__ALL__'
p3627
I01
sS'So__ALL__'
p3628
I01
sS'can__TOP__'
p3629
I01
sS'We__BOTTOM__'
p3630
I01
sS'can__ALL__'
p3631
I01
sS'you__ALL__'
p3632
I01
sS'leg__ALL__'
p3633
I01
sS'about__BOTTOM__'
p3634
I01
sS'walk__TOP__'
p3635
I01
sS"'ll__ALL__"
p3636
I01
sS'you__TOP__'
p3637
I01
sS'So__TOP__'
p3638
I01
sS'that__ALL__'
p3639
I01
sS'that__BOTTOM__'
p3640
I01
sS'after__TOP__'
p3641
I01
sS'see__BOTTOM__'
p3642
I01
sS'leg__TOP__'
p3643
I01
sS'see__ALL__'
p3644
I01
sa(dp3645
S'kid__BOTTOM__'
p3646
I01
sS'littl__ALL__'
p3647
I01
sS'candi__ALL__'
p3648
I01
sS'candi__BOTTOM__'
p3649
I01
sS'some__ALL__'
p3650
I01
sS'Want__BOTTOM__'
p3651
I01
sS'kid__ALL__'
p3652
I01
sS'Want__ALL__'
p3653
I01
sS'littl__BOTTOM__'
p3654
I01
sS'some__BOTTOM__'
p3655
I01
sa(dp3656
S',__TOP__'
p3657
I01
sS'look__BOTTOM__'
p3658
I01
sS'window__BOTTOM__'
p3659
I01
sS'through__ALL__'
p3660
I01
sS'look__ALL__'
p3661
I01
sS'window__ALL__'
p3662
I01
sS'ye__ALL__'
p3663
I01
sS'Ye__ALL__'
p3664
I01
sS'can__BOTTOM__'
p3665
I01
sS',__ALL__'
p3666
I01
sS'...__ALL__'
p3667
I01
sS'my__ALL__'
p3668
I01
sS'can__ALL__'
p3669
I01
sS'...__TOP__'
p3670
I01
sS'my__BOTTOM__'
p3671
I01
sS'You__ALL__'
p3672
I01
sS'You__BOTTOM__'
p3673
I01
sS'Ye__TOP__'
p3674
I01
sS'through__BOTTOM__'
p3675
I01
sS'ye__TOP__'
p3676
I01
sa(dp3677
S'make__ALL__'
p3678
I01
sS'I__TOP__'
p3679
I01
sS'to__BOTTOM__'
p3680
I01
sS'confess__TOP__'
p3681
I01
sS'unpopular__ALL__'
p3682
I01
sS'a__TOP__'
p3683
I01
sS'same__TOP__'
p3684
I01
sS'unpopular__TOP__'
p3685
I01
sS'the__TOP__'
p3686
I01
sS'thing__ALL__'
p3687
I01
sS'and__ALL__'
p3688
I01
sS'will__ALL__'
p3689
I01
sS'one__ALL__'
p3690
I01
sS'have__ALL__'
p3691
I01
sS'and__TOP__'
p3692
I01
sS'confess__ALL__'
p3693
I01
sS'a__ALL__'
p3694
I01
sS'upvot__ALL__'
p3695
I01
sS'about__TOP__'
p3696
I01
sS'an__TOP__'
p3697
I01
sS'one__BOTTOM__'
p3698
I01
sS'about__ALL__'
p3699
I01
sS'bear__ALL__'
p3700
I01
sS'them__ALL__'
p3701
I01
sS'have__BOTTOM__'
p3702
I01
sS'will__BOTTOM__'
p3703
I01
sS'of__BOTTOM__'
p3704
I01
sS'opinion__ALL__'
p3705
I01
sS'upvot__BOTTOM__'
p3706
I01
sS'an__ALL__'
p3707
I01
sS"'ll__ALL__"
p3708
I01
sS'the__ALL__'
p3709
I01
sS'same__ALL__'
p3710
I01
sS'I__ALL__'
p3711
I01
sS'of__ALL__'
p3712
I01
sS'Reddit__ALL__'
p3713
I01
sS'puffin__ALL__'
p3714
I01
sS"'ll__TOP__"
p3715
I01
sS'bear__TOP__'
p3716
I01
sS'opinion__TOP__'
p3717
I01
sS'them__BOTTOM__'
p3718
I01
sS'Reddit__BOTTOM__'
p3719
I01
sS'to__ALL__'
p3720
I01
sS'make__TOP__'
p3721
I01
sS'puffin__TOP__'
p3722
I01
sS'thing__TOP__'
p3723
I01
sa(dp3724
S'I__TOP__'
p3725
I01
sS'wa__ALL__'
p3726
I01
sS'born__TOP__'
p3727
I01
sS'wa__TOP__'
p3728
I01
sS'I__ALL__'
p3729
I01
sS'born__ALL__'
p3730
I01
sS'readi__ALL__'
p3731
I01
sS'readi__TOP__'
p3732
I01
sa(dp3733
S'do__BOTTOM__'
p3734
I01
sS'make__ALL__'
p3735
I01
sS'bother__TOP__'
p3736
I01
sS'make__BOTTOM__'
p3737
I01
sS'bother__ALL__'
p3738
I01
sS'so__ALL__'
p3739
I01
sS"'ll__BOTTOM__"
p3740
I01
sS'account__TOP__'
p3741
I01
sS'out__TOP__'
p3742
I01
sS'log__ALL__'
p3743
I01
sS'Oh__ALL__'
p3744
I01
sS'it__TOP__'
p3745
I01
sS"n't__ALL__"
p3746
I01
sS'never__BOTTOM__'
p3747
I01
sS'quit__BOTTOM__'
p3748
I01
sS'sure__BOTTOM__'
p3749
I01
sS"n't__TOP__"
p3750
I01
sS'sure__ALL__'
p3751
I01
sS'?__TOP__'
p3752
I01
sS'so__TOP__'
p3753
I01
sS'Oh__TOP__'
p3754
I01
sS'you__ALL__'
p3755
I01
sS'of__ALL__'
p3756
I01
sS'out__ALL__'
p3757
I01
sS'quit__ALL__'
p3758
I01
sS'log__TOP__'
p3759
I01
sS'i__ALL__'
p3760
I01
sS"'ll__ALL__"
p3761
I01
sS'I__BOTTOM__'
p3762
I01
sS'you__TOP__'
p3763
I01
sS'do__ALL__'
p3764
I01
sS'when__ALL__'
p3765
I01
sS'of__TOP__'
p3766
I01
sS'when__TOP__'
p3767
I01
sS'do__TOP__'
p3768
I01
sS'i__TOP__'
p3769
I01
sS'?__ALL__'
p3770
I01
sS'never__ALL__'
p3771
I01
sS'my__TOP__'
p3772
I01
sS'i__BOTTOM__'
p3773
I01
sS'my__ALL__'
p3774
I01
sS'account__ALL__'
p3775
I01
sS'I__ALL__'
p3776
I01
sS'it__ALL__'
p3777
I01
sa(dp3778
S'Ohhhh__ALL__'
p3779
I01
sS'Ohhhh__BOTTOM__'
p3780
I01
sS'like__ALL__'
p3781
I01
sS'griot__BOTTOM__'
p3782
I01
sS'like__TOP__'
p3783
I01
sS'Kelissa__ALL__'
p3784
I01
sS'be__ALL__'
p3785
I01
sS'griot__ALL__'
p3786
I01
sS'Kelissa__TOP__'
p3787
I01
sS'be__TOP__'
p3788
I01
sa(dp3789
S'thirst__BOTTOM__'
p3790
I01
sS'Yess__ALL__'
p3791
I01
sS'surviv__ALL__'
p3792
I01
sS'like__ALL__'
p3793
I01
sS'like__TOP__'
p3794
I01
sS'I__ALL__'
p3795
I01
sS'thirst__ALL__'
p3796
I01
sS'Yess__BOTTOM__'
p3797
I01
sS'be__ALL__'
p3798
I01
sS'Marc__ALL__'
p3799
I01
sS'surviv__BOTTOM__'
p3800
I01
sS'the__ALL__'
p3801
I01
sS'the__BOTTOM__'
p3802
I01
sS'I__BOTTOM__'
p3803
I01
sS'be__TOP__'
p3804
I01
sS'Marc__TOP__'
p3805
I01
sa(dp3806
S'reward__BOTTOM__'
p3807
I01
sS'.__BOTTOM__'
p3808
I01
sS'I__TOP__'
p3809
I01
sS'.__ALL__'
p3810
I01
sS'thi__TOP__'
p3811
I01
sS"''__TOP__"
p3812
I01
sS'``__ALL__'
p3813
I01
sS'in__ALL__'
p3814
I01
sS'the__TOP__'
p3815
I01
sS'and__ALL__'
p3816
I01
sS'will__ALL__'
p3817
I01
sS'and__BOTTOM__'
p3818
I01
sS'``__TOP__'
p3819
I01
sS'then__ALL__'
p3820
I01
sS"''__ALL__"
p3821
I01
sS'sink__ALL__'
p3822
I01
sS'thi__ALL__'
p3823
I01
sS'know__ALL__'
p3824
I01
sS'thi__BOTTOM__'
p3825
I01
sS'you__ALL__'
p3826
I01
sS'everyon__TOP__'
p3827
I01
sS'let__BOTTOM__'
p3828
I01
sS'If__TOP__'
p3829
I01
sS'everyon__ALL__'
p3830
I01
sS'then__BOTTOM__'
p3831
I01
sS'downvot__ALL__'
p3832
I01
sS"'ll__ALL__"
p3833
I01
sS'I__BOTTOM__'
p3834
I01
sS'you__TOP__'
p3835
I01
sS'sink__BOTTOM__'
p3836
I01
sS'reward__ALL__'
p3837
I01
sS'in__BOTTOM__'
p3838
I01
sS'If__ALL__'
p3839
I01
sS'imag__TOP__'
p3840
I01
sS'know__TOP__'
p3841
I01
sS'let__ALL__'
p3842
I01
sS'imag__ALL__'
p3843
I01
sS'post__ALL__'
p3844
I01
sS'will__BOTTOM__'
p3845
I01
sS'just__BOTTOM__'
p3846
I01
sS"'ll__TOP__"
p3847
I01
sS'just__ALL__'
p3848
I01
sS'downvot__TOP__'
p3849
I01
sS'is__ALL__'
p3850
I01
sS'is__TOP__'
p3851
I01
sS'post__BOTTOM__'
p3852
I01
sS'the__ALL__'
p3853
I01
sS'the__BOTTOM__'
p3854
I01
sS'I__ALL__'
p3855
I01
sa(dp3856
S',__TOP__'
p3857
I01
sS'yess__ALL__'
p3858
I01
sS'offf__ALL__'
p3859
I01
sS'yess__TOP__'
p3860
I01
sS'it__TOP__'
p3861
I01
sS',__ALL__'
p3862
I01
sS'offf__TOP__'
p3863
I01
sS'll__ALL__'
p3864
I01
sS'take__ALL__'
p3865
I01
sS'll__TOP__'
p3866
I01
sS'it__ALL__'
p3867
I01
sS'miss__ALL__'
p3868
I01
sS'Luscomb__ALL__'
p3869
I01
sS'take__TOP__'
p3870
I01
sS'miss__BOTTOM__'
p3871
I01
sS'Luscomb__BOTTOM__'
p3872
I01
sa(dp3873
S'ye__ALL__'
p3874
I01
sS'more__ALL__'
p3875
I01
sS'me__BOTTOM__'
p3876
I01
sS'more__BOTTOM__'
p3877
I01
sS'me__ALL__'
p3878
I01
sS'ye__TOP__'
p3879
I01
sS'greet__ALL__'
p3880
I01
sS'greet__BOTTOM__'
p3881
I01
sa(dp3882
S'make__ALL__'
p3883
I01
sS'all__BOTTOM__'
p3884
I01
sS'make__BOTTOM__'
p3885
I01
sS'to__BOTTOM__'
p3886
I01
sS'we__ALL__'
p3887
I01
sS'can__ALL__'
p3888
I01
sS'a__TOP__'
p3889
I01
sS'charact__ALL__'
p3890
I01
sS'new__ALL__'
p3891
I01
sS'releas__TOP__'
p3892
I01
sS'fun__BOTTOM__'
p3893
I01
sS'the__TOP__'
p3894
I01
sS'Affleck__TOP__'
p3895
I01
sS'fals__ALL__'
p3896
I01
sS'releas__ALL__'
p3897
I01
sS'Ben__ALL__'
p3898
I01
sS'say__TOP__'
p3899
I01
sS'announc__ALL__'
p3900
I01
sS'press__TOP__'
p3901
I01
sS'Batman__TOP__'
p3902
I01
sS'charact__BOTTOM__'
p3903
I01
sS'say__ALL__'
p3904
I01
sS'fals__TOP__'
p3905
I01
sS'Then__BOTTOM__'
p3906
I01
sS'...__ALL__'
p3907
I01
sS'can__BOTTOM__'
p3908
I01
sS'Batman__ALL__'
p3909
I01
sS'of__ALL__'
p3910
I01
sS'a__ALL__'
p3911
I01
sS'Then__ALL__'
p3912
I01
sS'of__BOTTOM__'
p3913
I01
sS'celebr__ALL__'
p3914
I01
sS'actual__ALL__'
p3915
I01
sS'an__ALL__'
p3916
I01
sS'Ben__TOP__'
p3917
I01
sS"'s__TOP__"
p3918
I01
sS'play__ALL__'
p3919
I01
sS'the__ALL__'
p3920
I01
sS'when__ALL__'
p3921
I01
sS'...__TOP__'
p3922
I01
sS'actual__BOTTOM__'
p3923
I01
sS'Let__TOP__'
p3924
I01
sS'announc__BOTTOM__'
p3925
I01
sS'is__BOTTOM__'
p3926
I01
sS'to__ALL__'
p3927
I01
sS'jackass__ALL__'
p3928
I01
sS'Affleck__ALL__'
p3929
I01
sS'fun__ALL__'
p3930
I01
sS'an__BOTTOM__'
p3931
I01
sS'is__ALL__'
p3932
I01
sS'actor__BOTTOM__'
p3933
I01
sS'celebr__BOTTOM__'
p3934
I01
sS'press__ALL__'
p3935
I01
sS'play__BOTTOM__'
p3936
I01
sS'is__TOP__'
p3937
I01
sS'actor__ALL__'
p3938
I01
sS'all__ALL__'
p3939
I01
sS'make__TOP__'
p3940
I01
sS'the__BOTTOM__'
p3941
I01
sS"'s__ALL__"
p3942
I01
sS'when__BOTTOM__'
p3943
I01
sS'jackass__BOTTOM__'
p3944
I01
sS'new__TOP__'
p3945
I01
sS'Let__ALL__'
p3946
I01
sS'we__BOTTOM__'
p3947
I01
sa(dp3948
S'plz__ALL__'
p3949
I01
sS'Clueseau__BOTTOM__'
p3950
I01
sS'FaceTim__TOP__'
p3951
I01
sS'with__TOP__'
p3952
I01
sS'plz__BOTTOM__'
p3953
I01
sS'with__ALL__'
p3954
I01
sS'me__ALL__'
p3955
I01
sS'Clueseau__ALL__'
p3956
I01
sS'FaceTim__ALL__'
p3957
I01
sS'me__TOP__'
p3958
I01
sa(dp3959
S'to__ALL__'
p3960
I01
sS'am__ALL__'
p3961
I01
sS'Muhahahahaha__ALL__'
p3962
I01
sS'fat__ALL__'
p3963
I01
sS'for__BOTTOM__'
p3964
I01
sS'to__BOTTOM__'
p3965
I01
sS'am__BOTTOM__'
p3966
I01
sS'too__ALL__'
p3967
I01
sS'I__ALL__'
p3968
I01
sS'now__BOTTOM__'
p3969
I01
sS'fat__BOTTOM__'
p3970
I01
sS'too__BOTTOM__'
p3971
I01
sS'I__BOTTOM__'
p3972
I01
sS'move__BOTTOM__'
p3973
I01
sS'now__ALL__'
p3974
I01
sS'move__ALL__'
p3975
I01
sS'you__ALL__'
p3976
I01
sS'you__BOTTOM__'
p3977
I01
sS'Muhahahahaha__TOP__'
p3978
I01
sS'for__ALL__'
p3979
I01
sa(dp3980
S'all__ALL__'
p3981
I01
sS'Ye__ALL__'
p3982
I01
sS'put__ALL__'
p3983
I01
sS'track__ALL__'
p3984
I01
sS'the__TOP__'
p3985
I01
sS'will__ALL__'
p3986
I01
sS'In__ALL__'
p3987
I01
sS'core__ALL__'
p3988
I01
sS'use__BOTTOM__'
p3989
I01
sS"'s__TOP__"
p3990
I01
sS'never__BOTTOM__'
p3991
I01
sS'put__TOP__'
p3992
I01
sS'track__BOTTOM__'
p3993
I01
sS'In__BOTTOM__'
p3994
I01
sS'will__BOTTOM__'
p3995
I01
sS'RN__ALL__'
p3996
I01
sS',__TOP__'
p3997
I01
sS'RN__TOP__'
p3998
I01
sS'core__BOTTOM__'
p3999
I01
sS',__ALL__'
p4000
I01
sS'that__ALL__'
p4001
I01
sS'that__BOTTOM__'
p4002
I01
sS'they__ALL__'
p4003
I01
sS"'s__ALL__"
p4004
I01
sS'use__ALL__'
p4005
I01
sS'a__BOTTOM__'
p4006
I01
sS'all__TOP__'
p4007
I01
sS'never__ALL__'
p4008
I01
sS'a__ALL__'
p4009
I01
sS'the__ALL__'
p4010
I01
sS'they__BOTTOM__'
p4011
I01
sS'Ye__TOP__'
p4012
I01
sa(dp4013
S'fake__ALL__'
p4014
I01
sS'which__BOTTOM__'
p4015
I01
sS'to__BOTTOM__'
p4016
I01
sS'fake__TOP__'
p4017
I01
sS'say__BOTTOM__'
p4018
I01
sS'Suggest__TOP__'
p4019
I01
sS'is__ALL__'
p4020
I01
sS"n't__ALL__"
p4021
I01
sS'Suggest__ALL__'
p4022
I01
sS'articl__TOP__'
p4023
I01
sS'upvot__ALL__'
p4024
I01
sS'news__TOP__'
p4025
I01
sS'one__BOTTOM__'
p4026
I01
sS'Do__BOTTOM__'
p4027
I01
sS'upvot__TOP__'
p4028
I01
sS'upvot__BOTTOM__'
p4029
I01
sS"n't__BOTTOM__"
p4030
I01
sS'which__ALL__'
p4031
I01
sS'articl__ALL__'
p4032
I01
sS'is__BOTTOM__'
p4033
I01
sS'to__ALL__'
p4034
I01
sS'fake__BOTTOM__'
p4035
I01
sS'one__ALL__'
p4036
I01
sS'say__ALL__'
p4037
I01
sS'Do__ALL__'
p4038
I01
sS'news__ALL__'
p4039
I01
sS'the__ALL__'
p4040
I01
sS'the__BOTTOM__'
p4041
I01
sa(dp4042
S'.__BOTTOM__'
p4043
I01
sS'make__ALL__'
p4044
I01
sS'I__TOP__'
p4045
I01
sS'.__ALL__'
p4046
I01
sS'make__BOTTOM__'
p4047
I01
sS'to__BOTTOM__'
p4048
I01
sS'post__TOP__'
p4049
I01
sS'a__TOP__'
p4050
I01
sS"'ll__BOTTOM__"
p4051
I01
sS'put__ALL__'
p4052
I01
sS'post__ALL__'
p4053
I01
sS'and__ALL__'
p4054
I01
sS'and__TOP__'
p4055
I01
sS'search__ALL__'
p4056
I01
sS'it__TOP__'
p4057
I01
sS'a__ALL__'
p4058
I01
sS'origin__BOTTOM__'
p4059
I01
sS'for__BOTTOM__'
p4060
I01
sS'Then__BOTTOM__'
p4061
I01
sS'on__ALL__'
p4062
I01
sS'peopl__ALL__'
p4063
I01
sS'upvot__ALL__'
p4064
I01
sS'[__ALL__'
p4065
I01
sS'Then__ALL__'
p4066
I01
sS'search__BOTTOM__'
p4067
I01
sS'for__ALL__'
p4068
I01
sS'funni__TOP__'
p4069
I01
sS'origin__ALL__'
p4070
I01
sS'upvot__TOP__'
p4071
I01
sS'end__BOTTOM__'
p4072
I01
sS']__ALL__'
p4073
I01
sS'get__ALL__'
p4074
I01
sS'FIX__BOTTOM__'
p4075
I01
sS'the__ALL__'
p4076
I01
sS"'ll__ALL__"
p4077
I01
sS'I__BOTTOM__'
p4078
I01
sS'funni__ALL__'
p4079
I01
sS'it__ALL__'
p4080
I01
sS'an__ALL__'
p4081
I01
sS'end__ALL__'
p4082
I01
sS'to__ALL__'
p4083
I01
sS'.__TOP__'
p4084
I01
sS'FIX__ALL__'
p4085
I01
sS'[__BOTTOM__'
p4086
I01
sS"'ll__TOP__"
p4087
I01
sS'get__TOP__'
p4088
I01
sS'an__BOTTOM__'
p4089
I01
sS'put__BOTTOM__'
p4090
I01
sS'peopl__BOTTOM__'
p4091
I01
sS'on__BOTTOM__'
p4092
I01
sS'make__TOP__'
p4093
I01
sS'the__BOTTOM__'
p4094
I01
sS']__BOTTOM__'
p4095
I01
sS'I__ALL__'
p4096
I01
sa(dp4097
S'all__ALL__'
p4098
I01
sS'to__BOTTOM__'
p4099
I01
sS'get__BOTTOM__'
p4100
I01
sS'back__BOTTOM__'
p4101
I01
sS'my__BOTTOM__'
p4102
I01
sS'...__ALL__'
p4103
I01
sS'the__TOP__'
p4104
I01
sS'and__ALL__'
p4105
I01
sS'and__BOTTOM__'
p4106
I01
sS'finish__ALL__'
p4107
I01
sS'GNC__ALL__'
p4108
I01
sS'go__TOP__'
p4109
I01
sS'go__ALL__'
p4110
I01
sS'with__ALL__'
p4111
I01
sS'Powder__ALL__'
p4112
I01
sS'refil__BOTTOM__'
p4113
I01
sS'Powder__TOP__'
p4114
I01
sS'return__ALL__'
p4115
I01
sS'Im__TOP__'
p4116
I01
sS'Protien__ALL__'
p4117
I01
sS'it__BOTTOM__'
p4118
I01
sS'finish__TOP__'
p4119
I01
sS'return__BOTTOM__'
p4120
I01
sS'GNC__BOTTOM__'
p4121
I01
sS'Im__ALL__'
p4122
I01
sS'back__ALL__'
p4123
I01
sS'get__ALL__'
p4124
I01
sS'...__TOP__'
p4125
I01
sS'money__BOTTOM__'
p4126
I01
sS'Protien__TOP__'
p4127
I01
sS'to__ALL__'
p4128
I01
sS'refil__ALL__'
p4129
I01
sS'Then__BOTTOM__'
p4130
I01
sS'all__TOP__'
p4131
I01
sS'ovaltin__BOTTOM__'
p4132
I01
sS'to__TOP__'
p4133
I01
sS'with__BOTTOM__'
p4134
I01
sS'ovaltin__ALL__'
p4135
I01
sS'my__ALL__'
p4136
I01
sS'money__ALL__'
p4137
I01
sS'the__ALL__'
p4138
I01
sS'Then__ALL__'
p4139
I01
sS'it__ALL__'
p4140
I01
sa(dp4141
S'Nigga__TOP__'
p4142
I01
sS'like__TOP__'
p4143
I01
sS'She__BOTTOM__'
p4144
I01
sS'ai__BOTTOM__'
p4145
I01
sS'period__ALL__'
p4146
I01
sS'like__ALL__'
p4147
I01
sS"n't__ALL__"
p4148
I01
sS'no__BOTTOM__'
p4149
I01
sS'her__BOTTOM__'
p4150
I01
sS'She__ALL__'
p4151
I01
sS'more__ALL__'
p4152
I01
sS'on__ALL__'
p4153
I01
sS'her__ALL__'
p4154
I01
sS'no__ALL__'
p4155
I01
sS'period__BOTTOM__'
p4156
I01
sS'on__BOTTOM__'
p4157
I01
sS"n't__BOTTOM__"
p4158
I01
sS'more__BOTTOM__'
p4159
I01
sS'be__ALL__'
p4160
I01
sS'be__TOP__'
p4161
I01
sS'Nigga__ALL__'
p4162
I01
sS'ai__ALL__'
p4163
I01
sa(dp4164
S'.__BOTTOM__'
p4165
I01
sS'like__ALL__'
p4166
I01
sS"n't__ALL__"
p4167
I01
sS'.__ALL__'
p4168
I01
sS'her__BOTTOM__'
p4169
I01
sS"n't__BOTTOM__"
p4170
I01
sS'like__TOP__'
p4171
I01
sS'nigga__TOP__'
p4172
I01
sS'on__ALL__'
p4173
I01
sS'She__BOTTOM__'
p4174
I01
sS'be__ALL__'
p4175
I01
sS'ai__BOTTOM__'
p4176
I01
sS'ai__ALL__'
p4177
I01
sS'on__BOTTOM__'
p4178
I01
sS'She__ALL__'
p4179
I01
sS'her__ALL__'
p4180
I01
sS'be__TOP__'
p4181
I01
sS'nigga__ALL__'
p4182
I01
sa(dp4183
S'accept__BOTTOM__'
p4184
I01
sS'talk__ALL__'
p4185
I01
sS'challeng__ALL__'
p4186
I01
sS'Rocki__TOP__'
p4187
I01
sS'Mrsbossladi__TOP__'
p4188
I01
sS'trash__ALL__'
p4189
I01
sS'paquett__ALL__'
p4190
I01
sS'trash__TOP__'
p4191
I01
sS'?__TOP__'
p4192
I01
sS'Jenni__ALL__'
p4193
I01
sS'Taylor__TOP__'
p4194
I01
sS'accept__ALL__'
p4195
I01
sS'challeng__BOTTOM__'
p4196
I01
sS'Jenni__TOP__'
p4197
I01
sS'?__ALL__'
p4198
I01
sS'Taylor__ALL__'
p4199
I01
sS'talk__TOP__'
p4200
I01
sS'Rocki__ALL__'
p4201
I01
sS'Mrsbossladi__ALL__'
p4202
I01
sS'paquett__TOP__'
p4203
I01
sa(dp4204
S'piggi__ALL__'
p4205
I01
sS'littl__TOP__'
p4206
I01
sS'hOme__ALL__'
p4207
I01
sS'littL__ALL__'
p4208
I01
sS'never__BOTTOM__'
p4209
I01
sS'thi__ALL__'
p4210
I01
sS'And__ALL__'
p4211
I01
sS'it__BOTTOM__'
p4212
I01
sS'thi__BOTTOM__'
p4213
I01
sS'made__BOTTOM__'
p4214
I01
sS'Thi__ALL__'
p4215
I01
sS'it__ALL__'
p4216
I01
sS'Thi__TOP__'
p4217
I01
sS'made__ALL__'
p4218
I01
sS'littL__BOTTOM__'
p4219
I01
sS'hOme__BOTTOM__'
p4220
I01
sS'market__TOP__'
p4221
I01
sS'to__ALL__'
p4222
I01
sS'market__ALL__'
p4223
I01
sS'never__ALL__'
p4224
I01
sS'went__TOP__'
p4225
I01
sS'to__TOP__'
p4226
I01
sS'went__ALL__'
p4227
I01
sS'piggi__BOTTOM__'
p4228
I01
sS'And__BOTTOM__'
p4229
I01
sS'piggi__TOP__'
p4230
I01
sS'littl__ALL__'
p4231
I01
sa(dp4232
S'off__BOTTOM__'
p4233
I01
sS'whore__ALL__'
p4234
I01
sS'it__BOTTOM__'
p4235
I01
sS'off__ALL__'
p4236
I01
sS'whore__BOTTOM__'
p4237
I01
sS'take__ALL__'
p4238
I01
sS'take__BOTTOM__'
p4239
I01
sS'it__ALL__'
p4240
I01
sS'yea__TOP__'
p4241
I01
sS'you__ALL__'
p4242
I01
sS'you__BOTTOM__'
p4243
I01
sS'yea__ALL__'
p4244
I01
sa(dp4245
S'hey__ALL__'
p4246
I01
sS'go__BOTTOM__'
p4247
I01
sS'go__ALL__'
p4248
I01
sS'to__BOTTOM__'
p4249
I01
sS'to__ALL__'
p4250
I01
sS'barn__ALL__'
p4251
I01
sS'barn__BOTTOM__'
p4252
I01
sS'the__BOTTOM__'
p4253
I01
sS'the__ALL__'
p4254
I01
sS'hey__TOP__'
p4255
I01
sS"'s__ALL__"
p4256
I01
sS'let__BOTTOM__'
p4257
I01
sS'let__ALL__'
p4258
I01
sS"'s__BOTTOM__"
p4259
I01
sa(dp4260
S'weird__ALL__'
p4261
I01
sS'shit__BOTTOM__'
p4262
I01
sS'asleep__TOP__'
p4263
I01
sS'Upvot__BOTTOM__'
p4264
I01
sS'to__BOTTOM__'
p4265
I01
sS'weird__BOTTOM__'
p4266
I01
sS'page__ALL__'
p4267
I01
sS'Upvot__ALL__'
p4268
I01
sS'is__ALL__'
p4269
I01
sS'front__ALL__'
p4270
I01
sS'shit__ALL__'
p4271
I01
sS'is__TOP__'
p4272
I01
sS'America__TOP__'
p4273
I01
sS'the__ALL__'
p4274
I01
sS'the__BOTTOM__'
p4275
I01
sS'page__BOTTOM__'
p4276
I01
sS'America__ALL__'
p4277
I01
sS'to__ALL__'
p4278
I01
sS'asleep__ALL__'
p4279
I01
sS'front__BOTTOM__'
p4280
I01
sa(dp4281
S'I__TOP__'
p4282
I01
sS'have__TOP__'
p4283
I01
sS'USERNAM__TOP__'
p4284
I01
sS'phone__ALL__'
p4285
I01
sS'I__ALL__'
p4286
I01
sS'number__BOTTOM__'
p4287
I01
sS'your__ALL__'
p4288
I01
sS'number__ALL__'
p4289
I01
sS'YOUR__TOP__'
p4290
I01
sS'USERNAM__ALL__'
p4291
I01
sS'wife__ALL__'
p4292
I01
sS'wife__BOTTOM__'
p4293
I01
sS"'s__ALL__"
p4294
I01
sS'and__BOTTOM__'
p4295
I01
sS'YOUR__ALL__'
p4296
I01
sS'your__BOTTOM__'
p4297
I01
sS'and__ALL__'
p4298
I01
sS'have__ALL__'
p4299
I01
sS'phone__BOTTOM__'
p4300
I01
sS"'s__BOTTOM__"
p4301
I01
sa(dp4302
S'no__BOTTOM__'
p4303
I01
sS'human__ALL__'
p4304
I01
sS'human__TOP__'
p4305
I01
sS'idea__ALL__'
p4306
I01
sS'idea__BOTTOM__'
p4307
I01
sS'you__TOP__'
p4308
I01
sS'you__ALL__'
p4309
I01
sS'have__BOTTOM__'
p4310
I01
sS'have__ALL__'
p4311
I01
sS'no__ALL__'
p4312
I01
sa(dp4313
S'Whi__ALL__'
p4314
I01
sS'hello__ALL__'
p4315
I01
sS'hello__TOP__'
p4316
I01
sS'there__ALL__'
p4317
I01
sS'brother__BOTTOM__'
p4318
I01
sS'brother__ALL__'
p4319
I01
sS'Whi__TOP__'
p4320
I01
sS'coyney__BOTTOM__'
p4321
I01
sS'coyney__ALL__'
p4322
I01
sS'there__TOP__'
p4323
I01
sa(dp4324
S'make__ALL__'
p4325
I01
sS'I__TOP__'
p4326
I01
sS'reach__TOP__'
p4327
I01
sS'a__TOP__'
p4328
I01
sS'1000__BOTTOM__'
p4329
I01
sS'comment__TOP__'
p4330
I01
sS'say__TOP__'
p4331
I01
sS'am__TOP__'
p4332
I01
sS'am__ALL__'
p4333
I01
sS'intend__ALL__'
p4334
I01
sS'comment__ALL__'
p4335
I01
sS'karma__BOTTOM__'
p4336
I01
sS'i__ALL__'
p4337
I01
sS'a__ALL__'
p4338
I01
sS"'ll__ALL__"
p4339
I01
sS'intend__TOP__'
p4340
I01
sS'karma__ALL__'
p4341
I01
sS'to__ALL__'
p4342
I01
sS'i__TOP__'
p4343
I01
sS'I__ALL__'
p4344
I01
sS'1000__ALL__'
p4345
I01
sS'to__TOP__'
p4346
I01
sS'reach__ALL__'
p4347
I01
sS'say__ALL__'
p4348
I01
sS'comment__BOTTOM__'
p4349
I01
sS'make__TOP__'
p4350
I01
sS"'ll__TOP__"
p4351
I01
sa(dp4352
S'cook__BOTTOM__'
p4353
I01
sS'dinner__BOTTOM__'
p4354
I01
sS'nigga__TOP__'
p4355
I01
sS'she__ALL__'
p4356
I01
sS'she__BOTTOM__'
p4357
I01
sS'dinner__ALL__'
p4358
I01
sS'yea__TOP__'
p4359
I01
sS'oh__TOP__'
p4360
I01
sS'yea__ALL__'
p4361
I01
sS'nigga__ALL__'
p4362
I01
sS'cook__ALL__'
p4363
I01
sS'oh__ALL__'
p4364
I01
sa(dp4365
S'to__ALL__'
p4366
I01
sS'a__ALL__'
p4367
I01
sS'deliv__TOP__'
p4368
I01
sS'have__TOP__'
p4369
I01
sS'transport__BOTTOM__'
p4370
I01
sS'load__ALL__'
p4371
I01
sS'cant__ALL__'
p4372
I01
sS'have__ALL__'
p4373
I01
sS'a__TOP__'
p4374
I01
sS'to__TOP__'
p4375
I01
sS'cant__TOP__'
p4376
I01
sS'sleep__ALL__'
p4377
I01
sS'deliv__BOTTOM__'
p4378
I01
sS'transport__ALL__'
p4379
I01
sS'deliv__ALL__'
p4380
I01
sS'chaka__BOTTOM__'
p4381
I01
sS'load__TOP__'
p4382
I01
sS'sleep__TOP__'
p4383
I01
sS'chaka__ALL__'
p4384
I01
sa(dp4385
S',__TOP__'
p4386
I01
sS"'s__TOP__"
p4387
I01
sS'wiki__ALL__'
p4388
I01
sS'right__TOP__'
p4389
I01
sS'wiki__BOTTOM__'
p4390
I01
sS'noob__ALL__'
p4391
I01
sS',__ALL__'
p4392
I01
sS'That__ALL__'
p4393
I01
sS'noob__TOP__'
p4394
I01
sS'creat__BOTTOM__'
p4395
I01
sS'your__ALL__'
p4396
I01
sS'creat__ALL__'
p4397
I01
sS'your__BOTTOM__'
p4398
I01
sS'right__ALL__'
p4399
I01
sS"'s__ALL__"
p4400
I01
sS'That__TOP__'
p4401
I01
sa(dp4402
S'hahahahaha__BOTTOM__'
p4403
I01
sS'rape__ALL__'
p4404
I01
sS'go__ALL__'
p4405
I01
sS'to__ALL__'
p4406
I01
sS'im__ALL__'
p4407
I01
sS'to__TOP__'
p4408
I01
sS'you__TOP__'
p4409
I01
sS'im__TOP__'
p4410
I01
sS'hahahahaha__ALL__'
p4411
I01
sS'you__ALL__'
p4412
I01
sS'rape__TOP__'
p4413
I01
sS'go__TOP__'
p4414
I01
sa(dp4415
S'perfect__ALL__'
p4416
I01
sS'jealousi__ALL__'
p4417
I01
sS'Josh__ALL__'
p4418
I01
sS'show__ALL__'
p4419
I01
sS'Josh__TOP__'
p4420
I01
sS'perfect__BOTTOM__'
p4421
I01
sS'jealousi__TOP__'
p4422
I01
sS'show__TOP__'
p4423
I01
sa(dp4424
S'.__BOTTOM__'
p4425
I01
sS'I__TOP__'
p4426
I01
sS'.__ALL__'
p4427
I01
sS'agre__ALL__'
p4428
I01
sS'about__ALL__'
p4429
I01
sS'a__TOP__'
p4430
I01
sS'me__ALL__'
p4431
I01
sS'up__BOTTOM__'
p4432
I01
sS'give__ALL__'
p4433
I01
sS'give__BOTTOM__'
p4434
I01
sS'will__ALL__'
p4435
I01
sS'and__BOTTOM__'
p4436
I01
sS'say__TOP__'
p4437
I01
sS'then__ALL__'
p4438
I01
sS'vote__ALL__'
p4439
I01
sS'give__TOP__'
p4440
I01
sS"n't__ALL__"
p4441
I01
sS'fuck__ALL__'
p4442
I01
sS'about__TOP__'
p4443
I01
sS"n't__TOP__"
p4444
I01
sS'cakeday__ALL__'
p4445
I01
sS'will__BOTTOM__'
p4446
I01
sS'agre__BOTTOM__'
p4447
I01
sS'fuck__TOP__'
p4448
I01
sS'vote__BOTTOM__'
p4449
I01
sS'they__TOP__'
p4450
I01
sS'then__BOTTOM__'
p4451
I01
sS'me__BOTTOM__'
p4452
I01
sS'a__ALL__'
p4453
I01
sS'do__ALL__'
p4454
I01
sS'they__ALL__'
p4455
I01
sS'do__TOP__'
p4456
I01
sS'cakeday__TOP__'
p4457
I01
sS'my__TOP__'
p4458
I01
sS'with__ALL__'
p4459
I01
sS'and__ALL__'
p4460
I01
sS'with__BOTTOM__'
p4461
I01
sS'say__ALL__'
p4462
I01
sS'my__ALL__'
p4463
I01
sS'up__ALL__'
p4464
I01
sS'they__BOTTOM__'
p4465
I01
sS'will__TOP__'
p4466
I01
sS'I__ALL__'
p4467
I01
sa(dp4468
S':__ALL__'
p4469
I01
sS'fix__ALL__'
p4470
I01
sS'thing__ALL__'
p4471
I01
sS'car__ALL__'
p4472
I01
sS'break__BOTTOM__'
p4473
I01
sS'mwahahahaha__ALL__'
p4474
I01
sS'mwahahahaha__BOTTOM__'
p4475
I01
sS'&__ALL__'
p4476
I01
sS'it__ALL__'
p4477
I01
sS'fix__TOP__'
p4478
I01
sS'it__TOP__'
p4479
I01
sS"'s__TOP__"
p4480
I01
sS'logic__TOP__'
p4481
I01
sS'allow__ALL__'
p4482
I01
sS'!__BOTTOM__'
p4483
I01
sS'allow__TOP__'
p4484
I01
sS'...__ALL__'
p4485
I01
sS'thing__BOTTOM__'
p4486
I01
sS'logic__ALL__'
p4487
I01
sS'&__TOP__'
p4488
I01
sS'someth__TOP__'
p4489
I01
sS'someth__ALL__'
p4490
I01
sS'anoth__ALL__'
p4491
I01
sS'break__ALL__'
p4492
I01
sS'car__TOP__'
p4493
I01
sS'anoth__BOTTOM__'
p4494
I01
sS'...__TOP__'
p4495
I01
sS'when__TOP__'
p4496
I01
sS'to__ALL__'
p4497
I01
sS'break__TOP__'
p4498
I01
sS'my__TOP__'
p4499
I01
sS'to__TOP__'
p4500
I01
sS'!__ALL__'
p4501
I01
sS'my__ALL__'
p4502
I01
sS"'s__ALL__"
p4503
I01
sS'when__ALL__'
p4504
I01
sS':__TOP__'
p4505
I01
sa(dp4506
S'!__ALL__'
p4507
I01
sS'came__ALL__'
p4508
I01
sS'!__BOTTOM__'
p4509
I01
sS'excel__BOTTOM__'
p4510
I01
sS'excel__ALL__'
p4511
I01
sS'sumsucka__ALL__'
p4512
I01
sS'onlin__TOP__'
p4513
I01
sS'onlin__ALL__'
p4514
I01
sS'came__TOP__'
p4515
I01
sS'sumsucka__TOP__'
p4516
I01
sa(dp4517
S'els__BOTTOM__'
p4518
I01
sS'els__ALL__'
p4519
I01
sS'to__BOTTOM__'
p4520
I01
sS':__ALL__'
p4521
I01
sS'fix__ALL__'
p4522
I01
sS'breakmwahahahaha__BOTTOM__'
p4523
I01
sS'car__ALL__'
p4524
I01
sS'Allow__ALL__'
p4525
I01
sS'&__ALL__'
p4526
I01
sS'it__ALL__'
p4527
I01
sS'fix__TOP__'
p4528
I01
sS'it__TOP__'
p4529
I01
sS"'s__TOP__"
p4530
I01
sS'logic__TOP__'
p4531
I01
sS'allow__ALL__'
p4532
I01
sS'Allow__BOTTOM__'
p4533
I01
sS'allow__TOP__'
p4534
I01
sS'...__ALL__'
p4535
I01
sS'logic__ALL__'
p4536
I01
sS'breakmwahahahaha__ALL__'
p4537
I01
sS'&__TOP__'
p4538
I01
sS'someth__TOP__'
p4539
I01
sS'someth__ALL__'
p4540
I01
sS'break__ALL__'
p4541
I01
sS'car__TOP__'
p4542
I01
sS'someth__BOTTOM__'
p4543
I01
sS'when__ALL__'
p4544
I01
sS'...__TOP__'
p4545
I01
sS'when__TOP__'
p4546
I01
sS'to__ALL__'
p4547
I01
sS'break__TOP__'
p4548
I01
sS'my__TOP__'
p4549
I01
sS'to__TOP__'
p4550
I01
sS'my__ALL__'
p4551
I01
sS"'s__ALL__"
p4552
I01
sS':__TOP__'
p4553
I01
sa(dp4554
S'had__TOP__'
p4555
I01
sS'rather__ALL__'
p4556
I01
sS'actual__ALL__'
p4557
I01
sS'paper__TOP__'
p4558
I01
sS'than__ALL__'
p4559
I01
sS'rather__BOTTOM__'
p4560
I01
sS'have__ALL__'
p4561
I01
sS'RETEST__ALL__'
p4562
I01
sS'a__ALL__'
p4563
I01
sS'good__ALL__'
p4564
I01
sS'actual__TOP__'
p4565
I01
sS'had__ALL__'
p4566
I01
sS'have__BOTTOM__'
p4567
I01
sS'a__TOP__'
p4568
I01
sS'RETEST__BOTTOM__'
p4569
I01
sS'they__TOP__'
p4570
I01
sS'credit__BOTTOM__'
p4571
I01
sS'ill__ALL__'
p4572
I01
sS'good__TOP__'
p4573
I01
sS'do__ALL__'
p4574
I01
sS'do__BOTTOM__'
p4575
I01
sS'credit__ALL__'
p4576
I01
sS'than__BOTTOM__'
p4577
I01
sS'system__ALL__'
p4578
I01
sS'they__ALL__'
p4579
I01
sS'system__BOTTOM__'
p4580
I01
sS'a__BOTTOM__'
p4581
I01
sS'ill__BOTTOM__'
p4582
I01
sS'paper__ALL__'
p4583
I01
sS'them__ALL__'
p4584
I01
sS'them__BOTTOM__'
p4585
I01
sa(dp4586
S'school__ALL__'
p4587
I01
sS'for__BOTTOM__'
p4588
I01
sS'ur__ALL__'
p4589
I01
sS'ur__TOP__'
p4590
I01
sS'lunch__ALL__'
p4591
I01
sS'ima__ALL__'
p4592
I01
sS'school__BOTTOM__'
p4593
I01
sS'steal__TOP__'
p4594
I01
sS'steal__ALL__'
p4595
I01
sS'for__ALL__'
p4596
I01
sS'lunch__TOP__'
p4597
I01
sS'ima__TOP__'
p4598
I01
sa(dp4599
S'math__BOTTOM__'
p4600
I01
sS'cheat__ALL__'
p4601
I01
sS'test__BOTTOM__'
p4602
I01
sS'Want__TOP__'
p4603
I01
sS'Want__ALL__'
p4604
I01
sS'math__ALL__'
p4605
I01
sS'cheat__BOTTOM__'
p4606
I01
sS'on__ALL__'
p4607
I01
sS'on__BOTTOM__'
p4608
I01
sS'HE__ALL__'
p4609
I01
sS'the__ALL__'
p4610
I01
sS'the__BOTTOM__'
p4611
I01
sS'HE__BOTTOM__'
p4612
I01
sS'test__ALL__'
p4613
I01
sa(dp4614
S'Friday__TOP__'
p4615
I01
sS'pant__ALL__'
p4616
I01
sS'pant__BOTTOM__'
p4617
I01
sS'my__BOTTOM__'
p4618
I01
sS"'s__TOP__"
p4619
I01
sS'Friday__ALL__'
p4620
I01
sS'mischief__ALL__'
p4621
I01
sS'It__TOP__'
p4622
I01
sS'!__TOP__'
p4623
I01
sS'are__BOTTOM__'
p4624
I01
sS'now__ALL__'
p4625
I01
sS'!__ALL__'
p4626
I01
sS'?__ALL__'
p4627
I01
sS'?__BOTTOM__'
p4628
I01
sS'are__ALL__'
p4629
I01
sS'now__BOTTOM__'
p4630
I01
sS'mischief__BOTTOM__'
p4631
I01
sS'my__ALL__'
p4632
I01
sS'It__ALL__'
p4633
I01
sS"'s__ALL__"
p4634
I01
sS'where__BOTTOM__'
p4635
I01
sS'where__ALL__'
p4636
I01
sa(dp4637
S'I__TOP__'
p4638
I01
sS'have__TOP__'
p4639
I01
sS'ludicr__ALL__'
p4640
I01
sS'a__TOP__'
p4641
I01
sS'me__ALL__'
p4642
I01
sS'...__ALL__'
p4643
I01
sS'temptat__ALL__'
p4644
I01
sS'have__ALL__'
p4645
I01
sS'at__ALL__'
p4646
I01
sS'a__ALL__'
p4647
I01
sS'...__BOTTOM__'
p4648
I01
sS'ludicr__TOP__'
p4649
I01
sS'plan__ALL__'
p4650
I01
sS'me__BOTTOM__'
p4651
I01
sS'...__TOP__'
p4652
I01
sS'plan__TOP__'
p4653
I01
sS'..__ALL__'
p4654
I01
sS'..__BOTTOM__'
p4655
I01
sS'I__ALL__'
p4656
I01
sS'temptat__BOTTOM__'
p4657
I01
sS'Meet__ALL__'
p4658
I01
sS'at__BOTTOM__'
p4659
I01
sS'Meet__BOTTOM__'
p4660
I01
sa(dp4661
S'els__BOTTOM__'
p4662
I01
sS'els__ALL__'
p4663
I01
sS'to__BOTTOM__'
p4664
I01
sS':__ALL__'
p4665
I01
sS'fix__ALL__'
p4666
I01
sS'Allow__ALL__'
p4667
I01
sS'car__ALL__'
p4668
I01
sS'break__BOTTOM__'
p4669
I01
sS'mwahahahaha__ALL__'
p4670
I01
sS'mwahahahaha__BOTTOM__'
p4671
I01
sS'&__ALL__'
p4672
I01
sS'it__ALL__'
p4673
I01
sS'fix__TOP__'
p4674
I01
sS'it__TOP__'
p4675
I01
sS"'s__TOP__"
p4676
I01
sS'logic__TOP__'
p4677
I01
sS'allow__ALL__'
p4678
I01
sS'Allow__BOTTOM__'
p4679
I01
sS'allow__TOP__'
p4680
I01
sS'...__ALL__'
p4681
I01
sS'logic__ALL__'
p4682
I01
sS'&__TOP__'
p4683
I01
sS'someth__TOP__'
p4684
I01
sS'someth__ALL__'
p4685
I01
sS'break__ALL__'
p4686
I01
sS'car__TOP__'
p4687
I01
sS'someth__BOTTOM__'
p4688
I01
sS'when__ALL__'
p4689
I01
sS'...__TOP__'
p4690
I01
sS'when__TOP__'
p4691
I01
sS'to__ALL__'
p4692
I01
sS'break__TOP__'
p4693
I01
sS'my__TOP__'
p4694
I01
sS'to__TOP__'
p4695
I01
sS'my__ALL__'
p4696
I01
sS"'s__ALL__"
p4697
I01
sS':__TOP__'
p4698
I01
sa(dp4699
S'about__ALL__'
p4700
I01
sS'not__ALL__'
p4701
I01
sS"'ll__BOTTOM__"
p4702
I01
sS'see__BOTTOM__'
p4703
I01
sS'vote__TOP__'
p4704
I01
sS'Andrea__ALL__'
p4705
I01
sS'vote__ALL__'
p4706
I01
sS'see__ALL__'
p4707
I01
sS'go__ALL__'
p4708
I01
sS'We__ALL__'
p4709
I01
sS'We__BOTTOM__'
p4710
I01
sS'for__ALL__'
p4711
I01
sS'about__BOTTOM__'
p4712
I01
sS"'ll__ALL__"
p4713
I01
sS'that__ALL__'
p4714
I01
sS'for__TOP__'
p4715
I01
sS'You__ALL__'
p4716
I01
sS'go__TOP__'
p4717
I01
sS"'re__ALL__"
p4718
I01
sS'to__ALL__'
p4719
I01
sS'not__TOP__'
p4720
I01
sS'to__TOP__'
p4721
I01
sS"'re__TOP__"
p4722
I01
sS'You__TOP__'
p4723
I01
sS'that__BOTTOM__'
p4724
I01
sS'Andrea__TOP__'
p4725
I01
sa(dp4726
S'I__TOP__'
p4727
I01
sS'oven__TOP__'
p4728
I01
sS'on__ALL__'
p4729
I01
sS'I__ALL__'
p4730
I01
sS'set__ALL__'
p4731
I01
sS'fire__TOP__'
p4732
I01
sS'fire__ALL__'
p4733
I01
sS'your__TOP__'
p4734
I01
sS'will__ALL__'
p4735
I01
sS'your__ALL__'
p4736
I01
sS'will__TOP__'
p4737
I01
sS'oven__ALL__'
p4738
I01
sS'on__TOP__'
p4739
I01
sS'set__TOP__'
p4740
I01
sa(dp4741
S'name__ALL__'
p4742
I01
sS"'s__TOP__"
p4743
I01
sS'name__TOP__'
p4744
I01
sS'behbeh__ALL__'
p4745
I01
sS'the__TOP__'
p4746
I01
sS'evil__BOTTOM__'
p4747
I01
sS'evil__ALL__'
p4748
I01
sS'the__ALL__'
p4749
I01
sS'behbeh__TOP__'
p4750
I01
sS"'s__ALL__"
p4751
I01
sS'behbeh__BOTTOM__'
p4752
I01
sa(dp4753
S'we__ALL__'
p4754
I01
sS'look__TOP__'
p4755
I01
sS'so__ALL__'
p4756
I01
sS'to__TOP__'
p4757
I01
sS'trade__BOTTOM__'
p4758
I01
sS'up__BOTTOM__'
p4759
I01
sS'come__BOTTOM__'
p4760
I01
sS'peyton__ALL__'
p4761
I01
sS"'m__ALL__"
p4762
I01
sS'look__ALL__'
p4763
I01
sS'come__ALL__'
p4764
I01
sS'sure__BOTTOM__'
p4765
I01
sS'trade__TOP__'
p4766
I01
sS'can__BOTTOM__'
p4767
I01
sS'sure__ALL__'
p4768
I01
sS'?__TOP__'
p4769
I01
sS'so__TOP__'
p4770
I01
sS'peyton__TOP__'
p4771
I01
sS'you__ALL__'
p4772
I01
sS'a__ALL__'
p4773
I01
sS'with__ALL__'
p4774
I01
sS'I__BOTTOM__'
p4775
I01
sS'you__TOP__'
p4776
I01
sS'can__ALL__'
p4777
I01
sS'we__BOTTOM__'
p4778
I01
sS"'re__ALL__"
p4779
I01
sS'with__BOTTOM__'
p4780
I01
sS'to__ALL__'
p4781
I01
sS'?__ALL__'
p4782
I01
sS'a__BOTTOM__'
p4783
I01
sS'fair__BOTTOM__'
p4784
I01
sS'I__ALL__'
p4785
I01
sS'fair__ALL__'
p4786
I01
sS"'m__BOTTOM__"
p4787
I01
sS"'re__TOP__"
p4788
I01
sS'trade__ALL__'
p4789
I01
sS'up__ALL__'
p4790
I01
sa(dp4791
S'make__ALL__'
p4792
I01
sS'i__TOP__'
p4793
I01
sS'oven__TOP__'
p4794
I01
sS'make__BOTTOM__'
p4795
I01
sS'then__BOTTOM__'
p4796
I01
sS'nacho__BOTTOM__'
p4797
I01
sS'i__ALL__'
p4798
I01
sS'set__ALL__'
p4799
I01
sS'fire__TOP__'
p4800
I01
sS'fire__ALL__'
p4801
I01
sS'then__ALL__'
p4802
I01
sS'your__TOP__'
p4803
I01
sS'on__ALL__'
p4804
I01
sS'will__ALL__'
p4805
I01
sS'your__ALL__'
p4806
I01
sS'will__TOP__'
p4807
I01
sS'oven__ALL__'
p4808
I01
sS'on__TOP__'
p4809
I01
sS'nacho__ALL__'
p4810
I01
sS'set__TOP__'
p4811
I01
sa(dp4812
S'took__TOP__'
p4813
I01
sS'back__BOTTOM__'
p4814
I01
sS'him__ALL__'
p4815
I01
sS'annoy__TOP__'
p4816
I01
sS'brought__ALL__'
p4817
I01
sS'with__ALL__'
p4818
I01
sS'Picard__TOP__'
p4819
I01
sS'!__BOTTOM__'
p4820
I01
sS'back__ALL__'
p4821
I01
sS'So__ALL__'
p4822
I01
sS'more__ALL__'
p4823
I01
sS'?__TOP__'
p4824
I01
sS'you__ALL__'
p4825
I01
sS'him__BOTTOM__'
p4826
I01
sS'more__BOTTOM__'
p4827
I01
sS',__ALL__'
p4828
I01
sS'I__BOTTOM__'
p4829
I01
sS'you__TOP__'
p4830
I01
sS'Picard__ALL__'
p4831
I01
sS'So__TOP__'
p4832
I01
sS',__BOTTOM__'
p4833
I01
sS'down__TOP__'
p4834
I01
sS'!__ALL__'
p4835
I01
sS'?__ALL__'
p4836
I01
sS'brought__BOTTOM__'
p4837
I01
sS'took__ALL__'
p4838
I01
sS'I__ALL__'
p4839
I01
sS'with__BOTTOM__'
p4840
I01
sS'down__ALL__'
p4841
I01
sS'annoy__ALL__'
p4842
I01
sa(dp4843
S'.__BOTTOM__'
p4844
I01
sS'everyth__BOTTOM__'
p4845
I01
sS'.__ALL__'
p4846
I01
sS'we__ALL__'
p4847
I01
sS'can__ALL__'
p4848
I01
sS'less..__ALL__'
p4849
I01
sS'will__ALL__'
p4850
I01
sS'less..__TOP__'
p4851
I01
sS'with__ALL__'
p4852
I01
sS'with__TOP__'
p4853
I01
sS'We__ALL__'
p4854
I01
sS'...__BOTTOM__'
p4855
I01
sS'more__ALL__'
p4856
I01
sS'...__ALL__'
p4857
I01
sS'can__BOTTOM__'
p4858
I01
sS'noth__ALL__'
p4859
I01
sS'noth__BOTTOM__'
p4860
I01
sS'We__TOP__'
p4861
I01
sS'until__ALL__'
p4862
I01
sS'more__TOP__'
p4863
I01
sS'until__BOTTOM__'
p4864
I01
sS'everyth__ALL__'
p4865
I01
sS'do__ALL__'
p4866
I01
sS'we__BOTTOM__'
p4867
I01
sS'do__BOTTOM__'
p4868
I01
sS'do__TOP__'
p4869
I01
sS'with__BOTTOM__'
p4870
I01
sS'will__TOP__'
p4871
I01
sa(dp4872
S'studi__ALL__'
p4873
I01
sS'studi__BOTTOM__'
p4874
I01
sS'Ye__ALL__'
p4875
I01
sS'minon__ALL__'
p4876
I01
sS'my__TOP__'
p4877
I01
sS'minon__TOP__'
p4878
I01
sS'my__ALL__'
p4879
I01
sS'Ye__TOP__'
p4880
I01
sa(dp4881
S'wait__ALL__'
p4882
I01
sS'our__BOTTOM__'
p4883
I01
sS'iPad__BOTTOM__'
p4884
I01
sS'our__ALL__'
p4885
I01
sS'Mini__BOTTOM__'
p4886
I01
sS'wait__TOP__'
p4887
I01
sS'we__ALL__'
p4888
I01
sS'Now__TOP__'
p4889
I01
sS'...__ALL__'
p4890
I01
sS'And__ALL__'
p4891
I01
sS'iPad__ALL__'
p4892
I01
sS'win__BOTTOM__'
p4893
I01
sS'Now__ALL__'
p4894
I01
sS'...__TOP__'
p4895
I01
sS'And__BOTTOM__'
p4896
I01
sS'we__TOP__'
p4897
I01
sS'Mini__ALL__'
p4898
I01
sS'win__ALL__'
p4899
I01
sa(dp4900
S'investig__BOTTOM__'
p4901
I01
sS'.__BOTTOM__'
p4902
I01
sS'.__ALL__'
p4903
I01
sS'have__TOP__'
p4904
I01
sS'ban__TOP__'
p4905
I01
sS'call__BOTTOM__'
p4906
I01
sS'spammer__ALL__'
p4907
I01
sS'a__TOP__'
p4908
I01
sS'reput__ALL__'
p4909
I01
sS"'ve__ALL__"
p4910
I01
sS"'ve__BOTTOM__"
p4911
I01
sS'legitim__ALL__'
p4912
I01
sS'and__ALL__'
p4913
I01
sS'?__TOP__'
p4914
I01
sS'own__BOTTOM__'
p4915
I01
sS'and__BOTTOM__'
p4916
I01
sS'conduct__BOTTOM__'
p4917
I01
sS'but__ALL__'
p4918
I01
sS'your__BOTTOM__'
p4919
I01
sS'have__ALL__'
p4920
I01
sS'call__ALL__'
p4921
I01
sS'and__TOP__'
p4922
I01
sS'conduct__ALL__'
p4923
I01
sS'it__TOP__'
p4924
I01
sS"'s__TOP__"
p4925
I01
sS'Want__TOP__'
p4926
I01
sS'out__ALL__'
p4927
I01
sS'Claim__BOTTOM__'
p4928
I01
sS'it__BOTTOM__'
p4929
I01
sS',__ALL__'
p4930
I01
sS'legitim__TOP__'
p4931
I01
sS'sink__ALL__'
p4932
I01
sS'so__TOP__'
p4933
I01
sS'on__ALL__'
p4934
I01
sS'you__ALL__'
p4935
I01
sS'you__BOTTOM__'
p4936
I01
sS'investig__ALL__'
p4937
I01
sS'Want__ALL__'
p4938
I01
sS"'s__ALL__"
p4939
I01
sS'no__ALL__'
p4940
I01
sS'out__BOTTOM__'
p4941
I01
sS',__TOP__'
p4942
I01
sS'delet__ALL__'
p4943
I01
sS'everi__BOTTOM__'
p4944
I01
sS'on__BOTTOM__'
p4945
I01
sS'everi__ALL__'
p4946
I01
sS'Claim__ALL__'
p4947
I01
sS'comment__BOTTOM__'
p4948
I01
sS'a__ALL__'
p4949
I01
sS'websit__ALL__'
p4950
I01
sS'reput__TOP__'
p4951
I01
sS'do__ALL__'
p4952
I01
sS'so__ALL__'
p4953
I01
sS'as__ALL__'
p4954
I01
sS'that__BOTTOM__'
p4955
I01
sS'spammer__BOTTOM__'
p4956
I01
sS',__BOTTOM__'
p4957
I01
sS'no__TOP__'
p4958
I01
sS'libel__BOTTOM__'
p4959
I01
sS'sink__TOP__'
p4960
I01
sS'admin__BOTTOM__'
p4961
I01
sS'do__TOP__'
p4962
I01
sS'ground__ALL__'
p4963
I01
sS'to__ALL__'
p4964
I01
sS'admin__ALL__'
p4965
I01
sS'?__ALL__'
p4966
I01
sS'as__BOTTOM__'
p4967
I01
sS'own__ALL__'
p4968
I01
sS'without__BOTTOM__'
p4969
I01
sS'the__ALL__'
p4970
I01
sS'ban__ALL__'
p4971
I01
sS'a__BOTTOM__'
p4972
I01
sS'but__TOP__'
p4973
I01
sS'to__TOP__'
p4974
I01
sS'your__ALL__'
p4975
I01
sS'websit__BOTTOM__'
p4976
I01
sS'that__ALL__'
p4977
I01
sS'websit__TOP__'
p4978
I01
sS'ground__TOP__'
p4979
I01
sS'without__ALL__'
p4980
I01
sS'the__BOTTOM__'
p4981
I01
sS'delet__BOTTOM__'
p4982
I01
sS'libel__ALL__'
p4983
I01
sS'comment__ALL__'
p4984
I01
sS'it__ALL__'
p4985
I01
sa(dp4986
S'evil__TOP__'
p4987
I01
sS'back__BOTTOM__'
p4988
I01
sS'will__ALL__'
p4989
I01
sS'know__TOP__'
p4990
I01
sS'your__BOTTOM__'
p4991
I01
sS'back__ALL__'
p4992
I01
sS'...__ALL__'
p4993
I01
sS'know__ALL__'
p4994
I01
sS'pay__BOTTOM__'
p4995
I01
sS'evil__ALL__'
p4996
I01
sS'What__ALL__'
p4997
I01
sS'will__BOTTOM__'
p4998
I01
sS'What__BOTTOM__'
p4999
I01
sS'Yesssss__TOP__'
p5000
I01
sS'way__TOP__'
p5001
I01
sS'.I__ALL__'
p5002
I01
sS'...__TOP__'
p5003
I01
sS'be__BOTTOM__'
p5004
I01
sS'your__ALL__'
p5005
I01
sS'.I__TOP__'
p5006
I01
sS'?__ALL__'
p5007
I01
sS'?__BOTTOM__'
p5008
I01
sS'be__ALL__'
p5009
I01
sS'Yesssss__ALL__'
p5010
I01
sS'way__ALL__'
p5011
I01
sS'your__TOP__'
p5012
I01
sS'pay__ALL__'
p5013
I01
sa(dp5014
S'I__TOP__'
p5015
I01
sS'.__ALL__'
p5016
I01
sS'pretend__TOP__'
p5017
I01
sS'a__TOP__'
p5018
I01
sS"'ll__BOTTOM__"
p5019
I01
sS'and__ALL__'
p5020
I01
sS'anal__BOTTOM__'
p5021
I01
sS'onli__ALL__'
p5022
I01
sS'and__TOP__'
p5023
I01
sS'them__TOP__'
p5024
I01
sS'anal__ALL__'
p5025
I01
sS'a__ALL__'
p5026
I01
sS'Then__BOTTOM__'
p5027
I01
sS'!__BOTTOM__'
p5028
I01
sS'onc__TOP__'
p5029
I01
sS'live__ALL__'
p5030
I01
sS'tell__ALL__'
p5031
I01
sS'Then__ALL__'
p5032
I01
sS'do__ALL__'
p5033
I01
sS'onli__TOP__'
p5034
I01
sS'pretend__ALL__'
p5035
I01
sS'they__TOP__'
p5036
I01
sS'girl__TOP__'
p5037
I01
sS"'ll__ALL__"
p5038
I01
sS'girl__ALL__'
p5039
I01
sS'tell__TOP__'
p5040
I01
sS'do__BOTTOM__'
p5041
I01
sS'They__BOTTOM__'
p5042
I01
sS'they__ALL__'
p5043
I01
sS'be__TOP__'
p5044
I01
sS'to__ALL__'
p5045
I01
sS'!__ALL__'
p5046
I01
sS'be__ALL__'
p5047
I01
sS'I__ALL__'
p5048
I01
sS'to__TOP__'
p5049
I01
sS'live__TOP__'
p5050
I01
sS'onc__ALL__'
p5051
I01
sS'them__ALL__'
p5052
I01
sS'.__TOP__'
p5053
I01
sS'They__ALL__'
p5054
I01
sS"'ll__TOP__"
p5055
I01
sa(dp5056
S',__TOP__'
p5057
I01
sS'Ye__ALL__'
p5058
I01
sS'staff__ALL__'
p5059
I01
sS'unlicens__ALL__'
p5060
I01
sS'an__ALL__'
p5061
I01
sS'cor__ALL__'
p5062
I01
sS'unlicens__TOP__'
p5063
I01
sS',__ALL__'
p5064
I01
sS'an__TOP__'
p5065
I01
sS'Ye__TOP__'
p5066
I01
sS'staff__TOP__'
p5067
I01
sS'cor__TOP__'
p5068
I01
sa(dp5069
S"'m__ALL__"
p5070
I01
sS'to__ALL__'
p5071
I01
sS'I__TOP__'
p5072
I01
sS"'m__TOP__"
p5073
I01
sS'Rub__ALL__'
p5074
I01
sS'I__ALL__'
p5075
I01
sS'to__TOP__'
p5076
I01
sS'my__ALL__'
p5077
I01
sS'plot__TOP__'
p5078
I01
sS'my__BOTTOM__'
p5079
I01
sS'togeth__BOTTOM__'
p5080
I01
sS'hand__ALL__'
p5081
I01
sS'hand__BOTTOM__'
p5082
I01
sS'plot__ALL__'
p5083
I01
sS'togeth__ALL__'
p5084
I01
sS'Rub__BOTTOM__'
p5085
I01
sa(dp5086
S'to__ALL__'
p5087
I01
sS'Come__ALL__'
p5088
I01
sS'Come__TOP__'
p5089
I01
sS'to__TOP__'
p5090
I01
sS'me__ALL__'
p5091
I01
sS'me__TOP__'
p5092
I01
sS'RIKKI__BOTTOM__'
p5093
I01
sS'RIKKI__ALL__'
p5094
I01
sa(dp5095
S'all__ALL__'
p5096
I01
sS'there__ALL__'
p5097
I01
sS'wa__BOTTOM__'
p5098
I01
sS'Get__TOP__'
p5099
I01
sS'by__TOP__'
p5100
I01
sS'Book__ALL__'
p5101
I01
sS'them__TOP__'
p5102
I01
sS'Air__TOP__'
p5103
I01
sS'Then__BOTTOM__'
p5104
I01
sS'Air__ALL__'
p5105
I01
sS'box__ALL__'
p5106
I01
sS'free__ALL__'
p5107
I01
sS'them__ALL__'
p5108
I01
sS'tell__BOTTOM__'
p5109
I01
sS'Then__ALL__'
p5110
I01
sS'wa__ALL__'
p5111
I01
sS'by__ALL__'
p5112
I01
sS'the__ALL__'
p5113
I01
sS'Mac__ALL__'
p5114
I01
sS'tell__TOP__'
p5115
I01
sS'excit__TOP__'
p5116
I01
sS'tell__ALL__'
p5117
I01
sS'excit__ALL__'
p5118
I01
sS'are__TOP__'
p5119
I01
sS'all__TOP__'
p5120
I01
sS'are__ALL__'
p5121
I01
sS'Get__ALL__'
p5122
I01
sS'free__TOP__'
p5123
I01
sS'them__BOTTOM__'
p5124
I01
sS'box__BOTTOM__'
p5125
I01
sS'Mac__TOP__'
p5126
I01
sS'the__BOTTOM__'
p5127
I01
sS'Book__TOP__'
p5128
I01
sS'empti__ALL__'
p5129
I01
sS'empti__BOTTOM__'
p5130
I01
sS'there__TOP__'
p5131
I01
sa(dp5132
S'eeevil__ALL__'
p5133
I01
sS'just__BOTTOM__'
p5134
I01
sS'Im__ALL__'
p5135
I01
sS'just__ALL__'
p5136
I01
sS'so__BOTTOM__'
p5137
I01
sS'eeevil__BOTTOM__'
p5138
I01
sS'diabol__ALL__'
p5139
I01
sS'diabol__BOTTOM__'
p5140
I01
sS'Im__BOTTOM__'
p5141
I01
sS'so__ALL__'
p5142
I01
sa(dp5143
S'get__BOTTOM__'
p5144
I01
sS"'ll__BOTTOM__"
p5145
I01
sS'the__TOP__'
p5146
I01
sS'side__TOP__'
p5147
I01
sS'and__ALL__'
p5148
I01
sS'and__BOTTOM__'
p5149
I01
sS'dark__TOP__'
p5150
I01
sS'cooki__BOTTOM__'
p5151
I01
sS'a__ALL__'
p5152
I01
sS'...__BOTTOM__'
p5153
I01
sS'...__ALL__'
p5154
I01
sS'free__ALL__'
p5155
I01
sS'dark__ALL__'
p5156
I01
sS'if__ALL__'
p5157
I01
sS'you__ALL__'
p5158
I01
sS'you__BOTTOM__'
p5159
I01
sS'if__TOP__'
p5160
I01
sS'ps4__BOTTOM__'
p5161
I01
sS'get__ALL__'
p5162
I01
sS'ps4__ALL__'
p5163
I01
sS"'ll__ALL__"
p5164
I01
sS'you__TOP__'
p5165
I01
sS'free__BOTTOM__'
p5166
I01
sS'cooki__ALL__'
p5167
I01
sS'a__BOTTOM__'
p5168
I01
sS'join__ALL__'
p5169
I01
sS'the__ALL__'
p5170
I01
sS'side__ALL__'
p5171
I01
sS'join__TOP__'
p5172
I01
sa(dp5173
S'note__ALL__'
p5174
I01
sS'put__TOP__'
p5175
I01
sS'post__TOP__'
p5176
I01
sS'back__ALL__'
p5177
I01
sS'back__BOTTOM__'
p5178
I01
sS'my__ALL__'
p5179
I01
sS'post__ALL__'
p5180
I01
sS'on__ALL__'
p5181
I01
sS'it__BOTTOM__'
p5182
I01
sS'it__ALL__'
p5183
I01
sS'on__BOTTOM__'
p5184
I01
sS'my__BOTTOM__'
p5185
I01
sS'note__BOTTOM__'
p5186
I01
sS'put__ALL__'
p5187
I01
sa(dp5188
S'.__BOTTOM__'
p5189
I01
sS'it__TOP__'
p5190
I01
sS'.__ALL__'
p5191
I01
sS',__TOP__'
p5192
I01
sS'it__ALL__'
p5193
I01
sS'love__ALL__'
p5194
I01
sS'me__BOTTOM__'
p5195
I01
sS',__ALL__'
p5196
I01
sS'me__ALL__'
p5197
I01
sS'insult__ALL__'
p5198
I01
sS'when__ALL__'
p5199
I01
sS'insult__BOTTOM__'
p5200
I01
sS'Secretli__TOP__'
p5201
I01
sS'they__BOTTOM__'
p5202
I01
sS'they__ALL__'
p5203
I01
sS'Secretli__ALL__'
p5204
I01
sS'love__TOP__'
p5205
I01
sS'when__BOTTOM__'
p5206
I01
sa(dp5207
S'APPRECI__BOTTOM__'
p5208
I01
sS'Save__ALL__'
p5209
I01
sS'and__ALL__'
p5210
I01
sS'will__ALL__'
p5211
I01
sS'and__BOTTOM__'
p5212
I01
sS'have__ALL__'
p5213
I01
sS'matur__ALL__'
p5214
I01
sS'matur__BOTTOM__'
p5215
I01
sS'more__ALL__'
p5216
I01
sS'it__BOTTOM__'
p5217
I01
sS'you__ALL__'
p5218
I01
sS'have__BOTTOM__'
p5219
I01
sS'will__BOTTOM__'
p5220
I01
sS'until__TOP__'
p5221
I01
sS'until__ALL__'
p5222
I01
sS'APPRECI__ALL__'
p5223
I01
sS'more__BOTTOM__'
p5224
I01
sS'you__TOP__'
p5225
I01
sS'Save__TOP__'
p5226
I01
sS'18__TOP__'
p5227
I01
sS'you__BOTTOM__'
p5228
I01
sS"'re__ALL__"
p5229
I01
sS'18__ALL__'
p5230
I01
sS'anal__TOP__'
p5231
I01
sS"'re__TOP__"
p5232
I01
sS'anal__ALL__'
p5233
I01
sS'it__ALL__'
p5234
I01
sa(dp5235
S'will__BOTTOM__'
p5236
I01
sS'Friendzon__ALL__'
p5237
I01
sS'off__BOTTOM__'
p5238
I01
sS'off__ALL__'
p5239
I01
sS'pay__BOTTOM__'
p5240
I01
sS'Patienc__ALL__'
p5241
I01
sS'pay__ALL__'
p5242
I01
sS'will__ALL__'
p5243
I01
sS'Friendzon__BOTTOM__'
p5244
I01
sS'Patienc__TOP__'
p5245
I01
sa(dp5246
S'get__ALL__'
p5247
I01
sS'own__ALL__'
p5248
I01
sS'Intrest__ALL__'
p5249
I01
sS'seri__TOP__'
p5250
I01
sS'Sli__ALL__'
p5251
I01
sS'cooper__ALL__'
p5252
I01
sS'get__TOP__'
p5253
I01
sS'seri__ALL__'
p5254
I01
sS'is__ALL__'
p5255
I01
sS'Sli__TOP__'
p5256
I01
sS'cooper__TOP__'
p5257
I01
sS'hi__ALL__'
p5258
I01
sS'is__TOP__'
p5259
I01
sS'hi__TOP__'
p5260
I01
sS'Intrest__BOTTOM__'
p5261
I01
sS'own__TOP__'
p5262
I01
sa(dp5263
S'out__BOTTOM__'
p5264
I01
sS'i__TOP__'
p5265
I01
sS'of__ALL__'
p5266
I01
sS'pussi__BOTTOM__'
p5267
I01
sS'i__ALL__'
p5268
I01
sS'food__TOP__'
p5269
I01
sS'kill__TOP__'
p5270
I01
sS'eat__ALL__'
p5271
I01
sS'pussi__ALL__'
p5272
I01
sS'for__TOP__'
p5273
I01
sS'food__ALL__'
p5274
I01
sS'eat__BOTTOM__'
p5275
I01
sS'roughest__ALL__'
p5276
I01
sS'the__ALL__'
p5277
I01
sS'the__BOTTOM__'
p5278
I01
sS'roughest__BOTTOM__'
p5279
I01
sS'for__ALL__'
p5280
I01
sS'kill__ALL__'
p5281
I01
sS'of__BOTTOM__'
p5282
I01
sS'out__ALL__'
p5283
I01
sa(dp5284
S'have__TOP__'
p5285
I01
sS'no__TOP__'
p5286
I01
sS'plane__BOTTOM__'
p5287
I01
sS'thing__ALL__'
p5288
I01
sS'have__BOTTOM__'
p5289
I01
sS'have__ALL__'
p5290
I01
sS'for__BOTTOM__'
p5291
I01
sS'idea__ALL__'
p5292
I01
sS'plane__ALL__'
p5293
I01
sS'you__ALL__'
p5294
I01
sS'of__ALL__'
p5295
I01
sS'thing__BOTTOM__'
p5296
I01
sS'for__ALL__'
p5297
I01
sS'of__BOTTOM__'
p5298
I01
sS'no__ALL__'
p5299
I01
sS'idea__TOP__'
p5300
I01
sS'i__ALL__'
p5301
I01
sS'you__TOP__'
p5302
I01
sS'you__BOTTOM__'
p5303
I01
sS'i__BOTTOM__'
p5304
I01
sS'the__ALL__'
p5305
I01
sS'the__BOTTOM__'
p5306
I01
sa(dp5307
S'.__BOTTOM__'
p5308
I01
sS'I__TOP__'
p5309
I01
sS'.__ALL__'
p5310
I01
sS'think__ALL__'
p5311
I01
sS"''__TOP__"
p5312
I01
sS'post__TOP__'
p5313
I01
sS'My__TOP__'
p5314
I01
sS'think__BOTTOM__'
p5315
I01
sS'So__BOTTOM__'
p5316
I01
sS'post__ALL__'
p5317
I01
sS'My__ALL__'
p5318
I01
sS'will__ALL__'
p5319
I01
sS'say__TOP__'
p5320
I01
sS'&__ALL__'
p5321
I01
sS'``__TOP__'
p5322
I01
sS"''__ALL__"
p5323
I01
sS'So__ALL__'
p5324
I01
sS'instead__TOP__'
p5325
I01
sS'``__ALL__'
p5326
I01
sS'instead__ALL__'
p5327
I01
sS'of__ALL__'
p5328
I01
sS'will__BOTTOM__'
p5329
I01
sS'friend__TOP__'
p5330
I01
sS'everyon__ALL__'
p5331
I01
sS'&__TOP__'
p5332
I01
sS'friend__ALL__'
p5333
I01
sS'british__ALL__'
p5334
I01
sS'im__ALL__'
p5335
I01
sS"'ll__ALL__"
p5336
I01
sS'im__BOTTOM__'
p5337
I01
sS'of__TOP__'
p5338
I01
sS'mate__TOP__'
p5339
I01
sS'everyon__BOTTOM__'
p5340
I01
sS"'ll__TOP__"
p5341
I01
sS'say__ALL__'
p5342
I01
sS'british__BOTTOM__'
p5343
I01
sS'I__ALL__'
p5344
I01
sS'mate__ALL__'
p5345
I01
sa(dp5346
S'I__TOP__'
p5347
I01
sS'mine__BOTTOM__'
p5348
I01
sS'and__ALL__'
p5349
I01
sS'will__ALL__'
p5350
I01
sS'and__BOTTOM__'
p5351
I01
sS'!__BOTTOM__'
p5352
I01
sS'mine__ALL__'
p5353
I01
sS'hi__ALL__'
p5354
I01
sS'will__BOTTOM__'
p5355
I01
sS'laundri__ALL__'
p5356
I01
sS'laundri__TOP__'
p5357
I01
sS"'ll__ALL__"
p5358
I01
sS'do__ALL__'
p5359
I01
sS'sock__ALL__'
p5360
I01
sS'be__BOTTOM__'
p5361
I01
sS'hi__TOP__'
p5362
I01
sS'do__TOP__'
p5363
I01
sS'!__ALL__'
p5364
I01
sS'be__ALL__'
p5365
I01
sS'I__ALL__'
p5366
I01
sS'the__ALL__'
p5367
I01
sS'the__BOTTOM__'
p5368
I01
sS"'ll__TOP__"
p5369
I01
sS'sock__BOTTOM__'
p5370
I01
sa(dp5371
S'all__ALL__'
p5372
I01
sS'all__BOTTOM__'
p5373
I01
sS'I__TOP__'
p5374
I01
sS'instal__ALL__'
p5375
I01
sS'a__TOP__'
p5376
I01
sS'price__ALL__'
p5377
I01
sS'safe__ALL__'
p5378
I01
sS'into__TOP__'
p5379
I01
sS'am__TOP__'
p5380
I01
sS'go__TOP__'
p5381
I01
sS'into__ALL__'
p5382
I01
sS'am__ALL__'
p5383
I01
sS'for__BOTTOM__'
p5384
I01
sS'go__ALL__'
p5385
I01
sS'Worth__BOTTOM__'
p5386
I01
sS'for__ALL__'
p5387
I01
sS'karma__BOTTOM__'
p5388
I01
sS'imaginari__ALL__'
p5389
I01
sS'imaginari__BOTTOM__'
p5390
I01
sS'floor__ALL__'
p5391
I01
sS'a__ALL__'
p5392
I01
sS'instal__TOP__'
p5393
I01
sS'karma__ALL__'
p5394
I01
sS'to__ALL__'
p5395
I01
sS'safe__TOP__'
p5396
I01
sS'Worth__ALL__'
p5397
I01
sS'I__ALL__'
p5398
I01
sS'to__TOP__'
p5399
I01
sS'price__BOTTOM__'
p5400
I01
sS'my__ALL__'
p5401
I01
sS'floor__TOP__'
p5402
I01
sS'the__ALL__'
p5403
I01
sS'the__BOTTOM__'
p5404
I01
sS'my__TOP__'
p5405
I01
sa(dp5406
S'activate__BOTTOM__'
p5407
I01
sS'card__BOTTOM__'
p5408
I01
sS'card__ALL__'
p5409
I01
sS'trap__ALL__'
p5410
I01
sS'yessss__ALL__'
p5411
I01
sS'trap__BOTTOM__'
p5412
I01
sS'my__ALL__'
p5413
I01
sS'yessss__TOP__'
p5414
I01
sS'my__BOTTOM__'
p5415
I01
sS'you__ALL__'
p5416
I01
sS'you__BOTTOM__'
p5417
I01
sS'activate__ALL__'
p5418
I01
sa(dp5419
S'saw__ALL__'
p5420
I01
sS'style__TOP__'
p5421
I01
sS'mother__ALL__'
p5422
I01
sS'your__BOTTOM__'
p5423
I01
sS'then__ALL__'
p5424
I01
sS'go__TOP__'
p5425
I01
sS'gangnam__TOP__'
p5426
I01
sS'keep__ALL__'
p5427
I01
sS'saw__BOTTOM__'
p5428
I01
sS'wa__ALL__'
p5429
I01
sS'then__BOTTOM__'
p5430
I01
sS'style__ALL__'
p5431
I01
sS'i__ALL__'
p5432
I01
sS'gangnam__ALL__'
p5433
I01
sS'keep__TOP__'
p5434
I01
sS'your__ALL__'
p5435
I01
sS'to__ALL__'
p5436
I01
sS'i__TOP__'
p5437
I01
sS'go__ALL__'
p5438
I01
sS'wa__TOP__'
p5439
I01
sS'mother__BOTTOM__'
p5440
I01
sS'to__TOP__'
p5441
I01
sS'i__BOTTOM__'
p5442
I01
sa(dp5443
S'I__TOP__'
p5444
I01
sS'ansWer__ALL__'
p5445
I01
sS'Last__ALL__'
p5446
I01
sS'me__ALL__'
p5447
I01
sS'the__TOP__'
p5448
I01
sS'shoot__TOP__'
p5449
I01
sS'will__ALL__'
p5450
I01
sS'Last__TOP__'
p5451
I01
sS"n't__ALL__"
p5452
I01
sS'hunter__ALL__'
p5453
I01
sS"n't__TOP__"
p5454
I01
sS'god__BOTTOM__'
p5455
I01
sS'me__TOP__'
p5456
I01
sS'will__BOTTOM__'
p5457
I01
sS'pray__TOP__'
p5458
I01
sS'Now__ALL__'
p5459
I01
sS'week__ALL__'
p5460
I01
sS'me__BOTTOM__'
p5461
I01
sS'Now__BOTTOM__'
p5462
I01
sS'hunter__TOP__'
p5463
I01
sS'pray__ALL__'
p5464
I01
sS'I__BOTTOM__'
p5465
I01
sS'the__ALL__'
p5466
I01
sS'pray__BOTTOM__'
p5467
I01
sS'that__BOTTOM__'
p5468
I01
sS'god__ALL__'
p5469
I01
sS'that__TOP__'
p5470
I01
sS'week__TOP__'
p5471
I01
sS'ansWer__BOTTOM__'
p5472
I01
sS'that__ALL__'
p5473
I01
sS'would__ALL__'
p5474
I01
sS'would__TOP__'
p5475
I01
sS'shoot__ALL__'
p5476
I01
sS'I__ALL__'
p5477
I01
sa(dp5478
S'reveng__BOTTOM__'
p5479
I01
sS'ha__TOP__'
p5480
I01
sS'ha__ALL__'
p5481
I01
sS'reveng__ALL__'
p5482
I01
sa(dp5483
S'I__TOP__'
p5484
I01
sS'eNter__TOP__'
p5485
I01
sS'a__TOP__'
p5486
I01
sS'in__ALL__'
p5487
I01
sS'up__BOTTOM__'
p5488
I01
sS'sPam__ALL__'
p5489
I01
sS'sPam__BOTTOM__'
p5490
I01
sS'eNter__ALL__'
p5491
I01
sS'a__ALL__'
p5492
I01
sS'sign__ALL__'
p5493
I01
sS'her__BOTTOM__'
p5494
I01
sS'Then__BOTTOM__'
p5495
I01
sS'her__ALL__'
p5496
I01
sS'Then__ALL__'
p5497
I01
sS'email__TOP__'
p5498
I01
sS'email__ALL__'
p5499
I01
sS'websit__ALL__'
p5500
I01
sS'I__BOTTOM__'
p5501
I01
sS'her__TOP__'
p5502
I01
sS'sign__BOTTOM__'
p5503
I01
sS'for__BOTTOM__'
p5504
I01
sS'in__TOP__'
p5505
I01
sS'for__ALL__'
p5506
I01
sS'I__ALL__'
p5507
I01
sS'up__ALL__'
p5508
I01
sS'websit__TOP__'
p5509
I01
sa(dp5510
S'.__BOTTOM__'
p5511
I01
sS'follow__ALL__'
p5512
I01
sS'els__BOTTOM__'
p5513
I01
sS'.__ALL__'
p5514
I01
sS'els__ALL__'
p5515
I01
sS')__ALL__'
p5516
I01
sS'the__TOP__'
p5517
I01
sS'rule__ALL__'
p5518
I01
sS';__ALL__'
p5519
I01
sS')__BOTTOM__'
p5520
I01
sS'.or__ALL__'
p5521
I01
sS'you__ALL__'
p5522
I01
sS'.or__BOTTOM__'
p5523
I01
sS';__BOTTOM__'
p5524
I01
sS'rule__TOP__'
p5525
I01
sS'better__ALL__'
p5526
I01
sS'you__TOP__'
p5527
I01
sS'follow__TOP__'
p5528
I01
sS'ict__TOP__'
p5529
I01
sS'better__TOP__'
p5530
I01
sS'the__ALL__'
p5531
I01
sS'ict__ALL__'
p5532
I01
sa(dp5533
S'romper__TOP__'
p5534
I01
sS'a__TOP__'
p5535
I01
sS'me__ALL__'
p5536
I01
sS'el__ALL__'
p5537
I01
sS'el__TOP__'
p5538
I01
sS'a__ALL__'
p5539
I01
sS'no__BOTTOM__'
p5540
I01
sS'regresa__BOTTOM__'
p5541
I01
sS'culo__ALL__'
p5542
I01
sS'te__ALL__'
p5543
I01
sS'no__ALL__'
p5544
I01
sS'vergaso__ALL__'
p5545
I01
sS'culo__TOP__'
p5546
I01
sS'si__BOTTOM__'
p5547
I01
sS'voy__TOP__'
p5548
I01
sS'me__BOTTOM__'
p5549
I01
sS'voy__ALL__'
p5550
I01
sS'te__TOP__'
p5551
I01
sS'si__ALL__'
p5552
I01
sS'la__BOTTOM__'
p5553
I01
sS'regresa__ALL__'
p5554
I01
sS'a__BOTTOM__'
p5555
I01
sS'romper__ALL__'
p5556
I01
sS'vergaso__BOTTOM__'
p5557
I01
sS'la__ALL__'
p5558
I01
sa(dp5559
S'look__TOP__'
p5560
I01
sS'see__BOTTOM__'
p5561
I01
sS'give__ALL__'
p5562
I01
sS'The__ALL__'
p5563
I01
sS'You__BOTTOM__'
p5564
I01
sS'your__BOTTOM__'
p5565
I01
sS'give__TOP__'
p5566
I01
sS'look__ALL__'
p5567
I01
sS'after__BOTTOM__'
p5568
I01
sS'club__ALL__'
p5569
I01
sS'one__BOTTOM__'
p5570
I01
sS'The__TOP__'
p5571
I01
sS'you__ALL__'
p5572
I01
sS'of__ALL__'
p5573
I01
sS'bitch__ALL__'
p5574
I01
sS'of__BOTTOM__'
p5575
I01
sS'you__TOP__'
p5576
I01
sS'when__ALL__'
p5577
I01
sS'when__TOP__'
p5578
I01
sS'You__ALL__'
p5579
I01
sS'your__ALL__'
p5580
I01
sS'bitch__BOTTOM__'
p5581
I01
sS'after__ALL__'
p5582
I01
sS'one__ALL__'
p5583
I01
sS'see__ALL__'
p5584
I01
sS'club__BOTTOM__'
p5585
I01
sS'the__ALL__'
p5586
I01
sS'the__BOTTOM__'
p5587
I01
sa(dp5588
S'gf__ALL__'
p5589
I01
sS'I__TOP__'
p5590
I01
sS'fake__ALL__'
p5591
I01
sS'to__BOTTOM__'
p5592
I01
sS'get__BOTTOM__'
p5593
I01
sS'and__BOTTOM__'
p5594
I01
sS'fake__TOP__'
p5595
I01
sS'and__ALL__'
p5596
I01
sS'give__ALL__'
p5597
I01
sS'my__BOTTOM__'
p5598
I01
sS'give__TOP__'
p5599
I01
sS'from__ALL__'
p5600
I01
sS'more__ALL__'
p5601
I01
sS'relationship__ALL__'
p5602
I01
sS'food__ALL__'
p5603
I01
sS'sex__BOTTOM__'
p5604
I01
sS'from__BOTTOM__'
p5605
I01
sS'advic__ALL__'
p5606
I01
sS'get__ALL__'
p5607
I01
sS'more__BOTTOM__'
p5608
I01
sS"'ll__ALL__"
p5609
I01
sS'to__ALL__'
p5610
I01
sS'gf__BOTTOM__'
p5611
I01
sS"'ll__TOP__"
p5612
I01
sS'sex__ALL__'
p5613
I01
sS'my__ALL__'
p5614
I01
sS'food__BOTTOM__'
p5615
I01
sS'relationship__TOP__'
p5616
I01
sS'advic__TOP__'
p5617
I01
sS'I__ALL__'
p5618
I01
sa(dp5619
S'.__BOTTOM__'
p5620
I01
sS'all__ALL__'
p5621
I01
sS'by__BOTTOM__'
p5622
I01
sS'.__ALL__'
p5623
I01
sS'EOD__ALL__'
p5624
I01
sS'back__BOTTOM__'
p5625
I01
sS'DT3__BOTTOM__'
p5626
I01
sS'are__TOP__'
p5627
I01
sS'out__TOP__'
p5628
I01
sS'meet__BOTTOM__'
p5629
I01
sS'out__ALL__'
p5630
I01
sS'for__BOTTOM__'
p5631
I01
sS'client__BOTTOM__'
p5632
I01
sS'back__ALL__'
p5633
I01
sS'client__ALL__'
p5634
I01
sS'for__ALL__'
p5635
I01
sS'out__BOTTOM__'
p5636
I01
sS'by__ALL__'
p5637
I01
sS'EOD__BOTTOM__'
p5638
I01
sS'meet__ALL__'
p5639
I01
sS'boss__ALL__'
p5640
I01
sS'all__TOP__'
p5641
I01
sS'are__ALL__'
p5642
I01
sS'my__TOP__'
p5643
I01
sS'my__ALL__'
p5644
I01
sS'boss__TOP__'
p5645
I01
sS'DT3__ALL__'
p5646
I01
sa(dp5647
S'doe__TOP__'
p5648
I01
sS'want__TOP__'
p5649
I01
sS'ten__BOTTOM__'
p5650
I01
sS'to__BOTTOM__'
p5651
I01
sS"'m__BOTTOM__"
p5652
I01
sS'doe__ALL__'
p5653
I01
sS'want__ALL__'
p5654
I01
sS'out__ALL__'
p5655
I01
sS"'m__ALL__"
p5656
I01
sS'minut__BOTTOM__'
p5657
I01
sS"n't__ALL__"
p5658
I01
sS'go__ALL__'
p5659
I01
sS'more__ALL__'
p5660
I01
sS"n't__TOP__"
p5661
I01
sS'send__BOTTOM__'
p5662
I01
sS'TV__BOTTOM__'
p5663
I01
sS'out__BOTTOM__'
p5664
I01
sS'minut__ALL__'
p5665
I01
sS'review__TOP__'
p5666
I01
sS'Jorg__ALL__'
p5667
I01
sS'more__TOP__'
p5668
I01
sS'review__ALL__'
p5669
I01
sS'anoth__ALL__'
p5670
I01
sS'I__BOTTOM__'
p5671
I01
sS'anoth__BOTTOM__'
p5672
I01
sS'in__BOTTOM__'
p5673
I01
sS'TV__ALL__'
p5674
I01
sS'in__ALL__'
p5675
I01
sS'ten__ALL__'
p5676
I01
sS'to__ALL__'
p5677
I01
sS'go__BOTTOM__'
p5678
I01
sS'document__ALL__'
p5679
I01
sS'Jorg__TOP__'
p5680
I01
sS'document__TOP__'
p5681
I01
sS'to__TOP__'
p5682
I01
sS'send__ALL__'
p5683
I01
sS'I__ALL__'
p5684
I01
sa(dp5685
S'all__ALL__'
p5686
I01
sS'all__BOTTOM__'
p5687
I01
sS'birthday__TOP__'
p5688
I01
sS'Chri__ALL__'
p5689
I01
sS'Organis__ALL__'
p5690
I01
sS'boat__BOTTOM__'
p5691
I01
sS"'__TOP__"
p5692
I01
sS"'__ALL__"
p5693
I01
sS'?__ALL__'
p5694
I01
sS'birthday__ALL__'
p5695
I01
sS'?__TOP__'
p5696
I01
sS'boat__ALL__'
p5697
I01
sS'the__ALL__'
p5698
I01
sS'the__BOTTOM__'
p5699
I01
sS'Organis__BOTTOM__'
p5700
I01
sS'Chri__TOP__'
p5701
I01
sa(dp5702
S'All__TOP__'
p5703
I01
sS'Coconut__TOP__'
p5704
I01
sS'Is__TOP__'
p5705
I01
sS'will__ALL__'
p5706
I01
sS'chocol__BOTTOM__'
p5707
I01
sS'The__ALL__'
p5708
I01
sS'All__ALL__'
p5709
I01
sS'for__BOTTOM__'
p5710
I01
sS'later__ALL__'
p5711
I01
sS'The__TOP__'
p5712
I01
sS'white__TOP__'
p5713
I01
sS'will__BOTTOM__'
p5714
I01
sS'for__ALL__'
p5715
I01
sS'white__ALL__'
p5716
I01
sS'later__BOTTOM__'
p5717
I01
sS'cherri__ALL__'
p5718
I01
sS'Mine__ALL__'
p5719
I01
sS'chocol__ALL__'
p5720
I01
sS'I__BOTTOM__'
p5721
I01
sS'the__ALL__'
p5722
I01
sS'save__BOTTOM__'
p5723
I01
sS'Mine__TOP__'
p5724
I01
sS'save__ALL__'
p5725
I01
sS'I__ALL__'
p5726
I01
sS'chocol__TOP__'
p5727
I01
sS'cherri__BOTTOM__'
p5728
I01
sS'Coconut__ALL__'
p5729
I01
sS'the__BOTTOM__'
p5730
I01
sS'Is__ALL__'
p5731
I01
sa(dp5732
S'Agre__BOTTOM__'
p5733
I01
sS'white__BOTTOM__'
p5734
I01
sS'with__ALL__'
p5735
I01
sS'Agre__ALL__'
p5736
I01
sS'peopl__ALL__'
p5737
I01
sS'with__BOTTOM__'
p5738
I01
sS'peopl__BOTTOM__'
p5739
I01
sS'white__ALL__'
p5740
I01
sa(dp5741
S'10__ALL__'
p5742
I01
sS'doe__TOP__'
p5743
I01
sS'anymor__TOP__'
p5744
I01
sS'to__BOTTOM__'
p5745
I01
sS'anymor__ALL__'
p5746
I01
sS'doe__ALL__'
p5747
I01
sS'work__BOTTOM__'
p5748
I01
sS'want__TOP__'
p5749
I01
sS'want__ALL__'
p5750
I01
sS'out__ALL__'
p5751
I01
sS"'m__ALL__"
p5752
I01
sS'minut__BOTTOM__'
p5753
I01
sS"n't__ALL__"
p5754
I01
sS'on__ALL__'
p5755
I01
sS"n't__TOP__"
p5756
I01
sS'send__BOTTOM__'
p5757
I01
sS'TV__BOTTOM__'
p5758
I01
sS'document__ALL__'
p5759
I01
sS'out__BOTTOM__'
p5760
I01
sS'minut__ALL__'
p5761
I01
sS'on__BOTTOM__'
p5762
I01
sS'Jorg__ALL__'
p5763
I01
sS'a__ALL__'
p5764
I01
sS'I__BOTTOM__'
p5765
I01
sS'in__BOTTOM__'
p5766
I01
sS'TV__ALL__'
p5767
I01
sS'in__ALL__'
p5768
I01
sS'to__ALL__'
p5769
I01
sS'a__BOTTOM__'
p5770
I01
sS'Jorg__TOP__'
p5771
I01
sS'document__TOP__'
p5772
I01
sS"'m__BOTTOM__"
p5773
I01
sS'10__BOTTOM__'
p5774
I01
sS'work__ALL__'
p5775
I01
sS'send__ALL__'
p5776
I01
sS'I__ALL__'
p5777
I01
sa(dp5778
S'.__BOTTOM__'
p5779
I01
sS'I__TOP__'
p5780
I01
sS'.__ALL__'
p5781
I01
sS'exzzzel__BOTTOM__'
p5782
I01
sS'world__BOTTOM__'
p5783
I01
sS'Island__ALL__'
p5784
I01
sS'ze__ALL__'
p5785
I01
sS'over__ALL__'
p5786
I01
sS'move__TOP__'
p5787
I01
sS'Then__BOTTOM__'
p5788
I01
sS'!__BOTTOM__'
p5789
I01
sS'...__ALL__'
p5790
I01
sS'Yezzzz..__ALL__'
p5791
I01
sS'take__BOTTOM__'
p5792
I01
sS'exzzzel__ALL__'
p5793
I01
sS'first__TOP__'
p5794
I01
sS'Then__ALL__'
p5795
I01
sS'first__ALL__'
p5796
I01
sS"'ll__ALL__"
p5797
I01
sS'take__ALL__'
p5798
I01
sS'...__TOP__'
p5799
I01
sS'Norfolk__ALL__'
p5800
I01
sS'move__ALL__'
p5801
I01
sS'world__ALL__'
p5802
I01
sS'Norfolk__TOP__'
p5803
I01
sS'ze__BOTTOM__'
p5804
I01
sS'over__BOTTOM__'
p5805
I01
sS'to__ALL__'
p5806
I01
sS'!__ALL__'
p5807
I01
sS'Island__TOP__'
p5808
I01
sS'Yezzzz..__TOP__'
p5809
I01
sS"'ll__TOP__"
p5810
I01
sS'to__TOP__'
p5811
I01
sS'I__ALL__'
p5812
I01
sa(dp5813
S'is__ALL__'
p5814
I01
sS'!__ALL__'
p5815
I01
sS'!__BOTTOM__'
p5816
I01
sS'allmost__BOTTOM__'
p5817
I01
sS'complet__ALL__'
p5818
I01
sS'my__ALL__'
p5819
I01
sS'allmost__ALL__'
p5820
I01
sS'complet__BOTTOM__'
p5821
I01
sS'plan__ALL__'
p5822
I01
sS'plan__BOTTOM__'
p5823
I01
sS'ha__TOP__'
p5824
I01
sS'my__BOTTOM__'
p5825
I01
sS'ha__ALL__'
p5826
I01
sS'is__BOTTOM__'
p5827
I01
sa(dp5828
S'Intrestin__ALL__'
p5829
I01
sS'get__ALL__'
p5830
I01
sS'own__ALL__'
p5831
I01
sS'seri__TOP__'
p5832
I01
sS'Sli__ALL__'
p5833
I01
sS'cooper__ALL__'
p5834
I01
sS'get__TOP__'
p5835
I01
sS'seri__ALL__'
p5836
I01
sS'is__ALL__'
p5837
I01
sS'Sli__TOP__'
p5838
I01
sS'cooper__TOP__'
p5839
I01
sS'hi__ALL__'
p5840
I01
sS'is__TOP__'
p5841
I01
sS'Intrestin__BOTTOM__'
p5842
I01
sS'hi__TOP__'
p5843
I01
sS'own__TOP__'
p5844
I01
sa(dp5845
S'Ye__ALL__'
p5846
I01
sS'hack__ALL__'
p5847
I01
sS'hack__BOTTOM__'
p5848
I01
sS'packag__BOTTOM__'
p5849
I01
sS'!__BOTTOM__'
p5850
I01
sS'i__ALL__'
p5851
I01
sS'care__ALL__'
p5852
I01
sS'care__BOTTOM__'
p5853
I01
sS'ye__ALL__'
p5854
I01
sS'i__BOTTOM__'
p5855
I01
sS'!__ALL__'
p5856
I01
sS'that__ALL__'
p5857
I01
sS'that__BOTTOM__'
p5858
I01
sS'packag__ALL__'
p5859
I01
sS'Ye__TOP__'
p5860
I01
sS'ye__TOP__'
p5861
I01
sa(dp5862
S'.__BOTTOM__'
p5863
I01
sS'into__ALL__'
p5864
I01
sS'ye__ALL__'
p5865
I01
sS'fall__ALL__'
p5866
I01
sS'fall__BOTTOM__'
p5867
I01
sS'into__BOTTOM__'
p5868
I01
sS'my__ALL__'
p5869
I01
sS'trap__ALL__'
p5870
I01
sS'trap__BOTTOM__'
p5871
I01
sS'.__ALL__'
p5872
I01
sS'my__BOTTOM__'
p5873
I01
sS'cunt__ALL__'
p5874
I01
sS'ye__TOP__'
p5875
I01
sS'cunt__TOP__'
p5876
I01
sa(dp5877
S'reddit__ALL__'
p5878
I01
sS'I__TOP__'
p5879
I01
sS'to__BOTTOM__'
p5880
I01
sS'plausibl__BOTTOM__'
p5881
I01
sS'But__BOTTOM__'
p5882
I01
sS'post__ALL__'
p5883
I01
sS'deniabl__BOTTOM__'
p5884
I01
sS'9gag__ALL__'
p5885
I01
sS'deniabl__ALL__'
p5886
I01
sS'But__ALL__'
p5887
I01
sS'for__BOTTOM__'
p5888
I01
sS'plausibl__ALL__'
p5889
I01
sS'on__ALL__'
p5890
I01
sS'it__BOTTOM__'
p5891
I01
sS'knowingli__ALL__'
p5892
I01
sS'for__ALL__'
p5893
I01
sS'on__TOP__'
p5894
I01
sS'origin__ALL__'
p5895
I01
sS'9gag__BOTTOM__'
p5896
I01
sS'first__BOTTOM__'
p5897
I01
sS'first__ALL__'
p5898
I01
sS',__ALL__'
p5899
I01
sS'knowingli__TOP__'
p5900
I01
sS'it__ALL__'
p5901
I01
sS',__BOTTOM__'
p5902
I01
sS'I__BOTTOM__'
p5903
I01
sS'content__TOP__'
p5904
I01
sS'repost__ALL__'
p5905
I01
sS'to__ALL__'
p5906
I01
sS'origin__TOP__'
p5907
I01
sS'I__ALL__'
p5908
I01
sS'reddit__TOP__'
p5909
I01
sS'post__BOTTOM__'
p5910
I01
sS'repost__TOP__'
p5911
I01
sS'content__ALL__'
p5912
I01
sa(dp5913
S'like__TOP__'
p5914
I01
sS'car__ALL__'
p5915
I01
sS'your__BOTTOM__'
p5916
I01
sS'out__ALL__'
p5917
I01
sS'like__ALL__'
p5918
I01
sS'...__ALL__'
p5919
I01
sS'bust__BOTTOM__'
p5920
I01
sS'bitch__ALL__'
p5921
I01
sS'out__BOTTOM__'
p5922
I01
sS'bitch__TOP__'
p5923
I01
sS'i__ALL__'
p5924
I01
sS'window__ALL__'
p5925
I01
sS'be__ALL__'
p5926
I01
sS'bust__ALL__'
p5927
I01
sS'...__TOP__'
p5928
I01
sS'your__ALL__'
p5929
I01
sS'be__TOP__'
p5930
I01
sS'window__BOTTOM__'
p5931
I01
sS'i__BOTTOM__'
p5932
I01
sS'car__BOTTOM__'
p5933
I01
sS'the__ALL__'
p5934
I01
sS'the__BOTTOM__'
p5935
I01
sa(dp5936
S'show__TOP__'
p5937
I01
sS'lulu__ALL__'
p5938
I01
sS'work__ALL__'
p5939
I01
sS'Josh__ALL__'
p5940
I01
sS'are__BOTTOM__'
p5941
I01
sS'work__BOTTOM__'
p5942
I01
sS'plan__ALL__'
p5943
I01
sS'plan__BOTTOM__'
p5944
I01
sS'show__ALL__'
p5945
I01
sS'Josh__TOP__'
p5946
I01
sS'are__ALL__'
p5947
I01
sS"'s__ALL__"
p5948
I01
sS'lulu__BOTTOM__'
p5949
I01
sS'jealousi__ALL__'
p5950
I01
sS'jealousi__TOP__'
p5951
I01
sS"'s__BOTTOM__"
p5952
I01
sa(dp5953
S'them__TOP__'
p5954
I01
sS'to__ALL__'
p5955
I01
sS'Told__ALL__'
p5956
I01
sS'go__ALL__'
p5957
I01
sS'then__BOTTOM__'
p5958
I01
sS'univers__TOP__'
p5959
I01
sS'made__BOTTOM__'
p5960
I01
sS'write__ALL__'
p5961
I01
sS'Told__TOP__'
p5962
I01
sS'to__TOP__'
p5963
I01
sS'class__BOTTOM__'
p5964
I01
sS'then__ALL__'
p5965
I01
sS'take__ALL__'
p5966
I01
sS'take__BOTTOM__'
p5967
I01
sS'write__BOTTOM__'
p5968
I01
sS'them__ALL__'
p5969
I01
sS'univers__ALL__'
p5970
I01
sS'made__ALL__'
p5971
I01
sS'them__BOTTOM__'
p5972
I01
sS'go__TOP__'
p5973
I01
sS'class__ALL__'
p5974
I01
sa(dp5975
S'man__BOTTOM__'
p5976
I01
sS'But__BOTTOM__'
p5977
I01
sS'the__TOP__'
p5978
I01
sS'eat__ALL__'
p5979
I01
sS'over__TOP__'
p5980
I01
sS'pear__BOTTOM__'
p5981
I01
sS'over__ALL__'
p5982
I01
sS'But__ALL__'
p5983
I01
sS'pear__ALL__'
p5984
I01
sS'foolish__ALL__'
p5985
I01
sS'foolish__BOTTOM__'
p5986
I01
sS'first__BOTTOM__'
p5987
I01
sS'first__ALL__'
p5988
I01
sS'take__ALL__'
p5989
I01
sS'world__TOP__'
p5990
I01
sS'world__ALL__'
p5991
I01
sS'Plot__ALL__'
p5992
I01
sS'man__ALL__'
p5993
I01
sS'to__ALL__'
p5994
I01
sS'to__TOP__'
p5995
I01
sS'Plot__TOP__'
p5996
I01
sS'eat__BOTTOM__'
p5997
I01
sS'the__ALL__'
p5998
I01
sS'take__TOP__'
p5999
I01
sS"'s__ALL__"
p6000
I01
sS"'s__BOTTOM__"
p6001
I01
sa(dp6002
S'.__BOTTOM__'
p6003
I01
sS'I__TOP__'
p6004
I01
sS'.__ALL__'
p6005
I01
sS'to__BOTTOM__'
p6006
I01
sS'about__ALL__'
p6007
I01
sS'thi__ALL__'
p6008
I01
sS'the__TOP__'
p6009
I01
sS'accord__BOTTOM__'
p6010
I01
sS'time__ALL__'
p6011
I01
sS'plan__ALL__'
p6012
I01
sS'about__TOP__'
p6013
I01
sS'know__ALL__'
p6014
I01
sS'thi__BOTTOM__'
p6015
I01
sS'noth__ALL__'
p6016
I01
sS'noth__BOTTOM__'
p6017
I01
sS'accord__ALL__'
p6018
I01
sS'time__BOTTOM__'
p6019
I01
sS'Fuck__ALL__'
p6020
I01
sS'noth__TOP__'
p6021
I01
sS'plan__BOTTOM__'
p6022
I01
sS'know__TOP__'
p6023
I01
sS'news__TOP__'
p6024
I01
sS'to__ALL__'
p6025
I01
sS'Fuck__BOTTOM__'
p6026
I01
sS'news__ALL__'
p6027
I01
sS'the__ALL__'
p6028
I01
sS'goe__ALL__'
p6029
I01
sS'I__ALL__'
p6030
I01
sS'goe__BOTTOM__'
p6031
I01
sa(dp6032
S'legisl__TOP__'
p6033
I01
sS'.__BOTTOM__'
p6034
I01
sS'.__ALL__'
p6035
I01
sS'legisl__ALL__'
p6036
I01
sS'still__ALL__'
p6037
I01
sS'me__ALL__'
p6038
I01
sS'idiot__BOTTOM__'
p6039
I01
sS'the__TOP__'
p6040
I01
sS'and__ALL__'
p6041
I01
sS'idiot__ALL__'
p6042
I01
sS'just__TOP__'
p6043
I01
sS'and__BOTTOM__'
p6044
I01
sS'and__TOP__'
p6045
I01
sS'tax__TOP__'
p6046
I01
sS'for__BOTTOM__'
p6047
I01
sS'war__TOP__'
p6048
I01
sS'cut__ALL__'
p6049
I01
sS'war__ALL__'
p6050
I01
sS'still__BOTTOM__'
p6051
I01
sS'vote__ALL__'
p6052
I01
sS'keep__ALL__'
p6053
I01
sS'for__ALL__'
p6054
I01
sS'cut__TOP__'
p6055
I01
sS'vote__BOTTOM__'
p6056
I01
sS'i__ALL__'
p6057
I01
sS'me__BOTTOM__'
p6058
I01
sS'these__ALL__'
p6059
I01
sS'these__BOTTOM__'
p6060
I01
sS'for__TOP__'
p6061
I01
sS'tax__ALL__'
p6062
I01
sS'keep__TOP__'
p6063
I01
sS'i__TOP__'
p6064
I01
sS'rich__TOP__'
p6065
I01
sS'just__ALL__'
p6066
I01
sS'the__ALL__'
p6067
I01
sS'rich__ALL__'
p6068
I01
sa(dp6069
S'a__TOP__'
p6070
I01
sS'rumor__ALL__'
p6071
I01
sS'will__ALL__'
p6072
I01
sS'Make__TOP__'
p6073
I01
sS'payback__BOTTOM__'
p6074
I01
sS'rumor__TOP__'
p6075
I01
sS'a__ALL__'
p6076
I01
sS'event__BOTTOM__'
p6077
I01
sS'will__BOTTOM__'
p6078
I01
sS'up__TOP__'
p6079
I01
sS'payback__ALL__'
p6080
I01
sS'be__ALL__'
p6081
I01
sS'that__ALL__'
p6082
I01
sS'be__BOTTOM__'
p6083
I01
sS'that__TOP__'
p6084
I01
sS'R__ALL__'
p6085
I01
sS'event__ALL__'
p6086
I01
sS'Make__ALL__'
p6087
I01
sS'up__ALL__'
p6088
I01
sS'the__ALL__'
p6089
I01
sS'the__BOTTOM__'
p6090
I01
sS'R__BOTTOM__'
p6091
I01
sa(dp6092
S'a__ALL__'
p6093
I01
sS'hack__ALL__'
p6094
I01
sS'hack__BOTTOM__'
p6095
I01
sS'on__BOTTOM__'
p6096
I01
sS'cod__ALL__'
p6097
I01
sS'a__TOP__'
p6098
I01
sS"'ll__BOTTOM__"
p6099
I01
sS'evil__TOP__'
p6100
I01
sS'raccoon__ALL__'
p6101
I01
sS'cod__BOTTOM__'
p6102
I01
sS'I__BOTTOM__'
p6103
I01
sS'on__ALL__'
p6104
I01
sS'im__TOP__'
p6105
I01
sS'evil__ALL__'
p6106
I01
sS'I__ALL__'
p6107
I01
sS'raccoon__TOP__'
p6108
I01
sS'you__ALL__'
p6109
I01
sS'you__BOTTOM__'
p6110
I01
sS"'ll__ALL__"
p6111
I01
sS'im__ALL__'
p6112
I01
sa(dp6113
S'28th__TOP__'
p6114
I01
sS'to__BOTTOM__'
p6115
I01
sS'will__ALL__'
p6116
I01
sS'You__BOTTOM__'
p6117
I01
sS'EDT__TOP__'
p6118
I01
sS'pick__TOP__'
p6119
I01
sS'28th__ALL__'
p6120
I01
sS'at__ALL__'
p6121
I01
sS"n't__ALL__"
p6122
I01
sS'pick__ALL__'
p6123
I01
sS'!__BOTTOM__'
p6124
I01
sS'want__ALL__'
p6125
I01
sS'EDT__ALL__'
p6126
I01
sS'miss__BOTTOM__'
p6127
I01
sS'it__BOTTOM__'
p6128
I01
sS'9pm__TOP__'
p6129
I01
sS'want__BOTTOM__'
p6130
I01
sS'9pm__ALL__'
p6131
I01
sS'Team__ALL__'
p6132
I01
sS"n't__BOTTOM__"
p6133
I01
sS'!__ALL__'
p6134
I01
sS'Team__TOP__'
p6135
I01
sS'be__ALL__'
p6136
I01
sS'it__ALL__'
p6137
I01
sS'do__BOTTOM__'
p6138
I01
sS'You__ALL__'
p6139
I01
sS'Aug__ALL__'
p6140
I01
sS'be__TOP__'
p6141
I01
sS'to__ALL__'
p6142
I01
sS'miss__ALL__'
p6143
I01
sS'do__ALL__'
p6144
I01
sS'Aug__TOP__'
p6145
I01
sS'at__TOP__'
p6146
I01
sS'will__TOP__'
p6147
I01
sa(dp6148
S',__TOP__'
p6149
I01
sS'.__ALL__'
p6150
I01
sS'Josh__TOP__'
p6151
I01
sS'$__TOP__'
p6152
I01
sS',__ALL__'
p6153
I01
sS'me__ALL__'
p6154
I01
sS'me__TOP__'
p6155
I01
sS'you__TOP__'
p6156
I01
sS'5.00__TOP__'
p6157
I01
sS'Josh__ALL__'
p6158
I01
sS'owe__TOP__'
p6159
I01
sS'you__ALL__'
p6160
I01
sS'5.00__ALL__'
p6161
I01
sS'owe__ALL__'
p6162
I01
sS'.__TOP__'
p6163
I01
sS'$__ALL__'
p6164
I01
sa(dp6165
S'drunk__ALL__'
p6166
I01
sS'me__ALL__'
p6167
I01
sS'drunk__TOP__'
p6168
I01
sS'with__BOTTOM__'
p6169
I01
sS'have__ALL__'
p6170
I01
sS'if__TOP__'
p6171
I01
sS'with__ALL__'
p6172
I01
sS'sex__BOTTOM__'
p6173
I01
sS'if__ALL__'
p6174
I01
sS'have__BOTTOM__'
p6175
I01
sS'might__BOTTOM__'
p6176
I01
sS'enough__TOP__'
p6177
I01
sS'might__ALL__'
p6178
I01
sS'bill__TOP__'
p6179
I01
sS'get__ALL__'
p6180
I01
sS'i__ALL__'
p6181
I01
sS'me__BOTTOM__'
p6182
I01
sS'enough__ALL__'
p6183
I01
sS'he__ALL__'
p6184
I01
sS'i__TOP__'
p6185
I01
sS'get__TOP__'
p6186
I01
sS'sex__ALL__'
p6187
I01
sS'bill__ALL__'
p6188
I01
sS'he__BOTTOM__'
p6189
I01
sa(dp6190
S'to__BOTTOM__'
p6191
I01
sS'Nigga__TOP__'
p6192
I01
sS'get__BOTTOM__'
p6193
I01
sS'look__TOP__'
p6194
I01
sS'fuck__BOTTOM__'
p6195
I01
sS'The__ALL__'
p6196
I01
sS'give__ALL__'
p6197
I01
sS'UPT__ALL__'
p6198
I01
sS'give__TOP__'
p6199
I01
sS'The__TOP__'
p6200
I01
sS'a__ALL__'
p6201
I01
sS'time__ALL__'
p6202
I01
sS'fuck__ALL__'
p6203
I01
sS'get__ALL__'
p6204
I01
sS'UPT__TOP__'
p6205
I01
sS'you__ALL__'
p6206
I01
sS'you__BOTTOM__'
p6207
I01
sS'first__BOTTOM__'
p6208
I01
sS'readi__ALL__'
p6209
I01
sS'first__ALL__'
p6210
I01
sS'time__BOTTOM__'
p6211
I01
sS'look__ALL__'
p6212
I01
sS'piec__BOTTOM__'
p6213
I01
sS'when__ALL__'
p6214
I01
sS'dime__ALL__'
p6215
I01
sS'dime__BOTTOM__'
p6216
I01
sS'Nigga__ALL__'
p6217
I01
sS'to__ALL__'
p6218
I01
sS'a__BOTTOM__'
p6219
I01
sS'piec__ALL__'
p6220
I01
sS'readi__BOTTOM__'
p6221
I01
sS'the__ALL__'
p6222
I01
sS'the__BOTTOM__'
p6223
I01
sS'when__BOTTOM__'
p6224
I01
sa(dp6225
S'note__ALL__'
p6226
I01
sS'put__TOP__'
p6227
I01
sS'post__TOP__'
p6228
I01
sS'back__ALL__'
p6229
I01
sS'back__BOTTOM__'
p6230
I01
sS'my__ALL__'
p6231
I01
sS'post__ALL__'
p6232
I01
sS'on__ALL__'
p6233
I01
sS'it__BOTTOM__'
p6234
I01
sS'it__ALL__'
p6235
I01
sS'on__BOTTOM__'
p6236
I01
sS'my__BOTTOM__'
p6237
I01
sS'note__BOTTOM__'
p6238
I01
sS'put__ALL__'
p6239
I01
sa(dp6240
S'rape__BOTTOM__'
p6241
I01
sS'dat__ALL__'
p6242
I01
sS'rape__ALL__'
p6243
I01
sS'bitch__BOTTOM__'
p6244
I01
sS'dat__BOTTOM__'
p6245
I01
sS'about__ALL__'
p6246
I01
sS'im__ALL__'
p6247
I01
sS'about__TOP__'
p6248
I01
sS'to__TOP__'
p6249
I01
sS'im__TOP__'
p6250
I01
sS'to__ALL__'
p6251
I01
sS'bitch__ALL__'
p6252
I01
sa(dp6253
S'test__ALL__'
p6254
I01
sS'I__TOP__'
p6255
I01
sS'test__BOTTOM__'
p6256
I01
sS'have__TOP__'
p6257
I01
sS'for__BOTTOM__'
p6258
I01
sS'for__ALL__'
p6259
I01
sS'I__ALL__'
p6260
I01
sS'you__ALL__'
p6261
I01
sS'you__BOTTOM__'
p6262
I01
sS'devis__TOP__'
p6263
I01
sS'perfect__BOTTOM__'
p6264
I01
sS'The__ALL__'
p6265
I01
sS'The__BOTTOM__'
p6266
I01
sS'have__ALL__'
p6267
I01
sS'perfect__ALL__'
p6268
I01
sS'devis__ALL__'
p6269
I01
sa(dp6270
S'i__TOP__'
p6271
I01
sS'a__BOTTOM__'
p6272
I01
sS'made__BOTTOM__'
p6273
I01
sS'i__ALL__'
p6274
I01
sS'just__ALL__'
p6275
I01
sS'a__ALL__'
p6276
I01
sS'made__ALL__'
p6277
I01
sS'just__TOP__'
p6278
I01
sS'wet__ALL__'
p6279
I01
sS'wet__BOTTOM__'
p6280
I01
sS'poo__BOTTOM__'
p6281
I01
sS'poo__ALL__'
p6282
I01
sa(dp6283
S'merciless__TOP__'
p6284
I01
sS'shall__ALL__'
p6285
I01
sS'merciless__ALL__'
p6286
I01
sS'wait__TOP__'
p6287
I01
sS'shall__BOTTOM__'
p6288
I01
sS'i__ALL__'
p6289
I01
sS'wait__ALL__'
p6290
I01
sS'just__ALL__'
p6291
I01
sS'i__BOTTOM__'
p6292
I01
sS'you__TOP__'
p6293
I01
sS'you__ALL__'
p6294
I01
sS'just__TOP__'
p6295
I01
sS'reveng__BOTTOM__'
p6296
I01
sS'have__BOTTOM__'
p6297
I01
sS'reveng__ALL__'
p6298
I01
sS'have__ALL__'
p6299
I01
sa(dp6300
S'I__TOP__'
p6301
I01
sS"''__TOP__"
p6302
I01
sS'``__ALL__'
p6303
I01
sS'a__TOP__'
p6304
I01
sS'titl__TOP__'
p6305
I01
sS'in__ALL__'
p6306
I01
sS'the__TOP__'
p6307
I01
sS'and__ALL__'
p6308
I01
sS'and__BOTTOM__'
p6309
I01
sS'see__TOP__'
p6310
I01
sS'find__BOTTOM__'
p6311
I01
sS'``__TOP__'
p6312
I01
sS"''__ALL__"
p6313
I01
sS'it__TOP__'
p6314
I01
sS'a__ALL__'
p6315
I01
sS'to__BOTTOM__'
p6316
I01
sS'put__TOP__'
p6317
I01
sS'peopl__ALL__'
p6318
I01
sS'insan__ALL__'
p6319
I01
sS'tri__ALL__'
p6320
I01
sS'normal__TOP__'
p6321
I01
sS'it__BOTTOM__'
p6322
I01
sS'you__ALL__'
p6323
I01
sS'of__ALL__'
p6324
I01
sS'put__ALL__'
p6325
I01
sS'normal__ALL__'
p6326
I01
sS'watch__BOTTOM__'
p6327
I01
sS"'ll__ALL__"
p6328
I01
sS'you__TOP__'
p6329
I01
sS'when__ALL__'
p6330
I01
sS'insan__BOTTOM__'
p6331
I01
sS'of__TOP__'
p6332
I01
sS'when__TOP__'
p6333
I01
sS'find__ALL__'
p6334
I01
sS'go__ALL__'
p6335
I01
sS'titl__ALL__'
p6336
I01
sS'to__ALL__'
p6337
I01
sS'go__BOTTOM__'
p6338
I01
sS'photo__TOP__'
p6339
I01
sS'in__TOP__'
p6340
I01
sS'photo__ALL__'
p6341
I01
sS"'ll__TOP__"
p6342
I01
sS'watch__ALL__'
p6343
I01
sS'see__ALL__'
p6344
I01
sS'peopl__BOTTOM__'
p6345
I01
sS'tri__BOTTOM__'
p6346
I01
sS'the__ALL__'
p6347
I01
sS'I__ALL__'
p6348
I01
sS'it__ALL__'
p6349
I01
sa(dp6350
S'I__TOP__'
p6351
I01
sS'have__TOP__'
p6352
I01
sS'..__TOP__'
p6353
I01
sS'a__TOP__'
p6354
I01
sS'me__ALL__'
p6355
I01
sS'fiendish__TOP__'
p6356
I01
sS'TTr__BOTTOM__'
p6357
I01
sS'have__ALL__'
p6358
I01
sS'at__ALL__'
p6359
I01
sS'meet__BOTTOM__'
p6360
I01
sS'a__ALL__'
p6361
I01
sS'...__BOTTOM__'
p6362
I01
sS'...__ALL__'
p6363
I01
sS'plan__ALL__'
p6364
I01
sS'me__BOTTOM__'
p6365
I01
sS'...__TOP__'
p6366
I01
sS'plan__TOP__'
p6367
I01
sS'..__ALL__'
p6368
I01
sS'fiendish__ALL__'
p6369
I01
sS'..__BOTTOM__'
p6370
I01
sS'I__ALL__'
p6371
I01
sS'TTr__ALL__'
p6372
I01
sS'at__BOTTOM__'
p6373
I01
sS'meet__ALL__'
p6374
I01
sa(dp6375
S'by__BOTTOM__'
p6376
I01
sS'prepar__TOP__'
p6377
I01
sS"''__TOP__"
p6378
I01
sS'``__ALL__'
p6379
I01
sS'the__TOP__'
p6380
I01
sS'thier__ALL__'
p6381
I01
sS'``__TOP__'
p6382
I01
sS"''__ALL__"
p6383
I01
sS'them__TOP__'
p6384
I01
sS'prepar__ALL__'
p6385
I01
sS'for__ALL__'
p6386
I01
sS'loyalti__BOTTOM__'
p6387
I01
sS'thier__BOTTOM__'
p6388
I01
sS'by__ALL__'
p6389
I01
sS'real__ALL__'
p6390
I01
sS'them__ALL__'
p6391
I01
sS'for__TOP__'
p6392
I01
sS'world__TOP__'
p6393
I01
sS'world__ALL__'
p6394
I01
sS'loyalti__ALL__'
p6395
I01
sS'real__TOP__'
p6396
I01
sS'strengthen__BOTTOM__'
p6397
I01
sS'strengthen__ALL__'
p6398
I01
sS'the__ALL__'
p6399
I01
sa(dp6400
S'.__BOTTOM__'
p6401
I01
sS'like__ALL__'
p6402
I01
sS"n't__ALL__"
p6403
I01
sS'.__ALL__'
p6404
I01
sS'her__BOTTOM__'
p6405
I01
sS'nigga__TOP__'
p6406
I01
sS'like__TOP__'
p6407
I01
sS"n't__BOTTOM__"
p6408
I01
sS'on__ALL__'
p6409
I01
sS'She__BOTTOM__'
p6410
I01
sS'be__ALL__'
p6411
I01
sS'ai__BOTTOM__'
p6412
I01
sS'Thirsti__ALL__'
p6413
I01
sS'ai__ALL__'
p6414
I01
sS'on__BOTTOM__'
p6415
I01
sS'She__ALL__'
p6416
I01
sS'her__ALL__'
p6417
I01
sS'Thirsti__TOP__'
p6418
I01
sS'be__TOP__'
p6419
I01
sS'nigga__ALL__'
p6420
I01
sa(dp6421
S'cock__ALL__'
p6422
I01
sS'steal__TOP__'
p6423
I01
sS'Drum__ALL__'
p6424
I01
sS'cock__BOTTOM__'
p6425
I01
sS'and__ALL__'
p6426
I01
sS'will__ALL__'
p6427
I01
sS'and__BOTTOM__'
p6428
I01
sS'samll__ALL__'
p6429
I01
sS"'s__TOP__"
p6430
I01
sS'stick__BOTTOM__'
p6431
I01
sS'hi__ALL__'
p6432
I01
sS'michael__ALL__'
p6433
I01
sS'samll__BOTTOM__'
p6434
I01
sS'i__ALL__'
p6435
I01
sS'Today__ALL__'
p6436
I01
sS'hi__BOTTOM__'
p6437
I01
sS'michael__TOP__'
p6438
I01
sS'Drum__BOTTOM__'
p6439
I01
sS"'s__ALL__"
p6440
I01
sS'Today__TOP__'
p6441
I01
sS'i__TOP__'
p6442
I01
sS'will__TOP__'
p6443
I01
sS'stick__ALL__'
p6444
I01
sS'steal__ALL__'
p6445
I01
sa(dp6446
S'question__ALL__'
p6447
I01
sS'for__BOTTOM__'
p6448
I01
sS'HEEEEEEELD__ALL__'
p6449
I01
sS"'RE__TOP__"
p6450
I01
sS'YOU__TOP__'
p6451
I01
sS'BE__ALL__'
p6452
I01
sS'question__BOTTOM__'
p6453
I01
sS'YOU__ALL__'
p6454
I01
sS'HEEEEEEELD__TOP__'
p6455
I01
sS"'RE__ALL__"
p6456
I01
sS'for__ALL__'
p6457
I01
sS'BE__TOP__'
p6458
I01
sa(dp6459
S',__TOP__'
p6460
I01
sS'world__BOTTOM__'
p6461
I01
sS'First__ALL__'
p6462
I01
sS'mach__ALL__'
p6463
I01
sS'then__BOTTOM__'
p6464
I01
sS'mach__TOP__'
p6465
I01
sS"'__TOP__"
p6466
I01
sS'world__ALL__'
p6467
I01
sS'!__BOTTOM__'
p6468
I01
sS"'__ALL__"
p6469
I01
sS',__ALL__'
p6470
I01
sS'paper__ALL__'
p6471
I01
sS'!__ALL__'
p6472
I01
sS',__BOTTOM__'
p6473
I01
sS'paper__TOP__'
p6474
I01
sS'the__ALL__'
p6475
I01
sS'the__BOTTOM__'
p6476
I01
sS'First__TOP__'
p6477
I01
sS'then__ALL__'
p6478
I01
sa(dp6479
S'air__TOP__'
p6480
I01
sS'damn__BOTTOM__'
p6481
I01
sS'me__ALL__'
p6482
I01
sS'air__ALL__'
p6483
I01
sS'the__TOP__'
p6484
I01
sS'onli__ALL__'
p6485
I01
sS'damn__ALL__'
p6486
I01
sS'ha__ALL__'
p6487
I01
sS"n't__ALL__"
p6488
I01
sS'bag__TOP__'
p6489
I01
sS'!__BOTTOM__'
p6490
I01
sS'lay__ALL__'
p6491
I01
sS"n't__TOP__"
p6492
I01
sS'ha__TOP__'
p6493
I01
sS'me__TOP__'
p6494
I01
sS'gim__ALL__'
p6495
I01
sS'gim__BOTTOM__'
p6496
I01
sS'bag__ALL__'
p6497
I01
sS'onli__TOP__'
p6498
I01
sS'me__BOTTOM__'
p6499
I01
sS'lie__ALL__'
p6500
I01
sS'tell__TOP__'
p6501
I01
sS'lay__BOTTOM__'
p6502
I01
sS'tell__ALL__'
p6503
I01
sS'to__ALL__'
p6504
I01
sS'!__ALL__'
p6505
I01
sS'to__TOP__'
p6506
I01
sS'Do__ALL__'
p6507
I01
sS'lie__TOP__'
p6508
I01
sS'the__ALL__'
p6509
I01
sS'the__BOTTOM__'
p6510
I01
sS'Do__TOP__'
p6511
I01
sa(dp6512
S'I__TOP__'
p6513
I01
sS'to__BOTTOM__'
p6514
I01
sS'the__TOP__'
p6515
I01
sS'act__ALL__'
p6516
I01
sS'then__ALL__'
p6517
I01
sS'like__ALL__'
p6518
I01
sS'a__ALL__'
p6519
I01
sS'douchebag__BOTTOM__'
p6520
I01
sS'win__TOP__'
p6521
I01
sS'douchebag__ALL__'
p6522
I01
sS'tri__ALL__'
p6523
I01
sS'act__BOTTOM__'
p6524
I01
sS'tri__TOP__'
p6525
I01
sS'everyon__ALL__'
p6526
I01
sS'then__BOTTOM__'
p6527
I01
sS"'ll__ALL__"
p6528
I01
sS'And__ALL__'
p6529
I01
sS'award__ALL__'
p6530
I01
sS'everyon__BOTTOM__'
p6531
I01
sS'to__ALL__'
p6532
I01
sS'like__BOTTOM__'
p6533
I01
sS'a__BOTTOM__'
p6534
I01
sS"'ll__TOP__"
p6535
I01
sS'to__TOP__'
p6536
I01
sS'award__TOP__'
p6537
I01
sS'win__ALL__'
p6538
I01
sS'friendliest__TOP__'
p6539
I01
sS'And__BOTTOM__'
p6540
I01
sS'the__ALL__'
p6541
I01
sS'friendliest__ALL__'
p6542
I01
sS'I__ALL__'
p6543
I01
sa(dp6544
S'over__ALL__'
p6545
I01
sS'to__ALL__'
p6546
I01
sS'edward__TOP__'
p6547
I01
sS'snowden__TOP__'
p6548
I01
sS'to__BOTTOM__'
p6549
I01
sS'him__ALL__'
p6550
I01
sS'Offer__ALL__'
p6551
I01
sS'us__ALL__'
p6552
I01
sS'to__TOP__'
p6553
I01
sS'hand__ALL__'
p6554
I01
sS'edward__ALL__'
p6555
I01
sS'us__BOTTOM__'
p6556
I01
sS'Offer__TOP__'
p6557
I01
sS'asylum__ALL__'
p6558
I01
sS'him__BOTTOM__'
p6559
I01
sS'asylum__TOP__'
p6560
I01
sS'hand__BOTTOM__'
p6561
I01
sS'snowden__ALL__'
p6562
I01
sS'over__BOTTOM__'
p6563
I01
sa(dp6564
S'.__BOTTOM__'
p6565
I01
sS'I__TOP__'
p6566
I01
sS'fake__ALL__'
p6567
I01
sS'suspens__ALL__'
p6568
I01
sS'leav__BOTTOM__'
p6569
I01
sS'post__TOP__'
p6570
I01
sS'wa__BOTTOM__'
p6571
I01
sS'a__TOP__'
p6572
I01
sS'safe__ALL__'
p6573
I01
sS'by__BOTTOM__'
p6574
I01
sS'fake__TOP__'
p6575
I01
sS'post__ALL__'
p6576
I01
sS'need__TOP__'
p6577
I01
sS'.__ALL__'
p6578
I01
sS'reddit__BOTTOM__'
p6579
I01
sS'and__BOTTOM__'
p6580
I01
sS'what__ALL__'
p6581
I01
sS'leav__ALL__'
p6582
I01
sS'need__ALL__'
p6583
I01
sS'a__ALL__'
p6584
I01
sS'and__ALL__'
p6585
I01
sS'what__BOTTOM__'
p6586
I01
sS'it__BOTTOM__'
p6587
I01
sS'pic__ALL__'
p6588
I01
sS'of__ALL__'
p6589
I01
sS'crack__ALL__'
p6590
I01
sS'not__ALL__'
p6591
I01
sS'reddit__ALL__'
p6592
I01
sS'wa__ALL__'
p6593
I01
sS'by__ALL__'
p6594
I01
sS"'ll__ALL__"
p6595
I01
sS'be__ALL__'
p6596
I01
sS'crack__TOP__'
p6597
I01
sS'in__BOTTOM__'
p6598
I01
sS'of__TOP__'
p6599
I01
sS'in__ALL__'
p6600
I01
sS'be__TOP__'
p6601
I01
sS'that__TOP__'
p6602
I01
sS'to__ALL__'
p6603
I01
sS'that__ALL__'
p6604
I01
sS'safe__TOP__'
p6605
I01
sS"'ll__TOP__"
p6606
I01
sS'to__TOP__'
p6607
I01
sS'not__BOTTOM__'
p6608
I01
sS'.__TOP__'
p6609
I01
sS'post__BOTTOM__'
p6610
I01
sS'pic__TOP__'
p6611
I01
sS'suspens__BOTTOM__'
p6612
I01
sS'I__ALL__'
p6613
I01
sS'it__ALL__'
p6614
I01
sa(dp6615
S'away__ALL__'
p6616
I01
sS'day__TOP__'
p6617
I01
sS'My__TOP__'
p6618
I01
sS'Most__ALL__'
p6619
I01
sS'day__ALL__'
p6620
I01
sS'My__ALL__'
p6621
I01
sS'will__ALL__'
p6622
I01
sS'and__BOTTOM__'
p6623
I01
sS'mobil__BOTTOM__'
p6624
I01
sS'upvot__ALL__'
p6625
I01
sS'redditor__BOTTOM__'
p6626
I01
sS"n't__ALL__"
p6627
I01
sS'cake__BOTTOM__'
p6628
I01
sS'and__ALL__'
p6629
I01
sS'symbol__ALL__'
p6630
I01
sS'month__TOP__'
p6631
I01
sS'cake__TOP__'
p6632
I01
sS'will__BOTTOM__'
p6633
I01
sS'cake__ALL__'
p6634
I01
sS'upvot__BOTTOM__'
p6635
I01
sS"n't__BOTTOM__"
p6636
I01
sS'ca__ALL__'
p6637
I01
sS'the__ALL__'
p6638
I01
sS'see__ALL__'
p6639
I01
sS'redditor__ALL__'
p6640
I01
sS'ca__BOTTOM__'
p6641
I01
sS'mobil__ALL__'
p6642
I01
sS'see__BOTTOM__'
p6643
I01
sS'symbol__BOTTOM__'
p6644
I01
sS'is__ALL__'
p6645
I01
sS'month__ALL__'
p6646
I01
sS'is__TOP__'
p6647
I01
sS'Most__BOTTOM__'
p6648
I01
sS'away__TOP__'
p6649
I01
sS'the__BOTTOM__'
p6650
I01
sa(dp6651
S'legend__TOP__'
p6652
I01
sS'exam__BOTTOM__'
p6653
I01
sS'befor__ALL__'
p6654
I01
sS'legend__ALL__'
p6655
I01
sS'leagu__ALL__'
p6656
I01
sS'you__TOP__'
p6657
I01
sS'day__ALL__'
p6658
I01
sS'give__ALL__'
p6659
I01
sS'of__TOP__'
p6660
I01
sS'day__BOTTOM__'
p6661
I01
sS'leagu__TOP__'
p6662
I01
sS'you__ALL__'
p6663
I01
sS'of__ALL__'
p6664
I01
sS'befor__BOTTOM__'
p6665
I01
sS'exam__ALL__'
p6666
I01
sS'give__TOP__'
p6667
I01
sa(dp6668
S'I__TOP__'
p6669
I01
sS'blowjob__BOTTOM__'
p6670
I01
sS'me__ALL__'
p6671
I01
sS'So__BOTTOM__'
p6672
I01
sS'give__ALL__'
p6673
I01
sS'give__BOTTOM__'
p6674
I01
sS'will__ALL__'
p6675
I01
sS'a__ALL__'
p6676
I01
sS'So__ALL__'
p6677
I01
sS'she__BOTTOM__'
p6678
I01
sS'wife__ALL__'
p6679
I01
sS'condit__TOP__'
p6680
I01
sS'she__ALL__'
p6681
I01
sS'will__BOTTOM__'
p6682
I01
sS'wife__TOP__'
p6683
I01
sS'blowjob__ALL__'
p6684
I01
sS'me__BOTTOM__'
p6685
I01
sS'hair__TOP__'
p6686
I01
sS'condit__ALL__'
p6687
I01
sS'a__BOTTOM__'
p6688
I01
sS'my__TOP__'
p6689
I01
sS'my__ALL__'
p6690
I01
sS'hair__ALL__'
p6691
I01
sS'will__TOP__'
p6692
I01
sS'I__ALL__'
p6693
I01
sa(dp6694
S'until__TOP__'
p6695
I01
sS'open__ALL__'
p6696
I01
sS'until__ALL__'
p6697
I01
sS'leav__BOTTOM__'
p6698
I01
sS'Look__TOP__'
p6699
I01
sS'open__BOTTOM__'
p6700
I01
sS'Look__ALL__'
p6701
I01
sS'cute__TOP__'
p6702
I01
sS'you__ALL__'
p6703
I01
sS'you__BOTTOM__'
p6704
I01
sS'leav__ALL__'
p6705
I01
sS'trashcan__BOTTOM__'
p6706
I01
sS'cute__ALL__'
p6707
I01
sS'trashcan__ALL__'
p6708
I01
sa(dp6709
S'make__ALL__'
p6710
I01
sS'think__TOP__'
p6711
I01
sS'thi__TOP__'
p6712
I01
sS'think__ALL__'
p6713
I01
sS'racoon__TOP__'
p6714
I01
sS'chuck__ALL__'
p6715
I01
sS'testa__BOTTOM__'
p6716
I01
sS'them__TOP__'
p6717
I01
sS'thi__ALL__'
p6718
I01
sS'evil__ALL__'
p6719
I01
sS'testa__ALL__'
p6720
I01
sS'plot__ALL__'
p6721
I01
sS'chuck__BOTTOM__'
p6722
I01
sS'nope__ALL__'
p6723
I01
sS'i__ALL__'
p6724
I01
sS"'ll__ALL__"
p6725
I01
sS'nope__BOTTOM__'
p6726
I01
sS'make__TOP__'
p6727
I01
sS'plot__TOP__'
p6728
I01
sS'racoon__ALL__'
p6729
I01
sS'i__TOP__'
p6730
I01
sS"'ll__TOP__"
p6731
I01
sS'evil__TOP__'
p6732
I01
sS'is__ALL__'
p6733
I01
sS'is__TOP__'
p6734
I01
sS'them__ALL__'
p6735
I01
sa(dp6736
S'move__BOTTOM__'
p6737
I01
sS'S.E__ALL__'
p6738
I01
sS'move__ALL__'
p6739
I01
sS'look__ALL__'
p6740
I01
sS'look__TOP__'
p6741
I01
sS'when__BOTTOM__'
p6742
I01
sS'Uptown__ALL__'
p6743
I01
sS'The__TOP__'
p6744
I01
sS'The__ALL__'
p6745
I01
sS'when__ALL__'
p6746
I01
sS'.__ALL__'
p6747
I01
sS'give__ALL__'
p6748
I01
sS'Bitch__TOP__'
p6749
I01
sS'S.E__TOP__'
p6750
I01
sS'they__BOTTOM__'
p6751
I01
sS'.__TOP__'
p6752
I01
sS'they__ALL__'
p6753
I01
sS'Bitch__ALL__'
p6754
I01
sS'Uptown__BOTTOM__'
p6755
I01
sS'give__TOP__'
p6756
I01
sa(dp6757
S'girlfriend__ALL__'
p6758
I01
sS'wa__BOTTOM__'
p6759
I01
sS"'ll__BOTTOM__"
p6760
I01
sS'say__BOTTOM__'
p6761
I01
sS'and__ALL__'
p6762
I01
sS'wa__ALL__'
p6763
I01
sS'girlfriend__TOP__'
p6764
I01
sS'over__ALL__'
p6765
I01
sS'girlfriend__BOTTOM__'
p6766
I01
sS'attach__BOTTOM__'
p6767
I01
sS'she__BOTTOM__'
p6768
I01
sS'and__TOP__'
p6769
I01
sS'she__ALL__'
p6770
I01
sS'someth__TOP__'
p6771
I01
sS'witt__ALL__'
p6772
I01
sS'an__ALL__'
p6773
I01
sS'someth__ALL__'
p6774
I01
sS'i__ALL__'
p6775
I01
sS"'ll__ALL__"
p6776
I01
sS'said__ALL__'
p6777
I01
sS'be__ALL__'
p6778
I01
sS'be__BOTTOM__'
p6779
I01
sS'sarcast__TOP__'
p6780
I01
sS'over__BOTTOM__'
p6781
I01
sS'my__TOP__'
p6782
I01
sS'said__TOP__'
p6783
I01
sS'an__BOTTOM__'
p6784
I01
sS'i__BOTTOM__'
p6785
I01
sS'say__ALL__'
p6786
I01
sS'my__ALL__'
p6787
I01
sS'attach__ALL__'
p6788
I01
sS'sarcast__ALL__'
p6789
I01
sS'witt__TOP__'
p6790
I01
sa(dp6791
S'someon__BOTTOM__'
p6792
I01
sS'made__ALL__'
p6793
I01
sS'the__TOP__'
p6794
I01
sS'my__BOTTOM__'
p6795
I01
sS'one__ALL__'
p6796
I01
sS'into__ALL__'
p6797
I01
sS'arrow__ALL__'
p6798
I01
sS'arrow__TOP__'
p6799
I01
sS'...__BOTTOM__'
p6800
I01
sS'made__TOP__'
p6801
I01
sS'...__ALL__'
p6802
I01
sS'someon__ALL__'
p6803
I01
sS'one__BOTTOM__'
p6804
I01
sS'shove__ALL__'
p6805
I01
sS'dick__ALL__'
p6806
I01
sS'hole__BOTTOM__'
p6807
I01
sS'i__ALL__'
p6808
I01
sS'joke__TOP__'
p6809
I01
sS'dick__BOTTOM__'
p6810
I01
sS'knee__TOP__'
p6811
I01
sS'joke__ALL__'
p6812
I01
sS'to__ALL__'
p6813
I01
sS'i__TOP__'
p6814
I01
sS'ejacul__BOTTOM__'
p6815
I01
sS'into__BOTTOM__'
p6816
I01
sS'knee__ALL__'
p6817
I01
sS'to__TOP__'
p6818
I01
sS'i__BOTTOM__'
p6819
I01
sS'my__ALL__'
p6820
I01
sS'shove__BOTTOM__'
p6821
I01
sS'the__ALL__'
p6822
I01
sS'hole__ALL__'
p6823
I01
sS'ejacul__ALL__'
p6824
I01
sa(dp6825
S'hot__ALL__'
p6826
I01
sS'to__BOTTOM__'
p6827
I01
sS'get__ALL__'
p6828
I01
sS'girl__TOP__'
p6829
I01
sS'get__BOTTOM__'
p6830
I01
sS'see__ALL__'
p6831
I01
sS'hot__TOP__'
p6832
I01
sS'do__BOTTOM__'
p6833
I01
sS'to__ALL__'
p6834
I01
sS'see__TOP__'
p6835
I01
sS'ekg__ALL__'
p6836
I01
sS'girl__ALL__'
p6837
I01
sS'do__ALL__'
p6838
I01
sS'ekg__BOTTOM__'
p6839
I01
sa(dp6840
S'a__TOP__'
p6841
I01
sS'me__ALL__'
p6842
I01
sS'aza__ALL__'
p6843
I01
sS'my__BOTTOM__'
p6844
I01
sS'You__BOTTOM__'
p6845
I01
sS'a__ALL__'
p6846
I01
sS'!__BOTTOM__'
p6847
I01
sS'gon__ALL__'
p6848
I01
sS'thi__ALL__'
p6849
I01
sS'?__TOP__'
p6850
I01
sS'on__ALL__'
p6851
I01
sS'pay__BOTTOM__'
p6852
I01
sS'gon__BOTTOM__'
p6853
I01
sS'thi__BOTTOM__'
p6854
I01
sS'me__TOP__'
p6855
I01
sS'on__TOP__'
p6856
I01
sS'friend__ALL__'
p6857
I01
sS'meme__ALL__'
p6858
I01
sS'aza__TOP__'
p6859
I01
sS'friend__BOTTOM__'
p6860
I01
sS'pay__ALL__'
p6861
I01
sS'na__ALL__'
p6862
I01
sS'You__ALL__'
p6863
I01
sS'Did__ALL__'
p6864
I01
sS'!__ALL__'
p6865
I01
sS'?__ALL__'
p6866
I01
sS'meme__TOP__'
p6867
I01
sS'my__ALL__'
p6868
I01
sS'fabric__ALL__'
p6869
I01
sS'Did__TOP__'
p6870
I01
sS'fabric__TOP__'
p6871
I01
sS'na__BOTTOM__'
p6872
I01
sa(dp6873
S'all__ALL__'
p6874
I01
sS'all__BOTTOM__'
p6875
I01
sS'repost__BOTTOM__'
p6876
I01
sS'about__ALL__'
p6877
I01
sS'complain__BOTTOM__'
p6878
I01
sS'will__ALL__'
p6879
I01
sS'then__ALL__'
p6880
I01
sS'for__BOTTOM__'
p6881
I01
sS'We__ALL__'
p6882
I01
sS'karma__ALL__'
p6883
I01
sS'on__ALL__'
p6884
I01
sS'complain__ALL__'
p6885
I01
sS'for__ALL__'
p6886
I01
sS'upload__ALL__'
p6887
I01
sS'then__BOTTOM__'
p6888
I01
sS'about__BOTTOM__'
p6889
I01
sS'karma__BOTTOM__'
p6890
I01
sS'upload__TOP__'
p6891
I01
sS'for__TOP__'
p6892
I01
sS'page__ALL__'
p6893
I01
sS'page__BOTTOM__'
p6894
I01
sS'repost__ALL__'
p6895
I01
sS'karma__TOP__'
p6896
I01
sS'front__ALL__'
p6897
I01
sS'on__BOTTOM__'
p6898
I01
sS'repost__TOP__'
p6899
I01
sS'the__ALL__'
p6900
I01
sS'the__BOTTOM__'
p6901
I01
sS'will__TOP__'
p6902
I01
sS'We__TOP__'
p6903
I01
sS'front__BOTTOM__'
p6904
I01
sa(dp6905
S'away__ALL__'
p6906
I01
sS'oven__TOP__'
p6907
I01
sS'away__BOTTOM__'
p6908
I01
sS'then__BOTTOM__'
p6909
I01
sS'run__BOTTOM__'
p6910
I01
sS'destroy__TOP__'
p6911
I01
sS'run__ALL__'
p6912
I01
sS'destroy__ALL__'
p6913
I01
sS'oven__ALL__'
p6914
I01
sS'then__ALL__'
p6915
I01
sa(dp6916
S'twitch__BOTTOM__'
p6917
I01
sS'I__TOP__'
p6918
I01
sS'to__BOTTOM__'
p6919
I01
sS'mumbl__ALL__'
p6920
I01
sS'releas__TOP__'
p6921
I01
sS'the__TOP__'
p6922
I01
sS'and__ALL__'
p6923
I01
sS'give__ALL__'
p6924
I01
sS'give__BOTTOM__'
p6925
I01
sS'releas__ALL__'
p6926
I01
sS'and__BOTTOM__'
p6927
I01
sS'ip__ALL__'
p6928
I01
sS'out__ALL__'
p6929
I01
sS'them__TOP__'
p6930
I01
sS'not__ALL__'
p6931
I01
sS'Then__BOTTOM__'
p6932
I01
sS'!__BOTTOM__'
p6933
I01
sS'...__ALL__'
p6934
I01
sS'on__ALL__'
p6935
I01
sS'it__BOTTOM__'
p6936
I01
sS'Then__ALL__'
p6937
I01
sS'ip__TOP__'
p6938
I01
sS'first__TOP__'
p6939
I01
sS'on__TOP__'
p6940
I01
sS'out__BOTTOM__'
p6941
I01
sS'first__ALL__'
p6942
I01
sS'to__ALL__'
p6943
I01
sS'!__ALL__'
p6944
I01
sS"'ll__ALL__"
p6945
I01
sS'the__ALL__'
p6946
I01
sS'that__ALL__'
p6947
I01
sS'...__TOP__'
p6948
I01
sS'mumbl__BOTTOM__'
p6949
I01
sS'Tell__ALL__'
p6950
I01
sS'that__TOP__'
p6951
I01
sS'post__ALL__'
p6952
I01
sS'mumbl__TOP__'
p6953
I01
sS'even__ALL__'
p6954
I01
sS"'ll__TOP__"
p6955
I01
sS'even__BOTTOM__'
p6956
I01
sS'not__BOTTOM__'
p6957
I01
sS'Tell__TOP__'
p6958
I01
sS'twitch__ALL__'
p6959
I01
sS'post__BOTTOM__'
p6960
I01
sS'on__BOTTOM__'
p6961
I01
sS'them__ALL__'
p6962
I01
sS'I__ALL__'
p6963
I01
sS'it__ALL__'
p6964
I01
sa(dp6965
S'!__ALL__'
p6966
I01
sS'I__TOP__'
p6967
I01
sS'have__TOP__'
p6968
I01
sS'most__TOP__'
p6969
I01
sS'!__BOTTOM__'
p6970
I01
sS'I__ALL__'
p6971
I01
sS'Bwahahahahahaha__BOTTOM__'
p6972
I01
sS'evil__TOP__'
p6973
I01
sS'most__ALL__'
p6974
I01
sS'the__TOP__'
p6975
I01
sS'plan__ALL__'
p6976
I01
sS'evil__ALL__'
p6977
I01
sS'devis__TOP__'
p6978
I01
sS'Bwahahahahahaha__ALL__'
p6979
I01
sS'the__ALL__'
p6980
I01
sS'plan__TOP__'
p6981
I01
sS'have__ALL__'
p6982
I01
sS'devis__ALL__'
p6983
I01
sa(dp6984
S'What__TOP__'
p6985
I01
sS'i__TOP__'
p6986
I01
sS'now__ALL__'
p6987
I01
sS'?__ALL__'
p6988
I01
sS'fait__ALL__'
p6989
I01
sS'Plot__BOTTOM__'
p6990
I01
sS'now__TOP__'
p6991
I01
sS'i__ALL__'
p6992
I01
sS'fait__BOTTOM__'
p6993
I01
sS'Plot__ALL__'
p6994
I01
sS'?__TOP__'
p6995
I01
sS'friend__BOTTOM__'
p6996
I01
sS'What__ALL__'
p6997
I01
sS'friend__ALL__'
p6998
I01
sS"'s__ALL__"
p6999
I01
sS'do__TOP__'
p7000
I01
sS'do__ALL__'
p7001
I01
sS"'s__BOTTOM__"
p7002
I01
sa(dp7003
S'back__BOTTOM__'
p7004
I01
sS'by__TOP__'
p7005
I01
sS'Pay__BOTTOM__'
p7006
I01
sS'now__ALL__'
p7007
I01
sS'for__BOTTOM__'
p7008
I01
sS'now__TOP__'
p7009
I01
sS'fuck__ALL__'
p7010
I01
sS'alberta__TOP__'
p7011
I01
sS'for__ALL__'
p7012
I01
sS'right__ALL__'
p7013
I01
sS'fuck__TOP__'
p7014
I01
sS'by__ALL__'
p7015
I01
sS'get__ALL__'
p7016
I01
sS'oilsand__ALL__'
p7017
I01
sS'the__BOTTOM__'
p7018
I01
sS'Funni__TOP__'
p7019
I01
sS'natur__TOP__'
p7020
I01
sS'alberta__ALL__'
p7021
I01
sS'motherfuck__ALL__'
p7022
I01
sS'how__TOP__'
p7023
I01
sS'right__TOP__'
p7024
I01
sS'natur__ALL__'
p7025
I01
sS'get__TOP__'
p7026
I01
sS'is__ALL__'
p7027
I01
sS'Funni__ALL__'
p7028
I01
sS'oilsand__BOTTOM__'
p7029
I01
sS'is__TOP__'
p7030
I01
sS'Pay__ALL__'
p7031
I01
sS'back__ALL__'
p7032
I01
sS'the__ALL__'
p7033
I01
sS'motherfuck__BOTTOM__'
p7034
I01
sS'how__ALL__'
p7035
I01
sa(dp7036
S'into__ALL__'
p7037
I01
sS'look__ALL__'
p7038
I01
sS'look__BOTTOM__'
p7039
I01
sS'math__ALL__'
p7040
I01
sS'the__BOTTOM__'
p7041
I01
sS'the__ALL__'
p7042
I01
sS'regret__BOTTOM__'
p7043
I01
sS'you__ALL__'
p7044
I01
sS'teacher__ALL__'
p7045
I01
sS'regret__ALL__'
p7046
I01
sS'Walk__TOP__'
p7047
I01
sS'into__TOP__'
p7048
I01
sS'you__BOTTOM__'
p7049
I01
sS'at__BOTTOM__'
p7050
I01
sS'Walk__ALL__'
p7051
I01
sS'math__TOP__'
p7052
I01
sS'at__ALL__'
p7053
I01
sS'teacher__BOTTOM__'
p7054
I01
sa(dp7055
S'I__TOP__'
p7056
I01
sS'fun__TOP__'
p7057
I01
sS'blind__BOTTOM__'
p7058
I01
sS'wa__BOTTOM__'
p7059
I01
sS'sunglass__TOP__'
p7060
I01
sS'me__ALL__'
p7061
I01
sS'made__ALL__'
p7062
I01
sS'the__TOP__'
p7063
I01
sS'weaR__ALL__'
p7064
I01
sS'sunglass__ALL__'
p7065
I01
sS'Guy__ALL__'
p7066
I01
sS'becaus__ALL__'
p7067
I01
sS'club__TOP__'
p7068
I01
sS'made__TOP__'
p7069
I01
sS'Told__BOTTOM__'
p7070
I01
sS'club__ALL__'
p7071
I01
sS'Guy__TOP__'
p7072
I01
sS'becaus__TOP__'
p7073
I01
sS'me__TOP__'
p7074
I01
sS'weaR__TOP__'
p7075
I01
sS'wa__ALL__'
p7076
I01
sS'Told__ALL__'
p7077
I01
sS'I__BOTTOM__'
p7078
I01
sS'insid__ALL__'
p7079
I01
sS'of__TOP__'
p7080
I01
sS'of__ALL__'
p7081
I01
sS'insid__TOP__'
p7082
I01
sS'blind__ALL__'
p7083
I01
sS'him__ALL__'
p7084
I01
sS'wa__TOP__'
p7085
I01
sS'my__TOP__'
p7086
I01
sS'my__ALL__'
p7087
I01
sS'I__ALL__'
p7088
I01
sS'him__BOTTOM__'
p7089
I01
sS'the__ALL__'
p7090
I01
sS'fun__ALL__'
p7091
I01
sa(dp7092
S'ill__TOP__'
p7093
I01
sS'everyon__ALL__'
p7094
I01
sS'come__ALL__'
p7095
I01
sS'everi__BOTTOM__'
p7096
I01
sS'everi__ALL__'
p7097
I01
sS'come__TOP__'
p7098
I01
sS'ill__ALL__'
p7099
I01
sS'day__TOP__'
p7100
I01
sS'week__BOTTOM__'
p7101
I01
sS'mother__ALL__'
p7102
I01
sS'is__ALL__'
p7103
I01
sS'day__ALL__'
p7104
I01
sS'week__ALL__'
p7105
I01
sS'that__ALL__'
p7106
I01
sS'is__TOP__'
p7107
I01
sS'remind__ALL__'
p7108
I01
sS'everyon__TOP__'
p7109
I01
sS'that__TOP__'
p7110
I01
sS'remind__TOP__'
p7111
I01
sS'mother__TOP__'
p7112
I01
sa(dp7113
S'ruin__ALL__'
p7114
I01
sS'sent__BOTTOM__'
p7115
I01
sS'i__ALL__'
p7116
I01
sS'spoiler__TOP__'
p7117
I01
sS'throne__TOP__'
p7118
I01
sS'3__BOTTOM__'
p7119
I01
sS'post__TOP__'
p7120
I01
sS'post__ALL__'
p7121
I01
sS'him__ALL__'
p7122
I01
sS'Some__ALL__'
p7123
I01
sS'Some__TOP__'
p7124
I01
sS'book__BOTTOM__'
p7125
I01
sS'sent__ALL__'
p7126
I01
sS'with__BOTTOM__'
p7127
I01
sS'season__ALL__'
p7128
I01
sS'them__TOP__'
p7129
I01
sS'it__TOP__'
p7130
I01
sS'a__ALL__'
p7131
I01
sS'peopl__TOP__'
p7132
I01
sS'game__ALL__'
p7133
I01
sS'peopl__ALL__'
p7134
I01
sS'from__ALL__'
p7135
I01
sS'singl__ALL__'
p7136
I01
sS'event__BOTTOM__'
p7137
I01
sS'on__ALL__'
p7138
I01
sS'from__BOTTOM__'
p7139
I01
sS'messag__ALL__'
p7140
I01
sS'of__ALL__'
p7141
I01
sS'for__ALL__'
p7142
I01
sS'on__TOP__'
p7143
I01
sS'signific__ALL__'
p7144
I01
sS'everi__BOTTOM__'
p7145
I01
sS'past__ALL__'
p7146
I01
sS'everi__ALL__'
p7147
I01
sS'to__ALL__'
p7148
I01
sS'douch__TOP__'
p7149
I01
sS'singl__BOTTOM__'
p7150
I01
sS'3__ALL__'
p7151
I01
sS'game__TOP__'
p7152
I01
sS'them__ALL__'
p7153
I01
sS'for__TOP__'
p7154
I01
sS'of__TOP__'
p7155
I01
sS'past__BOTTOM__'
p7156
I01
sS'spoiler__ALL__'
p7157
I01
sS'throne__ALL__'
p7158
I01
sS'privat__ALL__'
p7159
I01
sS'messag__BOTTOM__'
p7160
I01
sS'douch__ALL__'
p7161
I01
sS'event__ALL__'
p7162
I01
sS'a__BOTTOM__'
p7163
I01
sS'the__ALL__'
p7164
I01
sS'with__ALL__'
p7165
I01
sS'to__TOP__'
p7166
I01
sS'season__BOTTOM__'
p7167
I01
sS'i__BOTTOM__'
p7168
I01
sS'privat__BOTTOM__'
p7169
I01
sS'him__BOTTOM__'
p7170
I01
sS'ruin__TOP__'
p7171
I01
sS'the__BOTTOM__'
p7172
I01
sS'book__ALL__'
p7173
I01
sS'signific__BOTTOM__'
p7174
I01
sS'it__ALL__'
p7175
I01
sa(dp7176
S'I__TOP__'
p7177
I01
sS'top__ALL__'
p7178
I01
sS'can__ALL__'
p7179
I01
sS'site__BOTTOM__'
p7180
I01
sS'own__BOTTOM__'
p7181
I01
sS'memedad.com__ALL__'
p7182
I01
sS'will__ALL__'
p7183
I01
sS'my__BOTTOM__'
p7184
I01
sS'quickmeme.com__ALL__'
p7185
I01
sS'at__ALL__'
p7186
I01
sS'adviceanim__BOTTOM__'
p7187
I01
sS'top__BOTTOM__'
p7188
I01
sS'can__BOTTOM__'
p7189
I01
sS'so__BOTTOM__'
p7190
I01
sS'quickmeme.com__TOP__'
p7191
I01
sS'of__ALL__'
p7192
I01
sS'promot__BOTTOM__'
p7193
I01
sS'so__ALL__'
p7194
I01
sS'of__BOTTOM__'
p7195
I01
sS'promot__ALL__'
p7196
I01
sS'get__ALL__'
p7197
I01
sS'own__ALL__'
p7198
I01
sS'memedad.com__BOTTOM__'
p7199
I01
sS'I__BOTTOM__'
p7200
I01
sS'of__TOP__'
p7201
I01
sS'adviceanim__ALL__'
p7202
I01
sS'rid__ALL__'
p7203
I01
sS'will__TOP__'
p7204
I01
sS'I__ALL__'
p7205
I01
sS'get__TOP__'
p7206
I01
sS'rid__TOP__'
p7207
I01
sS'my__ALL__'
p7208
I01
sS'site__ALL__'
p7209
I01
sS'the__ALL__'
p7210
I01
sS'the__BOTTOM__'
p7211
I01
sS'at__BOTTOM__'
p7212
I01
sa(dp7213
S'.__BOTTOM__'
p7214
I01
sS'.__ALL__'
p7215
I01
sS'too__ALL__'
p7216
I01
sS'i__ALL__'
p7217
I01
sS'too__BOTTOM__'
p7218
I01
sS'i__BOTTOM__'
p7219
I01
sS'know__ALL__'
p7220
I01
sS'know__BOTTOM__'
p7221
I01
sS'love__BOTTOM__'
p7222
I01
sS'you__ALL__'
p7223
I01
sS'you__BOTTOM__'
p7224
I01
sS'love__ALL__'
p7225
I01
sa(dp7226
S'mine__TOP__'
p7227
I01
sS'muhahaha__BOTTOM__'
p7228
I01
sS'mine__ALL__'
p7229
I01
sS'the__TOP__'
p7230
I01
sS'is__TOP__'
p7231
I01
sS'world__TOP__'
p7232
I01
sS'muhahaha__ALL__'
p7233
I01
sS'the__ALL__'
p7234
I01
sS'world__ALL__'
p7235
I01
sS'is__ALL__'
p7236
I01
sa(dp7237
S'girlfriend__ALL__'
p7238
I01
sS'My__TOP__'
p7239
I01
sS'overli__ALL__'
p7240
I01
sS'My__ALL__'
p7241
I01
sS'girlfriend__TOP__'
p7242
I01
sS'into__ALL__'
p7243
I01
sS'girlfriend__BOTTOM__'
p7244
I01
sS'and__ALL__'
p7245
I01
sS'turn__ALL__'
p7246
I01
sS'ill__ALL__'
p7247
I01
sS'it__BOTTOM__'
p7248
I01
sS'and__TOP__'
p7249
I01
sS'turn__BOTTOM__'
p7250
I01
sS'witti__ALL__'
p7251
I01
sS'someth__TOP__'
p7252
I01
sS'an__ALL__'
p7253
I01
sS'someth__ALL__'
p7254
I01
sS'said__ALL__'
p7255
I01
sS'attack__ALL__'
p7256
I01
sS'witti__TOP__'
p7257
I01
sS'it__ALL__'
p7258
I01
sS'sarcast__TOP__'
p7259
I01
sS'attack__BOTTOM__'
p7260
I01
sS'into__BOTTOM__'
p7261
I01
sS'ill__BOTTOM__'
p7262
I01
sS'said__TOP__'
p7263
I01
sS'an__BOTTOM__'
p7264
I01
sS'overli__BOTTOM__'
p7265
I01
sS'sarcast__ALL__'
p7266
I01
sa(dp7267
S'.__BOTTOM__'
p7268
I01
sS'world__BOTTOM__'
p7269
I01
sS'.__ALL__'
p7270
I01
sS"'ll__BOTTOM__"
p7271
I01
sS'Brain__ALL__'
p7272
I01
sS'and__ALL__'
p7273
I01
sS'will__ALL__'
p7274
I01
sS'plan__TOP__'
p7275
I01
sS'The__ALL__'
p7276
I01
sS'be__ALL__'
p7277
I01
sS'over__ALL__'
p7278
I01
sS'is__ALL__'
p7279
I01
sS'night__TOP__'
p7280
I01
sS'Their__TOP__'
p7281
I01
sS'world__ALL__'
p7282
I01
sS"'ll__ALL__"
p7283
I01
sS'sun__BOTTOM__'
p7284
I01
sS'each__TOP__'
p7285
I01
sS'plan__ALL__'
p7286
I01
sS'take__BOTTOM__'
p7287
I01
sS'dawn__BOTTOM__'
p7288
I01
sS'unfurl__ALL__'
p7289
I01
sS'Brain__BOTTOM__'
p7290
I01
sS'night__ALL__'
p7291
I01
sS'Befor__TOP__'
p7292
I01
sS'of__BOTTOM__'
p7293
I01
sS'done__ALL__'
p7294
I01
sS"'re__BOTTOM__"
p7295
I01
sS'The__BOTTOM__'
p7296
I01
sS'done__TOP__'
p7297
I01
sS'dawn__ALL__'
p7298
I01
sS'Befor__ALL__'
p7299
I01
sS'each__ALL__'
p7300
I01
sS'sun__ALL__'
p7301
I01
sS'of__ALL__'
p7302
I01
sS'They__BOTTOM__'
p7303
I01
sS'Pinki__ALL__'
p7304
I01
sS"'re__ALL__"
p7305
I01
sS'be__TOP__'
p7306
I01
sS'By__ALL__'
p7307
I01
sS'By__BOTTOM__'
p7308
I01
sS'over__BOTTOM__'
p7309
I01
sS'take__ALL__'
p7310
I01
sS'Pinki__BOTTOM__'
p7311
I01
sS'the__ALL__'
p7312
I01
sS'unfurl__TOP__'
p7313
I01
sS'Their__ALL__'
p7314
I01
sS'is__TOP__'
p7315
I01
sS'and__BOTTOM__'
p7316
I01
sS'the__BOTTOM__'
p7317
I01
sS'will__TOP__'
p7318
I01
sS'They__ALL__'
p7319
I01
sa(dp7320
S'make__ALL__'
p7321
I01
sS'connect__TOP__'
p7322
I01
sS'all__BOTTOM__'
p7323
I01
sS'mic__ALL__'
p7324
I01
sS'a__TOP__'
p7325
I01
sS'the__TOP__'
p7326
I01
sS'game__ALL__'
p7327
I01
sS'creat__ALL__'
p7328
I01
sS'where__TOP__'
p7329
I01
sS'connect__ALL__'
p7330
I01
sS'creat__TOP__'
p7331
I01
sS'ani__TOP__'
p7332
I01
sS'wors__TOP__'
p7333
I01
sS'fail__ALL__'
p7334
I01
sS'mic__TOP__'
p7335
I01
sS'ani__ALL__'
p7336
I01
sS"'s__TOP__"
p7337
I01
sS'horror__TOP__'
p7338
I01
sS'haunt__TOP__'
p7339
I01
sS'horror__ALL__'
p7340
I01
sS'horribl__BOTTOM__'
p7341
I01
sS'get__ALL__'
p7342
I01
sS'YouTub__ALL__'
p7343
I01
sS'And__ALL__'
p7344
I01
sS'you__ALL__'
p7345
I01
sS'haunt__ALL__'
p7346
I01
sS',__TOP__'
p7347
I01
sS'fail__BOTTOM__'
p7348
I01
sS'to__ALL__'
p7349
I01
sS'nois__TOP__'
p7350
I01
sS'watch__BOTTOM__'
p7351
I01
sS'a__ALL__'
p7352
I01
sS',__ALL__'
p7353
I01
sS'you__TOP__'
p7354
I01
sS'the__ALL__'
p7355
I01
sS'when__ALL__'
p7356
I01
sS'that__ALL__'
p7357
I01
sS'horribl__ALL__'
p7358
I01
sS'when__TOP__'
p7359
I01
sS'your__ALL__'
p7360
I01
sS'Let__TOP__'
p7361
I01
sS'that__TOP__'
p7362
I01
sS'game__TOP__'
p7363
I01
sS'get__TOP__'
p7364
I01
sS'to__TOP__'
p7365
I01
sS'watch__ALL__'
p7366
I01
sS'nois__ALL__'
p7367
I01
sS'your__TOP__'
p7368
I01
sS'where__ALL__'
p7369
I01
sS'all__ALL__'
p7370
I01
sS'And__BOTTOM__'
p7371
I01
sS'make__TOP__'
p7372
I01
sS'the__BOTTOM__'
p7373
I01
sS"'s__ALL__"
p7374
I01
sS'wors__ALL__'
p7375
I01
sS'Let__ALL__'
p7376
I01
sS'YouTub__BOTTOM__'
p7377
I01
sa(dp7378
S'have__TOP__'
p7379
I01
sS'Owe__TOP__'
p7380
I01
sS'u__TOP__'
p7381
I01
sS'me__ALL__'
p7382
I01
sS'u__ALL__'
p7383
I01
sS'have__ALL__'
p7384
I01
sS"n't__ALL__"
p7385
I01
sS'So__ALL__'
p7386
I01
sS"n't__TOP__"
p7387
I01
sS'me__TOP__'
p7388
I01
sS'you__ALL__'
p7389
I01
sS'did__ALL__'
p7390
I01
sS'said__ALL__'
p7391
I01
sS'you__TOP__'
p7392
I01
sS'So__TOP__'
p7393
I01
sS'did__TOP__'
p7394
I01
sS'You__ALL__'
p7395
I01
sS'Owe__ALL__'
p7396
I01
sS'money__TOP__'
p7397
I01
sS'money__ALL__'
p7398
I01
sS'said__TOP__'
p7399
I01
sS'You__TOP__'
p7400
I01
sa(dp7401
S'USE__ALL__'
p7402
I01
sS'USE__BOTTOM__'
p7403
I01
sS'easter__ALL__'
p7404
I01
sS'nephew__ALL__'
p7405
I01
sS'MADE__BOTTOM__'
p7406
I01
sS'niec__TOP__'
p7407
I01
sS'MADE__ALL__'
p7408
I01
sS'COLOR__BOTTOM__'
p7409
I01
sS'the__TOP__'
p7410
I01
sS'and__ALL__'
p7411
I01
sS'THAT__ALL__'
p7412
I01
sS'THAT__BOTTOM__'
p7413
I01
sS'THE__ALL__'
p7414
I01
sS'SURE__ALL__'
p7415
I01
sS'and__TOP__'
p7416
I01
sS'COLOR__ALL__'
p7417
I01
sS'INTO__BOTTOM__'
p7418
I01
sS'egg__ALL__'
p7419
I01
sS'PLANT__ALL__'
p7420
I01
sS'backyard__ALL__'
p7421
I01
sS'LIFE__ALL__'
p7422
I01
sS'for__ALL__'
p7423
I01
sS'LIFE__BOTTOM__'
p7424
I01
sS'BLEND__ALL__'
p7425
I01
sS'PLANT__BOTTOM__'
p7426
I01
sS'I__BOTTOM__'
p7427
I01
sS'in__ALL__'
p7428
I01
sS'ONLi__ALL__'
p7429
I01
sS'for__TOP__'
p7430
I01
sS'nephew__TOP__'
p7431
I01
sS'THE__BOTTOM__'
p7432
I01
sS'Hid__TOP__'
p7433
I01
sS'BLEND__BOTTOM__'
p7434
I01
sS'backyard__TOP__'
p7435
I01
sS'INTO__ALL__'
p7436
I01
sS'in__TOP__'
p7437
I01
sS'SURE__BOTTOM__'
p7438
I01
sS'I__ALL__'
p7439
I01
sS'niec__ALL__'
p7440
I01
sS'egg__TOP__'
p7441
I01
sS'the__ALL__'
p7442
I01
sS'easter__TOP__'
p7443
I01
sS'ONLi__BOTTOM__'
p7444
I01
sS'Hid__ALL__'
p7445
I01
sa(dp7446
S'a__TOP__'
p7447
I01
sS'me__ALL__'
p7448
I01
sS'my__BOTTOM__'
p7449
I01
sS'You__BOTTOM__'
p7450
I01
sS'a__ALL__'
p7451
I01
sS'!__BOTTOM__'
p7452
I01
sS'gon__ALL__'
p7453
I01
sS'thi__ALL__'
p7454
I01
sS'?__TOP__'
p7455
I01
sS'on__ALL__'
p7456
I01
sS'pay__BOTTOM__'
p7457
I01
sS'gon__BOTTOM__'
p7458
I01
sS'thi__BOTTOM__'
p7459
I01
sS'me__TOP__'
p7460
I01
sS'on__TOP__'
p7461
I01
sS'friend__ALL__'
p7462
I01
sS'meme__ALL__'
p7463
I01
sS'friend__BOTTOM__'
p7464
I01
sS'pay__ALL__'
p7465
I01
sS'You__ALL__'
p7466
I01
sS'Did__ALL__'
p7467
I01
sS'!__ALL__'
p7468
I01
sS'?__ALL__'
p7469
I01
sS'meme__TOP__'
p7470
I01
sS'my__ALL__'
p7471
I01
sS'Did__TOP__'
p7472
I01
sS'na__ALL__'
p7473
I01
sS'na__BOTTOM__'
p7474
I01
sa(dp7475
S'Excel__TOP__'
p7476
I01
sS'on__ALL__'
p7477
I01
sS'prom__ALL__'
p7478
I01
sS'prom__BOTTOM__'
p7479
I01
sS'Excel__ALL__'
p7480
I01
sS'rain__BOTTOM__'
p7481
I01
sS'it__BOTTOM__'
p7482
I01
sS'rain__ALL__'
p7483
I01
sS'it__ALL__'
p7484
I01
sS'on__BOTTOM__'
p7485
I01
sS'night__BOTTOM__'
p7486
I01
sS"'s__ALL__"
p7487
I01
sS'night__ALL__'
p7488
I01
sS"'s__BOTTOM__"
p7489
I01
sa(dp7490
S'Let__BOTTOM__'
p7491
I01
sS'out__ALL__'
p7492
I01
sS'shit__ALL__'
p7493
I01
sS'Post__TOP__'
p7494
I01
sS'more__ALL__'
p7495
I01
sS'Post__ALL__'
p7496
I01
sS'of__ALL__'
p7497
I01
sS'of__BOTTOM__'
p7498
I01
sS'out__BOTTOM__'
p7499
I01
sS'confus__ALL__'
p7500
I01
sS'meme__ALL__'
p7501
I01
sS'more__TOP__'
p7502
I01
sS'amalgam__TOP__'
p7503
I01
sS'confus__BOTTOM__'
p7504
I01
sS'captionbot__BOTTOM__'
p7505
I01
sS'shit__BOTTOM__'
p7506
I01
sS'captionbot__ALL__'
p7507
I01
sS'amalgam__ALL__'
p7508
I01
sS'meme__TOP__'
p7509
I01
sS'the__ALL__'
p7510
I01
sS'the__BOTTOM__'
p7511
I01
sS"'s__ALL__"
p7512
I01
sS'Let__ALL__'
p7513
I01
sS"'s__BOTTOM__"
p7514
I01
sa(dp7515
S'make__ALL__'
p7516
I01
sS'to__ALL__'
p7517
I01
sS'birthday__TOP__'
p7518
I01
sS'make__BOTTOM__'
p7519
I01
sS'to__BOTTOM__'
p7520
I01
sS'product__ALL__'
p7521
I01
sS'work__ALL__'
p7522
I01
sS'Send__TOP__'
p7523
I01
sS'wish__TOP__'
p7524
I01
sS'birthday__ALL__'
p7525
I01
sS'work__BOTTOM__'
p7526
I01
sS'Send__ALL__'
p7527
I01
sS'less__ALL__'
p7528
I01
sS'less__BOTTOM__'
p7529
I01
sS'product__BOTTOM__'
p7530
I01
sS'you__ALL__'
p7531
I01
sS'you__BOTTOM__'
p7532
I01
sS'at__BOTTOM__'
p7533
I01
sS'at__ALL__'
p7534
I01
sS'wish__ALL__'
p7535
I01
sa(dp7536
S'to__ALL__'
p7537
I01
sS'fli__ALL__'
p7538
I01
sS'to__BOTTOM__'
p7539
I01
sS'fli__BOTTOM__'
p7540
I01
sS'and__ALL__'
p7541
I01
sS'ohio__ALL__'
p7542
I01
sS'and__BOTTOM__'
p7543
I01
sS'ohio__BOTTOM__'
p7544
I01
sa(dp7545
S'wait__ALL__'
p7546
I01
sS'to__ALL__'
p7547
I01
sS'fail__BOTTOM__'
p7548
I01
sS'for__BOTTOM__'
p7549
I01
sS'to__BOTTOM__'
p7550
I01
sS'wait__TOP__'
p7551
I01
sS'we__ALL__'
p7552
I01
sS'for__ALL__'
p7553
I01
sS'again__BOTTOM__'
p7554
I01
sS'now__TOP__'
p7555
I01
sS'citrix__BOTTOM__'
p7556
I01
sS'...__ALL__'
p7557
I01
sS'now__ALL__'
p7558
I01
sS'citrix__ALL__'
p7559
I01
sS'again__ALL__'
p7560
I01
sS'we__TOP__'
p7561
I01
sS'...__BOTTOM__'
p7562
I01
sS'fail__ALL__'
p7563
I01
sa(dp7564
S"'m__ALL__"
p7565
I01
sS'asshol__BOTTOM__'
p7566
I01
sS'i__TOP__'
p7567
I01
sS"'m__TOP__"
p7568
I01
sS'come__TOP__'
p7569
I01
sS'i__ALL__'
p7570
I01
sS'come__ALL__'
p7571
I01
sS'you__TOP__'
p7572
I01
sS'for__TOP__'
p7573
I01
sS'you__ALL__'
p7574
I01
sS'asshol__ALL__'
p7575
I01
sS'for__ALL__'
p7576
I01
sa(dp7577
S'window__ALL__'
p7578
I01
sS'a__ALL__'
p7579
I01
sS'rip__ALL__'
p7580
I01
sS'fart__BOTTOM__'
p7581
I01
sS'fart__ALL__'
p7582
I01
sS'a__BOTTOM__'
p7583
I01
sS'major__ALL__'
p7584
I01
sS'major__BOTTOM__'
p7585
I01
sS'rip__BOTTOM__'
p7586
I01
sS'Lock__TOP__'
p7587
I01
sS'the__TOP__'
p7588
I01
sS'And__ALL__'
p7589
I01
sS'car__ALL__'
p7590
I01
sS'car__TOP__'
p7591
I01
sS'And__BOTTOM__'
p7592
I01
sS'the__ALL__'
p7593
I01
sS'window__TOP__'
p7594
I01
sS'Lock__ALL__'
p7595
I01
sa(dp7596
S'to__ALL__'
p7597
I01
sS'Time__ALL__'
p7598
I01
sS'maker__ALL__'
p7599
I01
sS'to__TOP__'
p7600
I01
sS'maker__BOTTOM__'
p7601
I01
sS'Time__TOP__'
p7602
I01
sS'meet__ALL__'
p7603
I01
sS'your__ALL__'
p7604
I01
sS'your__BOTTOM__'
p7605
I01
sS'meet__TOP__'
p7606
I01
sa(dp7607
S'It__TOP__'
p7608
I01
sS'A__ALL__'
p7609
I01
sS'moldi__BOTTOM__'
p7610
I01
sS'wind__ALL__'
p7611
I01
sS'moldi__ALL__'
p7612
I01
sS'A__BOTTOM__'
p7613
I01
sS'like__TOP__'
p7614
I01
sS'wind__BOTTOM__'
p7615
I01
sS'smell__ALL__'
p7616
I01
sS'like__ALL__'
p7617
I01
sS'It__ALL__'
p7618
I01
sS'smell__TOP__'
p7619
I01
sS'of__ALL__'
p7620
I01
sS'bag__BOTTOM__'
p7621
I01
sS'bag__ALL__'
p7622
I01
sS'of__BOTTOM__'
p7623
I01
sa(dp7624
S'to__ALL__'
p7625
I01
sS'qq__BOTTOM__'
p7626
I01
sS'avoid__TOP__'
p7627
I01
sS'be__BOTTOM__'
p7628
I01
sS'gunner__TOP__'
p7629
I01
sS'too__ALL__'
p7630
I01
sS'everyon__ALL__'
p7631
I01
sS"'ll__BOTTOM__"
p7632
I01
sS"'ll__ALL__"
p7633
I01
sS'to__TOP__'
p7634
I01
sS'too__BOTTOM__'
p7635
I01
sS'gunner__ALL__'
p7636
I01
sS'avoid__ALL__'
p7637
I01
sS'Roll__TOP__'
p7638
I01
sS'qq__ALL__'
p7639
I01
sS'qq__TOP__'
p7640
I01
sS'busi__BOTTOM__'
p7641
I01
sS'Roll__ALL__'
p7642
I01
sS'be__ALL__'
p7643
I01
sS'everyon__BOTTOM__'
p7644
I01
sS'busi__ALL__'
p7645
I01
sa(dp7646
S'.__BOTTOM__'
p7647
I01
sS'make__ALL__'
p7648
I01
sS'.__ALL__'
p7649
I01
sS'make__BOTTOM__'
p7650
I01
sS'anymor__ALL__'
p7651
I01
sS'a__TOP__'
p7652
I01
sS'anymor__BOTTOM__'
p7653
I01
sS'comment__TOP__'
p7654
I01
sS'made__ALL__'
p7655
I01
sS'doe__BOTTOM__'
p7656
I01
sS'edit__BOTTOM__'
p7657
I01
sS'sens__ALL__'
p7658
I01
sS'your__BOTTOM__'
p7659
I01
sS'Let__BOTTOM__'
p7660
I01
sS'funnier__ALL__'
p7661
I01
sS'so__ALL__'
p7662
I01
sS'a__ALL__'
p7663
I01
sS'edit__ALL__'
p7664
I01
sS'mine__ALL__'
p7665
I01
sS'So__ALL__'
p7666
I01
sS'made__TOP__'
p7667
I01
sS'so__BOTTOM__'
p7668
I01
sS'?__TOP__'
p7669
I01
sS'on__ALL__'
p7670
I01
sS'funnier__TOP__'
p7671
I01
sS'you__ALL__'
p7672
I01
sS'mine__BOTTOM__'
p7673
I01
sS"n't__BOTTOM__"
p7674
I01
sS'me__BOTTOM__'
p7675
I01
sS"n't__ALL__"
p7676
I01
sS'you__TOP__'
p7677
I01
sS'So__TOP__'
p7678
I01
sS'me__ALL__'
p7679
I01
sS'your__ALL__'
p7680
I01
sS'doe__ALL__'
p7681
I01
sS'sens__BOTTOM__'
p7682
I01
sS'?__ALL__'
p7683
I01
sS'my__TOP__'
p7684
I01
sS'on__TOP__'
p7685
I01
sS'my__ALL__'
p7686
I01
sS'comment__ALL__'
p7687
I01
sS'Let__ALL__'
p7688
I01
sa(dp7689
S'special__BOTTOM__'
p7690
I01
sS'cooker__TOP__'
p7691
I01
sS'are__TOP__'
p7692
I01
sS'backpack__BOTTOM__'
p7693
I01
sS'sister__ALL__'
p7694
I01
sS'her__BOTTOM__'
p7695
I01
sS'cooker__ALL__'
p7696
I01
sS'Send__TOP__'
p7697
I01
sS'an__TOP__'
p7698
I01
sS'send__BOTTOM__'
p7699
I01
sS'on__ALL__'
p7700
I01
sS'Send__ALL__'
p7701
I01
sS'pressur__TOP__'
p7702
I01
sS'her__ALL__'
p7703
I01
sS'on__TOP__'
p7704
I01
sS'email__TOP__'
p7705
I01
sS'email__ALL__'
p7706
I01
sS'an__ALL__'
p7707
I01
sS'backpack__ALL__'
p7708
I01
sS'sister__TOP__'
p7709
I01
sS'are__BOTTOM__'
p7710
I01
sS'that__ALL__'
p7711
I01
sS'that__BOTTOM__'
p7712
I01
sS'email__BOTTOM__'
p7713
I01
sS'special__ALL__'
p7714
I01
sS'that__TOP__'
p7715
I01
sS'husband__BOTTOM__'
p7716
I01
sS'are__ALL__'
p7717
I01
sS'an__BOTTOM__'
p7718
I01
sS'pressur__ALL__'
p7719
I01
sS'special__TOP__'
p7720
I01
sS'on__BOTTOM__'
p7721
I01
sS'send__ALL__'
p7722
I01
sS'husband__ALL__'
p7723
I01
sa(dp7724
S'be__BOTTOM__'
p7725
I01
sS'a__TOP__'
p7726
I01
sS'gloriou__ALL__'
p7727
I01
sS'play__TOP__'
p7728
I01
sS"'s__TOP__"
p7729
I01
sS'shall__BOTTOM__'
p7730
I01
sS'shall__ALL__'
p7731
I01
sS'it__BOTTOM__'
p7732
I01
sS'let__TOP__'
p7733
I01
sS',__ALL__'
p7734
I01
sS'game__TOP__'
p7735
I01
sS'be__ALL__'
p7736
I01
sS'it__ALL__'
p7737
I01
sS',__BOTTOM__'
p7738
I01
sS'let__ALL__'
p7739
I01
sS'yesssh__BOTTOM__'
p7740
I01
sS'gloriou__BOTTOM__'
p7741
I01
sS'game__ALL__'
p7742
I01
sS'a__ALL__'
p7743
I01
sS'play__ALL__'
p7744
I01
sS"'s__ALL__"
p7745
I01
sS'yesssh__ALL__'
p7746
I01
sa(dp7747
S'make__ALL__'
p7748
I01
sS'x__ALL__'
p7749
I01
sS'x__TOP__'
p7750
I01
sS"''__TOP__"
p7751
I01
sS'To__ALL__'
p7752
I01
sS'``__ALL__'
p7753
I01
sS'WWIII__ALL__'
p7754
I01
sS'post__ALL__'
p7755
I01
sS'``__TOP__'
p7756
I01
sS'aggress__ALL__'
p7757
I01
sS'sleep__TOP__'
p7758
I01
sS'while__TOP__'
p7759
I01
sS'more__ALL__'
p7760
I01
sS'post__TOP__'
p7761
I01
sS"''__ALL__"
p7762
I01
sS'while__ALL__'
p7763
I01
sS'aggress__TOP__'
p7764
I01
sS'more__TOP__'
p7765
I01
sS'start__ALL__'
p7766
I01
sS'WWIII__BOTTOM__'
p7767
I01
sS'Start__TOP__'
p7768
I01
sS'To__BOTTOM__'
p7769
I01
sS'countri__TOP__'
p7770
I01
sS'is__ALL__'
p7771
I01
sS'Start__ALL__'
p7772
I01
sS'is__TOP__'
p7773
I01
sS'countri__ALL__'
p7774
I01
sS'sleep__ALL__'
p7775
I01
sS'make__TOP__'
p7776
I01
sS'start__BOTTOM__'
p7777
I01
sa.