(lp0
(dp1
S'jan__ALL__'
p2
I01
sS'saw__ALL__'
p3
I01
sS'kill__BOTTOM__'
p4
I01
sS'peopl__ALL__'
p5
I01
sS'peopl__BOTTOM__'
p6
I01
sS'jan__TOP__'
p7
I01
sS'saw__TOP__'
p8
I01
sS'stop__ALL__'
p9
I01
sS'kill__ALL__'
p10
I01
sS'stop__BOTTOM__'
p11
I01
sa(dp12
S'to__BOTTOM__'
p13
I01
sS'so__ALL__'
p14
I01
sS'happi__TOP__'
p15
I01
sS'me__ALL__'
p16
I01
sS'birthday__ALL__'
p17
I01
sS'rememb__BOTTOM__'
p18
I01
sS'rememb__ALL__'
p19
I01
sS'forgot__TOP__'
p20
I01
sS'birthday__TOP__'
p21
I01
sS'funer__ALL__'
p22
I01
sS'so__BOTTOM__'
p23
I01
sS'happi__BOTTOM__'
p24
I01
sS'me__TOP__'
p25
I01
sS'tell__ALL__'
p26
I01
sS'tell__BOTTOM__'
p27
I01
sS'I__BOTTOM__'
p28
I01
sS'tell__TOP__'
p29
I01
sS'happi__ALL__'
p30
I01
sS'funer__BOTTOM__'
p31
I01
sS'to__ALL__'
p32
I01
sS'They__TOP__'
p33
I01
sS'I__ALL__'
p34
I01
sS'to__TOP__'
p35
I01
sS'forgot__ALL__'
p36
I01
sS'them__ALL__'
p37
I01
sS'They__ALL__'
p38
I01
sS'them__BOTTOM__'
p39
I01
sa(dp40
S'.__BOTTOM__'
p41
I01
sS'make__ALL__'
p42
I01
sS'.__ALL__'
p43
I01
sS'me__ALL__'
p44
I01
sS'the__TOP__'
p45
I01
sS'Mommi__ALL__'
p46
I01
sS'popular__ALL__'
p47
I01
sS'band__TOP__'
p48
I01
sS'...__BOTTOM__'
p49
I01
sS'...__ALL__'
p50
I01
sS'target__ALL__'
p51
I01
sS'me__TOP__'
p52
I01
sS'would__ALL__'
p53
I01
sS'would__TOP__'
p54
I01
sS'popular__BOTTOM__'
p55
I01
sS'band__ALL__'
p56
I01
sS'said__ALL__'
p57
I01
sS'make__TOP__'
p58
I01
sS'that__ALL__'
p59
I01
sS'that__BOTTOM__'
p60
I01
sS'...__TOP__'
p61
I01
sS'is__BOTTOM__'
p62
I01
sS'wedgi__BOTTOM__'
p63
I01
sS'a__BOTTOM__'
p64
I01
sS'target__BOTTOM__'
p65
I01
sS'said__TOP__'
p66
I01
sS'is__ALL__'
p67
I01
sS'a__ALL__'
p68
I01
sS'Mommi__TOP__'
p69
I01
sS'wedgi__ALL__'
p70
I01
sS'popular__TOP__'
p71
I01
sS'the__ALL__'
p72
I01
sS'join__ALL__'
p73
I01
sS'join__TOP__'
p74
I01
sa(dp75
S'I__TOP__'
p76
I01
sS'did__TOP__'
p77
I01
sS'All__TOP__'
p78
I01
sS'what__ALL__'
p79
I01
sS'All__ALL__'
p80
I01
sS'gave__ALL__'
p81
I01
sS'tell__ALL__'
p82
I01
sS'did__ALL__'
p83
I01
sS'her__ALL__'
p84
I01
sS'what__TOP__'
p85
I01
sS'wa__ALL__'
p86
I01
sS'gave__TOP__'
p87
I01
sS'tell__TOP__'
p88
I01
sS'her__TOP__'
p89
I01
sS'twerk__ALL__'
p90
I01
sS'to__ALL__'
p91
I01
sS'ancestor__ALL__'
p92
I01
sS'wa__TOP__'
p93
I01
sS'I__ALL__'
p94
I01
sS'ancestor__TOP__'
p95
I01
sS'to__TOP__'
p96
I01
sS'twerk__TOP__'
p97
I01
sa(dp98
S'6:30__ALL__'
p99
I01
sS'6:30__BOTTOM__'
p100
I01
sS'Game__BOTTOM__'
p101
I01
sS'Bonanza__ALL__'
p102
I01
sS'All__TOP__'
p103
I01
sS'@__ALL__'
p104
I01
sS'year__TOP__'
p105
I01
sS'year__ALL__'
p106
I01
sS'All__ALL__'
p107
I01
sS'come__ALL__'
p108
I01
sS'come__TOP__'
p109
I01
sS'train__ALL__'
p110
I01
sS'TMRO__BOTTOM__'
p111
I01
sS'of__ALL__'
p112
I01
sS'to__ALL__'
p113
I01
sS'Game__ALL__'
p114
I01
sS'@__BOTTOM__'
p115
I01
sS'of__TOP__'
p116
I01
sS'train__TOP__'
p117
I01
sS'down__TOP__'
p118
I01
sS'Night__ALL__'
p119
I01
sS'event__TOP__'
p120
I01
sS'one__TOP__'
p121
I01
sS'event__ALL__'
p122
I01
sS'my__TOP__'
p123
I01
sS'to__TOP__'
p124
I01
sS'TMRO__ALL__'
p125
I01
sS'one__ALL__'
p126
I01
sS'my__ALL__'
p127
I01
sS'down__ALL__'
p128
I01
sS'Night__BOTTOM__'
p129
I01
sS'Bonanza__BOTTOM__'
p130
I01
sa(dp131
S'I__TOP__'
p132
I01
sS'twerk__ALL__'
p133
I01
sS'All__TOP__'
p134
I01
sS'ancestor__BOTTOM__'
p135
I01
sS'have__ALL__'
p136
I01
sS'All__ALL__'
p137
I01
sS'her__BOTTOM__'
p138
I01
sS'What__ALL__'
p139
I01
sS'tell__ALL__'
p140
I01
sS'did__ALL__'
p141
I01
sS'her__ALL__'
p142
I01
sS'What__BOTTOM__'
p143
I01
sS'wa__ALL__'
p144
I01
sS'tell__TOP__'
p145
I01
sS'her__TOP__'
p146
I01
sS'did__TOP__'
p147
I01
sS'have__BOTTOM__'
p148
I01
sS'to__ALL__'
p149
I01
sS'ancestor__ALL__'
p150
I01
sS'wa__TOP__'
p151
I01
sS'I__ALL__'
p152
I01
sS'to__TOP__'
p153
I01
sS'twerk__TOP__'
p154
I01
sa(dp155
S'make__ALL__'
p156
I01
sS'all__BOTTOM__'
p157
I01
sS'they__TOP__'
p158
I01
sS'make__BOTTOM__'
p159
I01
sS'bitch__BOTTOM__'
p160
I01
sS'said__TOP__'
p161
I01
sS'but__TOP__'
p162
I01
sS'all__ALL__'
p163
I01
sS'said__ALL__'
p164
I01
sS'the__ALL__'
p165
I01
sS'that__ALL__'
p166
I01
sS'that__BOTTOM__'
p167
I01
sS'but__ALL__'
p168
I01
sS'the__BOTTOM__'
p169
I01
sS'wet__BOTTOM__'
p170
I01
sS'sniper__BOTTOM__'
p171
I01
sS'wet__ALL__'
p172
I01
sS'they__ALL__'
p173
I01
sS'bitch__ALL__'
p174
I01
sS'sniper__ALL__'
p175
I01
sa(dp176
S'.__BOTTOM__'
p177
I01
sS',__TOP__'
p178
I01
sS'I__TOP__'
p179
I01
sS'minut__ALL__'
p180
I01
sS'8__TOP__'
p181
I01
sS'8__ALL__'
p182
I01
sS'dump__BOTTOM__'
p183
I01
sS'I__ALL__'
p184
I01
sS'me__BOTTOM__'
p185
I01
sS'dump__ALL__'
p186
I01
sS',__ALL__'
p187
I01
sS'she__BOTTOM__'
p188
I01
sS'.__ALL__'
p189
I01
sS'minut__TOP__'
p190
I01
sS'me__ALL__'
p191
I01
sS'she__ALL__'
p192
I01
sS'last__ALL__'
p193
I01
sS'last__TOP__'
p194
I01
sa(dp195
S'fun__TOP__'
p196
I01
sS'collect__ALL__'
p197
I01
sS'me__ALL__'
p198
I01
sS'made__ALL__'
p199
I01
sS'Action__ALL__'
p200
I01
sS'Figur__ALL__'
p201
I01
sS'...__BOTTOM__'
p202
I01
sS'made__TOP__'
p203
I01
sS'...__ALL__'
p204
I01
sS'collect__BOTTOM__'
p205
I01
sS'collect__TOP__'
p206
I01
sS'me__TOP__'
p207
I01
sS'of__ALL__'
p208
I01
sS'Action__TOP__'
p209
I01
sS'for__ALL__'
p210
I01
sS'I__BOTTOM__'
p211
I01
sS'their__ALL__'
p212
I01
sS'for__TOP__'
p213
I01
sS'Skull__BOTTOM__'
p214
I01
sS'So__BOTTOM__'
p215
I01
sS'They__TOP__'
p216
I01
sS'Figur__TOP__'
p217
I01
sS'fun__ALL__'
p218
I01
sS'I__ALL__'
p219
I01
sS'Skull__ALL__'
p220
I01
sS'their__BOTTOM__'
p221
I01
sS'They__ALL__'
p222
I01
sS'So__ALL__'
p223
I01
sS'of__TOP__'
p224
I01
sa(dp225
S'but__ALL__'
p226
I01
sS'not__ALL__'
p227
I01
sS'will__ALL__'
p228
I01
sS'night__BOTTOM__'
p229
I01
sS'perform__BOTTOM__'
p230
I01
sS'Saturday__ALL__'
p231
I01
sS'Saturday__BOTTOM__'
p232
I01
sS'Unfortun__ALL__'
p233
I01
sS'but__BOTTOM__'
p234
I01
sS'Wicker__BOTTOM__'
p235
I01
sS'Brother__ALL__'
p236
I01
sS'perform__ALL__'
p237
I01
sS'will__BOTTOM__'
p238
I01
sS',__TOP__'
p239
I01
sS',__ALL__'
p240
I01
sS'Brother__BOTTOM__'
p241
I01
sS'Unfortun__TOP__'
p242
I01
sS'be__ALL__'
p243
I01
sS'be__BOTTOM__'
p244
I01
sS'I__BOTTOM__'
p245
I01
sS'night__ALL__'
p246
I01
sS'Wicker__ALL__'
p247
I01
sS'I__ALL__'
p248
I01
sS'not__BOTTOM__'
p249
I01
sa(dp250
S'school__ALL__'
p251
I01
sS'Rob__BOTTOM__'
p252
I01
sS'Rob__ALL__'
p253
I01
sS'Chamberlain__TOP__'
p254
I01
sS'school__TOP__'
p255
I01
sS'Crescentini__BOTTOM__'
p256
I01
sS'1997__ALL__'
p257
I01
sS'Chamberlain__ALL__'
p258
I01
sS'Crescentini__ALL__'
p259
I01
sS'high__ALL__'
p260
I01
sS'1997__BOTTOM__'
p261
I01
sS'high__TOP__'
p262
I01
sa(dp263
S'man__BOTTOM__'
p264
I01
sS'birthday__TOP__'
p265
I01
sS'sexi__ALL__'
p266
I01
sS'happi__TOP__'
p267
I01
sS'sexi__BOTTOM__'
p268
I01
sS'birthday__ALL__'
p269
I01
sS'happi__ALL__'
p270
I01
sS'man__ALL__'
p271
I01
sa(dp272
S'.__BOTTOM__'
p273
I01
sS'.__ALL__'
p274
I01
sS'but__ALL__'
p275
I01
sS'get__BOTTOM__'
p276
I01
sS'nigger__ALL__'
p277
I01
sS'than__ALL__'
p278
I01
sS'seat__ALL__'
p279
I01
sS'a__ALL__'
p280
I01
sS'more__ALL__'
p281
I01
sS'but__BOTTOM__'
p282
I01
sS'hatin__TOP__'
p283
I01
sS'get__ALL__'
p284
I01
sS'i__ALL__'
p285
I01
sS'more__BOTTOM__'
p286
I01
sS'be__ALL__'
p287
I01
sS'ass__ALL__'
p288
I01
sS'ass__BOTTOM__'
p289
I01
sS'than__BOTTOM__'
p290
I01
sS'hatin__ALL__'
p291
I01
sS'seat__BOTTOM__'
p292
I01
sS'be__TOP__'
p293
I01
sS'a__BOTTOM__'
p294
I01
sS'toilet__ALL__'
p295
I01
sS'i__BOTTOM__'
p296
I01
sS'toilet__BOTTOM__'
p297
I01
sS'nigger__TOP__'
p298
I01
sa(dp299
S'had__TOP__'
p300
I01
sS'between__ALL__'
p301
I01
sS'choos__BOTTOM__'
p302
I01
sS'and__ALL__'
p303
I01
sS'clarinet__ALL__'
p304
I01
sS'and__TOP__'
p305
I01
sS'death__ALL__'
p306
I01
sS'life__TOP__'
p307
I01
sS'choos__TOP__'
p308
I01
sS'clarinet__BOTTOM__'
p309
I01
sS'between__TOP__'
p310
I01
sS'had__ALL__'
p311
I01
sS'choos__ALL__'
p312
I01
sS'death__TOP__'
p313
I01
sS'i__ALL__'
p314
I01
sS'life__ALL__'
p315
I01
sS'to__ALL__'
p316
I01
sS'i__TOP__'
p317
I01
sS'to__TOP__'
p318
I01
sS'i__BOTTOM__'
p319
I01
sS'the__ALL__'
p320
I01
sS'the__BOTTOM__'
p321
I01
sa(dp322
S'want__TOP__'
p323
I01
sS'becam__BOTTOM__'
p324
I01
sS'so__ALL__'
p325
I01
sS'anyth__ALL__'
p326
I01
sS'they__TOP__'
p327
I01
sS'want__ALL__'
p328
I01
sS'becam__ALL__'
p329
I01
sS'a__ALL__'
p330
I01
sS'so__BOTTOM__'
p331
I01
sS'god__BOTTOM__'
p332
I01
sS'anyth__TOP__'
p333
I01
sS'could__TOP__'
p334
I01
sS'i__ALL__'
p335
I01
sS'said__ALL__'
p336
I01
sS'be__ALL__'
p337
I01
sS'god__ALL__'
p338
I01
sS'they__ALL__'
p339
I01
sS'be__TOP__'
p340
I01
sS'i__TOP__'
p341
I01
sS'a__BOTTOM__'
p342
I01
sS'said__TOP__'
p343
I01
sS'i__BOTTOM__'
p344
I01
sS'could__ALL__'
p345
I01
sa(dp346
S'left__ALL__'
p347
I01
sS'got__ALL__'
p348
I01
sS'there__ALL__'
p349
I01
sS'wa__BOTTOM__'
p350
I01
sS'a__TOP__'
p351
I01
sS'left__BOTTOM__'
p352
I01
sS'it__TOP__'
p353
I01
sS'a__ALL__'
p354
I01
sS'cemeteri__ALL__'
p355
I01
sS'it__BOTTOM__'
p356
I01
sS'wa__ALL__'
p357
I01
sS'citi__TOP__'
p358
I01
sS'i__ALL__'
p359
I01
sS'when__ALL__'
p360
I01
sS'it__ALL__'
p361
I01
sS'when__TOP__'
p362
I01
sS'i__TOP__'
p363
I01
sS'a__BOTTOM__'
p364
I01
sS'wa__TOP__'
p365
I01
sS'cemeteri__BOTTOM__'
p366
I01
sS'citi__ALL__'
p367
I01
sS'i__BOTTOM__'
p368
I01
sS'there__TOP__'
p369
I01
sS'got__TOP__'
p370
I01
sS'when__BOTTOM__'
p371
I01
sa(dp372
S'.__BOTTOM__'
p373
I01
sS'dare__BOTTOM__'
p374
I01
sS'.__ALL__'
p375
I01
sS'i__ALL__'
p376
I01
sS'me__TOP__'
p377
I01
sS'fuck__ALL__'
p378
I01
sS'fuck__BOTTOM__'
p379
I01
sS'poke__TOP__'
p380
I01
sS'me__ALL__'
p381
I01
sS'i__BOTTOM__'
p382
I01
sS'on__ALL__'
p383
I01
sS'facebook__TOP__'
p384
I01
sS'you__ALL__'
p385
I01
sS'dare__ALL__'
p386
I01
sS'you__BOTTOM__'
p387
I01
sS'facebook__ALL__'
p388
I01
sS'poke__ALL__'
p389
I01
sS'on__TOP__'
p390
I01
sa(dp391
S'all__ALL__'
p392
I01
sS'dont__ALL__'
p393
I01
sS'dont__BOTTOM__'
p394
I01
sS'fun__TOP__'
p395
I01
sS':__ALL__'
p396
I01
sS'care__ALL__'
p397
I01
sS'made__ALL__'
p398
I01
sS'bowlcut__TOP__'
p399
I01
sS'bowlcut__ALL__'
p400
I01
sS'made__TOP__'
p401
I01
sS'of__ALL__'
p402
I01
sS'sabon__TOP__'
p403
I01
sS'they__TOP__'
p404
I01
sS'i__ALL__'
p405
I01
sS'sabon__ALL__'
p406
I01
sS'of__TOP__'
p407
I01
sS'irl__TOP__'
p408
I01
sS'they__ALL__'
p409
I01
sS'all__TOP__'
p410
I01
sS'fun__ALL__'
p411
I01
sS'care__BOTTOM__'
p412
I01
sS'i__BOTTOM__'
p413
I01
sS'my__ALL__'
p414
I01
sS'my__TOP__'
p415
I01
sS'irl__ALL__'
p416
I01
sS':__TOP__'
p417
I01
sa(dp418
S'tube__ALL__'
p419
I01
sS'i__TOP__'
p420
I01
sS'told__ALL__'
p421
I01
sS'they__TOP__'
p422
I01
sS'eat__BOTTOM__'
p423
I01
sS'through__ALL__'
p424
I01
sS'told__TOP__'
p425
I01
sS'i__ALL__'
p426
I01
sS'a__BOTTOM__'
p427
I01
sS'now__BOTTOM__'
p428
I01
sS'a__ALL__'
p429
I01
sS'me__ALL__'
p430
I01
sS'couldnt__ALL__'
p431
I01
sS'eat__ALL__'
p432
I01
sS'now__ALL__'
p433
I01
sS'me__TOP__'
p434
I01
sS'couldnt__TOP__'
p435
I01
sS'they__BOTTOM__'
p436
I01
sS'through__BOTTOM__'
p437
I01
sS'they__ALL__'
p438
I01
sS'tube__BOTTOM__'
p439
I01
sa(dp440
S'all__ALL__'
p441
I01
sS'a__ALL__'
p442
I01
sS'have__TOP__'
p443
I01
sS'all__TOP__'
p444
I01
sS'have__ALL__'
p445
I01
sS'a__TOP__'
p446
I01
sS'in__ALL__'
p447
I01
sS'we__ALL__'
p448
I01
sS'my__ALL__'
p449
I01
sS'in__BOTTOM__'
p450
I01
sS'dream__TOP__'
p451
I01
sS'my__BOTTOM__'
p452
I01
sS'dream__BOTTOM__'
p453
I01
sS'we__TOP__'
p454
I01
sS'dream__ALL__'
p455
I01
sa(dp456
S'threw__BOTTOM__'
p457
I01
sS'threw__ALL__'
p458
I01
sS'want__TOP__'
p459
I01
sS'so__ALL__'
p460
I01
sS'parent__ALL__'
p461
I01
sS'parent__TOP__'
p462
I01
sS'one__ALL__'
p463
I01
sS'want__ALL__'
p464
I01
sS'subway__ALL__'
p465
I01
sS'subway__TOP__'
p466
I01
sS'so__BOTTOM__'
p467
I01
sS'one__BOTTOM__'
p468
I01
sS'they__TOP__'
p469
I01
sS'i__ALL__'
p470
I01
sS'said__ALL__'
p471
I01
sS'under__BOTTOM__'
p472
I01
sS'they__ALL__'
p473
I01
sS'my__TOP__'
p474
I01
sS'said__TOP__'
p475
I01
sS'i__BOTTOM__'
p476
I01
sS'my__ALL__'
p477
I01
sS'them__ALL__'
p478
I01
sS'under__ALL__'
p479
I01
sS'them__BOTTOM__'
p480
I01
sa(dp481
S'pussi__BOTTOM__'
p482
I01
sS'virgin__ALL__'
p483
I01
sS'?__ALL__'
p484
I01
sS'i__ALL__'
p485
I01
sS'a__TOP__'
p486
I01
sS'a__ALL__'
p487
I01
sS'call__TOP__'
p488
I01
sS'i__BOTTOM__'
p489
I01
sS'?__TOP__'
p490
I01
sS'pussi__ALL__'
p491
I01
sS'slay__ALL__'
p492
I01
sS'slay__BOTTOM__'
p493
I01
sS'me__ALL__'
p494
I01
sS'me__TOP__'
p495
I01
sS'motherfuck__BOTTOM__'
p496
I01
sS'that__ALL__'
p497
I01
sS'that__BOTTOM__'
p498
I01
sS'call__ALL__'
p499
I01
sS'motherfuck__ALL__'
p500
I01
sS'virgin__TOP__'
p501
I01
sa(dp502
S'said__ALL__'
p503
I01
sS'were__ALL__'
p504
I01
sS'they__TOP__'
p505
I01
sS'ginger__ALL__'
p506
I01
sS'incarn__ALL__'
p507
I01
sS'i__ALL__'
p508
I01
sS'said__TOP__'
p509
I01
sS'evil__TOP__'
p510
I01
sS'i__BOTTOM__'
p511
I01
sS'ginger__TOP__'
p512
I01
sS'evil__BOTTOM__'
p513
I01
sS'show__ALL__'
p514
I01
sS'show__BOTTOM__'
p515
I01
sS'them__ALL__'
p516
I01
sS'evil__ALL__'
p517
I01
sS'incarn__BOTTOM__'
p518
I01
sS'were__TOP__'
p519
I01
sS'they__ALL__'
p520
I01
sS'them__BOTTOM__'
p521
I01
sa(dp522
S'life__TOP__'
p523
I01
sS'my__TOP__'
p524
I01
sS'is__ALL__'
p525
I01
sS'my__ALL__'
p526
I01
sS'pain__BOTTOM__'
p527
I01
sS'life__ALL__'
p528
I01
sS'is__BOTTOM__'
p529
I01
sS'pain__ALL__'
p530
I01
sa(dp531
S'want__TOP__'
p532
I01
sS'becam__BOTTOM__'
p533
I01
sS'so__ALL__'
p534
I01
sS'anyth__ALL__'
p535
I01
sS'me__ALL__'
p536
I01
sS'they__TOP__'
p537
I01
sS'want__ALL__'
p538
I01
sS'becam__ALL__'
p539
I01
sS'come__ALL__'
p540
I01
sS'come__TOP__'
p541
I01
sS'told__ALL__'
p542
I01
sS'so__BOTTOM__'
p543
I01
sS'god__BOTTOM__'
p544
I01
sS'anyth__TOP__'
p545
I01
sS'me__TOP__'
p546
I01
sS'could__TOP__'
p547
I01
sS'told__TOP__'
p548
I01
sS'i__ALL__'
p549
I01
sS'a__ALL__'
p550
I01
sS'be__ALL__'
p551
I01
sS'god__ALL__'
p552
I01
sS'they__ALL__'
p553
I01
sS'be__TOP__'
p554
I01
sS'i__TOP__'
p555
I01
sS'a__BOTTOM__'
p556
I01
sS'i__BOTTOM__'
p557
I01
sS'could__ALL__'
p558
I01
sa(dp559
S'want__TOP__'
p560
I01
sS'becam__BOTTOM__'
p561
I01
sS'so__ALL__'
p562
I01
sS'anyth__ALL__'
p563
I01
sS'me__ALL__'
p564
I01
sS'balloon__BOTTOM__'
p565
I01
sS'they__TOP__'
p566
I01
sS'want__ALL__'
p567
I01
sS'becam__ALL__'
p568
I01
sS'balloon__ALL__'
p569
I01
sS'a__ALL__'
p570
I01
sS'told__ALL__'
p571
I01
sS'so__BOTTOM__'
p572
I01
sS'anyth__TOP__'
p573
I01
sS'me__TOP__'
p574
I01
sS'could__TOP__'
p575
I01
sS'told__TOP__'
p576
I01
sS'i__ALL__'
p577
I01
sS'be__ALL__'
p578
I01
sS'they__ALL__'
p579
I01
sS'be__TOP__'
p580
I01
sS'i__TOP__'
p581
I01
sS'a__BOTTOM__'
p582
I01
sS'i__BOTTOM__'
p583
I01
sS'could__ALL__'
p584
I01
sa(dp585
S'dont__ALL__'
p586
I01
sS'what__ALL__'
p587
I01
sS'wors__TOP__'
p588
I01
sS'have__ALL__'
p589
I01
sS'or__BOTTOM__'
p590
I01
sS'no__BOTTOM__'
p591
I01
sS'or__ALL__'
p592
I01
sS'know__ALL__'
p593
I01
sS'have__BOTTOM__'
p594
I01
sS'wors__ALL__'
p595
I01
sS'what__TOP__'
p596
I01
sS'ginger__BOTTOM__'
p597
I01
sS'soul__ALL__'
p598
I01
sS'i__ALL__'
p599
I01
sS'a__ALL__'
p600
I01
sS'be__ALL__'
p601
I01
sS'be__BOTTOM__'
p602
I01
sS'know__TOP__'
p603
I01
sS'i__TOP__'
p604
I01
sS'a__BOTTOM__'
p605
I01
sS'dont__TOP__'
p606
I01
sS'soul__BOTTOM__'
p607
I01
sS'ginger__ALL__'
p608
I01
sS'no__ALL__'
p609
I01
sa(dp610
S'us__TOP__'
p611
I01
sS'no__BOTTOM__'
p612
I01
sS'save__ALL__'
p613
I01
sS'i__ALL__'
p614
I01
sS'respond__BOTTOM__'
p615
I01
sS'us__ALL__'
p616
I01
sS'i__BOTTOM__'
p617
I01
sS'the__TOP__'
p618
I01
sS'shout__ALL__'
p619
I01
sS'and__ALL__'
p620
I01
sS'save__TOP__'
p621
I01
sS'world__TOP__'
p622
I01
sS'will__ALL__'
p623
I01
sS'and__BOTTOM__'
p624
I01
sS'the__ALL__'
p625
I01
sS'world__ALL__'
p626
I01
sS'will__TOP__'
p627
I01
sS'will__BOTTOM__'
p628
I01
sS'shout__TOP__'
p629
I01
sS'respond__ALL__'
p630
I01
sS'no__ALL__'
p631
I01
sa(dp632
S'!__BOTTOM__'
p633
I01
sS'i__TOP__'
p634
I01
sS'i__ALL__'
p635
I01
sS'got__ALL__'
p636
I01
sS'99__TOP__'
p637
I01
sS'a__BOTTOM__'
p638
I01
sS'soul__ALL__'
p639
I01
sS'soul__BOTTOM__'
p640
I01
sS'aint__BOTTOM__'
p641
I01
sS'but__BOTTOM__'
p642
I01
sS'one__ALL__'
p643
I01
sS'one__BOTTOM__'
p644
I01
sS'!__ALL__'
p645
I01
sS'a__ALL__'
p646
I01
sS'problem__TOP__'
p647
I01
sS'but__ALL__'
p648
I01
sS'problem__ALL__'
p649
I01
sS'got__TOP__'
p650
I01
sS'99__ALL__'
p651
I01
sS'aint__ALL__'
p652
I01
sa(dp653
S'ant__ALL__'
p654
I01
sS'birthday__TOP__'
p655
I01
sS'sexi__ALL__'
p656
I01
sS'beast__ALL__'
p657
I01
sS'happi__TOP__'
p658
I01
sS'ant__TOP__'
p659
I01
sS'birthday__ALL__'
p660
I01
sS'happi__ALL__'
p661
I01
sS'sexi__BOTTOM__'
p662
I01
sS'beast__BOTTOM__'
p663
I01
sS'you__ALL__'
p664
I01
sS'you__BOTTOM__'
p665
I01
sa(dp666
S'dont__ALL__'
p667
I01
sS'fun__TOP__'
p668
I01
sS'parent__ALL__'
p669
I01
sS'my__BOTTOM__'
p670
I01
sS'more__ALL__'
p671
I01
sS'know__ALL__'
p672
I01
sS'kill__ALL__'
p673
I01
sS'wa__ALL__'
p674
I01
sS'more__TOP__'
p675
I01
sS'parent__BOTTOM__'
p676
I01
sS'i__ALL__'
p677
I01
sS'kill__TOP__'
p678
I01
sS'know__TOP__'
p679
I01
sS'to__ALL__'
p680
I01
sS'i__TOP__'
p681
I01
sS'one__TOP__'
p682
I01
sS'which__ALL__'
p683
I01
sS'which__TOP__'
p684
I01
sS'dont__TOP__'
p685
I01
sS'fun__ALL__'
p686
I01
sS'to__TOP__'
p687
I01
sS'one__ALL__'
p688
I01
sS'wa__TOP__'
p689
I01
sS'my__ALL__'
p690
I01
sa(dp691
S'all__ALL__'
p692
I01
sS'skin__ALL__'
p693
I01
sS'skin__BOTTOM__'
p694
I01
sS'flute__ALL__'
p695
I01
sS'all__TOP__'
p696
I01
sS'perform__BOTTOM__'
p697
I01
sS'perform__ALL__'
p698
I01
sS'state__ALL__'
p699
I01
sS'flute__BOTTOM__'
p700
I01
sS'state__TOP__'
p701
I01
sa(dp702
S'dont__ALL__'
p703
I01
sS'will__ALL__'
p704
I01
sS'the__TOP__'
p705
I01
sS'and__ALL__'
p706
I01
sS'caus__ALL__'
p707
I01
sS'mother__ALL__'
p708
I01
sS'your__BOTTOM__'
p709
I01
sS'and__TOP__'
p710
I01
sS'ya__ALL__'
p711
I01
sS'let__TOP__'
p712
I01
sS'will__BOTTOM__'
p713
I01
sS'fool__ALL__'
p714
I01
sS'i__ALL__'
p715
I01
sS'your__ALL__'
p716
I01
sS'kill__ALL__'
p717
I01
sS'let__ALL__'
p718
I01
sS'flute__TOP__'
p719
I01
sS'caus__BOTTOM__'
p720
I01
sS'kill__BOTTOM__'
p721
I01
sS'dont__TOP__'
p722
I01
sS'fool__TOP__'
p723
I01
sS'flute__ALL__'
p724
I01
sS'mother__BOTTOM__'
p725
I01
sS'ya__TOP__'
p726
I01
sS'i__BOTTOM__'
p727
I01
sS'smile__TOP__'
p728
I01
sS'the__ALL__'
p729
I01
sS'smile__ALL__'
p730
I01
sa(dp731
S'kid__BOTTOM__'
p732
I01
sS'kickin__TOP__'
p733
I01
sS'!__ALL__'
p734
I01
sS'fat__ALL__'
p735
I01
sS'!__BOTTOM__'
p736
I01
sS'fat__BOTTOM__'
p737
I01
sS'kickin__ALL__'
p738
I01
sS'ass__ALL__'
p739
I01
sS'ass__TOP__'
p740
I01
sS'kid__ALL__'
p741
I01
sa(dp742
S'now__ALL__'
p743
I01
sS'they__TOP__'
p744
I01
sS'forc__ALL__'
p745
I01
sS'now__BOTTOM__'
p746
I01
sS'i__ALL__'
p747
I01
sS'fat__TOP__'
p748
I01
sS'call__TOP__'
p749
I01
sS'i__BOTTOM__'
p750
I01
sS'forc__BOTTOM__'
p751
I01
sS'me__ALL__'
p752
I01
sS'me__TOP__'
p753
I01
sS'fat__ALL__'
p754
I01
sS'call__ALL__'
p755
I01
sS'they__ALL__'
p756
I01
sa(dp757
S'becam__ALL__'
p758
I01
sS'i__TOP__'
p759
I01
sS'anyth__ALL__'
p760
I01
sS'could__TOP__'
p761
I01
sS'becam__BOTTOM__'
p762
I01
sS'be__ALL__'
p763
I01
sS'want__ALL__'
p764
I01
sS'i__ALL__'
p765
I01
sS'said__TOP__'
p766
I01
sS'aerial__ALL__'
p767
I01
sS'so__BOTTOM__'
p768
I01
sS'could__ALL__'
p769
I01
sS'want__TOP__'
p770
I01
sS'anyth__TOP__'
p771
I01
sS'said__ALL__'
p772
I01
sS'aerial__BOTTOM__'
p773
I01
sS'they__TOP__'
p774
I01
sS'i__BOTTOM__'
p775
I01
sS'they__ALL__'
p776
I01
sS'be__TOP__'
p777
I01
sS'so__ALL__'
p778
I01
sa(dp779
S'polio__BOTTOM__'
p780
I01
sS'wish__ALL__'
p781
I01
sS'polio__ALL__'
p782
I01
sS'can__ALL__'
p783
I01
sS'i__ALL__'
p784
I01
sS'god__TOP__'
p785
I01
sS'can__BOTTOM__'
p786
I01
sS'i__BOTTOM__'
p787
I01
sS'peopl__BOTTOM__'
p788
I01
sS'give__ALL__'
p789
I01
sS'give__BOTTOM__'
p790
I01
sS'wish__BOTTOM__'
p791
I01
sS'peopl__ALL__'
p792
I01
sS'god__ALL__'
p793
I01
sa(dp794
S'they__ALL__'
p795
I01
sS'under__ALL__'
p796
I01
sS'i__TOP__'
p797
I01
sS'now__ALL__'
p798
I01
sS'they__TOP__'
p799
I01
sS'there__ALL__'
p800
I01
sS'wa__TOP__'
p801
I01
sS'now__BOTTOM__'
p802
I01
sS'i__ALL__'
p803
I01
sS'said__TOP__'
p804
I01
sS'fat__TOP__'
p805
I01
sS'fat__ALL__'
p806
I01
sS'said__ALL__'
p807
I01
sS'six__ALL__'
p808
I01
sS'wa__ALL__'
p809
I01
sS'feet__ALL__'
p810
I01
sS'under__BOTTOM__'
p811
I01
sS'there__BOTTOM__'
p812
I01
sS'feet__BOTTOM__'
p813
I01
sS'six__BOTTOM__'
p814
I01
sa(dp815
S'heart__ALL__'
p816
I01
sS'there__BOTTOM__'
p817
I01
sS'there__ALL__'
p818
I01
sS'anal__BOTTOM__'
p819
I01
sS'anal__ALL__'
p820
I01
sS'a__ALL__'
p821
I01
sS'for__BOTTOM__'
p822
I01
sS'within__TOP__'
p823
I01
sS'heart__TOP__'
p824
I01
sS'everi__TOP__'
p825
I01
sS'sex__BOTTOM__'
p826
I01
sS'for__ALL__'
p827
I01
sS'within__ALL__'
p828
I01
sS'everi__ALL__'
p829
I01
sS'man__TOP__'
p830
I01
sS'thirst__ALL__'
p831
I01
sS'is__BOTTOM__'
p832
I01
sS'man__ALL__'
p833
I01
sS'thirst__BOTTOM__'
p834
I01
sS'a__BOTTOM__'
p835
I01
sS'sex__ALL__'
p836
I01
sS'is__ALL__'
p837
I01
sa(dp838
S'swag__TOP__'
p839
I01
sS'?__TOP__'
p840
I01
sS'nope__ALL__'
p841
I01
sS'king__ALL__'
p842
I01
sS'?__ALL__'
p843
I01
sS'king__BOTTOM__'
p844
I01
sS'just__BOTTOM__'
p845
I01
sS'buger__ALL__'
p846
I01
sS'just__ALL__'
p847
I01
sS'nope__BOTTOM__'
p848
I01
sS'ginger__TOP__'
p849
I01
sS'buger__BOTTOM__'
p850
I01
sS'what__ALL__'
p851
I01
sS'ginger__ALL__'
p852
I01
sS'swag__ALL__'
p853
I01
sS'doe__ALL__'
p854
I01
sS'what__BOTTOM__'
p855
I01
sS'doe__BOTTOM__'
p856
I01
sa(dp857
S'lit__BOTTOM__'
p858
I01
sS'so__ALL__'
p859
I01
sS'out__TOP__'
p860
I01
sS'wa__ALL__'
p861
I01
sS'dark__TOP__'
p862
I01
sS'bodi__BOTTOM__'
p863
I01
sS'out__ALL__'
p864
I01
sS'play__TOP__'
p865
I01
sS'it__TOP__'
p866
I01
sS'fire__ALL__'
p867
I01
sS'so__BOTTOM__'
p868
I01
sS'on__ALL__'
p869
I01
sS'dark__ALL__'
p870
I01
sS'they__TOP__'
p871
I01
sS'bodi__ALL__'
p872
I01
sS'too__ALL__'
p873
I01
sS'i__ALL__'
p874
I01
sS'said__ALL__'
p875
I01
sS'their__ALL__'
p876
I01
sS'it__ALL__'
p877
I01
sS'they__ALL__'
p878
I01
sS'to__ALL__'
p879
I01
sS'lit__ALL__'
p880
I01
sS'wa__TOP__'
p881
I01
sS'said__TOP__'
p882
I01
sS'to__TOP__'
p883
I01
sS'i__BOTTOM__'
p884
I01
sS'too__TOP__'
p885
I01
sS'fire__BOTTOM__'
p886
I01
sS'on__BOTTOM__'
p887
I01
sS'play__ALL__'
p888
I01
sS'their__BOTTOM__'
p889
I01
sa(dp890
S'accid__ALL__'
p891
I01
sS'they__TOP__'
p892
I01
sS'laugh__TOP__'
p893
I01
sS'accid__BOTTOM__'
p894
I01
sS'laugh__ALL__'
p895
I01
sS'befor__ALL__'
p896
I01
sS'me__ALL__'
p897
I01
sS'me__TOP__'
p898
I01
sS'the__BOTTOM__'
p899
I01
sS'the__ALL__'
p900
I01
sS'at__TOP__'
p901
I01
sS'befor__BOTTOM__'
p902
I01
sS'they__ALL__'
p903
I01
sS'at__ALL__'
p904
I01
sa(dp905
S'congratul__TOP__'
p906
I01
sS'!__ALL__'
p907
I01
sS'congratul__ALL__'
p908
I01
sS'cancer__BOTTOM__'
p909
I01
sS'!__TOP__'
p910
I01
sS'cancer__ALL__'
p911
I01
sS'have__BOTTOM__'
p912
I01
sS'you__ALL__'
p913
I01
sS'you__BOTTOM__'
p914
I01
sS'have__ALL__'
p915
I01
sa(dp916
S'make__ALL__'
p917
I01
sS'chair__ALL__'
p918
I01
sS'id__ALL__'
p919
I01
sS'so__ALL__'
p920
I01
sS'sat__ALL__'
p921
I01
sS'so__BOTTOM__'
p922
I01
sS'on__ALL__'
p923
I01
sS'instead__ALL__'
p924
I01
sS'them__ALL__'
p925
I01
sS'first__TOP__'
p926
I01
sS'i__ALL__'
p927
I01
sS'sat__BOTTOM__'
p928
I01
sS'first__ALL__'
p929
I01
sS'they__TOP__'
p930
I01
sS'instead__BOTTOM__'
p931
I01
sS'said__ALL__'
p932
I01
sS'id__TOP__'
p933
I01
sS'chair__TOP__'
p934
I01
sS'they__ALL__'
p935
I01
sS'never__TOP__'
p936
I01
sS'never__ALL__'
p937
I01
sS'just__BOTTOM__'
p938
I01
sS'said__TOP__'
p939
I01
sS'just__ALL__'
p940
I01
sS'i__BOTTOM__'
p941
I01
sS'on__BOTTOM__'
p942
I01
sS'make__TOP__'
p943
I01
sS'them__BOTTOM__'
p944
I01
sa(dp945
S'?__TOP__'
p946
I01
sS'!__ALL__'
p947
I01
sS'stupid__TOP__'
p948
I01
sS'?__ALL__'
p949
I01
sS'are__ALL__'
p950
I01
sS'!__TOP__'
p951
I01
sS'stupid__ALL__'
p952
I01
sS'boy__ALL__'
p953
I01
sS'i__BOTTOM__'
p954
I01
sS'you__TOP__'
p955
I01
sS'are__TOP__'
p956
I01
sS'dunno__BOTTOM__'
p957
I01
sS'boy__TOP__'
p958
I01
sS'dunno__ALL__'
p959
I01
sS'you__ALL__'
p960
I01
sS'um__BOTTOM__'
p961
I01
sS'i__ALL__'
p962
I01
sS'um__ALL__'
p963
I01
sa(dp964
S'clarinet__TOP__'
p965
I01
sS'laugh__ALL__'
p966
I01
sS'they__TOP__'
p967
I01
sS'laugh__BOTTOM__'
p968
I01
sS'i__ALL__'
p969
I01
sS'laugh__TOP__'
p970
I01
sS'my__TOP__'
p971
I01
sS'screem__BOTTOM__'
p972
I01
sS'i__BOTTOM__'
p973
I01
sS'screem__ALL__'
p974
I01
sS'clarinet__ALL__'
p975
I01
sS'my__ALL__'
p976
I01
sS'at__ALL__'
p977
I01
sS'at__TOP__'
p978
I01
sS'at__BOTTOM__'
p979
I01
sS'they__ALL__'
p980
I01
sS'their__BOTTOM__'
p981
I01
sS'their__ALL__'
p982
I01
sa(dp983
S'.__BOTTOM__'
p984
I01
sS'.__ALL__'
p985
I01
sS'light__TOP__'
p986
I01
sS'guid__ALL__'
p987
I01
sS'light__ALL__'
p988
I01
sS'forget__BOTTOM__'
p989
I01
sS'again..nev__BOTTOM__'
p990
I01
sS'in__ALL__'
p991
I01
sS'hors__TOP__'
p992
I01
sS'forget__ALL__'
p993
I01
sS'didnt__TOP__'
p994
I01
sS'read__TOP__'
p995
I01
sS'never__BOTTOM__'
p996
I01
sS'safti__TOP__'
p997
I01
sS'read__ALL__'
p998
I01
sS'again..nev__ALL__'
p999
I01
sS'ride__TOP__'
p1000
I01
sS'ride__ALL__'
p1001
I01
sS'guid__TOP__'
p1002
I01
sS'safti__ALL__'
p1003
I01
sS'storm__ALL__'
p1004
I01
sS'in__TOP__'
p1005
I01
sS'storm__TOP__'
p1006
I01
sS'never__ALL__'
p1007
I01
sS'hors__ALL__'
p1008
I01
sS'didnt__ALL__'
p1009
I01
sa(dp1010
S'make__ALL__'
p1011
I01
sS'i__TOP__'
p1012
I01
sS'but__ALL__'
p1013
I01
sS'make__BOTTOM__'
p1014
I01
sS'i__ALL__'
p1015
I01
sS'but__TOP__'
p1016
I01
sS'band__ALL__'
p1017
I01
sS'danc__BOTTOM__'
p1018
I01
sS'danc__ALL__'
p1019
I01
sS'would__ALL__'
p1020
I01
sS'would__BOTTOM__'
p1021
I01
sS'band__BOTTOM__'
p1022
I01
sS'thought__ALL__'
p1023
I01
sS'her__ALL__'
p1024
I01
sS'thought__TOP__'
p1025
I01
sS'her__BOTTOM__'
p1026
I01
sa(dp1027
S'have__TOP__'
p1028
I01
sS'a__TOP__'
p1029
I01
sS'me__ALL__'
p1030
I01
sS'in__ALL__'
p1031
I01
sS'couldnt__TOP__'
p1032
I01
sS'have__ALL__'
p1033
I01
sS'dota2__ALL__'
p1034
I01
sS'a__ALL__'
p1035
I01
sS'key__TOP__'
p1036
I01
sS'beta__ALL__'
p1037
I01
sS'dota2__TOP__'
p1038
I01
sS'told__ALL__'
p1039
I01
sS'so__BOTTOM__'
p1040
I01
sS'couldnt__ALL__'
p1041
I01
sS'me__TOP__'
p1042
I01
sS'so__ALL__'
p1043
I01
sS'they__TOP__'
p1044
I01
sS'told__TOP__'
p1045
I01
sS'i__ALL__'
p1046
I01
sS'key__ALL__'
p1047
I01
sS'beta__TOP__'
p1048
I01
sS'in__BOTTOM__'
p1049
I01
sS'stay__ALL__'
p1050
I01
sS'they__ALL__'
p1051
I01
sS'i__TOP__'
p1052
I01
sS'i__BOTTOM__'
p1053
I01
sS'stay__BOTTOM__'
p1054
I01
sS'hon__ALL__'
p1055
I01
sS'hon__BOTTOM__'
p1056
I01
sa(dp1057
S'koreen__BOTTOM__'
p1058
I01
sS'i__TOP__'
p1059
I01
sS'recit__BOTTOM__'
p1060
I01
sS'wa__ALL__'
p1061
I01
sS'recit__ALL__'
p1062
I01
sS'stun__TOP__'
p1063
I01
sS'wa__TOP__'
p1064
I01
sS'i__ALL__'
p1065
I01
sS'inspir__TOP__'
p1066
I01
sS'stun__ALL__'
p1067
I01
sS'nick__ALL__'
p1068
I01
sS'and__ALL__'
p1069
I01
sS'inspir__ALL__'
p1070
I01
sS'koreen__ALL__'
p1071
I01
sS'nick__BOTTOM__'
p1072
I01
sS'and__BOTTOM__'
p1073
I01
sS'at__BOTTOM__'
p1074
I01
sS'at__ALL__'
p1075
I01
sS'and__TOP__'
p1076
I01
sa(dp1077
S'they__TOP__'
p1078
I01
sS'ignor__ALL__'
p1079
I01
sS'they__ALL__'
p1080
I01
sS'as__TOP__'
p1081
I01
sS'me__ALL__'
p1082
I01
sS'huehuehuehu__BOTTOM__'
p1083
I01
sS'me__TOP__'
p1084
I01
sS'as__ALL__'
p1085
I01
sS'mord__ALL__'
p1086
I01
sS'mord__TOP__'
p1087
I01
sS'ignor__TOP__'
p1088
I01
sS'huehuehuehu__ALL__'
p1089
I01
sa(dp1090
S'want__TOP__'
p1091
I01
sS'spend__ALL__'
p1092
I01
sS'jaykhim__BOTTOM__'
p1093
I01
sS'so__ALL__'
p1094
I01
sS'anyth__ALL__'
p1095
I01
sS'spend__BOTTOM__'
p1096
I01
sS'my__BOTTOM__'
p1097
I01
sS'they__TOP__'
p1098
I01
sS'want__ALL__'
p1099
I01
sS'prais__ALL__'
p1100
I01
sS'prais__BOTTOM__'
p1101
I01
sS'told__ALL__'
p1102
I01
sS'so__BOTTOM__'
p1103
I01
sS'anyth__TOP__'
p1104
I01
sS'me__TOP__'
p1105
I01
sS'could__TOP__'
p1106
I01
sS'told__TOP__'
p1107
I01
sS'i__ALL__'
p1108
I01
sS'do__ALL__'
p1109
I01
sS'me__ALL__'
p1110
I01
sS'they__ALL__'
p1111
I01
sS'do__TOP__'
p1112
I01
sS'to__ALL__'
p1113
I01
sS'i__TOP__'
p1114
I01
sS'to__TOP__'
p1115
I01
sS'i__BOTTOM__'
p1116
I01
sS'could__ALL__'
p1117
I01
sS'my__ALL__'
p1118
I01
sS'life__ALL__'
p1119
I01
sS'jaykhim__ALL__'
p1120
I01
sS'life__BOTTOM__'
p1121
I01
sa(dp1122
S'all__ALL__'
p1123
I01
sS'fun__TOP__'
p1124
I01
sS':__ALL__'
p1125
I01
sS'made__ALL__'
p1126
I01
sS'at__ALL__'
p1127
I01
sS'funer__ALL__'
p1128
I01
sS'davi__TOP__'
p1129
I01
sS'made__TOP__'
p1130
I01
sS'read__ALL__'
p1131
I01
sS'of__ALL__'
p1132
I01
sS'they__TOP__'
p1133
I01
sS'ill__ALL__'
p1134
I01
sS'be__ALL__'
p1135
I01
sS'of__TOP__'
p1136
I01
sS'be__BOTTOM__'
p1137
I01
sS'eulog__ALL__'
p1138
I01
sS'funer__BOTTOM__'
p1139
I01
sS'they__ALL__'
p1140
I01
sS'their__BOTTOM__'
p1141
I01
sS'english__ALL__'
p1142
I01
sS'eulog__BOTTOM__'
p1143
I01
sS'davi__ALL__'
p1144
I01
sS'their__ALL__'
p1145
I01
sS'all__TOP__'
p1146
I01
sS'ill__BOTTOM__'
p1147
I01
sS'my__TOP__'
p1148
I01
sS'english__TOP__'
p1149
I01
sS'my__ALL__'
p1150
I01
sS'read__BOTTOM__'
p1151
I01
sS'the__ALL__'
p1152
I01
sS'the__BOTTOM__'
p1153
I01
sS'at__BOTTOM__'
p1154
I01
sS'fun__ALL__'
p1155
I01
sS':__TOP__'
p1156
I01
sa(dp1157
S'band__TOP__'
p1158
I01
sS'march__ALL__'
p1159
I01
sS'are__ALL__'
p1160
I01
sS'band__ALL__'
p1161
I01
sS'march__TOP__'
p1162
I01
sS'in__ALL__'
p1163
I01
sS'alwa__BOTTOM__'
p1164
I01
sS'be__ALL__'
p1165
I01
sS'mind__ALL__'
p1166
I01
sS'in__BOTTOM__'
p1167
I01
sS'are__BOTTOM__'
p1168
I01
sS'be__BOTTOM__'
p1169
I01
sS'alwa__ALL__'
p1170
I01
sS'will__BOTTOM__'
p1171
I01
sS'will__ALL__'
p1172
I01
sS'mind__BOTTOM__'
p1173
I01
sa(dp1174
S'onto__ALL__'
p1175
I01
sS'at__TOP__'
p1176
I01
sS'laugh__ALL__'
p1177
I01
sS'laugh__TOP__'
p1178
I01
sS'move__ALL__'
p1179
I01
sS'me__ALL__'
p1180
I01
sS'onto__BOTTOM__'
p1181
I01
sS'clarinet__ALL__'
p1182
I01
sS'at__ALL__'
p1183
I01
sS'now__ALL__'
p1184
I01
sS'clarinet__BOTTOM__'
p1185
I01
sS'sever__BOTTOM__'
p1186
I01
sS'move__BOTTOM__'
p1187
I01
sS'me__TOP__'
p1188
I01
sS'they__TOP__'
p1189
I01
sS'i__ALL__'
p1190
I01
sS'sever__ALL__'
p1191
I01
sS'stuck__ALL__'
p1192
I01
sS'when__ALL__'
p1193
I01
sS'they__BOTTOM__'
p1194
I01
sS'they__ALL__'
p1195
I01
sS'their__BOTTOM__'
p1196
I01
sS'laugh__BOTTOM__'
p1197
I01
sS'their__ALL__'
p1198
I01
sS'now__BOTTOM__'
p1199
I01
sS'i__BOTTOM__'
p1200
I01
sS'head__ALL__'
p1201
I01
sS'the__ALL__'
p1202
I01
sS'the__BOTTOM__'
p1203
I01
sS'stuck__BOTTOM__'
p1204
I01
sS'head__BOTTOM__'
p1205
I01
sS'when__BOTTOM__'
p1206
I01
sa(dp1207
S'want__TOP__'
p1208
I01
sS'becam__BOTTOM__'
p1209
I01
sS'so__ALL__'
p1210
I01
sS'anyth__ALL__'
p1211
I01
sS'they__TOP__'
p1212
I01
sS'want__ALL__'
p1213
I01
sS'becam__ALL__'
p1214
I01
sS'a__ALL__'
p1215
I01
sS'so__BOTTOM__'
p1216
I01
sS'god__BOTTOM__'
p1217
I01
sS'anyth__TOP__'
p1218
I01
sS'could__TOP__'
p1219
I01
sS'i__ALL__'
p1220
I01
sS'said__ALL__'
p1221
I01
sS'be__ALL__'
p1222
I01
sS'god__ALL__'
p1223
I01
sS'they__ALL__'
p1224
I01
sS'be__TOP__'
p1225
I01
sS'i__TOP__'
p1226
I01
sS'a__BOTTOM__'
p1227
I01
sS'said__TOP__'
p1228
I01
sS'i__BOTTOM__'
p1229
I01
sS'could__ALL__'
p1230
I01
sa(dp1231
S'.__BOTTOM__'
p1232
I01
sS'.__ALL__'
p1233
I01
sS'to__BOTTOM__'
p1234
I01
sS'style__BOTTOM__'
p1235
I01
sS'g__ALL__'
p1236
I01
sS'in__ALL__'
p1237
I01
sS'the__TOP__'
p1238
I01
sS'ghost__TOP__'
p1239
I01
sS'kenni__BOTTOM__'
p1240
I01
sS'want__ALL__'
p1241
I01
sS'out__ALL__'
p1242
I01
sS'head__TOP__'
p1243
I01
sS'rock__ALL__'
p1244
I01
sS'want__BOTTOM__'
p1245
I01
sS'out__BOTTOM__'
p1246
I01
sS'rock__BOTTOM__'
p1247
I01
sS'style__ALL__'
p1248
I01
sS'g__BOTTOM__'
p1249
I01
sS'head__ALL__'
p1250
I01
sS'to__ALL__'
p1251
I01
sS'in__TOP__'
p1252
I01
sS'my__TOP__'
p1253
I01
sS'my__ALL__'
p1254
I01
sS'kenni__ALL__'
p1255
I01
sS'the__ALL__'
p1256
I01
sS'ghost__ALL__'
p1257
I01
sa(dp1258
S'want__TOP__'
p1259
I01
sS'so__ALL__'
p1260
I01
sS'anyth__ALL__'
p1261
I01
sS'game__BOTTOM__'
p1262
I01
sS'me__ALL__'
p1263
I01
sS'they__TOP__'
p1264
I01
sS'stole__BOTTOM__'
p1265
I01
sS'want__ALL__'
p1266
I01
sS'game__ALL__'
p1267
I01
sS'told__ALL__'
p1268
I01
sS'anyth__TOP__'
p1269
I01
sS'so__BOTTOM__'
p1270
I01
sS'pokemon__BOTTOM__'
p1271
I01
sS'me__TOP__'
p1272
I01
sS'could__TOP__'
p1273
I01
sS'told__TOP__'
p1274
I01
sS'i__ALL__'
p1275
I01
sS'pokemon__ALL__'
p1276
I01
sS'do__ALL__'
p1277
I01
sS'they__ALL__'
p1278
I01
sS'do__TOP__'
p1279
I01
sS'stole__ALL__'
p1280
I01
sS'to__ALL__'
p1281
I01
sS'i__TOP__'
p1282
I01
sS'to__TOP__'
p1283
I01
sS'i__BOTTOM__'
p1284
I01
sS'could__ALL__'
p1285
I01
sa(dp1286
S'pant__ALL__'
p1287
I01
sS'i__TOP__'
p1288
I01
sS'shit__ALL__'
p1289
I01
sS'good__BOTTOM__'
p1290
I01
sS'my__TOP__'
p1291
I01
sS'my__ALL__'
p1292
I01
sS'feel__ALL__'
p1293
I01
sS'good__ALL__'
p1294
I01
sS'it__BOTTOM__'
p1295
I01
sS'feel__BOTTOM__'
p1296
I01
sS'it__ALL__'
p1297
I01
sS'shit__TOP__'
p1298
I01
sS'i__ALL__'
p1299
I01
sS'pant__TOP__'
p1300
I01
sa(dp1301
S'make__ALL__'
p1302
I01
sS'like__ALL__'
p1303
I01
sS'danc__ALL__'
p1304
I01
sS'make__BOTTOM__'
p1305
I01
sS'nigga__TOP__'
p1306
I01
sS'like__TOP__'
p1307
I01
sS'band__ALL__'
p1308
I01
sS'danc__BOTTOM__'
p1309
I01
sS'be__ALL__'
p1310
I01
sS'that__ALL__'
p1311
I01
sS'that__BOTTOM__'
p1312
I01
sS'band__BOTTOM__'
p1313
I01
sS'nigga__ALL__'
p1314
I01
sS'her__ALL__'
p1315
I01
sS'be__TOP__'
p1316
I01
sS'her__BOTTOM__'
p1317
I01
sa(dp1318
S'to__ALL__'
p1319
I01
sS'birthday__TOP__'
p1320
I01
sS'ground__BOTTOM__'
p1321
I01
sS'to__BOTTOM__'
p1322
I01
sS'happi__TOP__'
p1323
I01
sS'birthday__ALL__'
p1324
I01
sS'happi__ALL__'
p1325
I01
sS'the__ALL__'
p1326
I01
sS'the__BOTTOM__'
p1327
I01
sS'ground__ALL__'
p1328
I01
sa(dp1329
S'a__ALL__'
p1330
I01
sS'vote__BOTTOM__'
p1331
I01
sS'mayor__ALL__'
p1332
I01
sS'gave__TOP__'
p1333
I01
sS'she__ALL__'
p1334
I01
sS'a__TOP__'
p1335
I01
sS'gave__ALL__'
p1336
I01
sS'mayor__BOTTOM__'
p1337
I01
sS'hug__ALL__'
p1338
I01
sS'she__TOP__'
p1339
I01
sS'moon__ALL__'
p1340
I01
sS'me__ALL__'
p1341
I01
sS'me__TOP__'
p1342
I01
sS'hand__TOP__'
p1343
I01
sS'hand__ALL__'
p1344
I01
sS'moon__BOTTOM__'
p1345
I01
sS'vote__ALL__'
p1346
I01
sS'hug__TOP__'
p1347
I01
sa(dp1348
S'pokemon__TOP__'
p1349
I01
sS'skin__ALL__'
p1350
I01
sS'they__TOP__'
p1351
I01
sS'card__ALL__'
p1352
I01
sS'they__ALL__'
p1353
I01
sS'my__TOP__'
p1354
I01
sS'rip__TOP__'
p1355
I01
sS'rip__BOTTOM__'
p1356
I01
sS'pokemon__ALL__'
p1357
I01
sS'i__BOTTOM__'
p1358
I01
sS'rip__ALL__'
p1359
I01
sS'their__ALL__'
p1360
I01
sS'my__ALL__'
p1361
I01
sS'skin__BOTTOM__'
p1362
I01
sS'their__BOTTOM__'
p1363
I01
sS'card__TOP__'
p1364
I01
sS'i__ALL__'
p1365
I01
sa(dp1366
S'retard__ALL__'
p1367
I01
sS'retard__TOP__'
p1368
I01
sS'in__ALL__'
p1369
I01
sS'my__ALL__'
p1370
I01
sS'in__BOTTOM__'
p1371
I01
sS'music__ALL__'
p1372
I01
sS'my__BOTTOM__'
p1373
I01
sS'head__ALL__'
p1374
I01
sS'head__BOTTOM__'
p1375
I01
sS'music__TOP__'
p1376
I01
sa(dp1377
S'rape__BOTTOM__'
p1378
I01
sS'rape__ALL__'
p1379
I01
sS'facebook__TOP__'
p1380
I01
sS'she__ALL__'
p1381
I01
sS'so__ALL__'
p1382
I01
sS'me__ALL__'
p1383
I01
sS'i__BOTTOM__'
p1384
I01
sS'she__TOP__'
p1385
I01
sS'her__ALL__'
p1386
I01
sS'me__TOP__'
p1387
I01
sS'facebook__ALL__'
p1388
I01
sS'so__BOTTOM__'
p1389
I01
sS'rape__TOP__'
p1390
I01
sS'i__ALL__'
p1391
I01
sS'her__BOTTOM__'
p1392
I01
sa(dp1393
S'play__TOP__'
p1394
I01
sS'!__ALL__'
p1395
I01
sS'i__TOP__'
p1396
I01
sS'skrillex__TOP__'
p1397
I01
sS'by__ALL__'
p1398
I01
sS'!__BOTTOM__'
p1399
I01
sS'can__ALL__'
p1400
I01
sS'obo__BOTTOM__'
p1401
I01
sS'by__BOTTOM__'
p1402
I01
sS'fart__ALL__'
p1403
I01
sS'obo__ALL__'
p1404
I01
sS'can__TOP__'
p1405
I01
sS'my__ALL__'
p1406
I01
sS'in__BOTTOM__'
p1407
I01
sS'fart__BOTTOM__'
p1408
I01
sS'my__BOTTOM__'
p1409
I01
sS'play__ALL__'
p1410
I01
sS'in__ALL__'
p1411
I01
sS'skrillex__ALL__'
p1412
I01
sS'i__ALL__'
p1413
I01
sa(dp1414
S'they__TOP__'
p1415
I01
sS'fuckfac__ALL__'
p1416
I01
sS'fuckfac__TOP__'
p1417
I01
sS'call__TOP__'
p1418
I01
sS'me__ALL__'
p1419
I01
sS'me__TOP__'
p1420
I01
sS'no__BOTTOM__'
p1421
I01
sS'call__ALL__'
p1422
I01
sS'they__ALL__'
p1423
I01
sS'no__ALL__'
p1424
I01
sa(dp1425
S'want__TOP__'
p1426
I01
sS'brown__BOTTOM__'
p1427
I01
sS'anyth__ALL__'
p1428
I01
sS'me__ALL__'
p1429
I01
sS'love__BOTTOM__'
p1430
I01
sS'bobbi__BOTTOM__'
p1431
I01
sS'they__TOP__'
p1432
I01
sS'want__ALL__'
p1433
I01
sS'love__ALL__'
p1434
I01
sS'told__ALL__'
p1435
I01
sS'so__BOTTOM__'
p1436
I01
sS'anyth__TOP__'
p1437
I01
sS'me__TOP__'
p1438
I01
sS'bobbi__ALL__'
p1439
I01
sS'so__ALL__'
p1440
I01
sS'brown__ALL__'
p1441
I01
sS'could__TOP__'
p1442
I01
sS'told__TOP__'
p1443
I01
sS'i__ALL__'
p1444
I01
sS'do__ALL__'
p1445
I01
sS'they__ALL__'
p1446
I01
sS'do__TOP__'
p1447
I01
sS'i__TOP__'
p1448
I01
sS'i__BOTTOM__'
p1449
I01
sS'could__ALL__'
p1450
I01
sa(dp1451
S'!__ALL__'
p1452
I01
sS'world__BOTTOM__'
p1453
I01
sS'free__ALL__'
p1454
I01
sS'rockin__ALL__'
p1455
I01
sS'!__BOTTOM__'
p1456
I01
sS'monica__ALL__'
p1457
I01
sS'rockin__BOTTOM__'
p1458
I01
sS'monica__TOP__'
p1459
I01
sS'in__ALL__'
p1460
I01
sS'free__BOTTOM__'
p1461
I01
sS'in__BOTTOM__'
p1462
I01
sS'on__ALL__'
p1463
I01
sS'on__BOTTOM__'
p1464
I01
sS'world__ALL__'
p1465
I01
sS'the__ALL__'
p1466
I01
sS'the__BOTTOM__'
p1467
I01
sS'keep__ALL__'
p1468
I01
sS'keep__BOTTOM__'
p1469
I01
sa(dp1470
S'they__TOP__'
p1471
I01
sS'told__TOP__'
p1472
I01
sS'told__ALL__'
p1473
I01
sS'me__ALL__'
p1474
I01
sS'son__ALL__'
p1475
I01
sS'son__BOTTOM__'
p1476
I01
sS'me__TOP__'
p1477
I01
sS'they__ALL__'
p1478
I01
sa(dp1479
S'a__TOP__'
p1480
I01
sS'parent__ALL__'
p1481
I01
sS'me__ALL__'
p1482
I01
sS'made__ALL__'
p1483
I01
sS'eat__ALL__'
p1484
I01
sS'call__ALL__'
p1485
I01
sS'a__ALL__'
p1486
I01
sS'call__TOP__'
p1487
I01
sS'me__TOP__'
p1488
I01
sS'they__TOP__'
p1489
I01
sS'made__BOTTOM__'
p1490
I01
sS'parent__BOTTOM__'
p1491
I01
sS'i__ALL__'
p1492
I01
sS'their__ALL__'
p1493
I01
sS'they__ALL__'
p1494
I01
sS'i__BOTTOM__'
p1495
I01
sS'ginger__TOP__'
p1496
I01
sS'ginger__ALL__'
p1497
I01
sS'eat__BOTTOM__'
p1498
I01
sS'them__ALL__'
p1499
I01
sS'their__BOTTOM__'
p1500
I01
sS'them__BOTTOM__'
p1501
I01
sa(dp1502
S'thi__TOP__'
p1503
I01
sS'me__ALL__'
p1504
I01
sS'violat__BOTTOM__'
p1505
I01
sS'if__TOP__'
p1506
I01
sS'with__ALL__'
p1507
I01
sS'violat__ALL__'
p1508
I01
sS'thi__ALL__'
p1509
I01
sS'if__ALL__'
p1510
I01
sS'wa__ALL__'
p1511
I01
sS'me__BOTTOM__'
p1512
I01
sS'veri__TOP__'
p1513
I01
sS'that__ALL__'
p1514
I01
sS'shank__ALL__'
p1515
I01
sS'shank__BOTTOM__'
p1516
I01
sS'veri__ALL__'
p1517
I01
sS'flute__TOP__'
p1518
I01
sS'flute__ALL__'
p1519
I01
sS'wa__TOP__'
p1520
I01
sS'with__BOTTOM__'
p1521
I01
sS'mike__ALL__'
p1522
I01
sS'that__BOTTOM__'
p1523
I01
sS'mike__BOTTOM__'
p1524
I01
sa(dp1525
S'got__BOTTOM__'
p1526
I01
sS'but__ALL__'
p1527
I01
sS'got__ALL__'
p1528
I01
sS'like__TOP__'
p1529
I01
sS'in__ALL__'
p1530
I01
sS'onu__ALL__'
p1531
I01
sS'play__TOP__'
p1532
I01
sS'like__ALL__'
p1533
I01
sS'band__TOP__'
p1534
I01
sS'but__BOTTOM__'
p1535
I01
sS'onu__BOTTOM__'
p1536
I01
sS'scholarship__BOTTOM__'
p1537
I01
sS'an__ALL__'
p1538
I01
sS'i__ALL__'
p1539
I01
sS'band__ALL__'
p1540
I01
sS'scholarship__ALL__'
p1541
I01
sS'never__TOP__'
p1542
I01
sS'i__TOP__'
p1543
I01
sS'in__TOP__'
p1544
I01
sS'never__ALL__'
p1545
I01
sS'an__BOTTOM__'
p1546
I01
sS'i__BOTTOM__'
p1547
I01
sS'play__ALL__'
p1548
I01
sa(dp1549
S'clarinet__TOP__'
p1550
I01
sS'they__TOP__'
p1551
I01
sS'fun__TOP__'
p1552
I01
sS'my__TOP__'
p1553
I01
sS'made__TOP__'
p1554
I01
sS'my__ALL__'
p1555
I01
sS'made__ALL__'
p1556
I01
sS'onc__BOTTOM__'
p1557
I01
sS'of__TOP__'
p1558
I01
sS'clarinet__ALL__'
p1559
I01
sS'of__ALL__'
p1560
I01
sS'they__ALL__'
p1561
I01
sS'fun__ALL__'
p1562
I01
sS'onc__ALL__'
p1563
I01
sa(dp1564
S'clarinet__TOP__'
p1565
I01
sS'i__TOP__'
p1566
I01
sS'half__ALL__'
p1567
I01
sS'half__BOTTOM__'
p1568
I01
sS'way__ALL__'
p1569
I01
sS'can__ALL__'
p1570
I01
sS'i__ALL__'
p1571
I01
sS'ass__BOTTOM__'
p1572
I01
sS'thi__ALL__'
p1573
I01
sS'my__ALL__'
p1574
I01
sS'can__TOP__'
p1575
I01
sS'up__BOTTOM__'
p1576
I01
sS'fit__TOP__'
p1577
I01
sS'way__BOTTOM__'
p1578
I01
sS'ass__ALL__'
p1579
I01
sS'my__BOTTOM__'
p1580
I01
sS'clarinet__ALL__'
p1581
I01
sS'thi__TOP__'
p1582
I01
sS'fit__ALL__'
p1583
I01
sS'up__ALL__'
p1584
I01
sa(dp1585
S'man__BOTTOM__'
p1586
I01
sS'birthday__TOP__'
p1587
I01
sS'sexi__ALL__'
p1588
I01
sS'happi__TOP__'
p1589
I01
sS'zach__ALL__'
p1590
I01
sS'sexi__BOTTOM__'
p1591
I01
sS'birthday__ALL__'
p1592
I01
sS'happi__ALL__'
p1593
I01
sS'zach__TOP__'
p1594
I01
sS'you__ALL__'
p1595
I01
sS'you__BOTTOM__'
p1596
I01
sS'man__ALL__'
p1597
I01
sa(dp1598
S'i__TOP__'
p1599
I01
sS'cake__BOTTOM__'
p1600
I01
sS'chocol__ALL__'
p1601
I01
sS'camil__ALL__'
p1602
I01
sS'i__ALL__'
p1603
I01
sS'chocol__BOTTOM__'
p1604
I01
sS'and__ALL__'
p1605
I01
sS'cake__ALL__'
p1606
I01
sS'and__BOTTOM__'
p1607
I01
sS'love__ALL__'
p1608
I01
sS'love__TOP__'
p1609
I01
sS'camil__TOP__'
p1610
I01
sa(dp1611
S'one__TOP__'
p1612
I01
sS'band__ALL__'
p1613
I01
sS'one__ALL__'
p1614
I01
sS'camp__BOTTOM__'
p1615
I01
sS'time__ALL__'
p1616
I01
sS'band__BOTTOM__'
p1617
I01
sS'camp__ALL__'
p1618
I01
sS'at__BOTTOM__'
p1619
I01
sS'time__TOP__'
p1620
I01
sS'at__ALL__'
p1621
I01
sa(dp1622
S'us__TOP__'
p1623
I01
sS'no__BOTTOM__'
p1624
I01
sS'whisper__ALL__'
p1625
I01
sS'save__ALL__'
p1626
I01
sS'i__ALL__'
p1627
I01
sS'us__ALL__'
p1628
I01
sS'i__BOTTOM__'
p1629
I01
sS'the__TOP__'
p1630
I01
sS'shout__ALL__'
p1631
I01
sS'and__ALL__'
p1632
I01
sS'save__TOP__'
p1633
I01
sS'world__TOP__'
p1634
I01
sS'will__ALL__'
p1635
I01
sS'and__BOTTOM__'
p1636
I01
sS'the__ALL__'
p1637
I01
sS'world__ALL__'
p1638
I01
sS'will__TOP__'
p1639
I01
sS'will__BOTTOM__'
p1640
I01
sS'shout__TOP__'
p1641
I01
sS'whisper__BOTTOM__'
p1642
I01
sS'no__ALL__'
p1643
I01
sa(dp1644
S'hey__ALL__'
p1645
I01
sS'?__ALL__'
p1646
I01
sS'?__BOTTOM__'
p1647
I01
sS'fella__ALL__'
p1648
I01
sS'parti__ALL__'
p1649
I01
sS'fella__TOP__'
p1650
I01
sS'parti__BOTTOM__'
p1651
I01
sS'the__BOTTOM__'
p1652
I01
sS'the__ALL__'
p1653
I01
sS'hey__TOP__'
p1654
I01
sS'at__BOTTOM__'
p1655
I01
sS'where__BOTTOM__'
p1656
I01
sS'at__ALL__'
p1657
I01
sS'where__ALL__'
p1658
I01
sa(dp1659
S'noon__ALL__'
p1660
I01
sS'?__TOP__'
p1661
I01
sS'like__BOTTOM__'
p1662
I01
sS'?__ALL__'
p1663
I01
sS'noon__BOTTOM__'
p1664
I01
sS'like__ALL__'
p1665
I01
sS'!__TOP__'
p1666
I01
sS'me__BOTTOM__'
p1667
I01
sS'!__ALL__'
p1668
I01
sS'me__ALL__'
p1669
I01
sS'ginger__TOP__'
p1670
I01
sS'ginger__ALL__'
p1671
I01
sa(dp1672
S'hope__ALL__'
p1673
I01
sS'just__ALL__'
p1674
I01
sS'so__ALL__'
p1675
I01
sS'then__ALL__'
p1676
I01
sS'now__ALL__'
p1677
I01
sS'full__BOTTOM__'
p1678
I01
sS'back__ALL__'
p1679
I01
sS'full__ALL__'
p1680
I01
sS'so__TOP__'
p1681
I01
sS'then__TOP__'
p1682
I01
sS'children__ALL__'
p1683
I01
sS'of__ALL__'
p1684
I01
sS'children__BOTTOM__'
p1685
I01
sS'of__BOTTOM__'
p1686
I01
sS'back__TOP__'
p1687
I01
sS'wa__ALL__'
p1688
I01
sS'i__ALL__'
p1689
I01
sS'full__TOP__'
p1690
I01
sS'im__BOTTOM__'
p1691
I01
sS'of__TOP__'
p1692
I01
sS'i__TOP__'
p1693
I01
sS'wa__TOP__'
p1694
I01
sS'just__BOTTOM__'
p1695
I01
sS'im__ALL__'
p1696
I01
sS'now__BOTTOM__'
p1697
I01
sS'hope__TOP__'
p1698
I01
sa(dp1699
S'birthday__TOP__'
p1700
I01
sS':__BOTTOM__'
p1701
I01
sS'clarinet__BOTTOM__'
p1702
I01
sS':__ALL__'
p1703
I01
sS'from__ALL__'
p1704
I01
sS'happi__TOP__'
p1705
I01
sS'birthday__ALL__'
p1706
I01
sS'god__BOTTOM__'
p1707
I01
sS'happi__ALL__'
p1708
I01
sS'god__ALL__'
p1709
I01
sS'from__BOTTOM__'
p1710
I01
sS'clarinet__ALL__'
p1711
I01
sa(dp1712
S'i__TOP__'
p1713
I01
sS'clarinet__BOTTOM__'
p1714
I01
sS'i__ALL__'
p1715
I01
sS'am__ALL__'
p1716
I01
sS'clarinet__ALL__'
p1717
I01
sS'god__BOTTOM__'
p1718
I01
sS'god__ALL__'
p1719
I01
sS'the__ALL__'
p1720
I01
sS'the__BOTTOM__'
p1721
I01
sS'am__TOP__'
p1722
I01
sa(dp1723
S'paul__TOP__'
p1724
I01
sS'hero__ALL__'
p1725
I01
sS'my__BOTTOM__'
p1726
I01
sS'my__ALL__'
p1727
I01
sS'paul__ALL__'
p1728
I01
sS'y__TOP__'
p1729
I01
sS'hero__BOTTOM__'
p1730
I01
sS'your__ALL__'
p1731
I01
sS'your__BOTTOM__'
p1732
I01
sS'y__ALL__'
p1733
I01
sa(dp1734
S'michael__BOTTOM__'
p1735
I01
sS'by__ALL__'
p1736
I01
sS'jackson__BOTTOM__'
p1737
I01
sS'by__TOP__'
p1738
I01
sS'troll__TOP__'
p1739
I01
sS'jackson__ALL__'
p1740
I01
sS'troll__ALL__'
p1741
I01
sS'michael__ALL__'
p1742
I01
sa(dp1743
S'few..__TOP__'
p1744
I01
sS'proud..__ALL__'
p1745
I01
sS'the__TOP__'
p1746
I01
sS'proud..__TOP__'
p1747
I01
sS'moron__ALL__'
p1748
I01
sS'the__ALL__'
p1749
I01
sS'the__BOTTOM__'
p1750
I01
sS'few..__ALL__'
p1751
I01
sS'moron__BOTTOM__'
p1752
I01
sa(dp1753
S'think__ALL__'
p1754
I01
sS'about__ALL__'
p1755
I01
sS'think__BOTTOM__'
p1756
I01
sS'my__BOTTOM__'
p1757
I01
sS'with__BOTTOM__'
p1758
I01
sS'play__TOP__'
p1759
I01
sS'with__ALL__'
p1760
I01
sS'time__ALL__'
p1761
I01
sS'dota__ALL__'
p1762
I01
sS'everi__TOP__'
p1763
I01
sS'time__TOP__'
p1764
I01
sS'everi__ALL__'
p1765
I01
sS'about__BOTTOM__'
p1766
I01
sS'i__ALL__'
p1767
I01
sS'dota__TOP__'
p1768
I01
sS'dildo__BOTTOM__'
p1769
I01
sS'i__TOP__'
p1770
I01
sS'just__BOTTOM__'
p1771
I01
sS'just__ALL__'
p1772
I01
sS'i__BOTTOM__'
p1773
I01
sS'my__ALL__'
p1774
I01
sS'dildo__ALL__'
p1775
I01
sS'play__ALL__'
p1776
I01
sS'play__BOTTOM__'
p1777
I01
sa(dp1778
S'man__BOTTOM__'
p1779
I01
sS'wa__BOTTOM__'
p1780
I01
sS'clark__ALL__'
p1781
I01
sS'band__BOTTOM__'
p1782
I01
sS'clark__TOP__'
p1783
I01
sS'geek__BOTTOM__'
p1784
I01
sS'chare__ALL__'
p1785
I01
sS'a__ALL__'
p1786
I01
sS'fesh__ALL__'
p1787
I01
sS'geek__ALL__'
p1788
I01
sS'first__BOTTOM__'
p1789
I01
sS'first__ALL__'
p1790
I01
sS'wa__ALL__'
p1791
I01
sS'band__ALL__'
p1792
I01
sS'fesh__BOTTOM__'
p1793
I01
sS'when__ALL__'
p1794
I01
sS'chare__BOTTOM__'
p1795
I01
sS'man__ALL__'
p1796
I01
sS'a__BOTTOM__'
p1797
I01
sS'he__ALL__'
p1798
I01
sS'he__BOTTOM__'
p1799
I01
sS'when__BOTTOM__'
p1800
I01
sa(dp1801
S'so__ALL__'
p1802
I01
sS'and__BOTTOM__'
p1803
I01
sS'me__ALL__'
p1804
I01
sS'up__BOTTOM__'
p1805
I01
sS'my__BOTTOM__'
p1806
I01
sS'clarinet__ALL__'
p1807
I01
sS'they__TOP__'
p1808
I01
sS'i__BOTTOM__'
p1809
I01
sS'latex__ALL__'
p1810
I01
sS'a__ALL__'
p1811
I01
sS'clarinet__BOTTOM__'
p1812
I01
sS'latex__BOTTOM__'
p1813
I01
sS'told__ALL__'
p1814
I01
sS'thi__ALL__'
p1815
I01
sS'so__BOTTOM__'
p1816
I01
sS'on__ALL__'
p1817
I01
sS'it__BOTTOM__'
p1818
I01
sS'anyth__TOP__'
p1819
I01
sS'thi__BOTTOM__'
p1820
I01
sS'me__TOP__'
p1821
I01
sS'glove__ALL__'
p1822
I01
sS'glove__BOTTOM__'
p1823
I01
sS'anyth__ALL__'
p1824
I01
sS'could__TOP__'
p1825
I01
sS'told__TOP__'
p1826
I01
sS'i__ALL__'
p1827
I01
sS'be__ALL__'
p1828
I01
sS'ass__ALL__'
p1829
I01
sS'it__ALL__'
p1830
I01
sS'ass__BOTTOM__'
p1831
I01
sS'they__ALL__'
p1832
I01
sS'be__TOP__'
p1833
I01
sS'i__TOP__'
p1834
I01
sS'a__BOTTOM__'
p1835
I01
sS'and__ALL__'
p1836
I01
sS'put__BOTTOM__'
p1837
I01
sS'could__ALL__'
p1838
I01
sS'my__ALL__'
p1839
I01
sS'up__ALL__'
p1840
I01
sS'on__BOTTOM__'
p1841
I01
sS'put__ALL__'
p1842
I01
sa(dp1843
S'problem__ALL__'
p1844
I01
sS'i__TOP__'
p1845
I01
sS'but__ALL__'
p1846
I01
sS'bitch__BOTTOM__'
p1847
I01
sS'99__TOP__'
p1848
I01
sS'a__BOTTOM__'
p1849
I01
sS'i__ALL__'
p1850
I01
sS'aint__BOTTOM__'
p1851
I01
sS'but__BOTTOM__'
p1852
I01
sS'bitch__ALL__'
p1853
I01
sS'one__BOTTOM__'
p1854
I01
sS'a__ALL__'
p1855
I01
sS'problem__TOP__'
p1856
I01
sS'aint__ALL__'
p1857
I01
sS'one__ALL__'
p1858
I01
sS'got__TOP__'
p1859
I01
sS'99__ALL__'
p1860
I01
sS'got__ALL__'
p1861
I01
sa(dp1862
S'wa__BOTTOM__'
p1863
I01
sS'so__ALL__'
p1864
I01
sS'red__ALL__'
p1865
I01
sS'burn__ALL__'
p1866
I01
sS'is__ALL__'
p1867
I01
sS'after__BOTTOM__'
p1868
I01
sS'color__TOP__'
p1869
I01
sS'so__TOP__'
p1870
I01
sS'down__ALL__'
p1871
I01
sS'it__BOTTOM__'
p1872
I01
sS'color__ALL__'
p1873
I01
sS'wa__ALL__'
p1874
I01
sS'citi__BOTTOM__'
p1875
I01
sS'too__ALL__'
p1876
I01
sS'i__ALL__'
p1877
I01
sS'appar__TOP__'
p1878
I01
sS'appar__ALL__'
p1879
I01
sS'hair__TOP__'
p1880
I01
sS'down__BOTTOM__'
p1881
I01
sS'red__BOTTOM__'
p1882
I01
sS'after__ALL__'
p1883
I01
sS'my__TOP__'
p1884
I01
sS'citi__ALL__'
p1885
I01
sS'too__BOTTOM__'
p1886
I01
sS'i__BOTTOM__'
p1887
I01
sS'burn__BOTTOM__'
p1888
I01
sS'my__ALL__'
p1889
I01
sS'is__TOP__'
p1890
I01
sS'hair__ALL__'
p1891
I01
sS'the__ALL__'
p1892
I01
sS'the__BOTTOM__'
p1893
I01
sS'red__TOP__'
p1894
I01
sS'it__ALL__'
p1895
I01
sa(dp1896
S'dont__ALL__'
p1897
I01
sS'.__ALL__'
p1898
I01
sS'fun__TOP__'
p1899
I01
sS'parent__ALL__'
p1900
I01
sS'my__BOTTOM__'
p1901
I01
sS'more__ALL__'
p1902
I01
sS'know__ALL__'
p1903
I01
sS'kill__ALL__'
p1904
I01
sS'wa__ALL__'
p1905
I01
sS'more__TOP__'
p1906
I01
sS'parent__BOTTOM__'
p1907
I01
sS'i__ALL__'
p1908
I01
sS'know__TOP__'
p1909
I01
sS'i__TOP__'
p1910
I01
sS'which__ALL__'
p1911
I01
sS'kill__BOTTOM__'
p1912
I01
sS'which__TOP__'
p1913
I01
sS'dont__TOP__'
p1914
I01
sS'fun__ALL__'
p1915
I01
sS'wa__TOP__'
p1916
I01
sS'my__ALL__'
p1917
I01
sS'.__TOP__'
p1918
I01
sa(dp1919
S'.__BOTTOM__'
p1920
I01
sS'.__ALL__'
p1921
I01
sS'saw__ALL__'
p1922
I01
sS'we__ALL__'
p1923
I01
sS'and__BOTTOM__'
p1924
I01
sS'in__ALL__'
p1925
I01
sS'the__TOP__'
p1926
I01
sS'could__BOTTOM__'
p1927
I01
sS'and__ALL__'
p1928
I01
sS'my__BOTTOM__'
p1929
I01
sS'out__ALL__'
p1930
I01
sS'over__ALL__'
p1931
I01
sS'come__ALL__'
p1932
I01
sS'band__TOP__'
p1933
I01
sS'check__BOTTOM__'
p1934
I01
sS'workshop__ALL__'
p1935
I01
sS'it__BOTTOM__'
p1936
I01
sS'should__BOTTOM__'
p1937
I01
sS'you__ALL__'
p1938
I01
sS'you__BOTTOM__'
p1939
I01
sS'i__ALL__'
p1940
I01
sS'out__BOTTOM__'
p1941
I01
sS'saw__BOTTOM__'
p1942
I01
sS'love__ALL__'
p1943
I01
sS'band__ALL__'
p1944
I01
sS'workshop__BOTTOM__'
p1945
I01
sS'dad__ALL__'
p1946
I01
sS'in__BOTTOM__'
p1947
I01
sS'we__BOTTOM__'
p1948
I01
sS'dad__BOTTOM__'
p1949
I01
sS'should__ALL__'
p1950
I01
sS'love__TOP__'
p1951
I01
sS'check__ALL__'
p1952
I01
sS'i__TOP__'
p1953
I01
sS'over__BOTTOM__'
p1954
I01
sS'come__BOTTOM__'
p1955
I01
sS'could__ALL__'
p1956
I01
sS'my__ALL__'
p1957
I01
sS'the__ALL__'
p1958
I01
sS'it__ALL__'
p1959
I01
sa(dp1960
S'seriou__TOP__'
p1961
I01
sS'about__ALL__'
p1962
I01
sS'are__ALL__'
p1963
I01
sS'so__ALL__'
p1964
I01
sS'about__TOP__'
p1965
I01
sS'are__BOTTOM__'
p1966
I01
sS'so__BOTTOM__'
p1967
I01
sS'seriou__ALL__'
p1968
I01
sS'we__BOTTOM__'
p1969
I01
sS'music__ALL__'
p1970
I01
sS'he__ALL__'
p1971
I01
sS'we__ALL__'
p1972
I01
sS'music__TOP__'
p1973
I01
sS'he__TOP__'
p1974
I01
sa(dp1975
S'class__ALL__'
p1976
I01
sS'class__BOTTOM__'
p1977
I01
sS'recabaren__ALL__'
p1978
I01
sS'2018__ALL__'
p1979
I01
sS'2018__BOTTOM__'
p1980
I01
sS'of__BOTTOM__'
p1981
I01
sS'of__ALL__'
p1982
I01
sS'william__ALL__'
p1983
I01
sS'recabaren__TOP__'
p1984
I01
sS'william__TOP__'
p1985
I01
sa(dp1986
S'face__ALL__'
p1987
I01
sS'in__ALL__'
p1988
I01
sS'bkc__ALL__'
p1989
I01
sS'in__TOP__'
p1990
I01
sS'i__ALL__'
p1991
I01
sS'bkc__TOP__'
p1992
I01
sS'me__ALL__'
p1993
I01
sS'i__BOTTOM__'
p1994
I01
sS'hi__BOTTOM__'
p1995
I01
sS'troll__TOP__'
p1996
I01
sS'hi__ALL__'
p1997
I01
sS'forum__ALL__'
p1998
I01
sS'me__TOP__'
p1999
I01
sS'trolley__BOTTOM__'
p2000
I01
sS'forum__TOP__'
p2001
I01
sS'troll__ALL__'
p2002
I01
sS'he__ALL__'
p2003
I01
sS'face__BOTTOM__'
p2004
I01
sS'trolley__ALL__'
p2005
I01
sS'he__TOP__'
p2006
I01
sa(dp2007
S'dog__ALL__'
p2008
I01
sS'i__ALL__'
p2009
I01
sS'dog__BOTTOM__'
p2010
I01
sS'my__TOP__'
p2011
I01
sS'ate__ALL__'
p2012
I01
sS'so__BOTTOM__'
p2013
I01
sS'hi__BOTTOM__'
p2014
I01
sS'lunch__ALL__'
p2015
I01
sS'my__ALL__'
p2016
I01
sS'hi__ALL__'
p2017
I01
sS'ate__BOTTOM__'
p2018
I01
sS'he__ALL__'
p2019
I01
sS'he__TOP__'
p2020
I01
sS'i__BOTTOM__'
p2021
I01
sS'lunch__TOP__'
p2022
I01
sS'so__ALL__'
p2023
I01
sS'ate__TOP__'
p2024
I01
sa(dp2025
S'an__ALL__'
p2026
I01
sS'are__ALL__'
p2027
I01
sS'an__BOTTOM__'
p2028
I01
sS'are__BOTTOM__'
p2029
I01
sS'epidem__BOTTOM__'
p2030
I01
sS'ginger__TOP__'
p2031
I01
sS'epidem__ALL__'
p2032
I01
sS'ginger__ALL__'
p2033
I01
sS'they__BOTTOM__'
p2034
I01
sS'they__ALL__'
p2035
I01
sa(dp2036
S'koreen__BOTTOM__'
p2037
I01
sS'recit__BOTTOM__'
p2038
I01
sS'recit__ALL__'
p2039
I01
sS'after__ALL__'
p2040
I01
sS'nick__ALL__'
p2041
I01
sS'befor__ALL__'
p2042
I01
sS'and__ALL__'
p2043
I01
sS'koreen__ALL__'
p2044
I01
sS'nick__BOTTOM__'
p2045
I01
sS'and__BOTTOM__'
p2046
I01
sS'befor__TOP__'
p2047
I01
sS'and__TOP__'
p2048
I01
sS'after__TOP__'
p2049
I01
sa(dp2050
S'.__BOTTOM__'
p2051
I01
sS'scream__TOP__'
p2052
I01
sS'.__ALL__'
p2053
I01
sS'want__TOP__'
p2054
I01
sS'scream__ALL__'
p2055
I01
sS'set__BOTTOM__'
p2056
I01
sS'want__ALL__'
p2057
I01
sS'stop__BOTTOM__'
p2058
I01
sS'play__TOP__'
p2059
I01
sS'after__BOTTOM__'
p2060
I01
sS'fire__ALL__'
p2061
I01
sS'on__ALL__'
p2062
I01
sS'stop__ALL__'
p2063
I01
sS'no__ALL__'
p2064
I01
sS'they__TOP__'
p2065
I01
sS'i__ALL__'
p2066
I01
sS'set__ALL__'
p2067
I01
sS'them__ALL__'
p2068
I01
sS'no__TOP__'
p2069
I01
sS'they__ALL__'
p2070
I01
sS'to__ALL__'
p2071
I01
sS'i__TOP__'
p2072
I01
sS'after__ALL__'
p2073
I01
sS'drum__ALL__'
p2074
I01
sS'to__TOP__'
p2075
I01
sS'i__BOTTOM__'
p2076
I01
sS'fire__BOTTOM__'
p2077
I01
sS'on__BOTTOM__'
p2078
I01
sS'play__ALL__'
p2079
I01
sS'they__BOTTOM__'
p2080
I01
sS'.__TOP__'
p2081
I01
sS'them__BOTTOM__'
p2082
I01
sS'drum__TOP__'
p2083
I01
sa(dp2084
S'wa__ALL__'
p2085
I01
sS'me__BOTTOM__'
p2086
I01
sS'time__BOTTOM__'
p2087
I01
sS'xman__ALL__'
p2088
I01
sS'wa__BOTTOM__'
p2089
I01
sS'xman__TOP__'
p2090
I01
sS'xman__BOTTOM__'
p2091
I01
sS'me__ALL__'
p2092
I01
sS'onli__ALL__'
p2093
I01
sS'it__BOTTOM__'
p2094
I01
sS'mute__ALL__'
p2095
I01
sS'mute__BOTTOM__'
p2096
I01
sS'it__ALL__'
p2097
I01
sS'me__TOP__'
p2098
I01
sS'the__ALL__'
p2099
I01
sS'the__BOTTOM__'
p2100
I01
sS'time__ALL__'
p2101
I01
sS'onli__BOTTOM__'
p2102
I01
sS'mute__TOP__'
p2103
I01
sa(dp2104
S'becam__BOTTOM__'
p2105
I01
sS'so__ALL__'
p2106
I01
sS'anyth__ALL__'
p2107
I01
sS'me__ALL__'
p2108
I01
sS'becom__TOP__'
p2109
I01
sS'becom__ALL__'
p2110
I01
sS'they__TOP__'
p2111
I01
sS'becam__ALL__'
p2112
I01
sS'a__ALL__'
p2113
I01
sS'told__ALL__'
p2114
I01
sS'so__BOTTOM__'
p2115
I01
sS'anyth__TOP__'
p2116
I01
sS'girl__BOTTOM__'
p2117
I01
sS'me__TOP__'
p2118
I01
sS'could__TOP__'
p2119
I01
sS'told__TOP__'
p2120
I01
sS'i__ALL__'
p2121
I01
sS'girl__ALL__'
p2122
I01
sS'they__ALL__'
p2123
I01
sS'i__TOP__'
p2124
I01
sS'a__BOTTOM__'
p2125
I01
sS'i__BOTTOM__'
p2126
I01
sS'could__ALL__'
p2127
I01
sa(dp2128
S'.__BOTTOM__'
p2129
I01
sS'readi__ALL__'
p2130
I01
sS'.__ALL__'
p2131
I01
sS'shit__ALL__'
p2132
I01
sS'then__BOTTOM__'
p2133
I01
sS'get__ALL__'
p2134
I01
sS'readi__TOP__'
p2135
I01
sS'get__TOP__'
p2136
I01
sS'come__ALL__'
p2137
I01
sS'come__BOTTOM__'
p2138
I01
sS'in__ALL__'
p2139
I01
sS'your__TOP__'
p2140
I01
sS'hang__ALL__'
p2141
I01
sS'in__BOTTOM__'
p2142
I01
sS'roseburg__BOTTOM__'
p2143
I01
sS'your__ALL__'
p2144
I01
sS'roseburg__ALL__'
p2145
I01
sS'.__TOP__'
p2146
I01
sS'shit__TOP__'
p2147
I01
sS'then__ALL__'
p2148
I01
sS'hang__BOTTOM__'
p2149
I01
sa(dp2150
S'thi__TOP__'
p2151
I01
sS'me__ALL__'
p2152
I01
sS'violat__BOTTOM__'
p2153
I01
sS'it__TOP__'
p2154
I01
sS'with__ALL__'
p2155
I01
sS'violat__ALL__'
p2156
I01
sS'thi__ALL__'
p2157
I01
sS'wa__ALL__'
p2158
I01
sS'me__BOTTOM__'
p2159
I01
sS'veri__TOP__'
p2160
I01
sS'that__ALL__'
p2161
I01
sS'that__BOTTOM__'
p2162
I01
sS'shank__BOTTOM__'
p2163
I01
sS'veri__ALL__'
p2164
I01
sS'flute__TOP__'
p2165
I01
sS'flute__ALL__'
p2166
I01
sS'wa__TOP__'
p2167
I01
sS'with__BOTTOM__'
p2168
I01
sS'mike__ALL__'
p2169
I01
sS'shank__ALL__'
p2170
I01
sS'mike__BOTTOM__'
p2171
I01
sS'it__ALL__'
p2172
I01
sa(dp2173
S'al__TOP__'
p2174
I01
sS'sarebb__BOTTOM__'
p2175
I01
sS'perfetto__BOTTOM__'
p2176
I01
sS'sarebb__ALL__'
p2177
I01
sS'perfetto__ALL__'
p2178
I01
sS'mondo__ALL__'
p2179
I01
sS'io__ALL__'
p2180
I01
sS'solo__TOP__'
p2181
I01
sS'io__TOP__'
p2182
I01
sS'mondo__TOP__'
p2183
I01
sS'solo__ALL__'
p2184
I01
sS'al__ALL__'
p2185
I01
sa(dp2186
S'swag__TOP__'
p2187
I01
sS'a__ALL__'
p2188
I01
sS'bowlcut__ALL__'
p2189
I01
sS'?__ALL__'
p2190
I01
sS'?__BOTTOM__'
p2191
I01
sS'a__BOTTOM__'
p2192
I01
sS'who__TOP__'
p2193
I01
sS'when__ALL__'
p2194
I01
sS'bowlcut__BOTTOM__'
p2195
I01
sS'you__ALL__'
p2196
I01
sS'need__TOP__'
p2197
I01
sS'who__ALL__'
p2198
I01
sS'have__BOTTOM__'
p2199
I01
sS'swag__ALL__'
p2200
I01
sS'you__BOTTOM__'
p2201
I01
sS'have__ALL__'
p2202
I01
sS'need__ALL__'
p2203
I01
sS'when__BOTTOM__'
p2204
I01
sa(dp2205
S'.__ALL__'
p2206
I01
sS'ask__ALL__'
p2207
I01
sS'for__TOP__'
p2208
I01
sS'me__ALL__'
p2209
I01
sS'merci__ALL__'
p2210
I01
sS'give__ALL__'
p2211
I01
sS'couldnt__TOP__'
p2212
I01
sS'give__TOP__'
p2213
I01
sS'it__TOP__'
p2214
I01
sS'for__BOTTOM__'
p2215
I01
sS'ask__TOP__'
p2216
I01
sS'evid__ALL__'
p2217
I01
sS'couldnt__ALL__'
p2218
I01
sS'me__TOP__'
p2219
I01
sS'merci__BOTTOM__'
p2220
I01
sS'for__ALL__'
p2221
I01
sS'they__TOP__'
p2222
I01
sS'i__ALL__'
p2223
I01
sS'when__ALL__'
p2224
I01
sS'evid__TOP__'
p2225
I01
sS'it__ALL__'
p2226
I01
sS'they__ALL__'
p2227
I01
sS'i__TOP__'
p2228
I01
sS'ask__BOTTOM__'
p2229
I01
sS'they__BOTTOM__'
p2230
I01
sS'.__TOP__'
p2231
I01
sS'when__BOTTOM__'
p2232
I01
sa(dp2233
S'name__TOP__'
p2234
I01
sS'orang__BOTTOM__'
p2235
I01
sS'have__ALL__'
p2236
I01
sS'name__ALL__'
p2237
I01
sS'a__ALL__'
p2238
I01
sS'orang__ALL__'
p2239
I01
sS'mac__ALL__'
p2240
I01
sS'hi__ALL__'
p2241
I01
sS':0__BOTTOM__'
p2242
I01
sS'have__BOTTOM__'
p2243
I01
sS'bush__ALL__'
p2244
I01
sS'i__ALL__'
p2245
I01
sS':0__ALL__'
p2246
I01
sS'mac__TOP__'
p2247
I01
sS'hi__TOP__'
p2248
I01
sS'a__BOTTOM__'
p2249
I01
sS'my__TOP__'
p2250
I01
sS'bush__BOTTOM__'
p2251
I01
sS'i__BOTTOM__'
p2252
I01
sS'is__ALL__'
p2253
I01
sS'my__ALL__'
p2254
I01
sS'is__TOP__'
p2255
I01
sa(dp2256
S'.__ALL__'
p2257
I01
sS'they__TOP__'
p2258
I01
sS'laugh__BOTTOM__'
p2259
I01
sS'i__ALL__'
p2260
I01
sS'laugh__TOP__'
p2261
I01
sS'my__TOP__'
p2262
I01
sS'scream__ALL__'
p2263
I01
sS'my__ALL__'
p2264
I01
sS'laugh__ALL__'
p2265
I01
sS'i__BOTTOM__'
p2266
I01
sS'their__ALL__'
p2267
I01
sS'scream__BOTTOM__'
p2268
I01
sS'music__ALL__'
p2269
I01
sS'at__ALL__'
p2270
I01
sS'at__TOP__'
p2271
I01
sS'at__BOTTOM__'
p2272
I01
sS'.__TOP__'
p2273
I01
sS'they__ALL__'
p2274
I01
sS'their__BOTTOM__'
p2275
I01
sS'music__TOP__'
p2276
I01
sa(dp2277
S'uniform__BOTTOM__'
p2278
I01
sS'heyyyyy__TOP__'
p2279
I01
sS'bro__ALL__'
p2280
I01
sS'bro__BOTTOM__'
p2281
I01
sS'cool__ALL__'
p2282
I01
sS'cool__BOTTOM__'
p2283
I01
sS'uniform__ALL__'
p2284
I01
sS'oh__TOP__'
p2285
I01
sS'heyyyyy__ALL__'
p2286
I01
sS'oh__ALL__'
p2287
I01
sa(dp2288
S'fat__ALL__'
p2289
I01
sS'fuck__ALL__'
p2290
I01
sS'fuck__BOTTOM__'
p2291
I01
sS'fat__TOP__'
p2292
I01
sS'call__TOP__'
p2293
I01
sS'i__BOTTOM__'
p2294
I01
sS'hi__BOTTOM__'
p2295
I01
sS'hi__ALL__'
p2296
I01
sS'mom__ALL__'
p2297
I01
sS'mom__BOTTOM__'
p2298
I01
sS'me__TOP__'
p2299
I01
sS'he__ALL__'
p2300
I01
sS'me__ALL__'
p2301
I01
sS'call__ALL__'
p2302
I01
sS'i__ALL__'
p2303
I01
sS'he__TOP__'
p2304
I01
sa(dp2305
S'.__ALL__'
p2306
I01
sS'ask__ALL__'
p2307
I01
sS'for__TOP__'
p2308
I01
sS'me__ALL__'
p2309
I01
sS'merci__ALL__'
p2310
I01
sS'give__ALL__'
p2311
I01
sS'couldnt__TOP__'
p2312
I01
sS'give__TOP__'
p2313
I01
sS'it__TOP__'
p2314
I01
sS'for__BOTTOM__'
p2315
I01
sS'ask__TOP__'
p2316
I01
sS'evid__ALL__'
p2317
I01
sS'couldnt__ALL__'
p2318
I01
sS'me__TOP__'
p2319
I01
sS'merci__BOTTOM__'
p2320
I01
sS'for__ALL__'
p2321
I01
sS'they__TOP__'
p2322
I01
sS'i__ALL__'
p2323
I01
sS'me__BOTTOM__'
p2324
I01
sS'when__ALL__'
p2325
I01
sS'evid__TOP__'
p2326
I01
sS'it__ALL__'
p2327
I01
sS'they__ALL__'
p2328
I01
sS'i__TOP__'
p2329
I01
sS'ask__BOTTOM__'
p2330
I01
sS'they__BOTTOM__'
p2331
I01
sS'.__TOP__'
p2332
I01
sS'when__BOTTOM__'
p2333
I01
sa(dp2334
S'had__TOP__'
p2335
I01
sS'.__ALL__'
p2336
I01
sS'to__BOTTOM__'
p2337
I01
sS'declin__ALL__'
p2338
I01
sS'get__BOTTOM__'
p2339
I01
sS'a__TOP__'
p2340
I01
sS'bad__ALL__'
p2341
I01
sS'dream__TOP__'
p2342
I01
sS'becom__ALL__'
p2343
I01
sS'ffffuuuuu__ALL__'
p2344
I01
sS'declin__BOTTOM__'
p2345
I01
sS'ffffuuuuu__BOTTOM__'
p2346
I01
sS'a__ALL__'
p2347
I01
sS'staff__ALL__'
p2348
I01
sS'onc__TOP__'
p2349
I01
sS'had__ALL__'
p2350
I01
sS'get__ALL__'
p2351
I01
sS'too__ALL__'
p2352
I01
sS'i__ALL__'
p2353
I01
sS'alway__ALL__'
p2354
I01
sS'staff__BOTTOM__'
p2355
I01
sS'to__ALL__'
p2356
I01
sS'i__TOP__'
p2357
I01
sS'too__BOTTOM__'
p2358
I01
sS'i__BOTTOM__'
p2359
I01
sS'bad__BOTTOM__'
p2360
I01
sS'becom__BOTTOM__'
p2361
I01
sS'onc__ALL__'
p2362
I01
sS'alway__BOTTOM__'
p2363
I01
sS'.__TOP__'
p2364
I01
sS'dream__ALL__'
p2365
I01
sa(dp2366
S'man__BOTTOM__'
p2367
I01
sS'priest__ALL__'
p2368
I01
sS'i__TOP__'
p2369
I01
sS'priest__TOP__'
p2370
I01
sS'a__BOTTOM__'
p2371
I01
sS'made__BOTTOM__'
p2372
I01
sS'my__TOP__'
p2373
I01
sS'me__BOTTOM__'
p2374
I01
sS'a__ALL__'
p2375
I01
sS'me__ALL__'
p2376
I01
sS'made__ALL__'
p2377
I01
sS'my__ALL__'
p2378
I01
sS'love__ALL__'
p2379
I01
sS'he__ALL__'
p2380
I01
sS'he__BOTTOM__'
p2381
I01
sS'i__ALL__'
p2382
I01
sS'love__TOP__'
p2383
I01
sS'man__ALL__'
p2384
I01
sa(dp2385
S'like__ALL__'
p2386
I01
sS'like__TOP__'
p2387
I01
sS'and__ALL__'
p2388
I01
sS'hollow__ALL__'
p2389
I01
sS'small__ALL__'
p2390
I01
sS'hi__ALL__'
p2391
I01
sS'cock..__TOP__'
p2392
I01
sS'speed__TOP__'
p2393
I01
sS'and__BOTTOM__'
p2394
I01
sS'cock..__ALL__'
p2395
I01
sS'hollow__BOTTOM__'
p2396
I01
sS'hi__TOP__'
p2397
I01
sS'speed__ALL__'
p2398
I01
sS'small__BOTTOM__'
p2399
I01
sa(dp2400
S'dont__ALL__'
p2401
I01
sS'dont__BOTTOM__'
p2402
I01
sS'have__TOP__'
p2403
I01
sS'a__TOP__'
p2404
I01
sS'didnt__TOP__'
p2405
I01
sS'bodi__BOTTOM__'
p2406
I01
sS'have__ALL__'
p2407
I01
sS'a__ALL__'
p2408
I01
sS'now__ALL__'
p2409
I01
sS'bodi__ALL__'
p2410
I01
sS'have__BOTTOM__'
p2411
I01
sS'they__TOP__'
p2412
I01
sS'soul__ALL__'
p2413
I01
sS'i__ALL__'
p2414
I01
sS'said__ALL__'
p2415
I01
sS'their__ALL__'
p2416
I01
sS'they__ALL__'
p2417
I01
sS'soul__TOP__'
p2418
I01
sS'i__TOP__'
p2419
I01
sS'soul__BOTTOM__'
p2420
I01
sS'said__TOP__'
p2421
I01
sS'now__BOTTOM__'
p2422
I01
sS'their__BOTTOM__'
p2423
I01
sS'didnt__ALL__'
p2424
I01
sa(dp2425
S'left__ALL__'
p2426
I01
sS'want__TOP__'
p2427
I01
sS'chose__BOTTOM__'
p2428
I01
sS'to__BOTTOM__'
p2429
I01
sS'so__ALL__'
p2430
I01
sS'anyth__ALL__'
p2431
I01
sS'left__BOTTOM__'
p2432
I01
sS'chose__ALL__'
p2433
I01
sS'they__TOP__'
p2434
I01
sS'who__BOTTOM__'
p2435
I01
sS'want__ALL__'
p2436
I01
sS'talkin__ALL__'
p2437
I01
sS'malcom__ALL__'
p2438
I01
sS'so__BOTTOM__'
p2439
I01
sS'anyth__TOP__'
p2440
I01
sS'free__ALL__'
p2441
I01
sS'as__ALL__'
p2442
I01
sS'of__ALL__'
p2443
I01
sS'coltrane..__ALL__'
p2444
I01
sS'malcom__BOTTOM__'
p2445
I01
sS'of__BOTTOM__'
p2446
I01
sS'could__TOP__'
p2447
I01
sS'those__ALL__'
p2448
I01
sS'i__ALL__'
p2449
I01
sS'im__BOTTOM__'
p2450
I01
sS'free__BOTTOM__'
p2451
I01
sS'talkin__BOTTOM__'
p2452
I01
sS'be__BOTTOM__'
p2453
I01
sS'said__ALL__'
p2454
I01
sS'they__ALL__'
p2455
I01
sS'be__TOP__'
p2456
I01
sS'to__ALL__'
p2457
I01
sS'i__TOP__'
p2458
I01
sS'as__BOTTOM__'
p2459
I01
sS'be__ALL__'
p2460
I01
sS'im__ALL__'
p2461
I01
sS'said__TOP__'
p2462
I01
sS'those__BOTTOM__'
p2463
I01
sS'i__BOTTOM__'
p2464
I01
sS'could__ALL__'
p2465
I01
sS'who__ALL__'
p2466
I01
sS'spirit__BOTTOM__'
p2467
I01
sS'spirit__ALL__'
p2468
I01
sS'the__ALL__'
p2469
I01
sS'the__BOTTOM__'
p2470
I01
sS'coltrane..__BOTTOM__'
p2471
I01
sa(dp2472
S'!__BOTTOM__'
p2473
I01
sS'know__TOP__'
p2474
I01
sS'shoot__BOTTOM__'
p2475
I01
sS'are__ALL__'
p2476
I01
sS'dont__TOP__'
p2477
I01
sS'star__ALL__'
p2478
I01
sS'star__BOTTOM__'
p2479
I01
sS'!__ALL__'
p2480
I01
sS'are__BOTTOM__'
p2481
I01
sS'you__TOP__'
p2482
I01
sS'know__ALL__'
p2483
I01
sS'my__ALL__'
p2484
I01
sS'my__BOTTOM__'
p2485
I01
sS'you__ALL__'
p2486
I01
sS'you__BOTTOM__'
p2487
I01
sS'shoot__ALL__'
p2488
I01
sS'dont__ALL__'
p2489
I01
sa(dp2490
S'ginger__BOTTOM__'
p2491
I01
sS'!__ALL__'
p2492
I01
sS'howe__ALL__'
p2493
I01
sS'year__BOTTOM__'
p2494
I01
sS'for__BOTTOM__'
p2495
I01
sS'count__BOTTOM__'
p2496
I01
sS'17__BOTTOM__'
p2497
I01
sS'!__BOTTOM__'
p2498
I01
sS'howe__TOP__'
p2499
I01
sS'and__ALL__'
p2500
I01
sS'year__ALL__'
p2501
I01
sS'ginger__ALL__'
p2502
I01
sS'and__BOTTOM__'
p2503
I01
sS'aaron__ALL__'
p2504
I01
sS'17__ALL__'
p2505
I01
sS'count__ALL__'
p2506
I01
sS'aaron__TOP__'
p2507
I01
sS'for__ALL__'
p2508
I01
sa(dp2509
S'school__ALL__'
p2510
I01
sS'make__ALL__'
p2511
I01
sS'shuffl__ALL__'
p2512
I01
sS'the__ALL__'
p2513
I01
sS'peop__ALL__'
p2514
I01
sS'school__TOP__'
p2515
I01
sS'me__ALL__'
p2516
I01
sS'at__ALL__'
p2517
I01
sS'the__TOP__'
p2518
I01
sS'do__ALL__'
p2519
I01
sS'truffl__BOTTOM__'
p2520
I01
sS'me__TOP__'
p2521
I01
sS'shuffl__BOTTOM__'
p2522
I01
sS'make__TOP__'
p2523
I01
sS'at__TOP__'
p2524
I01
sS'truffl__ALL__'
p2525
I01
sS'do__TOP__'
p2526
I01
sS'peop__TOP__'
p2527
I01
sa(dp2528
S'to__BOTTOM__'
p2529
I01
sS'she__ALL__'
p2530
I01
sS'me__ALL__'
p2531
I01
sS'im__TOP__'
p2532
I01
sS'her__BOTTOM__'
p2533
I01
sS'told__ALL__'
p2534
I01
sS'she__TOP__'
p2535
I01
sS'wall__BOTTOM__'
p2536
I01
sS'me__TOP__'
p2537
I01
sS'her__ALL__'
p2538
I01
sS'told__TOP__'
p2539
I01
sS'i__ALL__'
p2540
I01
sS'hot__ALL__'
p2541
I01
sS'hot__TOP__'
p2542
I01
sS'to__ALL__'
p2543
I01
sS'weld__ALL__'
p2544
I01
sS'wall__ALL__'
p2545
I01
sS'i__BOTTOM__'
p2546
I01
sS'weld__BOTTOM__'
p2547
I01
sS'the__ALL__'
p2548
I01
sS'the__BOTTOM__'
p2549
I01
sS'im__ALL__'
p2550
I01
sa(dp2551
S'fat__ALL__'
p2552
I01
sS'they__TOP__'
p2553
I01
sS'laugh__BOTTOM__'
p2554
I01
sS'i__ALL__'
p2555
I01
sS'laugh__TOP__'
p2556
I01
sS'cri__BOTTOM__'
p2557
I01
sS'my__TOP__'
p2558
I01
sS'fat__TOP__'
p2559
I01
sS'laugh__ALL__'
p2560
I01
sS'i__BOTTOM__'
p2561
I01
sS'their__ALL__'
p2562
I01
sS'my__ALL__'
p2563
I01
sS'cri__ALL__'
p2564
I01
sS'at__ALL__'
p2565
I01
sS'at__TOP__'
p2566
I01
sS'at__BOTTOM__'
p2567
I01
sS'they__ALL__'
p2568
I01
sS'their__BOTTOM__'
p2569
I01
sa(dp2570
S'pant__ALL__'
p2571
I01
sS'i__TOP__'
p2572
I01
sS'shit__ALL__'
p2573
I01
sS'good__BOTTOM__'
p2574
I01
sS'my__TOP__'
p2575
I01
sS'my__ALL__'
p2576
I01
sS'feel__ALL__'
p2577
I01
sS'good__ALL__'
p2578
I01
sS'it__BOTTOM__'
p2579
I01
sS'feel__BOTTOM__'
p2580
I01
sS'it__ALL__'
p2581
I01
sS'shit__TOP__'
p2582
I01
sS'i__ALL__'
p2583
I01
sS'pant__TOP__'
p2584
I01
sa(dp2585
S'but__ALL__'
p2586
I01
sS'when__TOP__'
p2587
I01
sS'we__ALL__'
p2588
I01
sS'just__ALL__'
p2589
I01
sS'a__TOP__'
p2590
I01
sS'boy__ALL__'
p2591
I01
sS'me__ALL__'
p2592
I01
sS'just__TOP__'
p2593
I01
sS'we__TOP__'
p2594
I01
sS'like__ALL__'
p2595
I01
sS'a__ALL__'
p2596
I01
sS'now__ALL__'
p2597
I01
sS'!__BOTTOM__'
p2598
I01
sS'but__BOTTOM__'
p2599
I01
sS'boy__TOP__'
p2600
I01
sS'you__ALL__'
p2601
I01
sS'you__BOTTOM__'
p2602
I01
sS'wa__ALL__'
p2603
I01
sS'met__TOP__'
p2604
I01
sS'i__ALL__'
p2605
I01
sS'me__BOTTOM__'
p2606
I01
sS'like__BOTTOM__'
p2607
I01
sS'do__ALL__'
p2608
I01
sS'when__ALL__'
p2609
I01
sS'do__BOTTOM__'
p2610
I01
sS'how__BOTTOM__'
p2611
I01
sS'met__ALL__'
p2612
I01
sS'i__TOP__'
p2613
I01
sS'?__ALL__'
p2614
I01
sS'?__BOTTOM__'
p2615
I01
sS'wa__TOP__'
p2616
I01
sS'last__ALL__'
p2617
I01
sS'now__BOTTOM__'
p2618
I01
sS'!__ALL__'
p2619
I01
sS'how__ALL__'
p2620
I01
sS'last__TOP__'
p2621
I01
sa(dp2622
S'clarinet__TOP__'
p2623
I01
sS'cri__ALL__'
p2624
I01
sS'to__BOTTOM__'
p2625
I01
sS'mercy..__ALL__'
p2626
I01
sS'cri__BOTTOM__'
p2627
I01
sS'recit__TOP__'
p2628
I01
sS'didnt__TOP__'
p2629
I01
sS'clarinet__ALL__'
p2630
I01
sS'listen__BOTTOM__'
p2631
I01
sS'for__BOTTOM__'
p2632
I01
sS'recit__ALL__'
p2633
I01
sS'for__ALL__'
p2634
I01
sS'listen__ALL__'
p2635
I01
sS'they__TOP__'
p2636
I01
sS'i__ALL__'
p2637
I01
sS'their__ALL__'
p2638
I01
sS'listen__TOP__'
p2639
I01
sS'they__ALL__'
p2640
I01
sS'mercy..__BOTTOM__'
p2641
I01
sS'to__ALL__'
p2642
I01
sS'my__TOP__'
p2643
I01
sS'to__TOP__'
p2644
I01
sS'i__BOTTOM__'
p2645
I01
sS'my__ALL__'
p2646
I01
sS'their__BOTTOM__'
p2647
I01
sS'didnt__BOTTOM__'
p2648
I01
sS'didnt__ALL__'
p2649
I01
sa(dp2650
S'!__ALL__'
p2651
I01
sS'birthday__TOP__'
p2652
I01
sS'!__BOTTOM__'
p2653
I01
sS'happi__TOP__'
p2654
I01
sS'kati__ALL__'
p2655
I01
sS'birthday__ALL__'
p2656
I01
sS'xoxo__ALL__'
p2657
I01
sS'happi__ALL__'
p2658
I01
sS'kati__BOTTOM__'
p2659
I01
sS'xoxo__BOTTOM__'
p2660
I01
sa(dp2661
S'poni__BOTTOM__'
p2662
I01
sS'giddyup__TOP__'
p2663
I01
sS'my__ALL__'
p2664
I01
sS'giddyup__ALL__'
p2665
I01
sS'my__BOTTOM__'
p2666
I01
sS'poni__ALL__'
p2667
I01
sS'littl__ALL__'
p2668
I01
sS'littl__BOTTOM__'
p2669
I01
sa(dp2670
S'said__ALL__'
p2671
I01
sS'keep__ALL__'
p2672
I01
sS'they__TOP__'
p2673
I01
sS'noth__ALL__'
p2674
I01
sS'said__BOTTOM__'
p2675
I01
sS'said__TOP__'
p2676
I01
sS'happen__BOTTOM__'
p2677
I01
sS'the__TOP__'
p2678
I01
sS'happen__ALL__'
p2679
I01
sS'stairwel__ALL__'
p2680
I01
sS'will__ALL__'
p2681
I01
sS'keep__TOP__'
p2682
I01
sS'the__ALL__'
p2683
I01
sS'they__BOTTOM__'
p2684
I01
sS'noth__BOTTOM__'
p2685
I01
sS'will__BOTTOM__'
p2686
I01
sS'they__ALL__'
p2687
I01
sS'stairwel__TOP__'
p2688
I01
sa(dp2689
S'i__TOP__'
p2690
I01
sS'hoe__ALL__'
p2691
I01
sS'garden__BOTTOM__'
p2692
I01
sS'my__BOTTOM__'
p2693
I01
sS'from__ALL__'
p2694
I01
sS'pull__ALL__'
p2695
I01
sS'my__ALL__'
p2696
I01
sS'pull__TOP__'
p2697
I01
sS'garden__ALL__'
p2698
I01
sS'from__BOTTOM__'
p2699
I01
sS'i__ALL__'
p2700
I01
sS'hoe__TOP__'
p2701
I01
sa(dp2702
S'clarinet__TOP__'
p2703
I01
sS'sister__ALL__'
p2704
I01
sS'they__TOP__'
p2705
I01
sS'virgin__BOTTOM__'
p2706
I01
sS'my__TOP__'
p2707
I01
sS'i__BOTTOM__'
p2708
I01
sS'their__ALL__'
p2709
I01
sS'my__ALL__'
p2710
I01
sS'sister__BOTTOM__'
p2711
I01
sS'stole__TOP__'
p2712
I01
sS'clarinet__ALL__'
p2713
I01
sS'virgin__ALL__'
p2714
I01
sS'their__BOTTOM__'
p2715
I01
sS'stole__BOTTOM__'
p2716
I01
sS'they__ALL__'
p2717
I01
sS'i__ALL__'
p2718
I01
sS'stole__ALL__'
p2719
I01
sa(dp2720
S'jajajjajaja__BOTTOM__'
p2721
I01
sS'tmb__ALL__'
p2722
I01
sS'alon__ALL__'
p2723
I01
sS'jajajjajaja__ALL__'
p2724
I01
sS'forev__ALL__'
p2725
I01
sS'tmb__TOP__'
p2726
I01
sS'forev__BOTTOM__'
p2727
I01
sS'alon__BOTTOM__'
p2728
I01
sa(dp2729
S'!__ALL__'
p2730
I01
sS'gon__ALL__'
p2731
I01
sS'gon__BOTTOM__'
p2732
I01
sS'!__TOP__'
p2733
I01
sS'!__BOTTOM__'
p2734
I01
sS'me__ALL__'
p2735
I01
sS'na__ALL__'
p2736
I01
sS'fml__ALL__'
p2737
I01
sS'bastard__ALL__'
p2738
I01
sS'pay__BOTTOM__'
p2739
I01
sS'that__ALL__'
p2740
I01
sS'that__BOTTOM__'
p2741
I01
sS'koni__TOP__'
p2742
I01
sS'me__TOP__'
p2743
I01
sS'reject__ALL__'
p2744
I01
sS'fml__TOP__'
p2745
I01
sS'bastard__BOTTOM__'
p2746
I01
sS'pay__ALL__'
p2747
I01
sS'koni__ALL__'
p2748
I01
sS'na__BOTTOM__'
p2749
I01
sS'reject__TOP__'
p2750
I01
sa(dp2751
S'clarinet__TOP__'
p2752
I01
sS'cri__ALL__'
p2753
I01
sS'cri__BOTTOM__'
p2754
I01
sS'recit__TOP__'
p2755
I01
sS'merci__ALL__'
p2756
I01
sS'didnt__TOP__'
p2757
I01
sS'clarinet__ALL__'
p2758
I01
sS'come__ALL__'
p2759
I01
sS'for__BOTTOM__'
p2760
I01
sS'come__TOP__'
p2761
I01
sS'hear__BOTTOM__'
p2762
I01
sS'merci__BOTTOM__'
p2763
I01
sS'for__ALL__'
p2764
I01
sS'they__TOP__'
p2765
I01
sS'i__ALL__'
p2766
I01
sS'their__ALL__'
p2767
I01
sS'they__ALL__'
p2768
I01
sS'hear__ALL__'
p2769
I01
sS'to__ALL__'
p2770
I01
sS'recit__ALL__'
p2771
I01
sS'my__TOP__'
p2772
I01
sS'to__TOP__'
p2773
I01
sS'i__BOTTOM__'
p2774
I01
sS'my__ALL__'
p2775
I01
sS'their__BOTTOM__'
p2776
I01
sS'didnt__BOTTOM__'
p2777
I01
sS'didnt__ALL__'
p2778
I01
sa(dp2779
S'onli__TOP__'
p2780
I01
sS'!__ALL__'
p2781
I01
sS'one__TOP__'
p2782
I01
sS'rossi__ALL__'
p2783
I01
sS'!__BOTTOM__'
p2784
I01
sS'rossi__BOTTOM__'
p2785
I01
sS'one__ALL__'
p2786
I01
sS'the__TOP__'
p2787
I01
sS'the__ALL__'
p2788
I01
sS'and__ALL__'
p2789
I01
sS'luigi__BOTTOM__'
p2790
I01
sS'onli__ALL__'
p2791
I01
sS'luigi__ALL__'
p2792
I01
sS'and__TOP__'
p2793
I01
sa(dp2794
S'becam__ALL__'
p2795
I01
sS'i__TOP__'
p2796
I01
sS'anyth__ALL__'
p2797
I01
sS'could__TOP__'
p2798
I01
sS'becam__BOTTOM__'
p2799
I01
sS'a__BOTTOM__'
p2800
I01
sS'i__ALL__'
p2801
I01
sS'said__TOP__'
p2802
I01
sS'a__ALL__'
p2803
I01
sS'so__BOTTOM__'
p2804
I01
sS'could__ALL__'
p2805
I01
sS'be__ALL__'
p2806
I01
sS'douch__ALL__'
p2807
I01
sS'anyth__TOP__'
p2808
I01
sS'said__ALL__'
p2809
I01
sS'douch__BOTTOM__'
p2810
I01
sS'they__TOP__'
p2811
I01
sS'i__BOTTOM__'
p2812
I01
sS'they__ALL__'
p2813
I01
sS'be__TOP__'
p2814
I01
sS'so__ALL__'
p2815
I01
sa(dp2816
S'technolog__ALL__'
p2817
I01
sS'not__ALL__'
p2818
I01
sS'fort__ALL__'
p2819
I01
sS'fort__BOTTOM__'
p2820
I01
sS'technolog__TOP__'
p2821
I01
sS'not__BOTTOM__'
p2822
I01
sS'my__ALL__'
p2823
I01
sS'my__BOTTOM__'
p2824
I01
sa(dp2825
S'onto__ALL__'
p2826
I01
sS'laugh__ALL__'
p2827
I01
sS'laugh__TOP__'
p2828
I01
sS'move__ALL__'
p2829
I01
sS'me__ALL__'
p2830
I01
sS'onto__BOTTOM__'
p2831
I01
sS'the__TOP__'
p2832
I01
sS'clarinet__ALL__'
p2833
I01
sS'at__ALL__'
p2834
I01
sS'now__ALL__'
p2835
I01
sS'clarinet__BOTTOM__'
p2836
I01
sS'sever__BOTTOM__'
p2837
I01
sS'move__BOTTOM__'
p2838
I01
sS'me__TOP__'
p2839
I01
sS'they__BOTTOM__'
p2840
I01
sS'i__ALL__'
p2841
I01
sS'sever__ALL__'
p2842
I01
sS'stuck__ALL__'
p2843
I01
sS'when__ALL__'
p2844
I01
sS'at__TOP__'
p2845
I01
sS'they__ALL__'
p2846
I01
sS'their__BOTTOM__'
p2847
I01
sS'laugh__BOTTOM__'
p2848
I01
sS'their__ALL__'
p2849
I01
sS'now__BOTTOM__'
p2850
I01
sS'i__BOTTOM__'
p2851
I01
sS'the__ALL__'
p2852
I01
sS'the__BOTTOM__'
p2853
I01
sS'stuck__BOTTOM__'
p2854
I01
sS'when__BOTTOM__'
p2855
I01
sa(dp2856
S'becam__BOTTOM__'
p2857
I01
sS'so__ALL__'
p2858
I01
sS'anyth__ALL__'
p2859
I01
sS'me__ALL__'
p2860
I01
sS'they__TOP__'
p2861
I01
sS'becam__ALL__'
p2862
I01
sS'a__ALL__'
p2863
I01
sS'told__ALL__'
p2864
I01
sS'so__BOTTOM__'
p2865
I01
sS'god__BOTTOM__'
p2866
I01
sS'anyth__TOP__'
p2867
I01
sS'me__TOP__'
p2868
I01
sS'could__TOP__'
p2869
I01
sS'told__TOP__'
p2870
I01
sS'i__ALL__'
p2871
I01
sS'be__ALL__'
p2872
I01
sS'god__ALL__'
p2873
I01
sS'they__ALL__'
p2874
I01
sS'be__TOP__'
p2875
I01
sS'i__TOP__'
p2876
I01
sS'a__BOTTOM__'
p2877
I01
sS'i__BOTTOM__'
p2878
I01
sS'could__ALL__'
p2879
I01
sa(dp2880
S'a__ALL__'
p2881
I01
sS'lol__ALL__'
p2882
I01
sS'dark__ALL__'
p2883
I01
sS'a__BOTTOM__'
p2884
I01
sS'im__ALL__'
p2885
I01
sS'lol__BOTTOM__'
p2886
I01
sS'not__BOTTOM__'
p2887
I01
sS'orc__ALL__'
p2888
I01
sS'im__TOP__'
p2889
I01
sS'elf__BOTTOM__'
p2890
I01
sS'orc__BOTTOM__'
p2891
I01
sS'elf__ALL__'
p2892
I01
sS'dark__BOTTOM__'
p2893
I01
sS'not__ALL__'
p2894
I01
sa(dp2895
S'one__BOTTOM__'
p2896
I01
sS'grant__ALL__'
p2897
I01
sS'wish__ALL__'
p2898
I01
sS'battl__TOP__'
p2899
I01
sS'grant__BOTTOM__'
p2900
I01
sS'so__ALL__'
p2901
I01
sS'me__BOTTOM__'
p2902
I01
sS'wish__BOTTOM__'
p2903
I01
sS'so__BOTTOM__'
p2904
I01
sS'you__TOP__'
p2905
I01
sS'pleas__TOP__'
p2906
I01
sS'battl__ALL__'
p2907
I01
sS'one__ALL__'
p2908
I01
sS'you__ALL__'
p2909
I01
sS'me__ALL__'
p2910
I01
sS'pleas__ALL__'
p2911
I01
sS'crom__TOP__'
p2912
I01
sS'crom__ALL__'
p2913
I01
sa(dp2914
S'they__TOP__'
p2915
I01
sS'will__ALL__'
p2916
I01
sS'king__BOTTOM__'
p2917
I01
sS'call__BOTTOM__'
p2918
I01
sS'me__BOTTOM__'
p2919
I01
sS'call__TOP__'
p2920
I01
sS'kid__TOP__'
p2921
I01
sS'me__ALL__'
p2922
I01
sS'me__TOP__'
p2923
I01
sS'they__BOTTOM__'
p2924
I01
sS'call__ALL__'
p2925
I01
sS'will__BOTTOM__'
p2926
I01
sS'they__ALL__'
p2927
I01
sS'king__ALL__'
p2928
I01
sS'kid__ALL__'
p2929
I01
sa(dp2930
S'one__BOTTOM__'
p2931
I01
sS'stout__ALL__'
p2932
I01
sS'down__ALL__'
p2933
I01
sS'day__ALL__'
p2934
I01
sS'stout__TOP__'
p2935
I01
sS'one__ALL__'
p2936
I01
sS'dave__TOP__'
p2937
I01
sS'dave__ALL__'
p2938
I01
sS'day__BOTTOM__'
p2939
I01
sS'sinc__ALL__'
p2940
I01
sS'sinc__BOTTOM__'
p2941
I01
sS'down__BOTTOM__'
p2942
I01
sa(dp2943
S'kick__BOTTOM__'
p2944
I01
sS'have__TOP__'
p2945
I01
sS'the__TOP__'
p2946
I01
sS'and__ALL__'
p2947
I01
sS'and__BOTTOM__'
p2948
I01
sS'kick__ALL__'
p2949
I01
sS'your__BOTTOM__'
p2950
I01
sS'have__ALL__'
p2951
I01
sS'then__ALL__'
p2952
I01
sS'throw__TOP__'
p2953
I01
sS'throw__ALL__'
p2954
I01
sS'punch__TOP__'
p2955
I01
sS'punch__ALL__'
p2956
I01
sS'you__ALL__'
p2957
I01
sS'first__TOP__'
p2958
I01
sS'first__ALL__'
p2959
I01
sS'then__BOTTOM__'
p2960
I01
sS'i__ALL__'
p2961
I01
sS'you__TOP__'
p2962
I01
sS'ass__ALL__'
p2963
I01
sS'ass__BOTTOM__'
p2964
I01
sS'your__ALL__'
p2965
I01
sS'to__ALL__'
p2966
I01
sS'to__TOP__'
p2967
I01
sS'i__BOTTOM__'
p2968
I01
sS'the__ALL__'
p2969
I01
sa(dp2970
S'becam__BOTTOM__'
p2971
I01
sS'so__ALL__'
p2972
I01
sS'anyth__ALL__'
p2973
I01
sS'me__ALL__'
p2974
I01
sS'they__TOP__'
p2975
I01
sS'becam__ALL__'
p2976
I01
sS'slc__BOTTOM__'
p2977
I01
sS'told__ALL__'
p2978
I01
sS'so__BOTTOM__'
p2979
I01
sS'anyth__TOP__'
p2980
I01
sS'me__TOP__'
p2981
I01
sS'slc__ALL__'
p2982
I01
sS'could__TOP__'
p2983
I01
sS'told__TOP__'
p2984
I01
sS'i__ALL__'
p2985
I01
sS'be__ALL__'
p2986
I01
sS'an__ALL__'
p2987
I01
sS'they__ALL__'
p2988
I01
sS'be__TOP__'
p2989
I01
sS'i__TOP__'
p2990
I01
sS'an__BOTTOM__'
p2991
I01
sS'i__BOTTOM__'
p2992
I01
sS'could__ALL__'
p2993
I01
sa(dp2994
S'music__ALL__'
p2995
I01
sS'koreen__BOTTOM__'
p2996
I01
sS'i__TOP__'
p2997
I01
sS'nick__BOTTOM__'
p2998
I01
sS'do__ALL__'
p2999
I01
sS'i__ALL__'
p3000
I01
sS'serious__TOP__'
p3001
I01
sS'so__BOTTOM__'
p3002
I01
sS'take__ALL__'
p3003
I01
sS'and__ALL__'
p3004
I01
sS'koreen__ALL__'
p3005
I01
sS'serious__ALL__'
p3006
I01
sS'do__BOTTOM__'
p3007
I01
sS'and__BOTTOM__'
p3008
I01
sS'take__TOP__'
p3009
I01
sS'so__ALL__'
p3010
I01
sS'music__TOP__'
p3011
I01
sS'nick__ALL__'
p3012
I01
sa(dp3013
S'brother__TOP__'
p3014
I01
sS'my__TOP__'
p3015
I01
sS'he__ALL__'
p3016
I01
sS'lost__ALL__'
p3017
I01
sS'reed__TOP__'
p3018
I01
sS'hi__BOTTOM__'
p3019
I01
sS'brother__ALL__'
p3020
I01
sS'my__ALL__'
p3021
I01
sS'hi__ALL__'
p3022
I01
sS'lost__TOP__'
p3023
I01
sS'lost__BOTTOM__'
p3024
I01
sS'life__ALL__'
p3025
I01
sS'reed__ALL__'
p3026
I01
sS'he__BOTTOM__'
p3027
I01
sS'life__BOTTOM__'
p3028
I01
sa(dp3029
S'to__BOTTOM__'
p3030
I01
sS'like__TOP__'
p3031
I01
sS'so__ALL__'
p3032
I01
sS'end__BOTTOM__'
p3033
I01
sS'didnt__TOP__'
p3034
I01
sS'like__ALL__'
p3035
I01
sS'so__BOTTOM__'
p3036
I01
sS'had__ALL__'
p3037
I01
sS'they__TOP__'
p3038
I01
sS'i__ALL__'
p3039
I01
sS'end__ALL__'
p3040
I01
sS'their__ALL__'
p3041
I01
sS'had__BOTTOM__'
p3042
I01
sS'websit__ALL__'
p3043
I01
sS'they__ALL__'
p3044
I01
sS'to__ALL__'
p3045
I01
sS'my__TOP__'
p3046
I01
sS'thread__ALL__'
p3047
I01
sS'i__BOTTOM__'
p3048
I01
sS'my__ALL__'
p3049
I01
sS'websit__BOTTOM__'
p3050
I01
sS'thread__TOP__'
p3051
I01
sS'their__BOTTOM__'
p3052
I01
sS'didnt__ALL__'
p3053
I01
sa(dp3054
S'up__TOP__'
p3055
I01
sS'i__TOP__'
p3056
I01
sS'like__ALL__'
p3057
I01
sS'athlet__ALL__'
p3058
I01
sS'lee__ALL__'
p3059
I01
sS'athlet__BOTTOM__'
p3060
I01
sS'wan__BOTTOM__'
p3061
I01
sS'like__BOTTOM__'
p3062
I01
sS'i__BOTTOM__'
p3063
I01
sS'grow__TOP__'
p3064
I01
sS'when__ALL__'
p3065
I01
sS'grom__ALL__'
p3066
I01
sS'grom__BOTTOM__'
p3067
I01
sS'lee__BOTTOM__'
p3068
I01
sS'when__TOP__'
p3069
I01
sS'na__ALL__'
p3070
I01
sS'grow__ALL__'
p3071
I01
sS'wan__ALL__'
p3072
I01
sS'i__ALL__'
p3073
I01
sS'na__BOTTOM__'
p3074
I01
sS'up__ALL__'
p3075
I01
sa(dp3076
S'birthday__TOP__'
p3077
I01
sS'sleep__ALL__'
p3078
I01
sS'i__ALL__'
p3079
I01
sS'happi__TOP__'
p3080
I01
sS'birthday__ALL__'
p3081
I01
sS'i__BOTTOM__'
p3082
I01
sS'know__ALL__'
p3083
I01
sS'know__BOTTOM__'
p3084
I01
sS'sleep__BOTTOM__'
p3085
I01
sS'happi__ALL__'
p3086
I01
sS'you__ALL__'
p3087
I01
sS'you__BOTTOM__'
p3088
I01
sS'where__BOTTOM__'
p3089
I01
sS'where__ALL__'
p3090
I01
sa(dp3091
S'to__ALL__'
p3092
I01
sS'listen__BOTTOM__'
p3093
I01
sS'her__BOTTOM__'
p3094
I01
sS'to__BOTTOM__'
p3095
I01
sS'recit__ALL__'
p3096
I01
sS'she__ALL__'
p3097
I01
sS'my__TOP__'
p3098
I01
sS'scream__ALL__'
p3099
I01
sS'to__TOP__'
p3100
I01
sS'recit__TOP__'
p3101
I01
sS'i__BOTTOM__'
p3102
I01
sS'she__TOP__'
p3103
I01
sS'scream__BOTTOM__'
p3104
I01
sS'didnt__TOP__'
p3105
I01
sS'listen__TOP__'
p3106
I01
sS'my__ALL__'
p3107
I01
sS'didnt__BOTTOM__'
p3108
I01
sS'her__ALL__'
p3109
I01
sS'i__ALL__'
p3110
I01
sS'didnt__ALL__'
p3111
I01
sS'listen__ALL__'
p3112
I01
sa(dp3113
S'a__ALL__'
p3114
I01
sS'stout__ALL__'
p3115
I01
sS'player__BOTTOM__'
p3116
I01
sS'a__BOTTOM__'
p3117
I01
sS'stout__TOP__'
p3118
I01
sS'old__BOTTOM__'
p3119
I01
sS'old__ALL__'
p3120
I01
sS'dave__TOP__'
p3121
I01
sS'dave__ALL__'
p3122
I01
sS'sinc__ALL__'
p3123
I01
sS'day__BOTTOM__'
p3124
I01
sS'player__ALL__'
p3125
I01
sS'the__ALL__'
p3126
I01
sS'the__BOTTOM__'
p3127
I01
sS'sinc__BOTTOM__'
p3128
I01
sS'day__ALL__'
p3129
I01
sa(dp3130
S'man__BOTTOM__'
p3131
I01
sS'hey__ALL__'
p3132
I01
sS'sexi__ALL__'
p3133
I01
sS'sexi__BOTTOM__'
p3134
I01
sS'you__TOP__'
p3135
I01
sS'you__ALL__'
p3136
I01
sS'hey__TOP__'
p3137
I01
sS'man__ALL__'
p3138
I01
sa(dp3139
S'but__ALL__'
p3140
I01
sS'aint__ALL__'
p3141
I01
sS'bitch__TOP__'
p3142
I01
sS'aint__TOP__'
p3143
I01
sS'trick__BOTTOM__'
p3144
I01
sS'but__BOTTOM__'
p3145
I01
sS'ho__ALL__'
p3146
I01
sS'noth__TOP__'
p3147
I01
sS'and__ALL__'
p3148
I01
sS'and__BOTTOM__'
p3149
I01
sS'noth__ALL__'
p3150
I01
sS'ho__BOTTOM__'
p3151
I01
sS'trick__ALL__'
p3152
I01
sS'bitch__ALL__'
p3153
I01
sa(dp3154
S'clarinet__TOP__'
p3155
I01
sS'i__TOP__'
p3156
I01
sS'i__ALL__'
p3157
I01
sS'with__TOP__'
p3158
I01
sS'my__TOP__'
p3159
I01
sS'with__ALL__'
p3160
I01
sS'die__TOP__'
p3161
I01
sS'on__ALL__'
p3162
I01
sS'my__ALL__'
p3163
I01
sS'die__ALL__'
p3164
I01
sS'on__BOTTOM__'
p3165
I01
sS'clarinet__ALL__'
p3166
I01
sS'9/11__BOTTOM__'
p3167
I01
sS'9/11__ALL__'
p3168
I01
sa(dp3169
S'theyd__TOP__'
p3170
I01
sS'charg__ALL__'
p3171
I01
sS'me__ALL__'
p3172
I01
sS'theyd__ALL__'
p3173
I01
sS'charg__TOP__'
p3174
I01
sS'meat__ALL__'
p3175
I01
sS'a__ALL__'
p3176
I01
sS'told__ALL__'
p3177
I01
sS'me__TOP__'
p3178
I01
sS'face__ALL__'
p3179
I01
sS'face__BOTTOM__'
p3180
I01
sS'into__ALL__'
p3181
I01
sS'they__TOP__'
p3182
I01
sS'told__TOP__'
p3183
I01
sS'their__ALL__'
p3184
I01
sS'grinder__BOTTOM__'
p3185
I01
sS'press__TOP__'
p3186
I01
sS'they__ALL__'
p3187
I01
sS'meat__BOTTOM__'
p3188
I01
sS'into__BOTTOM__'
p3189
I01
sS'a__BOTTOM__'
p3190
I01
sS'press__ALL__'
p3191
I01
sS'grinder__ALL__'
p3192
I01
sS'their__BOTTOM__'
p3193
I01
sS'press__BOTTOM__'
p3194
I01
sa(dp3195
S'all__ALL__'
p3196
I01
sS'camp__BOTTOM__'
p3197
I01
sS'then__ALL__'
p3198
I01
sS'they__TOP__'
p3199
I01
sS'band__BOTTOM__'
p3200
I01
sS'then__BOTTOM__'
p3201
I01
sS'all__TOP__'
p3202
I01
sS'bulli__TOP__'
p3203
I01
sS'thi__ALL__'
p3204
I01
sS'band__ALL__'
p3205
I01
sS'me__ALL__'
p3206
I01
sS'bulli__ALL__'
p3207
I01
sS'one__BOTTOM__'
p3208
I01
sS'thi__BOTTOM__'
p3209
I01
sS'me__TOP__'
p3210
I01
sS'camp__ALL__'
p3211
I01
sS'timeat__ALL__'
p3212
I01
sS'one__ALL__'
p3213
I01
sS'they__ALL__'
p3214
I01
sS'timeat__BOTTOM__'
p3215
I01
sa(dp3216
S'i__TOP__'
p3217
I01
sS'now__ALL__'
p3218
I01
sS'wa__ALL__'
p3219
I01
sS'told__TOP__'
p3220
I01
sS'wa__TOP__'
p3221
I01
sS'now__BOTTOM__'
p3222
I01
sS'a__TOP__'
p3223
I01
sS'told__ALL__'
p3224
I01
sS'fat__TOP__'
p3225
I01
sS'onc__TOP__'
p3226
I01
sS'me__ALL__'
p3227
I01
sS'guy__TOP__'
p3228
I01
sS'a__ALL__'
p3229
I01
sS'onc__ALL__'
p3230
I01
sS'me__TOP__'
p3231
I01
sS'guy__ALL__'
p3232
I01
sS'fat__ALL__'
p3233
I01
sS'i__ALL__'
p3234
I01
sa(dp3235
S'school__ALL__'
p3236
I01
sS'make__ALL__'
p3237
I01
sS'peopl__TOP__'
p3238
I01
sS'the__ALL__'
p3239
I01
sS'peopl__ALL__'
p3240
I01
sS'shuffl__ALL__'
p3241
I01
sS'school__TOP__'
p3242
I01
sS'me__ALL__'
p3243
I01
sS'at__ALL__'
p3244
I01
sS'the__TOP__'
p3245
I01
sS'do__ALL__'
p3246
I01
sS'truffl__BOTTOM__'
p3247
I01
sS'me__TOP__'
p3248
I01
sS'shuffl__BOTTOM__'
p3249
I01
sS'make__TOP__'
p3250
I01
sS'at__TOP__'
p3251
I01
sS'truffl__ALL__'
p3252
I01
sS'do__TOP__'
p3253
I01
sa(dp3254
S'clarinet__TOP__'
p3255
I01
sS'to__ALL__'
p3256
I01
sS'they__TOP__'
p3257
I01
sS'recit__ALL__'
p3258
I01
sS'my__TOP__'
p3259
I01
sS'didn__ALL__'
p3260
I01
sS'to__TOP__'
p3261
I01
sS'recit__TOP__'
p3262
I01
sS'i__BOTTOM__'
p3263
I01
sS'didn__BOTTOM__'
p3264
I01
sS'my__ALL__'
p3265
I01
sS'didnt__TOP__'
p3266
I01
sS'listen__TOP__'
p3267
I01
sS'clarinet__ALL__'
p3268
I01
sS'they__ALL__'
p3269
I01
sS'i__ALL__'
p3270
I01
sS'didnt__ALL__'
p3271
I01
sS'listen__ALL__'
p3272
I01
sa(dp3273
S'to__ALL__'
p3274
I01
sS'wa__ALL__'
p3275
I01
sS'her__BOTTOM__'
p3276
I01
sS'to__BOTTOM__'
p3277
I01
sS'kill__BOTTOM__'
p3278
I01
sS'wa__TOP__'
p3279
I01
sS'she__ALL__'
p3280
I01
sS'so__ALL__'
p3281
I01
sS'i__BOTTOM__'
p3282
I01
sS'beauti__TOP__'
p3283
I01
sS'she__TOP__'
p3284
I01
sS'so__TOP__'
p3285
I01
sS'had__BOTTOM__'
p3286
I01
sS'had__ALL__'
p3287
I01
sS'her__ALL__'
p3288
I01
sS'kill__ALL__'
p3289
I01
sS'beauti__ALL__'
p3290
I01
sS'i__ALL__'
p3291
I01
sa(dp3292
S'parent__ALL__'
p3293
I01
sS'off__ALL__'
p3294
I01
sS'the__TOP__'
p3295
I01
sS'wipe__ALL__'
p3296
I01
sS'fed__BOTTOM__'
p3297
I01
sS'off__TOP__'
p3298
I01
sS'wipe__TOP__'
p3299
I01
sS'smirk__ALL__'
p3300
I01
sS'them__ALL__'
p3301
I01
sS'face__ALL__'
p3302
I01
sS'their__TOP__'
p3303
I01
sS'smirk__TOP__'
p3304
I01
sS'parent__BOTTOM__'
p3305
I01
sS'i__ALL__'
p3306
I01
sS'their__ALL__'
p3307
I01
sS'when__ALL__'
p3308
I01
sS'face__TOP__'
p3309
I01
sS'fed__ALL__'
p3310
I01
sS'i__TOP__'
p3311
I01
sS'i__BOTTOM__'
p3312
I01
sS'the__ALL__'
p3313
I01
sS'their__BOTTOM__'
p3314
I01
sS'them__BOTTOM__'
p3315
I01
sS'when__BOTTOM__'
p3316
I01
sa(dp3317
S'friend__TOP__'
p3318
I01
sS'use__BOTTOM__'
p3319
I01
sS'i__TOP__'
p3320
I01
sS'have__TOP__'
p3321
I01
sS'to__BOTTOM__'
p3322
I01
sS'to__ALL__'
p3323
I01
sS'use__TOP__'
p3324
I01
sS'use__ALL__'
p3325
I01
sS'i__ALL__'
p3326
I01
sS'to__TOP__'
p3327
I01
sS'friend__ALL__'
p3328
I01
sS'have__ALL__'
p3329
I01
sa(dp3330
S'racism__BOTTOM__'
p3331
I01
sS'i__ALL__'
p3332
I01
sS'call__BOTTOM__'
p3333
I01
sS'!__TOP__'
p3334
I01
sS'!__BOTTOM__'
p3335
I01
sS'!__ALL__'
p3336
I01
sS'me__ALL__'
p3337
I01
sS'i__BOTTOM__'
p3338
I01
sS'fml__ALL__'
p3339
I01
sS'koni__TOP__'
p3340
I01
sS'me__TOP__'
p3341
I01
sS'reject__ALL__'
p3342
I01
sS'fml__TOP__'
p3343
I01
sS'call__ALL__'
p3344
I01
sS'racism__ALL__'
p3345
I01
sS'koni__ALL__'
p3346
I01
sS'reject__TOP__'
p3347
I01
sa(dp3348
S'cunt__BOTTOM__'
p3349
I01
sS'i__TOP__'
p3350
I01
sS'wa__ALL__'
p3351
I01
sS'a__BOTTOM__'
p3352
I01
sS'wa__BOTTOM__'
p3353
I01
sS'i__ALL__'
p3354
I01
sS'howey__ALL__'
p3355
I01
sS'thoma__ALL__'
p3356
I01
sS'a__ALL__'
p3357
I01
sS'howey__BOTTOM__'
p3358
I01
sS'cunt__ALL__'
p3359
I01
sS'thought__ALL__'
p3360
I01
sS'thought__TOP__'
p3361
I01
sS'thoma__BOTTOM__'
p3362
I01
sa(dp3363
S'becam__BOTTOM__'
p3364
I01
sS'so__ALL__'
p3365
I01
sS'anyth__ALL__'
p3366
I01
sS'gdb__BOTTOM__'
p3367
I01
sS'they__TOP__'
p3368
I01
sS'becam__ALL__'
p3369
I01
sS'could__ALL__'
p3370
I01
sS'a__ALL__'
p3371
I01
sS'so__BOTTOM__'
p3372
I01
sS'god__BOTTOM__'
p3373
I01
sS'anyth__TOP__'
p3374
I01
sS'could__TOP__'
p3375
I01
sS'i__ALL__'
p3376
I01
sS'said__ALL__'
p3377
I01
sS'be__ALL__'
p3378
I01
sS'god__ALL__'
p3379
I01
sS'they__ALL__'
p3380
I01
sS'be__TOP__'
p3381
I01
sS'i__TOP__'
p3382
I01
sS'a__BOTTOM__'
p3383
I01
sS'said__TOP__'
p3384
I01
sS'i__BOTTOM__'
p3385
I01
sS'gdb__ALL__'
p3386
I01
sa(dp3387
S'is__ALL__'
p3388
I01
sS'ye__ALL__'
p3389
I01
sS'pleas__BOTTOM__'
p3390
I01
sS'pleas__ALL__'
p3391
I01
sS'ye__BOTTOM__'
p3392
I01
sS'pedo__ALL__'
p3393
I01
sS'bear__BOTTOM__'
p3394
I01
sS'bear__ALL__'
p3395
I01
sS'pedo__BOTTOM__'
p3396
I01
sS'ye__TOP__'
p3397
I01
sS'is__BOTTOM__'
p3398
I01
sa(dp3399
S'me__ALL__'
p3400
I01
sS'gener__ALL__'
p3401
I01
sS'up__BOTTOM__'
p3402
I01
sS'set__BOTTOM__'
p3403
I01
sS'estat__BOTTOM__'
p3404
I01
sS'tax__TOP__'
p3405
I01
sS'tri__ALL__'
p3406
I01
sS'me__TOP__'
p3407
I01
sS'tri__TOP__'
p3408
I01
sS'they__TOP__'
p3409
I01
sS'i__ALL__'
p3410
I01
sS'set__ALL__'
p3411
I01
sS'estat__ALL__'
p3412
I01
sS'tax__ALL__'
p3413
I01
sS'they__ALL__'
p3414
I01
sS'to__ALL__'
p3415
I01
sS'to__TOP__'
p3416
I01
sS'i__BOTTOM__'
p3417
I01
sS'gener__BOTTOM__'
p3418
I01
sS'up__ALL__'
p3419
I01
sS'the__ALL__'
p3420
I01
sS'the__BOTTOM__'
p3421
I01
sa(dp3422
S'hurrr__ALL__'
p3423
I01
sS'i__TOP__'
p3424
I01
sS'object__ALL__'
p3425
I01
sS'a__TOP__'
p3426
I01
sS'object__TOP__'
p3427
I01
sS'am__ALL__'
p3428
I01
sS'younger__TOP__'
p3429
I01
sS'a__ALL__'
p3430
I01
sS'hurrr__BOTTOM__'
p3431
I01
sS'younger__ALL__'
p3432
I01
sS'am__TOP__'
p3433
I01
sS'durrr__BOTTOM__'
p3434
I01
sS'i__ALL__'
p3435
I01
sS'durrr__ALL__'
p3436
I01
sa(dp3437
S'uzi__TOP__'
p3438
I01
sS'im__ALL__'
p3439
I01
sS'im__TOP__'
p3440
I01
sS'kiss__BOTTOM__'
p3441
I01
sS'uzi__ALL__'
p3442
I01
sS'let__BOTTOM__'
p3443
I01
sS'kiss__ALL__'
p3444
I01
sS'let__ALL__'
p3445
I01
sa(dp3446
S'grandpar__BOTTOM__'
p3447
I01
sS'grief__TOP__'
p3448
I01
sS'they__TOP__'
p3449
I01
sS'server__TOP__'
p3450
I01
sS'my__TOP__'
p3451
I01
sS'i__BOTTOM__'
p3452
I01
sS'i__ALL__'
p3453
I01
sS'their__ALL__'
p3454
I01
sS'my__ALL__'
p3455
I01
sS'hous__ALL__'
p3456
I01
sS'hous__BOTTOM__'
p3457
I01
sS'grief__BOTTOM__'
p3458
I01
sS'their__BOTTOM__'
p3459
I01
sS'server__ALL__'
p3460
I01
sS'they__ALL__'
p3461
I01
sS'grief__ALL__'
p3462
I01
sS'grandpar__ALL__'
p3463
I01
sa(dp3464
S'punctur__ALL__'
p3465
I01
sS'me__ALL__'
p3466
I01
sS'could__BOTTOM__'
p3467
I01
sS'show__ALL__'
p3468
I01
sS'show__BOTTOM__'
p3469
I01
sS'punctual__ALL__'
p3470
I01
sS'told__ALL__'
p3471
I01
sS'punctur__BOTTOM__'
p3472
I01
sS'me__TOP__'
p3473
I01
sS'they__TOP__'
p3474
I01
sS'told__TOP__'
p3475
I01
sS'i__ALL__'
p3476
I01
sS'punctual__TOP__'
p3477
I01
sS'be__ALL__'
p3478
I01
sS'be__BOTTOM__'
p3479
I01
sS'they__ALL__'
p3480
I01
sS'be__TOP__'
p3481
I01
sS'to__ALL__'
p3482
I01
sS'to__TOP__'
p3483
I01
sS'i__BOTTOM__'
p3484
I01
sS'could__ALL__'
p3485
I01
sS'them__ALL__'
p3486
I01
sS'them__BOTTOM__'
p3487
I01
sa(dp3488
S')__ALL__'
p3489
I01
sS'sunglass__TOP__'
p3490
I01
sS'sunglass__ALL__'
p3491
I01
sS'becaus__ALL__'
p3492
I01
sS'play__TOP__'
p3493
I01
sS')__TOP__'
p3494
I01
sS'!__BOTTOM__'
p3495
I01
sS'becaus__TOP__'
p3496
I01
sS'fiddl__ALL__'
p3497
I01
sS'yeeaaahhhhhhhhhh__ALL__'
p3498
I01
sS'fiddl__BOTTOM__'
p3499
I01
sS'second__BOTTOM__'
p3500
I01
sS'i__ALL__'
p3501
I01
sS'i__TOP__'
p3502
I01
sS'(__ALL__'
p3503
I01
sS'(__TOP__'
p3504
I01
sS'never__TOP__'
p3505
I01
sS'!__ALL__'
p3506
I01
sS'never__ALL__'
p3507
I01
sS'second__ALL__'
p3508
I01
sS'yeeaaahhhhhhhhhh__BOTTOM__'
p3509
I01
sS'play__ALL__'
p3510
I01
sa(dp3511
S'make__ALL__'
p3512
I01
sS'danc__ALL__'
p3513
I01
sS'danc__TOP__'
p3514
I01
sS'made__ALL__'
p3515
I01
sS'rachael__ALL__'
p3516
I01
sS'rachael__BOTTOM__'
p3517
I01
sS'band__TOP__'
p3518
I01
sS'whi__BOTTOM__'
p3519
I01
sS'her__ALL__'
p3520
I01
sS'they__TOP__'
p3521
I01
sS'made__BOTTOM__'
p3522
I01
sS'i__ALL__'
p3523
I01
sS'band__ALL__'
p3524
I01
sS'said__ALL__'
p3525
I01
sS'that__ALL__'
p3526
I01
sS'her__TOP__'
p3527
I01
sS'they__ALL__'
p3528
I01
sS'whi__ALL__'
p3529
I01
sS'said__TOP__'
p3530
I01
sS'i__BOTTOM__'
p3531
I01
sS'make__TOP__'
p3532
I01
sS'that__BOTTOM__'
p3533
I01
sa(dp3534
S'.__BOTTOM__'
p3535
I01
sS'pussi__BOTTOM__'
p3536
I01
sS'.__ALL__'
p3537
I01
sS'they__TOP__'
p3538
I01
sS'destroy__BOTTOM__'
p3539
I01
sS'call__TOP__'
p3540
I01
sS'me__ALL__'
p3541
I01
sS'me__TOP__'
p3542
I01
sS'pussi__ALL__'
p3543
I01
sS'the__ALL__'
p3544
I01
sS'the__BOTTOM__'
p3545
I01
sS'call__ALL__'
p3546
I01
sS'they__ALL__'
p3547
I01
sS'destroy__ALL__'
p3548
I01
sa(dp3549
S'voic__TOP__'
p3550
I01
sS'tracheostomi__BOTTOM__'
p3551
I01
sS'they__TOP__'
p3552
I01
sS'tracheostomi__ALL__'
p3553
I01
sS'fun__TOP__'
p3554
I01
sS'i__ALL__'
p3555
I01
sS'made__BOTTOM__'
p3556
I01
sS'voic__ALL__'
p3557
I01
sS'my__TOP__'
p3558
I01
sS'made__TOP__'
p3559
I01
sS'fun__ALL__'
p3560
I01
sS'i__BOTTOM__'
p3561
I01
sS'their__ALL__'
p3562
I01
sS'my__ALL__'
p3563
I01
sS'of__TOP__'
p3564
I01
sS'of__ALL__'
p3565
I01
sS'their__BOTTOM__'
p3566
I01
sS'fun__BOTTOM__'
p3567
I01
sS'they__ALL__'
p3568
I01
sS'made__ALL__'
p3569
I01
sS'of__BOTTOM__'
p3570
I01
sa(dp3571
S'kick__BOTTOM__'
p3572
I01
sS'kick__ALL__'
p3573
I01
sS'so__ALL__'
p3574
I01
sS'anyth__ALL__'
p3575
I01
sS'and__ALL__'
p3576
I01
sS'and__BOTTOM__'
p3577
I01
sS'clarinet__ALL__'
p3578
I01
sS'they__TOP__'
p3579
I01
sS'a__ALL__'
p3580
I01
sS'butt__BOTTOM__'
p3581
I01
sS'clarinet__BOTTOM__'
p3582
I01
sS'choir__ALL__'
p3583
I01
sS'so__BOTTOM__'
p3584
I01
sS'anyth__TOP__'
p3585
I01
sS'choir__BOTTOM__'
p3586
I01
sS'butt__ALL__'
p3587
I01
sS'could__TOP__'
p3588
I01
sS'i__ALL__'
p3589
I01
sS'said__ALL__'
p3590
I01
sS'do__ALL__'
p3591
I01
sS'they__ALL__'
p3592
I01
sS'do__TOP__'
p3593
I01
sS'i__TOP__'
p3594
I01
sS'a__BOTTOM__'
p3595
I01
sS'join__ALL__'
p3596
I01
sS'said__TOP__'
p3597
I01
sS'i__BOTTOM__'
p3598
I01
sS'could__ALL__'
p3599
I01
sS'join__BOTTOM__'
p3600
I01
sa(dp3601
S'play__TOP__'
p3602
I01
sS'clarinet__TOP__'
p3603
I01
sS'weekday__TOP__'
p3604
I01
sS'weekday__ALL__'
p3605
I01
sS'the__ALL__'
p3606
I01
sS'skinn__ALL__'
p3607
I01
sS'flut__ALL__'
p3608
I01
sS'weekend__ALL__'
p3609
I01
sS'the__TOP__'
p3610
I01
sS'clarinet__ALL__'
p3611
I01
sS'weekend__BOTTOM__'
p3612
I01
sS'on__ALL__'
p3613
I01
sS'on__BOTTOM__'
p3614
I01
sS'the__BOTTOM__'
p3615
I01
sS'play__ALL__'
p3616
I01
sS'skinn__BOTTOM__'
p3617
I01
sS'flut__BOTTOM__'
p3618
I01
sS'on__TOP__'
p3619
I01
sa(dp3620
S'12__ALL__'
p3621
I01
sS'they__TOP__'
p3622
I01
sS'thumb__BOTTOM__'
p3623
I01
sS'i__ALL__'
p3624
I01
sS'took__ALL__'
p3625
I01
sS'took__BOTTOM__'
p3626
I01
sS'12__TOP__'
p3627
I01
sS'thumb__ALL__'
p3628
I01
sS'call__TOP__'
p3629
I01
sS'i__BOTTOM__'
p3630
I01
sS'their__ALL__'
p3631
I01
sS'me__ALL__'
p3632
I01
sS'me__TOP__'
p3633
I01
sS'their__BOTTOM__'
p3634
I01
sS'they__ALL__'
p3635
I01
sS'call__ALL__'
p3636
I01
sa(dp3637
S'becam__ALL__'
p3638
I01
sS'i__TOP__'
p3639
I01
sS'anyth__ALL__'
p3640
I01
sS'they__TOP__'
p3641
I01
sS'becam__BOTTOM__'
p3642
I01
sS'a__BOTTOM__'
p3643
I01
sS'can__ALL__'
p3644
I01
sS'i__ALL__'
p3645
I01
sS'said__TOP__'
p3646
I01
sS'a__ALL__'
p3647
I01
sS'i__BOTTOM__'
p3648
I01
sS'can__TOP__'
p3649
I01
sS'anyth__TOP__'
p3650
I01
sS'murder__ALL__'
p3651
I01
sS'murder__BOTTOM__'
p3652
I01
sS'be__ALL__'
p3653
I01
sS'said__ALL__'
p3654
I01
sS'they__ALL__'
p3655
I01
sS'be__TOP__'
p3656
I01
sa(dp3657
S'soul__TOP__'
p3658
I01
sS'have__ALL__'
p3659
I01
sS'have__TOP__'
p3660
I01
sS'clarinet__BOTTOM__'
p3661
I01
sS'a__BOTTOM__'
p3662
I01
sS'dont__TOP__'
p3663
I01
sS'i__ALL__'
p3664
I01
sS'a__ALL__'
p3665
I01
sS'i__BOTTOM__'
p3666
I01
sS'ginger__TOP__'
p3667
I01
sS'well__ALL__'
p3668
I01
sS'ginger__ALL__'
p3669
I01
sS'soul__ALL__'
p3670
I01
sS'clarinet__ALL__'
p3671
I01
sS'have__BOTTOM__'
p3672
I01
sS'dont__ALL__'
p3673
I01
sS'well__BOTTOM__'
p3674
I01
sa(dp3675
S'birthday__TOP__'
p3676
I01
sS'craig__TOP__'
p3677
I01
sS'craig__ALL__'
p3678
I01
sS'beast__ALL__'
p3679
I01
sS'happi__TOP__'
p3680
I01
sS'sexi__BOTTOM__'
p3681
I01
sS'birthday__ALL__'
p3682
I01
sS'happi__ALL__'
p3683
I01
sS'reck__TOP__'
p3684
I01
sS'beast__BOTTOM__'
p3685
I01
sS'you__ALL__'
p3686
I01
sS'you__BOTTOM__'
p3687
I01
sS'reck__ALL__'
p3688
I01
sS'sexi__ALL__'
p3689
I01
sa(dp3690
S'will__BOTTOM__'
p3691
I01
sS'wa__ALL__'
p3692
I01
sS'music__ALL__'
p3693
I01
sS'and__ALL__'
p3694
I01
sS'wa__TOP__'
p3695
I01
sS'last__ALL__'
p3696
I01
sS'my__TOP__'
p3697
I01
sS'my__BOTTOM__'
p3698
I01
sS'my__ALL__'
p3699
I01
sS'be__ALL__'
p3700
I01
sS'it__BOTTOM__'
p3701
I01
sS'last__BOTTOM__'
p3702
I01
sS'music__TOP__'
p3703
I01
sS'be__BOTTOM__'
p3704
I01
sS'and__BOTTOM__'
p3705
I01
sS'first__ALL__'
p3706
I01
sS'first__TOP__'
p3707
I01
sS'will__ALL__'
p3708
I01
sS'love__ALL__'
p3709
I01
sS'love__TOP__'
p3710
I01
sS'it__ALL__'
p3711
I01
sa(dp3712
S'by__BOTTOM__'
p3713
I01
sS'headgear__ALL__'
p3714
I01
sS'dash__ALL__'
p3715
I01
sS'on__ALL__'
p3716
I01
sS'despit__ALL__'
p3717
I01
sS'my__TOP__'
p3718
I01
sS'despit__TOP__'
p3719
I01
sS'by__ALL__'
p3720
I01
sS'is__ALL__'
p3721
I01
sS'the__ALL__'
p3722
I01
sS'my__ALL__'
p3723
I01
sS'on__BOTTOM__'
p3724
I01
sS'night__BOTTOM__'
p3725
I01
sS'the__BOTTOM__'
p3726
I01
sS'dash__TOP__'
p3727
I01
sS'night__ALL__'
p3728
I01
sS'headgear__BOTTOM__'
p3729
I01
sS'is__BOTTOM__'
p3730
I01
sS'charm__TOP__'
p3731
I01
sS'charm__ALL__'
p3732
I01
sa(dp3733
S'!__ALL__'
p3734
I01
sS'video__ALL__'
p3735
I01
sS'watch__TOP__'
p3736
I01
sS'!__BOTTOM__'
p3737
I01
sS'!__TOP__'
p3738
I01
sS'me__BOTTOM__'
p3739
I01
sS'just__ALL__'
p3740
I01
sS'watch__ALL__'
p3741
I01
sS'at__ALL__'
p3742
I01
sS'the__TOP__'
p3743
I01
sS'him__ALL__'
p3744
I01
sS'just__TOP__'
p3745
I01
sS'koni__TOP__'
p3746
I01
sS'him__BOTTOM__'
p3747
I01
sS'the__ALL__'
p3748
I01
sS'me__ALL__'
p3749
I01
sS'at__BOTTOM__'
p3750
I01
sS'let__BOTTOM__'
p3751
I01
sS'let__ALL__'
p3752
I01
sS'koni__ALL__'
p3753
I01
sS'video__TOP__'
p3754
I01
sa(dp3755
S'play__TOP__'
p3756
I01
sS'clarinet__TOP__'
p3757
I01
sS'i__TOP__'
p3758
I01
sS'?__ALL__'
p3759
I01
sS'?__BOTTOM__'
p3760
I01
sS'clarinet__ALL__'
p3761
I01
sS'askin__BOTTOM__'
p3762
I01
sS'i__ALL__'
p3763
I01
sS'the__TOP__'
p3764
I01
sS'the__ALL__'
p3765
I01
sS'who__ALL__'
p3766
I01
sS'play__ALL__'
p3767
I01
sS'who__BOTTOM__'
p3768
I01
sS'askin__ALL__'
p3769
I01
sa(dp3770
S'happi__TOP__'
p3771
I01
sS'wiggli__ALL__'
p3772
I01
sS'in__ALL__'
p3773
I01
sS'im__TOP__'
p3774
I01
sS'place__ALL__'
p3775
I01
sS'at__ALL__'
p3776
I01
sS'cooki__BOTTOM__'
p3777
I01
sS'piggli__BOTTOM__'
p3778
I01
sS'my__ALL__'
p3779
I01
sS'aisl__ALL__'
p3780
I01
sS'aisl__BOTTOM__'
p3781
I01
sS'piggli__ALL__'
p3782
I01
sS'cooki__ALL__'
p3783
I01
sS'happi__ALL__'
p3784
I01
sS'in__TOP__'
p3785
I01
sS'my__TOP__'
p3786
I01
sS'wiggli__BOTTOM__'
p3787
I01
sS'place__TOP__'
p3788
I01
sS'the__ALL__'
p3789
I01
sS'the__BOTTOM__'
p3790
I01
sS'at__BOTTOM__'
p3791
I01
sS'im__ALL__'
p3792
I01
sa(dp3793
S'en__BOTTOM__'
p3794
I01
sS'tiempo__ALL__'
p3795
I01
sS'llamaron__ALL__'
p3796
I01
sS'en__ALL__'
p3797
I01
sS'no__BOTTOM__'
p3798
I01
sS'para__BOTTOM__'
p3799
I01
sS'para__ALL__'
p3800
I01
sS'llegaron__BOTTOM__'
p3801
I01
sS'llamaron__TOP__'
p3802
I01
sS'llegaron__ALL__'
p3803
I01
sS'policia__TOP__'
p3804
I01
sS'tiempo__BOTTOM__'
p3805
I01
sS'la__TOP__'
p3806
I01
sS'rescatarlo__ALL__'
p3807
I01
sS'no__ALL__'
p3808
I01
sS'la__ALL__'
p3809
I01
sS'policia__ALL__'
p3810
I01
sS'rescatarlo__BOTTOM__'
p3811
I01
sa(dp3812
S'got__BOTTOM__'
p3813
I01
sS'got__ALL__'
p3814
I01
sS'so__ALL__'
p3815
I01
sS'my__BOTTOM__'
p3816
I01
sS'me__ALL__'
p3817
I01
sS'and__ALL__'
p3818
I01
sS'shoulder__ALL__'
p3819
I01
sS'and__BOTTOM__'
p3820
I01
sS'they__TOP__'
p3821
I01
sS'be__ALL__'
p3822
I01
sS'a__ALL__'
p3823
I01
sS'shoulder__BOTTOM__'
p3824
I01
sS'sold__BOTTOM__'
p3825
I01
sS'told__ALL__'
p3826
I01
sS'so__BOTTOM__'
p3827
I01
sS'on__ALL__'
p3828
I01
sS'anyth__TOP__'
p3829
I01
sS'me__TOP__'
p3830
I01
sS'friend__ALL__'
p3831
I01
sS'anyth__ALL__'
p3832
I01
sS'could__TOP__'
p3833
I01
sS'told__TOP__'
p3834
I01
sS'soul__ALL__'
p3835
I01
sS'i__ALL__'
p3836
I01
sS'friend__BOTTOM__'
p3837
I01
sS'they__ALL__'
p3838
I01
sS'be__TOP__'
p3839
I01
sS'sold__ALL__'
p3840
I01
sS'i__TOP__'
p3841
I01
sS'a__BOTTOM__'
p3842
I01
sS'soul__BOTTOM__'
p3843
I01
sS'i__BOTTOM__'
p3844
I01
sS'could__ALL__'
p3845
I01
sS'my__ALL__'
p3846
I01
sS'on__BOTTOM__'
p3847
I01
sS'littl__ALL__'
p3848
I01
sS'littl__BOTTOM__'
p3849
I01
sa(dp3850
S'all__ALL__'
p3851
I01
sS'i__TOP__'
p3852
I01
sS'want__TOP__'
p3853
I01
sS'get__ALL__'
p3854
I01
sS'all__TOP__'
p3855
I01
sS'can__ALL__'
p3856
I01
sS'i__ALL__'
p3857
I01
sS'get__TOP__'
p3858
I01
sS'the__TOP__'
p3859
I01
sS'can__TOP__'
p3860
I01
sS'the__ALL__'
p3861
I01
sS'want__ALL__'
p3862
I01
sS'babe__ALL__'
p3863
I01
sS'babe__TOP__'
p3864
I01
sa(dp3865
S'by__BOTTOM__'
p3866
I01
sS'fat__ALL__'
p3867
I01
sS'everyon__ALL__'
p3868
I01
sS'a__TOP__'
p3869
I01
sS'been__TOP__'
p3870
I01
sS'ive__TOP__'
p3871
I01
sS'call__ALL__'
p3872
I01
sS'skewl__BOTTOM__'
p3873
I01
sS'at__ALL__'
p3874
I01
sS'a__ALL__'
p3875
I01
sS'fat__BOTTOM__'
p3876
I01
sS'call__TOP__'
p3877
I01
sS'ginger__BOTTOM__'
p3878
I01
sS'by__ALL__'
p3879
I01
sS'been__ALL__'
p3880
I01
sS'everyon__BOTTOM__'
p3881
I01
sS'skewl__ALL__'
p3882
I01
sS'a__BOTTOM__'
p3883
I01
sS'ive__ALL__'
p3884
I01
sS'ginger__TOP__'
p3885
I01
sS'ginger__ALL__'
p3886
I01
sS'at__BOTTOM__'
p3887
I01
sa(dp3888
S'sick__TOP__'
p3889
I01
sS'her__BOTTOM__'
p3890
I01
sS'call__BOTTOM__'
p3891
I01
sS'she__ALL__'
p3892
I01
sS'i__ALL__'
p3893
I01
sS'an__ALL__'
p3894
I01
sS'an__BOTTOM__'
p3895
I01
sS'call__TOP__'
p3896
I01
sS'i__BOTTOM__'
p3897
I01
sS'she__TOP__'
p3898
I01
sS'her__ALL__'
p3899
I01
sS'me__ALL__'
p3900
I01
sS'me__TOP__'
p3901
I01
sS'call__ALL__'
p3902
I01
sS'ambul__ALL__'
p3903
I01
sS'sick__ALL__'
p3904
I01
sS'ambul__BOTTOM__'
p3905
I01
sa(dp3906
S'jugular__ALL__'
p3907
I01
sS'wa__BOTTOM__'
p3908
I01
sS'.flac__TOP__'
p3909
I01
sS'.flac__ALL__'
p3910
I01
sS'wa__ALL__'
p3911
I01
sS'it__TOP__'
p3912
I01
sS'found__BOTTOM__'
p3913
I01
sS'were__ALL__'
p3914
I01
sS'jugular__BOTTOM__'
p3915
I01
sS'were__TOP__'
p3916
I01
sS'found__ALL__'
p3917
I01
sS'right__BOTTOM__'
p3918
I01
sS'right__ALL__'
p3919
I01
sS'they__TOP__'
p3920
I01
sS'i__ALL__'
p3921
I01
sS'said__ALL__'
p3922
I01
sS'their__ALL__'
p3923
I01
sS'when__ALL__'
p3924
I01
sS'it__ALL__'
p3925
I01
sS'when__TOP__'
p3926
I01
sS'wrong__ALL__'
p3927
I01
sS'they__ALL__'
p3928
I01
sS'wa__TOP__'
p3929
I01
sS'wrong__TOP__'
p3930
I01
sS'said__TOP__'
p3931
I01
sS'i__BOTTOM__'
p3932
I01
sS'their__BOTTOM__'
p3933
I01
sS'when__BOTTOM__'
p3934
I01
sa(dp3935
S'pant__ALL__'
p3936
I01
sS'i__TOP__'
p3937
I01
sS'shit__ALL__'
p3938
I01
sS'good__BOTTOM__'
p3939
I01
sS'my__TOP__'
p3940
I01
sS'my__ALL__'
p3941
I01
sS'feel__ALL__'
p3942
I01
sS'good__ALL__'
p3943
I01
sS'it__BOTTOM__'
p3944
I01
sS'feel__BOTTOM__'
p3945
I01
sS'it__ALL__'
p3946
I01
sS'shit__TOP__'
p3947
I01
sS'i__ALL__'
p3948
I01
sS'pant__TOP__'
p3949
I01
sa(dp3950
S'okey__BOTTOM__'
p3951
I01
sS'they__TOP__'
p3952
I01
sS'said__TOP__'
p3953
I01
sS'said__ALL__'
p3954
I01
sS'ginger__TOP__'
p3955
I01
sS'ginger__ALL__'
p3956
I01
sS'they__ALL__'
p3957
I01
sS'okey__ALL__'
p3958
I01
sa(dp3959
S'want__TOP__'
p3960
I01
sS'becam__BOTTOM__'
p3961
I01
sS'so__ALL__'
p3962
I01
sS'anyth__ALL__'
p3963
I01
sS'me__ALL__'
p3964
I01
sS'jncie__BOTTOM__'
p3965
I01
sS'they__TOP__'
p3966
I01
sS'want__ALL__'
p3967
I01
sS'becam__ALL__'
p3968
I01
sS'3x__BOTTOM__'
p3969
I01
sS'told__ALL__'
p3970
I01
sS'so__BOTTOM__'
p3971
I01
sS'anyth__TOP__'
p3972
I01
sS'me__TOP__'
p3973
I01
sS'jncie__ALL__'
p3974
I01
sS'could__TOP__'
p3975
I01
sS'told__TOP__'
p3976
I01
sS'i__ALL__'
p3977
I01
sS'be__ALL__'
p3978
I01
sS'they__ALL__'
p3979
I01
sS'be__TOP__'
p3980
I01
sS'i__TOP__'
p3981
I01
sS'3x__ALL__'
p3982
I01
sS'i__BOTTOM__'
p3983
I01
sS'could__ALL__'
p3984
I01
sa(dp3985
S'vibrat__ALL__'
p3986
I01
sS'invent__BOTTOM__'
p3987
I01
sS'i__TOP__'
p3988
I01
sS'anyth__ALL__'
p3989
I01
sS'could__TOP__'
p3990
I01
sS'could__ALL__'
p3991
I01
sS'i__ALL__'
p3992
I01
sS'said__TOP__'
p3993
I01
sS'so__BOTTOM__'
p3994
I01
sS'invent__TOP__'
p3995
I01
sS'invent__ALL__'
p3996
I01
sS'anyth__TOP__'
p3997
I01
sS'said__ALL__'
p3998
I01
sS'vibrat__BOTTOM__'
p3999
I01
sS'the__BOTTOM__'
p4000
I01
sS'the__ALL__'
p4001
I01
sS'they__TOP__'
p4002
I01
sS'i__BOTTOM__'
p4003
I01
sS'they__ALL__'
p4004
I01
sS'so__ALL__'
p4005
I01
sa(dp4006
S'.__BOTTOM__'
p4007
I01
sS'.__TOP__'
p4008
I01
sS'thi__TOP__'
p4009
I01
sS'kill__BOTTOM__'
p4010
I01
sS'd:__ALL__'
p4011
I01
sS'thi__ALL__'
p4012
I01
sS'd:__BOTTOM__'
p4013
I01
sS'is__ALL__'
p4014
I01
sS'berni__ALL__'
p4015
I01
sS'.__ALL__'
p4016
I01
sS'is__TOP__'
p4017
I01
sS'will__ALL__'
p4018
I01
sS'he__ALL__'
p4019
I01
sS'you__ALL__'
p4020
I01
sS'you__BOTTOM__'
p4021
I01
sS'kill__ALL__'
p4022
I01
sS'will__BOTTOM__'
p4023
I01
sS'he__BOTTOM__'
p4024
I01
sS'berni__TOP__'
p4025
I01
sa(dp4026
S'dont__ALL__'
p4027
I01
sS'dont__BOTTOM__'
p4028
I01
sS'get__ALL__'
p4029
I01
sS'get__BOTTOM__'
p4030
I01
sS'play__BOTTOM__'
p4031
I01
sS'play__ALL__'
p4032
I01
sS'player__ALL__'
p4033
I01
sS'player__TOP__'
p4034
I01
sa(dp4035
S'12__BOTTOM__'
p4036
I01
sS'i__TOP__'
p4037
I01
sS'anyth__ALL__'
p4038
I01
sS'could__TOP__'
p4039
I01
sS'i__ALL__'
p4040
I01
sS'said__TOP__'
p4041
I01
sS'i__BOTTOM__'
p4042
I01
sS'could__ALL__'
p4043
I01
sS'be__ALL__'
p4044
I01
sS'anyth__TOP__'
p4045
I01
sS'becom__BOTTOM__'
p4046
I01
sS'12__ALL__'
p4047
I01
sS'becom__ALL__'
p4048
I01
sS'they__TOP__'
p4049
I01
sS'said__ALL__'
p4050
I01
sS'they__ALL__'
p4051
I01
sS'be__TOP__'
p4052
I01
sa(dp4053
S'they__TOP__'
p4054
I01
sS'finger__ALL__'
p4055
I01
sS'gone__BOTTOM__'
p4056
I01
sS'wa__BOTTOM__'
p4057
I01
sS'call__TOP__'
p4058
I01
sS'gone__ALL__'
p4059
I01
sS'ginger__TOP__'
p4060
I01
sS'their__ALL__'
p4061
I01
sS'ginger__ALL__'
p4062
I01
sS'me__ALL__'
p4063
I01
sS'me__TOP__'
p4064
I01
sS'wa__ALL__'
p4065
I01
sS'their__BOTTOM__'
p4066
I01
sS'they__ALL__'
p4067
I01
sS'finger__BOTTOM__'
p4068
I01
sS'call__ALL__'
p4069
I01
sa(dp4070
S'to__ALL__'
p4071
I01
sS'a__ALL__'
p4072
I01
sS'born__TOP__'
p4073
I01
sS'to__BOTTOM__'
p4074
I01
sS'a__BOTTOM__'
p4075
I01
sS'star__ALL__'
p4076
I01
sS'born__ALL__'
p4077
I01
sS'be__ALL__'
p4078
I01
sS'be__BOTTOM__'
p4079
I01
sS'star__BOTTOM__'
p4080
I01
sa(dp4081
S'they__TOP__'
p4082
I01
sS'will__ALL__'
p4083
I01
sS'king__BOTTOM__'
p4084
I01
sS'call__BOTTOM__'
p4085
I01
sS'me__BOTTOM__'
p4086
I01
sS'call__TOP__'
p4087
I01
sS'kid__TOP__'
p4088
I01
sS'me__ALL__'
p4089
I01
sS'me__TOP__'
p4090
I01
sS'they__BOTTOM__'
p4091
I01
sS'call__ALL__'
p4092
I01
sS'will__BOTTOM__'
p4093
I01
sS'they__ALL__'
p4094
I01
sS'king__ALL__'
p4095
I01
sS'kid__ALL__'
p4096
I01
sa(dp4097
S'cri__ALL__'
p4098
I01
sS'cri__TOP__'
p4099
I01
sS'hear__TOP__'
p4100
I01
sS'the__TOP__'
p4101
I01
sS'my__BOTTOM__'
p4102
I01
sS'song__ALL__'
p4103
I01
sS'song__BOTTOM__'
p4104
I01
sS'death__ALL__'
p4105
I01
sS'flute__BOTTOM__'
p4106
I01
sS'death__BOTTOM__'
p4107
I01
sS'apocolyps__TOP__'
p4108
I01
sS'of__ALL__'
p4109
I01
sS'they__TOP__'
p4110
I01
sS'play__ALL__'
p4111
I01
sS'that__ALL__'
p4112
I01
sS'that__BOTTOM__'
p4113
I01
sS'of__TOP__'
p4114
I01
sS'they__ALL__'
p4115
I01
sS'wail__TOP__'
p4116
I01
sS'flute__ALL__'
p4117
I01
sS'apocolyps__ALL__'
p4118
I01
sS'my__ALL__'
p4119
I01
sS'wail__ALL__'
p4120
I01
sS'the__ALL__'
p4121
I01
sS'the__BOTTOM__'
p4122
I01
sS'hear__ALL__'
p4123
I01
sS'play__BOTTOM__'
p4124
I01
sa(dp4125
S'chair__ALL__'
p4126
I01
sS'.__ALL__'
p4127
I01
sS'becam__BOTTOM__'
p4128
I01
sS'so__ALL__'
p4129
I01
sS'anyth__ALL__'
p4130
I01
sS'me__ALL__'
p4131
I01
sS'they__TOP__'
p4132
I01
sS'becam__ALL__'
p4133
I01
sS'a__ALL__'
p4134
I01
sS'told__ALL__'
p4135
I01
sS'so__BOTTOM__'
p4136
I01
sS'anyth__TOP__'
p4137
I01
sS'me__TOP__'
p4138
I01
sS'chair__BOTTOM__'
p4139
I01
sS'could__TOP__'
p4140
I01
sS'told__TOP__'
p4141
I01
sS'i__ALL__'
p4142
I01
sS'be__ALL__'
p4143
I01
sS'they__ALL__'
p4144
I01
sS'be__TOP__'
p4145
I01
sS'i__TOP__'
p4146
I01
sS'a__BOTTOM__'
p4147
I01
sS'i__BOTTOM__'
p4148
I01
sS'could__ALL__'
p4149
I01
sS'.__TOP__'
p4150
I01
sa(dp4151
S'cant__TOP__'
p4152
I01
sS'n900__ALL__'
p4153
I01
sS'now__ALL__'
p4154
I01
sS'on__ALL__'
p4155
I01
sS'n900__TOP__'
p4156
I01
sS'on__TOP__'
p4157
I01
sS'they__TOP__'
p4158
I01
sS'i__ALL__'
p4159
I01
sS'are__BOTTOM__'
p4160
I01
sS'said__ALL__'
p4161
I01
sS'six__ALL__'
p4162
I01
sS'symbian^3__ALL__'
p4163
I01
sS'under__BOTTOM__'
p4164
I01
sS'port__ALL__'
p4165
I01
sS'feet__BOTTOM__'
p4166
I01
sS'they__ALL__'
p4167
I01
sS'i__TOP__'
p4168
I01
sS'cant__ALL__'
p4169
I01
sS'are__ALL__'
p4170
I01
sS'said__TOP__'
p4171
I01
sS'now__BOTTOM__'
p4172
I01
sS'symbian^3__TOP__'
p4173
I01
sS'port__TOP__'
p4174
I01
sS'feet__ALL__'
p4175
I01
sS'they__BOTTOM__'
p4176
I01
sS'under__ALL__'
p4177
I01
sS'six__BOTTOM__'
p4178
I01
sa(dp4179
S'they__TOP__'
p4180
I01
sS'said__TOP__'
p4181
I01
sS'fuckfac__TOP__'
p4182
I01
sS'said__ALL__'
p4183
I01
sS'no__BOTTOM__'
p4184
I01
sS'fuckfac__ALL__'
p4185
I01
sS'they__ALL__'
p4186
I01
sS'no__ALL__'
p4187
I01
sa(dp4188
S'kid__BOTTOM__'
p4189
I01
sS':__BOTTOM__'
p4190
I01
sS':__ALL__'
p4191
I01
sS')__ALL__'
p4192
I01
sS'found__BOTTOM__'
p4193
I01
sS'd__ALL__'
p4194
I01
sS'from__ALL__'
p4195
I01
sS'd__BOTTOM__'
p4196
I01
sS')__BOTTOM__'
p4197
I01
sS'(__ALL__'
p4198
I01
sS'from__BOTTOM__'
p4199
I01
sS'as__ALL__'
p4200
I01
sS'found__ALL__'
p4201
I01
sS'austin__BOTTOM__'
p4202
I01
sS'austin__ALL__'
p4203
I01
sS'i__ALL__'
p4204
I01
sS'a__ALL__'
p4205
I01
sS'you__ALL__'
p4206
I01
sS'derek__ALL__'
p4207
I01
sS'you__BOTTOM__'
p4208
I01
sS'kid__ALL__'
p4209
I01
sS'as__BOTTOM__'
p4210
I01
sS'a__BOTTOM__'
p4211
I01
sS'i__BOTTOM__'
p4212
I01
sS'(__BOTTOM__'
p4213
I01
sS'derek__TOP__'
p4214
I01
sa(dp4215
S'theyd__TOP__'
p4216
I01
sS'charg__ALL__'
p4217
I01
sS'me__ALL__'
p4218
I01
sS'theyd__ALL__'
p4219
I01
sS'charg__TOP__'
p4220
I01
sS'meat__ALL__'
p4221
I01
sS'a__ALL__'
p4222
I01
sS'told__ALL__'
p4223
I01
sS'me__TOP__'
p4224
I01
sS'face__ALL__'
p4225
I01
sS'face__BOTTOM__'
p4226
I01
sS'into__ALL__'
p4227
I01
sS'they__TOP__'
p4228
I01
sS'told__TOP__'
p4229
I01
sS'i__ALL__'
p4230
I01
sS'their__ALL__'
p4231
I01
sS'grinder__BOTTOM__'
p4232
I01
sS'press__TOP__'
p4233
I01
sS'they__ALL__'
p4234
I01
sS'meat__BOTTOM__'
p4235
I01
sS'into__BOTTOM__'
p4236
I01
sS'a__BOTTOM__'
p4237
I01
sS'i__BOTTOM__'
p4238
I01
sS'press__ALL__'
p4239
I01
sS'grinder__ALL__'
p4240
I01
sS'their__BOTTOM__'
p4241
I01
sS'press__BOTTOM__'
p4242
I01
sa(dp4243
S'all__ALL__'
p4244
I01
sS'world__BOTTOM__'
p4245
I01
sS'flush__TOP__'
p4246
I01
sS'want__TOP__'
p4247
I01
sS'they__TOP__'
p4248
I01
sS'flush__ALL__'
p4249
I01
sS'want__ALL__'
p4250
I01
sS'flush__BOTTOM__'
p4251
I01
sS'could__TOP__'
p4252
I01
sS'until__ALL__'
p4253
I01
sS'i__ALL__'
p4254
I01
sS'until__BOTTOM__'
p4255
I01
sS'said__ALL__'
p4256
I01
sS'world__ALL__'
p4257
I01
sS'they__ALL__'
p4258
I01
sS'i__TOP__'
p4259
I01
sS'all__TOP__'
p4260
I01
sS'said__TOP__'
p4261
I01
sS'i__BOTTOM__'
p4262
I01
sS'could__ALL__'
p4263
I01
sS'the__ALL__'
p4264
I01
sS'the__BOTTOM__'
p4265
I01
sa(dp4266
S'yeah__TOP__'
p4267
I01
sS'carpet__BOTTOM__'
p4268
I01
sS'bitch__TOP__'
p4269
I01
sS'match__ALL__'
p4270
I01
sS'match__BOTTOM__'
p4271
I01
sS'doe__ALL__'
p4272
I01
sS'doe__BOTTOM__'
p4273
I01
sS'yeah__ALL__'
p4274
I01
sS'the__ALL__'
p4275
I01
sS'the__BOTTOM__'
p4276
I01
sS'drape__ALL__'
p4277
I01
sS'drape__BOTTOM__'
p4278
I01
sS'bitch__ALL__'
p4279
I01
sS'carpet__ALL__'
p4280
I01
sa(dp4281
S'.__BOTTOM__'
p4282
I01
sS'look__BOTTOM__'
p4283
I01
sS'i__TOP__'
p4284
I01
sS'cool__ALL__'
p4285
I01
sS'they__TOP__'
p4286
I01
sS'cool__TOP__'
p4287
I01
sS'look__TOP__'
p4288
I01
sS'i__ALL__'
p4289
I01
sS'said__TOP__'
p4290
I01
sS'now__BOTTOM__'
p4291
I01
sS'dont__BOTTOM__'
p4292
I01
sS'said__ALL__'
p4293
I01
sS'now__ALL__'
p4294
I01
sS'.__ALL__'
p4295
I01
sS'didnt__TOP__'
p4296
I01
sS'they__BOTTOM__'
p4297
I01
sS'dont__ALL__'
p4298
I01
sS'they__ALL__'
p4299
I01
sS'look__ALL__'
p4300
I01
sS'didnt__ALL__'
p4301
I01
sa(dp4302
S'but__ALL__'
p4303
I01
sS'about__ALL__'
p4304
I01
sS'neck__TOP__'
p4305
I01
sS'injuri__TOP__'
p4306
I01
sS'me__ALL__'
p4307
I01
sS'and__ALL__'
p4308
I01
sS'idc__BOTTOM__'
p4309
I01
sS'and__TOP__'
p4310
I01
sS'neck__ALL__'
p4311
I01
sS'injuri__ALL__'
p4312
I01
sS'aj__ALL__'
p4313
I01
sS'about__TOP__'
p4314
I01
sS'but__BOTTOM__'
p4315
I01
sS'me__TOP__'
p4316
I01
sS'aj__TOP__'
p4317
I01
sS'teas__TOP__'
p4318
I01
sS'teas__ALL__'
p4319
I01
sS'my__TOP__'
p4320
I01
sS'idc__ALL__'
p4321
I01
sS'my__ALL__'
p4322
I01
sS'alex__ALL__'
p4323
I01
sS'alex__TOP__'
p4324
I01
sa(dp4325
S'.__BOTTOM__'
p4326
I01
sS'look__BOTTOM__'
p4327
I01
sS'i__TOP__'
p4328
I01
sS'cool__ALL__'
p4329
I01
sS'they__TOP__'
p4330
I01
sS'cool__TOP__'
p4331
I01
sS'look__TOP__'
p4332
I01
sS'i__ALL__'
p4333
I01
sS'said__TOP__'
p4334
I01
sS'now__BOTTOM__'
p4335
I01
sS'dont__BOTTOM__'
p4336
I01
sS'said__ALL__'
p4337
I01
sS'now__ALL__'
p4338
I01
sS'.__ALL__'
p4339
I01
sS'they__BOTTOM__'
p4340
I01
sS'dont__ALL__'
p4341
I01
sS'they__ALL__'
p4342
I01
sS'look__ALL__'
p4343
I01
sa(dp4344
S'clarinet__TOP__'
p4345
I01
sS'.__BOTTOM__'
p4346
I01
sS'help__BOTTOM__'
p4347
I01
sS'.__ALL__'
p4348
I01
sS'help__ALL__'
p4349
I01
sS'cri__BOTTOM__'
p4350
I01
sS'hear__TOP__'
p4351
I01
sS'and__ALL__'
p4352
I01
sS'cri__ALL__'
p4353
I01
sS'didnt__TOP__'
p4354
I01
sS'clarinet__ALL__'
p4355
I01
sS'and__TOP__'
p4356
I01
sS'come__ALL__'
p4357
I01
sS'for__BOTTOM__'
p4358
I01
sS'come__TOP__'
p4359
I01
sS'hear__BOTTOM__'
p4360
I01
sS'for__ALL__'
p4361
I01
sS'they__TOP__'
p4362
I01
sS'i__ALL__'
p4363
I01
sS'their__ALL__'
p4364
I01
sS'recit__TOP__'
p4365
I01
sS'they__ALL__'
p4366
I01
sS'hear__ALL__'
p4367
I01
sS'.__TOP__'
p4368
I01
sS'recit__ALL__'
p4369
I01
sS'my__TOP__'
p4370
I01
sS'i__BOTTOM__'
p4371
I01
sS'my__ALL__'
p4372
I01
sS'their__BOTTOM__'
p4373
I01
sS'didnt__BOTTOM__'
p4374
I01
sS'didnt__ALL__'
p4375
I01
sa(dp4376
S'to__BOTTOM__'
p4377
I01
sS'weight__BOTTOM__'
p4378
I01
sS'in__ALL__'
p4379
I01
sS'could__BOTTOM__'
p4380
I01
sS'realli__BOTTOM__'
p4381
I01
sS'band__BOTTOM__'
p4382
I01
sS'onli__ALL__'
p4383
I01
sS'if__TOP__'
p4384
I01
sS'a__ALL__'
p4385
I01
sS'lose__ALL__'
p4386
I01
sS'realli__ALL__'
p4387
I01
sS'if__ALL__'
p4388
I01
sS'onli__TOP__'
p4389
I01
sS'march__BOTTOM__'
p4390
I01
sS'lose__BOTTOM__'
p4391
I01
sS'march__ALL__'
p4392
I01
sS'i__ALL__'
p4393
I01
sS'weight__ALL__'
p4394
I01
sS'band__ALL__'
p4395
I01
sS'enough__ALL__'
p4396
I01
sS'be__ALL__'
p4397
I01
sS'in__BOTTOM__'
p4398
I01
sS'be__BOTTOM__'
p4399
I01
sS'to__ALL__'
p4400
I01
sS'enough__BOTTOM__'
p4401
I01
sS'a__BOTTOM__'
p4402
I01
sS'i__BOTTOM__'
p4403
I01
sS'could__ALL__'
p4404
I01
sa(dp4405
S'problem__BOTTOM__'
p4406
I01
sS'to__BOTTOM__'
p4407
I01
sS'a__TOP__'
p4408
I01
sS'me__ALL__'
p4409
I01
sS'the__TOP__'
p4410
I01
sS'theyll__BOTTOM__'
p4411
I01
sS'call__ALL__'
p4412
I01
sS'have__ALL__'
p4413
I01
sS'or__BOTTOM__'
p4414
I01
sS'or__ALL__'
p4415
I01
sS'told__ALL__'
p4416
I01
sS'call__TOP__'
p4417
I01
sS'metalhead__ALL__'
p4418
I01
sS'me__TOP__'
p4419
I01
sS'have__BOTTOM__'
p4420
I01
sS'theyll__ALL__'
p4421
I01
sS'until__ALL__'
p4422
I01
sS'i__ALL__'
p4423
I01
sS'told__BOTTOM__'
p4424
I01
sS'stfu__BOTTOM__'
p4425
I01
sS'until__BOTTOM__'
p4426
I01
sS'problem__ALL__'
p4427
I01
sS'them__ALL__'
p4428
I01
sS'metalhead__TOP__'
p4429
I01
sS'to__ALL__'
p4430
I01
sS'stfu__ALL__'
p4431
I01
sS'i__BOTTOM__'
p4432
I01
sS'a__ALL__'
p4433
I01
sS'the__ALL__'
p4434
I01
sS'them__BOTTOM__'
p4435
I01
sa(dp4436
S'friend__ALL__'
p4437
I01
sS'gay__BOTTOM__'
p4438
I01
sS'anthoni__ALL__'
p4439
I01
sS'porta__TOP__'
p4440
I01
sS'anthoni__TOP__'
p4441
I01
sS'friend__BOTTOM__'
p4442
I01
sS'porta__ALL__'
p4443
I01
sS'la__TOP__'
p4444
I01
sS'gay__ALL__'
p4445
I01
sS'la__ALL__'
p4446
I01
sa(dp4447
S'those__TOP__'
p4448
I01
sS'or__BOTTOM__'
p4449
I01
sS'piper__BOTTOM__'
p4450
I01
sS'or__ALL__'
p4451
I01
sS'piper__ALL__'
p4452
I01
sS'those__ALL__'
p4453
I01
sS'call__TOP__'
p4454
I01
sS'take__ALL__'
p4455
I01
sS'pay__BOTTOM__'
p4456
I01
sS'pay__ALL__'
p4457
I01
sS'the__BOTTOM__'
p4458
I01
sS'the__ALL__'
p4459
I01
sS'take__TOP__'
p4460
I01
sS'call__ALL__'
p4461
I01
sa(dp4462
S'i__TOP__'
p4463
I01
sS'peopl__ALL__'
p4464
I01
sS'i__ALL__'
p4465
I01
sS'see__ALL__'
p4466
I01
sS'dead__BOTTOM__'
p4467
I01
sS'peopl__BOTTOM__'
p4468
I01
sS'dead__ALL__'
p4469
I01
sS'see__TOP__'
p4470
I01
sa(dp4471
S'they__TOP__'
p4472
I01
sS'call__BOTTOM__'
p4473
I01
sS'i__ALL__'
p4474
I01
sS'fat__TOP__'
p4475
I01
sS'call__TOP__'
p4476
I01
sS'i__BOTTOM__'
p4477
I01
sS'dead__BOTTOM__'
p4478
I01
sS'dead__ALL__'
p4479
I01
sS'me__ALL__'
p4480
I01
sS'me__TOP__'
p4481
I01
sS'them__ALL__'
p4482
I01
sS'fat__ALL__'
p4483
I01
sS'call__ALL__'
p4484
I01
sS'they__ALL__'
p4485
I01
sS'them__BOTTOM__'
p4486
I01
sa(dp4487
S'artilleri__ALL__'
p4488
I01
sS'now__BOTTOM__'
p4489
I01
sS'in__ALL__'
p4490
I01
sS'fire__ALL__'
p4491
I01
sS'learn__TOP__'
p4492
I01
sS'artilleri__BOTTOM__'
p4493
I01
sS'band__TOP__'
p4494
I01
sS'expert__BOTTOM__'
p4495
I01
sS'expert__ALL__'
p4496
I01
sS'march__TOP__'
p4497
I01
sS'on__ALL__'
p4498
I01
sS'learn__ALL__'
p4499
I01
sS'march__ALL__'
p4500
I01
sS'an__ALL__'
p4501
I01
sS'i__ALL__'
p4502
I01
sS'band__ALL__'
p4503
I01
sS'im__BOTTOM__'
p4504
I01
sS'now__ALL__'
p4505
I01
sS'to__ALL__'
p4506
I01
sS'i__TOP__'
p4507
I01
sS'in__TOP__'
p4508
I01
sS'im__ALL__'
p4509
I01
sS'an__BOTTOM__'
p4510
I01
sS'to__TOP__'
p4511
I01
sS'fire__BOTTOM__'
p4512
I01
sS'on__BOTTOM__'
p4513
I01
sa(dp4514
S'srvik__BOTTOM__'
p4515
I01
sS'!__ALL__'
p4516
I01
sS'by__ALL__'
p4517
I01
sS'!__BOTTOM__'
p4518
I01
sS'srvik__ALL__'
p4519
I01
sS'by__TOP__'
p4520
I01
sS'troll__TOP__'
p4521
I01
sS'kent__BOTTOM__'
p4522
I01
sS'troll__ALL__'
p4523
I01
sS'kent__ALL__'
p4524
I01
sa(dp4525
S'alien__TOP__'
p4526
I01
sS'talk__ALL__'
p4527
I01
sS'about__ALL__'
p4528
I01
sS'alien__ALL__'
p4529
I01
sS'about__TOP__'
p4530
I01
sS'i__BOTTOM__'
p4531
I01
sS'salamand__ALL__'
p4532
I01
sS'and__ALL__'
p4533
I01
sS'kid__TOP__'
p4534
I01
sS'other__TOP__'
p4535
I01
sS'salamand__TOP__'
p4536
I01
sS'other__ALL__'
p4537
I01
sS'talk__TOP__'
p4538
I01
sS'i__ALL__'
p4539
I01
sS'and__TOP__'
p4540
I01
sS'kid__ALL__'
p4541
I01
sa(dp4542
S'!__ALL__'
p4543
I01
sS'!__BOTTOM__'
p4544
I01
sS'good__BOTTOM__'
p4545
I01
sS'me__ALL__'
p4546
I01
sS'tyler__ALL__'
p4547
I01
sS'job__ALL__'
p4548
I01
sS'job__BOTTOM__'
p4549
I01
sS'for__TOP__'
p4550
I01
sS'gank__ALL__'
p4551
I01
sS'me__TOP__'
p4552
I01
sS'tyler__TOP__'
p4553
I01
sS'good__ALL__'
p4554
I01
sS'for__ALL__'
p4555
I01
sS'gank__TOP__'
p4556
I01
sa(dp4557
S'all__ALL__'
p4558
I01
sS'all__BOTTOM__'
p4559
I01
sS'kill__BOTTOM__'
p4560
I01
sS'ill__ALL__'
p4561
I01
sS'ill__BOTTOM__'
p4562
I01
sS'omg__TOP__'
p4563
I01
sS'omg__ALL__'
p4564
I01
sS'of__ALL__'
p4565
I01
sS'fuck__ALL__'
p4566
I01
sS'you__ALL__'
p4567
I01
sS'you__BOTTOM__'
p4568
I01
sS'kill__ALL__'
p4569
I01
sS'fuck__BOTTOM__'
p4570
I01
sS'of__BOTTOM__'
p4571
I01
sa(dp4572
S'cake__BOTTOM__'
p4573
I01
sS'and__ALL__'
p4574
I01
sS'never__ALL__'
p4575
I01
sS'boob__TOP__'
p4576
I01
sS'drown__BOTTOM__'
p4577
I01
sS'sorrow__BOTTOM__'
p4578
I01
sS'pokemon__ALL__'
p4579
I01
sS'drown__ALL__'
p4580
I01
sS'boob__ALL__'
p4581
I01
sS'sorrow__ALL__'
p4582
I01
sS'touch__ALL__'
p4583
I01
sS'pokemon__BOTTOM__'
p4584
I01
sS'in__BOTTOM__'
p4585
I01
sS'will__ALL__'
p4586
I01
sS'and__BOTTOM__'
p4587
I01
sS'will__TOP__'
p4588
I01
sS'in__ALL__'
p4589
I01
sS'touch__TOP__'
p4590
I01
sS'cake__ALL__'
p4591
I01
sS'never__TOP__'
p4592
I01
sa(dp4593
S'dont__ALL__'
p4594
I01
sS'i__TOP__'
p4595
I01
sS'mikena__TOP__'
p4596
I01
sS'even__ALL__'
p4597
I01
sS'care__TOP__'
p4598
I01
sS'dont__TOP__'
p4599
I01
sS'even__TOP__'
p4600
I01
sS'me__BOTTOM__'
p4601
I01
sS'care__ALL__'
p4602
I01
sS'miss__ALL__'
p4603
I01
sS'me__ALL__'
p4604
I01
sS'miss__BOTTOM__'
p4605
I01
sS'mikena__ALL__'
p4606
I01
sS'that__ALL__'
p4607
I01
sS'that__BOTTOM__'
p4608
I01
sS'you__ALL__'
p4609
I01
sS'you__BOTTOM__'
p4610
I01
sS'i__ALL__'
p4611
I01
sa(dp4612
S'hold__BOTTOM__'
p4613
I01
sS'there__BOTTOM__'
p4614
I01
sS'when__TOP__'
p4615
I01
sS'there__ALL__'
p4616
I01
sS'in__ALL__'
p4617
I01
sS'know__TOP__'
p4618
I01
sS'a__ALL__'
p4619
I01
sS'instrument__ALL__'
p4620
I01
sS'an__ALL__'
p4621
I01
sS'know__ALL__'
p4622
I01
sS'you__ALL__'
p4623
I01
sS'you__BOTTOM__'
p4624
I01
sS'pictur__BOTTOM__'
p4625
I01
sS'of__BOTTOM__'
p4626
I01
sS'hold__ALL__'
p4627
I01
sS'you__TOP__'
p4628
I01
sS'when__ALL__'
p4629
I01
sS'in__BOTTOM__'
p4630
I01
sS'instrument__BOTTOM__'
p4631
I01
sS'of__ALL__'
p4632
I01
sS'badass__ALL__'
p4633
I01
sS'your__ALL__'
p4634
I01
sS'a__BOTTOM__'
p4635
I01
sS'pictur__ALL__'
p4636
I01
sS'an__BOTTOM__'
p4637
I01
sS'your__TOP__'
p4638
I01
sS'badass__TOP__'
p4639
I01
sa(dp4640
S'do__BOTTOM__'
p4641
I01
sS'do__ALL__'
p4642
I01
sS'never__BOTTOM__'
p4643
I01
sS'me__TOP__'
p4644
I01
sS'com__ALL__'
p4645
I01
sS'never__ALL__'
p4646
I01
sS'she__ALL__'
p4647
I01
sS'hear__TOP__'
p4648
I01
sS'she__TOP__'
p4649
I01
sS'com__TOP__'
p4650
I01
sS'me__ALL__'
p4651
I01
sS'didnt__TOP__'
p4652
I01
sS'they__BOTTOM__'
p4653
I01
sS'hear__ALL__'
p4654
I01
sS'they__ALL__'
p4655
I01
sS'didnt__ALL__'
p4656
I01
sa(dp4657
S'.__BOTTOM__'
p4658
I01
sS'to__ALL__'
p4659
I01
sS'i__TOP__'
p4660
I01
sS'.__ALL__'
p4661
I01
sS'go__ALL__'
p4662
I01
sS'highschool__ALL__'
p4663
I01
sS'cn__TOP__'
p4664
I01
sS'i__ALL__'
p4665
I01
sS'cool__ALL__'
p4666
I01
sS'cool__BOTTOM__'
p4667
I01
sS'to__TOP__'
p4668
I01
sS'im__BOTTOM__'
p4669
I01
sS'highschool__TOP__'
p4670
I01
sS'im__ALL__'
p4671
I01
sS'go__TOP__'
p4672
I01
sS'cn__ALL__'
p4673
I01
sa(dp4674
S'becam__ALL__'
p4675
I01
sS'i__TOP__'
p4676
I01
sS'anyth__ALL__'
p4677
I01
sS'could__TOP__'
p4678
I01
sS'board__BOTTOM__'
p4679
I01
sS'becam__BOTTOM__'
p4680
I01
sS'a__BOTTOM__'
p4681
I01
sS'game__ALL__'
p4682
I01
sS'i__ALL__'
p4683
I01
sS'said__TOP__'
p4684
I01
sS'game__BOTTOM__'
p4685
I01
sS'said__ALL__'
p4686
I01
sS'could__ALL__'
p4687
I01
sS'be__ALL__'
p4688
I01
sS'anyth__TOP__'
p4689
I01
sS'board__ALL__'
p4690
I01
sS'a__ALL__'
p4691
I01
sS'be__TOP__'
p4692
I01
sa(dp4693
S'a__TOP__'
p4694
I01
sS'grow__ALL__'
p4695
I01
sS'a__ALL__'
p4696
I01
sS'everybodi__BOTTOM__'
p4697
I01
sS'grow__TOP__'
p4698
I01
sS'kill__ALL__'
p4699
I01
sS'everybodi__TOP__'
p4700
I01
sS'up__TOP__'
p4701
I01
sS'i__ALL__'
p4702
I01
sS'everybodi__ALL__'
p4703
I01
sS'said__ALL__'
p4704
I01
sS'be__ALL__'
p4705
I01
sS'nobodi__TOP__'
p4706
I01
sS'be__TOP__'
p4707
I01
sS'to__ALL__'
p4708
I01
sS'i__TOP__'
p4709
I01
sS'kill__BOTTOM__'
p4710
I01
sS'said__TOP__'
p4711
I01
sS'to__TOP__'
p4712
I01
sS'i__BOTTOM__'
p4713
I01
sS'nobodi__ALL__'
p4714
I01
sS'would__ALL__'
p4715
I01
sS'up__ALL__'
p4716
I01
sS'would__TOP__'
p4717
I01
sa(dp4718
S'daili__TOP__'
p4719
I01
sS'snatch__TOP__'
p4720
I01
sS'daili__ALL__'
p4721
I01
sS'snatch__ALL__'
p4722
I01
sS'pullin__TOP__'
p4723
I01
sS'pullin__ALL__'
p4724
I01
sS'sinc__ALL__'
p4725
I01
sS'sinc__BOTTOM__'
p4726
I01
sS'99__BOTTOM__'
p4727
I01
sS'99__ALL__'
p4728
I01
sa(dp4729
S'quicker__ALL__'
p4730
I01
sS'wa__BOTTOM__'
p4731
I01
sS'so__ALL__'
p4732
I01
sS'bad__ALL__'
p4733
I01
sS'my__BOTTOM__'
p4734
I01
sS'were__ALL__'
p4735
I01
sS'knife__ALL__'
p4736
I01
sS'were__TOP__'
p4737
I01
sS'so__TOP__'
p4738
I01
sS'you__ALL__'
p4739
I01
sS'quick__TOP__'
p4740
I01
sS'alway__TOP__'
p4741
I01
sS'wa__ALL__'
p4742
I01
sS'too__ALL__'
p4743
I01
sS'knife__BOTTOM__'
p4744
I01
sS'you__TOP__'
p4745
I01
sS'alway__ALL__'
p4746
I01
sS'quick__ALL__'
p4747
I01
sS'quicker__BOTTOM__'
p4748
I01
sS'too__BOTTOM__'
p4749
I01
sS'bad__BOTTOM__'
p4750
I01
sS'my__ALL__'
p4751
I01
sa(dp4752
S'pauli__ALL__'
p4753
I01
sS'pauli__TOP__'
p4754
I01
sS'hero__ALL__'
p4755
I01
sS'my__BOTTOM__'
p4756
I01
sS'my__ALL__'
p4757
I01
sS'hero__BOTTOM__'
p4758
I01
sS'your__ALL__'
p4759
I01
sS'your__BOTTOM__'
p4760
I01
sa(dp4761
S'pauli__ALL__'
p4762
I01
sS'pauli__TOP__'
p4763
I01
sS'hero__ALL__'
p4764
I01
sS'my__BOTTOM__'
p4765
I01
sS'my__ALL__'
p4766
I01
sS'hero__BOTTOM__'
p4767
I01
sS'your__ALL__'
p4768
I01
sS'your__BOTTOM__'
p4769
I01
sa(dp4770
S'come__ALL__'
p4771
I01
sS'come__TOP__'
p4772
I01
sS'bro__BOTTOM__'
p4773
I01
sS'me__BOTTOM__'
p4774
I01
sS'bro__ALL__'
p4775
I01
sS'me__ALL__'
p4776
I01
sS'at__BOTTOM__'
p4777
I01
sS'at__ALL__'
p4778
I01
sa(dp4779
S'clarinet__TOP__'
p4780
I01
sS'to__BOTTOM__'
p4781
I01
sS'the__TOP__'
p4782
I01
sS'and__ALL__'
p4783
I01
sS'clarinet__ALL__'
p4784
I01
sS'and__TOP__'
p4785
I01
sS'until__ALL__'
p4786
I01
sS'play__TOP__'
p4787
I01
sS'arrow__ALL__'
p4788
I01
sS'i__ALL__'
p4789
I01
sS'knee__ALL__'
p4790
I01
sS'arrow__BOTTOM__'
p4791
I01
sS'an__ALL__'
p4792
I01
sS'use__TOP__'
p4793
I01
sS'took__BOTTOM__'
p4794
I01
sS'until__BOTTOM__'
p4795
I01
sS'play__ALL__'
p4796
I01
sS'smile__ALL__'
p4797
I01
sS'use__ALL__'
p4798
I01
sS'to__ALL__'
p4799
I01
sS'i__TOP__'
p4800
I01
sS'took__ALL__'
p4801
I01
sS'an__BOTTOM__'
p4802
I01
sS'to__TOP__'
p4803
I01
sS'i__BOTTOM__'
p4804
I01
sS'smile__TOP__'
p4805
I01
sS'the__ALL__'
p4806
I01
sS'the__BOTTOM__'
p4807
I01
sS'knee__BOTTOM__'
p4808
I01
sa(dp4809
S'want__TOP__'
p4810
I01
sS'said__BOTTOM__'
p4811
I01
sS'presid__ALL__'
p4812
I01
sS'have__ALL__'
p4813
I01
sS'a__ALL__'
p4814
I01
sS'want__ALL__'
p4815
I01
sS'have__BOTTOM__'
p4816
I01
sS'presid__TOP__'
p4817
I01
sS'soul__ALL__'
p4818
I01
sS'i__ALL__'
p4819
I01
sS'said__ALL__'
p4820
I01
sS'be__ALL__'
p4821
I01
sS'they__ALL__'
p4822
I01
sS'be__TOP__'
p4823
I01
sS'to__ALL__'
p4824
I01
sS'a__BOTTOM__'
p4825
I01
sS'soul__BOTTOM__'
p4826
I01
sS'to__TOP__'
p4827
I01
sS'i__BOTTOM__'
p4828
I01
sS'they__BOTTOM__'
p4829
I01
sS'didnt__BOTTOM__'
p4830
I01
sS'didnt__ALL__'
p4831
I01
sa(dp4832
S'man__BOTTOM__'
p4833
I01
sS'becam__BOTTOM__'
p4834
I01
sS'can__ALL__'
p4835
I01
sS'so__ALL__'
p4836
I01
sS'anyth__ALL__'
p4837
I01
sS'me__ALL__'
p4838
I01
sS'and__ALL__'
p4839
I01
sS'went__BOTTOM__'
p4840
I01
sS'and__BOTTOM__'
p4841
I01
sS'becam__ALL__'
p4842
I01
sS'a__ALL__'
p4843
I01
sS'clairinet__ALL__'
p4844
I01
sS'told__ALL__'
p4845
I01
sS'so__BOTTOM__'
p4846
I01
sS'can__TOP__'
p4847
I01
sS'anyth__TOP__'
p4848
I01
sS'home__ALL__'
p4849
I01
sS'me__TOP__'
p4850
I01
sS'home__BOTTOM__'
p4851
I01
sS'they__TOP__'
p4852
I01
sS'told__TOP__'
p4853
I01
sS'i__ALL__'
p4854
I01
sS'clairinet__BOTTOM__'
p4855
I01
sS'be__ALL__'
p4856
I01
sS'they__ALL__'
p4857
I01
sS'be__TOP__'
p4858
I01
sS'man__ALL__'
p4859
I01
sS'i__TOP__'
p4860
I01
sS'a__BOTTOM__'
p4861
I01
sS'i__BOTTOM__'
p4862
I01
sS'went__ALL__'
p4863
I01
sa(dp4864
S'into__ALL__'
p4865
I01
sS'space__ALL__'
p4866
I01
sS'they__TOP__'
p4867
I01
sS'into__BOTTOM__'
p4868
I01
sS'stare__BOTTOM__'
p4869
I01
sS'space__BOTTOM__'
p4870
I01
sS'akwardli__ALL__'
p4871
I01
sS'me__ALL__'
p4872
I01
sS'anger__ALL__'
p4873
I01
sS'me__TOP__'
p4874
I01
sS'akwardli__BOTTOM__'
p4875
I01
sS'anger__TOP__'
p4876
I01
sS'they__ALL__'
p4877
I01
sS'stare__ALL__'
p4878
I01
sa(dp4879
S'that__ALL__'
p4880
I01
sS'alreadi__BOTTOM__'
p4881
I01
sS'my__TOP__'
p4882
I01
sS'im__BOTTOM__'
p4883
I01
sS'my__ALL__'
p4884
I01
sS'alreadi__ALL__'
p4885
I01
sS'that__BOTTOM__'
p4886
I01
sS'dreams..__TOP__'
p4887
I01
sS'dreams..__ALL__'
p4888
I01
sS'im__ALL__'
p4889
I01
sa(dp4890
S'make__ALL__'
p4891
I01
sS'all__BOTTOM__'
p4892
I01
sS'got__BOTTOM__'
p4893
I01
sS'got__ALL__'
p4894
I01
sS'fun__TOP__'
p4895
I01
sS'dont__ALL__'
p4896
I01
sS'care__ALL__'
p4897
I01
sS'me__ALL__'
p4898
I01
sS'most__BOTTOM__'
p4899
I01
sS'if__TOP__'
p4900
I01
sS'care__TOP__'
p4901
I01
sS'me__TOP__'
p4902
I01
sS'if__ALL__'
p4903
I01
sS'you__ALL__'
p4904
I01
sS'of__ALL__'
p4905
I01
sS'of__BOTTOM__'
p4906
I01
sS'i__ALL__'
p4907
I01
sS'most__ALL__'
p4908
I01
sS'you__TOP__'
p4909
I01
sS'the__ALL__'
p4910
I01
sS'of__TOP__'
p4911
I01
sS'mat__ALL__'
p4912
I01
sS'i__TOP__'
p4913
I01
sS'dont__TOP__'
p4914
I01
sS'fun__ALL__'
p4915
I01
sS'i__BOTTOM__'
p4916
I01
sS'all__ALL__'
p4917
I01
sS'make__TOP__'
p4918
I01
sS'the__BOTTOM__'
p4919
I01
sS'mat__BOTTOM__'
p4920
I01
sa(dp4921
S'quicker__ALL__'
p4922
I01
sS'so__ALL__'
p4923
I01
sS'bad__ALL__'
p4924
I01
sS'my__BOTTOM__'
p4925
I01
sS'were__ALL__'
p4926
I01
sS'knife__ALL__'
p4927
I01
sS'were__TOP__'
p4928
I01
sS'so__TOP__'
p4929
I01
sS'you__ALL__'
p4930
I01
sS'quick__TOP__'
p4931
I01
sS'alway__TOP__'
p4932
I01
sS'too__ALL__'
p4933
I01
sS'knife__BOTTOM__'
p4934
I01
sS'you__TOP__'
p4935
I01
sS'alway__ALL__'
p4936
I01
sS'quick__ALL__'
p4937
I01
sS'quicker__BOTTOM__'
p4938
I01
sS'is__BOTTOM__'
p4939
I01
sS'too__BOTTOM__'
p4940
I01
sS'is__ALL__'
p4941
I01
sS'bad__BOTTOM__'
p4942
I01
sS'my__ALL__'
p4943
I01
sa(dp4944
S'make__ALL__'
p4945
I01
sS'like__ALL__'
p4946
I01
sS'danc__ALL__'
p4947
I01
sS'make__BOTTOM__'
p4948
I01
sS'nigga__TOP__'
p4949
I01
sS'like__TOP__'
p4950
I01
sS'band__ALL__'
p4951
I01
sS'danc__BOTTOM__'
p4952
I01
sS'be__ALL__'
p4953
I01
sS'that__ALL__'
p4954
I01
sS'that__BOTTOM__'
p4955
I01
sS'band__BOTTOM__'
p4956
I01
sS'nigga__ALL__'
p4957
I01
sS'her__ALL__'
p4958
I01
sS'be__TOP__'
p4959
I01
sS'her__BOTTOM__'
p4960
I01
sa(dp4961
S'kaulessar__ALL__'
p4962
I01
sS'sincewel__ALL__'
p4963
I01
sS'obes__ALL__'
p4964
I01
sS'clarinet__BOTTOM__'
p4965
I01
sS'player__BOTTOM__'
p4966
I01
sS'paul__TOP__'
p4967
I01
sS'kaulessar__TOP__'
p4968
I01
sS'paul__ALL__'
p4969
I01
sS'dream__ALL__'
p4970
I01
sS'player__ALL__'
p4971
I01
sS'clarinet__ALL__'
p4972
I01
sS'of__ALL__'
p4973
I01
sS'dream__BOTTOM__'
p4974
I01
sS'obes__BOTTOM__'
p4975
I01
sS'sincewel__BOTTOM__'
p4976
I01
sS'of__BOTTOM__'
p4977
I01
sa(dp4978
S'two__ALL__'
p4979
I01
sS'watch__TOP__'
p4980
I01
sS'said__BOTTOM__'
p4981
I01
sS'cup__TOP__'
p4982
I01
sS'fun__BOTTOM__'
p4983
I01
sS'will__ALL__'
p4984
I01
sS'it__BOTTOM__'
p4985
I01
sS'will__BOTTOM__'
p4986
I01
sS'they__TOP__'
p4987
I01
sS'girl__TOP__'
p4988
I01
sS'said__ALL__'
p4989
I01
sS'girl__ALL__'
p4990
I01
sS'be__ALL__'
p4991
I01
sS'it__ALL__'
p4992
I01
sS'be__BOTTOM__'
p4993
I01
sS'two__TOP__'
p4994
I01
sS'they__ALL__'
p4995
I01
sS'one__TOP__'
p4996
I01
sS'cup__ALL__'
p4997
I01
sS'fun__ALL__'
p4998
I01
sS'said__TOP__'
p4999
I01
sS'watch__ALL__'
p5000
I01
sS'one__ALL__'
p5001
I01
sS'they__BOTTOM__'
p5002
I01
sa(dp5003
S'like__ALL__'
p5004
I01
sS'cheeeeessseee__ALL__'
p5005
I01
sS'like__TOP__'
p5006
I01
sS'cooki__ALL__'
p5007
I01
sS'smell__TOP__'
p5008
I01
sS'cheeeeessseee__TOP__'
p5009
I01
sS'smell__ALL__'
p5010
I01
sS'cooki__BOTTOM__'
p5011
I01
sa(dp5012
S'i__TOP__'
p5013
I01
sS'want__TOP__'
p5014
I01
sS'$__ALL__'
p5015
I01
sS'i__ALL__'
p5016
I01
sS'a__TOP__'
p5017
I01
sS'flute__ALL__'
p5018
I01
sS'but__BOTTOM__'
p5019
I01
sS'$__BOTTOM__'
p5020
I01
sS'31__ALL__'
p5021
I01
sS'it__BOTTOM__'
p5022
I01
sS'a__ALL__'
p5023
I01
sS'it__ALL__'
p5024
I01
sS'but__ALL__'
p5025
I01
sS'want__ALL__'
p5026
I01
sS'31__BOTTOM__'
p5027
I01
sS'flute__TOP__'
p5028
I01
sa(dp5029
S'i__TOP__'
p5030
I01
sS'anyth__ALL__'
p5031
I01
sS'board__BOTTOM__'
p5032
I01
sS'becam__BOTTOM__'
p5033
I01
sS'a__BOTTOM__'
p5034
I01
sS'cold__TOP__'
p5035
I01
sS'i__ALL__'
p5036
I01
sS'said__TOP__'
p5037
I01
sS'game__BOTTOM__'
p5038
I01
sS'becom__TOP__'
p5039
I01
sS'cold__ALL__'
p5040
I01
sS'game__ALL__'
p5041
I01
sS'anyth__TOP__'
p5042
I01
sS'board__ALL__'
p5043
I01
sS'becom__ALL__'
p5044
I01
sS'said__ALL__'
p5045
I01
sS'a__ALL__'
p5046
I01
sS'becam__ALL__'
p5047
I01
sa(dp5048
S'east__BOTTOM__'
p5049
I01
sS'.__TOP__'
p5050
I01
sS'thi__TOP__'
p5051
I01
sS'east__ALL__'
p5052
I01
sS'thi__ALL__'
p5053
I01
sS'is__ALL__'
p5054
I01
sS'berni__ALL__'
p5055
I01
sS'.__ALL__'
p5056
I01
sS'is__TOP__'
p5057
I01
sS'will__ALL__'
p5058
I01
sS'he__ALL__'
p5059
I01
sS'you__ALL__'
p5060
I01
sS'you__BOTTOM__'
p5061
I01
sS'will__BOTTOM__'
p5062
I01
sS'he__BOTTOM__'
p5063
I01
sS'berni__TOP__'
p5064
I01
sa(dp5065
S'.__BOTTOM__'
p5066
I01
sS'think__TOP__'
p5067
I01
sS'.__ALL__'
p5068
I01
sS'think__ALL__'
p5069
I01
sS'fuck__BOTTOM__'
p5070
I01
sS'idiot__BOTTOM__'
p5071
I01
sS'idiot__ALL__'
p5072
I01
sS'what__ALL__'
p5073
I01
sS'then__ALL__'
p5074
I01
sS'like__ALL__'
p5075
I01
sS'a__ALL__'
p5076
I01
sS'fuck__ALL__'
p5077
I01
sS'back__BOTTOM__'
p5078
I01
sS'what__TOP__'
p5079
I01
sS'look__BOTTOM__'
p5080
I01
sS'wa__ALL__'
p5081
I01
sS'then__BOTTOM__'
p5082
I01
sS'look__ALL__'
p5083
I01
sS'i__ALL__'
p5084
I01
sS'like__BOTTOM__'
p5085
I01
sS'i__TOP__'
p5086
I01
sS'a__BOTTOM__'
p5087
I01
sS'wa__TOP__'
p5088
I01
sS'i__BOTTOM__'
p5089
I01
sS'back__ALL__'
p5090
I01
sa(dp5091
S'garcon__BOTTOM__'
p5092
I01
sS'anthoni__ALL__'
p5093
I01
sS'est__ALL__'
p5094
I01
sS'ce__ALL__'
p5095
I01
sS'anthoni__TOP__'
p5096
I01
sS'ce__BOTTOM__'
p5097
I01
sS'est__BOTTOM__'
p5098
I01
sS'hero__BOTTOM__'
p5099
I01
sS'garcon__ALL__'
p5100
I01
sS'ton__BOTTOM__'
p5101
I01
sS'hero__ALL__'
p5102
I01
sS'ton__ALL__'
p5103
I01
sa(dp5104
S'boy__ALL__'
p5105
I01
sS'i__TOP__'
p5106
I01
sS'.__ALL__'
p5107
I01
sS'wa__ALL__'
p5108
I01
sS'a__BOTTOM__'
p5109
I01
sS'wa__TOP__'
p5110
I01
sS'just__ALL__'
p5111
I01
sS'a__TOP__'
p5112
I01
sS'now__BOTTOM__'
p5113
I01
sS'a__ALL__'
p5114
I01
sS'im__BOTTOM__'
p5115
I01
sS'now__ALL__'
p5116
I01
sS'just__TOP__'
p5117
I01
sS'boy__TOP__'
p5118
I01
sS'monster__BOTTOM__'
p5119
I01
sS'monster__ALL__'
p5120
I01
sS'.__TOP__'
p5121
I01
sS'im__ALL__'
p5122
I01
sS'i__ALL__'
p5123
I01
sa(dp5124
S'butthol__BOTTOM__'
p5125
I01
sS'i__TOP__'
p5126
I01
sS'but__ALL__'
p5127
I01
sS'like__ALL__'
p5128
I01
sS'like__TOP__'
p5129
I01
sS'i__ALL__'
p5130
I01
sS'butthol__ALL__'
p5131
I01
sS'but__BOTTOM__'
p5132
I01
sS'the__TOP__'
p5133
I01
sS'pussi__ALL__'
p5134
I01
sS'pussi__TOP__'
p5135
I01
sS'love__BOTTOM__'
p5136
I01
sS'the__ALL__'
p5137
I01
sS'the__BOTTOM__'
p5138
I01
sS'love__ALL__'
p5139
I01
sa(dp5140
S'make__ALL__'
p5141
I01
sS'to__ALL__'
p5142
I01
sS'coffin__ALL__'
p5143
I01
sS'move__TOP__'
p5144
I01
sS'?__ALL__'
p5145
I01
sS'make__BOTTOM__'
p5146
I01
sS'ill__ALL__'
p5147
I01
sS'ill__BOTTOM__'
p5148
I01
sS'to__TOP__'
p5149
I01
sS'me__ALL__'
p5150
I01
sS'ppp__TOP__'
p5151
I01
sS'?__TOP__'
p5152
I01
sS'their__ALL__'
p5153
I01
sS'coffin__BOTTOM__'
p5154
I01
sS'me__TOP__'
p5155
I01
sS'move__ALL__'
p5156
I01
sS'their__BOTTOM__'
p5157
I01
sS'ppp__ALL__'
p5158
I01
sa(dp5159
S'hi__BOTTOM__'
p5160
I01
sS'with__ALL__'
p5161
I01
sS'women__ALL__'
p5162
I01
sS'ak47__BOTTOM__'
p5163
I01
sS'ak47__ALL__'
p5164
I01
sS'with__BOTTOM__'
p5165
I01
sS'the__TOP__'
p5166
I01
sS'slay__ALL__'
p5167
I01
sS'the__ALL__'
p5168
I01
sS'hi__ALL__'
p5169
I01
sS'women__TOP__'
p5170
I01
sS'slay__TOP__'
p5171
I01
sa(dp5172
S'make__ALL__'
p5173
I01
sS'like__ALL__'
p5174
I01
sS'danc__ALL__'
p5175
I01
sS'make__BOTTOM__'
p5176
I01
sS'nigga__TOP__'
p5177
I01
sS'like__TOP__'
p5178
I01
sS'band__ALL__'
p5179
I01
sS'danc__BOTTOM__'
p5180
I01
sS'be__ALL__'
p5181
I01
sS'that__ALL__'
p5182
I01
sS'that__BOTTOM__'
p5183
I01
sS'band__BOTTOM__'
p5184
I01
sS'nigga__ALL__'
p5185
I01
sS'her__ALL__'
p5186
I01
sS'be__TOP__'
p5187
I01
sS'her__BOTTOM__'
p5188
I01
sa(dp5189
S'.__ALL__'
p5190
I01
sS'get__ALL__'
p5191
I01
sS'get__BOTTOM__'
p5192
I01
sS'money__ALL__'
p5193
I01
sS'i__ALL__'
p5194
I01
sS'wait__ALL__'
p5195
I01
sS'wait__BOTTOM__'
p5196
I01
sS'till__ALL__'
p5197
I01
sS'i__BOTTOM__'
p5198
I01
sS'my__ALL__'
p5199
I01
sS'money__BOTTOM__'
p5200
I01
sS'till__BOTTOM__'
p5201
I01
sS'my__BOTTOM__'
p5202
I01
sS'.__TOP__'
p5203
I01
sS'right__BOTTOM__'
p5204
I01
sS'right__ALL__'
p5205
I01
sa(dp5206
S'skill__ALL__'
p5207
I01
sS'fun__TOP__'
p5208
I01
sS'fun__BOTTOM__'
p5209
I01
sS'poker__ALL__'
p5210
I01
sS'made__TOP__'
p5211
I01
sS'of__ALL__'
p5212
I01
sS'of__BOTTOM__'
p5213
I01
sS'they__TOP__'
p5214
I01
sS'intestin__ALL__'
p5215
I01
sS'made__BOTTOM__'
p5216
I01
sS'i__ALL__'
p5217
I01
sS'poker__TOP__'
p5218
I01
sS'their__ALL__'
p5219
I01
sS'intestin__BOTTOM__'
p5220
I01
sS'skill__TOP__'
p5221
I01
sS'of__TOP__'
p5222
I01
sS'made__ALL__'
p5223
I01
sS'they__ALL__'
p5224
I01
sS'fun__ALL__'
p5225
I01
sS'i__BOTTOM__'
p5226
I01
sS'my__ALL__'
p5227
I01
sS'their__BOTTOM__'
p5228
I01
sS'my__TOP__'
p5229
I01
sa(dp5230
S'theyd__TOP__'
p5231
I01
sS'but__ALL__'
p5232
I01
sS'a__TOP__'
p5233
I01
sS'me__ALL__'
p5234
I01
sS'pass__TOP__'
p5235
I01
sS'pass__ALL__'
p5236
I01
sS'theyd__ALL__'
p5237
I01
sS'a__ALL__'
p5238
I01
sS'told__ALL__'
p5239
I01
sS'but__BOTTOM__'
p5240
I01
sS'instead__ALL__'
p5241
I01
sS'me__TOP__'
p5242
I01
sS'plate__ALL__'
p5243
I01
sS'they__TOP__'
p5244
I01
sS'told__TOP__'
p5245
I01
sS'instead__BOTTOM__'
p5246
I01
sS'me__BOTTOM__'
p5247
I01
sS'gave__BOTTOM__'
p5248
I01
sS'bowl__ALL__'
p5249
I01
sS'they__ALL__'
p5250
I01
sS'a__BOTTOM__'
p5251
I01
sS'gave__ALL__'
p5252
I01
sS'plate__TOP__'
p5253
I01
sS'they__BOTTOM__'
p5254
I01
sS'bowl__BOTTOM__'
p5255
I01
sa(dp5256
S'all__ALL__'
p5257
I01
sS'fuck__TOP__'
p5258
I01
sS'thi__TOP__'
p5259
I01
sS'for__BOTTOM__'
p5260
I01
sS'stand__BOTTOM__'
p5261
I01
sS'it__TOP__'
p5262
I01
sS'all__TOP__'
p5263
I01
sS'fuck__ALL__'
p5264
I01
sS'fuck__BOTTOM__'
p5265
I01
sS'thi__ALL__'
p5266
I01
sS'everyth__ALL__'
p5267
I01
sS'that__ALL__'
p5268
I01
sS'that__BOTTOM__'
p5269
I01
sS'world__TOP__'
p5270
I01
sS'world__ALL__'
p5271
I01
sS'you__ALL__'
p5272
I01
sS'you__BOTTOM__'
p5273
I01
sS'everyth__BOTTOM__'
p5274
I01
sS'stand__ALL__'
p5275
I01
sS'for__ALL__'
p5276
I01
sS'it__ALL__'
p5277
I01
sa(dp5278
S'man__BOTTOM__'
p5279
I01
sS'!__ALL__'
p5280
I01
sS'birthday__TOP__'
p5281
I01
sS'sexi__ALL__'
p5282
I01
sS'!__BOTTOM__'
p5283
I01
sS'happi__TOP__'
p5284
I01
sS'sexi__BOTTOM__'
p5285
I01
sS'birthday__ALL__'
p5286
I01
sS'happi__ALL__'
p5287
I01
sS'man__ALL__'
p5288
I01
sa(dp5289
S'en__BOTTOM__'
p5290
I01
sS'en__ALL__'
p5291
I01
sS'secret__BOTTOM__'
p5292
I01
sS'garcon__BOTTOM__'
p5293
I01
sS'anthoni__ALL__'
p5294
I01
sS'ce__ALL__'
p5295
I01
sS'anthoni__TOP__'
p5296
I01
sS'secret__ALL__'
p5297
I01
sS'ce__BOTTOM__'
p5298
I01
sS'taim__BOTTOM__'
p5299
I01
sS'garcon__ALL__'
p5300
I01
sS'taim__ALL__'
p5301
I01
sa(dp5302
S'skill__ALL__'
p5303
I01
sS'fun__TOP__'
p5304
I01
sS'fun__BOTTOM__'
p5305
I01
sS'poker__ALL__'
p5306
I01
sS'made__TOP__'
p5307
I01
sS'of__ALL__'
p5308
I01
sS'of__BOTTOM__'
p5309
I01
sS'they__TOP__'
p5310
I01
sS'intestin__ALL__'
p5311
I01
sS'made__BOTTOM__'
p5312
I01
sS'i__ALL__'
p5313
I01
sS'poker__TOP__'
p5314
I01
sS'their__ALL__'
p5315
I01
sS'intestin__BOTTOM__'
p5316
I01
sS'skill__TOP__'
p5317
I01
sS'of__TOP__'
p5318
I01
sS'made__ALL__'
p5319
I01
sS'they__ALL__'
p5320
I01
sS'fun__ALL__'
p5321
I01
sS'i__BOTTOM__'
p5322
I01
sS'my__ALL__'
p5323
I01
sS'their__BOTTOM__'
p5324
I01
sS'my__TOP__'
p5325
I01
sa(dp5326
S'man__BOTTOM__'
p5327
I01
sS'dont__ALL__'
p5328
I01
sS'dont__BOTTOM__'
p5329
I01
sS'want__TOP__'
p5330
I01
sS'a__TOP__'
p5331
I01
sS'want__ALL__'
p5332
I01
sS'a__ALL__'
p5333
I01
sS'understand__ALL__'
p5334
I01
sS'you__ALL__'
p5335
I01
sS'you__BOTTOM__'
p5336
I01
sS'!__TOP__'
p5337
I01
sS'i__ALL__'
p5338
I01
sS'!__ALL__'
p5339
I01
sS'cover__ALL__'
p5340
I01
sS'add__ALL__'
p5341
I01
sS'man__ALL__'
p5342
I01
sS'to__ALL__'
p5343
I01
sS'i__TOP__'
p5344
I01
sS'cover__TOP__'
p5345
I01
sS'just__BOTTOM__'
p5346
I01
sS'just__ALL__'
p5347
I01
sS'to__TOP__'
p5348
I01
sS'understand__BOTTOM__'
p5349
I01
sS'add__TOP__'
p5350
I01
sa(dp5351
S'fifth__TOP__'
p5352
I01
sS'funer__ALL__'
p5353
I01
sS'quarter__ALL__'
p5354
I01
sS'they__TOP__'
p5355
I01
sS'their__ALL__'
p5356
I01
sS'attend__BOTTOM__'
p5357
I01
sS'i__ALL__'
p5358
I01
sS'fifth__ALL__'
p5359
I01
sS'attend__ALL__'
p5360
I01
sS'i__BOTTOM__'
p5361
I01
sS'the__TOP__'
p5362
I01
sS'the__ALL__'
p5363
I01
sS'didnt__TOP__'
p5364
I01
sS'quarter__TOP__'
p5365
I01
sS'attend__TOP__'
p5366
I01
sS'funer__BOTTOM__'
p5367
I01
sS'their__BOTTOM__'
p5368
I01
sS'didnt__BOTTOM__'
p5369
I01
sS'they__ALL__'
p5370
I01
sS'didnt__ALL__'
p5371
I01
sa(dp5372
S'back__TOP__'
p5373
I01
sS'there__BOTTOM__'
p5374
I01
sS'in__TOP__'
p5375
I01
sS'there__ALL__'
p5376
I01
sS'day__TOP__'
p5377
I01
sS'werent__ALL__'
p5378
I01
sS'werent__BOTTOM__'
p5379
I01
sS'in__ALL__'
p5380
I01
sS'the__TOP__'
p5381
I01
sS'day__ALL__'
p5382
I01
sS'caus__ALL__'
p5383
I01
sS'back__ALL__'
p5384
I01
sS'the__ALL__'
p5385
I01
sS'you__BOTTOM__'
p5386
I01
sS'caus__TOP__'
p5387
I01
sS'you__ALL__'
p5388
I01
sa(dp5389
S'to__BOTTOM__'
p5390
I01
sS'shud__BOTTOM__'
p5391
I01
sS'me__ALL__'
p5392
I01
sS'in__ALL__'
p5393
I01
sS'the__TOP__'
p5394
I01
sS'up__BOTTOM__'
p5395
I01
sS'shovel__BOTTOM__'
p5396
I01
sS'over__ALL__'
p5397
I01
sS'band__TOP__'
p5398
I01
sS'shud__ALL__'
p5399
I01
sS'told__ALL__'
p5400
I01
sS'me__TOP__'
p5401
I01
sS'while__ALL__'
p5402
I01
sS'them__ALL__'
p5403
I01
sS'they__TOP__'
p5404
I01
sS'told__TOP__'
p5405
I01
sS'i__ALL__'
p5406
I01
sS'told__BOTTOM__'
p5407
I01
sS'band__ALL__'
p5408
I01
sS'be__ALL__'
p5409
I01
sS'dirt__ALL__'
p5410
I01
sS'dirt__BOTTOM__'
p5411
I01
sS'while__BOTTOM__'
p5412
I01
sS'shovel__ALL__'
p5413
I01
sS'they__ALL__'
p5414
I01
sS'be__TOP__'
p5415
I01
sS'never__TOP__'
p5416
I01
sS'to__ALL__'
p5417
I01
sS'i__TOP__'
p5418
I01
sS'over__BOTTOM__'
p5419
I01
sS'in__TOP__'
p5420
I01
sS'the__ALL__'
p5421
I01
sS'never__ALL__'
p5422
I01
sS'i__BOTTOM__'
p5423
I01
sS'would__ALL__'
p5424
I01
sS'up__ALL__'
p5425
I01
sS'would__TOP__'
p5426
I01
sS'them__BOTTOM__'
p5427
I01
sa(dp5428
S'said__BOTTOM__'
p5429
I01
sS'obo__ALL__'
p5430
I01
sS'in__ALL__'
p5431
I01
sS'mom__BOTTOM__'
p5432
I01
sS'my__BOTTOM__'
p5433
I01
sS'like__ALL__'
p5434
I01
sS'fart__TOP__'
p5435
I01
sS'obo__TOP__'
p5436
I01
sS'like__BOTTOM__'
p5437
I01
sS'i__ALL__'
p5438
I01
sS'mom__ALL__'
p5439
I01
sS'fart__ALL__'
p5440
I01
sS'said__ALL__'
p5441
I01
sS'skrillex__BOTTOM__'
p5442
I01
sS'i__TOP__'
p5443
I01
sS'in__TOP__'
p5444
I01
sS'my__TOP__'
p5445
I01
sS'sound__BOTTOM__'
p5446
I01
sS'i__BOTTOM__'
p5447
I01
sS'my__ALL__'
p5448
I01
sS'sound__ALL__'
p5449
I01
sS'skrillex__ALL__'
p5450
I01
sa(dp5451
S'playin__ALL__'
p5452
I01
sS'they__TOP__'
p5453
I01
sS'me__ALL__'
p5454
I01
sS'see__ALL__'
p5455
I01
sS'hatin__BOTTOM__'
p5456
I01
sS'playin__TOP__'
p5457
I01
sS'me__TOP__'
p5458
I01
sS'see__TOP__'
p5459
I01
sS'they__BOTTOM__'
p5460
I01
sS'hatin__ALL__'
p5461
I01
sS'they__ALL__'
p5462
I01
sa(dp5463
S'everyon__ALL__'
p5464
I01
sS'it__BOTTOM__'
p5465
I01
sS'shit__ALL__'
p5466
I01
sS'and__ALL__'
p5467
I01
sS'im__ALL__'
p5468
I01
sS'know__BOTTOM__'
p5469
I01
sS'the__TOP__'
p5470
I01
sS'know__ALL__'
p5471
I01
sS'im__TOP__'
p5472
I01
sS'it__ALL__'
p5473
I01
sS'and__BOTTOM__'
p5474
I01
sS'the__ALL__'
p5475
I01
sS'shit__TOP__'
p5476
I01
sS'everyon__BOTTOM__'
p5477
I01
sa(dp5478
S'want__TOP__'
p5479
I01
sS'becam__BOTTOM__'
p5480
I01
sS'so__ALL__'
p5481
I01
sS'anyth__ALL__'
p5482
I01
sS'me__ALL__'
p5483
I01
sS'safeti__BOTTOM__'
p5484
I01
sS'they__TOP__'
p5485
I01
sS'want__ALL__'
p5486
I01
sS'becam__ALL__'
p5487
I01
sS'told__ALL__'
p5488
I01
sS'public__ALL__'
p5489
I01
sS'so__BOTTOM__'
p5490
I01
sS'anyth__TOP__'
p5491
I01
sS'me__TOP__'
p5492
I01
sS'safeti__ALL__'
p5493
I01
sS'could__TOP__'
p5494
I01
sS'told__TOP__'
p5495
I01
sS'i__ALL__'
p5496
I01
sS'be__ALL__'
p5497
I01
sS'public__BOTTOM__'
p5498
I01
sS'they__ALL__'
p5499
I01
sS'be__TOP__'
p5500
I01
sS'i__TOP__'
p5501
I01
sS'i__BOTTOM__'
p5502
I01
sS'could__ALL__'
p5503
I01
sa(dp5504
S'.__ALL__'
p5505
I01
sS'with__ALL__'
p5506
I01
sS'1st__TOP__'
p5507
I01
sS'my__TOP__'
p5508
I01
sS'parad__ALL__'
p5509
I01
sS'ballymacal__BOTTOM__'
p5510
I01
sS'my__ALL__'
p5511
I01
sS'parad__TOP__'
p5512
I01
sS'1st__ALL__'
p5513
I01
sS'.__TOP__'
p5514
I01
sS'ballymacal__ALL__'
p5515
I01
sS'with__BOTTOM__'
p5516
I01
sa(dp5517
S'play__TOP__'
p5518
I01
sS'clarinet__TOP__'
p5519
I01
sS'i__TOP__'
p5520
I01
sS'no__BOTTOM__'
p5521
I01
sS'clarinet__ALL__'
p5522
I01
sS'have__ALL__'
p5523
I01
sS'soul__BOTTOM__'
p5524
I01
sS'becaus__BOTTOM__'
p5525
I01
sS'i__BOTTOM__'
p5526
I01
sS'the__TOP__'
p5527
I01
sS'the__ALL__'
p5528
I01
sS'soul__ALL__'
p5529
I01
sS'play__ALL__'
p5530
I01
sS'have__BOTTOM__'
p5531
I01
sS'becaus__ALL__'
p5532
I01
sS'i__ALL__'
p5533
I01
sS'no__ALL__'
p5534
I01
sa(dp5535
S'man__BOTTOM__'
p5536
I01
sS'a__ALL__'
p5537
I01
sS'born__TOP__'
p5538
I01
sS'a__BOTTOM__'
p5539
I01
sS'fuck__ALL__'
p5540
I01
sS'a__TOP__'
p5541
I01
sS'mother__BOTTOM__'
p5542
I01
sS'born__ALL__'
p5543
I01
sS'who__ALL__'
p5544
I01
sS'die__BOTTOM__'
p5545
I01
sS'man__TOP__'
p5546
I01
sS'die__ALL__'
p5547
I01
sS'mother__ALL__'
p5548
I01
sS'your__ALL__'
p5549
I01
sS'your__BOTTOM__'
p5550
I01
sS'who__BOTTOM__'
p5551
I01
sS'fuck__BOTTOM__'
p5552
I01
sS'man__ALL__'
p5553
I01
sa(dp5554
S'more__ALL__'
p5555
I01
sS'but__ALL__'
p5556
I01
sS'get__BOTTOM__'
p5557
I01
sS'na__TOP__'
p5558
I01
sS'than__ALL__'
p5559
I01
sS'seat__ALL__'
p5560
I01
sS'a__ALL__'
p5561
I01
sS'gon__ALL__'
p5562
I01
sS'but__BOTTOM__'
p5563
I01
sS'nigga__ALL__'
p5564
I01
sS'get__ALL__'
p5565
I01
sS'i__ALL__'
p5566
I01
sS'more__BOTTOM__'
p5567
I01
sS'ass__ALL__'
p5568
I01
sS'ass__BOTTOM__'
p5569
I01
sS'than__BOTTOM__'
p5570
I01
sS'seat__BOTTOM__'
p5571
I01
sS'hate__ALL__'
p5572
I01
sS'hate__TOP__'
p5573
I01
sS'nigga__TOP__'
p5574
I01
sS'toilet__ALL__'
p5575
I01
sS'a__BOTTOM__'
p5576
I01
sS'i__BOTTOM__'
p5577
I01
sS'toilet__BOTTOM__'
p5578
I01
sS'na__ALL__'
p5579
I01
sS'gon__TOP__'
p5580
I01
sa(dp5581
S'our__BOTTOM__'
p5582
I01
sS'our__ALL__'
p5583
I01
sS'saviour__BOTTOM__'
p5584
I01
sS'done__TOP__'
p5585
I01
sS'sean__ALL__'
p5586
I01
sS'well__ALL__'
p5587
I01
sS'well__TOP__'
p5588
I01
sS'sean__TOP__'
p5589
I01
sS'done__ALL__'
p5590
I01
sS'saviour__ALL__'
p5591
I01
sa(dp5592
S'man__BOTTOM__'
p5593
I01
sS'dont__ALL__'
p5594
I01
sS'dont__BOTTOM__'
p5595
I01
sS'about__ALL__'
p5596
I01
sS'understand__ALL__'
p5597
I01
sS'talk__ALL__'
p5598
I01
sS'about__TOP__'
p5599
I01
sS'3rd__ALL__'
p5600
I01
sS'alway__TOP__'
p5601
I01
sS'they__TOP__'
p5602
I01
sS'i__ALL__'
p5603
I01
sS'said__ALL__'
p5604
I01
sS'alway__ALL__'
p5605
I01
sS'watt__TOP__'
p5606
I01
sS'3rd__TOP__'
p5607
I01
sS'they__ALL__'
p5608
I01
sS'watt__ALL__'
p5609
I01
sS'man__ALL__'
p5610
I01
sS'i__TOP__'
p5611
I01
sS'talk__TOP__'
p5612
I01
sS'said__TOP__'
p5613
I01
sS'understand__BOTTOM__'
p5614
I01
sS'they__BOTTOM__'
p5615
I01
sa(dp5616
S'want__TOP__'
p5617
I01
sS'becam__BOTTOM__'
p5618
I01
sS'so__ALL__'
p5619
I01
sS'anyth__ALL__'
p5620
I01
sS'bs__BOTTOM__'
p5621
I01
sS'they__TOP__'
p5622
I01
sS'want__ALL__'
p5623
I01
sS'becam__ALL__'
p5624
I01
sS'so__BOTTOM__'
p5625
I01
sS'anyth__TOP__'
p5626
I01
sS'friend__ALL__'
p5627
I01
sS'could__TOP__'
p5628
I01
sS'i__ALL__'
p5629
I01
sS'said__ALL__'
p5630
I01
sS'friend__BOTTOM__'
p5631
I01
sS'bs__ALL__'
p5632
I01
sS'they__ALL__'
p5633
I01
sS'be__TOP__'
p5634
I01
sS'i__TOP__'
p5635
I01
sS'be__ALL__'
p5636
I01
sS'said__TOP__'
p5637
I01
sS'i__BOTTOM__'
p5638
I01
sS'could__ALL__'
p5639
I01
sS'lil__ALL__'
p5640
I01
sS'lil__BOTTOM__'
p5641
I01
sa(dp5642
S'at__ALL__'
p5643
I01
sS'funer__ALL__'
p5644
I01
sS'instrument__TOP__'
p5645
I01
sS'instrument__ALL__'
p5646
I01
sS'it__BOTTOM__'
p5647
I01
sS'alway__TOP__'
p5648
I01
sS'they__TOP__'
p5649
I01
sS'i__ALL__'
p5650
I01
sS'their__ALL__'
p5651
I01
sS'it__ALL__'
p5652
I01
sS'they__ALL__'
p5653
I01
sS'their__BOTTOM__'
p5654
I01
sS'stole__ALL__'
p5655
I01
sS'funer__BOTTOM__'
p5656
I01
sS'alway__ALL__'
p5657
I01
sS'my__TOP__'
p5658
I01
sS'i__BOTTOM__'
p5659
I01
sS'my__ALL__'
p5660
I01
sS'stole__TOP__'
p5661
I01
sS'play__ALL__'
p5662
I01
sS'at__BOTTOM__'
p5663
I01
sS'play__BOTTOM__'
p5664
I01
sa(dp5665
S'want__TOP__'
p5666
I01
sS'becam__BOTTOM__'
p5667
I01
sS'so__ALL__'
p5668
I01
sS'anyth__ALL__'
p5669
I01
sS'presid__ALL__'
p5670
I01
sS'they__TOP__'
p5671
I01
sS'want__ALL__'
p5672
I01
sS'becam__ALL__'
p5673
I01
sS'so__BOTTOM__'
p5674
I01
sS'anyth__TOP__'
p5675
I01
sS'first__BOTTOM__'
p5676
I01
sS'first__ALL__'
p5677
I01
sS'could__TOP__'
p5678
I01
sS'atheist__ALL__'
p5679
I01
sS'i__ALL__'
p5680
I01
sS'said__ALL__'
p5681
I01
sS'be__ALL__'
p5682
I01
sS'atheist__BOTTOM__'
p5683
I01
sS'they__ALL__'
p5684
I01
sS'be__TOP__'
p5685
I01
sS'i__TOP__'
p5686
I01
sS'said__TOP__'
p5687
I01
sS'presid__BOTTOM__'
p5688
I01
sS'i__BOTTOM__'
p5689
I01
sS'could__ALL__'
p5690
I01
sS'the__ALL__'
p5691
I01
sS'the__BOTTOM__'
p5692
I01
sa(dp5693
S'to__BOTTOM__'
p5694
I01
sS'made__ALL__'
p5695
I01
sS'him__ALL__'
p5696
I01
sS'downvot__BOTTOM__'
p5697
I01
sS'fun__TOP__'
p5698
I01
sS'made__TOP__'
p5699
I01
sS'of__ALL__'
p5700
I01
sS'downvot__ALL__'
p5701
I01
sS'oblivion__ALL__'
p5702
I01
sS'him__BOTTOM__'
p5703
I01
sS'i__ALL__'
p5704
I01
sS'of__TOP__'
p5705
I01
sS'hair__TOP__'
p5706
I01
sS'oblivion__BOTTOM__'
p5707
I01
sS'he__TOP__'
p5708
I01
sS'to__ALL__'
p5709
I01
sS'my__TOP__'
p5710
I01
sS'i__BOTTOM__'
p5711
I01
sS'my__ALL__'
p5712
I01
sS'hair__ALL__'
p5713
I01
sS'he__ALL__'
p5714
I01
sS'fun__ALL__'
p5715
I01
sa(dp5716
S'make__ALL__'
p5717
I01
sS'a__TOP__'
p5718
I01
sS'me__ALL__'
p5719
I01
sS'made__ALL__'
p5720
I01
sS'a__ALL__'
p5721
I01
sS'card__TOP__'
p5722
I01
sS'told__ALL__'
p5723
I01
sS'so__BOTTOM__'
p5724
I01
sS'god__BOTTOM__'
p5725
I01
sS'me__TOP__'
p5726
I01
sS'you__ALL__'
p5727
I01
sS'you__BOTTOM__'
p5728
I01
sS'so__ALL__'
p5729
I01
sS'they__TOP__'
p5730
I01
sS'told__TOP__'
p5731
I01
sS'made__BOTTOM__'
p5732
I01
sS'i__ALL__'
p5733
I01
sS'you__TOP__'
p5734
I01
sS'god__ALL__'
p5735
I01
sS'they__ALL__'
p5736
I01
sS'to__ALL__'
p5737
I01
sS'card__ALL__'
p5738
I01
sS'a__BOTTOM__'
p5739
I01
sS'to__TOP__'
p5740
I01
sS'i__BOTTOM__'
p5741
I01
sS'make__TOP__'
p5742
I01
sa(dp5743
S'took__TOP__'
p5744
I01
sS'gave__ALL__'
p5745
I01
sS'they__TOP__'
p5746
I01
sS'i__ALL__'
p5747
I01
sS'they__ALL__'
p5748
I01
sS'my__TOP__'
p5749
I01
sS'd1__ALL__'
p5750
I01
sS'gave__BOTTOM__'
p5751
I01
sS'i__BOTTOM__'
p5752
I01
sS'c4__ALL__'
p5753
I01
sS'my__ALL__'
p5754
I01
sS'took__ALL__'
p5755
I01
sS'them__ALL__'
p5756
I01
sS'c4__BOTTOM__'
p5757
I01
sS'them__BOTTOM__'
p5758
I01
sS'd1__TOP__'
p5759
I01
sa(dp5760
S'wee__BOTTOM__'
p5761
I01
sS'even__ALL__'
p5762
I01
sS'even__TOP__'
p5763
I01
sS'ive__ALL__'
p5764
I01
sS'shag__ALL__'
p5765
I01
sS'shag__BOTTOM__'
p5766
I01
sS'stane__BOTTOM__'
p5767
I01
sS'ive__TOP__'
p5768
I01
sS'stane__ALL__'
p5769
I01
sS'wee__ALL__'
p5770
I01
sa(dp5771
S'won__BOTTOM__'
p5772
I01
sS'and__ALL__'
p5773
I01
sS'and__BOTTOM__'
p5774
I01
sS'won__ALL__'
p5775
I01
sS'war__TOP__'
p5776
I01
sS'war__ALL__'
p5777
I01
sS'hi__ALL__'
p5778
I01
sS'friend__TOP__'
p5779
I01
sS'friend__ALL__'
p5780
I01
sS'get__ALL__'
p5781
I01
sS'hi__BOTTOM__'
p5782
I01
sS'friend__BOTTOM__'
p5783
I01
sS'war__BOTTOM__'
p5784
I01
sS'hi__TOP__'
p5785
I01
sS'save__BOTTOM__'
p5786
I01
sS'to__ALL__'
p5787
I01
sS'save__ALL__'
p5788
I01
sS'went__TOP__'
p5789
I01
sS'get__TOP__'
p5790
I01
sS'to__TOP__'
p5791
I01
sS'went__ALL__'
p5792
I01
sS'the__ALL__'
p5793
I01
sS'the__BOTTOM__'
p5794
I01
sa(dp5795
S'want__TOP__'
p5796
I01
sS'like__TOP__'
p5797
I01
sS'just__TOP__'
p5798
I01
sS'mother__ALL__'
p5799
I01
sS'want__ALL__'
p5800
I01
sS'like__ALL__'
p5801
I01
sS'a__ALL__'
p5802
I01
sS'she__BOTTOM__'
p5803
I01
sS'she__ALL__'
p5804
I01
sS'lesbian__BOTTOM__'
p5805
I01
sS'mother__TOP__'
p5806
I01
sS'to__ALL__'
p5807
I01
sS'i__ALL__'
p5808
I01
sS'be__ALL__'
p5809
I01
sS'be__TOP__'
p5810
I01
sS'lesbian__ALL__'
p5811
I01
sS'i__TOP__'
p5812
I01
sS'a__BOTTOM__'
p5813
I01
sS'my__TOP__'
p5814
I01
sS'just__ALL__'
p5815
I01
sS'to__TOP__'
p5816
I01
sS'my__ALL__'
p5817
I01
sa(dp5818
S'clarinet__TOP__'
p5819
I01
sS'kid__BOTTOM__'
p5820
I01
sS'got__BOTTOM__'
p5821
I01
sS'got__ALL__'
p5822
I01
sS'to__BOTTOM__'
p5823
I01
sS'the__TOP__'
p5824
I01
sS'couldnt__TOP__'
p5825
I01
sS'clarinet__ALL__'
p5826
I01
sS'play__TOP__'
p5827
I01
sS'with__ALL__'
p5828
I01
sS'never__BOTTOM__'
p5829
I01
sS'couldnt__ALL__'
p5830
I01
sS'they__TOP__'
p5831
I01
sS'i__ALL__'
p5832
I01
sS'said__ALL__'
p5833
I01
sS'play__ALL__'
p5834
I01
sS'they__ALL__'
p5835
I01
sS'their__ALL__'
p5836
I01
sS'kid__ALL__'
p5837
I01
sS'to__ALL__'
p5838
I01
sS'i__TOP__'
p5839
I01
sS'never__ALL__'
p5840
I01
sS'said__TOP__'
p5841
I01
sS'with__BOTTOM__'
p5842
I01
sS'the__ALL__'
p5843
I01
sS'they__BOTTOM__'
p5844
I01
sS'their__BOTTOM__'
p5845
I01
sS'play__BOTTOM__'
p5846
I01
sa(dp5847
S'want__TOP__'
p5848
I01
sS'becam__BOTTOM__'
p5849
I01
sS'so__ALL__'
p5850
I01
sS'anyth__ALL__'
p5851
I01
sS'me__ALL__'
p5852
I01
sS'woodwind__ALL__'
p5853
I01
sS'they__TOP__'
p5854
I01
sS'want__ALL__'
p5855
I01
sS'becam__ALL__'
p5856
I01
sS'a__ALL__'
p5857
I01
sS'told__ALL__'
p5858
I01
sS'so__BOTTOM__'
p5859
I01
sS'anyth__TOP__'
p5860
I01
sS'me__TOP__'
p5861
I01
sS'woodwind__BOTTOM__'
p5862
I01
sS'could__TOP__'
p5863
I01
sS'told__TOP__'
p5864
I01
sS'i__ALL__'
p5865
I01
sS'be__ALL__'
p5866
I01
sS'they__ALL__'
p5867
I01
sS'be__TOP__'
p5868
I01
sS'i__TOP__'
p5869
I01
sS'a__BOTTOM__'
p5870
I01
sS'i__BOTTOM__'
p5871
I01
sS'could__ALL__'
p5872
I01
sa(dp5873
S'man__BOTTOM__'
p5874
I01
sS'cori__TOP__'
p5875
I01
sS'.__ALL__'
p5876
I01
sS'want__TOP__'
p5877
I01
sS'becam__BOTTOM__'
p5878
I01
sS'in__ALL__'
p5879
I01
sS'the__TOP__'
p5880
I01
sS'want__ALL__'
p5881
I01
sS'then__ALL__'
p5882
I01
sS'a__ALL__'
p5883
I01
sS'drumlin__ALL__'
p5884
I01
sS'becam__ALL__'
p5885
I01
sS'drumlin__TOP__'
p5886
I01
sS'then__BOTTOM__'
p5887
I01
sS'be__ALL__'
p5888
I01
sS'.__BOTTOM__'
p5889
I01
sS'be__TOP__'
p5890
I01
sS'man__ALL__'
p5891
I01
sS'to__ALL__'
p5892
I01
sS'in__TOP__'
p5893
I01
sS'cori__ALL__'
p5894
I01
sS'a__BOTTOM__'
p5895
I01
sS'to__TOP__'
p5896
I01
sS'he__ALL__'
p5897
I01
sS'the__ALL__'
p5898
I01
sS'he__BOTTOM__'
p5899
I01
sa(dp5900
S'becam__ALL__'
p5901
I01
sS'i__TOP__'
p5902
I01
sS'one__TOP__'
p5903
I01
sS'wa__ALL__'
p5904
I01
sS'becam__BOTTOM__'
p5905
I01
sS'then__BOTTOM__'
p5906
I01
sS'a__BOTTOM__'
p5907
I01
sS'wa__TOP__'
p5908
I01
sS'sfx__ALL__'
p5909
I01
sS'a__TOP__'
p5910
I01
sS'a__ALL__'
p5911
I01
sS'i__BOTTOM__'
p5912
I01
sS'noth__TOP__'
p5913
I01
sS'one__ALL__'
p5914
I01
sS'no__TOP__'
p5915
I01
sS'noth__ALL__'
p5916
I01
sS'no__ALL__'
p5917
I01
sS'then__ALL__'
p5918
I01
sS'i__ALL__'
p5919
I01
sS'sfx__BOTTOM__'
p5920
I01
sa(dp5921
S'rob__TOP__'
p5922
I01
sS'name__ALL__'
p5923
I01
sS'gata__ALL__'
p5924
I01
sS'rob__ALL__'
p5925
I01
sS'name__TOP__'
p5926
I01
sS'my__TOP__'
p5927
I01
sS'love__BOTTOM__'
p5928
I01
sS'and__ALL__'
p5929
I01
sS'i__BOTTOM__'
p5930
I01
sS'is__ALL__'
p5931
I01
sS'my__ALL__'
p5932
I01
sS'is__TOP__'
p5933
I01
sS'and__BOTTOM__'
p5934
I01
sS'the__ALL__'
p5935
I01
sS'the__BOTTOM__'
p5936
I01
sS'gata__BOTTOM__'
p5937
I01
sS'love__ALL__'
p5938
I01
sS'i__ALL__'
p5939
I01
sa(dp5940
S'schooler..__TOP__'
p5941
I01
sS'becam__BOTTOM__'
p5942
I01
sS'a__TOP__'
p5943
I01
sS'..but__ALL__'
p5944
I01
sS'then__ALL__'
p5945
I01
sS'a__ALL__'
p5946
I01
sS'..but__BOTTOM__'
p5947
I01
sS'becam__ALL__'
p5948
I01
sS'god__BOTTOM__'
p5949
I01
sS'then__BOTTOM__'
p5950
I01
sS'use__TOP__'
p5951
I01
sS'i__ALL__'
p5952
I01
sS'be__ALL__'
p5953
I01
sS'god__ALL__'
p5954
I01
sS'high__TOP__'
p5955
I01
sS'be__TOP__'
p5956
I01
sS'use__ALL__'
p5957
I01
sS'to__ALL__'
p5958
I01
sS'i__TOP__'
p5959
I01
sS'schooler..__ALL__'
p5960
I01
sS'to__TOP__'
p5961
I01
sS'i__BOTTOM__'
p5962
I01
sS'high__ALL__'
p5963
I01
sa(dp5964
S'.__ALL__'
p5965
I01
sS'name__TOP__'
p5966
I01
sS'me__ALL__'
p5967
I01
sS'him__ALL__'
p5968
I01
sS'metropoli__ALL__'
p5969
I01
sS'name__ALL__'
p5970
I01
sS'with__ALL__'
p5971
I01
sS'with__TOP__'
p5972
I01
sS'fuck__ALL__'
p5973
I01
sS'miss__BOTTOM__'
p5974
I01
sS'still__BOTTOM__'
p5975
I01
sS'justin__ALL__'
p5976
I01
sS'me__TOP__'
p5977
I01
sS'metropoli__BOTTOM__'
p5978
I01
sS'justin__TOP__'
p5979
I01
sS'came__TOP__'
p5980
I01
sS'fuck__TOP__'
p5981
I01
sS'came__ALL__'
p5982
I01
sS'him__BOTTOM__'
p5983
I01
sS'dude__ALL__'
p5984
I01
sS'dude__TOP__'
p5985
I01
sS'still__ALL__'
p5986
I01
sS'to__ALL__'
p5987
I01
sS'miss__ALL__'
p5988
I01
sS'to__TOP__'
p5989
I01
sS'some__ALL__'
p5990
I01
sS'some__TOP__'
p5991
I01
sS'.__TOP__'
p5992
I01
sa(dp5993
S'dont__ALL__'
p5994
I01
sS'i__TOP__'
p5995
I01
sS'they__TOP__'
p5996
I01
sS'understand__ALL__'
p5997
I01
sS'3rd__ALL__'
p5998
I01
sS'about__ALL__'
p5999
I01
sS'they__ALL__'
p6000
I01
sS'i__ALL__'
p6001
I01
sS'said__TOP__'
p6002
I01
sS'about__TOP__'
p6003
I01
sS'dont__BOTTOM__'
p6004
I01
sS'understand__BOTTOM__'
p6005
I01
sS'talk__ALL__'
p6006
I01
sS'alway__ALL__'
p6007
I01
sS'watt__TOP__'
p6008
I01
sS'3rd__TOP__'
p6009
I01
sS'they__BOTTOM__'
p6010
I01
sS'said__ALL__'
p6011
I01
sS'talk__TOP__'
p6012
I01
sS'alway__TOP__'
p6013
I01
sS'watt__ALL__'
p6014
I01
sa(dp6015
S'tube__ALL__'
p6016
I01
sS'a__ALL__'
p6017
I01
sS'gave__ALL__'
p6018
I01
sS'they__TOP__'
p6019
I01
sS'eat__BOTTOM__'
p6020
I01
sS'through__ALL__'
p6021
I01
sS'gave__TOP__'
p6022
I01
sS'eat__ALL__'
p6023
I01
sS'low__ALL__'
p6024
I01
sS'a__BOTTOM__'
p6025
I01
sS'now__BOTTOM__'
p6026
I01
sS'me__ALL__'
p6027
I01
sS'low__TOP__'
p6028
I01
sS'now__ALL__'
p6029
I01
sS'pros/con__TOP__'
p6030
I01
sS'me__TOP__'
p6031
I01
sS'they__BOTTOM__'
p6032
I01
sS'through__BOTTOM__'
p6033
I01
sS'they__ALL__'
p6034
I01
sS'pros/con__ALL__'
p6035
I01
sS'tube__BOTTOM__'
p6036
I01
sa.