(lp0
(iMeme
Meme
p1
(dp2
S'top_text'
p3
(lp4
S'What'
p5
aS"'s"
p6
aS'the'
p7
aS'best'
p8
aS'part'
p9
aS'about'
p10
aS'having'
p11
aS'sex'
p12
aS'with'
p13
aS'twenty'
p14
aS'one'
p15
aS'year'
p16
aS'olds'
p17
aS'?'
p18
asS'top_text_raw'
p19
S"What's the best part about having sex with twenty one year olds? "
p20
sS'bottom_text_raw'
p21
S" Well, there's twenty of them "
p22
sS'meme_type'
p23
Valmost-politically-correct-redneck
p24
sS'all_text'
p25
(lp26
g5
ag6
ag7
ag8
ag9
ag10
ag11
ag12
ag13
ag14
ag15
ag16
ag17
ag18
aS'Well'
p27
aS','
p28
aS'there'
p29
aS"'s"
p30
aS'twenty'
p31
aS'of'
p32
aS'them'
p33
asS'bottom_text'
p34
(lp35
g27
ag28
ag29
ag30
ag31
ag32
ag33
asba(iMeme
Meme
p36
(dp37
g3
(lp38
S'Shoot'
p39
ag28
aS'M'
p40
aS'.'
p41
aS'Shadows'
p42
aS'hair'
p43
asg19
S'Shoot, M. Shadows hair '
p44
sg21
S' Love that shit brother '
p45
sg23
Valmost-politically-correct-redneck
p46
sg25
(lp47
g39
ag28
ag40
ag41
ag42
ag43
aS'Love'
p48
aS'that'
p49
aS'shit'
p50
aS'brother'
p51
asg34
(lp52
g48
ag49
ag50
ag51
asba(iMeme
Meme
p53
(dp54
g3
(lp55
S'damnit'
p56
asg19
S'damnit '
p57
sg21
S" live365 is not takin' ma password "
p58
sg23
Valmost-politically-correct-redneck
p59
sg25
(lp60
g56
aS'live365'
p61
aS'is'
p62
aS'not'
p63
aS'takin'
p64
aS"'"
p65
aS'ma'
p66
aS'password'
p67
asg34
(lp68
g61
ag62
ag63
ag64
ag65
ag66
ag67
asba(iMeme
Meme
p69
(dp70
g3
(lp71
S'Chronologically'
p72
aS'...'
p73
ag18
asg19
S'Chronologically...? '
p74
sg21
S" Pfff I'll whoop your ass chronologically "
p75
sg23
Valmost-politically-correct-redneck
p76
sg25
(lp77
g72
ag73
ag18
aS'Pfff'
p78
aS'I'
p79
aS"'ll"
p80
aS'whoop'
p81
aS'your'
p82
aS'ass'
p83
aS'chronologically'
p84
asg34
(lp85
g78
ag79
ag80
ag81
ag82
ag83
ag84
asba(iMeme
Meme
p86
(dp87
g3
(lp88
g79
aS'know'
p89
aS'we'
p90
aS'live'
p91
aS'in'
p92
aS'Port'
p93
aS'Richey'
p94
asg19
S'I know we live in Port Richey '
p95
sg21
S" My one tooth hurts and i want to go to Spring Hill ER, throw it on my EBT card. What's the problem ?  "
p96
sg23
Valmost-politically-correct-redneck
p97
sg25
(lp98
g79
ag89
ag90
ag91
ag92
ag93
ag94
aS'My'
p99
aS'one'
p100
aS'tooth'
p101
aS'hurts'
p102
aS'and'
p103
aS'i'
p104
aS'want'
p105
aS'to'
p106
aS'go'
p107
aS'to'
p108
aS'Spring'
p109
aS'Hill'
p110
aS'ER'
p111
ag28
aS'throw'
p112
aS'it'
p113
aS'on'
p114
aS'my'
p115
aS'EBT'
p116
aS'card'
p117
ag41
aS'What'
p118
aS"'s"
p119
aS'the'
p120
aS'problem'
p121
ag18
asg34
(lp122
g99
ag100
ag101
ag102
ag103
ag104
ag105
ag106
ag107
ag108
ag109
ag110
ag111
ag28
ag112
ag113
ag114
ag115
ag116
ag117
ag41
ag118
ag119
ag120
ag121
ag18
asba(iMeme
Meme
p123
(dp124
g3
(lp125
S'Still'
p126
aS'cooler'
p127
aS'that'
p128
aS'south'
p129
aS'sydney'
p130
aS'fans'
p131
asg19
S'Still cooler that south sydney fans '
p132
sg21
S'  '
p133
sg23
Valmost-politically-correct-redneck
p134
sg25
(lp135
g126
ag127
ag128
ag129
ag130
ag131
asg34
(lp136
sba(iMeme
Meme
p137
(dp138
g3
(lp139
S'so'
p140
aS'you'
p141
aS'have'
p142
aS'that'
p143
asg19
S'so you have that  '
p144
sg21
S' v'
p145
sg23
Valmost-politically-correct-redneck
p146
sg25
(lp147
g140
ag141
ag142
ag143
aS'v'
p148
asg34
(lp149
g148
asba(iMeme
Meme
p150
(dp151
g3
(lp152
g79
aS'ai'
p153
aS"n't"
p154
aS'racist'
p155
asg19
S"I ain't racist "
p156
sg21
S' I think wiggers are ok '
p157
sg23
Valmost-politically-correct-redneck
p158
sg25
(lp159
g79
ag153
ag154
ag155
ag79
aS'think'
p160
aS'wiggers'
p161
aS'are'
p162
aS'ok'
p163
asg34
(lp164
g79
ag160
ag161
ag162
ag163
asba(iMeme
Meme
p165
(dp166
g3
(lp167
S'how'
p168
aS'yall'
p169
aS'doin'
p170
asg19
S'how yall doin  '
p171
sg21
S' welcome to Gin Gin '
p172
sg23
Valmost-politically-correct-redneck
p173
sg25
(lp174
g168
ag169
ag170
aS'welcome'
p175
aS'to'
p176
aS'Gin'
p177
aS'Gin'
p178
asg34
(lp179
g175
ag176
ag177
ag178
asba(iMeme
Meme
p180
(dp181
g3
(lp182
g79
aS'read'
p183
aS'Aljazeera'
p184
aS'for'
p185
aS'perspective'
p186
ag41
asg19
S'I read Aljazeera for perspective. '
p187
sg21
S' Its good to see what the terrorists are thinking. '
p188
sg23
Valmost-politically-correct-redneck
p189
sg25
(lp190
g79
ag183
ag184
ag185
ag186
ag41
aS'Its'
p191
aS'good'
p192
aS'to'
p193
aS'see'
p194
aS'what'
p195
aS'the'
p196
aS'terrorists'
p197
aS'are'
p198
aS'thinking'
p199
ag41
asg34
(lp200
g191
ag192
ag193
ag194
ag195
ag196
ag197
ag198
ag199
ag41
asba(iMeme
Meme
p201
(dp202
g3
(lp203
g104
aS'do'
p204
aS"n't"
p205
aS'mind'
p206
aS'gays'
p207
asg19
S"i don't mind gays "
p208
sg21
S" that's more pussy for me "
p209
sg23
Valmost-politically-correct-redneck
p210
sg25
(lp211
g104
ag204
ag205
ag206
ag207
aS'that'
p212
aS"'s"
p213
aS'more'
p214
aS'pussy'
p215
aS'for'
p216
aS'me'
p217
asg34
(lp218
g212
ag213
ag214
ag215
ag216
ag217
asba(iMeme
Meme
p219
(dp220
g3
(lp221
S'the'
p222
aS'last'
p223
aS'person'
p224
asg19
S'the last person '
p225
sg21
S' you wanna see in the woods '
p226
sg23
Valmost-politically-correct-redneck
p227
sg25
(lp228
g222
ag223
ag224
aS'you'
p229
aS'wan'
p230
aS'na'
p231
aS'see'
p232
aS'in'
p233
aS'the'
p234
aS'woods'
p235
asg34
(lp236
g229
ag230
ag231
ag232
ag233
ag234
ag235
asba(iMeme
Meme
p237
(dp238
g3
(lp239
S'There'
p240
aS'aint'
p241
aS'nothing'
p242
aS'wrong'
p243
aS'with'
p244
aS'lesbians'
p245
asg19
S'There aint nothing wrong with lesbians '
p246
sg21
S' They make great porn '
p247
sg23
Valmost-politically-correct-redneck
p248
sg25
(lp249
g240
ag241
ag242
ag243
ag244
ag245
aS'They'
p250
aS'make'
p251
aS'great'
p252
aS'porn'
p253
asg34
(lp254
g250
ag251
ag252
ag253
asba(iMeme
Meme
p255
(dp256
g3
(lp257
sg19
S' '
p258
sg21
S" That's where I met my girlfriend "
p259
sg23
Valmost-politically-correct-redneck
p260
sg25
(lp261
S'That'
p262
aS"'s"
p263
aS'where'
p264
ag79
aS'met'
p265
aS'my'
p266
aS'girlfriend'
p267
asg34
(lp268
g262
ag263
ag264
ag79
ag265
ag266
ag267
asba(iMeme
Meme
p269
(dp270
g3
(lp271
S'mallory'
p272
aS'thinks'
p273
asg19
S'mallory thinks  '
p274
sg21
S' she is a ninja  '
p275
sg23
Valmost-politically-correct-redneck
p276
sg25
(lp277
g272
ag273
aS'she'
p278
aS'is'
p279
aS'a'
p280
aS'ninja'
p281
asg34
(lp282
g278
ag279
ag280
ag281
asba(iMeme
Meme
p283
(dp284
g3
(lp285
S'Everyone'
p286
aS'is'
p287
aS'out'
p288
aS'getting'
p289
aS'married'
p290
aS'and'
p291
aS'engaged'
p292
aS'and'
p293
ag79
aS"'m"
p294
aS'just'
p295
aS'like'
p296
asg19
S"Everyone is out getting married and engaged and I'm just like "
p297
sg21
S" ladies I'm Single "
p298
sg23
Valmost-politically-correct-redneck
p299
sg25
(lp300
g286
ag287
ag288
ag289
ag290
ag291
ag292
ag293
ag79
ag294
ag295
ag296
aS'ladies'
p301
ag79
aS"'m"
p302
aS'Single'
p303
asg34
(lp304
g301
ag79
ag302
ag303
asba(iMeme
Meme
p305
(dp306
g3
(lp307
S'Dis'
p308
aS'heres'
p309
aS'my'
p310
aS'truck'
p311
asg19
S'Dis heres my truck  '
p312
sg21
S' I raised her From BIrth  '
p313
sg23
Valmost-politically-correct-redneck
p314
sg25
(lp315
g308
ag309
ag310
ag311
ag79
aS'raised'
p316
aS'her'
p317
aS'From'
p318
aS'BIrth'
p319
asg34
(lp320
g79
ag316
ag317
ag318
ag319
asba(iMeme
Meme
p321
(dp322
g3
(lp323
S'yurp'
p324
aS'taylor'
p325
ag28
asg19
S'yurp taylor, '
p326
sg21
S' gone n done blew it. '
p327
sg23
Valmost-politically-correct-redneck
p328
sg25
(lp329
g324
ag325
ag28
aS'gone'
p330
aS'n'
p331
aS'done'
p332
aS'blew'
p333
aS'it'
p334
ag41
asg34
(lp335
g330
ag331
ag332
ag333
ag334
ag41
asba(iMeme
Meme
p336
(dp337
g3
(lp338
S'Dont'
p339
aS'worry'
p340
ag79
aS'wo'
p341
aS"n't"
p342
aS'hit'
p343
aS'on'
p344
aS'you'
p345
asg19
S"Dont worry I won't hit on you "
p346
sg21
S" I don't like the dark asians "
p347
sg23
Valmost-politically-correct-redneck
p348
sg25
(lp349
g339
ag340
ag79
ag341
ag342
ag343
ag344
ag345
ag79
aS'do'
p350
aS"n't"
p351
aS'like'
p352
aS'the'
p353
aS'dark'
p354
aS'asians'
p355
asg34
(lp356
g79
ag350
ag351
ag352
ag353
ag354
ag355
asba(iMeme
Meme
p357
(dp358
g3
(lp359
g79
aS'know'
p360
aS'my'
p361
aS'me'
p362
aS'and'
p363
aS'my'
p364
aS'sister/girlfriend'
p365
aS'live'
p366
aS'in'
p367
aS'Port'
p368
aS'Richer'
p369
asg19
S'I know my me and my sister/girlfriend live in Port Richer  '
p370
sg21
S" But I wants her to go to Spring Hill ER, throw it on my EBT card. What's the problem ?  "
p371
sg23
Valmost-politically-correct-redneck
p372
sg25
(lp373
g79
ag360
ag361
ag362
ag363
ag364
ag365
ag366
ag367
ag368
ag369
aS'But'
p374
ag79
aS'wants'
p375
aS'her'
p376
aS'to'
p377
aS'go'
p378
aS'to'
p379
aS'Spring'
p380
aS'Hill'
p381
aS'ER'
p382
ag28
aS'throw'
p383
aS'it'
p384
aS'on'
p385
aS'my'
p386
aS'EBT'
p387
aS'card'
p388
ag41
aS'What'
p389
aS"'s"
p390
aS'the'
p391
aS'problem'
p392
ag18
asg34
(lp393
g374
ag79
ag375
ag376
ag377
ag378
ag379
ag380
ag381
ag382
ag28
ag383
ag384
ag385
ag386
ag387
ag388
ag41
ag389
ag390
ag391
ag392
ag18
asba(iMeme
Meme
p394
(dp395
g3
(lp396
S'So'
p397
aS'then'
p398
aS'my'
p399
aS'sister'
p400
aS'said'
p401
asg19
S'So then my sister said '
p402
sg21
S" We're out of spam how about balogna? "
p403
sg23
Valmost-politically-correct-redneck
p404
sg25
(lp405
g397
ag398
ag399
ag400
ag401
aS'We'
p406
aS"'re"
p407
aS'out'
p408
aS'of'
p409
aS'spam'
p410
aS'how'
p411
aS'about'
p412
aS'balogna'
p413
ag18
asg34
(lp414
g406
ag407
ag408
ag409
ag410
ag411
ag412
ag413
ag18
asba(iMeme
Meme
p415
(dp416
g3
(lp417
g79
aS'had'
p418
aS'to'
p419
aS'nigger'
p420
asg19
S'I had to nigger'
p421
sg21
S'rig my truck '
p422
sg23
Valmost-politically-correct-redneck
p423
sg25
(lp424
g79
ag418
ag419
ag420
aS'rig'
p425
aS'my'
p426
aS'truck'
p427
asg34
(lp428
g425
ag426
ag427
asba(iMeme
Meme
p429
(dp430
g3
(lp431
sg19
S' '
p432
sg21
S' still cooler than south syd fans '
p433
sg23
Valmost-politically-correct-redneck
p434
sg25
(lp435
S'still'
p436
aS'cooler'
p437
aS'than'
p438
aS'south'
p439
aS'syd'
p440
aS'fans'
p441
asg34
(lp442
g436
ag437
ag438
ag439
ag440
ag441
asba(iMeme
Meme
p443
(dp444
g3
(lp445
S'Shoot'
p446
ag28
ag40
ag41
aS'Shadows'
p447
aS'new'
p448
aS'haircut'
p449
asg19
S'Shoot, M. Shadows new haircut '
p450
sg21
S' Love that shit brother '
p451
sg23
Valmost-politically-correct-redneck
p452
sg25
(lp453
g446
ag28
ag40
ag41
ag447
ag448
ag449
aS'Love'
p454
aS'that'
p455
aS'shit'
p456
aS'brother'
p457
asg34
(lp458
g454
ag455
ag456
ag457
asba(iMeme
Meme
p459
(dp460
g3
(lp461
sg19
S' '
p462
sg21
S' still more class than a rabbits fan  '
p463
sg23
Valmost-politically-correct-redneck
p464
sg25
(lp465
S'still'
p466
aS'more'
p467
aS'class'
p468
aS'than'
p469
ag280
aS'rabbits'
p470
aS'fan'
p471
asg34
(lp472
g466
ag467
ag468
ag469
ag280
ag470
ag471
asba(iMeme
Meme
p473
(dp474
g3
(lp475
S'Do'
p476
aS"n't"
p477
aS'call'
p478
aS'fags'
p479
aS'fruits'
p480
asg19
S"Don't call fags fruits "
p481
sg21
S' I like fruit '
p482
sg23
Valmost-politically-correct-redneck
p483
sg25
(lp484
g476
ag477
ag478
ag479
ag480
ag79
aS'like'
p485
aS'fruit'
p486
asg34
(lp487
g79
ag485
ag486
asba(iMeme
Meme
p488
(dp489
g3
(lp490
S'VADERBILT'
p491
ag18
asg19
S'VADERBILT? '
p492
sg21
S" Shit.... That's we're I met my girlfriend "
p493
sg23
Valmost-politically-correct-redneck
p494
sg25
(lp495
g491
ag18
aS'Shit'
p496
aS'...'
p497
ag41
aS'That'
p498
aS"'s"
p499
aS'we'
p500
aS"'re"
p501
ag79
aS'met'
p502
aS'my'
p503
aS'girlfriend'
p504
asg34
(lp505
g496
ag497
ag41
ag498
ag499
ag500
ag501
ag79
ag502
ag503
ag504
asba(iMeme
Meme
p506
(dp507
g3
(lp508
S'Do'
p509
aS"n't"
p510
aS'make'
p511
aS'fun'
p512
aS'of'
p513
aS'mentally'
p514
aS'handicapped'
p515
aS'people'
p516
asg19
S"Don't make fun of mentally handicapped people                                  "
p517
sg21
S' You retard '
p518
sg23
Valmost-politically-correct-redneck
p519
sg25
(lp520
g509
ag510
ag511
ag512
ag513
ag514
ag515
ag516
aS'You'
p521
aS'retard'
p522
asg34
(lp523
g521
ag522
asba(iMeme
Meme
p524
(dp525
g3
(lp526
S'So'
p527
aS'then'
p528
aS'my'
p529
aS'wife'
p530
aS'said'
p531
asg19
S'So then my wife said '
p532
sg21
S" We're out of spam how about balogna "
p533
sg23
Valmost-politically-correct-redneck
p534
sg25
(lp535
g527
ag528
ag529
ag530
ag531
aS'We'
p536
aS"'re"
p537
aS'out'
p538
aS'of'
p539
aS'spam'
p540
aS'how'
p541
aS'about'
p542
aS'balogna'
p543
asg34
(lp544
g536
ag537
ag538
ag539
ag540
ag541
ag542
ag543
asba(iMeme
Meme
p545
(dp546
g3
(lp547
S'yurp'
p548
aS'taylor'
p549
ag28
asg19
S'yurp taylor, '
p550
sg21
S' gone n done blew it. '
p551
sg23
Valmost-politically-correct-redneck
p552
sg25
(lp553
g548
ag549
ag28
aS'gone'
p554
ag331
aS'done'
p555
aS'blew'
p556
aS'it'
p557
ag41
asg34
(lp558
g554
ag331
ag555
ag556
ag557
ag41
asba(iMeme
Meme
p559
(dp560
g3
(lp561
S'talk'
p562
aS'to'
p563
ag280
aS'stranger'
p564
ag18
asg19
S'talk to a stranger? '
p565
sg21
S' fack off '
p566
sg23
Valmost-politically-correct-redneck
p567
sg25
(lp568
g562
ag563
ag280
ag564
ag18
aS'fack'
p569
aS'off'
p570
asg34
(lp571
g569
ag570
asba(iMeme
Meme
p572
(dp573
g3
(lp574
S'DS'
p575
aS'is'
p576
aS'now'
p577
aS'closed'
p578
asg19
S'DS is now closed '
p579
sg21
S'  '
p580
sg23
Valmost-politically-correct-redneck
p581
sg25
(lp582
g575
ag576
ag577
ag578
asg34
(lp583
sba(iMeme
Meme
p584
(dp585
g3
(lp586
S'This'
p587
aS'is'
p588
aS'merica'
p589
asg19
S'This is merica '
p590
sg21
S' and beau gives no fucks '
p591
sg23
Valmost-politically-correct-redneck
p592
sg25
(lp593
g587
ag588
ag589
aS'and'
p594
aS'beau'
p595
aS'gives'
p596
aS'no'
p597
aS'fucks'
p598
asg34
(lp599
g594
ag595
ag596
ag597
ag598
asba(iMeme
Meme
p600
(dp601
g3
(lp602
S'``'
p603
ag79
aS'respect'
p604
aS'the'
p605
aS'hell'
p606
aS'out'
p607
aS'of'
p608
aS'her'
p609
ag28
aS'she'
p610
aS'does'
p611
aS'the'
p612
aS'jobs'
p613
aS'of'
p614
aS'5'
p615
aS'men'
p616
aS'around'
p617
aS'here'
p618
ag41
asg19
S'"I respect the hell out of her, she does the jobs of 5 men around here. '
p619
sg21
S' She\'s pretty cute for a chick with purple hair, too." '
p620
sg23
Valmost-politically-correct-redneck
p621
sg25
(lp622
g603
ag79
ag604
ag605
ag606
ag607
ag608
ag609
ag28
ag610
ag611
ag612
ag613
ag614
ag615
ag616
ag617
ag618
ag41
aS'She'
p623
aS"'s"
p624
aS'pretty'
p625
aS'cute'
p626
aS'for'
p627
ag280
aS'chick'
p628
aS'with'
p629
aS'purple'
p630
aS'hair'
p631
ag28
aS'too'
p632
ag41
aS"''"
p633
asg34
(lp634
g623
ag624
ag625
ag626
ag627
ag280
ag628
ag629
ag630
ag631
ag28
ag632
ag41
ag633
asba(iMeme
Meme
p635
(dp636
g3
(lp637
S'kelly'
p638
aS'be'
p639
aS'like'
p640
aS'...'
p641
aS'...'
p642
ag41
asg19
S'kelly be like....... '
p643
sg21
S' IM PREGNANT!! '
p644
sg23
Valmost-politically-correct-redneck
p645
sg25
(lp646
g638
ag639
ag640
ag641
ag642
ag41
aS'IM'
p647
aS'PREGNANT'
p648
aS'!'
p649
ag649
asg34
(lp650
g647
ag648
ag649
ag649
asba(iMeme
Meme
p651
(dp652
g3
(lp653
S'It'
p654
aS'do'
p655
aS"n't"
p656
aS'matter'
p657
aS'whose'
p658
aS'milk'
p659
aS'is'
p660
aS'in'
p661
aS'front'
p662
asg19
S"It don't matter whose milk is in front "
p663
sg21
S" As long as it ain't colored "
p664
sg23
Valmost-politically-correct-redneck
p665
sg25
(lp666
g654
ag655
ag656
ag657
ag658
ag659
ag660
ag661
ag662
aS'As'
p667
aS'long'
p668
aS'as'
p669
aS'it'
p670
aS'ai'
p671
aS"n't"
p672
aS'colored'
p673
asg34
(lp674
g667
ag668
ag669
ag670
ag671
ag672
ag673
asba(iMeme
Meme
p675
(dp676
g3
(lp677
S'That'
p678
aS'3rd'
p679
aS'plate'
p680
aS'from'
p681
aS'the'
p682
aS'salad'
p683
aS'bar'
p684
aS'at'
p685
aS'Deadeye'
p686
aS'Dick'
p687
aS"'s"
p688
asg19
S"That 3rd plate from the salad bar at Deadeye Dick's "
p689
sg21
S' Was a bad choice.. '
p690
sg23
Valmost-politically-correct-redneck
p691
sg25
(lp692
g678
ag679
ag680
ag681
ag682
ag683
ag684
ag685
ag686
ag687
ag688
aS'Was'
p693
ag280
aS'bad'
p694
aS'choice..'
p695
asg34
(lp696
g693
ag280
ag694
ag695
asba(iMeme
Meme
p697
(dp698
g3
(lp699
S'Black'
p700
aS'Folk'
p701
aS'are'
p702
aS'people'
p703
aS'to'
p704
asg19
S'Black Folk are people to '
p705
sg21
S' they are just black '
p706
sg23
Valmost-politically-correct-redneck
p707
sg25
(lp708
g700
ag701
ag702
ag703
ag704
aS'they'
p709
aS'are'
p710
aS'just'
p711
aS'black'
p712
asg34
(lp713
g709
ag710
ag711
ag712
asba(iMeme
Meme
p714
(dp715
g3
(lp716
S'The'
p717
aS'worlds'
p718
aS'sexiest'
p719
aS'man'
p720
aS'...'
p721
asg19
S'The worlds sexiest man... '
p722
sg21
S' is not the love child of Joe Dirt and Billy Ray Cyrus '
p723
sg23
Valmost-politically-correct-redneck
p724
sg25
(lp725
g717
ag718
ag719
ag720
ag721
aS'is'
p726
aS'not'
p727
aS'the'
p728
aS'love'
p729
aS'child'
p730
aS'of'
p731
aS'Joe'
p732
aS'Dirt'
p733
aS'and'
p734
aS'Billy'
p735
aS'Ray'
p736
aS'Cyrus'
p737
asg34
(lp738
g726
ag727
ag728
ag729
ag730
ag731
ag732
ag733
ag734
ag735
ag736
ag737
asba(iMeme
Meme
p739
(dp740
g3
(lp741
g104
aS'put'
p742
aS'the'
p743
aS'std'
p744
aS'in'
p745
aS'stud'
p746
asg19
S'i put the std in stud '
p747
sg21
S' and now all i need is u '
p748
sg23
Valmost-politically-correct-redneck
p749
sg25
(lp750
g104
ag742
ag743
ag744
ag745
ag746
aS'and'
p751
aS'now'
p752
aS'all'
p753
ag104
aS'need'
p754
aS'is'
p755
aS'u'
p756
asg34
(lp757
g751
ag752
ag753
ag104
ag754
ag755
ag756
asba(iMeme
Meme
p758
(dp759
g3
(lp760
S'nah'
p761
aS'Joe'
p762
aS'Dirt'
p763
aS'ai'
p764
aS"n't"
p765
aS'``'
p766
aS'MY'
p767
aS"''"
p768
aS'cousin'
p769
aS';'
p770
aS'he'
p771
aS"'s"
p772
aS'my'
p773
aS'daddies'
p774
ag28
aS'brother'
p775
aS"'s"
p776
ag28
aS'step'
p777
aS'uncle'
p778
aS"'s"
p779
ag28
aS'mother'
p780
aS"'s"
p781
ag28
aS'twice'
p782
aS'removed'
p783
aS'sister'
p784
aS"'s"
p785
ag28
asg19
S' nah Joe Dirt ain\'t "MY" cousin;  he\'s my daddies,  brother\'s,  step uncle\'s,  mother\'s,  twice removed  sister\'s, '
p786
sg21
S" best friend's,  baby daddy's,  mechanics,  forth customer on Saturday's,  auntie's,  friend.   So yeah I guess you could say we like cousins..... "
p787
sg23
Valmost-politically-correct-redneck
p788
sg25
(lp789
g761
ag762
ag763
ag764
ag765
ag766
ag767
ag768
ag769
ag770
ag771
ag772
ag773
ag774
ag28
ag775
ag776
ag28
ag777
ag778
ag779
ag28
ag780
ag781
ag28
ag782
ag783
ag784
ag785
ag28
aS'best'
p790
aS'friend'
p791
aS"'s"
p792
ag28
aS'baby'
p793
aS'daddy'
p794
aS"'s"
p795
ag28
aS'mechanics'
p796
ag28
aS'forth'
p797
aS'customer'
p798
aS'on'
p799
aS'Saturday'
p800
aS"'s"
p801
ag28
aS'auntie'
p802
aS"'s"
p803
ag28
aS'friend'
p804
ag41
aS'So'
p805
aS'yeah'
p806
ag79
aS'guess'
p807
aS'you'
p808
aS'could'
p809
aS'say'
p810
aS'we'
p811
aS'like'
p812
aS'cousins'
p813
aS'...'
p814
aS'..'
p815
asg34
(lp816
g790
ag791
ag792
ag28
ag793
ag794
ag795
ag28
ag796
ag28
ag797
ag798
ag799
ag800
ag801
ag28
ag802
ag803
ag28
ag804
ag41
ag805
ag806
ag79
ag807
ag808
ag809
ag810
ag811
ag812
ag813
ag814
ag815
asba(iMeme
Meme
p817
(dp818
g3
(lp819
S'And'
p820
ag79
aS"'m"
p821
aS'from'
p822
aS'moon'
p823
aS'lake'
p824
aS'...'
p825
aS'...'
p826
ag41
asg19
S"And I'm from moon lake....... "
p827
sg21
S' Bitch!!!!! '
p828
sg23
Valmost-politically-correct-redneck
p829
sg25
(lp830
g820
ag79
ag821
ag822
ag823
ag824
ag825
ag826
ag41
aS'Bitch'
p831
ag649
ag649
ag649
ag649
ag649
asg34
(lp832
g831
ag649
ag649
ag649
ag649
ag649
asba(iMeme
Meme
p833
(dp834
g3
(lp835
S'OP'
p836
aS'has'
p837
ag280
aS'racist'
p838
aS'thought'
p839
asg19
S'OP has a racist thought '
p840
sg21
S' Pretends his friend says it '
p841
sg23
Valmost-politically-correct-redneck
p842
sg25
(lp843
g836
ag837
ag280
ag838
ag839
aS'Pretends'
p844
aS'his'
p845
aS'friend'
p846
aS'says'
p847
aS'it'
p848
asg34
(lp849
g844
ag845
ag846
ag847
ag848
asba(iMeme
Meme
p850
(dp851
g3
(lp852
S'why'
p853
aS'the'
p854
aS'hell'
p855
aS'would'
p856
aS'you'
p857
aS'beat'
p858
aS'your'
p859
aS'wife'
p860
asg19
S'why the hell would you beat your wife '
p861
sg21
S" it's kinda like keyin' your own truck "
p862
sg23
Valmost-politically-correct-redneck
p863
sg25
(lp864
g853
ag854
ag855
ag856
ag857
ag858
ag859
ag860
aS'it'
p865
aS"'s"
p866
aS'kinda'
p867
aS'like'
p868
aS'keyin'
p869
ag65
aS'your'
p870
aS'own'
p871
aS'truck'
p872
asg34
(lp873
g865
ag866
ag867
ag868
ag869
ag65
ag870
ag871
ag872
asba(iMeme
Meme
p874
(dp875
g3
(lp876
S'Hey'
p877
ag79
aS'really'
p878
aS'liked'
p879
aS'your'
p880
aS'speech'
p881
aS'about'
p882
aS'muslim'
p883
aS'tolorance'
p884
asg19
S'Hey I really liked your speech about muslim tolorance '
p885
sg21
S' it was the bomb '
p886
sg23
Valmost-politically-correct-redneck
p887
sg25
(lp888
g877
ag79
ag878
ag879
ag880
ag881
ag882
ag883
ag884
aS'it'
p889
aS'was'
p890
aS'the'
p891
aS'bomb'
p892
asg34
(lp893
g889
ag890
ag891
ag892
asba(iMeme
Meme
p894
(dp895
g3
(lp896
S'Of'
p897
aS'course'
p898
aS'these'
p899
aS'Asians'
p900
aS'are'
p901
aS'good'
p902
aS'at'
p903
aS'baseball'
p904
asg19
S'Of course these Asians are good at baseball '
p905
sg21
S' it has been their life since they were 2 '
p906
sg23
Valmost-politically-correct-redneck
p907
sg25
(lp908
g897
ag898
ag899
ag900
ag901
ag902
ag903
ag904
aS'it'
p909
aS'has'
p910
aS'been'
p911
aS'their'
p912
aS'life'
p913
aS'since'
p914
aS'they'
p915
aS'were'
p916
aS'2'
p917
asg34
(lp918
g909
ag910
ag911
ag912
ag913
ag914
ag915
ag916
ag917
asba(iMeme
Meme
p919
(dp920
g3
(lp921
g79
aS'do'
p922
aS"n't"
p923
aS'know'
p924
aS'why'
p925
aS'black'
p926
aS'people'
p927
aS'keep'
p928
aS'complaining'
p929
aS'about'
p930
aS'slavery'
p931
ag41
aS'They'
p932
aS'are'
p933
aS"n't"
p934
aS'slaves'
p935
aS'anymore'
p936
ag41
asg19
S"I don't know why black people keep complaining about slavery. They aren't slaves anymore. "
p937
sg21
S' They should thank us for bringing them over here. '
p938
sg23
Valmost-politically-correct-redneck
p939
sg25
(lp940
g79
ag922
ag923
ag924
ag925
ag926
ag927
ag928
ag929
ag930
ag931
ag41
ag932
ag933
ag934
ag935
ag936
ag41
aS'They'
p941
aS'should'
p942
aS'thank'
p943
aS'us'
p944
aS'for'
p945
aS'bringing'
p946
aS'them'
p947
aS'over'
p948
aS'here'
p949
ag41
asg34
(lp950
g941
ag942
ag943
ag944
ag945
ag946
ag947
ag948
ag949
ag41
asba(iMeme
Meme
p951
(dp952
g3
(lp953
S'standerd'
p954
aS'mullet'
p955
asg19
S'standerd mullet  '
p956
sg21
S' comes with camaro '
p957
sg23
Valmost-politically-correct-redneck
p958
sg25
(lp959
g954
ag955
aS'comes'
p960
aS'with'
p961
aS'camaro'
p962
asg34
(lp963
g960
ag961
ag962
asba(iMeme
Meme
p964
(dp965
g3
(lp966
S'``'
p967
aS'Hey'
p968
aS'stop'
p969
aS'being'
p970
aS'raciest'
p971
aS"''"
p972
asg19
S'"Hey stop being raciest" '
p973
sg21
S' "before i beat your gay yellow ass" '
p974
sg23
Valmost-politically-correct-redneck
p975
sg25
(lp976
g967
ag968
ag969
ag970
ag971
ag972
aS'``'
p977
aS'before'
p978
ag104
aS'beat'
p979
aS'your'
p980
aS'gay'
p981
aS'yellow'
p982
aS'ass'
p983
aS"''"
p984
asg34
(lp985
g977
ag978
ag104
ag979
ag980
ag981
ag982
ag983
ag984
asba.