(lp0
(iMeme
Meme
p1
(dp2
S'top_text'
p3
(lp4
S'im'
p5
aS'not'
p6
aS'saying'
p7
aS'its'
p8
aS'aliens..'
p9
asS'top_text_raw'
p10
S'im not saying its aliens..'
p11
sS'bottom_text_raw'
p12
S' but its aliens.'
p13
sS'meme_type'
p14
Vancient-aliens-guy
p15
sS'all_text'
p16
(lp17
g5
ag6
ag7
ag8
ag9
aS'but'
p18
aS'its'
p19
aS'aliens'
p20
aS'.'
p21
asS'bottom_text'
p22
(lp23
g18
ag19
ag20
ag21
asba(iMeme
Meme
p24
(dp25
g3
(lp26
S'history'
p27
aS'channel'
p28
aS'hd'
p29
aS'?'
p30
asg10
S'history channel hd?'
p31
sg12
S' aliens'
p32
sg14
Vancient-aliens-guy
p33
sg16
(lp34
g27
ag28
ag29
ag30
aS'aliens'
p35
asg22
(lp36
g35
asba(iMeme
Meme
p37
(dp38
g3
(lp39
S'its'
p40
aS'not'
p41
aS'aliens'
p42
asg10
S'its not aliens'
p43
sg12
S' but im almost certain that its aliens'
p44
sg14
Vancient-aliens-guy
p45
sg16
(lp46
g40
ag41
ag42
aS'but'
p47
aS'im'
p48
aS'almost'
p49
aS'certain'
p50
aS'that'
p51
aS'its'
p52
aS'aliens'
p53
asg22
(lp54
g47
ag48
ag49
ag50
ag51
ag52
ag53
asba(iMeme
Meme
p55
(dp56
g3
(lp57
S'who'
p58
aS'killed'
p59
aS'tupac'
p60
asg10
S'who killed tupac'
p61
sg12
S' aliens'
p62
sg14
Vancient-aliens-guy
p63
sg16
(lp64
g58
ag59
ag60
aS'aliens'
p65
asg22
(lp66
g65
asba(iMeme
Meme
p67
(dp68
g3
(lp69
S'i'
p70
aS'cant'
p71
aS'explain'
p72
aS'it'
p73
asg10
S'i cant explain it'
p74
sg12
S' so it must be real'
p75
sg14
Vancient-aliens-guy
p76
sg16
(lp77
g70
ag71
ag72
ag73
aS'so'
p78
aS'it'
p79
aS'must'
p80
aS'be'
p81
aS'real'
p82
asg22
(lp83
g78
ag79
ag80
ag81
ag82
asba(iMeme
Meme
p84
(dp85
g3
(lp86
S'glue'
p87
aS'doesnt'
p88
aS'stick'
p89
aS'to'
p90
aS'the'
p91
aS'inside'
p92
aS'of'
p93
aS'the'
p94
aS'bottle'
p95
ag30
asg10
S'glue doesnt stick to the inside of the bottle?'
p96
sg12
S' ancient alien technology.'
p97
sg14
Vancient-aliens-guy
p98
sg16
(lp99
g87
ag88
ag89
ag90
ag91
ag92
ag93
ag94
ag95
ag30
aS'ancient'
p100
aS'alien'
p101
aS'technology'
p102
ag21
asg22
(lp103
g100
ag101
ag102
ag21
asba(iMeme
Meme
p104
(dp105
g3
(lp106
g70
aS'dont'
p107
aS'care'
p108
aS'what'
p109
aS'you'
p110
aS'say'
p111
asg10
S'i dont care what you say'
p112
sg12
S' ancient fucking aliens'
p113
sg14
Vancient-aliens-guy
p114
sg16
(lp115
g70
ag107
ag108
ag109
ag110
ag111
aS'ancient'
p116
aS'fucking'
p117
aS'aliens'
p118
asg22
(lp119
g116
ag117
ag118
asba(iMeme
Meme
p120
(dp121
g3
(lp122
S'elenin'
p123
aS'is'
p124
aS'a'
p125
aS'distraction'
p126
asg10
S'elenin is a distraction'
p127
sg12
S' 2005 yu55   11/9/11'
p128
sg14
Vancient-aliens-guy
p129
sg16
(lp130
g123
ag124
ag125
ag126
aS'2005'
p131
aS'yu55'
p132
aS'11/9/11'
p133
asg22
(lp134
g131
ag132
ag133
asba(iMeme
Meme
p135
(dp136
g3
(lp137
g70
aS'cant'
p138
aS'explain'
p139
aS'it'
p140
asg10
S'i cant explain it'
p141
sg12
S' so it must be aliens'
p142
sg14
Vancient-aliens-guy
p143
sg16
(lp144
g70
ag138
ag139
ag140
aS'so'
p145
aS'it'
p146
aS'must'
p147
aS'be'
p148
aS'aliens'
p149
asg22
(lp150
g145
ag146
ag147
ag148
ag149
asba(iMeme
Meme
p151
(dp152
g3
(lp153
S'9/11'
p154
aS'was'
p155
aS'not'
p156
aS'perpetrated'
p157
aS'by'
p158
aS'bush..'
p159
asg10
S'9/11 was not perpetrated by bush..'
p160
sg12
S' it was aliens.'
p161
sg14
Vancient-aliens-guy
p162
sg16
(lp163
g154
ag155
ag156
ag157
ag158
ag159
aS'it'
p164
aS'was'
p165
aS'aliens'
p166
ag21
asg22
(lp167
g164
ag165
ag166
ag21
asba(iMeme
Meme
p168
(dp169
g3
(lp170
g70
aS'dont'
p171
aS'know'
p172
aS'what'
p173
aS'you'
p174
aS'just'
p175
aS'said'
p176
asg10
S'i dont know what you just said'
p177
sg12
S' but the answer is aliens'
p178
sg14
Vancient-aliens-guy
p179
sg16
(lp180
g70
ag171
ag172
ag173
ag174
ag175
ag176
aS'but'
p181
aS'the'
p182
aS'answer'
p183
aS'is'
p184
aS'aliens'
p185
asg22
(lp186
g181
ag182
ag183
ag184
ag185
asba(iMeme
Meme
p187
(dp188
g3
(lp189
S'53'
p190
asg10
S'53'
p191
sg12
S' ancient aliens are stealing time.'
p192
sg14
Vancient-aliens-guy
p193
sg16
(lp194
g190
aS'ancient'
p195
aS'aliens'
p196
aS'are'
p197
aS'stealing'
p198
aS'time'
p199
ag21
asg22
(lp200
g195
ag196
ag197
ag198
ag199
ag21
asba(iMeme
Meme
p201
(dp202
g3
(lp203
g70
aS'dont'
p204
aS'know'
p205
asg10
S'i dont know'
p206
sg12
S' therefore aliens'
p207
sg14
Vancient-aliens-guy
p208
sg16
(lp209
g70
ag204
ag205
aS'therefore'
p210
aS'aliens'
p211
asg22
(lp212
g210
ag211
asba(iMeme
Meme
p213
(dp214
g3
(lp215
S'im'
p216
aS'not'
p217
aS'saying'
p218
aS'it'
p219
aS'was'
p220
aS'nanomachines'
p221
aS'but'
p222
asg10
S'im not saying it was nanomachines but'
p223
sg12
S' it was nanomachines'
p224
sg14
Vancient-aliens-guy
p225
sg16
(lp226
g216
ag217
ag218
ag219
ag220
ag221
ag222
aS'it'
p227
aS'was'
p228
aS'nanomachines'
p229
asg22
(lp230
g227
ag228
ag229
asba(iMeme
Meme
p231
(dp232
g3
(lp233
S'my'
p234
aS'hair'
p235
asg10
S'my hair'
p236
sg12
S' is aliens'
p237
sg14
Vancient-aliens-guy
p238
sg16
(lp239
g234
ag235
aS'is'
p240
aS'aliens'
p241
asg22
(lp242
g240
ag241
asba(iMeme
Meme
p243
(dp244
g3
(lp245
S'theres'
p246
aS'only'
p247
aS'one'
p248
aS'thing'
p249
aS'better'
p250
aS'than'
p251
aS'9gag'
p252
asg10
S'theres only one thing better than 9gag'
p253
sg12
S' aliens'
p254
sg14
Vancient-aliens-guy
p255
sg16
(lp256
g246
ag247
ag248
ag249
ag250
ag251
ag252
aS'aliens'
p257
asg22
(lp258
g257
asba(iMeme
Meme
p259
(dp260
g3
(lp261
S'it'
p262
aS'was'
p263
aS'aliens'
p264
asg10
S'it was aliens'
p265
sg12
S' problem?'
p266
sg14
Vancient-aliens-guy
p267
sg16
(lp268
g262
ag263
ag264
aS'problem'
p269
ag30
asg22
(lp270
g269
ag30
asba(iMeme
Meme
p271
(dp272
g3
(lp273
S'patches'
p274
ag30
ag30
asg10
S'patches??'
p275
sg12
S' ancient aliens invented them'
p276
sg14
Vancient-aliens-guy
p277
sg16
(lp278
g274
ag30
ag30
aS'ancient'
p279
aS'aliens'
p280
aS'invented'
p281
aS'them'
p282
asg22
(lp283
g279
ag280
ag281
ag282
asba(iMeme
Meme
p284
(dp285
g3
(lp286
S'ancient'
p287
aS'alien'
p288
aS'guy'
p289
aS'meme'
p290
ag30
asg10
S'ancient alien guy meme?'
p291
sg12
S' totally aliens !'
p292
sg14
Vancient-aliens-guy
p293
sg16
(lp294
g287
ag288
ag289
ag290
ag30
aS'totally'
p295
aS'aliens'
p296
aS'!'
p297
asg22
(lp298
g295
ag296
ag297
asba(iMeme
Meme
p299
(dp300
g3
(lp301
S'im'
p302
aS'not'
p303
aS'saying'
p304
aS'it'
p305
aS'was'
p306
aS'aliens'
p307
asg10
S'im not saying it was aliens'
p308
sg12
S' but it was definitely aliens'
p309
sg14
Vancient-aliens-guy
p310
sg16
(lp311
g302
ag303
ag304
ag305
ag306
ag307
aS'but'
p312
aS'it'
p313
aS'was'
p314
aS'definitely'
p315
aS'aliens'
p316
asg22
(lp317
g312
ag313
ag314
ag315
ag316
asba(iMeme
Meme
p318
(dp319
g3
(lp320
S'your'
p321
aS'argument'
p322
aS'is'
p323
aS'invalid'
p324
asg10
S'your argument is invalid'
p325
sg12
S' because aliens.'
p326
sg14
Vancient-aliens-guy
p327
sg16
(lp328
g321
ag322
ag323
ag324
aS'because'
p329
aS'aliens'
p330
ag21
asg22
(lp331
g329
ag330
ag21
asba(iMeme
Meme
p332
(dp333
g3
(lp334
S'ancient'
p335
aS'aliens'
p336
aS'guy'
p337
asg10
S'ancient aliens guy'
p338
sg12
S' fat kids..'
p339
sg14
Vancient-aliens-guy
p340
sg16
(lp341
g335
ag336
ag337
aS'fat'
p342
aS'kids..'
p343
asg22
(lp344
g342
ag343
asba(iMeme
Meme
p345
(dp346
g3
(lp347
S'ancient'
p348
aS'aliens'
p349
aS'guy'
p350
aS'thread'
p351
aS'in'
p352
aS'the'
p353
aS'fuzzy'
p354
ag30
asg10
S'ancient aliens guy thread in the fuzzy?'
p355
sg12
S' caused by aliens'
p356
sg14
Vancient-aliens-guy
p357
sg16
(lp358
g348
ag349
ag350
ag351
ag352
ag353
ag354
ag30
aS'caused'
p359
aS'by'
p360
aS'aliens'
p361
asg22
(lp362
g359
ag360
ag361
asba(iMeme
Meme
p363
(dp364
g3
(lp365
g70
aS'dont'
p366
aS'know'
p367
asg10
S'i dont know'
p368
sg12
S' so aliens!'
p369
sg14
Vancient-aliens-guy
p370
sg16
(lp371
g70
ag366
ag367
aS'so'
p372
aS'aliens'
p373
ag297
asg22
(lp374
g372
ag373
ag297
asba(iMeme
Meme
p375
(dp376
g3
(lp377
S'the'
p378
aS'annunaki'
p379
aS'came'
p380
aS'to'
p381
aS'us'
p382
aS'with'
p383
aS'one'
p384
aS'burning'
p385
aS'question:'
p386
asg10
S'the annunaki came to us with one burning question:'
p387
sg12
S' will it blend?'
p388
sg14
Vancient-aliens-guy
p389
sg16
(lp390
g378
ag379
ag380
ag381
ag382
ag383
ag384
ag385
ag386
aS'will'
p391
aS'it'
p392
aS'blend'
p393
ag30
asg22
(lp394
g391
ag392
ag393
ag30
asba(iMeme
Meme
p395
(dp396
g3
(lp397
g70
aS'love'
p398
aS'you'
p399
aS'this'
p400
aS'much'
p401
asg10
S'i love you this much'
p402
sg12
S' also aliens!'
p403
sg14
Vancient-aliens-guy
p404
sg16
(lp405
g70
ag398
ag399
ag400
ag401
aS'also'
p406
aS'aliens'
p407
ag297
asg22
(lp408
g406
ag407
ag297
asba(iMeme
Meme
p409
(dp410
g3
(lp411
S'not'
p412
ag125
aS'cool'
p413
aS'story'
p414
asg10
S'not a cool story'
p415
sg12
S' bro.'
p416
sg14
Vancient-aliens-guy
p417
sg16
(lp418
g412
ag125
ag413
ag414
aS'bro'
p419
ag21
asg22
(lp420
g419
ag21
asba(iMeme
Meme
p421
(dp422
g3
(lp423
S'the'
p424
aS'anunnaki'
p425
asg10
S'the anunnaki'
p426
sg12
S' or those whom which the heavens came..'
p427
sg14
Vancient-aliens-guy
p428
sg16
(lp429
g424
ag425
aS'or'
p430
aS'those'
p431
aS'whom'
p432
aS'which'
p433
aS'the'
p434
aS'heavens'
p435
aS'came..'
p436
asg22
(lp437
g430
ag431
ag432
ag433
ag434
ag435
ag436
asba(iMeme
Meme
p438
(dp439
g3
(lp440
S'the'
p441
aS'history'
p442
aS'channel'
p443
ag30
asg10
S'the history channel?'
p444
sg12
S' ancient aliens'
p445
sg14
Vancient-aliens-guy
p446
sg16
(lp447
g441
ag442
ag443
ag30
aS'ancient'
p448
aS'aliens'
p449
asg22
(lp450
g448
ag449
asba(iMeme
Meme
p451
(dp452
g3
(lp453
S'my'
p454
aS'hair'
p455
ag30
asg10
S'my hair?'
p456
sg12
S' aliens did it'
p457
sg14
Vancient-aliens-guy
p458
sg16
(lp459
g454
ag455
ag30
aS'aliens'
p460
aS'did'
p461
aS'it'
p462
asg22
(lp463
g460
ag461
ag462
asba(iMeme
Meme
p464
(dp465
g3
(lp466
S'who'
p467
aS'invented'
p468
aS'big'
p469
aS'ol'
p470
aS'titties'
p471
ag30
asg10
S'who invented big ol titties?'
p472
sg12
S' aliens'
p473
sg14
Vancient-aliens-guy
p474
sg16
(lp475
g467
ag468
ag469
ag470
ag471
ag30
aS'aliens'
p476
asg22
(lp477
g476
asba(iMeme
Meme
p478
(dp479
g3
(lp480
S'switch'
p481
aS'to'
p482
aS'history'
p483
aS'channel'
p484
asg10
S'switch to history channel'
p485
sg12
S' see this guy and change the fuck back'
p486
sg14
Vancient-aliens-guy
p487
sg16
(lp488
g481
ag482
ag483
ag484
aS'see'
p489
aS'this'
p490
aS'guy'
p491
aS'and'
p492
aS'change'
p493
aS'the'
p494
aS'fuck'
p495
aS'back'
p496
asg22
(lp497
g489
ag490
ag491
ag492
ag493
ag494
ag495
ag496
asba(iMeme
Meme
p498
(dp499
g3
(lp500
S'cant'
p501
aS'explain'
p502
aS'it'
p503
ag30
asg10
S'cant explain it?'
p504
sg12
S' aliens'
p505
sg14
Vancient-aliens-guy
p506
sg16
(lp507
g501
ag502
ag503
ag30
aS'aliens'
p508
asg22
(lp509
g508
asba(iMeme
Meme
p510
(dp511
g3
(lp512
S'im'
p513
aS'not'
p514
aS'saying'
p515
aS'its'
p516
aS'fake'
p517
asg10
S'im not saying its fake'
p518
sg12
S' but its fake'
p519
sg14
Vancient-aliens-guy
p520
sg16
(lp521
g513
ag514
ag515
ag516
ag517
aS'but'
p522
aS'its'
p523
aS'fake'
p524
asg22
(lp525
g522
ag523
ag524
asba(iMeme
Meme
p526
(dp527
g3
(lp528
S'is'
p529
aS'such'
p530
ag125
aS'thing'
p531
aS'even'
p532
aS'possible'
p533
ag30
asg10
S'is such a thing even possible?'
p534
sg12
S' yes it is!'
p535
sg14
Vancient-aliens-guy
p536
sg16
(lp537
g529
ag530
ag125
ag531
ag532
ag533
ag30
aS'yes'
p538
aS'it'
p539
aS'is'
p540
ag297
asg22
(lp541
g538
ag539
ag540
ag297
asba(iMeme
Meme
p542
(dp543
g3
(lp544
S'ancient'
p545
aS'aliens'
p546
asg10
S'ancient aliens'
p547
sg12
S' ancient cough syrup?'
p548
sg14
Vancient-aliens-guy
p549
sg16
(lp550
g545
ag546
aS'ancient'
p551
aS'cough'
p552
aS'syrup'
p553
ag30
asg22
(lp554
g551
ag552
ag553
ag30
asba(iMeme
Meme
p555
(dp556
g3
(lp557
g70
aS'used'
p558
aS'to'
p559
aS'be'
p560
aS'an'
p561
aS'adventurer'
p562
aS'like'
p563
aS'you'
p564
asg10
S'i used to be an adventurer like you'
p565
sg12
S' then ancient aliens happened'
p566
sg14
Vancient-aliens-guy
p567
sg16
(lp568
g70
ag558
ag559
ag560
ag561
ag562
ag563
ag564
aS'then'
p569
aS'ancient'
p570
aS'aliens'
p571
aS'happened'
p572
asg22
(lp573
g569
ag570
ag571
ag572
asba(iMeme
Meme
p574
(dp575
g3
(lp576
S'logic'
p577
ag30
aS'screw'
p578
aS'that'
p579
ag21
asg10
S'logic? screw that.'
p580
sg12
S' it was aliens'
p581
sg14
Vancient-aliens-guy
p582
sg16
(lp583
g577
ag30
ag578
ag579
ag21
aS'it'
p584
aS'was'
p585
aS'aliens'
p586
asg22
(lp587
g584
ag585
ag586
asba(iMeme
Meme
p588
(dp589
g3
(lp590
S'fucking'
p591
aS'magnets'
p592
asg10
S'fucking magnets'
p593
sg12
S' how do they work?'
p594
sg14
Vancient-aliens-guy
p595
sg16
(lp596
g591
ag592
aS'how'
p597
aS'do'
p598
aS'they'
p599
aS'work'
p600
ag30
asg22
(lp601
g597
ag598
ag599
ag600
ag30
asba(iMeme
Meme
p602
(dp603
g3
(lp604
S'turn'
p605
aS'on'
p606
aS'google'
p607
aS'maps'
p608
asg10
S'turn on google maps'
p609
sg12
S' search for 47.110579'
p610
sg14
Vancient-aliens-guy
p611
sg16
(lp612
g605
ag606
ag607
ag608
aS'search'
p613
aS'for'
p614
aS'47.110579'
p615
asg22
(lp616
g613
ag614
ag615
asba(iMeme
Meme
p617
(dp618
g3
(lp619
S'dubstep'
p620
asg10
S'dubstep'
p621
sg12
S' was made by aliens in the jurassic period'
p622
sg14
Vancient-aliens-guy
p623
sg16
(lp624
g620
aS'was'
p625
aS'made'
p626
aS'by'
p627
aS'aliens'
p628
aS'in'
p629
aS'the'
p630
aS'jurassic'
p631
aS'period'
p632
asg22
(lp633
g625
ag626
ag627
ag628
ag629
ag630
ag631
ag632
asba(iMeme
Meme
p634
(dp635
g3
(lp636
S'only'
p637
aS'one'
p638
aS'explanation'
p639
asg10
S'only one explanation'
p640
sg12
S' aliens'
p641
sg14
Vancient-aliens-guy
p642
sg16
(lp643
g637
ag638
ag639
aS'aliens'
p644
asg22
(lp645
g644
asba(iMeme
Meme
p646
(dp647
g3
(lp648
S'aliens'
p649
asg10
S'aliens'
p650
sg12
S' you cant explain that'
p651
sg14
Vancient-aliens-guy
p652
sg16
(lp653
g649
aS'you'
p654
aS'cant'
p655
aS'explain'
p656
aS'that'
p657
asg22
(lp658
g654
ag655
ag656
ag657
asba(iMeme
Meme
p659
(dp660
g3
(lp661
S'cant'
p662
aS'explain'
p663
aS'that'
p664
asg10
S'cant explain that'
p665
sg12
S' must be aliens'
p666
sg14
Vancient-aliens-guy
p667
sg16
(lp668
g662
ag663
ag664
aS'must'
p669
aS'be'
p670
aS'aliens'
p671
asg22
(lp672
g669
ag670
ag671
asba(iMeme
Meme
p673
(dp674
g3
(lp675
S'everyone'
p676
aS'is'
p677
aS'crazy'
p678
asg10
S'everyone is crazy'
p679
sg12
S' except me'
p680
sg14
Vancient-aliens-guy
p681
sg16
(lp682
g676
ag677
ag678
aS'except'
p683
aS'me'
p684
asg22
(lp685
g683
ag684
asba(iMeme
Meme
p686
(dp687
g3
(lp688
S'anders'
p689
aS'behring'
p690
aS'breivik'
p691
ag30
asg10
S'anders behring breivik?'
p692
sg12
S' an alien'
p693
sg14
Vancient-aliens-guy
p694
sg16
(lp695
g689
ag690
ag691
ag30
aS'an'
p696
aS'alien'
p697
asg22
(lp698
g696
ag697
asba(iMeme
Meme
p699
(dp700
g3
(lp701
g70
aS'dont'
p702
aS'want'
p703
aS'to'
p704
aS'say'
p705
aS'its'
p706
aS'the'
p707
aS'aliens'
p708
ag21
ag21
ag21
asg10
S'i dont want to say its the aliens . . .'
p709
sg12
S' but its the aliens'
p710
sg14
Vancient-aliens-guy
p711
sg16
(lp712
g70
ag702
ag703
ag704
ag705
ag706
ag707
ag708
ag21
ag21
ag21
aS'but'
p713
aS'its'
p714
aS'the'
p715
aS'aliens'
p716
asg22
(lp717
g713
ag714
ag715
ag716
asba(iMeme
Meme
p718
(dp719
g3
(lp720
S'my'
p721
aS'little'
p722
aS'pony'
p723
aS':'
p724
aS'friendship'
p725
aS'is'
p726
aS'magic'
p727
ag30
asg10
S'my little pony : friendship is magic ?'
p728
sg12
S' alien.'
p729
sg14
Vancient-aliens-guy
p730
sg16
(lp731
g721
ag722
ag723
ag724
ag725
ag726
ag727
ag30
aS'alien'
p732
ag21
asg22
(lp733
g732
ag21
asba(iMeme
Meme
p734
(dp735
g3
(lp736
S'what'
p737
aS'if'
p738
aS'the'
p739
aS'aliens'
p740
asg10
S'what if the aliens'
p741
sg12
S' were visited by aliens?'
p742
sg14
Vancient-aliens-guy
p743
sg16
(lp744
g737
ag738
ag739
ag740
aS'were'
p745
aS'visited'
p746
aS'by'
p747
aS'aliens'
p748
ag30
asg22
(lp749
g745
ag746
ag747
ag748
ag30
asba(iMeme
Meme
p750
(dp751
g3
(lp752
g70
aS'had'
p753
ag125
aS'crack'
p754
aS'rock'
p755
asg10
S'i had a crack rock'
p756
sg12
S' this big'
p757
sg14
Vancient-aliens-guy
p758
sg16
(lp759
g70
ag753
ag125
ag754
ag755
aS'this'
p760
aS'big'
p761
asg22
(lp762
g760
ag761
asba(iMeme
Meme
p763
(dp764
g3
(lp765
S'you'
p766
aS'see'
p767
aS'the'
p768
aS'point'
p769
aS'of'
p770
aS'assassins'
p771
aS'creed'
p772
asg10
S'you see the point of assassins creed'
p773
sg12
S' is aliens'
p774
sg14
Vancient-aliens-guy
p775
sg16
(lp776
g766
ag767
ag768
ag769
ag770
ag771
ag772
aS'is'
p777
aS'aliens'
p778
asg22
(lp779
g777
ag778
asba(iMeme
Meme
p780
(dp781
g3
(lp782
S'who'
p783
aS'created'
p784
aS'hair'
p785
aS'gel'
p786
asg10
S'who created hair gel'
p787
sg12
S' ancient aliens'
p788
sg14
Vancient-aliens-guy
p789
sg16
(lp790
g783
ag784
ag785
ag786
aS'ancient'
p791
aS'aliens'
p792
asg22
(lp793
g791
ag792
asba(iMeme
Meme
p794
(dp795
g3
(lp796
S'9/11'
p797
asg10
S'9/11'
p798
sg12
S' was caused by the jewish reptilians'
p799
sg14
Vancient-aliens-guy
p800
sg16
(lp801
g797
aS'was'
p802
aS'caused'
p803
aS'by'
p804
aS'the'
p805
aS'jewish'
p806
aS'reptilians'
p807
asg22
(lp808
g802
ag803
ag804
ag805
ag806
ag807
asba(iMeme
Meme
p809
(dp810
g3
(lp811
S'chuck'
p812
aS'testa'
p813
ag30
asg10
S'chuck testa?'
p814
sg12
S' nope aliens'
p815
sg14
Vancient-aliens-guy
p816
sg16
(lp817
g812
ag813
ag30
aS'nope'
p818
aS'aliens'
p819
asg22
(lp820
g818
ag819
asba(iMeme
Meme
p821
(dp822
g3
(lp823
S'noahs'
p824
aS'ark'
p825
asg10
S'noahs ark'
p826
sg12
S' obviously an alien spacecraft'
p827
sg14
Vancient-aliens-guy
p828
sg16
(lp829
g824
ag825
aS'obviously'
p830
aS'an'
p831
aS'alien'
p832
aS'spacecraft'
p833
asg22
(lp834
g830
ag831
ag832
ag833
asba(iMeme
Meme
p835
(dp836
g3
(lp837
S'very'
p838
aS'very'
p839
aS'small'
p840
asg10
S'very very small'
p841
sg12
S' penis'
p842
sg14
Vancient-aliens-guy
p843
sg16
(lp844
g838
ag839
ag840
aS'penis'
p845
asg22
(lp846
g845
asba(iMeme
Meme
p847
(dp848
g3
(lp849
S'dubstep'
p850
aS'you'
p851
aS'ask'
p852
ag30
asg10
S'dubstep you ask?'
p853
sg12
S' its not music..its just transformers having sex.'
p854
sg14
Vancient-aliens-guy
p855
sg16
(lp856
g850
ag851
ag852
ag30
aS'its'
p857
aS'not'
p858
aS'music..its'
p859
aS'just'
p860
aS'transformers'
p861
aS'having'
p862
aS'sex'
p863
ag21
asg22
(lp864
g857
ag858
ag859
ag860
ag861
ag862
ag863
ag21
asba(iMeme
Meme
p865
(dp866
g3
(lp867
g125
aS'smart'
p868
aS'woman'
p869
ag30
asg10
S'a smart woman?'
p870
sg12
S' defintely aliens'
p871
sg14
Vancient-aliens-guy
p872
sg16
(lp873
g125
ag868
ag869
ag30
aS'defintely'
p874
aS'aliens'
p875
asg22
(lp876
g874
ag875
asba(iMeme
Meme
p877
(dp878
g3
(lp879
S'the'
p880
aS'mayans'
p881
asg10
S'the mayans'
p882
sg12
S' did this to my hair!!'
p883
sg14
Vancient-aliens-guy
p884
sg16
(lp885
g880
ag881
aS'did'
p886
aS'this'
p887
aS'to'
p888
aS'my'
p889
aS'hair'
p890
ag297
ag297
asg22
(lp891
g886
ag887
ag888
ag889
ag890
ag297
ag297
asba(iMeme
Meme
p892
(dp893
g3
(lp894
S'white'
p895
aS'people'
p896
aS'born'
p897
aS'in'
p898
aS'february'
p899
asg10
S'white people born in february'
p900
sg12
S' are black'
p901
sg14
Vancient-aliens-guy
p902
sg16
(lp903
g895
ag896
ag897
ag898
ag899
aS'are'
p904
aS'black'
p905
asg22
(lp906
g904
ag905
asba(iMeme
Meme
p907
(dp908
g3
(lp909
S'da'
p910
aS'ancient'
p911
aS'aliens'
p912
asg10
S'da ancient aliens'
p913
sg12
S' dey did everything also puma punku'
p914
sg14
Vancient-aliens-guy
p915
sg16
(lp916
g910
ag911
ag912
aS'dey'
p917
aS'did'
p918
aS'everything'
p919
aS'also'
p920
aS'puma'
p921
aS'punku'
p922
asg22
(lp923
g917
ag918
ag919
ag920
ag921
ag922
asba(iMeme
Meme
p924
(dp925
g3
(lp926
S'well'
p927
ag70
aS'dont'
p928
aS'know'
p929
asg10
S'well i dont know'
p930
sg12
S' therefore aliens'
p931
sg14
Vancient-aliens-guy
p932
sg16
(lp933
g927
ag70
ag928
ag929
aS'therefore'
p934
aS'aliens'
p935
asg22
(lp936
g934
ag935
asba(iMeme
Meme
p937
(dp938
g3
(lp939
S'dragons'
p940
aS'return'
p941
aS'to'
p942
aS'skyrim'
p943
asg10
S'dragons return to skyrim'
p944
sg12
S' aliens'
p945
sg14
Vancient-aliens-guy
p946
sg16
(lp947
g940
ag941
ag942
ag943
aS'aliens'
p948
asg22
(lp949
g948
asba(iMeme
Meme
p950
(dp951
g3
(lp952
S'aliens'
p953
asg10
S'aliens'
p954
sg12
S' your argument is invalid'
p955
sg14
Vancient-aliens-guy
p956
sg16
(lp957
g953
aS'your'
p958
aS'argument'
p959
aS'is'
p960
aS'invalid'
p961
asg22
(lp962
g958
ag959
ag960
ag961
asba(iMeme
Meme
p963
(dp964
g3
(lp965
S'who'
p966
aS'lives'
p967
aS'in'
p968
ag125
aS'pineapple'
p969
aS'under'
p970
aS'the'
p971
aS'sea'
p972
ag30
asg10
S'who lives in a pineapple under the sea?'
p973
sg12
S' mother fucking aliens.'
p974
sg14
Vancient-aliens-guy
p975
sg16
(lp976
g966
ag967
ag968
ag125
ag969
ag970
ag971
ag972
ag30
aS'mother'
p977
aS'fucking'
p978
aS'aliens'
p979
ag21
asg22
(lp980
g977
ag978
ag979
ag21
asba(iMeme
Meme
p981
(dp982
g3
(lp983
S'you'
p984
aS'had'
p985
aS'me'
p986
asg10
S'you had me'
p987
sg12
S' at penis sheath'
p988
sg14
Vancient-aliens-guy
p989
sg16
(lp990
g984
ag985
ag986
aS'at'
p991
aS'penis'
p992
aS'sheath'
p993
asg22
(lp994
g991
ag992
ag993
asba(iMeme
Meme
p995
(dp996
g3
(lp997
S'bread'
p998
aS'goes'
p999
aS'in'
p1000
asg10
S'bread goes in'
p1001
sg12
S' toast comes out'
p1002
sg14
Vancient-aliens-guy
p1003
sg16
(lp1004
g998
ag999
ag1000
aS'toast'
p1005
aS'comes'
p1006
aS'out'
p1007
asg22
(lp1008
g1005
ag1006
ag1007
asba(iMeme
Meme
p1009
(dp1010
g3
(lp1011
S'aliens'
p1012
aS'are'
p1013
aS'real'
p1014
asg10
S'aliens are real'
p1015
sg12
S' my weed told me so'
p1016
sg14
Vancient-aliens-guy
p1017
sg16
(lp1018
g1012
ag1013
ag1014
aS'my'
p1019
aS'weed'
p1020
aS'told'
p1021
aS'me'
p1022
aS'so'
p1023
asg22
(lp1024
g1019
ag1020
ag1021
ag1022
ag1023
asba(iMeme
Meme
p1025
(dp1026
g3
(lp1027
S'not'
p1028
aS'that'
p1029
aS'it'
p1030
aS'was'
p1031
aS'aliens'
p1032
asg10
S'not that it was aliens'
p1033
sg12
S' but it was aliens'
p1034
sg14
Vancient-aliens-guy
p1035
sg16
(lp1036
g1028
ag1029
ag1030
ag1031
ag1032
aS'but'
p1037
aS'it'
p1038
aS'was'
p1039
aS'aliens'
p1040
asg22
(lp1041
g1037
ag1038
ag1039
ag1040
asba(iMeme
Meme
p1042
(dp1043
g3
(lp1044
S'my'
p1045
aS'hair'
p1046
aS'is'
p1047
aS'big'
p1048
asg10
S'my hair is big'
p1049
sg12
S' it came from ancient aliens'
p1050
sg14
Vancient-aliens-guy
p1051
sg16
(lp1052
g1045
ag1046
ag1047
ag1048
aS'it'
p1053
aS'came'
p1054
aS'from'
p1055
aS'ancient'
p1056
aS'aliens'
p1057
asg22
(lp1058
g1053
ag1054
ag1055
ag1056
ag1057
asba(iMeme
Meme
p1059
(dp1060
g3
(lp1061
S'hair'
p1062
aS'gel'
p1063
asg10
S'hair gel'
p1064
sg12
S' ancient alien technology aquired by the mayans'
p1065
sg14
Vancient-aliens-guy
p1066
sg16
(lp1067
g1062
ag1063
aS'ancient'
p1068
aS'alien'
p1069
aS'technology'
p1070
aS'aquired'
p1071
aS'by'
p1072
aS'the'
p1073
aS'mayans'
p1074
asg22
(lp1075
g1068
ag1069
ag1070
ag1071
ag1072
ag1073
ag1074
asba(iMeme
Meme
p1076
(dp1077
g3
(lp1078
S'ryan'
p1079
aS'dunn'
p1080
aS'is'
p1081
aS'not'
p1082
aS'dead'
p1083
asg10
S'ryan dunn is not dead'
p1084
sg12
S' he just went home'
p1085
sg14
Vancient-aliens-guy
p1086
sg16
(lp1087
g1079
ag1080
ag1081
ag1082
ag1083
aS'he'
p1088
aS'just'
p1089
aS'went'
p1090
aS'home'
p1091
asg22
(lp1092
g1088
ag1089
ag1090
ag1091
asba(iMeme
Meme
p1093
(dp1094
g3
(lp1095
S'men'
p1096
aS'are'
p1097
aS'from'
p1098
aS'mars'
p1099
aS'women'
p1100
aS'are'
p1101
aS'from'
p1102
aS'venus'
p1103
asg10
S'men are from mars women are from venus'
p1104
sg12
S' therefore aliens'
p1105
sg14
Vancient-aliens-guy
p1106
sg16
(lp1107
g1096
ag1097
ag1098
ag1099
ag1100
ag1101
ag1102
ag1103
aS'therefore'
p1108
aS'aliens'
p1109
asg22
(lp1110
g1108
ag1109
asba(iMeme
Meme
p1111
(dp1112
g3
(lp1113
S'hitler'
p1114
ag30
asg10
S'hitler?'
p1115
sg12
S' was an alien'
p1116
sg14
Vancient-aliens-guy
p1117
sg16
(lp1118
g1114
ag30
aS'was'
p1119
aS'an'
p1120
aS'alien'
p1121
asg22
(lp1122
g1119
ag1120
ag1121
asba(iMeme
Meme
p1123
(dp1124
g3
(lp1125
S'albert'
p1126
aS'einstein'
p1127
aS'was'
p1128
aS'brilliant'
p1129
asg10
S'albert einstein was brilliant'
p1130
sg12
S' because'
p1131
sg14
Vancient-aliens-guy
p1132
sg16
(lp1133
g1126
ag1127
ag1128
ag1129
aS'because'
p1134
asg22
(lp1135
g1134
asba(iMeme
Meme
p1136
(dp1137
g3
(lp1138
S'my'
p1139
aS'penis'
p1140
aS'is'
p1141
aS'this'
p1142
aS'big'
p1143
ag21
asg10
S'my penis is this big.'
p1144
sg12
S' i know right? aliens dude.'
p1145
sg14
Vancient-aliens-guy
p1146
sg16
(lp1147
g1139
ag1140
ag1141
ag1142
ag1143
ag21
ag70
aS'know'
p1148
aS'right'
p1149
ag30
aS'aliens'
p1150
aS'dude'
p1151
ag21
asg22
(lp1152
g70
ag1148
ag1149
ag30
ag1150
ag1151
ag21
asba(iMeme
Meme
p1153
(dp1154
g3
(lp1155
S'im'
p1156
aS'not'
p1157
aS'saying'
p1158
aS'aliens'
p1159
aS'killed'
p1160
aS'steve'
p1161
aS'jobs'
p1162
asg10
S'im not saying aliens killed steve jobs'
p1163
sg12
S' but it was aliens'
p1164
sg14
Vancient-aliens-guy
p1165
sg16
(lp1166
g1156
ag1157
ag1158
ag1159
ag1160
ag1161
ag1162
aS'but'
p1167
aS'it'
p1168
aS'was'
p1169
aS'aliens'
p1170
asg22
(lp1171
g1167
ag1168
ag1169
ag1170
asba(iMeme
Meme
p1172
(dp1173
g3
(lp1174
S'bear'
p1175
aS'grylls'
p1176
aS'piss'
p1177
ag30
asg10
S'bear grylls piss?'
p1178
sg12
S' an alien!'
p1179
sg14
Vancient-aliens-guy
p1180
sg16
(lp1181
g1175
ag1176
ag1177
ag30
aS'an'
p1182
aS'alien'
p1183
ag297
asg22
(lp1184
g1182
ag1183
ag297
asba(iMeme
Meme
p1185
(dp1186
g3
(lp1187
S'black'
p1188
aS'people'
p1189
aS'stealing'
p1190
aS'things'
p1191
ag30
asg10
S'black people stealing things?'
p1192
sg12
S' aliens did it'
p1193
sg14
Vancient-aliens-guy
p1194
sg16
(lp1195
g1188
ag1189
ag1190
ag1191
ag30
aS'aliens'
p1196
aS'did'
p1197
aS'it'
p1198
asg22
(lp1199
g1196
ag1197
ag1198
asba(iMeme
Meme
p1200
(dp1201
g3
(lp1202
S'trust'
p1203
aS'me'
p1204
asg10
S'trust me'
p1205
sg12
S' its aliens brah'
p1206
sg14
Vancient-aliens-guy
p1207
sg16
(lp1208
g1203
ag1204
aS'its'
p1209
aS'aliens'
p1210
aS'brah'
p1211
asg22
(lp1212
g1209
ag1210
ag1211
asba(iMeme
Meme
p1213
(dp1214
g3
(lp1215
S'im'
p1216
aS'not'
p1217
aS'saying'
p1218
aS'aliens'
p1219
aS'built'
p1220
aS'the'
p1221
aS'pyramids'
p1222
asg10
S'im not saying aliens built the pyramids'
p1223
sg12
S' but they did'
p1224
sg14
Vancient-aliens-guy
p1225
sg16
(lp1226
g1216
ag1217
ag1218
ag1219
ag1220
ag1221
ag1222
aS'but'
p1227
aS'they'
p1228
aS'did'
p1229
asg22
(lp1230
g1227
ag1228
ag1229
asba(iMeme
Meme
p1231
(dp1232
g3
(lp1233
S'marijuana'
p1234
aS'vaporizer'
p1235
ag30
asg10
S'marijuana vaporizer?'
p1236
sg12
S' alien technology'
p1237
sg14
Vancient-aliens-guy
p1238
sg16
(lp1239
g1234
ag1235
ag30
aS'alien'
p1240
aS'technology'
p1241
asg22
(lp1242
g1240
ag1241
asba(iMeme
Meme
p1243
(dp1244
g3
(lp1245
S'are'
p1246
aS'you'
p1247
aS'fucking'
p1248
aS'kidding'
p1249
aS'me'
p1250
asg10
S'are you fucking kidding me'
p1251
sg12
S' ashton kutcher has punked me for the last time'
p1252
sg14
Vancient-aliens-guy
p1253
sg16
(lp1254
g1246
ag1247
ag1248
ag1249
ag1250
aS'ashton'
p1255
aS'kutcher'
p1256
aS'has'
p1257
aS'punked'
p1258
aS'me'
p1259
aS'for'
p1260
aS'the'
p1261
aS'last'
p1262
aS'time'
p1263
asg22
(lp1264
g1255
ag1256
ag1257
ag1258
ag1259
ag1260
ag1261
ag1262
ag1263
asba(iMeme
Meme
p1265
(dp1266
g3
(lp1267
S'tide'
p1268
aS'goes'
p1269
aS'in'
p1270
asg10
S'tide goes in'
p1271
sg12
S' tide goes out.'
p1272
sg14
Vancient-aliens-guy
p1273
sg16
(lp1274
g1268
ag1269
ag1270
aS'tide'
p1275
aS'goes'
p1276
aS'out'
p1277
ag21
asg22
(lp1278
g1275
ag1276
ag1277
ag21
asba(iMeme
Meme
p1279
(dp1280
g3
(lp1281
S'voynich'
p1282
aS'manuscript'
p1283
ag30
asg10
S'voynich manuscript?'
p1284
sg12
S' alien earth bible'
p1285
sg14
Vancient-aliens-guy
p1286
sg16
(lp1287
g1282
ag1283
ag30
aS'alien'
p1288
aS'earth'
p1289
aS'bible'
p1290
asg22
(lp1291
g1288
ag1289
ag1290
asba(iMeme
Meme
p1292
(dp1293
g3
(lp1294
S'im'
p1295
aS'not'
p1296
aS'saying'
p1297
aS'its'
p1298
aS'aliens..'
p1299
asg10
S'im not saying its aliens..'
p1300
sg12
S' but i explane in great detail why it most likely was aliens.'
p1301
sg14
Vancient-aliens-guy
p1302
sg16
(lp1303
g1295
ag1296
ag1297
ag1298
ag1299
aS'but'
p1304
ag70
aS'explane'
p1305
aS'in'
p1306
aS'great'
p1307
aS'detail'
p1308
aS'why'
p1309
aS'it'
p1310
aS'most'
p1311
aS'likely'
p1312
aS'was'
p1313
aS'aliens'
p1314
ag21
asg22
(lp1315
g1304
ag70
ag1305
ag1306
ag1307
ag1308
ag1309
ag1310
ag1311
ag1312
ag1313
ag1314
ag21
asba(iMeme
Meme
p1316
(dp1317
g3
(lp1318
S'londo'
p1319
aS'mollari'
p1320
ag30
asg10
S'londo mollari?'
p1321
sg12
S' never heard of him.'
p1322
sg14
Vancient-aliens-guy
p1323
sg16
(lp1324
g1319
ag1320
ag30
aS'never'
p1325
aS'heard'
p1326
aS'of'
p1327
aS'him'
p1328
ag21
asg22
(lp1329
g1325
ag1326
ag1327
ag1328
ag21
asba(iMeme
Meme
p1330
(dp1331
g3
(lp1332
S'broad'
p1333
aS'art'
p1334
aS'museum'
p1335
ag30
asg10
S'broad art museum?'
p1336
sg12
S' aliens'
p1337
sg14
Vancient-aliens-guy
p1338
sg16
(lp1339
g1333
ag1334
ag1335
ag30
aS'aliens'
p1340
asg22
(lp1341
g1340
asba(iMeme
Meme
p1342
(dp1343
g3
(lp1344
S'turn'
p1345
aS'on'
p1346
aS'google'
p1347
aS'maps'
p1348
aS'('
p1349
aS'maps.google.com'
p1350
aS')'
p1351
asg10
S'turn on google maps (maps.google.com)'
p1352
sg12
S' search for 47.110579'
p1353
sg14
Vancient-aliens-guy
p1354
sg16
(lp1355
g1345
ag1346
ag1347
ag1348
ag1349
ag1350
ag1351
aS'search'
p1356
aS'for'
p1357
aS'47.110579'
p1358
asg22
(lp1359
g1356
ag1357
ag1358
asba(iMeme
Meme
p1360
(dp1361
g3
(lp1362
S'youve'
p1363
aS'watched'
p1364
aS'all'
p1365
aS'15'
p1366
aS'episodes'
p1367
aS'of'
p1368
aS'ancient'
p1369
aS'aliens'
p1370
asg10
S'youve watched all 15 episodes of ancient aliens'
p1371
sg12
S' yeah'
p1372
sg14
Vancient-aliens-guy
p1373
sg16
(lp1374
g1363
ag1364
ag1365
ag1366
ag1367
ag1368
ag1369
ag1370
aS'yeah'
p1375
asg22
(lp1376
g1375
asba(iMeme
Meme
p1377
(dp1378
g3
(lp1379
S'reason'
p1380
aS'for'
p1381
aS'steve'
p1382
aS'jobs'
p1383
aS'death'
p1384
ag30
asg10
S'reason for steve jobs death?'
p1385
sg12
S' uncovered secret ancient alien technology.'
p1386
sg14
Vancient-aliens-guy
p1387
sg16
(lp1388
g1380
ag1381
ag1382
ag1383
ag1384
ag30
aS'uncovered'
p1389
aS'secret'
p1390
aS'ancient'
p1391
aS'alien'
p1392
aS'technology'
p1393
ag21
asg22
(lp1394
g1389
ag1390
ag1391
ag1392
ag1393
ag21
asba(iMeme
Meme
p1395
(dp1396
g3
(lp1397
S'aliens'
p1398
ag30
asg10
S'aliens?'
p1399
sg12
S' must be aliens'
p1400
sg14
Vancient-aliens-guy
p1401
sg16
(lp1402
g1398
ag30
aS'must'
p1403
aS'be'
p1404
aS'aliens'
p1405
asg22
(lp1406
g1403
ag1404
ag1405
asba(iMeme
Meme
p1407
(dp1408
g3
(lp1409
S'comet'
p1410
aS'elenin'
p1411
ag30
asg10
S'comet elenin?'
p1412
sg12
S' more like ancient alien!'
p1413
sg14
Vancient-aliens-guy
p1414
sg16
(lp1415
g1410
ag1411
ag30
aS'more'
p1416
aS'like'
p1417
aS'ancient'
p1418
aS'alien'
p1419
ag297
asg22
(lp1420
g1416
ag1417
ag1418
ag1419
ag297
asba(iMeme
Meme
p1421
(dp1422
g3
(lp1423
g70
aS'once'
p1424
aS'had'
p1425
aS'anal'
p1426
aS'sex'
p1427
aS'with'
p1428
aS'an'
p1429
aS'ancient'
p1430
aS'alien'
p1431
ag21
asg10
S'i once had anal sex with an ancient alien.'
p1432
sg12
S' 2 weeks later'
p1433
sg14
Vancient-aliens-guy
p1434
sg16
(lp1435
g70
ag1424
ag1425
ag1426
ag1427
ag1428
ag1429
ag1430
ag1431
ag21
aS'2'
p1436
aS'weeks'
p1437
aS'later'
p1438
asg22
(lp1439
g1436
ag1437
ag1438
asba(iMeme
Meme
p1440
(dp1441
g3
(lp1442
S'ducks'
p1443
aS'can'
p1444
aS'float'
p1445
aS'on'
p1446
aS'water'
p1447
ag30
asg10
S'ducks can float on water?'
p1448
sg12
S' ancient alien technology.'
p1449
sg14
Vancient-aliens-guy
p1450
sg16
(lp1451
g1443
ag1444
ag1445
ag1446
ag1447
ag30
aS'ancient'
p1452
aS'alien'
p1453
aS'technology'
p1454
ag21
asg22
(lp1455
g1452
ag1453
ag1454
ag21
asba(iMeme
Meme
p1456
(dp1457
g3
(lp1458
S'aliens'
p1459
aS'are'
p1460
aS'real'
p1461
asg10
S'aliens are real'
p1462
sg12
S' they did this to my hair'
p1463
sg14
Vancient-aliens-guy
p1464
sg16
(lp1465
g1459
ag1460
ag1461
aS'they'
p1466
aS'did'
p1467
aS'this'
p1468
aS'to'
p1469
aS'my'
p1470
aS'hair'
p1471
asg22
(lp1472
g1466
ag1467
ag1468
ag1469
ag1470
ag1471
asba(iMeme
Meme
p1473
(dp1474
g3
(lp1475
S'cant'
p1476
aS'connect'
p1477
aS'to'
p1478
aS'wifi'
p1479
ag30
asg10
S'cant connect to wifi?'
p1480
sg12
S' aliens'
p1481
sg14
Vancient-aliens-guy
p1482
sg16
(lp1483
g1476
ag1477
ag1478
ag1479
ag30
aS'aliens'
p1484
asg22
(lp1485
g1484
asba(iMeme
Meme
p1486
(dp1487
g3
(lp1488
S'if'
p1489
aS'ive'
p1490
aS'said'
p1491
aS'it'
p1492
aS'once'
p1493
asg10
S'if ive said it once'
p1494
sg12
S' ive said it a thousand times'
p1495
sg14
Vancient-aliens-guy
p1496
sg16
(lp1497
g1489
ag1490
ag1491
ag1492
ag1493
aS'ive'
p1498
aS'said'
p1499
aS'it'
p1500
ag125
aS'thousand'
p1501
aS'times'
p1502
asg22
(lp1503
g1498
ag1499
ag1500
ag125
ag1501
ag1502
asba(iMeme
Meme
p1504
(dp1505
g3
(lp1506
S'could'
p1507
aS'the'
p1508
aS'mormon'
p1509
aS'church'
p1510
aS'be'
p1511
aS'controlled'
p1512
aS'by'
p1513
aS'ancient'
p1514
aS'aliens'
p1515
ag30
asg10
S'could the mormon church be controlled by ancient aliens?'
p1516
sg12
S' some scientists are starting to believe'
p1517
sg14
Vancient-aliens-guy
p1518
sg16
(lp1519
g1507
ag1508
ag1509
ag1510
ag1511
ag1512
ag1513
ag1514
ag1515
ag30
aS'some'
p1520
aS'scientists'
p1521
aS'are'
p1522
aS'starting'
p1523
aS'to'
p1524
aS'believe'
p1525
asg22
(lp1526
g1520
ag1521
ag1522
ag1523
ag1524
ag1525
asba(iMeme
Meme
p1527
(dp1528
g3
(lp1529
S'herni'
p1530
aS'es'
p1531
aS'gay'
p1532
asg10
S'herni es gay'
p1533
sg12
S' los aliens me lo dijeron'
p1534
sg14
Vancient-aliens-guy
p1535
sg16
(lp1536
g1530
ag1531
ag1532
aS'los'
p1537
aS'aliens'
p1538
aS'me'
p1539
aS'lo'
p1540
aS'dijeron'
p1541
asg22
(lp1542
g1537
ag1538
ag1539
ag1540
ag1541
asba(iMeme
Meme
p1543
(dp1544
g3
(lp1545
S'what'
p1546
aS'came'
p1547
aS'first'
p1548
asg10
S'what came first'
p1549
sg12
S' the chicken or the egg?'
p1550
sg14
Vancient-aliens-guy
p1551
sg16
(lp1552
g1546
ag1547
ag1548
aS'the'
p1553
aS'chicken'
p1554
aS'or'
p1555
aS'the'
p1556
aS'egg'
p1557
ag30
asg22
(lp1558
g1553
ag1554
ag1555
ag1556
ag1557
ag30
asba(iMeme
Meme
p1559
(dp1560
g3
(lp1561
S'my'
p1562
aS'obnoxious'
p1563
aS'hair'
p1564
ag30
asg10
S'my obnoxious hair?'
p1565
sg12
S' ancient alien technology'
p1566
sg14
Vancient-aliens-guy
p1567
sg16
(lp1568
g1562
ag1563
ag1564
ag30
aS'ancient'
p1569
aS'alien'
p1570
aS'technology'
p1571
asg22
(lp1572
g1569
ag1570
ag1571
asba(iMeme
Meme
p1573
(dp1574
g3
(lp1575
S'the'
p1576
aS'pin'
p1577
ag70
aS'wear'
p1578
aS'on'
p1579
aS'my'
p1580
aS'jacket'
p1581
asg10
S'the pin i wear on my jacket'
p1582
sg12
S' is an ancient alien airplane'
p1583
sg14
Vancient-aliens-guy
p1584
sg16
(lp1585
g1576
ag1577
ag70
ag1578
ag1579
ag1580
ag1581
aS'is'
p1586
aS'an'
p1587
aS'ancient'
p1588
aS'alien'
p1589
aS'airplane'
p1590
asg22
(lp1591
g1586
ag1587
ag1588
ag1589
ag1590
asba(iMeme
Meme
p1592
(dp1593
g3
(lp1594
S'my'
p1595
aS'hair'
p1596
aS'is'
p1597
ag125
aS'bird'
p1598
ag30
asg10
S'my hair is a bird?'
p1599
sg12
S' ancient aliens!'
p1600
sg14
Vancient-aliens-guy
p1601
sg16
(lp1602
g1595
ag1596
ag1597
ag125
ag1598
ag30
aS'ancient'
p1603
aS'aliens'
p1604
ag297
asg22
(lp1605
g1603
ag1604
ag297
asba(iMeme
Meme
p1606
(dp1607
g3
(lp1608
S'how'
p1609
aS'do'
p1610
aS'magnets'
p1611
aS'work'
p1612
ag30
asg10
S'how do magnets work?'
p1613
sg12
S' aliens'
p1614
sg14
Vancient-aliens-guy
p1615
sg16
(lp1616
g1609
ag1610
ag1611
ag1612
ag30
aS'aliens'
p1617
asg22
(lp1618
g1617
asba(iMeme
Meme
p1619
(dp1620
g3
(lp1621
S'so'
p1622
aS'stoned'
p1623
asg10
S'so stoned'
p1624
sg12
S' nice breasts'
p1625
sg14
Vancient-aliens-guy
p1626
sg16
(lp1627
g1622
ag1623
aS'nice'
p1628
aS'breasts'
p1629
asg22
(lp1630
g1628
ag1629
asba(iMeme
Meme
p1631
(dp1632
g3
(lp1633
S'3.14'
p1634
aS'='
p1635
aS'backwards'
p1636
aS'pi.e'
p1637
asg10
S'3.14 = backwards pi.e'
p1638
sg12
S' proof that numbers and the word pie come from aliens'
p1639
sg14
Vancient-aliens-guy
p1640
sg16
(lp1641
g1634
ag1635
ag1636
ag1637
aS'proof'
p1642
aS'that'
p1643
aS'numbers'
p1644
aS'and'
p1645
aS'the'
p1646
aS'word'
p1647
aS'pie'
p1648
aS'come'
p1649
aS'from'
p1650
aS'aliens'
p1651
asg22
(lp1652
g1642
ag1643
ag1644
ag1645
ag1646
ag1647
ag1648
ag1649
ag1650
ag1651
asba(iMeme
Meme
p1653
(dp1654
g3
(lp1655
S'im'
p1656
aS'not'
p1657
aS'saying'
p1658
aS'youre'
p1659
ag125
aS'bitch'
p1660
asg10
S'im not saying youre a bitch'
p1661
sg12
S' but youre a bitch'
p1662
sg14
Vancient-aliens-guy
p1663
sg16
(lp1664
g1656
ag1657
ag1658
ag1659
ag125
ag1660
aS'but'
p1665
aS'youre'
p1666
ag125
aS'bitch'
p1667
asg22
(lp1668
g1665
ag1666
ag125
ag1667
asba(iMeme
Meme
p1669
(dp1670
g3
(lp1671
g70
aS'left'
p1672
aS'some'
p1673
aS'bananas'
p1674
aS'out'
p1675
aS'and'
p1676
aS'they'
p1677
aS'turned'
p1678
aS'brown'
p1679
ag21
asg10
S'i left some bananas out and they turned brown.'
p1680
sg12
S' fucking aliens man.'
p1681
sg14
Vancient-aliens-guy
p1682
sg16
(lp1683
g70
ag1672
ag1673
ag1674
ag1675
ag1676
ag1677
ag1678
ag1679
ag21
aS'fucking'
p1684
aS'aliens'
p1685
aS'man'
p1686
ag21
asg22
(lp1687
g1684
ag1685
ag1686
ag21
asba(iMeme
Meme
p1688
(dp1689
g3
(lp1690
g70
aS'dont'
p1691
aS'care'
p1692
aS'what'
p1693
aS'you'
p1694
aS'say'
p1695
asg10
S'i dont care what you say'
p1696
sg12
S' my logic is flawless.'
p1697
sg14
Vancient-aliens-guy
p1698
sg16
(lp1699
g70
ag1691
ag1692
ag1693
ag1694
ag1695
aS'my'
p1700
aS'logic'
p1701
aS'is'
p1702
aS'flawless'
p1703
ag21
asg22
(lp1704
g1700
ag1701
ag1702
ag1703
ag21
asba(iMeme
Meme
p1705
(dp1706
g3
(lp1707
g70
aS'dont'
p1708
aS'think'
p1709
aS'atlantis'
p1710
aS'sank'
p1711
asg10
S'i dont think atlantis sank'
p1712
sg12
S' i think it lifted off.'
p1713
sg14
Vancient-aliens-guy
p1714
sg16
(lp1715
g70
ag1708
ag1709
ag1710
ag1711
ag70
aS'think'
p1716
aS'it'
p1717
aS'lifted'
p1718
aS'off'
p1719
ag21
asg22
(lp1720
g70
ag1716
ag1717
ag1718
ag1719
ag21
asba(iMeme
Meme
p1721
(dp1722
g3
(lp1723
S'seen'
p1724
aS'closeup'
p1725
aS'of'
p1726
aS'velcro'
p1727
ag30
asg10
S'seen closeup of velcro?'
p1728
sg12
S' definitely alien technology'
p1729
sg14
Vancient-aliens-guy
p1730
sg16
(lp1731
g1724
ag1725
ag1726
ag1727
ag30
aS'definitely'
p1732
aS'alien'
p1733
aS'technology'
p1734
asg22
(lp1735
g1732
ag1733
ag1734
asba(iMeme
Meme
p1736
(dp1737
g3
(lp1738
S'im'
p1739
aS'not'
p1740
aS'gay'
p1741
asg10
S'im not gay'
p1742
sg12
S' fuck it i lied whut u gonna do?'
p1743
sg14
Vancient-aliens-guy
p1744
sg16
(lp1745
g1739
ag1740
ag1741
aS'fuck'
p1746
aS'it'
p1747
ag70
aS'lied'
p1748
aS'whut'
p1749
aS'u'
p1750
aS'gon'
p1751
aS'na'
p1752
aS'do'
p1753
ag30
asg22
(lp1754
g1746
ag1747
ag70
ag1748
ag1749
ag1750
ag1751
ag1752
ag1753
ag30
asba(iMeme
Meme
p1755
(dp1756
g3
(lp1757
S'jesus'
p1758
ag30
asg10
S'jesus?'
p1759
sg12
S' was an alien'
p1760
sg14
Vancient-aliens-guy
p1761
sg16
(lp1762
g1758
ag30
aS'was'
p1763
aS'an'
p1764
aS'alien'
p1765
asg22
(lp1766
g1763
ag1764
ag1765
asba(iMeme
Meme
p1767
(dp1768
g3
(lp1769
S'look'
p1770
aS'like'
p1771
aS'rob'
p1772
aS'schneider'
p1773
ag30
asg10
S'look like rob schneider?'
p1774
sg12
S' aliens'
p1775
sg14
Vancient-aliens-guy
p1776
sg16
(lp1777
g1770
ag1771
ag1772
ag1773
ag30
aS'aliens'
p1778
asg22
(lp1779
g1778
asba(iMeme
Meme
p1780
(dp1781
g3
(lp1782
S'men'
p1783
aS'in'
p1784
aS'black'
p1785
ag30
asg10
S'men in black?'
p1786
sg12
S' oh yeah'
p1787
sg14
Vancient-aliens-guy
p1788
sg16
(lp1789
g1783
ag1784
ag1785
ag30
aS'oh'
p1790
aS'yeah'
p1791
asg22
(lp1792
g1790
ag1791
asba(iMeme
Meme
p1793
(dp1794
g3
(lp1795
S'im'
p1796
aS'not'
p1797
aS'saying'
p1798
aS'its'
p1799
aS'aliens..'
p1800
asg10
S'im not saying its aliens..'
p1801
sg12
S' but im pretty sure its aliens'
p1802
sg14
Vancient-aliens-guy
p1803
sg16
(lp1804
g1796
ag1797
ag1798
ag1799
ag1800
aS'but'
p1805
aS'im'
p1806
aS'pretty'
p1807
aS'sure'
p1808
aS'its'
p1809
aS'aliens'
p1810
asg22
(lp1811
g1805
ag1806
ag1807
ag1808
ag1809
ag1810
asba(iMeme
Meme
p1812
(dp1813
g3
(lp1814
S'im'
p1815
aS'not'
p1816
aS'saying'
p1817
aS'kill'
p1818
aS'her'
p1819
asg10
S'im not saying kill her'
p1820
sg12
S' but kill her'
p1821
sg14
Vancient-aliens-guy
p1822
sg16
(lp1823
g1815
ag1816
ag1817
ag1818
ag1819
aS'but'
p1824
aS'kill'
p1825
aS'her'
p1826
asg22
(lp1827
g1824
ag1825
ag1826
asba(iMeme
Meme
p1828
(dp1829
g3
(lp1830
S'why'
p1831
aS'isnt'
p1832
aS'our'
p1833
aS'crew'
p1834
aS'allowed'
p1835
aS'in'
p1836
aS'area'
p1837
aS'51'
p1838
ag30
asg10
S'why isnt our crew allowed in area 51?'
p1839
sg12
S' there are aliens inside'
p1840
sg14
Vancient-aliens-guy
p1841
sg16
(lp1842
g1831
ag1832
ag1833
ag1834
ag1835
ag1836
ag1837
ag1838
ag30
aS'there'
p1843
aS'are'
p1844
aS'aliens'
p1845
aS'inside'
p1846
asg22
(lp1847
g1843
ag1844
ag1845
ag1846
asba(iMeme
Meme
p1848
(dp1849
g3
(lp1850
S'the'
p1851
aS'evidence'
p1852
aS'is'
p1853
aS'clear'
p1854
ag21
aS'the'
p1855
aS'signs'
p1856
aS'are'
p1857
aS'obvious'
p1858
ag21
asg10
S'the evidence is clear. the signs are obvious.'
p1859
sg12
S' so what exactly is your fucking problem dipshit?'
p1860
sg14
Vancient-aliens-guy
p1861
sg16
(lp1862
g1851
ag1852
ag1853
ag1854
ag21
ag1855
ag1856
ag1857
ag1858
ag21
aS'so'
p1863
aS'what'
p1864
aS'exactly'
p1865
aS'is'
p1866
aS'your'
p1867
aS'fucking'
p1868
aS'problem'
p1869
aS'dipshit'
p1870
ag30
asg22
(lp1871
g1863
ag1864
ag1865
ag1866
ag1867
ag1868
ag1869
ag1870
ag30
asba(iMeme
Meme
p1872
(dp1873
g3
(lp1874
S'not'
p1875
aS'even'
p1876
aS'aliens'
p1877
aS'can'
p1878
asg10
S'not even aliens can'
p1879
sg12
S' explain this bullshit.'
p1880
sg14
Vancient-aliens-guy
p1881
sg16
(lp1882
g1875
ag1876
ag1877
ag1878
aS'explain'
p1883
aS'this'
p1884
aS'bullshit'
p1885
ag21
asg22
(lp1886
g1883
ag1884
ag1885
ag21
asba(iMeme
Meme
p1887
(dp1888
g3
(lp1889
g70
aS'cant'
p1890
aS'lie..'
p1891
asg10
S'i cant lie..'
p1892
sg12
S' im high as fuck dog'
p1893
sg14
Vancient-aliens-guy
p1894
sg16
(lp1895
g70
ag1890
ag1891
aS'im'
p1896
aS'high'
p1897
aS'as'
p1898
aS'fuck'
p1899
aS'dog'
p1900
asg22
(lp1901
g1896
ag1897
ag1898
ag1899
ag1900
asba(iMeme
Meme
p1902
(dp1903
g3
(lp1904
S'see'
p1905
asg10
S'see'
p1906
sg12
S' i told you so'
p1907
sg14
Vancient-aliens-guy
p1908
sg16
(lp1909
g1905
ag70
aS'told'
p1910
aS'you'
p1911
aS'so'
p1912
asg22
(lp1913
g70
ag1910
ag1911
ag1912
asba(iMeme
Meme
p1914
(dp1915
g3
(lp1916
S'aliens'
p1917
aS'bro'
p1918
asg10
S'aliens bro'
p1919
sg12
S' think about them'
p1920
sg14
Vancient-aliens-guy
p1921
sg16
(lp1922
g1917
ag1918
aS'think'
p1923
aS'about'
p1924
aS'them'
p1925
asg22
(lp1926
g1923
ag1924
ag1925
asba(iMeme
Meme
p1927
(dp1928
g3
(lp1929
S'bermuda'
p1930
aS'triangle'
p1931
ag30
asg10
S'bermuda triangle?'
p1932
sg12
S' definitely aliens'
p1933
sg14
Vancient-aliens-guy
p1934
sg16
(lp1935
g1930
ag1931
ag30
aS'definitely'
p1936
aS'aliens'
p1937
asg22
(lp1938
g1936
ag1937
asba(iMeme
Meme
p1939
(dp1940
g3
(lp1941
S'tebow'
p1942
aS'wins'
p1943
aS'despite'
p1944
aS'sucking'
p1945
asg10
S'tebow wins despite sucking'
p1946
sg12
S' must be aliens'
p1947
sg14
Vancient-aliens-guy
p1948
sg16
(lp1949
g1942
ag1943
ag1944
ag1945
aS'must'
p1950
aS'be'
p1951
aS'aliens'
p1952
asg22
(lp1953
g1950
ag1951
ag1952
asba(iMeme
Meme
p1954
(dp1955
g3
(lp1956
g70
aS'saw'
p1957
ag125
aS'werewolf'
p1958
aS'with'
p1959
ag125
aS'chinese'
p1960
aS'menu'
p1961
aS'in'
p1962
aS'his'
p1963
aS'hand'
p1964
aS'walkin'
p1965
aS'through'
p1966
aS'the'
p1967
aS'streets'
p1968
aS'of'
p1969
aS'soho'
p1970
aS'in'
p1971
aS'the'
p1972
aS'rain'
p1973
ag21
asg10
S'i saw a werewolf with a chinese menu in his hand  walkin through the streets of soho in the rain.'
p1974
sg12
S' he was lookin for the place called lee ho fooks'
p1975
sg14
Vancient-aliens-guy
p1976
sg16
(lp1977
g70
ag1957
ag125
ag1958
ag1959
ag125
ag1960
ag1961
ag1962
ag1963
ag1964
ag1965
ag1966
ag1967
ag1968
ag1969
ag1970
ag1971
ag1972
ag1973
ag21
aS'he'
p1978
aS'was'
p1979
aS'lookin'
p1980
aS'for'
p1981
aS'the'
p1982
aS'place'
p1983
aS'called'
p1984
aS'lee'
p1985
aS'ho'
p1986
aS'fooks'
p1987
asg22
(lp1988
g1978
ag1979
ag1980
ag1981
ag1982
ag1983
ag1984
ag1985
ag1986
ag1987
asba(iMeme
Meme
p1989
(dp1990
g3
(lp1991
S'im'
p1992
aS'not'
p1993
aS'saying'
p1994
aS'kobe'
p1995
aS'da'
p1996
aS'best'
p1997
aS'but'
p1998
asg10
S'im not saying kobe da best but'
p1999
sg12
S' kobe da best'
p2000
sg14
Vancient-aliens-guy
p2001
sg16
(lp2002
g1992
ag1993
ag1994
ag1995
ag1996
ag1997
ag1998
aS'kobe'
p2003
aS'da'
p2004
aS'best'
p2005
asg22
(lp2006
g2003
ag2004
ag2005
asba(iMeme
Meme
p2007
(dp2008
g3
(lp2009
S'im'
p2010
aS'not'
p2011
aS'saying'
p2012
aS'it'
p2013
aS'was'
p2014
aS'aliens'
p2015
asg10
S'im not saying it was aliens'
p2016
sg12
S' but it was james.'
p2017
sg14
Vancient-aliens-guy
p2018
sg16
(lp2019
g2010
ag2011
ag2012
ag2013
ag2014
ag2015
aS'but'
p2020
aS'it'
p2021
aS'was'
p2022
aS'james'
p2023
ag21
asg22
(lp2024
g2020
ag2021
ag2022
ag2023
ag21
asba(iMeme
Meme
p2025
(dp2026
g3
(lp2027
g70
aS'smoked'
p2028
asg10
S'i smoked'
p2029
sg12
S' this much weed'
p2030
sg14
Vancient-aliens-guy
p2031
sg16
(lp2032
g70
ag2028
aS'this'
p2033
aS'much'
p2034
aS'weed'
p2035
asg22
(lp2036
g2033
ag2034
ag2035
asba(iMeme
Meme
p2037
(dp2038
g3
(lp2039
S'the'
p2040
aS'ancient'
p2041
aS'astronauts'
p2042
aS'theorists'
p2043
aS'believe'
p2044
asg10
S'the ancient astronauts theorists believe'
p2045
sg12
S' aliens'
p2046
sg14
Vancient-aliens-guy
p2047
sg16
(lp2048
g2040
ag2041
ag2042
ag2043
ag2044
aS'aliens'
p2049
asg22
(lp2050
g2049
asba(iMeme
Meme
p2051
(dp2052
g3
(lp2053
S'im'
p2054
aS'not'
p2055
aS'saying'
p2056
aS'hes'
p2057
aS'stream'
p2058
aS'cheating'
p2059
asg10
S'im not saying hes stream cheating'
p2060
sg12
S' but hes stream cheating'
p2061
sg14
Vancient-aliens-guy
p2062
sg16
(lp2063
g2054
ag2055
ag2056
ag2057
ag2058
ag2059
aS'but'
p2064
aS'hes'
p2065
aS'stream'
p2066
aS'cheating'
p2067
asg22
(lp2068
g2064
ag2065
ag2066
ag2067
asba(iMeme
Meme
p2069
(dp2070
g3
(lp2071
S'wh'
p2072
aS'do'
p2073
aS'black'
p2074
aS'people'
p2075
aS'love'
p2076
aS'chicken'
p2077
ag30
asg10
S'wh do black people love chicken?'
p2078
sg12
S' aliens'
p2079
sg14
Vancient-aliens-guy
p2080
sg16
(lp2081
g2072
ag2073
ag2074
ag2075
ag2076
ag2077
ag30
aS'aliens'
p2082
asg22
(lp2083
g2082
asba(iMeme
Meme
p2084
(dp2085
g3
(lp2086
S'while'
p2087
aS'da'
p2088
aS'pyramids'
p2089
aS'of'
p2090
aS'egypt'
p2091
aS'are'
p2092
ag125
aS'great'
p2093
aS'achievement'
p2094
asg10
S'while da pyramids of egypt are a great achievement'
p2095
sg12
S' compared to puma punku da pyramids are childs play'
p2096
sg14
Vancient-aliens-guy
p2097
sg16
(lp2098
g2087
ag2088
ag2089
ag2090
ag2091
ag2092
ag125
ag2093
ag2094
aS'compared'
p2099
aS'to'
p2100
aS'puma'
p2101
aS'punku'
p2102
aS'da'
p2103
aS'pyramids'
p2104
aS'are'
p2105
aS'childs'
p2106
aS'play'
p2107
asg22
(lp2108
g2099
ag2100
ag2101
ag2102
ag2103
ag2104
ag2105
ag2106
ag2107
asba(iMeme
Meme
p2109
(dp2110
g3
(lp2111
S'ancient'
p2112
aS'aliens'
p2113
asg10
S'ancient aliens'
p2114
sg12
S' have the best weed'
p2115
sg14
Vancient-aliens-guy
p2116
sg16
(lp2117
g2112
ag2113
aS'have'
p2118
aS'the'
p2119
aS'best'
p2120
aS'weed'
p2121
asg22
(lp2122
g2118
ag2119
ag2120
ag2121
asba(iMeme
Meme
p2123
(dp2124
g3
(lp2125
S'aliens'
p2126
aS'man'
p2127
asg10
S'aliens man'
p2128
sg12
S' they stole ur 8===d'
p2129
sg14
Vancient-aliens-guy
p2130
sg16
(lp2131
g2126
ag2127
aS'they'
p2132
aS'stole'
p2133
aS'ur'
p2134
aS'8===d'
p2135
asg22
(lp2136
g2132
ag2133
ag2134
ag2135
asba(iMeme
Meme
p2137
(dp2138
g3
(lp2139
S'trust'
p2140
aS'me'
p2141
asg10
S'trust me'
p2142
sg12
S' its fucking aliens brah'
p2143
sg14
Vancient-aliens-guy
p2144
sg16
(lp2145
g2140
ag2141
aS'its'
p2146
aS'fucking'
p2147
aS'aliens'
p2148
aS'brah'
p2149
asg22
(lp2150
g2146
ag2147
ag2148
ag2149
asba(iMeme
Meme
p2151
(dp2152
g3
(lp2153
S'this'
p2154
aS'one'
p2155
aS'time..'
p2156
asg10
S'this one time..'
p2157
sg12
S' at band camp..'
p2158
sg14
Vancient-aliens-guy
p2159
sg16
(lp2160
g2154
ag2155
ag2156
aS'at'
p2161
aS'band'
p2162
aS'camp..'
p2163
asg22
(lp2164
g2161
ag2162
ag2163
asba(iMeme
Meme
p2165
(dp2166
g3
(lp2167
S'persian'
p2168
aS'girls'
p2169
asg10
S'persian girls'
p2170
sg12
S' i have better luck with aliens'
p2171
sg14
Vancient-aliens-guy
p2172
sg16
(lp2173
g2168
ag2169
ag70
aS'have'
p2174
aS'better'
p2175
aS'luck'
p2176
aS'with'
p2177
aS'aliens'
p2178
asg22
(lp2179
g70
ag2174
ag2175
ag2176
ag2177
ag2178
asba(iMeme
Meme
p2180
(dp2181
g3
(lp2182
g70
aS'understand'
p2183
aS'what'
p2184
aS'youre'
p2185
aS'saying'
p2186
asg10
S'i understand what youre saying'
p2187
sg12
S' but youre wrong'
p2188
sg14
Vancient-aliens-guy
p2189
sg16
(lp2190
g70
ag2183
ag2184
ag2185
ag2186
aS'but'
p2191
aS'youre'
p2192
aS'wrong'
p2193
asg22
(lp2194
g2191
ag2192
ag2193
asba(iMeme
Meme
p2195
(dp2196
g3
(lp2197
S'why'
p2198
aS'is'
p2199
aS'my'
p2200
aS'skin'
p2201
aS'orange'
p2202
ag30
asg10
S'why is my skin orange?'
p2203
sg12
S' the aliens got to me. i must leave'
p2204
sg14
Vancient-aliens-guy
p2205
sg16
(lp2206
g2198
ag2199
ag2200
ag2201
ag2202
ag30
aS'the'
p2207
aS'aliens'
p2208
aS'got'
p2209
aS'to'
p2210
aS'me'
p2211
ag21
ag70
aS'must'
p2212
aS'leave'
p2213
asg22
(lp2214
g2207
ag2208
ag2209
ag2210
ag2211
ag21
ag70
ag2212
ag2213
asba(iMeme
Meme
p2215
(dp2216
g3
(lp2217
S'ill'
p2218
aS'get'
p2219
aS'that'
p2220
aS'bitch'
p2221
aS'an'
p2222
aS'alien'
p2223
asg10
S'ill get that bitch an alien'
p2224
sg12
S' bitches love aliens'
p2225
sg14
Vancient-aliens-guy
p2226
sg16
(lp2227
g2218
ag2219
ag2220
ag2221
ag2222
ag2223
aS'bitches'
p2228
aS'love'
p2229
aS'aliens'
p2230
asg22
(lp2231
g2228
ag2229
ag2230
asba(iMeme
Meme
p2232
(dp2233
g3
(lp2234
S'apollo'
p2235
aS'18'
p2236
aS'movie'
p2237
ag30
asg10
S'apollo 18 movie?'
p2238
sg12
S' totally proves aliens!'
p2239
sg14
Vancient-aliens-guy
p2240
sg16
(lp2241
g2235
ag2236
ag2237
ag30
aS'totally'
p2242
aS'proves'
p2243
aS'aliens'
p2244
ag297
asg22
(lp2245
g2242
ag2243
ag2244
ag297
asba(iMeme
Meme
p2246
(dp2247
g3
(lp2248
S'satellite'
p2249
ag30
aS'please'
p2250
ag21
asg10
S'satellite? please.'
p2251
sg12
S' alien ufo'
p2252
sg14
Vancient-aliens-guy
p2253
sg16
(lp2254
g2249
ag30
ag2250
ag21
aS'alien'
p2255
aS'ufo'
p2256
asg22
(lp2257
g2255
ag2256
asba(iMeme
Meme
p2258
(dp2259
g3
(lp2260
S'arrow'
p2261
aS'to'
p2262
aS'the'
p2263
aS'knee'
p2264
ag30
asg10
S'arrow to the knee?'
p2265
sg12
S' aliens'
p2266
sg14
Vancient-aliens-guy
p2267
sg16
(lp2268
g2261
ag2262
ag2263
ag2264
ag30
aS'aliens'
p2269
asg22
(lp2270
g2269
asba(iMeme
Meme
p2271
(dp2272
g3
(lp2273
S'ancient'
p2274
aS'aliens'
p2275
aS'abducted'
p2276
aS'me'
p2277
asg10
S'ancient aliens abducted me'
p2278
sg12
S' and all i got was this fake tan'
p2279
sg14
Vancient-aliens-guy
p2280
sg16
(lp2281
g2274
ag2275
ag2276
ag2277
aS'and'
p2282
aS'all'
p2283
ag70
aS'got'
p2284
aS'was'
p2285
aS'this'
p2286
aS'fake'
p2287
aS'tan'
p2288
asg22
(lp2289
g2282
ag2283
ag70
ag2284
ag2285
ag2286
ag2287
ag2288
asba(iMeme
Meme
p2290
(dp2291
g3
(lp2292
S'black'
p2293
aS'kid'
p2294
aS'dancing'
p2295
asg10
S'black kid dancing'
p2296
sg12
S' aliens'
p2297
sg14
Vancient-aliens-guy
p2298
sg16
(lp2299
g2293
ag2294
ag2295
aS'aliens'
p2300
asg22
(lp2301
g2300
asba(iMeme
Meme
p2302
(dp2303
g3
(lp2304
S'uses'
p2305
aS'back'
p2306
aS'as'
p2307
aS'scratching'
p2308
aS'post'
p2309
asg10
S'uses back as scratching post'
p2310
sg12
S' krewella'
p2311
sg14
Vancient-aliens-guy
p2312
sg16
(lp2313
g2305
ag2306
ag2307
ag2308
ag2309
aS'krewella'
p2314
asg22
(lp2315
g2314
asba(iMeme
Meme
p2316
(dp2317
g3
(lp2318
S'if'
p2319
aS'ancient'
p2320
aS'aliens'
p2321
aS'didnt'
p2322
aS'exist'
p2323
asg10
S'if ancient aliens didnt exist'
p2324
sg12
S' then how did they build everything?'
p2325
sg14
Vancient-aliens-guy
p2326
sg16
(lp2327
g2319
ag2320
ag2321
ag2322
ag2323
aS'then'
p2328
aS'how'
p2329
aS'did'
p2330
aS'they'
p2331
aS'build'
p2332
aS'everything'
p2333
ag30
asg22
(lp2334
g2328
ag2329
ag2330
ag2331
ag2332
ag2333
ag30
asba(iMeme
Meme
p2335
(dp2336
g3
(lp2337
S'im'
p2338
aS'not'
p2339
aS'saying'
p2340
aS'youre'
p2341
aS'wrong'
p2342
asg10
S'im not saying youre wrong'
p2343
sg12
S' but yourre worng'
p2344
sg14
Vancient-aliens-guy
p2345
sg16
(lp2346
g2338
ag2339
ag2340
ag2341
ag2342
aS'but'
p2347
aS'yourre'
p2348
aS'worng'
p2349
asg22
(lp2350
g2347
ag2348
ag2349
asba(iMeme
Meme
p2351
(dp2352
g3
(lp2353
g70
aS'can`t'
p2354
aS'explain'
p2355
asg10
S'i can`t explain'
p2356
sg12
S' therefore: god!'
p2357
sg14
Vancient-aliens-guy
p2358
sg16
(lp2359
g70
ag2354
ag2355
aS'therefore'
p2360
ag724
aS'god'
p2361
ag297
asg22
(lp2362
g2360
ag724
ag2361
ag297
asba(iMeme
Meme
p2363
(dp2364
g3
(lp2365
S'steve'
p2366
aS'jobs'
p2367
aS'dead'
p2368
ag30
asg10
S'steve jobs dead?'
p2369
sg12
S' definitely aliens!'
p2370
sg14
Vancient-aliens-guy
p2371
sg16
(lp2372
g2366
ag2367
ag2368
ag30
aS'definitely'
p2373
aS'aliens'
p2374
ag297
asg22
(lp2375
g2373
ag2374
ag297
asba(iMeme
Meme
p2376
(dp2377
g3
(lp2378
S'aliens'
p2379
asg10
S'aliens'
p2380
sg12
S' walk into mordor'
p2381
sg14
Vancient-aliens-guy
p2382
sg16
(lp2383
g2379
aS'walk'
p2384
aS'into'
p2385
aS'mordor'
p2386
asg22
(lp2387
g2384
ag2385
ag2386
asba(iMeme
Meme
p2388
(dp2389
g3
(lp2390
S'mystery'
p2391
aS'rising'
p2392
aS'within'
p2393
aS'mercury'
p2394
ag30
asg10
S'mystery rising within mercury?'
p2395
sg12
S' aliens'
p2396
sg14
Vancient-aliens-guy
p2397
sg16
(lp2398
g2391
ag2392
ag2393
ag2394
ag30
aS'aliens'
p2399
asg22
(lp2400
g2399
asba(iMeme
Meme
p2401
(dp2402
g3
(lp2403
S'why'
p2404
aS'are'
p2405
aS'asian'
p2406
aS'people'
p2407
aS'so'
p2408
aS'smart'
p2409
ag30
asg10
S'why are asian people so smart?'
p2410
sg12
S' aliens'
p2411
sg14
Vancient-aliens-guy
p2412
sg16
(lp2413
g2404
ag2405
ag2406
ag2407
ag2408
ag2409
ag30
aS'aliens'
p2414
asg22
(lp2415
g2414
asba(iMeme
Meme
p2416
(dp2417
g3
(lp2418
S'ancient'
p2419
aS'alien'
p2420
aS'babes'
p2421
aS'boobs'
p2422
asg10
S'ancient alien babes boobs'
p2423
sg12
S' (.)(.)(.)'
p2424
sg14
Vancient-aliens-guy
p2425
sg16
(lp2426
g2419
ag2420
ag2421
ag2422
ag1349
ag21
ag1351
ag1349
ag21
ag1351
ag1349
ag21
ag1351
asg22
(lp2427
g1349
ag21
ag1351
ag1349
ag21
ag1351
ag1349
ag21
ag1351
asba(iMeme
Meme
p2428
(dp2429
g3
(lp2430
S'psychedelic'
p2431
aS'mushrooms'
p2432
ag30
asg10
S'psychedelic mushrooms?'
p2433
sg12
S' alien artifacts'
p2434
sg14
Vancient-aliens-guy
p2435
sg16
(lp2436
g2431
ag2432
ag30
aS'alien'
p2437
aS'artifacts'
p2438
asg22
(lp2439
g2437
ag2438
asba(iMeme
Meme
p2440
(dp2441
g3
(lp2442
g125
aS'black'
p2443
aS'man'
p2444
aS'president'
p2445
ag30
asg10
S'a black man president?'
p2446
sg12
S' alien voters'
p2447
sg14
Vancient-aliens-guy
p2448
sg16
(lp2449
g125
ag2443
ag2444
ag2445
ag30
aS'alien'
p2450
aS'voters'
p2451
asg22
(lp2452
g2450
ag2451
asba(iMeme
Meme
p2453
(dp2454
g3
(lp2455
S'the'
p2456
aS'pyramids'
p2457
aS'of'
p2458
aS'egypt'
p2459
ag30
asg10
S'the pyramids of egypt?'
p2460
sg12
S' definitely aliens'
p2461
sg14
Vancient-aliens-guy
p2462
sg16
(lp2463
g2456
ag2457
ag2458
ag2459
ag30
aS'definitely'
p2464
aS'aliens'
p2465
asg22
(lp2466
g2464
ag2465
asba(iMeme
Meme
p2467
(dp2468
g3
(lp2469
S'my'
p2470
aS'first'
p2471
aS'thought'
p2472
aS'of'
p2473
aS'3d'
p2474
aS'television'
p2475
asg10
S'my first thought of 3d television'
p2476
sg12
S' aliens exist'
p2477
sg14
Vancient-aliens-guy
p2478
sg16
(lp2479
g2470
ag2471
ag2472
ag2473
ag2474
ag2475
aS'aliens'
p2480
aS'exist'
p2481
asg22
(lp2482
g2480
ag2481
asba(iMeme
Meme
p2483
(dp2484
g3
(lp2485
S'just'
p2486
aS'kidding'
p2487
ag21
asg10
S'just kidding.'
p2488
sg12
S' its aliens.'
p2489
sg14
Vancient-aliens-guy
p2490
sg16
(lp2491
g2486
ag2487
ag21
aS'its'
p2492
aS'aliens'
p2493
ag21
asg22
(lp2494
g2492
ag2493
ag21
asba(iMeme
Meme
p2495
(dp2496
g3
(lp2497
S'you'
p2498
aS'dont'
p2499
aS'believe'
p2500
ag125
aS'word'
p2501
aS'im'
p2502
aS'saying'
p2503
asg10
S'you dont believe a word im saying'
p2504
sg12
S' do you?'
p2505
sg14
Vancient-aliens-guy
p2506
sg16
(lp2507
g2498
ag2499
ag2500
ag125
ag2501
ag2502
ag2503
aS'do'
p2508
aS'you'
p2509
ag30
asg22
(lp2510
g2508
ag2509
ag30
asba(iMeme
Meme
p2511
(dp2512
g3
(lp2513
S'its'
p2514
aS'all'
p2515
aS'about'
p2516
asg10
S'its all about'
p2517
sg12
S' context'
p2518
sg14
Vancient-aliens-guy
p2519
sg16
(lp2520
g2514
ag2515
ag2516
aS'context'
p2521
asg22
(lp2522
g2521
asba(iMeme
Meme
p2523
(dp2524
g3
(lp2525
S'ancient'
p2526
aS'aliens'
p2527
aS'show'
p2528
aS'up'
p2529
asg10
S'ancient aliens show up'
p2530
sg12
S' exterminate inferior fat neckbeards'
p2531
sg14
Vancient-aliens-guy
p2532
sg16
(lp2533
g2526
ag2527
ag2528
ag2529
aS'exterminate'
p2534
aS'inferior'
p2535
aS'fat'
p2536
aS'neckbeards'
p2537
asg22
(lp2538
g2534
ag2535
ag2536
ag2537
asba(iMeme
Meme
p2539
(dp2540
g3
(lp2541
S'nine'
p2542
aS'dead'
p2543
aS'russian'
p2544
aS'hikers'
p2545
ag30
asg10
S'nine dead russian hikers?'
p2546
sg12
S' extaterrestials'
p2547
sg14
Vancient-aliens-guy
p2548
sg16
(lp2549
g2542
ag2543
ag2544
ag2545
ag30
aS'extaterrestials'
p2550
asg22
(lp2551
g2550
asba(iMeme
Meme
p2552
(dp2553
g3
(lp2554
S'headband'
p2555
ag30
asg10
S'headband?'
p2556
sg12
S' its alien weed'
p2557
sg14
Vancient-aliens-guy
p2558
sg16
(lp2559
g2555
ag30
aS'its'
p2560
aS'alien'
p2561
aS'weed'
p2562
asg22
(lp2563
g2560
ag2561
ag2562
asba(iMeme
Meme
p2564
(dp2565
g3
(lp2566
S'anderson'
p2567
aS'silva'
p2568
asg10
S'anderson silva'
p2569
sg12
S' therefore aliens'
p2570
sg14
Vancient-aliens-guy
p2571
sg16
(lp2572
g2567
ag2568
aS'therefore'
p2573
aS'aliens'
p2574
asg22
(lp2575
g2573
ag2574
asba(iMeme
Meme
p2576
(dp2577
g3
(lp2578
S'its'
p2579
aS'like'
p2580
aS'this'
p2581
asg10
S'its like this'
p2582
sg12
S' ground zero means nuclear detonation site.'
p2583
sg14
Vancient-aliens-guy
p2584
sg16
(lp2585
g2579
ag2580
ag2581
aS'ground'
p2586
aS'zero'
p2587
aS'means'
p2588
aS'nuclear'
p2589
aS'detonation'
p2590
aS'site'
p2591
ag21
asg22
(lp2592
g2586
ag2587
ag2588
ag2589
ag2590
ag2591
ag21
asba(iMeme
Meme
p2593
(dp2594
g3
(lp2595
S'this'
p2596
aS'is'
p2597
aS'actually'
p2598
aS'funny'
p2599
ag30
asg10
S'this is actually funny?'
p2600
sg12
S' aliens'
p2601
sg14
Vancient-aliens-guy
p2602
sg16
(lp2603
g2596
ag2597
ag2598
ag2599
ag30
aS'aliens'
p2604
asg22
(lp2605
g2604
asba(iMeme
Meme
p2606
(dp2607
g3
(lp2608
S'when'
p2609
aS'karthus'
p2610
aS'ults'
p2611
asg10
S'when karthus ults'
p2612
sg12
S' its acutally aliens'
p2613
sg14
Vancient-aliens-guy
p2614
sg16
(lp2615
g2609
ag2610
ag2611
aS'its'
p2616
aS'acutally'
p2617
aS'aliens'
p2618
asg22
(lp2619
g2616
ag2617
ag2618
asba(iMeme
Meme
p2620
(dp2621
g3
(lp2622
S'kevin'
p2623
ag30
asg10
S'kevin?'
p2624
sg12
S' he is gay'
p2625
sg14
Vancient-aliens-guy
p2626
sg16
(lp2627
g2623
ag30
aS'he'
p2628
aS'is'
p2629
aS'gay'
p2630
asg22
(lp2631
g2628
ag2629
ag2630
asba(iMeme
Meme
p2632
(dp2633
g3
(lp2634
S'man'
p2635
asg10
S'man'
p2636
sg12
S' they were all into taking acid and making paintings.'
p2637
sg14
Vancient-aliens-guy
p2638
sg16
(lp2639
g2635
aS'they'
p2640
aS'were'
p2641
aS'all'
p2642
aS'into'
p2643
aS'taking'
p2644
aS'acid'
p2645
aS'and'
p2646
aS'making'
p2647
aS'paintings'
p2648
ag21
asg22
(lp2649
g2640
ag2641
ag2642
ag2643
ag2644
ag2645
ag2646
ag2647
ag2648
ag21
asba(iMeme
Meme
p2650
(dp2651
g3
(lp2652
S'im'
p2653
aS'not'
p2654
aS'saying'
p2655
aS'that'
p2656
aS'wasnt'
p2657
aS'funny'
p2658
asg10
S'im not saying that wasnt funny'
p2659
sg12
S' but that wasnt funny'
p2660
sg14
Vancient-aliens-guy
p2661
sg16
(lp2662
g2653
ag2654
ag2655
ag2656
ag2657
ag2658
aS'but'
p2663
aS'that'
p2664
aS'wasnt'
p2665
aS'funny'
p2666
asg22
(lp2667
g2663
ag2664
ag2665
ag2666
asba(iMeme
Meme
p2668
(dp2669
g3
(lp2670
S'sorry'
p2671
aS'you'
p2672
aS'got'
p2673
aS'grounded'
p2674
aS'son'
p2675
asg10
S'sorry you got grounded son'
p2676
sg12
S' maybe aliens could be your girlfriend tonight'
p2677
sg14
Vancient-aliens-guy
p2678
sg16
(lp2679
g2671
ag2672
ag2673
ag2674
ag2675
aS'maybe'
p2680
aS'aliens'
p2681
aS'could'
p2682
aS'be'
p2683
aS'your'
p2684
aS'girlfriend'
p2685
aS'tonight'
p2686
asg22
(lp2687
g2680
ag2681
ag2682
ag2683
ag2684
ag2685
ag2686
asba(iMeme
Meme
p2688
(dp2689
g3
(lp2690
S'im'
p2691
aS'not'
p2692
aS'saying'
p2693
aS'its'
p2694
aS'god'
p2695
asg10
S'im not saying its god'
p2696
sg12
S' but its god'
p2697
sg14
Vancient-aliens-guy
p2698
sg16
(lp2699
g2691
ag2692
ag2693
ag2694
ag2695
aS'but'
p2700
aS'its'
p2701
aS'god'
p2702
asg22
(lp2703
g2700
ag2701
ag2702
asba(iMeme
Meme
p2704
(dp2705
g3
(lp2706
S'9/11'
p2707
aS'was'
p2708
aS'not'
p2709
aS'perpetrated'
p2710
aS'by'
p2711
aS'terrorists'
p2712
asg10
S'9/11 was not perpetrated by terrorists'
p2713
sg12
S' it was my crazy hair.'
p2714
sg14
Vancient-aliens-guy
p2715
sg16
(lp2716
g2707
ag2708
ag2709
ag2710
ag2711
ag2712
aS'it'
p2717
aS'was'
p2718
aS'my'
p2719
aS'crazy'
p2720
aS'hair'
p2721
ag21
asg22
(lp2722
g2717
ag2718
ag2719
ag2720
ag2721
ag21
asba(iMeme
Meme
p2723
(dp2724
g3
(lp2725
S'dirk'
p2726
aS'nowitzki'
p2727
asg10
S'dirk nowitzki'
p2728
sg12
S' tall. blonde. alien.'
p2729
sg14
Vancient-aliens-guy
p2730
sg16
(lp2731
g2726
ag2727
aS'tall'
p2732
ag21
aS'blonde'
p2733
ag21
aS'alien'
p2734
ag21
asg22
(lp2735
g2732
ag21
ag2733
ag21
ag2734
ag21
asba(iMeme
Meme
p2736
(dp2737
g3
(lp2738
S'thats'
p2739
aS'what'
p2740
aS'you'
p2741
aS'think'
p2742
ag21
asg10
S'thats what you think.'
p2743
sg12
S' but really'
p2744
sg14
Vancient-aliens-guy
p2745
sg16
(lp2746
g2739
ag2740
ag2741
ag2742
ag21
aS'but'
p2747
aS'really'
p2748
asg22
(lp2749
g2747
ag2748
asba(iMeme
Meme
p2750
(dp2751
g3
(lp2752
S'party'
p2753
aS'rock'
p2754
aS'shuffle'
p2755
asg10
S'party rock shuffle'
p2756
sg12
S' was brought to earth by mayan aliens'
p2757
sg14
Vancient-aliens-guy
p2758
sg16
(lp2759
g2753
ag2754
ag2755
aS'was'
p2760
aS'brought'
p2761
aS'to'
p2762
aS'earth'
p2763
aS'by'
p2764
aS'mayan'
p2765
aS'aliens'
p2766
asg22
(lp2767
g2760
ag2761
ag2762
ag2763
ag2764
ag2765
ag2766
asba(iMeme
Meme
p2768
(dp2769
g3
(lp2770
S'its'
p2771
aS'not'
p2772
aS'aliens'
p2773
asg10
S'its not aliens'
p2774
sg12
S' but its aliens'
p2775
sg14
Vancient-aliens-guy
p2776
sg16
(lp2777
g2771
ag2772
ag2773
aS'but'
p2778
aS'its'
p2779
aS'aliens'
p2780
asg22
(lp2781
g2778
ag2779
ag2780
asba(iMeme
Meme
p2782
(dp2783
g3
(lp2784
S'ambercutie'
p2785
aS'in'
p2786
aS'the'
p2787
aS'top'
p2788
aS'2o'
p2789
ag30
asg10
S'ambercutie in the top 2o?'
p2790
sg12
S' yep'
p2791
sg14
Vancient-aliens-guy
p2792
sg16
(lp2793
g2785
ag2786
ag2787
ag2788
ag2789
ag30
aS'yep'
p2794
asg22
(lp2795
g2794
asba(iMeme
Meme
p2796
(dp2797
g3
(lp2798
S'those'
p2799
aS'arent'
p2800
aS'mayan'
p2801
aS'pyramids'
p2802
asg10
S'those arent mayan pyramids'
p2803
sg12
S' shibboleth built them'
p2804
sg14
Vancient-aliens-guy
p2805
sg16
(lp2806
g2799
ag2800
ag2801
ag2802
aS'shibboleth'
p2807
aS'built'
p2808
aS'them'
p2809
asg22
(lp2810
g2807
ag2808
ag2809
asba(iMeme
Meme
p2811
(dp2812
g3
(lp2813
S'you'
p2814
aS'all'
p2815
aS'think'
p2816
aS'aliens'
p2817
aS'built'
p2818
aS'the'
p2819
aS'pyramids'
p2820
asg10
S'you all think aliens built the pyramids'
p2821
sg12
S' but actually it was aliens!'
p2822
sg14
Vancient-aliens-guy
p2823
sg16
(lp2824
g2814
ag2815
ag2816
ag2817
ag2818
ag2819
ag2820
aS'but'
p2825
aS'actually'
p2826
aS'it'
p2827
aS'was'
p2828
aS'aliens'
p2829
ag297
asg22
(lp2830
g2825
ag2826
ag2827
ag2828
ag2829
ag297
asba(iMeme
Meme
p2831
(dp2832
g3
(lp2833
S'those'
p2834
aS'arent'
p2835
aS'mayan'
p2836
aS'pyramids'
p2837
asg10
S'those arent mayan pyramids'
p2838
sg12
S' shibboleth built them'
p2839
sg14
Vancient-aliens-guy
p2840
sg16
(lp2841
g2834
ag2835
ag2836
ag2837
aS'shibboleth'
p2842
aS'built'
p2843
aS'them'
p2844
asg22
(lp2845
g2842
ag2843
ag2844
asba(iMeme
Meme
p2846
(dp2847
g3
(lp2848
S'odd'
p2849
aS'structures'
p2850
aS'found'
p2851
aS'in'
p2852
aS'the'
p2853
aS'gobi'
p2854
ag30
asg10
S'odd structures found in the gobi?'
p2855
sg12
S' aliens'
p2856
sg14
Vancient-aliens-guy
p2857
sg16
(lp2858
g2849
ag2850
ag2851
ag2852
ag2853
ag2854
ag30
aS'aliens'
p2859
asg22
(lp2860
g2859
asba(iMeme
Meme
p2861
(dp2862
g3
(lp2863
S'michelle'
p2864
aS'bachmann'
p2865
aS'is'
p2866
ag125
aS'racist'
p2867
asg10
S'michelle bachmann is a racist'
p2868
sg12
S' therefore ron paul is a racist'
p2869
sg14
Vancient-aliens-guy
p2870
sg16
(lp2871
g2864
ag2865
ag2866
ag125
ag2867
aS'therefore'
p2872
aS'ron'
p2873
aS'paul'
p2874
aS'is'
p2875
ag125
aS'racist'
p2876
asg22
(lp2877
g2872
ag2873
ag2874
ag2875
ag125
ag2876
asba(iMeme
Meme
p2878
(dp2879
g3
(lp2880
S'philosoraptor'
p2881
ag30
asg10
S'philosoraptor?'
p2882
sg12
S' ancient alien technology'
p2883
sg14
Vancient-aliens-guy
p2884
sg16
(lp2885
g2881
ag30
aS'ancient'
p2886
aS'alien'
p2887
aS'technology'
p2888
asg22
(lp2889
g2886
ag2887
ag2888
asba(iMeme
Meme
p2890
(dp2891
g3
(lp2892
g70
aS'dont'
p2893
aS'give'
p2894
aS'fuck'
p2895
aS'about'
p2896
aS'one'
p2897
aS'thing'
p2898
asg10
S'i dont give fuck about one thing'
p2899
sg12
S' my father is annunaki'
p2900
sg14
Vancient-aliens-guy
p2901
sg16
(lp2902
g70
ag2893
ag2894
ag2895
ag2896
ag2897
ag2898
aS'my'
p2903
aS'father'
p2904
aS'is'
p2905
aS'annunaki'
p2906
asg22
(lp2907
g2903
ag2904
ag2905
ag2906
asba(iMeme
Meme
p2908
(dp2909
g3
(lp2910
S'make'
p2911
aS'stupid'
p2912
aS'thread'
p2913
asg10
S'make stupid thread'
p2914
sg12
S' get locked'
p2915
sg14
Vancient-aliens-guy
p2916
sg16
(lp2917
g2911
ag2912
ag2913
aS'get'
p2918
aS'locked'
p2919
asg22
(lp2920
g2918
ag2919
asba(iMeme
Meme
p2921
(dp2922
g3
(lp2923
S'im'
p2924
aS'not'
p2925
aS'saying'
p2926
aS'josh'
p2927
aS'is'
p2928
aS'gay'
p2929
asg10
S'im not saying josh is gay'
p2930
sg12
S' but josh is gay.'
p2931
sg14
Vancient-aliens-guy
p2932
sg16
(lp2933
g2924
ag2925
ag2926
ag2927
ag2928
ag2929
aS'but'
p2934
aS'josh'
p2935
aS'is'
p2936
aS'gay'
p2937
ag21
asg22
(lp2938
g2934
ag2935
ag2936
ag2937
ag21
asba(iMeme
Meme
p2939
(dp2940
g3
(lp2941
S'gabe'
p2942
aS'newell'
p2943
asg10
S'gabe newell'
p2944
sg12
S' used alien technology to create steam'
p2945
sg14
Vancient-aliens-guy
p2946
sg16
(lp2947
g2942
ag2943
aS'used'
p2948
aS'alien'
p2949
aS'technology'
p2950
aS'to'
p2951
aS'create'
p2952
aS'steam'
p2953
asg22
(lp2954
g2948
ag2949
ag2950
ag2951
ag2952
ag2953
asba(iMeme
Meme
p2955
(dp2956
g3
(lp2957
S'science'
p2958
aS'proves'
p2959
aS'its'
p2960
aS'not'
p2961
aS'aliens'
p2962
asg10
S'science proves its not aliens'
p2963
sg12
S' scientist is an alien'
p2964
sg14
Vancient-aliens-guy
p2965
sg16
(lp2966
g2958
ag2959
ag2960
ag2961
ag2962
aS'scientist'
p2967
aS'is'
p2968
aS'an'
p2969
aS'alien'
p2970
asg22
(lp2971
g2967
ag2968
ag2969
ag2970
asba(iMeme
Meme
p2972
(dp2973
g3
(lp2974
S'bitch'
p2975
aS'please'
p2976
asg10
S'bitch please'
p2977
sg12
S' i know you know me ;)'
p2978
sg14
Vancient-aliens-guy
p2979
sg16
(lp2980
g2975
ag2976
ag70
aS'know'
p2981
aS'you'
p2982
aS'know'
p2983
aS'me'
p2984
aS';'
p2985
ag1351
asg22
(lp2986
g70
ag2981
ag2982
ag2983
ag2984
ag2985
ag1351
asba(iMeme
Meme
p2987
(dp2988
g3
(lp2989
S'im'
p2990
aS'too'
p2991
aS'stoned'
p2992
aS'for'
p2993
aS'this'
p2994
asg10
S'im too stoned for this'
p2995
sg12
S' ancient. fucking. aliens.'
p2996
sg14
Vancient-aliens-guy
p2997
sg16
(lp2998
g2990
ag2991
ag2992
ag2993
ag2994
aS'ancient'
p2999
ag21
aS'fucking'
p3000
ag21
aS'aliens'
p3001
ag21
asg22
(lp3002
g2999
ag21
ag3000
ag21
ag3001
ag21
asba(iMeme
Meme
p3003
(dp3004
g3
(lp3005
S'r'
p3006
aS'kelly'
p3007
aS'didnt'
p3008
aS'piss'
p3009
aS'on'
p3010
aS'that'
p3011
aS'girl'
p3012
asg10
S'r kelly didnt piss on that girl'
p3013
sg12
S' aliens did it nigga'
p3014
sg14
Vancient-aliens-guy
p3015
sg16
(lp3016
g3006
ag3007
ag3008
ag3009
ag3010
ag3011
ag3012
aS'aliens'
p3017
aS'did'
p3018
aS'it'
p3019
aS'nigga'
p3020
asg22
(lp3021
g3017
ag3018
ag3019
ag3020
asba(iMeme
Meme
p3022
(dp3023
g3
(lp3024
S'after'
p3025
aS'lunch'
p3026
aS'at'
p3027
aS'mcdonalds'
p3028
asg10
S'after lunch at mcdonalds'
p3029
sg12
S' i gave birth to an ancient alien this big'
p3030
sg14
Vancient-aliens-guy
p3031
sg16
(lp3032
g3025
ag3026
ag3027
ag3028
ag70
aS'gave'
p3033
aS'birth'
p3034
aS'to'
p3035
aS'an'
p3036
aS'ancient'
p3037
aS'alien'
p3038
aS'this'
p3039
aS'big'
p3040
asg22
(lp3041
g70
ag3033
ag3034
ag3035
ag3036
ag3037
ag3038
ag3039
ag3040
asba(iMeme
Meme
p3042
(dp3043
g3
(lp3044
S'it'
p3045
aS'was'
p3046
aS'aliens'
p3047
aS'bro'
p3048
ag21
asg10
S'it was aliens bro.'
p3049
sg12
S' amirite or amirite?'
p3050
sg14
Vancient-aliens-guy
p3051
sg16
(lp3052
g3045
ag3046
ag3047
ag3048
ag21
aS'amirite'
p3053
aS'or'
p3054
aS'amirite'
p3055
ag30
asg22
(lp3056
g3053
ag3054
ag3055
ag30
asba(iMeme
Meme
p3057
(dp3058
g3
(lp3059
S'4chan'
p3060
aS'down'
p3061
ag30
asg10
S'4chan down?'
p3062
sg12
S' antient. fucking. aliens'
p3063
sg14
Vancient-aliens-guy
p3064
sg16
(lp3065
g3060
ag3061
ag30
aS'antient'
p3066
ag21
aS'fucking'
p3067
ag21
aS'aliens'
p3068
asg22
(lp3069
g3066
ag21
ag3067
ag21
ag3068
asba(iMeme
Meme
p3070
(dp3071
g3
(lp3072
S'dick'
p3073
aS'clark'
p3074
ag30
asg10
S'dick clark?'
p3075
sg12
S' an ancient alien'
p3076
sg14
Vancient-aliens-guy
p3077
sg16
(lp3078
g3073
ag3074
ag30
aS'an'
p3079
aS'ancient'
p3080
aS'alien'
p3081
asg22
(lp3082
g3079
ag3080
ag3081
asba(iMeme
Meme
p3083
(dp3084
g3
(lp3085
S'the'
p3086
aS'problem'
p3087
aS'with'
p3088
aS'indiana'
p3089
aS'jones'
p3090
aS'4'
p3091
asg10
S'the problem with indiana jones 4'
p3092
sg12
S' is aliens'
p3093
sg14
Vancient-aliens-guy
p3094
sg16
(lp3095
g3086
ag3087
ag3088
ag3089
ag3090
ag3091
aS'is'
p3096
aS'aliens'
p3097
asg22
(lp3098
g3096
ag3097
asba(iMeme
Meme
p3099
(dp3100
g3
(lp3101
S'why'
p3102
aS'tebow'
p3103
aS'wins'
p3104
ag30
ag30
asg10
S'why tebow wins??'
p3105
sg12
S' aliens!'
p3106
sg14
Vancient-aliens-guy
p3107
sg16
(lp3108
g3102
ag3103
ag3104
ag30
ag30
aS'aliens'
p3109
ag297
asg22
(lp3110
g3109
ag297
asba(iMeme
Meme
p3111
(dp3112
g3
(lp3113
S'how'
p3114
aS'many'
p3115
aS'licks'
p3116
aS'does'
p3117
aS'it'
p3118
aS'fake'
p3119
aS'to'
p3120
aS'get'
p3121
aS'to'
p3122
aS'the'
p3123
aS'center'
p3124
aS'of'
p3125
ag125
aS'tootsie'
p3126
aS'roll'
p3127
aS'tootsie'
p3128
aS'pop'
p3129
ag30
asg10
S'how many licks does it fake to get to the center of a tootsie roll tootsie pop?'
p3130
sg12
S' ancient aliens answered this roughly 6500 b.c.'
p3131
sg14
Vancient-aliens-guy
p3132
sg16
(lp3133
g3114
ag3115
ag3116
ag3117
ag3118
ag3119
ag3120
ag3121
ag3122
ag3123
ag3124
ag3125
ag125
ag3126
ag3127
ag3128
ag3129
ag30
aS'ancient'
p3134
aS'aliens'
p3135
aS'answered'
p3136
aS'this'
p3137
aS'roughly'
p3138
aS'6500'
p3139
aS'b.c'
p3140
ag21
asg22
(lp3141
g3134
ag3135
ag3136
ag3137
ag3138
ag3139
ag3140
ag21
asba(iMeme
Meme
p3142
(dp3143
g3
(lp3144
S'my'
p3145
aS'real'
p3146
aS'name'
p3147
aS'is'
p3148
aS'malick'
p3149
ag125
ag21
aS'balzsak'
p3150
asg10
S'my real name is malick a. balzsak'
p3151
sg12
S' but no one took me serious until i had it changed to gregorio tsoukalos'
p3152
sg14
Vancient-aliens-guy
p3153
sg16
(lp3154
g3145
ag3146
ag3147
ag3148
ag3149
ag125
ag21
ag3150
aS'but'
p3155
aS'no'
p3156
aS'one'
p3157
aS'took'
p3158
aS'me'
p3159
aS'serious'
p3160
aS'until'
p3161
ag70
aS'had'
p3162
aS'it'
p3163
aS'changed'
p3164
aS'to'
p3165
aS'gregorio'
p3166
aS'tsoukalos'
p3167
asg22
(lp3168
g3155
ag3156
ag3157
ag3158
ag3159
ag3160
ag3161
ag70
ag3162
ag3163
ag3164
ag3165
ag3166
ag3167
asba(iMeme
Meme
p3169
(dp3170
g3
(lp3171
S'unexplainable'
p3172
aS'computer'
p3173
aS'crash'
p3174
ag30
asg10
S'unexplainable computer crash?'
p3175
sg12
S' aliens'
p3176
sg14
Vancient-aliens-guy
p3177
sg16
(lp3178
g3172
ag3173
ag3174
ag30
aS'aliens'
p3179
asg22
(lp3180
g3179
asba(iMeme
Meme
p3181
(dp3182
g3
(lp3183
S'when'
p3184
ag70
aS'refer'
p3185
aS'to'
p3186
aS'ancient'
p3187
aS'aliens'
p3188
asg10
S'when i refer to ancient aliens'
p3189
sg12
S' im not talking about border hopping wetbacks fifty years ago'
p3190
sg14
Vancient-aliens-guy
p3191
sg16
(lp3192
g3184
ag70
ag3185
ag3186
ag3187
ag3188
aS'im'
p3193
aS'not'
p3194
aS'talking'
p3195
aS'about'
p3196
aS'border'
p3197
aS'hopping'
p3198
aS'wetbacks'
p3199
aS'fifty'
p3200
aS'years'
p3201
aS'ago'
p3202
asg22
(lp3203
g3193
ag3194
ag3195
ag3196
ag3197
ag3198
ag3199
ag3200
ag3201
ag3202
asba(iMeme
Meme
p3204
(dp3205
g3
(lp3206
S'ill'
p3207
aS'tell'
p3208
aS'you'
p3209
aS'what'
p3210
asg10
S'ill tell you what'
p3211
sg12
S' aliens'
p3212
sg14
Vancient-aliens-guy
p3213
sg16
(lp3214
g3207
ag3208
ag3209
ag3210
aS'aliens'
p3215
asg22
(lp3216
g3215
asba(iMeme
Meme
p3217
(dp3218
g3
(lp3219
S'this'
p3220
aS'thread'
p3221
asg10
S'this thread'
p3222
sg12
S' started by aliens'
p3223
sg14
Vancient-aliens-guy
p3224
sg16
(lp3225
g3220
ag3221
aS'started'
p3226
aS'by'
p3227
aS'aliens'
p3228
asg22
(lp3229
g3226
ag3227
ag3228
asba(iMeme
Meme
p3230
(dp3231
g3
(lp3232
S'girls'
p3233
aS'not'
p3234
aS'making'
p3235
aS'men'
p3236
aS'sandwiches'
p3237
ag30
asg10
S'girls not making men sandwiches?'
p3238
sg12
S' aliens.'
p3239
sg14
Vancient-aliens-guy
p3240
sg16
(lp3241
g3233
ag3234
ag3235
ag3236
ag3237
ag30
aS'aliens'
p3242
ag21
asg22
(lp3243
g3242
ag21
asba(iMeme
Meme
p3244
(dp3245
g3
(lp3246
S'indian'
p3247
aS'is'
p3248
aS'still'
p3249
ag125
aS'race'
p3250
asg10
S'indian is still a race'
p3251
sg12
S' your argument is invalid'
p3252
sg14
Vancient-aliens-guy
p3253
sg16
(lp3254
g3247
ag3248
ag3249
ag125
ag3250
aS'your'
p3255
aS'argument'
p3256
aS'is'
p3257
aS'invalid'
p3258
asg22
(lp3259
g3255
ag3256
ag3257
ag3258
asba(iMeme
Meme
p3260
(dp3261
g3
(lp3262
g70
aS'dont'
p3263
aS'know'
p3264
asg10
S'i dont know'
p3265
sg12
S' therefore. aliens !'
p3266
sg14
Vancient-aliens-guy
p3267
sg16
(lp3268
g70
ag3263
ag3264
aS'therefore'
p3269
ag21
aS'aliens'
p3270
ag297
asg22
(lp3271
g3269
ag21
ag3270
ag297
asba(iMeme
Meme
p3272
(dp3273
g3
(lp3274
g70
aS'know'
p3275
aS'right'
p3276
ag30
asg10
S'i know right?'
p3277
sg12
S' im fabulous'
p3278
sg14
Vancient-aliens-guy
p3279
sg16
(lp3280
g70
ag3275
ag3276
ag30
aS'im'
p3281
aS'fabulous'
p3282
asg22
(lp3283
g3281
ag3282
asba(iMeme
Meme
p3284
(dp3285
g3
(lp3286
S'ancient'
p3287
aS'fucking'
p3288
aS'aliens'
p3289
asg10
S'ancient fucking aliens'
p3290
sg12
S' lolwut?'
p3291
sg14
Vancient-aliens-guy
p3292
sg16
(lp3293
g3287
ag3288
ag3289
aS'lolwut'
p3294
ag30
asg22
(lp3295
g3294
ag30
asba(iMeme
Meme
p3296
(dp3297
g3
(lp3298
S'im'
p3299
aS'not'
p3300
aS'saying'
p3301
aS'its'
p3302
aS'the'
p3303
aS'devil'
p3304
asg10
S'im not saying its the devil'
p3305
sg12
S' but its the devil'
p3306
sg14
Vancient-aliens-guy
p3307
sg16
(lp3308
g3299
ag3300
ag3301
ag3302
ag3303
ag3304
aS'but'
p3309
aS'its'
p3310
aS'the'
p3311
aS'devil'
p3312
asg22
(lp3313
g3309
ag3310
ag3311
ag3312
asba(iMeme
Meme
p3314
(dp3315
g3
(lp3316
S'to'
p3317
aS'many'
p3318
aS'asians'
p3319
ag30
asg10
S'to many asians?'
p3320
sg12
S' aliens'
p3321
sg14
Vancient-aliens-guy
p3322
sg16
(lp3323
g3317
ag3318
ag3319
ag30
aS'aliens'
p3324
asg22
(lp3325
g3324
asba(iMeme
Meme
p3326
(dp3327
g3
(lp3328
g125
aS'woman'
p3329
aS'not'
p3330
aS'in'
p3331
aS'the'
p3332
aS'kitchen'
p3333
ag30
asg10
S'a woman not in the kitchen?'
p3334
sg12
S' aliens.'
p3335
sg14
Vancient-aliens-guy
p3336
sg16
(lp3337
g125
ag3329
ag3330
ag3331
ag3332
ag3333
ag30
aS'aliens'
p3338
ag21
asg22
(lp3339
g3338
ag21
asba(iMeme
Meme
p3340
(dp3341
g3
(lp3342
S'lol'
p3343
aS'im'
p3344
aS'so'
p3345
aS'fucking'
p3346
aS'high'
p3347
asg10
S'lol im so fucking high'
p3348
sg12
S' op is stil a faggot'
p3349
sg14
Vancient-aliens-guy
p3350
sg16
(lp3351
g3343
ag3344
ag3345
ag3346
ag3347
aS'op'
p3352
aS'is'
p3353
aS'stil'
p3354
ag125
aS'faggot'
p3355
asg22
(lp3356
g3352
ag3353
ag3354
ag125
ag3355
asba(iMeme
Meme
p3357
(dp3358
g3
(lp3359
S'its'
p3360
aS'your'
p3361
aS'birthday'
p3362
aS'because'
p3363
asg10
S'its your birthday because'
p3364
sg12
S' aliens'
p3365
sg14
Vancient-aliens-guy
p3366
sg16
(lp3367
g3360
ag3361
ag3362
ag3363
aS'aliens'
p3368
asg22
(lp3369
g3368
asba(iMeme
Meme
p3370
(dp3371
g3
(lp3372
S'angels'
p3373
ag30
asg10
S'angels?'
p3374
sg12
S' aliens with jetpacks'
p3375
sg14
Vancient-aliens-guy
p3376
sg16
(lp3377
g3373
ag30
aS'aliens'
p3378
aS'with'
p3379
aS'jetpacks'
p3380
asg22
(lp3381
g3378
ag3379
ag3380
asba(iMeme
Meme
p3382
(dp3383
g3
(lp3384
S'dayum'
p3385
asg10
S'dayum'
p3386
sg12
S' that fucking ass!!'
p3387
sg14
Vancient-aliens-guy
p3388
sg16
(lp3389
g3385
aS'that'
p3390
aS'fucking'
p3391
aS'ass'
p3392
ag297
ag297
asg22
(lp3393
g3390
ag3391
ag3392
ag297
ag297
asba(iMeme
Meme
p3394
(dp3395
g3
(lp3396
S'lol'
p3397
aS'im'
p3398
aS'so'
p3399
aS'fucking'
p3400
aS'high'
p3401
asg10
S'lol im so fucking high'
p3402
sg12
S' op is stil a faggot'
p3403
sg14
Vancient-aliens-guy
p3404
sg16
(lp3405
g3397
ag3398
ag3399
ag3400
ag3401
aS'op'
p3406
aS'is'
p3407
aS'stil'
p3408
ag125
aS'faggot'
p3409
asg22
(lp3410
g3406
ag3407
ag3408
ag125
ag3409
asba(iMeme
Meme
p3411
(dp3412
g3
(lp3413
S'lil'
p3414
aS'wayne'
p3415
asg10
S'lil wayne'
p3416
sg12
S' a goon is a goblin to an alien'
p3417
sg14
Vancient-aliens-guy
p3418
sg16
(lp3419
g3414
ag3415
ag125
aS'goon'
p3420
aS'is'
p3421
ag125
aS'goblin'
p3422
aS'to'
p3423
aS'an'
p3424
aS'alien'
p3425
asg22
(lp3426
g125
ag3420
ag3421
ag125
ag3422
ag3423
ag3424
ag3425
asba(iMeme
Meme
p3427
(dp3428
g3
(lp3429
S'abraham'
p3430
aS'lincolns'
p3431
aS'assassination'
p3432
ag30
asg10
S'abraham lincolns assassination?'
p3433
sg12
S' aliens'
p3434
sg14
Vancient-aliens-guy
p3435
sg16
(lp3436
g3430
ag3431
ag3432
ag30
aS'aliens'
p3437
asg22
(lp3438
g3437
asba(iMeme
Meme
p3439
(dp3440
g3
(lp3441
S'im'
p3442
aS'not'
p3443
aS'high'
p3444
asg10
S'im not high'
p3445
sg12
S' its just aliens'
p3446
sg14
Vancient-aliens-guy
p3447
sg16
(lp3448
g3442
ag3443
ag3444
aS'its'
p3449
aS'just'
p3450
aS'aliens'
p3451
asg22
(lp3452
g3449
ag3450
ag3451
asba(iMeme
Meme
p3453
(dp3454
g3
(lp3455
S'mayan'
p3456
aS'temples'
p3457
ag30
asg10
S'mayan temples?'
p3458
sg12
S' ancient fukcing aliens'
p3459
sg14
Vancient-aliens-guy
p3460
sg16
(lp3461
g3456
ag3457
ag30
aS'ancient'
p3462
aS'fukcing'
p3463
aS'aliens'
p3464
asg22
(lp3465
g3462
ag3463
ag3464
asba(iMeme
Meme
p3466
(dp3467
g3
(lp3468
S'the'
p3469
aS'macarena'
p3470
ag30
asg10
S'the macarena?'
p3471
sg12
S' ancient alien mating dance.'
p3472
sg14
Vancient-aliens-guy
p3473
sg16
(lp3474
g3469
ag3470
ag30
aS'ancient'
p3475
aS'alien'
p3476
aS'mating'
p3477
aS'dance'
p3478
ag21
asg22
(lp3479
g3475
ag3476
ag3477
ag3478
ag21
asba(iMeme
Meme
p3480
(dp3481
g3
(lp3482
S'8===d'
p3483
asg10
S'8===d'
p3484
sg12
S' alien bukkake you dumb mother fucker'
p3485
sg14
Vancient-aliens-guy
p3486
sg16
(lp3487
g3483
aS'alien'
p3488
aS'bukkake'
p3489
aS'you'
p3490
aS'dumb'
p3491
aS'mother'
p3492
aS'fucker'
p3493
asg22
(lp3494
g3488
ag3489
ag3490
ag3491
ag3492
ag3493
asba(iMeme
Meme
p3495
(dp3496
g3
(lp3497
S'spitting'
p3498
aS'coffee'
p3499
aS'out'
p3500
aS'my'
p3501
aS'nose'
p3502
asg10
S'spitting coffee out my nose'
p3503
sg12
S' lolling @ meme or ancient aliens?'
p3504
sg14
Vancient-aliens-guy
p3505
sg16
(lp3506
g3498
ag3499
ag3500
ag3501
ag3502
aS'lolling'
p3507
aS'@'
p3508
aS'meme'
p3509
aS'or'
p3510
aS'ancient'
p3511
aS'aliens'
p3512
ag30
asg22
(lp3513
g3507
ag3508
ag3509
ag3510
ag3511
ag3512
ag30
asba(iMeme
Meme
p3514
(dp3515
g3
(lp3516
S'cat'
p3517
aS'died'
p3518
aS'of'
p3519
aS'aids'
p3520
ag30
asg10
S'cat died of aids?'
p3521
sg12
S' fucking aliens brah'
p3522
sg14
Vancient-aliens-guy
p3523
sg16
(lp3524
g3517
ag3518
ag3519
ag3520
ag30
aS'fucking'
p3525
aS'aliens'
p3526
aS'brah'
p3527
asg22
(lp3528
g3525
ag3526
ag3527
asba.