(lp0
(iMeme
Meme
p1
(dp2
S'top_text'
p3
(lp4
S'This'
p5
aS'invisible'
p6
aS'cock'
p7
asS'top_text_raw'
p8
S'This invisible cock '
p9
sS'bottom_text_raw'
p10
S' tastes delicious!'
p11
sS'meme_type'
p12
Vbill-o-reilly
p13
sS'all_text'
p14
(lp15
g5
ag6
ag7
aS'tastes'
p16
aS'delicious'
p17
aS'!'
p18
asS'bottom_text'
p19
(lp20
g16
ag17
ag18
asba(iMeme
Meme
p21
(dp22
g3
(lp23
S'Pizza'
p24
aS'is'
p25
aS'a'
p26
aS'vegetable'
p27
aS','
p28
aS'Tomato'
p29
aS'is'
p30
ag26
aS'fruit'
p31
asg8
S'Pizza is a vegetable, Tomato is a fruit '
p32
sg10
S" You can't explain that."
p33
sg12
Vbill-o-reilly
p34
sg14
(lp35
g24
ag25
ag26
ag27
ag28
ag29
ag30
ag26
ag31
aS'You'
p36
aS'ca'
p37
aS"n't"
p38
aS'explain'
p39
aS'that'
p40
aS'.'
p41
asg19
(lp42
g36
ag37
ag38
ag39
ag40
ag41
asba(iMeme
Meme
p43
(dp44
g3
(lp45
S'tide'
p46
aS'goes'
p47
aS'in'
p48
asg8
S'tide goes in '
p49
sg10
S' stain comes out'
p50
sg12
Vbill-o-reilly
p51
sg14
(lp52
g46
ag47
ag48
aS'stain'
p53
aS'comes'
p54
aS'out'
p55
asg19
(lp56
g53
ag54
ag55
asba(iMeme
Meme
p57
(dp58
g3
(lp59
S'ok'
p60
ag28
aS'so'
p61
aS'you'
p62
aS'think'
p63
aS'the'
p64
aS'moon'
p65
aS'causes'
p66
aS'the'
p67
aS'tides'
p68
asg8
S'ok, so you think the moon causes the tides '
p69
sg10
S' but how did the moon get there? checkmate.'
p70
sg12
Vbill-o-reilly
p71
sg14
(lp72
g60
ag28
ag61
ag62
ag63
ag64
ag65
ag66
ag67
ag68
aS'but'
p73
aS'how'
p74
aS'did'
p75
aS'the'
p76
aS'moon'
p77
aS'get'
p78
aS'there'
p79
aS'?'
p80
aS'checkmate'
p81
ag41
asg19
(lp82
g73
ag74
ag75
ag76
ag77
ag78
ag79
ag80
ag81
ag41
asba(iMeme
Meme
p83
(dp84
g3
(lp85
S'Pizza'
p86
aS'is'
p87
ag26
aS'vegetable'
p88
ag28
aS'marijuana'
p89
aS'is'
p90
ag26
aS'drug'
p91
asg8
S'Pizza is a vegetable, marijuana is a drug '
p92
sg10
S" Can't explain that"
p93
sg12
Vbill-o-reilly
p94
sg14
(lp95
g86
ag87
ag26
ag88
ag28
ag89
ag90
ag26
ag91
aS'Ca'
p96
aS"n't"
p97
aS'explain'
p98
aS'that'
p99
asg19
(lp100
g96
ag97
ag98
ag99
asba(iMeme
Meme
p101
(dp102
g3
(lp103
S'Caterpillar'
p104
aS'goes'
p105
aS'In'
p106
aS'butterfly'
p107
aS'comes'
p108
aS'out'
p109
asg8
S'Caterpillar goes In butterfly comes out '
p110
sg10
S" Can't Explain That."
p111
sg12
Vbill-o-reilly
p112
sg14
(lp113
g104
ag105
ag106
ag107
ag108
ag109
aS'Ca'
p114
aS"n't"
p115
aS'Explain'
p116
aS'That'
p117
ag41
asg19
(lp118
g114
ag115
ag116
ag117
ag41
asba(iMeme
Meme
p119
(dp120
g3
(lp121
S'I'
p122
aS'have'
p123
ag26
aS'TV'
p124
aS'show'
p125
asg8
S'I have a TV show '
p126
sg10
S" you can't explain that"
p127
sg12
Vbill-o-reilly
p128
sg14
(lp129
g122
ag123
ag26
ag124
ag125
aS'you'
p130
aS'ca'
p131
aS"n't"
p132
aS'explain'
p133
aS'that'
p134
asg19
(lp135
g130
ag131
ag132
ag133
ag134
asba(iMeme
Meme
p136
(dp137
g3
(lp138
S'dollar'
p139
aS'goes'
p140
aS'in'
p141
ag28
aS'soda'
p142
aS'comes'
p143
aS'out'
p144
asg8
S'dollar goes in, soda comes out '
p145
sg10
S" you can't explain that"
p146
sg12
Vbill-o-reilly
p147
sg14
(lp148
g139
ag140
ag141
ag28
ag142
ag143
ag144
aS'you'
p149
aS'ca'
p150
aS"n't"
p151
aS'explain'
p152
aS'that'
p153
asg19
(lp154
g149
ag150
ag151
ag152
ag153
asba(iMeme
Meme
p155
(dp156
g3
(lp157
S'Spanish'
p158
aS'Inquisition'
p159
asg8
S'Spanish Inquisition '
p160
sg10
S" you can't expect that!"
p161
sg12
Vbill-o-reilly
p162
sg14
(lp163
g158
ag159
aS'you'
p164
aS'ca'
p165
aS"n't"
p166
aS'expect'
p167
aS'that'
p168
ag18
asg19
(lp169
g164
ag165
ag166
ag167
ag168
ag18
asba(iMeme
Meme
p170
(dp171
g3
(lp172
S'its'
p173
aS'amsterdam'
p174
asg8
S'its amsterdam '
p175
sg10
S' they do statistics different'
p176
sg12
Vbill-o-reilly
p177
sg14
(lp178
g173
ag174
aS'they'
p179
aS'do'
p180
aS'statistics'
p181
aS'different'
p182
asg19
(lp183
g179
ag180
ag181
ag182
asba(iMeme
Meme
p184
(dp185
g3
(lp186
S'Fuckin'
p187
aS'magnets'
p188
asg8
S'Fuckin magnets '
p189
sg10
S' how do they work?'
p190
sg12
Vbill-o-reilly
p191
sg14
(lp192
g187
ag188
aS'how'
p193
aS'do'
p194
aS'they'
p195
aS'work'
p196
ag80
asg19
(lp197
g193
ag194
ag195
ag196
ag80
asba(iMeme
Meme
p198
(dp199
g3
(lp200
S'bread'
p201
aS'goes'
p202
aS'in'
p203
ag28
aS'toast'
p204
aS'pops'
p205
aS'up'
p206
asg8
S'bread goes in, toast pops up '
p207
sg10
S" you can't explain that"
p208
sg12
Vbill-o-reilly
p209
sg14
(lp210
g201
ag202
ag203
ag28
ag204
ag205
ag206
aS'you'
p211
aS'ca'
p212
aS"n't"
p213
aS'explain'
p214
aS'that'
p215
asg19
(lp216
g211
ag212
ag213
ag214
ag215
asba(iMeme
Meme
p217
(dp218
g3
(lp219
g122
aS'have'
p220
ag26
aS'TV'
p221
aS'show'
p222
aS'that'
p223
aS'is'
p224
aS'respected'
p225
aS'and'
p226
aS'follow'
p227
aS'by'
p228
ag26
aS'milloin'
p229
aS'dumbasses'
p230
asg8
S'I have a TV show that is respected and follow by a milloin dumbasses '
p231
sg10
S" You can't explain that"
p232
sg12
Vbill-o-reilly
p233
sg14
(lp234
g122
ag220
ag26
ag221
ag222
ag223
ag224
ag225
ag226
ag227
ag228
ag26
ag229
ag230
aS'You'
p235
aS'ca'
p236
aS"n't"
p237
aS'explain'
p238
aS'that'
p239
asg19
(lp240
g235
ag236
ag237
ag238
ag239
asba(iMeme
Meme
p241
(dp242
g3
(lp243
S'Females'
p244
asg8
S'Females '
p245
sg10
S" you can't explain that"
p246
sg12
Vbill-o-reilly
p247
sg14
(lp248
g244
aS'you'
p249
aS'ca'
p250
aS"n't"
p251
aS'explain'
p252
aS'that'
p253
asg19
(lp254
g249
ag250
ag251
ag252
ag253
asba(iMeme
Meme
p255
(dp256
g3
(lp257
S'dick'
p258
aS'goes'
p259
aS'in'
p260
ag28
aS'baby'
p261
aS'comes'
p262
aS'out'
p263
asg8
S'dick goes in, baby comes out '
p264
sg10
S" you can't explain that"
p265
sg12
Vbill-o-reilly
p266
sg14
(lp267
g258
ag259
ag260
ag28
ag261
ag262
ag263
aS'you'
p268
aS'ca'
p269
aS"n't"
p270
aS'explain'
p271
aS'that'
p272
asg19
(lp273
g268
ag269
ag270
ag271
ag272
asba(iMeme
Meme
p274
(dp275
g3
(lp276
S'spout'
p277
aS'bilious'
p278
aS'drivel'
p279
asg8
S'spout bilious drivel '
p280
sg10
S' get paid $20,000,000'
p281
sg12
Vbill-o-reilly
p282
sg14
(lp283
g277
ag278
ag279
aS'get'
p284
aS'paid'
p285
aS'$'
p286
aS'20,000,000'
p287
asg19
(lp288
g284
ag285
ag286
ag287
asba(iMeme
Meme
p289
(dp290
g3
(lp291
S'people'
p292
aS'listen'
p293
aS'to'
p294
aS'me'
p295
asg8
S'people listen to me '
p296
sg10
S" you can't explain that"
p297
sg12
Vbill-o-reilly
p298
sg14
(lp299
g292
ag293
ag294
ag295
aS'you'
p300
aS'ca'
p301
aS"n't"
p302
aS'explain'
p303
aS'that'
p304
asg19
(lp305
g300
ag301
ag302
ag303
ag304
asba(iMeme
Meme
p306
(dp307
g3
(lp308
S'Invite'
p309
aS'guest'
p310
aS'on'
p311
aS'my'
p312
aS'show'
p313
ag41
aS'do'
p314
aS"n't"
p315
aS'let'
p316
aS'them'
p317
aS'speak'
p318
aS'when'
p319
aS'i'
p320
aS'ca'
p321
aS"n't"
p322
aS'refute'
p323
aS'their'
p324
aS'point'
p325
ag41
asg8
S"Invite guest on my show. don't let them speak when i can't refute their point. "
p326
sg10
S' never a communication'
p327
sg12
Vbill-o-reilly
p328
sg14
(lp329
g309
ag310
ag311
ag312
ag313
ag41
ag314
ag315
ag316
ag317
ag318
ag319
ag320
ag321
ag322
ag323
ag324
ag325
ag41
aS'never'
p330
ag26
aS'communication'
p331
asg19
(lp332
g330
ag26
ag331
asba(iMeme
Meme
p333
(dp334
g3
(lp335
S'proclaim'
p336
aS'blue'
p337
aS'collar'
p338
aS'background'
p339
asg8
S'proclaim blue collar background '
p340
sg10
S' while wearing a $3500 suit'
p341
sg12
Vbill-o-reilly
p342
sg14
(lp343
g336
ag337
ag338
ag339
aS'while'
p344
aS'wearing'
p345
ag26
ag286
aS'3500'
p346
aS'suit'
p347
asg19
(lp348
g344
ag345
ag26
ag286
ag346
ag347
asba(iMeme
Meme
p349
(dp350
g3
(lp351
S'Holding'
p352
aS'liquid'
p353
aS'in'
p354
ag26
aS'straw'
p355
asg8
S'Holding liquid in a straw  '
p356
sg10
S" YOU Can't explain that"
p357
sg12
Vbill-o-reilly
p358
sg14
(lp359
g352
ag353
ag354
ag26
ag355
aS'YOU'
p360
aS'Ca'
p361
aS"n't"
p362
aS'explain'
p363
aS'that'
p364
asg19
(lp365
g360
ag361
ag362
ag363
ag364
asba(iMeme
Meme
p366
(dp367
g3
(lp368
S'If'
p369
aS'gravity'
p370
aS'is'
p371
aS'real'
p372
ag28
aS'why'
p373
aS'does'
p374
aS"n't"
p375
aS'the'
p376
aS'moon'
p377
aS'fall'
p378
aS'to'
p379
aS'the'
p380
aS'earth'
p381
ag80
asg8
S"If gravity is real, why doesn't the moon fall to the earth? "
p382
sg10
S" you can't explain that"
p383
sg12
Vbill-o-reilly
p384
sg14
(lp385
g369
ag370
ag371
ag372
ag28
ag373
ag374
ag375
ag376
ag377
ag378
ag379
ag380
ag381
ag80
aS'you'
p386
aS'ca'
p387
aS"n't"
p388
aS'explain'
p389
aS'that'
p390
asg19
(lp391
g386
ag387
ag388
ag389
ag390
asba(iMeme
Meme
p392
(dp393
g3
(lp394
S'Why'
p395
aS'does'
p396
aS'the'
p397
aS'light'
p398
aS'come'
p399
aS'on'
p400
aS'when'
p401
ag122
aS'open'
p402
aS'the'
p403
aS'fridge'
p404
ag80
asg8
S'Why does the light come on when I open the fridge? '
p405
sg10
S" you can't explain that"
p406
sg12
Vbill-o-reilly
p407
sg14
(lp408
g395
ag396
ag397
ag398
ag399
ag400
ag401
ag122
ag402
ag403
ag404
ag80
aS'you'
p409
aS'ca'
p410
aS"n't"
p411
aS'explain'
p412
aS'that'
p413
asg19
(lp414
g409
ag410
ag411
ag412
ag413
asba(iMeme
Meme
p415
(dp416
g3
(lp417
S'complain'
p418
aS'about'
p419
aS'socialism'
p420
asg8
S'complain about socialism '
p421
sg10
S' insist that wall street needs massive bailout'
p422
sg12
Vbill-o-reilly
p423
sg14
(lp424
g418
ag419
ag420
aS'insist'
p425
aS'that'
p426
aS'wall'
p427
aS'street'
p428
aS'needs'
p429
aS'massive'
p430
aS'bailout'
p431
asg19
(lp432
g425
ag426
ag427
ag428
ag429
ag430
ag431
asba(iMeme
Meme
p433
(dp434
g3
(lp435
S'only'
p436
aS'solar'
p437
aS'system'
p438
aS'with'
p439
ag26
aS'sun'
p440
asg8
S'only solar system with a sun '
p441
sg10
S' can you explain that?'
p442
sg12
Vbill-o-reilly
p443
sg14
(lp444
g436
ag437
ag438
ag439
ag26
ag440
aS'can'
p445
aS'you'
p446
aS'explain'
p447
aS'that'
p448
ag80
asg19
(lp449
g445
ag446
ag447
ag448
ag80
asba(iMeme
Meme
p450
(dp451
g3
(lp452
S'what'
p453
aS'makes'
p454
aS'the'
p455
aS'next'
p456
aS'tissue'
p457
aS'pop'
p458
aS'up'
p459
ag80
asg8
S'what makes the next tissue pop up? '
p460
sg10
S" You can't explain that"
p461
sg12
Vbill-o-reilly
p462
sg14
(lp463
g453
ag454
ag455
ag456
ag457
ag458
ag459
ag80
aS'You'
p464
aS'ca'
p465
aS"n't"
p466
aS'explain'
p467
aS'that'
p468
asg19
(lp469
g464
ag465
ag466
ag467
ag468
asba(iMeme
Meme
p470
(dp471
g3
(lp472
S'todays'
p473
aS'guest'
p474
asg8
S'todays guest '
p475
sg10
S" some dick i don't agree with"
p476
sg12
Vbill-o-reilly
p477
sg14
(lp478
g473
ag474
aS'some'
p479
aS'dick'
p480
ag320
aS'do'
p481
aS"n't"
p482
aS'agree'
p483
aS'with'
p484
asg19
(lp485
g479
ag480
ag320
ag481
ag482
ag483
ag484
asba(iMeme
Meme
p486
(dp487
g3
(lp488
g122
aS"'ve"
p489
aS'made'
p490
ag26
aS'successful'
p491
aS'career'
p492
aS'in'
p493
aS'journalism'
p494
asg8
S"I've made a successful career in journalism "
p495
sg10
S" you can't explain that"
p496
sg12
Vbill-o-reilly
p497
sg14
(lp498
g122
ag489
ag490
ag26
ag491
ag492
ag493
ag494
aS'you'
p499
aS'ca'
p500
aS"n't"
p501
aS'explain'
p502
aS'that'
p503
asg19
(lp504
g499
ag500
ag501
ag502
ag503
asba(iMeme
Meme
p505
(dp506
g3
(lp507
S'braille'
p508
aS'on'
p509
aS'drive'
p510
aS'through'
p511
aS'ATM'
p512
aS"'s"
p513
asg8
S"braille on drive through ATM's "
p514
sg10
S" you can't explain that"
p515
sg12
Vbill-o-reilly
p516
sg14
(lp517
g508
ag509
ag510
ag511
ag512
ag513
aS'you'
p518
aS'ca'
p519
aS"n't"
p520
aS'explain'
p521
aS'that'
p522
asg19
(lp523
g518
ag519
ag520
ag521
ag522
asba(iMeme
Meme
p524
(dp525
g3
(lp526
S'thank'
p527
aS'you'
p528
aS'for'
p529
aS'sitting'
p530
aS'down'
p531
aS'with'
p532
aS'me'
p533
aS'mr'
p534
ag41
aS'president'
p535
asg8
S'thank you for sitting down with me mr. president '
p536
sg10
S' cut his mic'
p537
sg12
Vbill-o-reilly
p538
sg14
(lp539
g527
ag528
ag529
ag530
ag531
ag532
ag533
ag534
ag41
ag535
aS'cut'
p540
aS'his'
p541
aS'mic'
p542
asg19
(lp543
g540
ag541
ag542
asba(iMeme
Meme
p544
(dp545
g3
(lp546
S'flush'
p547
aS'the'
p548
aS'toilet'
p549
aS'water'
p550
aS'comes'
p551
aS'back'
p552
asg8
S'flush the toilet water comes back '
p553
sg10
S" you can't explain that"
p554
sg12
Vbill-o-reilly
p555
sg14
(lp556
g547
ag548
ag549
ag550
ag551
ag552
aS'you'
p557
aS'ca'
p558
aS"n't"
p559
aS'explain'
p560
aS'that'
p561
asg19
(lp562
g557
ag558
ag559
ag560
ag561
asba(iMeme
Meme
p563
(dp564
g3
(lp565
S'Bush'
p566
aS'gets'
p567
aS're-elected'
p568
asg8
S'Bush gets re-elected '
p569
sg10
S" You can't explain that"
p570
sg12
Vbill-o-reilly
p571
sg14
(lp572
g566
ag567
ag568
aS'You'
p573
aS'ca'
p574
aS"n't"
p575
aS'explain'
p576
aS'that'
p577
asg19
(lp578
g573
ag574
ag575
ag576
ag577
asba(iMeme
Meme
p579
(dp580
g3
(lp581
S'9gag'
p582
aS'vote'
p583
aS'page'
p584
aS'is'
p585
aS'stopped'
p586
aS'yesterday'
p587
ag80
asg8
S'9gag vote page is stopped yesterday?'
p588
sg10
S' you cant explain that'
p589
sg12
Vbill-o-reilly
p590
sg14
(lp591
g582
ag583
ag584
ag585
ag586
ag587
ag80
aS'you'
p592
aS'cant'
p593
aS'explain'
p594
aS'that'
p595
asg19
(lp596
g592
ag593
ag594
ag595
asba(iMeme
Meme
p597
(dp598
g3
(lp599
S'casey'
p600
aS'anthony'
p601
aS'found'
p602
aS'not'
p603
aS'guilty'
p604
ag80
asg8
S'casey anthony found not guilty?'
p605
sg10
S' you cant explain that!'
p606
sg12
Vbill-o-reilly
p607
sg14
(lp608
g600
ag601
ag602
ag603
ag604
ag80
aS'you'
p609
aS'cant'
p610
aS'explain'
p611
aS'that'
p612
ag18
asg19
(lp613
g609
ag610
ag611
ag612
ag18
asba(iMeme
Meme
p614
(dp615
g3
(lp616
S'bread'
p617
aS'goes'
p618
aS'in'
p619
aS'toast'
p620
aS'comes'
p621
aS'out'
p622
asg8
S'bread goes in toast comes out'
p623
sg10
S' you cant explain that'
p624
sg12
Vbill-o-reilly
p625
sg14
(lp626
g617
ag618
ag619
ag620
ag621
ag622
aS'you'
p627
aS'cant'
p628
aS'explain'
p629
aS'that'
p630
asg19
(lp631
g627
ag628
ag629
ag630
asba(iMeme
Meme
p632
(dp633
g3
(lp634
S'facebook'
p635
aS'makes'
p636
aS'an'
p637
aS'update'
p638
asg8
S'facebook makes an update'
p639
sg10
S' some people get mad'
p640
sg12
Vbill-o-reilly
p641
sg14
(lp642
g635
ag636
ag637
ag638
aS'some'
p643
aS'people'
p644
aS'get'
p645
aS'mad'
p646
asg19
(lp647
g643
ag644
ag645
ag646
asba(iMeme
Meme
p648
(dp649
g3
(lp650
S'2'
p651
aS'socks'
p652
aS'go'
p653
aS'in'
p654
aS'1'
p655
aS'sock'
p656
aS'comes'
p657
aS'out'
p658
asg8
S'2 socks go in 1 sock comes out'
p659
sg10
S' cant explain that'
p660
sg12
Vbill-o-reilly
p661
sg14
(lp662
g651
ag652
ag653
ag654
ag655
ag656
ag657
ag658
aS'cant'
p663
aS'explain'
p664
aS'that'
p665
asg19
(lp666
g663
ag664
ag665
asba(iMeme
Meme
p667
(dp668
g3
(lp669
S'fuck'
p670
aS'it'
p671
asg8
S'fuck it'
p672
sg10
S' well do it live'
p673
sg12
Vbill-o-reilly
p674
sg14
(lp675
g670
ag671
aS'well'
p676
aS'do'
p677
aS'it'
p678
aS'live'
p679
asg19
(lp680
g676
ag677
ag678
ag679
asba(iMeme
Meme
p681
(dp682
g3
(lp683
S'fucking'
p684
aS'magnets'
p685
asg8
S'fucking magnets'
p686
sg10
S' how do they work?'
p687
sg12
Vbill-o-reilly
p688
sg14
(lp689
g684
ag685
aS'how'
p690
aS'do'
p691
aS'they'
p692
aS'work'
p693
ag80
asg19
(lp694
g690
ag691
ag692
ag693
ag80
asba(iMeme
Meme
p695
(dp696
g3
(lp697
S'when'
p698
aS'you'
p699
aS'run'
p700
asg8
S'when you run'
p701
sg10
S' you go faster'
p702
sg12
Vbill-o-reilly
p703
sg14
(lp704
g698
ag699
ag700
aS'you'
p705
aS'go'
p706
aS'faster'
p707
asg19
(lp708
g705
ag706
ag707
asba(iMeme
Meme
p709
(dp710
g3
(lp711
S'girls'
p712
aS'head'
p713
aS'explode'
p714
aS'because'
p715
aS'of'
p716
aS'orgasm'
p717
asg8
S'girls head explode because of orgasm'
p718
sg10
S' you cant explaint that'
p719
sg12
Vbill-o-reilly
p720
sg14
(lp721
g712
ag713
ag714
ag715
ag716
ag717
aS'you'
p722
aS'cant'
p723
aS'explaint'
p724
aS'that'
p725
asg19
(lp726
g722
ag723
ag724
ag725
asba(iMeme
Meme
p727
(dp728
g3
(lp729
S'are'
p730
aS'you'
p731
aS'always'
p732
aS'this'
p733
aS'dumb'
p734
ag80
asg8
S'are you always this dumb?'
p735
sg10
S' or are you just making a special effort today.'
p736
sg12
Vbill-o-reilly
p737
sg14
(lp738
g730
ag731
ag732
ag733
ag734
ag80
aS'or'
p739
aS'are'
p740
aS'you'
p741
aS'just'
p742
aS'making'
p743
ag26
aS'special'
p744
aS'effort'
p745
aS'today'
p746
ag41
asg19
(lp747
g739
ag740
ag741
ag742
ag743
ag26
ag744
ag745
ag746
ag41
asba(iMeme
Meme
p748
(dp749
g3
(lp750
S'niggerz'
p751
aS'got'
p752
aS'aids'
p753
asg8
S'niggerz got aids'
p754
sg10
S' you cant explain that'
p755
sg12
Vbill-o-reilly
p756
sg14
(lp757
g751
ag752
ag753
aS'you'
p758
aS'cant'
p759
aS'explain'
p760
aS'that'
p761
asg19
(lp762
g758
ag759
ag760
ag761
asba(iMeme
Meme
p763
(dp764
g3
(lp765
S'fuck'
p766
aS'ron'
p767
aS'paul'
p768
asg8
S'fuck ron paul'
p769
sg10
S' zomg rick perry!'
p770
sg12
Vbill-o-reilly
p771
sg14
(lp772
g766
ag767
ag768
aS'zomg'
p773
aS'rick'
p774
aS'perry'
p775
ag18
asg19
(lp776
g773
ag774
ag775
ag18
asba(iMeme
Meme
p777
(dp778
g3
(lp779
S'employed'
p780
ag80
asg8
S'employed?'
p781
sg10
S' you cant explain that'
p782
sg12
Vbill-o-reilly
p783
sg14
(lp784
g780
ag80
aS'you'
p785
aS'cant'
p786
aS'explain'
p787
aS'that'
p788
asg19
(lp789
g785
ag786
ag787
ag788
asba(iMeme
Meme
p790
(dp791
g3
(lp792
S'what'
p793
aS'makes'
p794
aS'the'
p795
aS'next'
p796
aS'tissue'
p797
aS'pop'
p798
aS'up'
p799
asg8
S'what makes the next tissue pop up'
p800
sg10
S' you cant explain that'
p801
sg12
Vbill-o-reilly
p802
sg14
(lp803
g793
ag794
ag795
ag796
ag797
ag798
ag799
aS'you'
p804
aS'cant'
p805
aS'explain'
p806
aS'that'
p807
asg19
(lp808
g804
ag805
ag806
ag807
asba(iMeme
Meme
p809
(dp810
g3
(lp811
S'magnets'
p812
ag80
aS'how'
p813
aS'do'
p814
aS'they'
p815
aS'work'
p816
ag80
asg8
S'magnets? how do they work?'
p817
sg10
S' you cant explain that!'
p818
sg12
Vbill-o-reilly
p819
sg14
(lp820
g812
ag80
ag813
ag814
ag815
ag816
ag80
aS'you'
p821
aS'cant'
p822
aS'explain'
p823
aS'that'
p824
ag18
asg19
(lp825
g821
ag822
ag823
ag824
ag18
asba(iMeme
Meme
p826
(dp827
g3
(lp828
S'because'
p829
asg8
S'because'
p830
sg10
S' fuck you thats why'
p831
sg12
Vbill-o-reilly
p832
sg14
(lp833
g829
aS'fuck'
p834
aS'you'
p835
aS'thats'
p836
aS'why'
p837
asg19
(lp838
g834
ag835
ag836
ag837
asba(iMeme
Meme
p839
(dp840
g3
(lp841
S'why'
p842
aS'does'
p843
aS'the'
p844
aS'light'
p845
aS'come'
p846
aS'on'
p847
aS'when'
p848
ag320
aS'open'
p849
aS'the'
p850
aS'fridge'
p851
asg8
S'why does the light come on when i open the fridge'
p852
sg10
S' you cant explain that'
p853
sg12
Vbill-o-reilly
p854
sg14
(lp855
g842
ag843
ag844
ag845
ag846
ag847
ag848
ag320
ag849
ag850
ag851
aS'you'
p856
aS'cant'
p857
aS'explain'
p858
aS'that'
p859
asg19
(lp860
g856
ag857
ag858
ag859
asba(iMeme
Meme
p861
(dp862
g3
(lp863
S'what'
p864
aS'does'
p865
aS'that'
p866
aS'mean'
p867
asg8
S'what does that mean'
p868
sg10
S' to play us out?'
p869
sg12
Vbill-o-reilly
p870
sg14
(lp871
g864
ag865
ag866
ag867
aS'to'
p872
aS'play'
p873
aS'us'
p874
aS'out'
p875
ag80
asg19
(lp876
g872
ag873
ag874
ag875
ag80
asba(iMeme
Meme
p877
(dp878
g3
(lp879
S'tide'
p880
aS'goes'
p881
aS'in'
p882
asg8
S'tide goes in'
p883
sg10
S' stain goes out'
p884
sg12
Vbill-o-reilly
p885
sg14
(lp886
g880
ag881
ag882
aS'stain'
p887
aS'goes'
p888
aS'out'
p889
asg19
(lp890
g887
ag888
ag889
asba(iMeme
Meme
p891
(dp892
g3
(lp893
g320
aS'like'
p894
aS'penis'
p895
asg8
S'i like penis'
p896
sg10
S' they taste great'
p897
sg12
Vbill-o-reilly
p898
sg14
(lp899
g320
ag894
ag895
aS'they'
p900
aS'taste'
p901
aS'great'
p902
asg19
(lp903
g900
ag901
ag902
asba(iMeme
Meme
p904
(dp905
g3
(lp906
S'drinking'
p907
aS'age'
p908
aS'down'
p909
asg8
S'drinking age down'
p910
sg10
S' teen pregnancy up'
p911
sg12
Vbill-o-reilly
p912
sg14
(lp913
g907
ag908
ag909
aS'teen'
p914
aS'pregnancy'
p915
aS'up'
p916
asg19
(lp917
g914
ag915
ag916
asba(iMeme
Meme
p918
(dp919
g3
(lp920
g320
aS'just'
p921
aS'shoved'
p922
asg8
S'i just shoved'
p923
sg10
S' a cucumber up my ass'
p924
sg12
Vbill-o-reilly
p925
sg14
(lp926
g320
ag921
ag922
ag26
aS'cucumber'
p927
aS'up'
p928
aS'my'
p929
aS'ass'
p930
asg19
(lp931
g26
ag927
ag928
ag929
ag930
asba(iMeme
Meme
p932
(dp933
g3
(lp934
S'todays'
p935
aS'guest'
p936
asg8
S'todays guest'
p937
sg10
S' some asshole i dont agree with'
p938
sg12
Vbill-o-reilly
p939
sg14
(lp940
g935
ag936
aS'some'
p941
aS'asshole'
p942
ag320
aS'dont'
p943
aS'agree'
p944
aS'with'
p945
asg19
(lp946
g941
ag942
ag320
ag943
ag944
ag945
asba(iMeme
Meme
p947
(dp948
g3
(lp949
S'world'
p950
aS'is'
p951
aS'ending'
p952
aS'in'
p953
aS'2012'
p954
asg8
S'world is ending in 2012'
p955
sg10
S' you cant explain that!'
p956
sg12
Vbill-o-reilly
p957
sg14
(lp958
g950
ag951
ag952
ag953
ag954
aS'you'
p959
aS'cant'
p960
aS'explain'
p961
aS'that'
p962
ag18
asg19
(lp963
g959
ag960
ag961
ag962
ag18
asba(iMeme
Meme
p964
(dp965
g3
(lp966
S'bread'
p967
aS'goes'
p968
aS'in'
p969
aS'toast'
p970
aS'pops'
p971
aS'up'
p972
asg8
S'bread goes in toast pops up'
p973
sg10
S' you cant explain that'
p974
sg12
Vbill-o-reilly
p975
sg14
(lp976
g967
ag968
ag969
ag970
ag971
ag972
aS'you'
p977
aS'cant'
p978
aS'explain'
p979
aS'that'
p980
asg19
(lp981
g977
ag978
ag979
ag980
asba(iMeme
Meme
p982
(dp983
g3
(lp984
S'females'
p985
asg8
S'females'
p986
sg10
S' you cant explain that'
p987
sg12
Vbill-o-reilly
p988
sg14
(lp989
g985
aS'you'
p990
aS'cant'
p991
aS'explain'
p992
aS'that'
p993
asg19
(lp994
g990
ag991
ag992
ag993
asba(iMeme
Meme
p995
(dp996
g3
(lp997
S'blue'
p998
aS'shell'
p999
aS'finds'
p1000
aS'car'
p1001
aS'in'
p1002
aS'first'
p1003
aS'place'
p1004
asg8
S'blue shell finds car in first place'
p1005
sg10
S' you cant explain that'
p1006
sg12
Vbill-o-reilly
p1007
sg14
(lp1008
g998
ag999
ag1000
ag1001
ag1002
ag1003
ag1004
aS'you'
p1009
aS'cant'
p1010
aS'explain'
p1011
aS'that'
p1012
asg19
(lp1013
g1009
ag1010
ag1011
ag1012
asba(iMeme
Meme
p1014
(dp1015
g3
(lp1016
S'native'
p1017
aS'american'
p1018
aS'riddle'
p1019
asg8
S'native american riddle'
p1020
sg10
S' you cant explain that'
p1021
sg12
Vbill-o-reilly
p1022
sg14
(lp1023
g1017
ag1018
ag1019
aS'you'
p1024
aS'cant'
p1025
aS'explain'
p1026
aS'that'
p1027
asg19
(lp1028
g1024
ag1025
ag1026
ag1027
asba(iMeme
Meme
p1029
(dp1030
g3
(lp1031
S'so'
p1032
aS'im'
p1033
aS'losing'
p1034
aS'the'
p1035
aS'argument'
p1036
ag80
asg8
S'so im losing the argument?'
p1037
sg10
S' pfft'
p1038
sg12
Vbill-o-reilly
p1039
sg14
(lp1040
g1032
ag1033
ag1034
ag1035
ag1036
ag80
aS'pfft'
p1041
asg19
(lp1042
g1041
asba(iMeme
Meme
p1043
(dp1044
g3
(lp1045
S'youve'
p1046
ag26
aS'greeting'
p1047
aS'card'
p1048
aS'full'
p1049
aS'of'
p1050
aS'memes'
p1051
asg8
S'youve a greeting card full of memes'
p1052
sg10
S' you cant explain that'
p1053
sg12
Vbill-o-reilly
p1054
sg14
(lp1055
g1046
ag26
ag1047
ag1048
ag1049
ag1050
ag1051
aS'you'
p1056
aS'cant'
p1057
aS'explain'
p1058
aS'that'
p1059
asg19
(lp1060
g1056
ag1057
ag1058
ag1059
asba(iMeme
Meme
p1061
(dp1062
g3
(lp1063
S'you'
p1064
aS'go'
p1065
aS'to'
p1066
aS'my.bitdefender.com'
p1067
asg8
S'you go to my.bitdefender.com'
p1068
sg10
S' myaccount wizard pops up'
p1069
sg12
Vbill-o-reilly
p1070
sg14
(lp1071
g1064
ag1065
ag1066
ag1067
aS'myaccount'
p1072
aS'wizard'
p1073
aS'pops'
p1074
aS'up'
p1075
asg19
(lp1076
g1072
ag1073
ag1074
ag1075
asba(iMeme
Meme
p1077
(dp1078
g3
(lp1079
S'fuck'
p1080
aS'it'
p1081
asg8
S'fuck it'
p1082
sg10
S' well do it all in javascript'
p1083
sg12
Vbill-o-reilly
p1084
sg14
(lp1085
g1080
ag1081
aS'well'
p1086
aS'do'
p1087
aS'it'
p1088
aS'all'
p1089
aS'in'
p1090
aS'javascript'
p1091
asg19
(lp1092
g1086
ag1087
ag1088
ag1089
ag1090
ag1091
asba(iMeme
Meme
p1093
(dp1094
g3
(lp1095
S'women'
p1096
asg8
S'women'
p1097
sg10
S' you cant explain that'
p1098
sg12
Vbill-o-reilly
p1099
sg14
(lp1100
g1096
aS'you'
p1101
aS'cant'
p1102
aS'explain'
p1103
aS'that'
p1104
asg19
(lp1105
g1101
ag1102
ag1103
ag1104
asba(iMeme
Meme
p1106
(dp1107
g3
(lp1108
S'bitch'
p1109
aS'doesnt'
p1110
aS'get'
p1111
aS'my'
p1112
aS'joke'
p1113
asg8
S'bitch doesnt get my joke'
p1114
sg10
S' you cant explain that!'
p1115
sg12
Vbill-o-reilly
p1116
sg14
(lp1117
g1109
ag1110
ag1111
ag1112
ag1113
aS'you'
p1118
aS'cant'
p1119
aS'explain'
p1120
aS'that'
p1121
ag18
asg19
(lp1122
g1118
ag1119
ag1120
ag1121
ag18
asba(iMeme
Meme
p1123
(dp1124
g3
(lp1125
S'earthquake'
p1126
aS'happens'
p1127
aS'and'
p1128
aS'you'
p1129
aS'cant'
p1130
aS'feel'
p1131
aS'it'
p1132
asg8
S'earthquake happens and you cant feel it'
p1133
sg10
S' you cant explain that'
p1134
sg12
Vbill-o-reilly
p1135
sg14
(lp1136
g1126
ag1127
ag1128
ag1129
ag1130
ag1131
ag1132
aS'you'
p1137
aS'cant'
p1138
aS'explain'
p1139
aS'that'
p1140
asg19
(lp1141
g1137
ag1138
ag1139
ag1140
asba(iMeme
Meme
p1142
(dp1143
g3
(lp1144
S'the'
p1145
aS'sun'
p1146
aS'is'
p1147
aS'fucking'
p1148
aS'hot'
p1149
asg8
S'the sun is fucking hot'
p1150
sg10
S' you cant explain that'
p1151
sg12
Vbill-o-reilly
p1152
sg14
(lp1153
g1145
ag1146
ag1147
ag1148
ag1149
aS'you'
p1154
aS'cant'
p1155
aS'explain'
p1156
aS'that'
p1157
asg19
(lp1158
g1154
ag1155
ag1156
ag1157
asba(iMeme
Meme
p1159
(dp1160
g3
(lp1161
S'midichlorians'
p1162
asg8
S'midichlorians'
p1163
sg10
S' you cant explain that'
p1164
sg12
Vbill-o-reilly
p1165
sg14
(lp1166
g1162
aS'you'
p1167
aS'cant'
p1168
aS'explain'
p1169
aS'that'
p1170
asg19
(lp1171
g1167
ag1168
ag1169
ag1170
asba(iMeme
Meme
p1172
(dp1173
g3
(lp1174
S'fuck'
p1175
aS'fuck'
p1176
aS'fuck'
p1177
aS'fuck'
p1178
asg8
S'fuck fuck fuck fuck'
p1179
sg10
S' fucking thing sucks'
p1180
sg12
Vbill-o-reilly
p1181
sg14
(lp1182
g1175
ag1176
ag1177
ag1178
aS'fucking'
p1183
aS'thing'
p1184
aS'sucks'
p1185
asg19
(lp1186
g1183
ag1184
ag1185
asba(iMeme
Meme
p1187
(dp1188
g3
(lp1189
g320
aS'dont'
p1190
aS'always'
p1191
aS'let'
p1192
aS'sting'
p1193
aS'play'
p1194
aS'us'
p1195
aS'out'
p1196
asg8
S'i dont always let sting play us out'
p1197
sg10
S''
p1198
sg12
Vbill-o-reilly
p1199
sg14
(lp1200
g320
ag1190
ag1191
ag1192
ag1193
ag1194
ag1195
ag1196
asg19
(lp1201
sba(iMeme
Meme
p1202
(dp1203
g3
(lp1204
S'stuck'
p1205
aS'with'
p1206
aS'family'
p1207
aS'for'
p1208
aS'christmas'
p1209
asg8
S'stuck with family for christmas'
p1210
sg10
S' fuck it well do it baked'
p1211
sg12
Vbill-o-reilly
p1212
sg14
(lp1213
g1205
ag1206
ag1207
ag1208
ag1209
aS'fuck'
p1214
aS'it'
p1215
aS'well'
p1216
aS'do'
p1217
aS'it'
p1218
aS'baked'
p1219
asg19
(lp1220
g1214
ag1215
ag1216
ag1217
ag1218
ag1219
asba(iMeme
Meme
p1221
(dp1222
g3
(lp1223
S'that'
p1224
aS'awkward'
p1225
aS'moment'
p1226
aS'when'
p1227
aS'you'
p1228
asg8
S'that awkward moment when you'
p1229
sg10
S' actually think that a falling star is a star.'
p1230
sg12
Vbill-o-reilly
p1231
sg14
(lp1232
g1224
ag1225
ag1226
ag1227
ag1228
aS'actually'
p1233
aS'think'
p1234
aS'that'
p1235
ag26
aS'falling'
p1236
aS'star'
p1237
aS'is'
p1238
ag26
aS'star'
p1239
ag41
asg19
(lp1240
g1233
ag1234
ag1235
ag26
ag1236
ag1237
ag1238
ag26
ag1239
ag41
asba(iMeme
Meme
p1241
(dp1242
g3
(lp1243
S'youre'
p1244
aS'still'
p1245
aS'not'
p1246
aS'talking'
p1247
aS'to'
p1248
aS'me'
p1249
asg8
S'youre still not talking to me'
p1250
sg10
S' you cant explain that'
p1251
sg12
Vbill-o-reilly
p1252
sg14
(lp1253
g1244
ag1245
ag1246
ag1247
ag1248
ag1249
aS'you'
p1254
aS'cant'
p1255
aS'explain'
p1256
aS'that'
p1257
asg19
(lp1258
g1254
ag1255
ag1256
ag1257
asba(iMeme
Meme
p1259
(dp1260
g3
(lp1261
S'nidalee'
p1262
aS'heals'
p1263
aS'everytime'
p1264
aS'cd'
p1265
aS'comes'
p1266
aS'off'
p1267
ag41
aS'never'
p1268
aS'oom'
p1269
asg8
S'nidalee heals everytime cd comes off. never oom'
p1270
sg10
S' cant explain that'
p1271
sg12
Vbill-o-reilly
p1272
sg14
(lp1273
g1262
ag1263
ag1264
ag1265
ag1266
ag1267
ag41
ag1268
ag1269
aS'cant'
p1274
aS'explain'
p1275
aS'that'
p1276
asg19
(lp1277
g1274
ag1275
ag1276
asba(iMeme
Meme
p1278
(dp1279
g3
(lp1280
S'dyslexia'
p1281
asg8
S'dyslexia'
p1282
sg10
S' you cant explain thta'
p1283
sg12
Vbill-o-reilly
p1284
sg14
(lp1285
g1281
aS'you'
p1286
aS'cant'
p1287
aS'explain'
p1288
aS'thta'
p1289
asg19
(lp1290
g1286
ag1287
ag1288
ag1289
asba(iMeme
Meme
p1291
(dp1292
g3
(lp1293
S'republicans'
p1294
aS'go'
p1295
aS'in'
p1296
aS':'
p1297
aS'womens'
p1298
aS'rights'
p1299
aS'go'
p1300
aS'out'
p1301
asg8
S'republicans go in: womens rights go out'
p1302
sg10
S' you cant explain that'
p1303
sg12
Vbill-o-reilly
p1304
sg14
(lp1305
g1294
ag1295
ag1296
ag1297
ag1298
ag1299
ag1300
ag1301
aS'you'
p1306
aS'cant'
p1307
aS'explain'
p1308
aS'that'
p1309
asg19
(lp1310
g1306
ag1307
ag1308
ag1309
asba(iMeme
Meme
p1311
(dp1312
g3
(lp1313
S'apple'
p1314
aS'logo'
p1315
aS'on'
p1316
aS'chat'
p1317
ag80
asg8
S'apple logo on chat?'
p1318
sg10
S' you cant explain that'
p1319
sg12
Vbill-o-reilly
p1320
sg14
(lp1321
g1314
ag1315
ag1316
ag1317
ag80
aS'you'
p1322
aS'cant'
p1323
aS'explain'
p1324
aS'that'
p1325
asg19
(lp1326
g1322
ag1323
ag1324
ag1325
asba(iMeme
Meme
p1327
(dp1328
g3
(lp1329
S'fuck'
p1330
aS'it'
p1331
ag18
asg8
S'fuck it!'
p1332
sg10
S' ill do it live!'
p1333
sg12
Vbill-o-reilly
p1334
sg14
(lp1335
g1330
ag1331
ag18
aS'ill'
p1336
aS'do'
p1337
aS'it'
p1338
aS'live'
p1339
ag18
asg19
(lp1340
g1336
ag1337
ag1338
ag1339
ag18
asba(iMeme
Meme
p1341
(dp1342
g3
(lp1343
S'world'
p1344
aS'ending'
p1345
aS'in'
p1346
aS'2012'
p1347
asg8
S'world ending in 2012'
p1348
sg10
S' vindictus servers still not up!'
p1349
sg12
Vbill-o-reilly
p1350
sg14
(lp1351
g1344
ag1345
ag1346
ag1347
aS'vindictus'
p1352
aS'servers'
p1353
aS'still'
p1354
aS'not'
p1355
aS'up'
p1356
ag18
asg19
(lp1357
g1352
ag1353
ag1354
ag1355
ag1356
ag18
asba(iMeme
Meme
p1358
(dp1359
g3
(lp1360
S'tide'
p1361
aS'goes'
p1362
aS'in'
p1363
asg8
S'tide goes in'
p1364
sg10
S' tide goes out'
p1365
sg12
Vbill-o-reilly
p1366
sg14
(lp1367
g1361
ag1362
ag1363
aS'tide'
p1368
aS'goes'
p1369
aS'out'
p1370
asg19
(lp1371
g1368
ag1369
ag1370
asba(iMeme
Meme
p1372
(dp1373
g3
(lp1374
S'white'
p1375
aS'girl'
p1376
aS'dates'
p1377
aS'black'
p1378
aS'guy'
p1379
aS'no'
p1380
aS'longer'
p1381
aS'wants'
p1382
asg8
S'white girl dates black guy  no longer wants'
p1383
sg10
S' you cant explain that'
p1384
sg12
Vbill-o-reilly
p1385
sg14
(lp1386
g1375
ag1376
ag1377
ag1378
ag1379
ag1380
ag1381
ag1382
aS'you'
p1387
aS'cant'
p1388
aS'explain'
p1389
aS'that'
p1390
asg19
(lp1391
g1387
ag1388
ag1389
ag1390
asba(iMeme
Meme
p1392
(dp1393
g3
(lp1394
S'girls'
p1395
aS'head'
p1396
aS'explodes'
p1397
aS'because'
p1398
aS'of'
p1399
aS'orgasm'
p1400
asg8
S'girls head explodes because of orgasm'
p1401
sg10
S' you cant explaint that'
p1402
sg12
Vbill-o-reilly
p1403
sg14
(lp1404
g1395
ag1396
ag1397
ag1398
ag1399
ag1400
aS'you'
p1405
aS'cant'
p1406
aS'explaint'
p1407
aS'that'
p1408
asg19
(lp1409
g1405
ag1406
ag1407
ag1408
asba(iMeme
Meme
p1410
(dp1411
g3
(lp1412
S'poverty'
p1413
aS'reaches'
p1414
aS'record'
p1415
aS'high'
p1416
aS'on'
p1417
aS'anniversary'
p1418
aS'of'
p1419
aS'tupacs'
p1420
aS'death'
p1421
asg8
S'poverty reaches record high on anniversary of tupacs death'
p1422
sg10
S' you cant explain that'
p1423
sg12
Vbill-o-reilly
p1424
sg14
(lp1425
g1413
ag1414
ag1415
ag1416
ag1417
ag1418
ag1419
ag1420
ag1421
aS'you'
p1426
aS'cant'
p1427
aS'explain'
p1428
aS'that'
p1429
asg19
(lp1430
g1426
ag1427
ag1428
ag1429
asba(iMeme
Meme
p1431
(dp1432
g3
(lp1433
S'unicorns'
p1434
aS'have'
p1435
aS'boners'
p1436
aS'on'
p1437
aS'their'
p1438
aS'heads'
p1439
ag80
asg8
S'unicorns have boners on their heads?'
p1440
sg10
S' you cant explain that!'
p1441
sg12
Vbill-o-reilly
p1442
sg14
(lp1443
g1434
ag1435
ag1436
ag1437
ag1438
ag1439
ag80
aS'you'
p1444
aS'cant'
p1445
aS'explain'
p1446
aS'that'
p1447
ag18
asg19
(lp1448
g1444
ag1445
ag1446
ag1447
ag18
asba(iMeme
Meme
p1449
(dp1450
g3
(lp1451
S'so'
p1452
aS'im'
p1453
aS'losing'
p1454
aS'the'
p1455
aS'argument'
p1456
ag80
asg8
S'so im losing the argument?'
p1457
sg10
S' pfft'
p1458
sg12
Vbill-o-reilly
p1459
sg14
(lp1460
g1452
ag1453
ag1454
ag1455
ag1456
ag80
aS'pfft'
p1461
asg19
(lp1462
g1461
asba(iMeme
Meme
p1463
(dp1464
g3
(lp1465
S'you'
p1466
aS'just'
p1467
asg8
S'you just'
p1468
sg10
S' cant explain that'
p1469
sg12
Vbill-o-reilly
p1470
sg14
(lp1471
g1466
ag1467
aS'cant'
p1472
aS'explain'
p1473
aS'that'
p1474
asg19
(lp1475
g1472
ag1473
ag1474
asba(iMeme
Meme
p1476
(dp1477
g3
(lp1478
S'floating'
p1479
aS'science'
p1480
aS'shit'
p1481
asg8
S'floating science shit'
p1482
sg10
S' cant explain that'
p1483
sg12
Vbill-o-reilly
p1484
sg14
(lp1485
g1479
ag1480
ag1481
aS'cant'
p1486
aS'explain'
p1487
aS'that'
p1488
asg19
(lp1489
g1486
ag1487
ag1488
asba(iMeme
Meme
p1490
(dp1491
g3
(lp1492
S'rednecks'
p1493
aS'come'
p1494
aS'in'
p1495
asg8
S'rednecks come in'
p1496
sg10
S' fancy people go out'
p1497
sg12
Vbill-o-reilly
p1498
sg14
(lp1499
g1493
ag1494
ag1495
aS'fancy'
p1500
aS'people'
p1501
aS'go'
p1502
aS'out'
p1503
asg19
(lp1504
g1500
ag1501
ag1502
ag1503
asba(iMeme
Meme
p1505
(dp1506
g3
(lp1507
S'owen'
p1508
aS'cant'
p1509
aS'stand'
p1510
aS'aliens'
p1511
ag80
asg8
S'owen cant stand aliens?'
p1512
sg10
S' you cant explain that'
p1513
sg12
Vbill-o-reilly
p1514
sg14
(lp1515
g1508
ag1509
ag1510
ag1511
ag80
aS'you'
p1516
aS'cant'
p1517
aS'explain'
p1518
aS'that'
p1519
asg19
(lp1520
g1516
ag1517
ag1518
ag1519
asba(iMeme
Meme
p1521
(dp1522
g3
(lp1523
S'big'
p1524
aS'macs'
p1525
aS'taste'
p1526
aS'good'
p1527
aS'but'
p1528
aS'are'
p1529
aS'unhealthy'
p1530
asg8
S'big macs taste good but are unhealthy'
p1531
sg10
S' you cant explain that.'
p1532
sg12
Vbill-o-reilly
p1533
sg14
(lp1534
g1524
ag1525
ag1526
ag1527
ag1528
ag1529
ag1530
aS'you'
p1535
aS'cant'
p1536
aS'explain'
p1537
aS'that'
p1538
ag41
asg19
(lp1539
g1535
ag1536
ag1537
ag1538
ag41
asba(iMeme
Meme
p1540
(dp1541
g3
(lp1542
S'hamster'
p1543
aS'pants'
p1544
asg8
S'hamster pants'
p1545
sg10
S' you cant explain that'
p1546
sg12
Vbill-o-reilly
p1547
sg14
(lp1548
g1543
ag1544
aS'you'
p1549
aS'cant'
p1550
aS'explain'
p1551
aS'that'
p1552
asg19
(lp1553
g1549
ag1550
ag1551
ag1552
asba(iMeme
Meme
p1554
(dp1555
g3
(lp1556
S'strobe'
p1557
aS'lasts'
p1558
aS'ten'
p1559
aS'minutes'
p1560
asg8
S'strobe lasts ten minutes'
p1561
sg10
S' you cant explain that'
p1562
sg12
Vbill-o-reilly
p1563
sg14
(lp1564
g1557
ag1558
ag1559
ag1560
aS'you'
p1565
aS'cant'
p1566
aS'explain'
p1567
aS'that'
p1568
asg19
(lp1569
g1565
ag1566
ag1567
ag1568
asba(iMeme
Meme
p1570
(dp1571
g3
(lp1572
S'ring'
p1573
aS'species'
p1574
asg8
S'ring species'
p1575
sg10
S' you cant explain that'
p1576
sg12
Vbill-o-reilly
p1577
sg14
(lp1578
g1573
ag1574
aS'you'
p1579
aS'cant'
p1580
aS'explain'
p1581
aS'that'
p1582
asg19
(lp1583
g1579
ag1580
ag1581
ag1582
asba(iMeme
Meme
p1584
(dp1585
g3
(lp1586
S'vaginas'
p1587
asg8
S'vaginas'
p1588
sg10
S' how do they work?'
p1589
sg12
Vbill-o-reilly
p1590
sg14
(lp1591
g1587
aS'how'
p1592
aS'do'
p1593
aS'they'
p1594
aS'work'
p1595
ag80
asg19
(lp1596
g1592
ag1593
ag1594
ag1595
ag80
asba(iMeme
Meme
p1597
(dp1598
g3
(lp1599
S'sticky'
p1600
aS'stuff'
p1601
aS'in'
p1602
aS'bed'
p1603
aS'when'
p1604
ag320
aS'wake'
p1605
aS'up'
p1606
asg8
S'sticky stuff in bed when i wake up'
p1607
sg10
S' you cant explain that'
p1608
sg12
Vbill-o-reilly
p1609
sg14
(lp1610
g1600
ag1601
ag1602
ag1603
ag1604
ag320
ag1605
ag1606
aS'you'
p1611
aS'cant'
p1612
aS'explain'
p1613
aS'that'
p1614
asg19
(lp1615
g1611
ag1612
ag1613
ag1614
asba(iMeme
Meme
p1616
(dp1617
g3
(lp1618
S'dead'
p1619
aS'body'
p1620
aS'no'
p1621
aS'decomposition'
p1622
asg8
S'dead body no decomposition'
p1623
sg10
S' you cant explain that'
p1624
sg12
Vbill-o-reilly
p1625
sg14
(lp1626
g1619
ag1620
ag1621
ag1622
aS'you'
p1627
aS'cant'
p1628
aS'explain'
p1629
aS'that'
p1630
asg19
(lp1631
g1627
ag1628
ag1629
ag1630
asba(iMeme
Meme
p1632
(dp1633
g3
(lp1634
S'farts'
p1635
asg8
S'farts'
p1636
sg10
S' how can noises stink?'
p1637
sg12
Vbill-o-reilly
p1638
sg14
(lp1639
g1635
aS'how'
p1640
aS'can'
p1641
aS'noises'
p1642
aS'stink'
p1643
ag80
asg19
(lp1644
g1640
ag1641
ag1642
ag1643
ag80
asba(iMeme
Meme
p1645
(dp1646
g3
(lp1647
S'one'
p1648
aS'poke'
p1649
aS'sent'
p1650
asg8
S'one poke sent'
p1651
sg10
S' two pokes received'
p1652
sg12
Vbill-o-reilly
p1653
sg14
(lp1654
g1648
ag1649
ag1650
aS'two'
p1655
aS'pokes'
p1656
aS'received'
p1657
asg19
(lp1658
g1655
ag1656
ag1657
asba(iMeme
Meme
p1659
(dp1660
g3
(lp1661
S'eileen'
p1662
asg8
S'eileen'
p1663
sg10
S' are you mad'
p1664
sg12
Vbill-o-reilly
p1665
sg14
(lp1666
g1662
aS'are'
p1667
aS'you'
p1668
aS'mad'
p1669
asg19
(lp1670
g1667
ag1668
ag1669
asba(iMeme
Meme
p1671
(dp1672
g3
(lp1673
S'alch'
p1674
aS'skills'
p1675
asg8
S'alch skills'
p1676
sg10
S' explain this bullshit'
p1677
sg12
Vbill-o-reilly
p1678
sg14
(lp1679
g1674
ag1675
aS'explain'
p1680
aS'this'
p1681
aS'bullshit'
p1682
asg19
(lp1683
g1680
ag1681
ag1682
asba(iMeme
Meme
p1684
(dp1685
g3
(lp1686
S'3d'
p1687
aS'without'
p1688
aS'glasses'
p1689
asg8
S'3d without glasses'
p1690
sg10
S' you cant explain that'
p1691
sg12
Vbill-o-reilly
p1692
sg14
(lp1693
g1687
ag1688
ag1689
aS'you'
p1694
aS'cant'
p1695
aS'explain'
p1696
aS'that'
p1697
asg19
(lp1698
g1694
ag1695
ag1696
ag1697
asba(iMeme
Meme
p1699
(dp1700
g3
(lp1701
S'level'
p1702
aS'22'
p1703
aS'to'
p1704
aS'60'
p1705
aS'within'
p1706
aS'an'
p1707
aS'hour'
p1708
aS'in'
p1709
aS'borderlands'
p1710
asg8
S'level 22 to 60 within an hour in borderlands'
p1711
sg10
S' you cant explain that'
p1712
sg12
Vbill-o-reilly
p1713
sg14
(lp1714
g1702
ag1703
ag1704
ag1705
ag1706
ag1707
ag1708
ag1709
ag1710
aS'you'
p1715
aS'cant'
p1716
aS'explain'
p1717
aS'that'
p1718
asg19
(lp1719
g1715
ag1716
ag1717
ag1718
asba(iMeme
Meme
p1720
(dp1721
g3
(lp1722
S'fat'
p1723
aS'guy'
p1724
aS'with'
p1725
aS'womanly'
p1726
aS'tits'
p1727
ag80
asg8
S'fat guy with womanly tits?'
p1728
sg10
S' you cant explain that!'
p1729
sg12
Vbill-o-reilly
p1730
sg14
(lp1731
g1723
ag1724
ag1725
ag1726
ag1727
ag80
aS'you'
p1732
aS'cant'
p1733
aS'explain'
p1734
aS'that'
p1735
ag18
asg19
(lp1736
g1732
ag1733
ag1734
ag1735
ag18
asba(iMeme
Meme
p1737
(dp1738
g3
(lp1739
S'grow'
p1740
aS'and'
p1741
aS'eat'
p1742
aS'potatoes'
p1743
asg8
S'grow and eat potatoes'
p1744
sg10
S' you cant explain that'
p1745
sg12
Vbill-o-reilly
p1746
sg14
(lp1747
g1740
ag1741
ag1742
ag1743
aS'you'
p1748
aS'cant'
p1749
aS'explain'
p1750
aS'that'
p1751
asg19
(lp1752
g1748
ag1749
ag1750
ag1751
asba(iMeme
Meme
p1753
(dp1754
g3
(lp1755
S'fus'
p1756
aS'ro'
p1757
aS'da'
p1758
ag41
asg8
S'fus ro da.'
p1759
sg10
S' you cant explain that.'
p1760
sg12
Vbill-o-reilly
p1761
sg14
(lp1762
g1756
ag1757
ag1758
ag41
aS'you'
p1763
aS'cant'
p1764
aS'explain'
p1765
aS'that'
p1766
ag41
asg19
(lp1767
g1763
ag1764
ag1765
ag1766
ag41
asba(iMeme
Meme
p1768
(dp1769
g3
(lp1770
S'torts'
p1771
ag80
ag18
asg8
S'torts?!'
p1772
sg10
S' you cant explain that.'
p1773
sg12
Vbill-o-reilly
p1774
sg14
(lp1775
g1771
ag80
ag18
aS'you'
p1776
aS'cant'
p1777
aS'explain'
p1778
aS'that'
p1779
ag41
asg19
(lp1780
g1776
ag1777
ag1778
ag1779
ag41
asba(iMeme
Meme
p1781
(dp1782
g3
(lp1783
S'pulls'
p1784
aS'tissue'
p1785
aS'and'
p1786
aS'the'
p1787
aS'last'
p1788
aS'two'
p1789
aS'come'
p1790
aS'out'
p1791
asg8
S'pulls tissue and the last two come out'
p1792
sg10
S' you cant explain that'
p1793
sg12
Vbill-o-reilly
p1794
sg14
(lp1795
g1784
ag1785
ag1786
ag1787
ag1788
ag1789
ag1790
ag1791
aS'you'
p1796
aS'cant'
p1797
aS'explain'
p1798
aS'that'
p1799
asg19
(lp1800
g1796
ag1797
ag1798
ag1799
asba(iMeme
Meme
p1801
(dp1802
g3
(lp1803
S'neg'
p1804
aS'rep'
p1805
aS'crysis'
p1806
asg8
S'neg rep crysis'
p1807
sg10
S' acquire large amounts of rep'
p1808
sg12
Vbill-o-reilly
p1809
sg14
(lp1810
g1804
ag1805
ag1806
aS'acquire'
p1811
aS'large'
p1812
aS'amounts'
p1813
aS'of'
p1814
aS'rep'
p1815
asg19
(lp1816
g1811
ag1812
ag1813
ag1814
ag1815
asba(iMeme
Meme
p1817
(dp1818
g3
(lp1819
S'inline'
p1820
aS'zong'
p1821
aS'bubbler'
p1822
asg8
S'inline zong bubbler'
p1823
sg10
S' you cant explain that'
p1824
sg12
Vbill-o-reilly
p1825
sg14
(lp1826
g1820
ag1821
ag1822
aS'you'
p1827
aS'cant'
p1828
aS'explain'
p1829
aS'that'
p1830
asg19
(lp1831
g1827
ag1828
ag1829
ag1830
asba(iMeme
Meme
p1832
(dp1833
g3
(lp1834
S'parsec'
p1835
aS'is'
p1836
ag26
aS'unit'
p1837
aS'of'
p1838
aS'distance'
p1839
aS'not'
p1840
aS'time'
p1841
asg8
S'parsec is a unit of distance not time'
p1842
sg10
S' you cant explain that'
p1843
sg12
Vbill-o-reilly
p1844
sg14
(lp1845
g1835
ag1836
ag26
ag1837
ag1838
ag1839
ag1840
ag1841
aS'you'
p1846
aS'cant'
p1847
aS'explain'
p1848
aS'that'
p1849
asg19
(lp1850
g1846
ag1847
ag1848
ag1849
asba(iMeme
Meme
p1851
(dp1852
g3
(lp1853
S'rick'
p1854
aS'perry'
p1855
aS'hasnt'
p1856
aS'been'
p1857
aS'vetted'
p1858
ag41
aS'you'
p1859
aS'havent'
p1860
aS'seen'
p1861
aS'him'
p1862
aS'in'
p1863
aS'debate'
p1864
aS'form'
p1865
ag41
aS'he'
p1866
aS'hasnt'
p1867
aS'done'
p1868
aS'any'
p1869
aS'interviews'
p1870
ag41
asg8
S'rick perry hasnt been vetted. you havent seen him in debate form. he hasnt done any interviews.'
p1871
sg10
S' give him his due. to break on top that quickly. thats pretty impressive.'
p1872
sg12
Vbill-o-reilly
p1873
sg14
(lp1874
g1854
ag1855
ag1856
ag1857
ag1858
ag41
ag1859
ag1860
ag1861
ag1862
ag1863
ag1864
ag1865
ag41
ag1866
ag1867
ag1868
ag1869
ag1870
ag41
aS'give'
p1875
aS'him'
p1876
aS'his'
p1877
aS'due'
p1878
ag41
aS'to'
p1879
aS'break'
p1880
aS'on'
p1881
aS'top'
p1882
aS'that'
p1883
aS'quickly'
p1884
ag41
aS'thats'
p1885
aS'pretty'
p1886
aS'impressive'
p1887
ag41
asg19
(lp1888
g1875
ag1876
ag1877
ag1878
ag41
ag1879
ag1880
ag1881
ag1882
ag1883
ag1884
ag41
ag1885
ag1886
ag1887
ag41
asba(iMeme
Meme
p1889
(dp1890
g3
(lp1891
S'im'
p1892
aS'republican'
p1893
asg8
S'im republican'
p1894
sg10
S' so of course im a closet homosexual'
p1895
sg12
Vbill-o-reilly
p1896
sg14
(lp1897
g1892
ag1893
aS'so'
p1898
aS'of'
p1899
aS'course'
p1900
aS'im'
p1901
ag26
aS'closet'
p1902
aS'homosexual'
p1903
asg19
(lp1904
g1898
ag1899
ag1900
ag1901
ag26
ag1902
ag1903
asba(iMeme
Meme
p1905
(dp1906
g3
(lp1907
S'ring'
p1908
aS'road'
p1909
aS'ruts'
p1910
aS'in'
p1911
aS'summer'
p1912
ag80
asg8
S'ring road ruts in summer?'
p1913
sg10
S' you cant explain that!'
p1914
sg12
Vbill-o-reilly
p1915
sg14
(lp1916
g1908
ag1909
ag1910
ag1911
ag1912
ag80
aS'you'
p1917
aS'cant'
p1918
aS'explain'
p1919
aS'that'
p1920
ag18
asg19
(lp1921
g1917
ag1918
ag1919
ag1920
ag18
asba(iMeme
Meme
p1922
(dp1923
g3
(lp1924
S'endermen'
p1925
aS'now'
p1926
aS'attack'
p1927
aS'when'
p1928
aS'you'
p1929
aS'look'
p1930
aS'at'
p1931
aS'their'
p1932
aS'back'
p1933
asg8
S'endermen now attack when you look at their back'
p1934
sg10
S' you cant explain that'
p1935
sg12
Vbill-o-reilly
p1936
sg14
(lp1937
g1925
ag1926
ag1927
ag1928
ag1929
ag1930
ag1931
ag1932
ag1933
aS'you'
p1938
aS'cant'
p1939
aS'explain'
p1940
aS'that'
p1941
asg19
(lp1942
g1938
ag1939
ag1940
ag1941
asba(iMeme
Meme
p1943
(dp1944
g3
(lp1945
S'tanks'
p1946
aS'keep'
p1947
aS'dying'
p1948
aS'on'
p1949
aS'yorsahj'
p1950
ag41
asg8
S'tanks keep dying on yorsahj.'
p1951
sg10
S' you cant explain that.'
p1952
sg12
Vbill-o-reilly
p1953
sg14
(lp1954
g1946
ag1947
ag1948
ag1949
ag1950
ag41
aS'you'
p1955
aS'cant'
p1956
aS'explain'
p1957
aS'that'
p1958
ag41
asg19
(lp1959
g1955
ag1956
ag1957
ag1958
ag41
asba(iMeme
Meme
p1960
(dp1961
g3
(lp1962
S'mw3'
p1963
aS'isnt'
p1964
aS'mw2'
p1965
asg8
S'mw3 isnt mw2'
p1966
sg10
S' you cant explain that'
p1967
sg12
Vbill-o-reilly
p1968
sg14
(lp1969
g1963
ag1964
ag1965
aS'you'
p1970
aS'cant'
p1971
aS'explain'
p1972
aS'that'
p1973
asg19
(lp1974
g1970
ag1971
ag1972
ag1973
asba(iMeme
Meme
p1975
(dp1976
g3
(lp1977
S'replication'
p1978
asg8
S'replication'
p1979
sg10
S' how does it work?'
p1980
sg12
Vbill-o-reilly
p1981
sg14
(lp1982
g1978
aS'how'
p1983
aS'does'
p1984
aS'it'
p1985
aS'work'
p1986
ag80
asg19
(lp1987
g1983
ag1984
ag1985
ag1986
ag80
asba(iMeme
Meme
p1988
(dp1989
g3
(lp1990
S'ron'
p1991
aS'paul'
p1992
asg8
S'ron paul'
p1993
sg10
S' you cant explain that'
p1994
sg12
Vbill-o-reilly
p1995
sg14
(lp1996
g1991
ag1992
aS'you'
p1997
aS'cant'
p1998
aS'explain'
p1999
aS'that'
p2000
asg19
(lp2001
g1997
ag1998
ag1999
ag2000
asba(iMeme
Meme
p2002
(dp2003
g3
(lp2004
S'swag'
p2005
aS'comes'
p2006
ag41
aS'swag'
p2007
aS'goes'
p2008
aS'out'
p2009
ag41
asg8
S'swag comes. swag goes out.'
p2010
sg10
S' you cant explain that'
p2011
sg12
Vbill-o-reilly
p2012
sg14
(lp2013
g2005
ag2006
ag41
ag2007
ag2008
ag2009
ag41
aS'you'
p2014
aS'cant'
p2015
aS'explain'
p2016
aS'that'
p2017
asg19
(lp2018
g2014
ag2015
ag2016
ag2017
asba(iMeme
Meme
p2019
(dp2020
g3
(lp2021
S'elderly'
p2022
aS'lecturer'
p2023
aS'doesnt'
p2024
aS'understand'
p2025
aS'powerpoint'
p2026
asg8
S'elderly lecturer doesnt understand powerpoint'
p2027
sg10
S' fuck it'
p2028
sg12
Vbill-o-reilly
p2029
sg14
(lp2030
g2022
ag2023
ag2024
ag2025
ag2026
aS'fuck'
p2031
aS'it'
p2032
asg19
(lp2033
g2031
ag2032
asba(iMeme
Meme
p2034
(dp2035
g3
(lp2036
S'the'
p2037
aS'sun'
p2038
aS'goes'
p2039
aS'up'
p2040
aS'the'
p2041
aS'sun'
p2042
aS'goes'
p2043
aS'down'
p2044
asg8
S'the sun goes up the sun goes down'
p2045
sg10
S' you cant explain that'
p2046
sg12
Vbill-o-reilly
p2047
sg14
(lp2048
g2037
ag2038
ag2039
ag2040
ag2041
ag2042
ag2043
ag2044
aS'you'
p2049
aS'cant'
p2050
aS'explain'
p2051
aS'that'
p2052
asg19
(lp2053
g2049
ag2050
ag2051
ag2052
asba(iMeme
Meme
p2054
(dp2055
g3
(lp2056
S'make'
p2057
aS'sweeping'
p2058
aS'statement'
p2059
aS'you'
p2060
aS'cant'
p2061
aS'support'
p2062
asg8
S'make sweeping statement you cant support'
p2063
sg10
S' insult anyone who disagrees'
p2064
sg12
Vbill-o-reilly
p2065
sg14
(lp2066
g2057
ag2058
ag2059
ag2060
ag2061
ag2062
aS'insult'
p2067
aS'anyone'
p2068
aS'who'
p2069
aS'disagrees'
p2070
asg19
(lp2071
g2067
ag2068
ag2069
ag2070
asba(iMeme
Meme
p2072
(dp2073
g3
(lp2074
S'beets'
p2075
aS'go'
p2076
aS'somewhere'
p2077
asg8
S'beets go somewhere'
p2078
sg10
S' you cant explain that!'
p2079
sg12
Vbill-o-reilly
p2080
sg14
(lp2081
g2075
ag2076
ag2077
aS'you'
p2082
aS'cant'
p2083
aS'explain'
p2084
aS'that'
p2085
ag18
asg19
(lp2086
g2082
ag2083
ag2084
ag2085
ag18
asba(iMeme
Meme
p2087
(dp2088
g3
(lp2089
S'chemtrails'
p2090
asg8
S'chemtrails'
p2091
sg10
S' you cant explain that'
p2092
sg12
Vbill-o-reilly
p2093
sg14
(lp2094
g2090
aS'you'
p2095
aS'cant'
p2096
aS'explain'
p2097
aS'that'
p2098
asg19
(lp2099
g2095
ag2096
ag2097
ag2098
asba(iMeme
Meme
p2100
(dp2101
g3
(lp2102
S'the'
p2103
aS'revolution'
p2104
aS'wont'
p2105
aS'be'
p2106
aS'televised'
p2107
asg8
S'the revolution wont be televised'
p2108
sg10
S' fuck it'
p2109
sg12
Vbill-o-reilly
p2110
sg14
(lp2111
g2103
ag2104
ag2105
ag2106
ag2107
aS'fuck'
p2112
aS'it'
p2113
asg19
(lp2114
g2112
ag2113
asba(iMeme
Meme
p2115
(dp2116
g3
(lp2117
S'you'
p2118
aS'put'
p2119
aS'water'
p2120
aS'in'
p2121
aS'the'
p2122
aS'freezer'
p2123
asg8
S'you put water in the freezer'
p2124
sg10
S' ice comes out'
p2125
sg12
Vbill-o-reilly
p2126
sg14
(lp2127
g2118
ag2119
ag2120
ag2121
ag2122
ag2123
aS'ice'
p2128
aS'comes'
p2129
aS'out'
p2130
asg19
(lp2131
g2128
ag2129
ag2130
asba(iMeme
Meme
p2132
(dp2133
g3
(lp2134
S'the'
p2135
aS'goverment'
p2136
asg8
S'the goverment'
p2137
sg10
S' you cant explain that'
p2138
sg12
Vbill-o-reilly
p2139
sg14
(lp2140
g2135
ag2136
aS'you'
p2141
aS'cant'
p2142
aS'explain'
p2143
aS'that'
p2144
asg19
(lp2145
g2141
ag2142
ag2143
ag2144
asba(iMeme
Meme
p2146
(dp2147
g3
(lp2148
S'give'
p2149
aS'yankees'
p2150
ag26
aS'48'
p2151
aS'hour'
p2152
asg8
S'give yankees a 48 hour'
p2153
sg10
S' acquire large amounts of rep'
p2154
sg12
Vbill-o-reilly
p2155
sg14
(lp2156
g2149
ag2150
ag26
ag2151
ag2152
aS'acquire'
p2157
aS'large'
p2158
aS'amounts'
p2159
aS'of'
p2160
aS'rep'
p2161
asg19
(lp2162
g2157
ag2158
ag2159
ag2160
ag2161
asba(iMeme
Meme
p2163
(dp2164
g3
(lp2165
S'the'
p2166
aS'most'
p2167
aS'popular'
p2168
aS'lecture'
p2169
aS'at'
p2170
aS'an'
p2171
aS'all'
p2172
aS'boys'
p2173
aS'school'
p2174
aS'was'
p2175
aS'by'
p2176
aS'someone'
p2177
aS'with'
p2178
aS'breasts'
p2179
asg8
S'the most popular lecture at an all boys school was by someone with breasts'
p2180
sg10
S' you cant explain that'
p2181
sg12
Vbill-o-reilly
p2182
sg14
(lp2183
g2166
ag2167
ag2168
ag2169
ag2170
ag2171
ag2172
ag2173
ag2174
ag2175
ag2176
ag2177
ag2178
ag2179
aS'you'
p2184
aS'cant'
p2185
aS'explain'
p2186
aS'that'
p2187
asg19
(lp2188
g2184
ag2185
ag2186
ag2187
asba(iMeme
Meme
p2189
(dp2190
g3
(lp2191
S'beer'
p2192
aS'goes'
p2193
aS'in'
p2194
asg8
S'beer goes in'
p2195
sg10
S' piss comes out'
p2196
sg12
Vbill-o-reilly
p2197
sg14
(lp2198
g2192
ag2193
ag2194
aS'piss'
p2199
aS'comes'
p2200
aS'out'
p2201
asg19
(lp2202
g2199
ag2200
ag2201
asba(iMeme
Meme
p2203
(dp2204
g3
(lp2205
S'elderly'
p2206
aS'lecturer'
p2207
aS'cant'
p2208
aS'work'
p2209
aS'computer'
p2210
asg8
S'elderly lecturer cant work computer'
p2211
sg10
S' fuck it'
p2212
sg12
Vbill-o-reilly
p2213
sg14
(lp2214
g2206
ag2207
ag2208
ag2209
ag2210
aS'fuck'
p2215
aS'it'
p2216
asg19
(lp2217
g2215
ag2216
asba(iMeme
Meme
p2218
(dp2219
g3
(lp2220
S'its'
p2221
aS'not'
p2222
aS'my'
p2223
aS'fault'
p2224
asg8
S'its not my fault'
p2225
sg10
S' that youre a piece of shit'
p2226
sg12
Vbill-o-reilly
p2227
sg14
(lp2228
g2221
ag2222
ag2223
ag2224
aS'that'
p2229
aS'youre'
p2230
ag26
aS'piece'
p2231
aS'of'
p2232
aS'shit'
p2233
asg19
(lp2234
g2229
ag2230
ag26
ag2231
ag2232
ag2233
asba(iMeme
Meme
p2235
(dp2236
g3
(lp2237
S'guy'
p2238
aS'kills'
p2239
aS'you'
p2240
aS'5'
p2241
aS'seconds'
p2242
aS'after'
p2243
aS'you'
p2244
aS'got'
p2245
aS'into'
p2246
aS'cover'
p2247
asg8
S'guy kills you 5 seconds after you got into cover'
p2248
sg10
S' you cant explain that'
p2249
sg12
Vbill-o-reilly
p2250
sg14
(lp2251
g2238
ag2239
ag2240
ag2241
ag2242
ag2243
ag2244
ag2245
ag2246
ag2247
aS'you'
p2252
aS'cant'
p2253
aS'explain'
p2254
aS'that'
p2255
asg19
(lp2256
g2252
ag2253
ag2254
ag2255
asba(iMeme
Meme
p2257
(dp2258
g3
(lp2259
S'tired'
p2260
aS'from'
p2261
aS'table'
p2262
aS'tennis'
p2263
asg8
S'tired from table tennis'
p2264
sg10
S' you cant explain that'
p2265
sg12
Vbill-o-reilly
p2266
sg14
(lp2267
g2260
ag2261
ag2262
ag2263
aS'you'
p2268
aS'cant'
p2269
aS'explain'
p2270
aS'that'
p2271
asg19
(lp2272
g2268
ag2269
ag2270
ag2271
asba(iMeme
Meme
p2273
(dp2274
g3
(lp2275
S'photoshop'
p2276
aS'does'
p2277
aS'something'
p2278
aS'like'
p2279
aS'magic'
p2280
asg8
S'photoshop does something like magic'
p2281
sg10
S' you cant explain that'
p2282
sg12
Vbill-o-reilly
p2283
sg14
(lp2284
g2276
ag2277
ag2278
ag2279
ag2280
aS'you'
p2285
aS'cant'
p2286
aS'explain'
p2287
aS'that'
p2288
asg19
(lp2289
g2285
ag2286
ag2287
ag2288
asba(iMeme
Meme
p2290
(dp2291
g3
(lp2292
S'hitler'
p2293
aS'didnt'
p2294
aS'like'
p2295
aS'jews'
p2296
asg8
S'hitler didnt like jews'
p2297
sg10
S' you cant explain that'
p2298
sg12
Vbill-o-reilly
p2299
sg14
(lp2300
g2293
ag2294
ag2295
ag2296
aS'you'
p2301
aS'cant'
p2302
aS'explain'
p2303
aS'that'
p2304
asg19
(lp2305
g2301
ag2302
ag2303
ag2304
asba(iMeme
Meme
p2306
(dp2307
g3
(lp2308
S'rainbow'
p2309
aS'dash'
p2310
aS'can'
p2311
aS'fly'
p2312
ag18
ag80
ag18
asg8
S'rainbow dash can fly!?!'
p2313
sg10
S' you cant explain that'
p2314
sg12
Vbill-o-reilly
p2315
sg14
(lp2316
g2309
ag2310
ag2311
ag2312
ag18
ag80
ag18
aS'you'
p2317
aS'cant'
p2318
aS'explain'
p2319
aS'that'
p2320
asg19
(lp2321
g2317
ag2318
ag2319
ag2320
asba(iMeme
Meme
p2322
(dp2323
g3
(lp2324
S'cindy'
p2325
aS'lomelino'
p2326
aS'has'
p2327
aS'friends'
p2328
ag80
asg8
S'cindy lomelino has friends ?'
p2329
sg10
S' you cant explain that ?'
p2330
sg12
Vbill-o-reilly
p2331
sg14
(lp2332
g2325
ag2326
ag2327
ag2328
ag80
aS'you'
p2333
aS'cant'
p2334
aS'explain'
p2335
aS'that'
p2336
ag80
asg19
(lp2337
g2333
ag2334
ag2335
ag2336
ag80
asba(iMeme
Meme
p2338
(dp2339
g3
(lp2340
S'can'
p2341
aS'not'
p2342
aS'find'
p2343
aS'steven'
p2344
aS'sagads'
p2345
aS'comment/s'
p2346
asg8
S'cannot find steven sagads comment/s'
p2347
sg10
S' you cant explain that'
p2348
sg12
Vbill-o-reilly
p2349
sg14
(lp2350
g2341
ag2342
ag2343
ag2344
ag2345
ag2346
aS'you'
p2351
aS'cant'
p2352
aS'explain'
p2353
aS'that'
p2354
asg19
(lp2355
g2351
ag2352
ag2353
ag2354
asba(iMeme
Meme
p2356
(dp2357
g3
(lp2358
S'youre'
p2359
aS'an'
p2360
aS'internet'
p2361
aS'warrior'
p2362
asg8
S'youre an internet warrior'
p2363
sg10
S' end of discussion'
p2364
sg12
Vbill-o-reilly
p2365
sg14
(lp2366
g2359
ag2360
ag2361
ag2362
aS'end'
p2367
aS'of'
p2368
aS'discussion'
p2369
asg19
(lp2370
g2367
ag2368
ag2369
asba(iMeme
Meme
p2371
(dp2372
g3
(lp2373
S'go'
p2374
aS'to'
p2375
aS'bed'
p2376
aS'at'
p2377
ag2241
aS'am'
p2378
ag41
aS'wake'
p2379
aS'up'
p2380
aS'at'
p2381
aS'10'
p2382
aS'am'
p2383
asg8
S'go to bed at 5 am. wake up at 10 am'
p2384
sg10
S' you cant explain that!'
p2385
sg12
Vbill-o-reilly
p2386
sg14
(lp2387
g2374
ag2375
ag2376
ag2377
ag2241
ag2378
ag41
ag2379
ag2380
ag2381
ag2382
ag2383
aS'you'
p2388
aS'cant'
p2389
aS'explain'
p2390
aS'that'
p2391
ag18
asg19
(lp2392
g2388
ag2389
ag2390
ag2391
ag18
asba(iMeme
Meme
p2393
(dp2394
g3
(lp2395
S'if'
p2396
ag320
aS'cant'
p2397
aS'see'
p2398
aS'you'
p2399
asg8
S'if i cant see you'
p2400
sg10
S' you cant see me'
p2401
sg12
Vbill-o-reilly
p2402
sg14
(lp2403
g2396
ag320
ag2397
ag2398
ag2399
aS'you'
p2404
aS'cant'
p2405
aS'see'
p2406
aS'me'
p2407
asg19
(lp2408
g2404
ag2405
ag2406
ag2407
asba(iMeme
Meme
p2409
(dp2410
g3
(lp2411
g2241
aS'star'
p2412
aS'thread'
p2413
ag80
asg8
S'5 star thread?'
p2414
sg10
S' you cant explain that'
p2415
sg12
Vbill-o-reilly
p2416
sg14
(lp2417
g2241
ag2412
ag2413
ag80
aS'you'
p2418
aS'cant'
p2419
aS'explain'
p2420
aS'that'
p2421
asg19
(lp2422
g2418
ag2419
ag2420
ag2421
asba(iMeme
Meme
p2423
(dp2424
g3
(lp2425
S'there'
p2426
aS'is'
p2427
aS'no'
p2428
aS'text'
p2429
asg8
S'there is no text'
p2430
sg10
S' well do it live'
p2431
sg12
Vbill-o-reilly
p2432
sg14
(lp2433
g2426
ag2427
ag2428
ag2429
aS'well'
p2434
aS'do'
p2435
aS'it'
p2436
aS'live'
p2437
asg19
(lp2438
g2434
ag2435
ag2436
ag2437
asba(iMeme
Meme
p2439
(dp2440
g3
(lp2441
S'pokeballs'
p2442
aS'open'
p2443
asg8
S'pokeballs open'
p2444
sg10
S' pokemon come out'
p2445
sg12
Vbill-o-reilly
p2446
sg14
(lp2447
g2442
ag2443
aS'pokemon'
p2448
aS'come'
p2449
aS'out'
p2450
asg19
(lp2451
g2448
ag2449
ag2450
asba(iMeme
Meme
p2452
(dp2453
g3
(lp2454
S'says'
p2455
aS'be'
p2456
aS'right'
p2457
aS'back'
p2458
asg8
S'says be right back'
p2459
sg10
S' doesnt come right back.'
p2460
sg12
Vbill-o-reilly
p2461
sg14
(lp2462
g2455
ag2456
ag2457
ag2458
aS'doesnt'
p2463
aS'come'
p2464
aS'right'
p2465
aS'back'
p2466
ag41
asg19
(lp2467
g2463
ag2464
ag2465
ag2466
ag41
asba(iMeme
Meme
p2468
(dp2469
g3
(lp2470
S'when'
p2471
aS'you'
p2472
aS'lay'
p2473
aS'down'
p2474
aS'you'
p2475
aS'sleep'
p2476
ag41
asg8
S'when you lay down you sleep.'
p2477
sg10
S' you cant explain that!'
p2478
sg12
Vbill-o-reilly
p2479
sg14
(lp2480
g2471
ag2472
ag2473
ag2474
ag2475
ag2476
ag41
aS'you'
p2481
aS'cant'
p2482
aS'explain'
p2483
aS'that'
p2484
ag18
asg19
(lp2485
g2481
ag2482
ag2483
ag2484
ag18
asba(iMeme
Meme
p2486
(dp2487
g3
(lp2488
S'mother'
p2489
aS'mary'
p2490
asg8
S'mother mary'
p2491
sg10
S' comes to me'
p2492
sg12
Vbill-o-reilly
p2493
sg14
(lp2494
g2489
ag2490
aS'comes'
p2495
aS'to'
p2496
aS'me'
p2497
asg19
(lp2498
g2495
ag2496
ag2497
asba(iMeme
Meme
p2499
(dp2500
g3
(lp2501
sg8
S''
p2502
sg10
S' you cant explain that.'
p2503
sg12
Vbill-o-reilly
p2504
sg14
(lp2505
S'you'
p2506
aS'cant'
p2507
aS'explain'
p2508
aS'that'
p2509
ag41
asg19
(lp2510
g2506
ag2507
ag2508
ag2509
ag41
asba(iMeme
Meme
p2511
(dp2512
g3
(lp2513
S'dont'
p2514
aS'unit'
p2515
aS'test'
p2516
asg8
S'dont unit test'
p2517
sg10
S' get paged at night'
p2518
sg12
Vbill-o-reilly
p2519
sg14
(lp2520
g2514
ag2515
ag2516
aS'get'
p2521
aS'paged'
p2522
aS'at'
p2523
aS'night'
p2524
asg19
(lp2525
g2521
ag2522
ag2523
ag2524
asba(iMeme
Meme
p2526
(dp2527
g3
(lp2528
S'gays'
p2529
aS'getting'
p2530
aS'married'
p2531
aS'not'
p2532
aS'ok'
p2533
ag80
asg8
S'gays getting married not ok?'
p2534
sg10
S' cant explain that'
p2535
sg12
Vbill-o-reilly
p2536
sg14
(lp2537
g2529
ag2530
ag2531
ag2532
ag2533
ag80
aS'cant'
p2538
aS'explain'
p2539
aS'that'
p2540
asg19
(lp2541
g2538
ag2539
ag2540
asba(iMeme
Meme
p2542
(dp2543
g3
(lp2544
S'eat'
p2545
ag2241
aS'lbs'
p2546
aS'of'
p2547
aS'trail'
p2548
aS'mix'
p2549
asg8
S'eat 5 lbs of trail mix'
p2550
sg10
S' shit out a pinecone'
p2551
sg12
Vbill-o-reilly
p2552
sg14
(lp2553
g2545
ag2241
ag2546
ag2547
ag2548
ag2549
aS'shit'
p2554
aS'out'
p2555
ag26
aS'pinecone'
p2556
asg19
(lp2557
g2554
ag2555
ag26
ag2556
asba(iMeme
Meme
p2558
(dp2559
g3
(lp2560
S'you'
p2561
aS'go'
p2562
aS'to'
p2563
aS'my.bitdefender.com'
p2564
asg8
S'you go to my.bitdefender.com'
p2565
sg10
S' myaccount wizards pops up'
p2566
sg12
Vbill-o-reilly
p2567
sg14
(lp2568
g2561
ag2562
ag2563
ag2564
aS'myaccount'
p2569
aS'wizards'
p2570
aS'pops'
p2571
aS'up'
p2572
asg19
(lp2573
g2569
ag2570
ag2571
ag2572
asba(iMeme
Meme
p2574
(dp2575
g3
(lp2576
S'family'
p2577
aS'christmas'
p2578
ag80
asg8
S'family christmas?'
p2579
sg10
S' fuck it'
p2580
sg12
Vbill-o-reilly
p2581
sg14
(lp2582
g2577
ag2578
ag80
aS'fuck'
p2583
aS'it'
p2584
asg19
(lp2585
g2583
ag2584
asba(iMeme
Meme
p2586
(dp2587
g3
(lp2588
S'kumquats'
p2589
ag80
asg8
S'kumquats?'
p2590
sg10
S' you cant explain those'
p2591
sg12
Vbill-o-reilly
p2592
sg14
(lp2593
g2589
ag80
aS'you'
p2594
aS'cant'
p2595
aS'explain'
p2596
aS'those'
p2597
asg19
(lp2598
g2594
ag2595
ag2596
ag2597
asba(iMeme
Meme
p2599
(dp2600
g3
(lp2601
S'mirrors'
p2602
asg8
S'mirrors'
p2603
sg10
S' how do they work?'
p2604
sg12
Vbill-o-reilly
p2605
sg14
(lp2606
g2602
aS'how'
p2607
aS'do'
p2608
aS'they'
p2609
aS'work'
p2610
ag80
asg19
(lp2611
g2607
ag2608
ag2609
ag2610
ag80
asba(iMeme
Meme
p2612
(dp2613
g3
(lp2614
S'pendrive'
p2615
aS'ports'
p2616
aS'are'
p2617
aS'disabled'
p2618
aS'during'
p2619
aS'exam'
p2620
asg8
S'pendrive ports are disabled during exam'
p2621
sg10
S' you cant explain that!'
p2622
sg12
Vbill-o-reilly
p2623
sg14
(lp2624
g2615
ag2616
ag2617
ag2618
ag2619
ag2620
aS'you'
p2625
aS'cant'
p2626
aS'explain'
p2627
aS'that'
p2628
ag18
asg19
(lp2629
g2625
ag2626
ag2627
ag2628
ag18
asba(iMeme
Meme
p2630
(dp2631
g3
(lp2632
S'if'
p2633
aS'human'
p2634
aS'evolved'
p2635
aS'from'
p2636
aS'monkeys'
p2637
asg8
S'if human evolved from monkeys'
p2638
sg10
S' how come babies arent born monkeys'
p2639
sg12
Vbill-o-reilly
p2640
sg14
(lp2641
g2633
ag2634
ag2635
ag2636
ag2637
aS'how'
p2642
aS'come'
p2643
aS'babies'
p2644
aS'arent'
p2645
aS'born'
p2646
aS'monkeys'
p2647
asg19
(lp2648
g2642
ag2643
ag2644
ag2645
ag2646
ag2647
asba(iMeme
Meme
p2649
(dp2650
g3
(lp2651
S'god'
p2652
aS'tier'
p2653
aS'beta'
p2654
aS'troll'
p2655
aS'meeting'
p2656
aS'up'
p2657
aS'with'
p2658
aS'alpha'
p2659
aS'kid'
p2660
ag80
asg8
S'god tier beta troll meeting up with alpha kid?'
p2661
sg10
S' you cant explain that'
p2662
sg12
Vbill-o-reilly
p2663
sg14
(lp2664
g2652
ag2653
ag2654
ag2655
ag2656
ag2657
ag2658
ag2659
ag2660
ag80
aS'you'
p2665
aS'cant'
p2666
aS'explain'
p2667
aS'that'
p2668
asg19
(lp2669
g2665
ag2666
ag2667
ag2668
asba(iMeme
Meme
p2670
(dp2671
g3
(lp2672
S'agent'
p2673
aS'coulson'
p2674
aS'in'
p2675
aS'your'
p2676
aS'futon'
p2677
asg8
S'agent coulson in your futon'
p2678
sg10
S' you cant explain that'
p2679
sg12
Vbill-o-reilly
p2680
sg14
(lp2681
g2673
ag2674
ag2675
ag2676
ag2677
aS'you'
p2682
aS'cant'
p2683
aS'explain'
p2684
aS'that'
p2685
asg19
(lp2686
g2682
ag2683
ag2684
ag2685
asba(iMeme
Meme
p2687
(dp2688
g3
(lp2689
S'hey'
p2690
asg8
S'hey'
p2691
sg10
S' saywhat isnt that bad of a band!'
p2692
sg12
Vbill-o-reilly
p2693
sg14
(lp2694
g2690
aS'saywhat'
p2695
aS'isnt'
p2696
aS'that'
p2697
aS'bad'
p2698
aS'of'
p2699
ag26
aS'band'
p2700
ag18
asg19
(lp2701
g2695
ag2696
ag2697
ag2698
ag2699
ag26
ag2700
ag18
asba(iMeme
Meme
p2702
(dp2703
g3
(lp2704
S'raid'
p2705
aS'in'
p2706
aS'wyrmrest'
p2707
asg8
S'raid in wyrmrest'
p2708
sg10
S' entrance in cot.'
p2709
sg12
Vbill-o-reilly
p2710
sg14
(lp2711
g2705
ag2706
ag2707
aS'entrance'
p2712
aS'in'
p2713
aS'cot'
p2714
ag41
asg19
(lp2715
g2712
ag2713
ag2714
ag41
asba(iMeme
Meme
p2716
(dp2717
g3
(lp2718
S'when'
p2719
ag320
aS'unplug'
p2720
aS'my'
p2721
aS'wireless'
p2722
aS'printer'
p2723
aS'it'
p2724
aS'stops'
p2725
aS'working'
p2726
asg8
S'when i unplug my wireless printer it stops working'
p2727
sg10
S' you cant explain that'
p2728
sg12
Vbill-o-reilly
p2729
sg14
(lp2730
g2719
ag320
ag2720
ag2721
ag2722
ag2723
ag2724
ag2725
ag2726
aS'you'
p2731
aS'cant'
p2732
aS'explain'
p2733
aS'that'
p2734
asg19
(lp2735
g2731
ag2732
ag2733
ag2734
asba(iMeme
Meme
p2736
(dp2737
g3
(lp2738
S'when'
p2739
ag320
aS'unplug'
p2740
aS'my'
p2741
aS'wireless'
p2742
aS'printer'
p2743
aS'it'
p2744
aS'stops'
p2745
aS'working'
p2746
asg8
S'when i unplug my wireless printer it stops working'
p2747
sg10
S' you cant explain that'
p2748
sg12
Vbill-o-reilly
p2749
sg14
(lp2750
g2739
ag320
ag2740
ag2741
ag2742
ag2743
ag2744
ag2745
ag2746
aS'you'
p2751
aS'cant'
p2752
aS'explain'
p2753
aS'that'
p2754
asg19
(lp2755
g2751
ag2752
ag2753
ag2754
asba(iMeme
Meme
p2756
(dp2757
g3
(lp2758
S'holding'
p2759
aS'liquid'
p2760
aS'in'
p2761
ag26
aS'straw'
p2762
asg8
S'holding liquid in a straw'
p2763
sg10
S' you cant explain that'
p2764
sg12
Vbill-o-reilly
p2765
sg14
(lp2766
g2759
ag2760
ag2761
ag26
ag2762
aS'you'
p2767
aS'cant'
p2768
aS'explain'
p2769
aS'that'
p2770
asg19
(lp2771
g2767
ag2768
ag2769
ag2770
asba(iMeme
Meme
p2772
(dp2773
g3
(lp2774
S'suarez'
p2775
aS'still'
p2776
aS'gets'
p2777
aS'9'
p2778
aS'chemistry'
p2779
asg8
S'suarez still gets 9 chemistry'
p2780
sg10
S' you cant explain that'
p2781
sg12
Vbill-o-reilly
p2782
sg14
(lp2783
g2775
ag2776
ag2777
ag2778
ag2779
aS'you'
p2784
aS'cant'
p2785
aS'explain'
p2786
aS'that'
p2787
asg19
(lp2788
g2784
ag2785
ag2786
ag2787
asba(iMeme
Meme
p2789
(dp2790
g3
(lp2791
S'fb'
p2792
aS'chat'
p2793
aS'paradox'
p2794
asg8
S'fb chat paradox'
p2795
sg10
S' cant explain that'
p2796
sg12
Vbill-o-reilly
p2797
sg14
(lp2798
g2792
ag2793
ag2794
aS'cant'
p2799
aS'explain'
p2800
aS'that'
p2801
asg19
(lp2802
g2799
ag2800
ag2801
asba(iMeme
Meme
p2803
(dp2804
g3
(lp2805
S'nowadys'
p2806
ag41
asg8
S'nowadys .'
p2807
sg10
S' lame trolls r getting lots of likes'
p2808
sg12
Vbill-o-reilly
p2809
sg14
(lp2810
g2806
ag41
aS'lame'
p2811
aS'trolls'
p2812
aS'r'
p2813
aS'getting'
p2814
aS'lots'
p2815
aS'of'
p2816
aS'likes'
p2817
asg19
(lp2818
g2811
ag2812
ag2813
ag2814
ag2815
ag2816
ag2817
asba(iMeme
Meme
p2819
(dp2820
g3
(lp2821
S'farts'
p2822
aS'make'
p2823
aS'noise'
p2824
aS'and'
p2825
aS'they'
p2826
aS'smell'
p2827
asg8
S'farts make noise and they smell'
p2828
sg10
S' you cant explain that'
p2829
sg12
Vbill-o-reilly
p2830
sg14
(lp2831
g2822
ag2823
ag2824
ag2825
ag2826
ag2827
aS'you'
p2832
aS'cant'
p2833
aS'explain'
p2834
aS'that'
p2835
asg19
(lp2836
g2832
ag2833
ag2834
ag2835
asba(iMeme
Meme
p2837
(dp2838
g3
(lp2839
g2778
aS'year'
p2840
aS'old'
p2841
aS'injures'
p2842
aS'older'
p2843
aS'brother'
p2844
ag80
asg8
S'9 year old injures older brother?'
p2845
sg10
S' next on the factor!'
p2846
sg12
Vbill-o-reilly
p2847
sg14
(lp2848
g2778
ag2840
ag2841
ag2842
ag2843
ag2844
ag80
aS'next'
p2849
aS'on'
p2850
aS'the'
p2851
aS'factor'
p2852
ag18
asg19
(lp2853
g2849
ag2850
ag2851
ag2852
ag18
asba(iMeme
Meme
p2854
(dp2855
g3
(lp2856
S'general'
p2857
aS'kronk'
p2858
aS'is'
p2859
ag26
aS'captain'
p2860
asg8
S'general kronk is a captain'
p2861
sg10
S' you cant explain that'
p2862
sg12
Vbill-o-reilly
p2863
sg14
(lp2864
g2857
ag2858
ag2859
ag26
ag2860
aS'you'
p2865
aS'cant'
p2866
aS'explain'
p2867
aS'that'
p2868
asg19
(lp2869
g2865
ag2866
ag2867
ag2868
asba(iMeme
Meme
p2870
(dp2871
g3
(lp2872
S'analisa'
p2873
aS'dont'
p2874
aS'believe'
p2875
aS'me'
p2876
aS'when'
p2877
ag320
aS'tell'
p2878
aS'her'
p2879
aS'nathan'
p2880
aS'loves'
p2881
aS'her'
p2882
asg8
S'analisa dont believe me when i tell her nathan loves her'
p2883
sg10
S' cant explain that'
p2884
sg12
Vbill-o-reilly
p2885
sg14
(lp2886
g2873
ag2874
ag2875
ag2876
ag2877
ag320
ag2878
ag2879
ag2880
ag2881
ag2882
aS'cant'
p2887
aS'explain'
p2888
aS'that'
p2889
asg19
(lp2890
g2887
ag2888
ag2889
asba(iMeme
Meme
p2891
(dp2892
g3
(lp2893
S'ron'
p2894
aS'paul'
p2895
aS'is'
p2896
aS'unelectable'
p2897
asg8
S'ron paul is unelectable'
p2898
sg10
S' you cant explain that'
p2899
sg12
Vbill-o-reilly
p2900
sg14
(lp2901
g2894
ag2895
ag2896
ag2897
aS'you'
p2902
aS'cant'
p2903
aS'explain'
p2904
aS'that'
p2905
asg19
(lp2906
g2902
ag2903
ag2904
ag2905
asba(iMeme
Meme
p2907
(dp2908
g3
(lp2909
S'tide'
p2910
aS'goes'
p2911
aS'in'
p2912
asg8
S'tide goes in'
p2913
sg10
S' tide goes out'
p2914
sg12
Vbill-o-reilly
p2915
sg14
(lp2916
g2910
ag2911
ag2912
aS'tide'
p2917
aS'goes'
p2918
aS'out'
p2919
asg19
(lp2920
g2917
ag2918
ag2919
asba(iMeme
Meme
p2921
(dp2922
g3
(lp2923
S'tylers'
p2924
aS'stick'
p2925
aS'goes'
p2926
aS'in'
p2927
aS'cactus'
p2928
asg8
S'tylers stick goes in cactus'
p2929
sg10
S' holes cum out'
p2930
sg12
Vbill-o-reilly
p2931
sg14
(lp2932
g2924
ag2925
ag2926
ag2927
ag2928
aS'holes'
p2933
aS'cum'
p2934
aS'out'
p2935
asg19
(lp2936
g2933
ag2934
ag2935
asba(iMeme
Meme
p2937
(dp2938
g3
(lp2939
g26
aS'fish'
p2940
aS'that'
p2941
aS'is'
p2942
aS'sexy'
p2943
asg8
S'a fish that is sexy'
p2944
sg10
S' and breathes on land'
p2945
sg12
Vbill-o-reilly
p2946
sg14
(lp2947
g26
ag2940
ag2941
ag2942
ag2943
aS'and'
p2948
aS'breathes'
p2949
aS'on'
p2950
aS'land'
p2951
asg19
(lp2952
g2948
ag2949
ag2950
ag2951
asba(iMeme
Meme
p2953
(dp2954
g3
(lp2955
S'rainbows'
p2956
asg8
S'rainbows'
p2957
sg10
S' you cant explain that'
p2958
sg12
Vbill-o-reilly
p2959
sg14
(lp2960
g2956
aS'you'
p2961
aS'cant'
p2962
aS'explain'
p2963
aS'that'
p2964
asg19
(lp2965
g2961
ag2962
ag2963
ag2964
asba(iMeme
Meme
p2966
(dp2967
g3
(lp2968
S'zecora'
p2969
aS'isnt'
p2970
ag26
aS'unicorn'
p2971
asg8
S'zecora isnt a unicorn'
p2972
sg10
S' yet still does magic'
p2973
sg12
Vbill-o-reilly
p2974
sg14
(lp2975
g2969
ag2970
ag26
ag2971
aS'yet'
p2976
aS'still'
p2977
aS'does'
p2978
aS'magic'
p2979
asg19
(lp2980
g2976
ag2977
ag2978
ag2979
asba(iMeme
Meme
p2981
(dp2982
g3
(lp2983
S'commando'
p2984
aS'lunge'
p2985
aS'in'
p2986
aS'mw3'
p2987
asg8
S'commando lunge in mw3'
p2988
sg10
S' you cant explain that'
p2989
sg12
Vbill-o-reilly
p2990
sg14
(lp2991
g2984
ag2985
ag2986
ag2987
aS'you'
p2992
aS'cant'
p2993
aS'explain'
p2994
aS'that'
p2995
asg19
(lp2996
g2992
ag2993
ag2994
ag2995
asba(iMeme
Meme
p2997
(dp2998
g3
(lp2999
S'ib'
p3000
aS'physics'
p3001
ag80
asg8
S'ib physics?'
p3002
sg10
S' you cant explain that!'
p3003
sg12
Vbill-o-reilly
p3004
sg14
(lp3005
g3000
ag3001
ag80
aS'you'
p3006
aS'cant'
p3007
aS'explain'
p3008
aS'that'
p3009
ag18
asg19
(lp3010
g3006
ag3007
ag3008
ag3009
ag18
asba(iMeme
Meme
p3011
(dp3012
g3
(lp3013
S'grimm6jack'
p3014
aS'logic'
p3015
asg8
S'grimm6jack logic'
p3016
sg10
S' you cant explain that'
p3017
sg12
Vbill-o-reilly
p3018
sg14
(lp3019
g3014
ag3015
aS'you'
p3020
aS'cant'
p3021
aS'explain'
p3022
aS'that'
p3023
asg19
(lp3024
g3020
ag3021
ag3022
ag3023
asba(iMeme
Meme
p3025
(dp3026
g3
(lp3027
S'atheists'
p3028
aS'trying'
p3029
aS'to'
p3030
aS'explain'
p3031
aS'christianity'
p3032
asg8
S'atheists trying to explain christianity'
p3033
sg10
S' cant explain that'
p3034
sg12
Vbill-o-reilly
p3035
sg14
(lp3036
g3028
ag3029
ag3030
ag3031
ag3032
aS'cant'
p3037
aS'explain'
p3038
aS'that'
p3039
asg19
(lp3040
g3037
ag3038
ag3039
asba(iMeme
Meme
p3041
(dp3042
g3
(lp3043
S'beer'
p3044
aS'goes'
p3045
aS'in'
p3046
asg8
S'beer goes in'
p3047
sg10
S' puke comes out'
p3048
sg12
Vbill-o-reilly
p3049
sg14
(lp3050
g3044
ag3045
ag3046
aS'puke'
p3051
aS'comes'
p3052
aS'out'
p3053
asg19
(lp3054
g3051
ag3052
ag3053
asba(iMeme
Meme
p3055
(dp3056
g3
(lp3057
S'teleprompter'
p3058
aS'breaks'
p3059
ag80
asg8
S'teleprompter breaks?'
p3060
sg10
S' fuck it!'
p3061
sg12
Vbill-o-reilly
p3062
sg14
(lp3063
g3058
ag3059
ag80
aS'fuck'
p3064
aS'it'
p3065
ag18
asg19
(lp3066
g3064
ag3065
ag18
asba(iMeme
Meme
p3067
(dp3068
g3
(lp3069
S'my'
p3070
aS'lighter'
p3071
aS'is'
p3072
aS'stuck'
p3073
asg8
S'my lighter is stuck'
p3074
sg10
S' cant explain that'
p3075
sg12
Vbill-o-reilly
p3076
sg14
(lp3077
g3070
ag3071
ag3072
ag3073
aS'cant'
p3078
aS'explain'
p3079
aS'that'
p3080
asg19
(lp3081
g3078
ag3079
ag3080
asba(iMeme
Meme
p3082
(dp3083
g3
(lp3084
S'what'
p3085
aS'made'
p3086
aS'you'
p3087
aS'not'
p3088
aS'like'
p3089
aS'me'
p3090
aS'anymore'
p3091
asg8
S'what made you not like me anymore'
p3092
sg10
S' you cant explain that'
p3093
sg12
Vbill-o-reilly
p3094
sg14
(lp3095
g3085
ag3086
ag3087
ag3088
ag3089
ag3090
ag3091
aS'you'
p3096
aS'cant'
p3097
aS'explain'
p3098
aS'that'
p3099
asg19
(lp3100
g3096
ag3097
ag3098
ag3099
asba(iMeme
Meme
p3101
(dp3102
g3
(lp3103
S'obama'
p3104
aS'makes'
p3105
ag26
aS'typo'
p3106
asg8
S'obama makes a typo'
p3107
sg10
S' you cant explain that'
p3108
sg12
Vbill-o-reilly
p3109
sg14
(lp3110
g3104
ag3105
ag26
ag3106
aS'you'
p3111
aS'cant'
p3112
aS'explain'
p3113
aS'that'
p3114
asg19
(lp3115
g3111
ag3112
ag3113
ag3114
asba(iMeme
Meme
p3116
(dp3117
g3
(lp3118
S'anti'
p3119
aS'corporation'
p3120
aS'teenager'
p3121
aS'uses'
p3122
aS'ipod'
p3123
asg8
S'anti corporation teenager uses ipod'
p3124
sg10
S' mac'
p3125
sg12
Vbill-o-reilly
p3126
sg14
(lp3127
g3119
ag3120
ag3121
ag3122
ag3123
aS'mac'
p3128
asg19
(lp3129
g3128
asba(iMeme
Meme
p3130
(dp3131
g3
(lp3132
S'fuck'
p3133
aS'it'
p3134
asg8
S'fuck it'
p3135
sg10
S' we will do it live'
p3136
sg12
Vbill-o-reilly
p3137
sg14
(lp3138
g3133
ag3134
aS'we'
p3139
aS'will'
p3140
aS'do'
p3141
aS'it'
p3142
aS'live'
p3143
asg19
(lp3144
g3139
ag3140
ag3141
ag3142
ag3143
asba(iMeme
Meme
p3145
(dp3146
g3
(lp3147
S'should'
p3148
ag320
aS'order'
p3149
aS'tri'
p3150
aS'delt'
p3151
aS'tank'
p3152
ag80
asg8
S'should i order tri delt tank?'
p3153
sg10
S' well do it live'
p3154
sg12
Vbill-o-reilly
p3155
sg14
(lp3156
g3148
ag320
ag3149
ag3150
ag3151
ag3152
ag80
aS'well'
p3157
aS'do'
p3158
aS'it'
p3159
aS'live'
p3160
asg19
(lp3161
g3157
ag3158
ag3159
ag3160
asba(iMeme
Meme
p3162
(dp3163
g3
(lp3164
S'meme'
p3165
aS'on'
p3166
aS'your'
p3167
aS'door'
p3168
ag80
asg8
S'meme on your door?'
p3169
sg10
S' you cant explain that!'
p3170
sg12
Vbill-o-reilly
p3171
sg14
(lp3172
g3165
ag3166
ag3167
ag3168
ag80
aS'you'
p3173
aS'cant'
p3174
aS'explain'
p3175
aS'that'
p3176
ag18
asg19
(lp3177
g3173
ag3174
ag3175
ag3176
ag18
asba(iMeme
Meme
p3178
(dp3179
g3
(lp3180
S'fiji'
p3181
aS'merman'
p3182
ag80
asg8
S'fiji merman?'
p3183
sg10
S' you cant explain that!'
p3184
sg12
Vbill-o-reilly
p3185
sg14
(lp3186
g3181
ag3182
ag80
aS'you'
p3187
aS'cant'
p3188
aS'explain'
p3189
aS'that'
p3190
ag18
asg19
(lp3191
g3187
ag3188
ag3189
ag3190
ag18
asba(iMeme
Meme
p3192
(dp3193
g3
(lp3194
S'damn'
p3195
aS'aukou'
p3196
asg8
S'damn aukou'
p3197
sg10
S' kumo gang fuckeed you up'
p3198
sg12
Vbill-o-reilly
p3199
sg14
(lp3200
g3195
ag3196
aS'kumo'
p3201
aS'gang'
p3202
aS'fuckeed'
p3203
aS'you'
p3204
aS'up'
p3205
asg19
(lp3206
g3201
ag3202
ag3203
ag3204
ag3205
asba(iMeme
Meme
p3207
(dp3208
g3
(lp3209
S'people'
p3210
aS'ignore'
p3211
aS'katie'
p3212
ag80
asg8
S'people ignore katie?'
p3213
sg10
S' you cant explain that'
p3214
sg12
Vbill-o-reilly
p3215
sg14
(lp3216
g3210
ag3211
ag3212
ag80
aS'you'
p3217
aS'cant'
p3218
aS'explain'
p3219
aS'that'
p3220
asg19
(lp3221
g3217
ag3218
ag3219
ag3220
asba(iMeme
Meme
p3222
(dp3223
g3
(lp3224
S'23'
p3225
aS'gelato'
p3226
aS'shops'
p3227
ag80
asg8
S'23 gelato shops?'
p3228
sg10
S' you cant explain that'
p3229
sg12
Vbill-o-reilly
p3230
sg14
(lp3231
g3225
ag3226
ag3227
ag80
aS'you'
p3232
aS'cant'
p3233
aS'explain'
p3234
aS'that'
p3235
asg19
(lp3236
g3232
ag3233
ag3234
ag3235
asba(iMeme
Meme
p3237
(dp3238
g3
(lp3239
S'birthday'
p3240
aS'goes'
p3241
aS'down'
p3242
asg8
S'birthday goes down'
p3243
sg10
S' orangered comes up'
p3244
sg12
Vbill-o-reilly
p3245
sg14
(lp3246
g3240
ag3241
ag3242
aS'orangered'
p3247
aS'comes'
p3248
aS'up'
p3249
asg19
(lp3250
g3247
ag3248
ag3249
asba(iMeme
Meme
p3251
(dp3252
g3
(lp3253
S'avalanche'
p3254
aS'#'
p3255
ag655
aS'in'
p3256
aS'the'
p3257
aS'west'
p3258
ag80
asg8
S'avalanche #1 in the west?'
p3259
sg10
S' you cant explain that.'
p3260
sg12
Vbill-o-reilly
p3261
sg14
(lp3262
g3254
ag3255
ag655
ag3256
ag3257
ag3258
ag80
aS'you'
p3263
aS'cant'
p3264
aS'explain'
p3265
aS'that'
p3266
ag41
asg19
(lp3267
g3263
ag3264
ag3265
ag3266
ag41
asba(iMeme
Meme
p3268
(dp3269
g3
(lp3270
S'have'
p3271
aS'sex'
p3272
asg8
S'have sex'
p3273
sg10
S' get pregnant'
p3274
sg12
Vbill-o-reilly
p3275
sg14
(lp3276
g3271
ag3272
aS'get'
p3277
aS'pregnant'
p3278
asg19
(lp3279
g3277
ag3278
asba(iMeme
Meme
p3280
(dp3281
g3
(lp3282
S'why'
p3283
aS'cant'
p3284
aS'anything'
p3285
aS'be'
p3286
aS'easy'
p3287
ag80
asg8
S'why cant anything be easy?'
p3288
sg10
S' you cant explain that'
p3289
sg12
Vbill-o-reilly
p3290
sg14
(lp3291
g3283
ag3284
ag3285
ag3286
ag3287
ag80
aS'you'
p3292
aS'cant'
p3293
aS'explain'
p3294
aS'that'
p3295
asg19
(lp3296
g3292
ag3293
ag3294
ag3295
asba(iMeme
Meme
p3297
(dp3298
g3
(lp3299
S'technology'
p3300
asg8
S'technology'
p3301
sg10
S' you cant explain that.'
p3302
sg12
Vbill-o-reilly
p3303
sg14
(lp3304
g3300
aS'you'
p3305
aS'cant'
p3306
aS'explain'
p3307
aS'that'
p3308
ag41
asg19
(lp3309
g3305
ag3306
ag3307
ag3308
ag41
asba(iMeme
Meme
p3310
(dp3311
g3
(lp3312
S'well'
p3313
aS'do'
p3314
aS'it'
p3315
aS'live'
p3316
asg8
S'well do it live'
p3317
sg10
S' fuck it'
p3318
sg12
Vbill-o-reilly
p3319
sg14
(lp3320
g3313
ag3314
ag3315
ag3316
aS'fuck'
p3321
aS'it'
p3322
asg19
(lp3323
g3321
ag3322
asba(iMeme
Meme
p3324
(dp3325
g3
(lp3326
S'alch'
p3327
aS'skills'
p3328
aS'bugged'
p3329
asg8
S'alch skills bugged'
p3330
sg10
S' explain this bullshit'
p3331
sg12
Vbill-o-reilly
p3332
sg14
(lp3333
g3327
ag3328
ag3329
aS'explain'
p3334
aS'this'
p3335
aS'bullshit'
p3336
asg19
(lp3337
g3334
ag3335
ag3336
asba(iMeme
Meme
p3338
(dp3339
g3
(lp3340
S'cache'
p3341
aS'server'
p3342
aS'cpu'
p3343
aS'utilization'
p3344
asg8
S'cache server cpu utilization'
p3345
sg10
S' you cant explain that'
p3346
sg12
Vbill-o-reilly
p3347
sg14
(lp3348
g3341
ag3342
ag3343
ag3344
aS'you'
p3349
aS'cant'
p3350
aS'explain'
p3351
aS'that'
p3352
asg19
(lp3353
g3349
ag3350
ag3351
ag3352
asba(iMeme
Meme
p3354
(dp3355
g3
(lp3356
g320
aS'just'
p3357
aS'ate'
p3358
aS'my'
p3359
aS'own'
p3360
aS'shit'
p3361
aS'and'
p3362
aS'it'
p3363
aS'was'
p3364
asg8
S'i just ate my own shit and it was '
p3365
sg10
S' magnificent !'
p3366
sg12
Vbill-o-reilly
p3367
sg14
(lp3368
g320
ag3357
ag3358
ag3359
ag3360
ag3361
ag3362
ag3363
ag3364
aS'magnificent'
p3369
ag18
asg19
(lp3370
g3369
ag18
asba(iMeme
Meme
p3371
(dp3372
g3
(lp3373
S'in'
p3374
aS'one'
p3375
aS'your'
p3376
aS'burning'
p3377
aS'fuel'
p3378
aS'in'
p3379
aS'the'
p3380
aS'other'
p3381
aS'your'
p3382
aS'not'
p3383
asg8
S'in one your burning fuel in the other your not'
p3384
sg10
S' you cant you argue that'
p3385
sg12
Vbill-o-reilly
p3386
sg14
(lp3387
g3374
ag3375
ag3376
ag3377
ag3378
ag3379
ag3380
ag3381
ag3382
ag3383
aS'you'
p3388
aS'cant'
p3389
aS'you'
p3390
aS'argue'
p3391
aS'that'
p3392
asg19
(lp3393
g3388
ag3389
ag3390
ag3391
ag3392
asba(iMeme
Meme
p3394
(dp3395
g3
(lp3396
S'ron'
p3397
aS'paul'
p3398
aS'is'
p3399
aS'the'
p3400
aS'man'
p3401
asg8
S'ron paul is the man'
p3402
sg10
S' i am a cockroach'
p3403
sg12
Vbill-o-reilly
p3404
sg14
(lp3405
g3397
ag3398
ag3399
ag3400
ag3401
ag320
aS'am'
p3406
ag26
aS'cockroach'
p3407
asg19
(lp3408
g320
ag3406
ag26
ag3407
asba(iMeme
Meme
p3409
(dp3410
g3
(lp3411
S'darth'
p3412
aS'vader'
p3413
aS'in'
p3414
ag26
aS'kilt'
p3415
asg8
S'darth vader in a kilt'
p3416
sg10
S' on a unicycle playing bagpipes'
p3417
sg12
Vbill-o-reilly
p3418
sg14
(lp3419
g3412
ag3413
ag3414
ag26
ag3415
aS'on'
p3420
ag26
aS'unicycle'
p3421
aS'playing'
p3422
aS'bagpipes'
p3423
asg19
(lp3424
g3420
ag26
ag3421
ag3422
ag3423
asba(iMeme
Meme
p3425
(dp3426
g3
(lp3427
g3255
aS'18'
p3428
aS'qb'
p3429
aS'&'
p3430
ag3255
aS'32'
p3431
aS'wr'
p3432
aS'go'
p3433
aS'in'
p3434
asg8
S'#18 qb & #32 wr go in'
p3435
sg10
S' #1 qb & #3 wr come out'
p3436
sg12
Vbill-o-reilly
p3437
sg14
(lp3438
g3255
ag3428
ag3429
ag3430
ag3255
ag3431
ag3432
ag3433
ag3434
ag3255
ag655
aS'qb'
p3439
ag3430
ag3255
aS'3'
p3440
aS'wr'
p3441
aS'come'
p3442
aS'out'
p3443
asg19
(lp3444
g3255
ag655
ag3439
ag3430
ag3255
ag3440
ag3441
ag3442
ag3443
asba(iMeme
Meme
p3445
(dp3446
g3
(lp3447
S'sabrina'
p3448
aS'glenn'
p3449
aS'thinks'
p3450
aS'the'
p3451
aS'prototype'
p3452
aS'is'
p3453
aS'fully'
p3454
aS'designed'
p3455
asg8
S'sabrina glenn thinks the prototype is fully designed'
p3456
sg10
S' cant explain that'
p3457
sg12
Vbill-o-reilly
p3458
sg14
(lp3459
g3448
ag3449
ag3450
ag3451
ag3452
ag3453
ag3454
ag3455
aS'cant'
p3460
aS'explain'
p3461
aS'that'
p3462
asg19
(lp3463
g3460
ag3461
ag3462
asba(iMeme
Meme
p3464
(dp3465
g3
(lp3466
S'yell'
p3467
aS'for'
p3468
aS'sandwich'
p3469
aS'in'
p3470
aS'garage'
p3471
ag41
aS'sandwich'
p3472
aS'appears'
p3473
ag651
aS'min'
p3474
aS'later'
p3475
asg8
S'yell for sandwich in garage. sandwich appears 2 min later'
p3476
sg10
S' you cant explain that'
p3477
sg12
Vbill-o-reilly
p3478
sg14
(lp3479
g3467
ag3468
ag3469
ag3470
ag3471
ag41
ag3472
ag3473
ag651
ag3474
ag3475
aS'you'
p3480
aS'cant'
p3481
aS'explain'
p3482
aS'that'
p3483
asg19
(lp3484
g3480
ag3481
ag3482
ag3483
asba(iMeme
Meme
p3485
(dp3486
g3
(lp3487
S'yell'
p3488
aS'for'
p3489
aS'sandwich'
p3490
aS'in'
p3491
aS'garage'
p3492
ag41
aS'woman'
p3493
aS'brings'
p3494
aS'you'
p3495
aS'sandwich'
p3496
ag41
asg8
S'yell for sandwich in garage. woman brings you sandwich.'
p3497
sg10
S' you cant explain that.'
p3498
sg12
Vbill-o-reilly
p3499
sg14
(lp3500
g3488
ag3489
ag3490
ag3491
ag3492
ag41
ag3493
ag3494
ag3495
ag3496
ag41
aS'you'
p3501
aS'cant'
p3502
aS'explain'
p3503
aS'that'
p3504
ag41
asg19
(lp3505
g3501
ag3502
ag3503
ag3504
ag41
asba(iMeme
Meme
p3506
(dp3507
g3
(lp3508
S'shoes'
p3509
aS'come'
p3510
aS'untied'
p3511
ag80
asg8
S'shoes come untied?'
p3512
sg10
S' you cant explain that'
p3513
sg12
Vbill-o-reilly
p3514
sg14
(lp3515
g3509
ag3510
ag3511
ag80
aS'you'
p3516
aS'cant'
p3517
aS'explain'
p3518
aS'that'
p3519
asg19
(lp3520
g3516
ag3517
ag3518
ag3519
asba(iMeme
Meme
p3521
(dp3522
g3
(lp3523
S'give'
p3524
aS'epik'
p3525
aS'kfc'
p3526
asg8
S'give epik kfc'
p3527
sg10
S' acquire large amounts of rep'
p3528
sg12
Vbill-o-reilly
p3529
sg14
(lp3530
g3524
ag3525
ag3526
aS'acquire'
p3531
aS'large'
p3532
aS'amounts'
p3533
aS'of'
p3534
aS'rep'
p3535
asg19
(lp3536
g3531
ag3532
ag3533
ag3534
ag3535
asba(iMeme
Meme
p3537
(dp3538
g3
(lp3539
S'warden'
p3540
aS'goes'
p3541
aS'on'
p3542
asg8
S'warden goes on'
p3543
sg10
S' bot goes off'
p3544
sg12
Vbill-o-reilly
p3545
sg14
(lp3546
g3540
ag3541
ag3542
aS'bot'
p3547
aS'goes'
p3548
aS'off'
p3549
asg19
(lp3550
g3547
ag3548
ag3549
asba(iMeme
Meme
p3551
(dp3552
g3
(lp3553
S'hollow'
p3554
aS'sound'
p3555
aS'='
p3556
aS'batee5'
p3557
aS'tammam'
p3558
asg8
S'hollow sound = batee5 tammam'
p3559
sg10
S' you cant explain that'
p3560
sg12
Vbill-o-reilly
p3561
sg14
(lp3562
g3554
ag3555
ag3556
ag3557
ag3558
aS'you'
p3563
aS'cant'
p3564
aS'explain'
p3565
aS'that'
p3566
asg19
(lp3567
g3563
ag3564
ag3565
ag3566
asba(iMeme
Meme
p3568
(dp3569
g3
(lp3570
S'breaking'
p3571
aS'motherfucking'
p3572
aS'news'
p3573
asg8
S'breaking motherfucking news'
p3574
sg10
S' beth is over. no lie'
p3575
sg12
Vbill-o-reilly
p3576
sg14
(lp3577
g3571
ag3572
ag3573
aS'beth'
p3578
aS'is'
p3579
aS'over'
p3580
ag41
aS'no'
p3581
aS'lie'
p3582
asg19
(lp3583
g3578
ag3579
ag3580
ag41
ag3581
ag3582
asba(iMeme
Meme
p3584
(dp3585
g3
(lp3586
S'volcanoes'
p3587
aS'on'
p3588
aS'the'
p3589
aS'moon'
p3590
ag80
asg8
S'volcanoes on the moon?'
p3591
sg10
S' cant explain that!'
p3592
sg12
Vbill-o-reilly
p3593
sg14
(lp3594
g3587
ag3588
ag3589
ag3590
ag80
aS'cant'
p3595
aS'explain'
p3596
aS'that'
p3597
ag18
asg19
(lp3598
g3595
ag3596
ag3597
ag18
asba(iMeme
Meme
p3599
(dp3600
g3
(lp3601
S'fuck'
p3602
aS'it'
p3603
asg8
S'fuck it'
p3604
sg10
S' well do it local'
p3605
sg12
Vbill-o-reilly
p3606
sg14
(lp3607
g3602
ag3603
aS'well'
p3608
aS'do'
p3609
aS'it'
p3610
aS'local'
p3611
asg19
(lp3612
g3608
ag3609
ag3610
ag3611
asba(iMeme
Meme
p3613
(dp3614
g3
(lp3615
S'bachmann'
p3616
aS'bachmann'
p3617
asg8
S'bachmann bachmann'
p3618
sg10
S' perry perry (anyone but paul)'
p3619
sg12
Vbill-o-reilly
p3620
sg14
(lp3621
g3616
ag3617
aS'perry'
p3622
aS'perry'
p3623
aS'('
p3624
aS'anyone'
p3625
aS'but'
p3626
aS'paul'
p3627
aS')'
p3628
asg19
(lp3629
g3622
ag3623
ag3624
ag3625
ag3626
ag3627
ag3628
asba(iMeme
Meme
p3630
(dp3631
g3
(lp3632
S'you'
p3633
aS'my'
p3634
aS'friend'
p3635
asg8
S'you my friend'
p3636
sg10
S' cannot do it live'
p3637
sg12
Vbill-o-reilly
p3638
sg14
(lp3639
g3633
ag3634
ag3635
aS'can'
p3640
aS'not'
p3641
aS'do'
p3642
aS'it'
p3643
aS'live'
p3644
asg19
(lp3645
g3640
ag3641
ag3642
ag3643
ag3644
asba(iMeme
Meme
p3646
(dp3647
g3
(lp3648
S'occupiers'
p3649
ag80
asg8
S'occupiers?'
p3650
sg10
S' how bout i occupy your ass with my shoe?'
p3651
sg12
Vbill-o-reilly
p3652
sg14
(lp3653
g3649
ag80
aS'how'
p3654
aS'bout'
p3655
ag320
aS'occupy'
p3656
aS'your'
p3657
aS'ass'
p3658
aS'with'
p3659
aS'my'
p3660
aS'shoe'
p3661
ag80
asg19
(lp3662
g3654
ag3655
ag320
ag3656
ag3657
ag3658
ag3659
ag3660
ag3661
ag80
asba(iMeme
Meme
p3663
(dp3664
g3
(lp3665
S'chocolate'
p3666
aS'goes'
p3667
aS'in'
p3668
asg8
S'chocolate goes in'
p3669
sg10
S' blood comes out.'
p3670
sg12
Vbill-o-reilly
p3671
sg14
(lp3672
g3666
ag3667
ag3668
aS'blood'
p3673
aS'comes'
p3674
aS'out'
p3675
ag41
asg19
(lp3676
g3673
ag3674
ag3675
ag41
asba(iMeme
Meme
p3677
(dp3678
g3
(lp3679
S'homosexuality'
p3680
aS'is'
p3681
ag26
aS'learned'
p3682
aS'behavior'
p3683
asg8
S'homosexuality is a learned behavior'
p3684
sg10
S' you cant explain that'
p3685
sg12
Vbill-o-reilly
p3686
sg14
(lp3687
g3680
ag3681
ag26
ag3682
ag3683
aS'you'
p3688
aS'cant'
p3689
aS'explain'
p3690
aS'that'
p3691
asg19
(lp3692
g3688
ag3689
ag3690
ag3691
asba(iMeme
Meme
p3693
(dp3694
g3
(lp3695
S'england'
p3696
aS'is'
p3697
aS'next'
p3698
aS'to'
p3699
aS'europe'
p3700
asg8
S'england is next to europe'
p3701
sg10
S' you cant explain that'
p3702
sg12
Vbill-o-reilly
p3703
sg14
(lp3704
g3696
ag3697
ag3698
ag3699
ag3700
aS'you'
p3705
aS'cant'
p3706
aS'explain'
p3707
aS'that'
p3708
asg19
(lp3709
g3705
ag3706
ag3707
ag3708
asba(iMeme
Meme
p3710
(dp3711
g3
(lp3712
S'food'
p3713
aS'goes'
p3714
aS'in'
p3715
asg8
S'food goes in'
p3716
sg10
S' poop comes out'
p3717
sg12
Vbill-o-reilly
p3718
sg14
(lp3719
g3713
ag3714
ag3715
aS'poop'
p3720
aS'comes'
p3721
aS'out'
p3722
asg19
(lp3723
g3720
ag3721
ag3722
asba(iMeme
Meme
p3724
(dp3725
g3
(lp3726
S'bekar'
p3727
aS'page'
p3728
aS'ke'
p3729
aS'456'
p3730
aS'followers'
p3731
aS'hain'
p3732
asg8
S'bekar page ke 456 followers hain'
p3733
sg10
S' per comic pr like hotay hain do? ahhahaa'
p3734
sg12
Vbill-o-reilly
p3735
sg14
(lp3736
g3727
ag3728
ag3729
ag3730
ag3731
ag3732
aS'per'
p3737
aS'comic'
p3738
aS'pr'
p3739
aS'like'
p3740
aS'hotay'
p3741
aS'hain'
p3742
aS'do'
p3743
ag80
aS'ahhahaa'
p3744
asg19
(lp3745
g3737
ag3738
ag3739
ag3740
ag3741
ag3742
ag3743
ag80
ag3744
asba(iMeme
Meme
p3746
(dp3747
g3
(lp3748
S'wearing'
p3749
ag26
aS'jacket'
p3750
ag80
asg8
S'wearing a jacket?'
p3751
sg10
S' you cant explain that'
p3752
sg12
Vbill-o-reilly
p3753
sg14
(lp3754
g3749
ag26
ag3750
ag80
aS'you'
p3755
aS'cant'
p3756
aS'explain'
p3757
aS'that'
p3758
asg19
(lp3759
g3755
ag3756
ag3757
ag3758
asba(iMeme
Meme
p3760
(dp3761
g3
(lp3762
S'have'
p3763
ag26
aS'60'
p3764
aS'%'
p3765
aS'uncurved'
p3766
aS'test'
p3767
aS'average'
p3768
asg8
S'have a 60% uncurved test average'
p3769
sg10
S' still get an a in the class'
p3770
sg12
Vbill-o-reilly
p3771
sg14
(lp3772
g3763
ag26
ag3764
ag3765
ag3766
ag3767
ag3768
aS'still'
p3773
aS'get'
p3774
aS'an'
p3775
ag26
aS'in'
p3776
aS'the'
p3777
aS'class'
p3778
asg19
(lp3779
g3773
ag3774
ag3775
ag26
ag3776
ag3777
ag3778
asba(iMeme
Meme
p3780
(dp3781
g3
(lp3782
S'ordered'
p3783
aS'150'
p3784
aS'printers'
p3785
asg8
S'ordered 150 printers'
p3786
sg10
S' but not one display pole'
p3787
sg12
Vbill-o-reilly
p3788
sg14
(lp3789
g3783
ag3784
ag3785
aS'but'
p3790
aS'not'
p3791
aS'one'
p3792
aS'display'
p3793
aS'pole'
p3794
asg19
(lp3795
g3790
ag3791
ag3792
ag3793
ag3794
asba(iMeme
Meme
p3796
(dp3797
g3
(lp3798
S'youve'
p3799
ag26
aS'card'
p3800
aS'full'
p3801
aS'of'
p3802
aS'memes'
p3803
asg8
S'youve a card full of memes'
p3804
sg10
S' you cant explain that'
p3805
sg12
Vbill-o-reilly
p3806
sg14
(lp3807
g3799
ag26
ag3800
ag3801
ag3802
ag3803
aS'you'
p3808
aS'cant'
p3809
aS'explain'
p3810
aS'that'
p3811
asg19
(lp3812
g3808
ag3809
ag3810
ag3811
asba(iMeme
Meme
p3813
(dp3814
g3
(lp3815
S'the'
p3816
aS'only'
p3817
aS'thing'
p3818
aS'ive'
p3819
aS'ever'
p3820
aS'been'
p3821
aS'right'
p3822
aS'about'
p3823
asg8
S'the only thing ive ever been right about'
p3824
sg10
S' is ron paul'
p3825
sg12
Vbill-o-reilly
p3826
sg14
(lp3827
g3816
ag3817
ag3818
ag3819
ag3820
ag3821
ag3822
ag3823
aS'is'
p3828
aS'ron'
p3829
aS'paul'
p3830
asg19
(lp3831
g3828
ag3829
ag3830
asba(iMeme
Meme
p3832
(dp3833
g3
(lp3834
S'pedro'
p3835
aS'eats'
p3836
aS'the'
p3837
aS'casca'
p3838
aS'of'
p3839
aS'tremoco'
p3840
asg8
S'pedro eats the casca of tremoco'
p3841
sg10
S' you cant explain that'
p3842
sg12
Vbill-o-reilly
p3843
sg14
(lp3844
g3835
ag3836
ag3837
ag3838
ag3839
ag3840
aS'you'
p3845
aS'cant'
p3846
aS'explain'
p3847
aS'that'
p3848
asg19
(lp3849
g3845
ag3846
ag3847
ag3848
asba(iMeme
Meme
p3850
(dp3851
g3
(lp3852
S'whos'
p3853
aS'worse'
p3854
aS'than'
p3855
aS'me'
p3856
ag80
asg8
S'whos worse than me?'
p3857
sg10
S' ron paul'
p3858
sg12
Vbill-o-reilly
p3859
sg14
(lp3860
g3853
ag3854
ag3855
ag3856
ag80
aS'ron'
p3861
aS'paul'
p3862
asg19
(lp3863
g3861
ag3862
asba(iMeme
Meme
p3864
(dp3865
g3
(lp3866
S'jordan'
p3867
aS'says'
p3868
aS'porsche'
p3869
aS'should'
p3870
aS'lose'
p3871
aS'for'
p3872
aS'not'
p3873
aS'doing'
p3874
aS'anything'
p3875
aS'all'
p3876
aS'season'
p3877
asg8
S'jordan says porsche should lose for not doing anything all season'
p3878
sg10
S' you cant explain that'
p3879
sg12
Vbill-o-reilly
p3880
sg14
(lp3881
g3867
ag3868
ag3869
ag3870
ag3871
ag3872
ag3873
ag3874
ag3875
ag3876
ag3877
aS'you'
p3882
aS'cant'
p3883
aS'explain'
p3884
aS'that'
p3885
asg19
(lp3886
g3882
ag3883
ag3884
ag3885
asba(iMeme
Meme
p3887
(dp3888
g3
(lp3889
S'srm6'
p3890
aS'does'
p3891
aS'12'
p3892
aS'damage'
p3893
asg8
S'srm6 does 12 damage'
p3894
sg10
S' you cant explain that'
p3895
sg12
Vbill-o-reilly
p3896
sg14
(lp3897
g3890
ag3891
ag3892
ag3893
aS'you'
p3898
aS'cant'
p3899
aS'explain'
p3900
aS'that'
p3901
asg19
(lp3902
g3898
ag3899
ag3900
ag3901
asba(iMeme
Meme
p3903
(dp3904
g3
(lp3905
S'in'
p3906
aS'one'
p3907
aS'your'
p3908
aS'burning'
p3909
aS'fuel'
p3910
aS'in'
p3911
aS'the'
p3912
aS'other'
p3913
aS'your'
p3914
aS'not'
p3915
asg8
S'in one your burning fuel in the other your not'
p3916
sg10
S' you cant explain that'
p3917
sg12
Vbill-o-reilly
p3918
sg14
(lp3919
g3906
ag3907
ag3908
ag3909
ag3910
ag3911
ag3912
ag3913
ag3914
ag3915
aS'you'
p3920
aS'cant'
p3921
aS'explain'
p3922
aS'that'
p3923
asg19
(lp3924
g3920
ag3921
ag3922
ag3923
asba(iMeme
Meme
p3925
(dp3926
g3
(lp3927
S'gabi'
p3928
aS'hates'
p3929
aS'xbox'
p3930
ag80
asg8
S'gabi hates xbox?'
p3931
sg10
S' you cant explain that'
p3932
sg12
Vbill-o-reilly
p3933
sg14
(lp3934
g3928
ag3929
ag3930
ag80
aS'you'
p3935
aS'cant'
p3936
aS'explain'
p3937
aS'that'
p3938
asg19
(lp3939
g3935
ag3936
ag3937
ag3938
asba(iMeme
Meme
p3940
(dp3941
g3
(lp3942
S'the'
p3943
aS'brain'
p3944
aS'named'
p3945
aS'itself'
p3946
asg8
S'the brain named itself'
p3947
sg10
S' you cant explain that'
p3948
sg12
Vbill-o-reilly
p3949
sg14
(lp3950
g3943
ag3944
ag3945
ag3946
aS'you'
p3951
aS'cant'
p3952
aS'explain'
p3953
aS'that'
p3954
asg19
(lp3955
g3951
ag3952
ag3953
ag3954
asba(iMeme
Meme
p3956
(dp3957
g3
(lp3958
S'casey'
p3959
aS'anthony'
p3960
aS'not'
p3961
aS'guilty'
p3962
asg8
S'casey anthony not guilty'
p3963
sg10
S' you cant explain that'
p3964
sg12
Vbill-o-reilly
p3965
sg14
(lp3966
g3959
ag3960
ag3961
ag3962
aS'you'
p3967
aS'cant'
p3968
aS'explain'
p3969
aS'that'
p3970
asg19
(lp3971
g3967
ag3968
ag3969
ag3970
asba(iMeme
Meme
p3972
(dp3973
g3
(lp3974
S'youre'
p3975
aS'an'
p3976
aS'angel'
p3977
asg8
S'youre an angel'
p3978
sg10
S' so you dont lie?'
p3979
sg12
Vbill-o-reilly
p3980
sg14
(lp3981
g3975
ag3976
ag3977
aS'so'
p3982
aS'you'
p3983
aS'dont'
p3984
aS'lie'
p3985
ag80
asg19
(lp3986
g3982
ag3983
ag3984
ag3985
ag80
asba(iMeme
Meme
p3987
(dp3988
g3
(lp3989
S'walking'
p3990
aS'through'
p3991
aS'door'
p3992
aS'makes'
p3993
aS'you'
p3994
aS'forget'
p3995
aS'important'
p3996
aS'things'
p3997
asg8
S'walking through door makes you forget important things'
p3998
sg10
S' you cant explain that'
p3999
sg12
Vbill-o-reilly
p4000
sg14
(lp4001
g3990
ag3991
ag3992
ag3993
ag3994
ag3995
ag3996
ag3997
aS'you'
p4002
aS'cant'
p4003
aS'explain'
p4004
aS'that'
p4005
asg19
(lp4006
g4002
ag4003
ag4004
ag4005
asba(iMeme
Meme
p4007
(dp4008
g3
(lp4009
S'did'
p4010
aS'you'
p4011
asg8
S'did you'
p4012
sg10
S' just say obama?'
p4013
sg12
Vbill-o-reilly
p4014
sg14
(lp4015
g4010
ag4011
aS'just'
p4016
aS'say'
p4017
aS'obama'
p4018
ag80
asg19
(lp4019
g4016
ag4017
ag4018
ag80
asba(iMeme
Meme
p4020
(dp4021
g3
(lp4022
S'waters'
p4023
aS'taste'
p4024
asg8
S'waters taste'
p4025
sg10
S' you cant explain that'
p4026
sg12
Vbill-o-reilly
p4027
sg14
(lp4028
g4023
ag4024
aS'you'
p4029
aS'cant'
p4030
aS'explain'
p4031
aS'that'
p4032
asg19
(lp4033
g4029
ag4030
ag4031
ag4032
asba(iMeme
Meme
p4034
(dp4035
g3
(lp4036
S'parking'
p4037
aS'permit'
p4038
aS'prices'
p4039
aS'go'
p4040
aS'up'
p4041
asg8
S'parking permit prices go up'
p4042
sg10
S' but parking lots stay the same'
p4043
sg12
Vbill-o-reilly
p4044
sg14
(lp4045
g4037
ag4038
ag4039
ag4040
ag4041
aS'but'
p4046
aS'parking'
p4047
aS'lots'
p4048
aS'stay'
p4049
aS'the'
p4050
aS'same'
p4051
asg19
(lp4052
g4046
ag4047
ag4048
ag4049
ag4050
ag4051
asba(iMeme
Meme
p4053
(dp4054
g3
(lp4055
S'ron'
p4056
aS'paul'
p4057
aS'thinks'
p4058
aS'americans'
p4059
aS'deserve'
p4060
aS'to'
p4061
aS'be'
p4062
aS'free'
p4063
ag80
asg8
S'ron paul thinks americans deserve to be free?'
p4064
sg10
S' you cant explain that!'
p4065
sg12
Vbill-o-reilly
p4066
sg14
(lp4067
g4056
ag4057
ag4058
ag4059
ag4060
ag4061
ag4062
ag4063
ag80
aS'you'
p4068
aS'cant'
p4069
aS'explain'
p4070
aS'that'
p4071
ag18
asg19
(lp4072
g4068
ag4069
ag4070
ag4071
ag18
asba(iMeme
Meme
p4073
(dp4074
g3
(lp4075
S'j'
p4076
aS'building'
p4077
aS'smells'
p4078
aS'like'
p4079
aS'shit'
p4080
asg8
S'j building smells like shit'
p4081
sg10
S' you cant explain that!'
p4082
sg12
Vbill-o-reilly
p4083
sg14
(lp4084
g4076
ag4077
ag4078
ag4079
ag4080
aS'you'
p4085
aS'cant'
p4086
aS'explain'
p4087
aS'that'
p4088
ag18
asg19
(lp4089
g4085
ag4086
ag4087
ag4088
ag18
asba(iMeme
Meme
p4090
(dp4091
g3
(lp4092
S'in'
p4093
aS'one'
p4094
aS'your'
p4095
aS'burning'
p4096
aS'fuel'
p4097
aS'in'
p4098
aS'the'
p4099
aS'other'
p4100
aS'your'
p4101
aS'not'
p4102
asg8
S'in one your burning fuel in the other your not'
p4103
sg10
S' you cant argue that'
p4104
sg12
Vbill-o-reilly
p4105
sg14
(lp4106
g4093
ag4094
ag4095
ag4096
ag4097
ag4098
ag4099
ag4100
ag4101
ag4102
aS'you'
p4107
aS'cant'
p4108
aS'argue'
p4109
aS'that'
p4110
asg19
(lp4111
g4107
ag4108
ag4109
ag4110
asba(iMeme
Meme
p4112
(dp4113
g3
(lp4114
S'syndey'
p4115
aS'lomelino'
p4116
aS'has'
p4117
aS'friends'
p4118
ag80
asg8
S'syndey lomelino has friends ?'
p4119
sg10
S' you cant explain that !'
p4120
sg12
Vbill-o-reilly
p4121
sg14
(lp4122
g4115
ag4116
ag4117
ag4118
ag80
aS'you'
p4123
aS'cant'
p4124
aS'explain'
p4125
aS'that'
p4126
ag18
asg19
(lp4127
g4123
ag4124
ag4125
ag4126
ag18
asba(iMeme
Meme
p4128
(dp4129
g3
(lp4130
S'elderly'
p4131
aS'lecturer'
p4132
aS'cant'
p4133
aS'work'
p4134
aS'projector'
p4135
asg8
S'elderly lecturer cant work projector'
p4136
sg10
S' fuck it'
p4137
sg12
Vbill-o-reilly
p4138
sg14
(lp4139
g4131
ag4132
ag4133
ag4134
ag4135
aS'fuck'
p4140
aS'it'
p4141
asg19
(lp4142
g4140
ag4141
asba(iMeme
Meme
p4143
(dp4144
g3
(lp4145
S'the'
p4146
aS'creation'
p4147
aS'of'
p4148
aS'the'
p4149
aS'universe'
p4150
asg8
S'the creation of the universe'
p4151
sg10
S' you cant explain that'
p4152
sg12
Vbill-o-reilly
p4153
sg14
(lp4154
g4146
ag4147
ag4148
ag4149
ag4150
aS'you'
p4155
aS'cant'
p4156
aS'explain'
p4157
aS'that'
p4158
asg19
(lp4159
g4155
ag4156
ag4157
ag4158
asba(iMeme
Meme
p4160
(dp4161
g3
(lp4162
S'crying'
p4163
aS'over'
p4164
aS'things'
p4165
aS'on'
p4166
aS'the'
p4167
aS'internet'
p4168
ag80
asg8
S'crying over things on the internet?'
p4169
sg10
S' you cant explain that'
p4170
sg12
Vbill-o-reilly
p4171
sg14
(lp4172
g4163
ag4164
ag4165
ag4166
ag4167
ag4168
ag80
aS'you'
p4173
aS'cant'
p4174
aS'explain'
p4175
aS'that'
p4176
asg19
(lp4177
g4173
ag4174
ag4175
ag4176
asba(iMeme
Meme
p4178
(dp4179
g3
(lp4180
S'group'
p4181
aS'policy'
p4182
aS'is'
p4183
ag26
aS'joke'
p4184
asg8
S'group policy is a joke'
p4185
sg10
S' because i cant understand it'
p4186
sg12
Vbill-o-reilly
p4187
sg14
(lp4188
g4181
ag4182
ag4183
ag26
ag4184
aS'because'
p4189
ag320
aS'cant'
p4190
aS'understand'
p4191
aS'it'
p4192
asg19
(lp4193
g4189
ag320
ag4190
ag4191
ag4192
asba(iMeme
Meme
p4194
(dp4195
g3
(lp4196
S'9/11'
p4197
ag651
aS'planes'
p4198
aS'4'
p4199
aS'buildings'
p4200
aS'down'
p4201
asg8
S'9/11 2 planes 4 buildings down'
p4202
sg10
S' cant explain that'
p4203
sg12
Vbill-o-reilly
p4204
sg14
(lp4205
g4197
ag651
ag4198
ag4199
ag4200
ag4201
aS'cant'
p4206
aS'explain'
p4207
aS'that'
p4208
asg19
(lp4209
g4206
ag4207
ag4208
asba(iMeme
Meme
p4210
(dp4211
g3
(lp4212
S'hooven'
p4213
ag80
asg8
S'hooven?'
p4214
sg10
S' cant explain that!'
p4215
sg12
Vbill-o-reilly
p4216
sg14
(lp4217
g4213
ag80
aS'cant'
p4218
aS'explain'
p4219
aS'that'
p4220
ag18
asg19
(lp4221
g4218
ag4219
ag4220
ag18
asba(iMeme
Meme
p4222
(dp4223
g3
(lp4224
S'250dh'
p4225
aS'katba3'
p4226
aS'be'
p4227
aS'500dh'
p4228
asg8
S'250dh katba3 be 500dh'
p4229
sg10
S' you cant explain that!'
p4230
sg12
Vbill-o-reilly
p4231
sg14
(lp4232
g4225
ag4226
ag4227
ag4228
aS'you'
p4233
aS'cant'
p4234
aS'explain'
p4235
aS'that'
p4236
ag18
asg19
(lp4237
g4233
ag4234
ag4235
ag4236
ag18
asba(iMeme
Meme
p4238
(dp4239
g3
(lp4240
S'zakk'
p4241
aS'frahler'
p4242
asg8
S'zakk frahler'
p4243
sg10
S' thinks im too sexy for my tie'
p4244
sg12
Vbill-o-reilly
p4245
sg14
(lp4246
g4241
ag4242
aS'thinks'
p4247
aS'im'
p4248
aS'too'
p4249
aS'sexy'
p4250
aS'for'
p4251
aS'my'
p4252
aS'tie'
p4253
asg19
(lp4254
g4247
ag4248
ag4249
ag4250
ag4251
ag4252
ag4253
asba(iMeme
Meme
p4255
(dp4256
g3
(lp4257
S'trail'
p4258
aS'mix'
p4259
aS'goes'
p4260
aS'in'
p4261
asg8
S'trail mix goes in'
p4262
sg10
S' pinecone comes out'
p4263
sg12
Vbill-o-reilly
p4264
sg14
(lp4265
g4258
ag4259
ag4260
ag4261
aS'pinecone'
p4266
aS'comes'
p4267
aS'out'
p4268
asg19
(lp4269
g4266
ag4267
ag4268
asba(iMeme
Meme
p4270
(dp4271
g3
(lp4272
S'give'
p4273
aS'epik'
p4274
aS'rep'
p4275
asg8
S'give epik rep'
p4276
sg10
S' acquire large amounts of rep'
p4277
sg12
Vbill-o-reilly
p4278
sg14
(lp4279
g4273
ag4274
ag4275
aS'acquire'
p4280
aS'large'
p4281
aS'amounts'
p4282
aS'of'
p4283
aS'rep'
p4284
asg19
(lp4285
g4280
ag4281
ag4282
ag4283
ag4284
asba(iMeme
Meme
p4286
(dp4287
g3
(lp4288
S'kids'
p4289
aS'go'
p4290
aS'in'
p4291
aS'gods'
p4292
aS'come'
p4293
aS'out'
p4294
asg8
S'kids go in gods come out'
p4295
sg10
S' you cant explain that'
p4296
sg12
Vbill-o-reilly
p4297
sg14
(lp4298
g4289
ag4290
ag4291
ag4292
ag4293
ag4294
aS'you'
p4299
aS'cant'
p4300
aS'explain'
p4301
aS'that'
p4302
asg19
(lp4303
g4299
ag4300
ag4301
ag4302
asba(iMeme
Meme
p4304
(dp4305
g3
(lp4306
S'purchasing'
p4307
aS'power'
p4308
aS'goes'
p4309
aS'down'
p4310
asg8
S'purchasing power goes down'
p4311
sg10
S' wages stay the same'
p4312
sg12
Vbill-o-reilly
p4313
sg14
(lp4314
g4307
ag4308
ag4309
ag4310
aS'wages'
p4315
aS'stay'
p4316
aS'the'
p4317
aS'same'
p4318
asg19
(lp4319
g4315
ag4316
ag4317
ag4318
asba(iMeme
Meme
p4320
(dp4321
g3
(lp4322
S'won'
p4323
aS'the'
p4324
aS'raytheon'
p4325
aS'project'
p4326
asg8
S'won the raytheon project'
p4327
sg10
S' you cant explain that'
p4328
sg12
Vbill-o-reilly
p4329
sg14
(lp4330
g4323
ag4324
ag4325
ag4326
aS'you'
p4331
aS'cant'
p4332
aS'explain'
p4333
aS'that'
p4334
asg19
(lp4335
g4331
ag4332
ag4333
ag4334
asba(iMeme
Meme
p4336
(dp4337
g3
(lp4338
S'noras'
p4339
aS'missing'
p4340
ag80
asg8
S'noras missing?'
p4341
sg10
S' you cant explain that'
p4342
sg12
Vbill-o-reilly
p4343
sg14
(lp4344
g4339
ag4340
ag80
aS'you'
p4345
aS'cant'
p4346
aS'explain'
p4347
aS'that'
p4348
asg19
(lp4349
g4345
ag4346
ag4347
ag4348
asba(iMeme
Meme
p4350
(dp4351
g3
(lp4352
S'2+2=4'
p4353
asg8
S'2+2=4'
p4354
sg10
S' you cant explain that!'
p4355
sg12
Vbill-o-reilly
p4356
sg14
(lp4357
g4353
aS'you'
p4358
aS'cant'
p4359
aS'explain'
p4360
aS'that'
p4361
ag18
asg19
(lp4362
g4358
ag4359
ag4360
ag4361
ag18
asba(iMeme
Meme
p4363
(dp4364
g3
(lp4365
S'shit'
p4366
aS'goes'
p4367
aS'up'
p4368
aS'gravity'
p4369
aS'goes'
p4370
aS'down'
p4371
asg8
S'shit goes up gravity goes down'
p4372
sg10
S' you cant explain that'
p4373
sg12
Vbill-o-reilly
p4374
sg14
(lp4375
g4366
ag4367
ag4368
ag4369
ag4370
ag4371
aS'you'
p4376
aS'cant'
p4377
aS'explain'
p4378
aS'that'
p4379
asg19
(lp4380
g4376
ag4377
ag4378
ag4379
asba(iMeme
Meme
p4381
(dp4382
g3
(lp4383
S'group'
p4384
aS'policy'
p4385
aS'is'
p4386
ag26
aS'joke'
p4387
asg8
S'group policy is a joke'
p4388
sg10
S' because i cant understand it'
p4389
sg12
Vbill-o-reilly
p4390
sg14
(lp4391
g4384
ag4385
ag4386
ag26
ag4387
aS'because'
p4392
ag320
aS'cant'
p4393
aS'understand'
p4394
aS'it'
p4395
asg19
(lp4396
g4392
ag320
ag4393
ag4394
ag4395
asba(iMeme
Meme
p4397
(dp4398
g3
(lp4399
S'pepper'
p4400
aS'sprayed'
p4401
aS'at'
p4402
aS'uc'
p4403
aS'davis'
p4404
ag80
asg8
S'pepper sprayed at uc davis?'
p4405
sg10
S' we shouldnt second guess the police.'
p4406
sg12
Vbill-o-reilly
p4407
sg14
(lp4408
g4400
ag4401
ag4402
ag4403
ag4404
ag80
aS'we'
p4409
aS'shouldnt'
p4410
aS'second'
p4411
aS'guess'
p4412
aS'the'
p4413
aS'police'
p4414
ag41
asg19
(lp4415
g4409
ag4410
ag4411
ag4412
ag4413
ag4414
ag41
asba(iMeme
Meme
p4416
(dp4417
g3
(lp4418
S'gorilla'
p4419
aS'statue'
p4420
aS'in'
p4421
aS'front'
p4422
aS'of'
p4423
aS'campus'
p4424
asg8
S'gorilla statue in front of campus'
p4425
sg10
S' when our mascot is a hawk'
p4426
sg12
Vbill-o-reilly
p4427
sg14
(lp4428
g4419
ag4420
ag4421
ag4422
ag4423
ag4424
aS'when'
p4429
aS'our'
p4430
aS'mascot'
p4431
aS'is'
p4432
ag26
aS'hawk'
p4433
asg19
(lp4434
g4429
ag4430
ag4431
ag4432
ag26
ag4433
asba(iMeme
Meme
p4435
(dp4436
g3
(lp4437
S'tide'
p4438
aS'goes'
p4439
aS'in'
p4440
asg8
S'tide goes in'
p4441
sg10
S' laundry comes out'
p4442
sg12
Vbill-o-reilly
p4443
sg14
(lp4444
g4438
ag4439
ag4440
aS'laundry'
p4445
aS'comes'
p4446
aS'out'
p4447
asg19
(lp4448
g4445
ag4446
ag4447
asba(iMeme
Meme
p4449
(dp4450
g3
(lp4451
S'250dh'
p4452
aS'katba3'
p4453
aS'be'
p4454
aS'500dh'
p4455
asg8
S'250dh katba3 be 500dh'
p4456
sg10
S' you cant explain that!'
p4457
sg12
Vbill-o-reilly
p4458
sg14
(lp4459
g4452
ag4453
ag4454
ag4455
aS'you'
p4460
aS'cant'
p4461
aS'explain'
p4462
aS'that'
p4463
ag18
asg19
(lp4464
g4460
ag4461
ag4462
ag4463
ag18
asba(iMeme
Meme
p4465
(dp4466
g3
(lp4467
S'blood'
p4468
aS'drained'
p4469
ag3430
aS'crop'
p4470
aS'circles'
p4471
asg8
S'blood drained & crop circles'
p4472
sg10
S' you cant explain that'
p4473
sg12
Vbill-o-reilly
p4474
sg14
(lp4475
g4468
ag4469
ag3430
ag4470
ag4471
aS'you'
p4476
aS'cant'
p4477
aS'explain'
p4478
aS'that'
p4479
asg19
(lp4480
g4476
ag4477
ag4478
ag4479
asba(iMeme
Meme
p4481
(dp4482
g3
(lp4483
S'people'
p4484
aS'like'
p4485
aS'different'
p4486
aS'kinds'
p4487
aS'of'
p4488
aS'music'
p4489
ag41
asg8
S'people like different kinds of music.'
p4490
sg10
S' you cant explain that!'
p4491
sg12
Vbill-o-reilly
p4492
sg14
(lp4493
g4484
ag4485
ag4486
ag4487
ag4488
ag4489
ag41
aS'you'
p4494
aS'cant'
p4495
aS'explain'
p4496
aS'that'
p4497
ag18
asg19
(lp4498
g4494
ag4495
ag4496
ag4497
ag18
asba(iMeme
Meme
p4499
(dp4500
g3
(lp4501
S'lordzippy'
p4502
aS'is'
p4503
aS'an'
p4504
aS'idiot'
p4505
asg8
S'lordzippy is an idiot'
p4506
sg10
S' you cant explain that!'
p4507
sg12
Vbill-o-reilly
p4508
sg14
(lp4509
g4502
ag4503
ag4504
ag4505
aS'you'
p4510
aS'cant'
p4511
aS'explain'
p4512
aS'that'
p4513
ag18
asg19
(lp4514
g4510
ag4511
ag4512
ag4513
ag18
asba(iMeme
Meme
p4515
(dp4516
g3
(lp4517
S'unexplainable'
p4518
ag80
asg8
S'unexplainable?'
p4519
sg10
S' you cant explain that!'
p4520
sg12
Vbill-o-reilly
p4521
sg14
(lp4522
g4518
ag80
aS'you'
p4523
aS'cant'
p4524
aS'explain'
p4525
aS'that'
p4526
ag18
asg19
(lp4527
g4523
ag4524
ag4525
ag4526
ag18
asba(iMeme
Meme
p4528
(dp4529
g3
(lp4530
S'carbon'
p4531
aS'dating'
p4532
asg8
S'carbon dating'
p4533
sg10
S' you cant explain that!'
p4534
sg12
Vbill-o-reilly
p4535
sg14
(lp4536
g4531
ag4532
aS'you'
p4537
aS'cant'
p4538
aS'explain'
p4539
aS'that'
p4540
ag18
asg19
(lp4541
g4537
ag4538
ag4539
ag4540
ag18
asba(iMeme
Meme
p4542
(dp4543
g3
(lp4544
S'you'
p4545
aS'forget'
p4546
aS'subject'
p4547
aS'after'
p4548
aS'the'
p4549
aS'final'
p4550
asg8
S'you forget subject after the final'
p4551
sg10
S' you cant explain that'
p4552
sg12
Vbill-o-reilly
p4553
sg14
(lp4554
g4545
ag4546
ag4547
ag4548
ag4549
ag4550
aS'you'
p4555
aS'cant'
p4556
aS'explain'
p4557
aS'that'
p4558
asg19
(lp4559
g4555
ag4556
ag4557
ag4558
asba(iMeme
Meme
p4560
(dp4561
g3
(lp4562
S'frog'
p4563
aS'posts'
p4564
aS'cat'
p4565
asg8
S'frog posts cat'
p4566
sg10
S' you cant explain that'
p4567
sg12
Vbill-o-reilly
p4568
sg14
(lp4569
g4563
ag4564
ag4565
aS'you'
p4570
aS'cant'
p4571
aS'explain'
p4572
aS'that'
p4573
asg19
(lp4574
g4570
ag4571
ag4572
ag4573
asba(iMeme
Meme
p4575
(dp4576
g3
(lp4577
S'eric'
p4578
aS'eifrid'
p4579
aS'has'
p4580
aS'friends'
p4581
ag18
asg8
S'eric eifrid has friends!'
p4582
sg10
S' you cant explain that!'
p4583
sg12
Vbill-o-reilly
p4584
sg14
(lp4585
g4578
ag4579
ag4580
ag4581
ag18
aS'you'
p4586
aS'cant'
p4587
aS'explain'
p4588
aS'that'
p4589
ag18
asg19
(lp4590
g4586
ag4587
ag4588
ag4589
ag18
asba(iMeme
Meme
p4591
(dp4592
g3
(lp4593
S'hollow'
p4594
aS'sound'
p4595
ag3556
aS'fol'
p4596
aS'tammam'
p4597
asg8
S'hollow sound = fol tammam'
p4598
sg10
S' you cant explain that'
p4599
sg12
Vbill-o-reilly
p4600
sg14
(lp4601
g4594
ag4595
ag3556
ag4596
ag4597
aS'you'
p4602
aS'cant'
p4603
aS'explain'
p4604
aS'that'
p4605
asg19
(lp4606
g4602
ag4603
ag4604
ag4605
asba(iMeme
Meme
p4607
(dp4608
g3
(lp4609
g26
aS'woman'
p4610
aS'dining'
p4611
aS'on'
p4612
ag26
aS'rolls'
p4613
aS'at'
p4614
aS'the'
p4615
aS'bottom'
p4616
aS'of'
p4617
aS'the'
p4618
aS'sea'
p4619
ag80
asg8
S'a woman dining on a rolls at the bottom of the sea?'
p4620
sg10
S' you cant explain that!'
p4621
sg12
Vbill-o-reilly
p4622
sg14
(lp4623
g26
ag4610
ag4611
ag4612
ag26
ag4613
ag4614
ag4615
ag4616
ag4617
ag4618
ag4619
ag80
aS'you'
p4624
aS'cant'
p4625
aS'explain'
p4626
aS'that'
p4627
ag18
asg19
(lp4628
g4624
ag4625
ag4626
ag4627
ag18
asba(iMeme
Meme
p4629
(dp4630
g3
(lp4631
S'outstanding'
p4632
aS'faggots'
p4633
ag80
asg8
S'outstanding faggots?'
p4634
sg10
S' you cant explain that'
p4635
sg12
Vbill-o-reilly
p4636
sg14
(lp4637
g4632
ag4633
ag80
aS'you'
p4638
aS'cant'
p4639
aS'explain'
p4640
aS'that'
p4641
asg19
(lp4642
g4638
ag4639
ag4640
ag4641
asba(iMeme
Meme
p4643
(dp4644
g3
(lp4645
S'outstanding'
p4646
aS'faggots'
p4647
ag80
asg8
S'outstanding faggots?'
p4648
sg10
S' you cant explain that'
p4649
sg12
Vbill-o-reilly
p4650
sg14
(lp4651
g4646
ag4647
ag80
aS'you'
p4652
aS'cant'
p4653
aS'explain'
p4654
aS'that'
p4655
asg19
(lp4656
g4652
ag4653
ag4654
ag4655
asba(iMeme
Meme
p4657
(dp4658
g3
(lp4659
S'youre'
p4660
aS'beating'
p4661
aS'me'
p4662
aS'in'
p4663
aS'an'
p4664
aS'argument'
p4665
ag80
asg8
S'youre beating me in an argument?'
p4666
sg10
S' thats funny'
p4667
sg12
Vbill-o-reilly
p4668
sg14
(lp4669
g4660
ag4661
ag4662
ag4663
ag4664
ag4665
ag80
aS'thats'
p4670
aS'funny'
p4671
asg19
(lp4672
g4670
ag4671
asba(iMeme
Meme
p4673
(dp4674
g3
(lp4675
S'so'
p4676
aS'you'
p4677
aS'say'
p4678
aS'im'
p4679
asg8
S'so you say im'
p4680
sg10
S' gay ha?'
p4681
sg12
Vbill-o-reilly
p4682
sg14
(lp4683
g4676
ag4677
ag4678
ag4679
aS'gay'
p4684
aS'ha'
p4685
ag80
asg19
(lp4686
g4684
ag4685
ag80
asba(iMeme
Meme
p4687
(dp4688
g3
(lp4689
S'people'
p4690
aS'refer'
p4691
aS'to'
p4692
aS'their'
p4693
aS'favorite'
p4694
aS'sports'
p4695
aS'team'
p4696
aS'as'
p4697
aS'we'
p4698
asg8
S'people refer to their favorite sports team as we'
p4699
sg10
S' you cant explain that'
p4700
sg12
Vbill-o-reilly
p4701
sg14
(lp4702
g4690
ag4691
ag4692
ag4693
ag4694
ag4695
ag4696
ag4697
ag4698
aS'you'
p4703
aS'cant'
p4704
aS'explain'
p4705
aS'that'
p4706
asg19
(lp4707
g4703
ag4704
ag4705
ag4706
asba(iMeme
Meme
p4708
(dp4709
g3
(lp4710
S'losing'
p4711
aS'your'
p4712
aS'virginity'
p4713
aS'on'
p4714
aS'the'
p4715
aS'bathroom'
p4716
aS'floor'
p4717
asg8
S'losing your virginity on the bathroom floor'
p4718
sg10
S' you cant explain that!'
p4719
sg12
Vbill-o-reilly
p4720
sg14
(lp4721
g4711
ag4712
ag4713
ag4714
ag4715
ag4716
ag4717
aS'you'
p4722
aS'cant'
p4723
aS'explain'
p4724
aS'that'
p4725
ag18
asg19
(lp4726
g4722
ag4723
ag4724
ag4725
ag18
asba(iMeme
Meme
p4727
(dp4728
g3
(lp4729
S'rand'
p4730
aS'paul'
p4731
aS'yall'
p4732
asg8
S'rand paul yall'
p4733
sg10
S' you cant explain that'
p4734
sg12
Vbill-o-reilly
p4735
sg14
(lp4736
g4730
ag4731
ag4732
aS'you'
p4737
aS'cant'
p4738
aS'explain'
p4739
aS'that'
p4740
asg19
(lp4741
g4737
ag4738
ag4739
ag4740
asba(iMeme
Meme
p4742
(dp4743
g3
(lp4744
S'my'
p4745
aS'apologies'
p4746
aS'to'
p4747
aS'ron'
p4748
aS'paul'
p4749
asg8
S'my apologies to ron paul'
p4750
sg10
S' you won the poll fairly'
p4751
sg12
Vbill-o-reilly
p4752
sg14
(lp4753
g4745
ag4746
ag4747
ag4748
ag4749
aS'you'
p4754
aS'won'
p4755
aS'the'
p4756
aS'poll'
p4757
aS'fairly'
p4758
asg19
(lp4759
g4754
ag4755
ag4756
ag4757
ag4758
asba(iMeme
Meme
p4760
(dp4761
g3
(lp4762
S'the'
p4763
aS'humor'
p4764
aS'in'
p4765
aS'these'
p4766
aS'pictures'
p4767
ag80
asg8
S'the humor in these pictures?'
p4768
sg10
S' cant explain that!'
p4769
sg12
Vbill-o-reilly
p4770
sg14
(lp4771
g4763
ag4764
ag4765
ag4766
ag4767
ag80
aS'cant'
p4772
aS'explain'
p4773
aS'that'
p4774
ag18
asg19
(lp4775
g4772
ag4773
ag4774
ag18
asba(iMeme
Meme
p4776
(dp4777
g3
(lp4778
S'birthday'
p4779
aS'goes'
p4780
aS'down'
p4781
asg8
S'birthday goes down'
p4782
sg10
S' orangered comes up'
p4783
sg12
Vbill-o-reilly
p4784
sg14
(lp4785
g4779
ag4780
ag4781
aS'orangered'
p4786
aS'comes'
p4787
aS'up'
p4788
asg19
(lp4789
g4786
ag4787
ag4788
asba(iMeme
Meme
p4790
(dp4791
g3
(lp4792
S'toast'
p4793
asg8
S'toast'
p4794
sg10
S' cant explain that'
p4795
sg12
Vbill-o-reilly
p4796
sg14
(lp4797
g4793
aS'cant'
p4798
aS'explain'
p4799
aS'that'
p4800
asg19
(lp4801
g4798
ag4799
ag4800
asba(iMeme
Meme
p4802
(dp4803
g3
(lp4804
S'wavelet'
p4805
aS'trees'
p4806
ag80
asg8
S'wavelet trees?'
p4807
sg10
S' you cant explain that'
p4808
sg12
Vbill-o-reilly
p4809
sg14
(lp4810
g4805
ag4806
ag80
aS'you'
p4811
aS'cant'
p4812
aS'explain'
p4813
aS'that'
p4814
asg19
(lp4815
g4811
ag4812
ag4813
ag4814
asba(iMeme
Meme
p4816
(dp4817
g3
(lp4818
S'congress'
p4819
aS'voting'
p4820
aS'for'
p4821
aS'something'
p4822
aS'against'
p4823
aS'the'
p4824
aS'constitution'
p4825
asg8
S'congress voting for something against the constitution'
p4826
sg10
S' you cant explain that'
p4827
sg12
Vbill-o-reilly
p4828
sg14
(lp4829
g4819
ag4820
ag4821
ag4822
ag4823
ag4824
ag4825
aS'you'
p4830
aS'cant'
p4831
aS'explain'
p4832
aS'that'
p4833
asg19
(lp4834
g4830
ag4831
ag4832
ag4833
asba(iMeme
Meme
p4835
(dp4836
g3
(lp4837
S'2.5'
p4838
aS'parsecs'
p4839
aS'is'
p4840
ag26
aS'distance'
p4841
aS'not'
p4842
ag26
aS'duration'
p4843
asg8
S'2.5 parsecs is a distance not a duration'
p4844
sg10
S' you cant explain that'
p4845
sg12
Vbill-o-reilly
p4846
sg14
(lp4847
g4838
ag4839
ag4840
ag26
ag4841
ag4842
ag26
ag4843
aS'you'
p4848
aS'cant'
p4849
aS'explain'
p4850
aS'that'
p4851
asg19
(lp4852
g4848
ag4849
ag4850
ag4851
asba(iMeme
Meme
p4853
(dp4854
g3
(lp4855
S'hand'
p4856
aS'goes'
p4857
aS'in'
p4858
asg8
S'hand goes in'
p4859
sg10
S' harassment suit comes out'
p4860
sg12
Vbill-o-reilly
p4861
sg14
(lp4862
g4856
ag4857
ag4858
aS'harassment'
p4863
aS'suit'
p4864
aS'comes'
p4865
aS'out'
p4866
asg19
(lp4867
g4863
ag4864
ag4865
ag4866
asba(iMeme
Meme
p4868
(dp4869
g3
(lp4870
S'pretzels'
p4871
aS'got'
p4872
aS'stale'
p4873
ag80
asg8
S'pretzels got stale?'
p4874
sg10
S' you cant explain that!'
p4875
sg12
Vbill-o-reilly
p4876
sg14
(lp4877
g4871
ag4872
ag4873
ag80
aS'you'
p4878
aS'cant'
p4879
aS'explain'
p4880
aS'that'
p4881
ag18
asg19
(lp4882
g4878
ag4879
ag4880
ag4881
ag18
asba(iMeme
Meme
p4883
(dp4884
g3
(lp4885
S'robin'
p4886
aS'has'
p4887
aS'36'
p4888
aS'waist'
p4889
asg8
S'robin has 36 waist'
p4890
sg10
S' i have a 33'
p4891
sg12
Vbill-o-reilly
p4892
sg14
(lp4893
g4886
ag4887
ag4888
ag4889
ag320
aS'have'
p4894
ag26
aS'33'
p4895
asg19
(lp4896
g320
ag4894
ag26
ag4895
asba(iMeme
Meme
p4897
(dp4898
g3
(lp4899
S'god'
p4900
asg8
S'god'
p4901
sg10
S' cant explain that.'
p4902
sg12
Vbill-o-reilly
p4903
sg14
(lp4904
g4900
aS'cant'
p4905
aS'explain'
p4906
aS'that'
p4907
ag41
asg19
(lp4908
g4905
ag4906
ag4907
ag41
asba(iMeme
Meme
p4909
(dp4910
g3
(lp4911
S'scoop'
p4912
aS'on'
p4913
aS'top'
p4914
asg8
S'scoop on top'
p4915
sg10
S' you cant explain that'
p4916
sg12
Vbill-o-reilly
p4917
sg14
(lp4918
g4912
ag4913
ag4914
aS'you'
p4919
aS'cant'
p4920
aS'explain'
p4921
aS'that'
p4922
asg19
(lp4923
g4919
ag4920
ag4921
ag4922
asba(iMeme
Meme
p4924
(dp4925
g3
(lp4926
S'thats'
p4927
aS'bad'
p4928
aS'theology'
p4929
asg8
S'thats bad theology'
p4930
sg10
S' you cant explain that'
p4931
sg12
Vbill-o-reilly
p4932
sg14
(lp4933
g4927
ag4928
ag4929
aS'you'
p4934
aS'cant'
p4935
aS'explain'
p4936
aS'that'
p4937
asg19
(lp4938
g4934
ag4935
ag4936
ag4937
asba(iMeme
Meme
p4939
(dp4940
g3
(lp4941
S'yes'
p4942
asg8
S'yes'
p4943
sg10
S' i blow ken ashburn every night'
p4944
sg12
Vbill-o-reilly
p4945
sg14
(lp4946
g4942
ag320
aS'blow'
p4947
aS'ken'
p4948
aS'ashburn'
p4949
aS'every'
p4950
aS'night'
p4951
asg19
(lp4952
g320
ag4947
ag4948
ag4949
ag4950
ag4951
asba(iMeme
Meme
p4953
(dp4954
g3
(lp4955
S'put'
p4956
aS'dishes'
p4957
aS'on'
p4958
aS'belt'
p4959
aS';'
p4960
aS'clean'
p4961
aS'ones'
p4962
aS'come'
p4963
aS'out'
p4964
asg8
S'put dishes on belt; clean ones come out'
p4965
sg10
S' you cant explain that'
p4966
sg12
Vbill-o-reilly
p4967
sg14
(lp4968
g4956
ag4957
ag4958
ag4959
ag4960
ag4961
ag4962
ag4963
ag4964
aS'you'
p4969
aS'cant'
p4970
aS'explain'
p4971
aS'that'
p4972
asg19
(lp4973
g4969
ag4970
ag4971
ag4972
asba(iMeme
Meme
p4974
(dp4975
g3
(lp4976
S'commons'
p4977
aS'pizza'
p4978
asg8
S'commons pizza'
p4979
sg10
S' you cant explain that'
p4980
sg12
Vbill-o-reilly
p4981
sg14
(lp4982
g4977
ag4978
aS'you'
p4983
aS'cant'
p4984
aS'explain'
p4985
aS'that'
p4986
asg19
(lp4987
g4983
ag4984
ag4985
ag4986
asba(iMeme
Meme
p4988
(dp4989
g3
(lp4990
S'kids'
p4991
aS'love'
p4992
aS'the'
p4993
aS'taste'
p4994
aS'of'
p4995
aS'cinnamon'
p4996
aS'toast'
p4997
aS'crunch'
p4998
asg8
S'kids love the taste of cinnamon toast crunch'
p4999
sg10
S' you cant explain that'
p5000
sg12
Vbill-o-reilly
p5001
sg14
(lp5002
g4991
ag4992
ag4993
ag4994
ag4995
ag4996
ag4997
ag4998
aS'you'
p5003
aS'cant'
p5004
aS'explain'
p5005
aS'that'
p5006
asg19
(lp5007
g5003
ag5004
ag5005
ag5006
asba(iMeme
Meme
p5008
(dp5009
g3
(lp5010
S'day'
p5011
aS'and'
p5012
aS'night'
p5013
asg8
S'day and night'
p5014
sg10
S' you cant explain that'
p5015
sg12
Vbill-o-reilly
p5016
sg14
(lp5017
g5011
ag5012
ag5013
aS'you'
p5018
aS'cant'
p5019
aS'explain'
p5020
aS'that'
p5021
asg19
(lp5022
g5018
ag5019
ag5020
ag5021
asba(iMeme
Meme
p5023
(dp5024
g3
(lp5025
S'funny'
p5026
aS'thread'
p5027
aS'that'
p5028
aS'jsp'
p5029
aS'mods'
p5030
aS'havent'
p5031
aS'closed'
p5032
asg8
S'funny thread that jsp mods havent closed'
p5033
sg10
S' you cant explain that'
p5034
sg12
Vbill-o-reilly
p5035
sg14
(lp5036
g5026
ag5027
ag5028
ag5029
ag5030
ag5031
ag5032
aS'you'
p5037
aS'cant'
p5038
aS'explain'
p5039
aS'that'
p5040
asg19
(lp5041
g5037
ag5038
ag5039
ag5040
asba(iMeme
Meme
p5042
(dp5043
g3
(lp5044
S'when'
p5045
ag320
aS'close'
p5046
aS'the'
p5047
aS'refrigerator'
p5048
aS'door'
p5049
asg8
S'when i close the refrigerator door'
p5050
sg10
S' the little light goes off.'
p5051
sg12
Vbill-o-reilly
p5052
sg14
(lp5053
g5045
ag320
ag5046
ag5047
ag5048
ag5049
aS'the'
p5054
aS'little'
p5055
aS'light'
p5056
aS'goes'
p5057
aS'off'
p5058
ag41
asg19
(lp5059
g5054
ag5055
ag5056
ag5057
ag5058
ag41
asba(iMeme
Meme
p5060
(dp5061
g3
(lp5062
S'do'
p5063
ag320
aS'loke'
p5064
aS'like'
p5065
asg8
S'do i loke like'
p5066
sg10
S' i give a fuck?'
p5067
sg12
Vbill-o-reilly
p5068
sg14
(lp5069
g5063
ag320
ag5064
ag5065
ag320
aS'give'
p5070
ag26
aS'fuck'
p5071
ag80
asg19
(lp5072
g320
ag5070
ag26
ag5071
ag80
asba(iMeme
Meme
p5073
(dp5074
g3
(lp5075
S'did'
p5076
aS'you'
p5077
aS'know'
p5078
asg8
S'did you know'
p5079
sg10
S' i smear felafels on my genitals'
p5080
sg12
Vbill-o-reilly
p5081
sg14
(lp5082
g5076
ag5077
ag5078
ag320
aS'smear'
p5083
aS'felafels'
p5084
aS'on'
p5085
aS'my'
p5086
aS'genitals'
p5087
asg19
(lp5088
g320
ag5083
ag5084
ag5085
ag5086
ag5087
asba(iMeme
Meme
p5089
(dp5090
g3
(lp5091
S'fire'
p5092
aS'lancer'
p5093
aS'and'
p5094
aS'ammo'
p5095
aS'never'
p5096
aS'runs'
p5097
aS'out'
p5098
asg8
S'fire lancer and ammo never runs out'
p5099
sg10
S' you cant explain that'
p5100
sg12
Vbill-o-reilly
p5101
sg14
(lp5102
g5092
ag5093
ag5094
ag5095
ag5096
ag5097
ag5098
aS'you'
p5103
aS'cant'
p5104
aS'explain'
p5105
aS'that'
p5106
asg19
(lp5107
g5103
ag5104
ag5105
ag5106
asba(iMeme
Meme
p5108
(dp5109
g3
(lp5110
S'people'
p5111
aS'cant'
p5112
aS'spend'
p5113
aS'thier'
p5114
aS'way'
p5115
aS'out'
p5116
aS'of'
p5117
aS'debt'
p5118
asg8
S'people cant spend thier way out of debt'
p5119
sg10
S' government can'
p5120
sg12
Vbill-o-reilly
p5121
sg14
(lp5122
g5111
ag5112
ag5113
ag5114
ag5115
ag5116
ag5117
ag5118
aS'government'
p5123
aS'can'
p5124
asg19
(lp5125
g5123
ag5124
asba(iMeme
Meme
p5126
(dp5127
g3
(lp5128
S'people'
p5129
aS'cant'
p5130
aS'spend'
p5131
aS'thier'
p5132
aS'way'
p5133
aS'out'
p5134
aS'of'
p5135
aS'debt'
p5136
asg8
S'people cant spend thier way out of debt'
p5137
sg10
S' government can'
p5138
sg12
Vbill-o-reilly
p5139
sg14
(lp5140
g5129
ag5130
ag5131
ag5132
ag5133
ag5134
ag5135
ag5136
aS'government'
p5141
aS'can'
p5142
asg19
(lp5143
g5141
ag5142
asba(iMeme
Meme
p5144
(dp5145
g3
(lp5146
S'bills'
p5147
aS'go'
p5148
aS'out'
p5149
asg8
S'bills go out'
p5150
sg10
S' money comes in'
p5151
sg12
Vbill-o-reilly
p5152
sg14
(lp5153
g5147
ag5148
ag5149
aS'money'
p5154
aS'comes'
p5155
aS'in'
p5156
asg19
(lp5157
g5154
ag5155
ag5156
asba(iMeme
Meme
p5158
(dp5159
g3
(lp5160
S'the'
p5161
aS'r.u'
p5162
ag41
aS'screw'
p5163
ag80
asg8
S'the r.u. screw?'
p5164
sg10
S' you cant explain that!'
p5165
sg12
Vbill-o-reilly
p5166
sg14
(lp5167
g5161
ag5162
ag41
ag5163
ag80
aS'you'
p5168
aS'cant'
p5169
aS'explain'
p5170
aS'that'
p5171
ag18
asg19
(lp5172
g5168
ag5169
ag5170
ag5171
ag18
asba(iMeme
Meme
p5173
(dp5174
g3
(lp5175
S'its'
p5176
ag26
aS'usb'
p5177
aS'port'
p5178
aS'and'
p5179
aS'esata'
p5180
aS'port'
p5181
asg8
S'its a usb port and esata port'
p5182
sg10
S' you cant explain that'
p5183
sg12
Vbill-o-reilly
p5184
sg14
(lp5185
g5176
ag26
ag5177
ag5178
ag5179
ag5180
ag5181
aS'you'
p5186
aS'cant'
p5187
aS'explain'
p5188
aS'that'
p5189
asg19
(lp5190
g5186
ag5187
ag5188
ag5189
asba(iMeme
Meme
p5191
(dp5192
g3
(lp5193
S'tom'
p5194
aS'flash'
p5195
aS'now'
p5196
aS'on'
p5197
aS'itunes'
p5198
ag80
asg8
S'tom flash now on itunes?'
p5199
sg10
S' you should see them do it live'
p5200
sg12
Vbill-o-reilly
p5201
sg14
(lp5202
g5194
ag5195
ag5196
ag5197
ag5198
ag80
aS'you'
p5203
aS'should'
p5204
aS'see'
p5205
aS'them'
p5206
aS'do'
p5207
aS'it'
p5208
aS'live'
p5209
asg19
(lp5210
g5203
ag5204
ag5205
ag5206
ag5207
ag5208
ag5209
asba(iMeme
Meme
p5211
(dp5212
g3
(lp5213
S'keelan'
p5214
aS'is'
p5215
ag26
aS'male'
p5216
ag80
asg8
S'keelan is a male?'
p5217
sg10
S' cant explain that'
p5218
sg12
Vbill-o-reilly
p5219
sg14
(lp5220
g5214
ag5215
ag26
ag5216
ag80
aS'cant'
p5221
aS'explain'
p5222
aS'that'
p5223
asg19
(lp5224
g5221
ag5222
ag5223
asba(iMeme
Meme
p5225
(dp5226
g3
(lp5227
S'see'
p5228
aS'atlanta'
p5229
aS'cop'
p5230
aS'enforcing'
p5231
aS'traffic'
p5232
aS'laws'
p5233
asg8
S'see atlanta cop enforcing traffic laws'
p5234
sg10
S' you cant explain that.'
p5235
sg12
Vbill-o-reilly
p5236
sg14
(lp5237
g5228
ag5229
ag5230
ag5231
ag5232
ag5233
aS'you'
p5238
aS'cant'
p5239
aS'explain'
p5240
aS'that'
p5241
ag41
asg19
(lp5242
g5238
ag5239
ag5240
ag5241
ag41
asba(iMeme
Meme
p5243
(dp5244
g3
(lp5245
S'give'
p5246
aS'epik'
p5247
aS'awards'
p5248
asg8
S'give epik awards'
p5249
sg10
S' acquire large amounts of rep'
p5250
sg12
Vbill-o-reilly
p5251
sg14
(lp5252
g5246
ag5247
ag5248
aS'acquire'
p5253
aS'large'
p5254
aS'amounts'
p5255
aS'of'
p5256
aS'rep'
p5257
asg19
(lp5258
g5253
ag5254
ag5255
ag5256
ag5257
asba(iMeme
Meme
p5259
(dp5260
g3
(lp5261
S'bill'
p5262
aS'and'
p5263
aS'hillary'
p5264
aS'procreated'
p5265
asg8
S'bill and hillary procreated'
p5266
sg10
S' you cant explain that!'
p5267
sg12
Vbill-o-reilly
p5268
sg14
(lp5269
g5262
ag5263
ag5264
ag5265
aS'you'
p5270
aS'cant'
p5271
aS'explain'
p5272
aS'that'
p5273
ag18
asg19
(lp5274
g5270
ag5271
ag5272
ag5273
ag18
asba(iMeme
Meme
p5275
(dp5276
g3
(lp5277
S'complains'
p5278
aS'about'
p5279
aS'not'
p5280
aS'getting'
p5281
aS'frontpage'
p5282
asg8
S'complains about not getting frontpage'
p5283
sg10
g1198
sg12
Vbill-o-reilly
p5284
sg14
(lp5285
g5278
ag5279
ag5280
ag5281
ag5282
asg19
(lp5286
sba(iMeme
Meme
p5287
(dp5288
g3
(lp5289
S'go'
p5290
aS'to'
p5291
aS'atlanta'
p5292
asg8
S'go to atlanta'
p5293
sg10
S' come back with beard'
p5294
sg12
Vbill-o-reilly
p5295
sg14
(lp5296
g5290
ag5291
ag5292
aS'come'
p5297
aS'back'
p5298
aS'with'
p5299
aS'beard'
p5300
asg19
(lp5301
g5297
ag5298
ag5299
ag5300
asba(iMeme
Meme
p5302
(dp5303
g3
(lp5304
S'forgot'
p5305
aS'password'
p5306
aS'link'
p5307
aS'to'
p5308
aS'different'
p5309
aS'user'
p5310
asg8
S'forgot password link to different user'
p5311
sg10
S' you cant explain that'
p5312
sg12
Vbill-o-reilly
p5313
sg14
(lp5314
g5305
ag5306
ag5307
ag5308
ag5309
ag5310
aS'you'
p5315
aS'cant'
p5316
aS'explain'
p5317
aS'that'
p5318
asg19
(lp5319
g5315
ag5316
ag5317
ag5318
asba(iMeme
Meme
p5320
(dp5321
g3
(lp5322
S'teddy'
p5323
aS'always'
p5324
aS'wins'
p5325
asg8
S'teddy always wins'
p5326
sg10
S' you cant explain that'
p5327
sg12
Vbill-o-reilly
p5328
sg14
(lp5329
g5323
ag5324
ag5325
aS'you'
p5330
aS'cant'
p5331
aS'explain'
p5332
aS'that'
p5333
asg19
(lp5334
g5330
ag5331
ag5332
ag5333
asba(iMeme
Meme
p5335
(dp5336
g3
(lp5337
S'new'
p5338
aS'facebook'
p5339
aS'profile'
p5340
aS'alan'
p5341
aS'watson'
p5342
asg8
S'new facebook profile alan watson'
p5343
sg10
S' sounds like fun'
p5344
sg12
Vbill-o-reilly
p5345
sg14
(lp5346
g5338
ag5339
ag5340
ag5341
ag5342
aS'sounds'
p5347
aS'like'
p5348
aS'fun'
p5349
asg19
(lp5350
g5347
ag5348
ag5349
asba(iMeme
Meme
p5351
(dp5352
g3
(lp5353
S'zack'
p5354
aS'doesnt'
p5355
aS'see'
p5356
aS'the'
p5357
aS'mole'
p5358
aS'on'
p5359
aS'obamas'
p5360
aS'nose'
p5361
asg8
S'zack doesnt see the mole on obamas nose'
p5362
sg10
S' cant explain that'
p5363
sg12
Vbill-o-reilly
p5364
sg14
(lp5365
g5354
ag5355
ag5356
ag5357
ag5358
ag5359
ag5360
ag5361
aS'cant'
p5366
aS'explain'
p5367
aS'that'
p5368
asg19
(lp5369
g5366
ag5367
ag5368
asba(iMeme
Meme
p5370
(dp5371
g3
(lp5372
S'rib'
p5373
aS'goes'
p5374
aS'in'
p5375
asg8
S'rib goes in'
p5376
sg10
S' rib ges out'
p5377
sg12
Vbill-o-reilly
p5378
sg14
(lp5379
g5373
ag5374
ag5375
aS'rib'
p5380
aS'ges'
p5381
aS'out'
p5382
asg19
(lp5383
g5380
ag5381
ag5382
asba(iMeme
Meme
p5384
(dp5385
g3
(lp5386
S'complains'
p5387
aS'about'
p5388
aS'not'
p5389
aS'getting'
p5390
aS'frontpage'
p5391
asg8
S'complains about not getting frontpage'
p5392
sg10
g1198
sg12
Vbill-o-reilly
p5393
sg14
(lp5394
g5387
ag5388
ag5389
ag5390
ag5391
asg19
(lp5395
sba(iMeme
Meme
p5396
(dp5397
g3
(lp5398
S'forgot'
p5399
aS'password'
p5400
aS'link'
p5401
aS'to'
p5402
aS'different'
p5403
aS'user'
p5404
asg8
S'forgot password link to different user'
p5405
sg10
S' you cant explain that'
p5406
sg12
Vbill-o-reilly
p5407
sg14
(lp5408
g5399
ag5400
ag5401
ag5402
ag5403
ag5404
aS'you'
p5409
aS'cant'
p5410
aS'explain'
p5411
aS'that'
p5412
asg19
(lp5413
g5409
ag5410
ag5411
ag5412
asba(iMeme
Meme
p5414
(dp5415
g3
(lp5416
S'give'
p5417
aS'epik'
p5418
aS'two'
p5419
aS'fucks'
p5420
asg8
S'give epik two fucks'
p5421
sg10
S' acquire large amounts of rep'
p5422
sg12
Vbill-o-reilly
p5423
sg14
(lp5424
g5417
ag5418
ag5419
ag5420
aS'acquire'
p5425
aS'large'
p5426
aS'amounts'
p5427
aS'of'
p5428
aS'rep'
p5429
asg19
(lp5430
g5425
ag5426
ag5427
ag5428
ag5429
asba(iMeme
Meme
p5431
(dp5432
g3
(lp5433
S'chandler'
p5434
asg8
S'chandler'
p5435
sg10
S' you cant explain it'
p5436
sg12
Vbill-o-reilly
p5437
sg14
(lp5438
g5434
aS'you'
p5439
aS'cant'
p5440
aS'explain'
p5441
aS'it'
p5442
asg19
(lp5443
g5439
ag5440
ag5441
ag5442
asba(iMeme
Meme
p5444
(dp5445
g3
(lp5446
S'zack'
p5447
aS'doesnt'
p5448
aS'see'
p5449
aS'the'
p5450
aS'mole'
p5451
aS'on'
p5452
aS'obamas'
p5453
aS'nose'
p5454
asg8
S'zack doesnt see the mole on obamas nose'
p5455
sg10
S' cant explain that'
p5456
sg12
Vbill-o-reilly
p5457
sg14
(lp5458
g5447
ag5448
ag5449
ag5450
ag5451
ag5452
ag5453
ag5454
aS'cant'
p5459
aS'explain'
p5460
aS'that'
p5461
asg19
(lp5462
g5459
ag5460
ag5461
asba(iMeme
Meme
p5463
(dp5464
g3
(lp5465
S'try'
p5466
aS'to'
p5467
aS'look'
p5468
aS'nice'
p5469
aS'for'
p5470
aS'girlfriend'
p5471
ag80
asg8
S'try to look nice for girlfriend?'
p5472
sg10
S' fuck it'
p5473
sg12
Vbill-o-reilly
p5474
sg14
(lp5475
g5466
ag5467
ag5468
ag5469
ag5470
ag5471
ag80
aS'fuck'
p5476
aS'it'
p5477
asg19
(lp5478
g5476
ag5477
asba(iMeme
Meme
p5479
(dp5480
g3
(lp5481
S'people'
p5482
aS'block'
p5483
aS'you'
p5484
ag80
asg8
S'people block you?'
p5485
sg10
S' you cant explain that'
p5486
sg12
Vbill-o-reilly
p5487
sg14
(lp5488
g5482
ag5483
ag5484
ag80
aS'you'
p5489
aS'cant'
p5490
aS'explain'
p5491
aS'that'
p5492
asg19
(lp5493
g5489
ag5490
ag5491
ag5492
asba(iMeme
Meme
p5494
(dp5495
g3
(lp5496
S'why'
p5497
aS'would'
p5498
ag320
aS'work'
p5499
aS'with'
p5500
aS'jorge'
p5501
ag18
ag80
ag18
ag80
asg8
S'why would i work with jorge!?!?'
p5502
sg10
S' hes just going to fire me and tell me im basic'
p5503
sg12
Vbill-o-reilly
p5504
sg14
(lp5505
g5497
ag5498
ag320
ag5499
ag5500
ag5501
ag18
ag80
ag18
ag80
aS'hes'
p5506
aS'just'
p5507
aS'going'
p5508
aS'to'
p5509
aS'fire'
p5510
aS'me'
p5511
aS'and'
p5512
aS'tell'
p5513
aS'me'
p5514
aS'im'
p5515
aS'basic'
p5516
asg19
(lp5517
g5506
ag5507
ag5508
ag5509
ag5510
ag5511
ag5512
ag5513
ag5514
ag5515
ag5516
asba(iMeme
Meme
p5518
(dp5519
g3
(lp5520
S'instruments'
p5521
asg8
S'instruments'
p5522
sg10
S' you cant explain that'
p5523
sg12
Vbill-o-reilly
p5524
sg14
(lp5525
g5521
aS'you'
p5526
aS'cant'
p5527
aS'explain'
p5528
aS'that'
p5529
asg19
(lp5530
g5526
ag5527
ag5528
ag5529
asba(iMeme
Meme
p5531
(dp5532
g3
(lp5533
S'kyles'
p5534
aS'server'
p5535
aS'keeps'
p5536
aS'on'
p5537
aS'going'
p5538
asg8
S'kyles server keeps on going'
p5539
sg10
S' you cant explain that'
p5540
sg12
Vbill-o-reilly
p5541
sg14
(lp5542
g5534
ag5535
ag5536
ag5537
ag5538
aS'you'
p5543
aS'cant'
p5544
aS'explain'
p5545
aS'that'
p5546
asg19
(lp5547
g5543
ag5544
ag5545
ag5546
asba(iMeme
Meme
p5548
(dp5549
g3
(lp5550
S'toedick'
p5551
ag41
asg8
S'toedick.'
p5552
sg10
S' you cant explain that.'
p5553
sg12
Vbill-o-reilly
p5554
sg14
(lp5555
g5551
ag41
aS'you'
p5556
aS'cant'
p5557
aS'explain'
p5558
aS'that'
p5559
ag41
asg19
(lp5560
g5556
ag5557
ag5558
ag5559
ag41
asba(iMeme
Meme
p5561
(dp5562
g3
(lp5563
S'darth'
p5564
aS'vader'
p5565
aS'in'
p5566
ag26
aS'kilt'
p5567
asg8
S'darth vader in a kilt'
p5568
sg10
S' on a unicycle playing bagpipes'
p5569
sg12
Vbill-o-reilly
p5570
sg14
(lp5571
g5564
ag5565
ag5566
ag26
ag5567
aS'on'
p5572
ag26
aS'unicycle'
p5573
aS'playing'
p5574
aS'bagpipes'
p5575
asg19
(lp5576
g5572
ag26
ag5573
ag5574
ag5575
asba(iMeme
Meme
p5577
(dp5578
g3
(lp5579
S'lights'
p5580
aS'go'
p5581
aS'on'
p5582
asg8
S'lights go on'
p5583
sg10
S' lights go off'
p5584
sg12
Vbill-o-reilly
p5585
sg14
(lp5586
g5580
ag5581
ag5582
aS'lights'
p5587
aS'go'
p5588
aS'off'
p5589
asg19
(lp5590
g5587
ag5588
ag5589
asba(iMeme
Meme
p5591
(dp5592
g3
(lp5593
S'with'
p5594
ag26
aS'4sk'
p5595
aS'it'
p5596
aS'is'
p5597
aS'more'
p5598
aS'like'
p5599
aS'5/6'
p5600
aS'shots'
p5601
aS'to'
p5602
aS'die'
p5603
ag41
asg8
S'with a 4sk it is more like 5/6 shots to die.'
p5604
sg10
S' you cant explain that'
p5605
sg12
Vbill-o-reilly
p5606
sg14
(lp5607
g5594
ag26
ag5595
ag5596
ag5597
ag5598
ag5599
ag5600
ag5601
ag5602
ag5603
ag41
aS'you'
p5608
aS'cant'
p5609
aS'explain'
p5610
aS'that'
p5611
asg19
(lp5612
g5608
ag5609
ag5610
ag5611
asba(iMeme
Meme
p5613
(dp5614
g3
(lp5615
S'my'
p5616
aS'facebook'
p5617
aS'friend'
p5618
aS'is'
p5619
aS'lionel'
p5620
aS'ritchie'
p5621
asg8
S'my facebook friend is lionel ritchie'
p5622
sg10
S' you cant explain that !'
p5623
sg12
Vbill-o-reilly
p5624
sg14
(lp5625
g5616
ag5617
ag5618
ag5619
ag5620
ag5621
aS'you'
p5626
aS'cant'
p5627
aS'explain'
p5628
aS'that'
p5629
ag18
asg19
(lp5630
g5626
ag5627
ag5628
ag5629
ag18
asba(iMeme
Meme
p5631
(dp5632
g3
(lp5633
S'stop'
p5634
aS'at'
p5635
aS'nothing'
p5636
ag80
asg8
S'stop at nothing?'
p5637
sg10
S' you cant explain that!'
p5638
sg12
Vbill-o-reilly
p5639
sg14
(lp5640
g5634
ag5635
ag5636
ag80
aS'you'
p5641
aS'cant'
p5642
aS'explain'
p5643
aS'that'
p5644
ag18
asg19
(lp5645
g5641
ag5642
ag5643
ag5644
ag18
asba(iMeme
Meme
p5646
(dp5647
g3
(lp5648
S'he'
p5649
aS'threatens'
p5650
aS'her'
p5651
aS'mom'
p5652
aS'but'
p5653
aS'not'
p5654
aS'her'
p5655
asg8
S'he threatens her mom but not her'
p5656
sg10
S' you cant explain that'
p5657
sg12
Vbill-o-reilly
p5658
sg14
(lp5659
g5649
ag5650
ag5651
ag5652
ag5653
ag5654
ag5655
aS'you'
p5660
aS'cant'
p5661
aS'explain'
p5662
aS'that'
p5663
asg19
(lp5664
g5660
ag5661
ag5662
ag5663
asba(iMeme
Meme
p5665
(dp5666
g3
(lp5667
S'do'
p5668
ag320
aS'look'
p5669
aS'like'
p5670
asg8
S'do i look like'
p5671
sg10
S' i give a fuck?'
p5672
sg12
Vbill-o-reilly
p5673
sg14
(lp5674
g5668
ag320
ag5669
ag5670
ag320
aS'give'
p5675
ag26
aS'fuck'
p5676
ag80
asg19
(lp5677
g320
ag5675
ag26
ag5676
ag80
asba(iMeme
Meme
p5678
(dp5679
g3
(lp5680
S'ski'
p5681
aS'lift'
p5682
aS'is'
p5683
aS'full'
p5684
aS'going'
p5685
aS'up'
p5686
asg8
S'ski lift is full going up'
p5687
sg10
S' empty coming down'
p5688
sg12
Vbill-o-reilly
p5689
sg14
(lp5690
g5681
ag5682
ag5683
ag5684
ag5685
ag5686
aS'empty'
p5691
aS'coming'
p5692
aS'down'
p5693
asg19
(lp5694
g5691
ag5692
ag5693
asba(iMeme
Meme
p5695
(dp5696
g3
(lp5697
S'20'
p5698
aS'degrees'
p5699
aS'in'
p5700
aS'november'
p5701
asg8
S'20 degrees in november'
p5702
sg10
S' 50 degrees in january'
p5703
sg12
Vbill-o-reilly
p5704
sg14
(lp5705
g5698
ag5699
ag5700
ag5701
aS'50'
p5706
aS'degrees'
p5707
aS'in'
p5708
aS'january'
p5709
asg19
(lp5710
g5706
ag5707
ag5708
ag5709
asba(iMeme
Meme
p5711
(dp5712
g3
(lp5713
S'faster'
p5714
aS'to'
p5715
aS'take'
p5716
aS'six'
p5717
aS'flights'
p5718
aS'of'
p5719
aS'stairs'
p5720
aS'than'
p5721
aS'to'
p5722
aS'take'
p5723
aS'elevator'
p5724
asg8
S'faster to take six flights of stairs than to take elevator'
p5725
sg10
S' you cant explain that'
p5726
sg12
Vbill-o-reilly
p5727
sg14
(lp5728
g5714
ag5715
ag5716
ag5717
ag5718
ag5719
ag5720
ag5721
ag5722
ag5723
ag5724
aS'you'
p5729
aS'cant'
p5730
aS'explain'
p5731
aS'that'
p5732
asg19
(lp5733
g5729
ag5730
ag5731
ag5732
asba(iMeme
Meme
p5734
(dp5735
g3
(lp5736
S'nhar'
p5737
aS'li'
p5738
aS'omar'
p5739
aS'chad'
p5740
aS'blassa'
p5741
aS'l9adam'
p5742
aS'l'
p5743
aS'prof'
p5744
aS'majach'
p5745
asg8
S'nhar li omar chad blassa l9adam l prof majach'
p5746
sg10
S' you cant explain that'
p5747
sg12
Vbill-o-reilly
p5748
sg14
(lp5749
g5737
ag5738
ag5739
ag5740
ag5741
ag5742
ag5743
ag5744
ag5745
aS'you'
p5750
aS'cant'
p5751
aS'explain'
p5752
aS'that'
p5753
asg19
(lp5754
g5750
ag5751
ag5752
ag5753
asba(iMeme
Meme
p5755
(dp5756
g3
(lp5757
S'tacos'
p5758
asg8
S'tacos'
p5759
sg10
S' you cant explain that'
p5760
sg12
Vbill-o-reilly
p5761
sg14
(lp5762
g5758
aS'you'
p5763
aS'cant'
p5764
aS'explain'
p5765
aS'that'
p5766
asg19
(lp5767
g5763
ag5764
ag5765
ag5766
asba(iMeme
Meme
p5768
(dp5769
g3
(lp5770
S'in'
p5771
aS'ue'
p5772
aS'drinking'
p5773
aS'water'
p5774
aS'cant'
p5775
aS'prevent'
p5776
aS'from'
p5777
aS'dehydration'
p5778
asg8
S'in ue drinking water cant prevent from dehydration'
p5779
sg10
S' you cant explain that'
p5780
sg12
Vbill-o-reilly
p5781
sg14
(lp5782
g5771
ag5772
ag5773
ag5774
ag5775
ag5776
ag5777
ag5778
aS'you'
p5783
aS'cant'
p5784
aS'explain'
p5785
aS'that'
p5786
asg19
(lp5787
g5783
ag5784
ag5785
ag5786
asba(iMeme
Meme
p5788
(dp5789
g3
(lp5790
S'my'
p5791
aS'faceboo'
p5792
aS'friend'
p5793
aS'is'
p5794
aS'lionel'
p5795
aS'ritchie'
p5796
asg8
S'my faceboo friend is lionel ritchie'
p5797
sg10
S' you cant explain that !'
p5798
sg12
Vbill-o-reilly
p5799
sg14
(lp5800
g5791
ag5792
ag5793
ag5794
ag5795
ag5796
aS'you'
p5801
aS'cant'
p5802
aS'explain'
p5803
aS'that'
p5804
ag18
asg19
(lp5805
g5801
ag5802
ag5803
ag5804
ag18
asba(iMeme
Meme
p5806
(dp5807
g3
(lp5808
S'my'
p5809
aS'ass'
p5810
aS'is'
p5811
aS'red'
p5812
asg8
S'my ass is red'
p5813
sg10
S' you cant explain that'
p5814
sg12
Vbill-o-reilly
p5815
sg14
(lp5816
g5809
ag5810
ag5811
ag5812
aS'you'
p5817
aS'cant'
p5818
aS'explain'
p5819
aS'that'
p5820
asg19
(lp5821
g5817
ag5818
ag5819
ag5820
asba(iMeme
Meme
p5822
(dp5823
g3
(lp5824
S'paper'
p5825
aS'sticks'
p5826
aS'to'
p5827
aS'tastea'
p5828
aS'cup'
p5829
asg8
S'paper sticks to tastea cup'
p5830
sg10
S' you cant explain that'
p5831
sg12
Vbill-o-reilly
p5832
sg14
(lp5833
g5825
ag5826
ag5827
ag5828
ag5829
aS'you'
p5834
aS'cant'
p5835
aS'explain'
p5836
aS'that'
p5837
asg19
(lp5838
g5834
ag5835
ag5836
ag5837
asba.