(lp0
(iMeme
Meme
p1
(dp2
S'top_text'
p3
(lp4
S'if'
p5
aS'you'
p6
aS'wanted'
p7
aS'to'
p8
aS'play'
p9
aS'pc'
p10
aS'games'
p11
asS'top_text_raw'
p12
S'if you wanted to play pc games '
p13
sS'bottom_text_raw'
p14
S' you should have never bought a MAC'
p15
sS'meme_type'
p16
Vcaptain-hindsight
p17
sS'all_text'
p18
(lp19
g5
ag6
ag7
ag8
ag9
ag10
ag11
aS'you'
p20
aS'should'
p21
aS'have'
p22
aS'never'
p23
aS'bought'
p24
aS'a'
p25
aS'MAC'
p26
asS'bottom_text'
p27
(lp28
g20
ag21
ag22
ag23
ag24
ag25
ag26
asba(iMeme
Meme
p29
(dp30
g3
(lp31
S'if'
p32
aS'you'
p33
aS'did'
p34
aS"n't"
p35
aS'want'
p36
aS'to'
p37
aS'have'
p38
aS'to'
p39
aS'guess'
p40
aS'who'
p41
aS'your'
p42
aS'baby'
p43
aS'daddy'
p44
aS'is'
p45
asg12
S"if you didn't want to have to guess who your baby daddy is "
p46
sg14
S" You shouldn't have been such a goddamn whore"
p47
sg16
Vcaptain-hindsight
p48
sg18
(lp49
g32
ag33
ag34
ag35
ag36
ag37
ag38
ag39
ag40
ag41
ag42
ag43
ag44
ag45
aS'You'
p50
aS'should'
p51
aS"n't"
p52
aS'have'
p53
aS'been'
p54
aS'such'
p55
ag25
aS'goddamn'
p56
aS'whore'
p57
asg27
(lp58
g50
ag51
ag52
ag53
ag54
ag55
ag25
ag56
ag57
asba(iMeme
Meme
p59
(dp60
g3
(lp61
S'if'
p62
aS'you'
p63
aS'do'
p64
aS"n't"
p65
aS'want'
p66
aS'to'
p67
aS'see'
p68
aS'stupid'
p69
aS'facebook'
p70
aS'posts'
p71
asg12
S"if you don't want to see stupid facebook posts "
p72
sg14
S" don't add stupid people on facebook"
p73
sg16
Vcaptain-hindsight
p74
sg18
(lp75
g62
ag63
ag64
ag65
ag66
ag67
ag68
ag69
ag70
ag71
aS'do'
p76
aS"n't"
p77
aS'add'
p78
aS'stupid'
p79
aS'people'
p80
aS'on'
p81
aS'facebook'
p82
asg27
(lp83
g76
ag77
ag78
ag79
ag80
ag81
ag82
asba(iMeme
Meme
p84
(dp85
g3
(lp86
S'If'
p87
aS'you'
p88
aS'wanted'
p89
aS'respect'
p90
aS'in'
p91
ag25
aS'relationship'
p92
asg12
S'If you wanted respect in a relationship '
p93
sg14
S" you shouldn't have dated an asshole"
p94
sg16
Vcaptain-hindsight
p95
sg18
(lp96
g87
ag88
ag89
ag90
ag91
ag25
ag92
aS'you'
p97
aS'should'
p98
aS"n't"
p99
aS'have'
p100
aS'dated'
p101
aS'an'
p102
aS'asshole'
p103
asg27
(lp104
g97
ag98
ag99
ag100
ag101
ag102
ag103
asba(iMeme
Meme
p105
(dp106
g3
(lp107
S'if'
p108
aS'you'
p109
aS'did'
p110
aS"n't"
p111
aS'want'
p112
aS'to'
p113
aS'upset'
p114
aS'the'
p115
aS'military'
p116
asg12
S"if you didn't want to upset the military "
p117
sg14
S" you shouldn't have thrown an explosive at an unarmed, incapacitated veteran"
p118
sg16
Vcaptain-hindsight
p119
sg18
(lp120
g108
ag109
ag110
ag111
ag112
ag113
ag114
ag115
ag116
aS'you'
p121
aS'should'
p122
aS"n't"
p123
aS'have'
p124
aS'thrown'
p125
aS'an'
p126
aS'explosive'
p127
aS'at'
p128
aS'an'
p129
aS'unarmed'
p130
aS','
p131
aS'incapacitated'
p132
aS'veteran'
p133
asg27
(lp134
g121
ag122
ag123
ag124
ag125
ag126
ag127
ag128
ag129
ag130
ag131
ag132
ag133
asba(iMeme
Meme
p135
(dp136
g3
(lp137
S'if'
p138
aS'you'
p139
aS'did'
p140
aS"n't"
p141
aS'want'
p142
aS'to'
p143
aS'spend'
p144
aS'hours'
p145
aS'waiting'
p146
aS'in'
p147
aS'line'
p148
asg12
S"if you didn't want to spend hours waiting in line "
p149
sg14
S" you shouldn't have gone shopping on black friday"
p150
sg16
Vcaptain-hindsight
p151
sg18
(lp152
g138
ag139
ag140
ag141
ag142
ag143
ag144
ag145
ag146
ag147
ag148
aS'you'
p153
aS'should'
p154
aS"n't"
p155
aS'have'
p156
aS'gone'
p157
aS'shopping'
p158
aS'on'
p159
aS'black'
p160
aS'friday'
p161
asg27
(lp162
g153
ag154
ag155
ag156
ag157
ag158
ag159
ag160
ag161
asba(iMeme
Meme
p163
(dp164
g3
(lp165
S'If'
p166
aS'you'
p167
aS'did'
p168
aS"n't"
p169
aS'want'
p170
aS'to'
p171
aS'see'
p172
aS'stupid'
p173
aS'posts'
p174
aS'from'
p175
aS'annoying'
p176
aS'facebook'
p177
aS'girl'
p178
asg12
S"If you didn't want to see stupid posts from annoying facebook girl "
p179
sg14
S" Then you shoudn't have accepted her friend request."
p180
sg16
Vcaptain-hindsight
p181
sg18
(lp182
g166
ag167
ag168
ag169
ag170
ag171
ag172
ag173
ag174
ag175
ag176
ag177
ag178
aS'Then'
p183
aS'you'
p184
aS'shoud'
p185
aS"n't"
p186
aS'have'
p187
aS'accepted'
p188
aS'her'
p189
aS'friend'
p190
aS'request'
p191
aS'.'
p192
asg27
(lp193
g183
ag184
ag185
ag186
ag187
ag188
ag189
ag190
ag191
ag192
asba(iMeme
Meme
p194
(dp195
g3
(lp196
S'If'
p197
aS'you'
p198
aS'did'
p199
aS"n't"
p200
aS'want'
p201
aS'the'
p202
aS'weird'
p203
aS'kid'
p204
aS'to'
p205
aS'invite'
p206
aS'himself'
p207
asg12
S"If you didn't want the weird kid to invite himself "
p208
sg14
S" You shouldn't have talked about your plans in front of him"
p209
sg16
Vcaptain-hindsight
p210
sg18
(lp211
g197
ag198
ag199
ag200
ag201
ag202
ag203
ag204
ag205
ag206
ag207
aS'You'
p212
aS'should'
p213
aS"n't"
p214
aS'have'
p215
aS'talked'
p216
aS'about'
p217
aS'your'
p218
aS'plans'
p219
aS'in'
p220
aS'front'
p221
aS'of'
p222
aS'him'
p223
asg27
(lp224
g212
ag213
ag214
ag215
ag216
ag217
ag218
ag219
ag220
ag221
ag222
ag223
asba(iMeme
Meme
p225
(dp226
g3
(lp227
S'Being'
p228
aS'nice'
p229
aS'to'
p230
ag25
aS'girl'
p231
asg12
S'Being nice to a girl  '
p232
sg14
S" doesn't obligate her to be romantically interested in you"
p233
sg16
Vcaptain-hindsight
p234
sg18
(lp235
g228
ag229
ag230
ag25
ag231
aS'does'
p236
aS"n't"
p237
aS'obligate'
p238
aS'her'
p239
aS'to'
p240
aS'be'
p241
aS'romantically'
p242
aS'interested'
p243
aS'in'
p244
aS'you'
p245
asg27
(lp246
g236
ag237
ag238
ag239
ag240
ag241
ag242
ag243
ag244
ag245
asba(iMeme
Meme
p247
(dp248
g3
(lp249
S'if'
p250
aS'you'
p251
aS"'re"
p252
aS'going'
p253
aS'to'
p254
aS'bitch'
p255
aS'about'
p256
aS'the'
p257
aS'price'
p258
aS'of'
p259
aS'gas'
p260
asg12
S"if you're going to bitch about the price of gas "
p261
sg14
S' you shouldnt have bought an suv'
p262
sg16
Vcaptain-hindsight
p263
sg18
(lp264
g250
ag251
ag252
ag253
ag254
ag255
ag256
ag257
ag258
ag259
ag260
aS'you'
p265
aS'shouldnt'
p266
aS'have'
p267
aS'bought'
p268
aS'an'
p269
aS'suv'
p270
asg27
(lp271
g265
ag266
ag267
ag268
ag269
ag270
asba(iMeme
Meme
p272
(dp273
g3
(lp274
S'If'
p275
aS'you'
p276
aS'did'
p277
aS"n't"
p278
aS'want'
p279
aS'your'
p280
aS'child'
p281
aS'to'
p282
aS'be'
p283
ag25
aS'spoiled'
p284
aS'little'
p285
aS'shit'
p286
asg12
S"If you didn't want your child to be a spoiled little shit "
p287
sg14
S" Then you shouldn't have gotten him an iPad"
p288
sg16
Vcaptain-hindsight
p289
sg18
(lp290
g275
ag276
ag277
ag278
ag279
ag280
ag281
ag282
ag283
ag25
ag284
ag285
ag286
aS'Then'
p291
aS'you'
p292
aS'should'
p293
aS"n't"
p294
aS'have'
p295
aS'gotten'
p296
aS'him'
p297
aS'an'
p298
aS'iPad'
p299
asg27
(lp300
g291
ag292
ag293
ag294
ag295
ag296
ag297
ag298
ag299
asba(iMeme
Meme
p301
(dp302
g3
(lp303
S'If'
p304
aS'you'
p305
aS'did'
p306
aS"n't"
p307
aS'want'
p308
aS'people'
p309
aS'on'
p310
aS'Facebook'
p311
aS'to'
p312
aS'post'
p313
aS'memes'
p314
asg12
S"If you didn't want people on Facebook to post memes "
p315
sg14
S" Maybe you shouldn't have posted so many memes on Facebook"
p316
sg16
Vcaptain-hindsight
p317
sg18
(lp318
g304
ag305
ag306
ag307
ag308
ag309
ag310
ag311
ag312
ag313
ag314
aS'Maybe'
p319
aS'you'
p320
aS'should'
p321
aS"n't"
p322
aS'have'
p323
aS'posted'
p324
aS'so'
p325
aS'many'
p326
aS'memes'
p327
aS'on'
p328
aS'Facebook'
p329
asg27
(lp330
g319
ag320
ag321
ag322
ag323
ag324
ag325
ag326
ag327
ag328
ag329
asba(iMeme
Meme
p331
(dp332
g3
(lp333
S'If'
p334
aS'you'
p335
aS'did'
p336
aS"n't"
p337
aS'want'
p338
aS'me'
p339
aS'looking'
p340
aS'at'
p341
aS'your'
p342
aS'boobs'
p343
asg12
S"If you didn't want me looking at your boobs "
p344
sg14
S" you shouldn't have worn such a low cut shirt"
p345
sg16
Vcaptain-hindsight
p346
sg18
(lp347
g334
ag335
ag336
ag337
ag338
ag339
ag340
ag341
ag342
ag343
aS'you'
p348
aS'should'
p349
aS"n't"
p350
aS'have'
p351
aS'worn'
p352
aS'such'
p353
ag25
aS'low'
p354
aS'cut'
p355
aS'shirt'
p356
asg27
(lp357
g348
ag349
ag350
ag351
ag352
ag353
ag25
ag354
ag355
ag356
asba(iMeme
Meme
p358
(dp359
g3
(lp360
S'you'
p361
aS'would'
p362
aS"n't"
p363
aS'be'
p364
aS'so'
p365
aS'tired'
p366
asg12
S"you wouldn't be so tired  "
p367
sg14
S" if you'd gone to bed at a reasonable hour"
p368
sg16
Vcaptain-hindsight
p369
sg18
(lp370
g361
ag362
ag363
ag364
ag365
ag366
aS'if'
p371
aS'you'
p372
aS"'d"
p373
aS'gone'
p374
aS'to'
p375
aS'bed'
p376
aS'at'
p377
ag25
aS'reasonable'
p378
aS'hour'
p379
asg27
(lp380
g371
ag372
ag373
ag374
ag375
ag376
ag377
ag25
ag378
ag379
asba(iMeme
Meme
p381
(dp382
g3
(lp383
S'if'
p384
aS'you'
p385
aS'want'
p386
aS'people'
p387
aS'to'
p388
aS'text'
p389
aS'you'
p390
asg12
S'if you want people to text you '
p391
sg14
S' you should just text them yourself'
p392
sg16
Vcaptain-hindsight
p393
sg18
(lp394
g384
ag385
ag386
ag387
ag388
ag389
ag390
aS'you'
p395
aS'should'
p396
aS'just'
p397
aS'text'
p398
aS'them'
p399
aS'yourself'
p400
asg27
(lp401
g395
ag396
ag397
ag398
ag399
ag400
asba(iMeme
Meme
p402
(dp403
g3
(lp404
S'if'
p405
aS'you'
p406
aS'did'
p407
aS"n't"
p408
aS'want'
p409
aS'to'
p410
aS'be'
p411
aS'hungover'
p412
asg12
S"if you didn't want to be hungover "
p413
sg14
S" then you shouldn't have drank so much last night!"
p414
sg16
Vcaptain-hindsight
p415
sg18
(lp416
g405
ag406
ag407
ag408
ag409
ag410
ag411
ag412
aS'then'
p417
aS'you'
p418
aS'should'
p419
aS"n't"
p420
aS'have'
p421
aS'drank'
p422
aS'so'
p423
aS'much'
p424
aS'last'
p425
aS'night'
p426
aS'!'
p427
asg27
(lp428
g417
ag418
ag419
ag420
ag421
ag422
ag423
ag424
ag425
ag426
ag427
asba(iMeme
Meme
p429
(dp430
g3
(lp431
S'if'
p432
aS'you'
p433
aS'wanted'
p434
aS'to'
p435
aS'keep'
p436
aS'your'
p437
aS'friends'
p438
asg12
S'if you wanted to keep your friends '
p439
sg14
S' you should never have told them your reddit username'
p440
sg16
Vcaptain-hindsight
p441
sg18
(lp442
g432
ag433
ag434
ag435
ag436
ag437
ag438
aS'you'
p443
aS'should'
p444
aS'never'
p445
aS'have'
p446
aS'told'
p447
aS'them'
p448
aS'your'
p449
aS'reddit'
p450
aS'username'
p451
asg27
(lp452
g443
ag444
ag445
ag446
ag447
ag448
ag449
ag450
ag451
asba(iMeme
Meme
p453
(dp454
g3
(lp455
S'If'
p456
aS'you'
p457
aS'wanted'
p458
ag25
aS'job'
p459
aS'after'
p460
aS'college'
p461
asg12
S'If you wanted a job after college '
p462
sg14
S" you shouldn't have majored in political science"
p463
sg16
Vcaptain-hindsight
p464
sg18
(lp465
g456
ag457
ag458
ag25
ag459
ag460
ag461
aS'you'
p466
aS'should'
p467
aS"n't"
p468
aS'have'
p469
aS'majored'
p470
aS'in'
p471
aS'political'
p472
aS'science'
p473
asg27
(lp474
g466
ag467
ag468
ag469
ag470
ag471
ag472
ag473
asba(iMeme
Meme
p475
(dp476
g3
(lp477
S'if'
p478
aS'you'
p479
aS'wanted'
p480
aS'to'
p481
aS'be'
p482
aS'productive'
p483
asg12
S'if you wanted to be productive '
p484
sg14
S' you should have never opened reddit'
p485
sg16
Vcaptain-hindsight
p486
sg18
(lp487
g478
ag479
ag480
ag481
ag482
ag483
aS'you'
p488
aS'should'
p489
aS'have'
p490
aS'never'
p491
aS'opened'
p492
aS'reddit'
p493
asg27
(lp494
g488
ag489
ag490
ag491
ag492
ag493
asba(iMeme
Meme
p495
(dp496
g3
(lp497
S'If'
p498
aS'you'
p499
aS'wanted'
p500
aS'to'
p501
aS'do'
p502
aS'well'
p503
aS'on'
p504
aS'your'
p505
aS'final'
p506
aS'exams'
p507
asg12
S'If you wanted to do well on your final exams '
p508
sg14
S' You should have waited until Christmas break to buy skyrim'
p509
sg16
Vcaptain-hindsight
p510
sg18
(lp511
g498
ag499
ag500
ag501
ag502
ag503
ag504
ag505
ag506
ag507
aS'You'
p512
aS'should'
p513
aS'have'
p514
aS'waited'
p515
aS'until'
p516
aS'Christmas'
p517
aS'break'
p518
aS'to'
p519
aS'buy'
p520
aS'skyrim'
p521
asg27
(lp522
g512
ag513
ag514
ag515
ag516
ag517
ag518
ag519
ag520
ag521
asba(iMeme
Meme
p523
(dp524
g3
(lp525
S'If'
p526
aS'you'
p527
aS'did'
p528
aS"n't"
p529
aS'want'
p530
aS'me'
p531
aS'to'
p532
aS'stare'
p533
aS'at'
p534
aS'your'
p535
aS'ass'
p536
asg12
S"If you didn't want me to stare at your ass "
p537
sg14
S' Then you never should have worn yoga pants'
p538
sg16
Vcaptain-hindsight
p539
sg18
(lp540
g526
ag527
ag528
ag529
ag530
ag531
ag532
ag533
ag534
ag535
ag536
aS'Then'
p541
aS'you'
p542
aS'never'
p543
aS'should'
p544
aS'have'
p545
aS'worn'
p546
aS'yoga'
p547
aS'pants'
p548
asg27
(lp549
g541
ag542
ag543
ag544
ag545
ag546
ag547
ag548
asba(iMeme
Meme
p550
(dp551
g3
(lp552
S'if'
p553
aS'you'
p554
aS'wanted'
p555
ag25
aS'job'
p556
aS'out'
p557
aS'of'
p558
aS'college'
p559
asg12
S'if you wanted a job out of college '
p560
sg14
S" then you shouldn't have gotten a liberal arts degree"
p561
sg16
Vcaptain-hindsight
p562
sg18
(lp563
g553
ag554
ag555
ag25
ag556
ag557
ag558
ag559
aS'then'
p564
aS'you'
p565
aS'should'
p566
aS"n't"
p567
aS'have'
p568
aS'gotten'
p569
ag25
aS'liberal'
p570
aS'arts'
p571
aS'degree'
p572
asg27
(lp573
g564
ag565
ag566
ag567
ag568
ag569
ag25
ag570
ag571
ag572
asba(iMeme
Meme
p574
(dp575
g3
(lp576
S'if'
p577
aS'you'
p578
aS'didnt'
p579
aS'want'
p580
ag25
aS'political'
p581
aS'shit'
p582
aS'storm'
p583
aS'on'
p584
aS'facebook'
p585
asg12
S'if you didnt want a political shit storm on facebook '
p586
sg14
S" Then you shouldn't have made a political remark on facebook"
p587
sg16
Vcaptain-hindsight
p588
sg18
(lp589
g577
ag578
ag579
ag580
ag25
ag581
ag582
ag583
ag584
ag585
aS'Then'
p590
aS'you'
p591
aS'should'
p592
aS"n't"
p593
aS'have'
p594
aS'made'
p595
ag25
aS'political'
p596
aS'remark'
p597
aS'on'
p598
aS'facebook'
p599
asg27
(lp600
g590
ag591
ag592
ag593
ag594
ag595
ag25
ag596
ag597
ag598
ag599
asba(iMeme
Meme
p601
(dp602
g3
(lp603
S'if'
p604
aS'you'
p605
aS'wanted'
p606
aS'the'
p607
aS'perfect'
p608
aS'man'
p609
asg12
S'if you wanted the perfect man '
p610
sg14
S" you should've looked in the friendzone!"
p611
sg16
Vcaptain-hindsight
p612
sg18
(lp613
g604
ag605
ag606
ag607
ag608
ag609
aS'you'
p614
aS'should'
p615
aS"'ve"
p616
aS'looked'
p617
aS'in'
p618
aS'the'
p619
aS'friendzone'
p620
ag427
asg27
(lp621
g614
ag615
ag616
ag617
ag618
ag619
ag620
ag427
asba(iMeme
Meme
p622
(dp623
g3
(lp624
S'If'
p625
aS'you'
p626
aS'want'
p627
aS'there'
p628
aS'to'
p629
aS'be'
p630
aS'world'
p631
aS'peace'
p632
asg12
S'If you want there to be world peace '
p633
sg14
S' Everyone should be required by law to trip on mushrooms once!'
p634
sg16
Vcaptain-hindsight
p635
sg18
(lp636
g625
ag626
ag627
ag628
ag629
ag630
ag631
ag632
aS'Everyone'
p637
aS'should'
p638
aS'be'
p639
aS'required'
p640
aS'by'
p641
aS'law'
p642
aS'to'
p643
aS'trip'
p644
aS'on'
p645
aS'mushrooms'
p646
aS'once'
p647
ag427
asg27
(lp648
g637
ag638
ag639
ag640
ag641
ag642
ag643
ag644
ag645
ag646
ag647
ag427
asba(iMeme
Meme
p649
(dp650
g3
(lp651
S'if'
p652
aS'you'
p653
aS'wanted'
p654
ag25
aS'social'
p655
aS'life'
p656
asg12
S'if you wanted a social life '
p657
sg14
S" you shouldn't have                           become a redditor"
p658
sg16
Vcaptain-hindsight
p659
sg18
(lp660
g652
ag653
ag654
ag25
ag655
ag656
aS'you'
p661
aS'should'
p662
aS"n't"
p663
aS'have'
p664
aS'become'
p665
ag25
aS'redditor'
p666
asg27
(lp667
g661
ag662
ag663
ag664
ag665
ag25
ag666
asba(iMeme
Meme
p668
(dp669
g3
(lp670
S'If'
p671
aS'you'
p672
aS'did'
p673
aS"n't"
p674
aS'want'
p675
aS'to'
p676
aS'have'
p677
aS'tons'
p678
aS'of'
p679
aS'debt'
p680
aS'with'
p681
aS'no'
p682
aS'skills'
p683
asg12
S"If you didn't want to have tons of debt with no skills "
p684
sg14
S" You shouldn't have gotten a degree in a field with no jobs"
p685
sg16
Vcaptain-hindsight
p686
sg18
(lp687
g671
ag672
ag673
ag674
ag675
ag676
ag677
ag678
ag679
ag680
ag681
ag682
ag683
aS'You'
p688
aS'should'
p689
aS"n't"
p690
aS'have'
p691
aS'gotten'
p692
ag25
aS'degree'
p693
aS'in'
p694
ag25
aS'field'
p695
aS'with'
p696
aS'no'
p697
aS'jobs'
p698
asg27
(lp699
g688
ag689
ag690
ag691
ag692
ag25
ag693
ag694
ag25
ag695
ag696
ag697
ag698
asba(iMeme
Meme
p700
(dp701
g3
(lp702
S'IF'
p703
aS'your'
p704
aS'going'
p705
aS'to'
p706
aS'cry'
p707
aS'about'
p708
aS'an'
p709
aS'alcohol'
p710
aS'hangover'
p711
asg12
S'IF your going to cry about an alcohol hangover '
p712
sg14
S' you should have smoked weed'
p713
sg16
Vcaptain-hindsight
p714
sg18
(lp715
g703
ag704
ag705
ag706
ag707
ag708
ag709
ag710
ag711
aS'you'
p716
aS'should'
p717
aS'have'
p718
aS'smoked'
p719
aS'weed'
p720
asg27
(lp721
g716
ag717
ag718
ag719
ag720
asba(iMeme
Meme
p722
(dp723
g3
(lp724
S'Amy'
p725
aS'Winehouse'
p726
asg12
S'Amy Winehouse '
p727
sg14
S' Should have went to rehab'
p728
sg16
Vcaptain-hindsight
p729
sg18
(lp730
g725
ag726
aS'Should'
p731
aS'have'
p732
aS'went'
p733
aS'to'
p734
aS'rehab'
p735
asg27
(lp736
g731
ag732
ag733
ag734
ag735
asba(iMeme
Meme
p737
(dp738
g3
(lp739
S'if'
p740
aS'privacy'
p741
aS'is'
p742
aS'so'
p743
aS'important'
p744
aS'to'
p745
aS'you'
p746
asg12
S'if privacy is so important to you '
p747
sg14
S' you should have never created a facebook account'
p748
sg16
Vcaptain-hindsight
p749
sg18
(lp750
g740
ag741
ag742
ag743
ag744
ag745
ag746
aS'you'
p751
aS'should'
p752
aS'have'
p753
aS'never'
p754
aS'created'
p755
ag25
aS'facebook'
p756
aS'account'
p757
asg27
(lp758
g751
ag752
ag753
ag754
ag755
ag25
ag756
ag757
asba(iMeme
Meme
p759
(dp760
g3
(lp761
S'if'
p762
aS'you'
p763
aS'wanted'
p764
aS'to'
p765
aS'make'
p766
ag25
aS'rage'
p767
aS'comic'
p768
asg12
S'if you wanted to make a rage comic '
p769
sg14
S" then you shouldn't have got so high"
p770
sg16
Vcaptain-hindsight
p771
sg18
(lp772
g762
ag763
ag764
ag765
ag766
ag25
ag767
ag768
aS'then'
p773
aS'you'
p774
aS'should'
p775
aS"n't"
p776
aS'have'
p777
aS'got'
p778
aS'so'
p779
aS'high'
p780
asg27
(lp781
g773
ag774
ag775
ag776
ag777
ag778
ag779
ag780
asba(iMeme
Meme
p782
(dp783
g3
(lp784
S'if'
p785
aS'you'
p786
aS'wanted'
p787
aS'to'
p788
aS'get'
p789
aS'into'
p790
aS'my'
p791
aS'lane'
p792
asg12
S'if you wanted to get into my lane '
p793
sg14
S' you should have used your turn signal'
p794
sg16
Vcaptain-hindsight
p795
sg18
(lp796
g785
ag786
ag787
ag788
ag789
ag790
ag791
ag792
aS'you'
p797
aS'should'
p798
aS'have'
p799
aS'used'
p800
aS'your'
p801
aS'turn'
p802
aS'signal'
p803
asg27
(lp804
g797
ag798
ag799
ag800
ag801
ag802
ag803
asba(iMeme
Meme
p805
(dp806
g3
(lp807
S'if'
p808
aS'you'
p809
aS'wanted'
p810
aS'to'
p811
aS'have'
p812
ag25
aS'girlfriend'
p813
asg12
S'if you wanted to have a girlfriend '
p814
sg14
S' you should have never became a redditor'
p815
sg16
Vcaptain-hindsight
p816
sg18
(lp817
g808
ag809
ag810
ag811
ag812
ag25
ag813
aS'you'
p818
aS'should'
p819
aS'have'
p820
aS'never'
p821
aS'became'
p822
ag25
aS'redditor'
p823
asg27
(lp824
g818
ag819
ag820
ag821
ag822
ag25
ag823
asba(iMeme
Meme
p825
(dp826
g3
(lp827
S'condoms'
p828
aS'are'
p829
aS"n't"
p830
aS'expensive'
p831
asg12
S"condoms aren't expensive "
p832
sg14
S' babies are'
p833
sg16
Vcaptain-hindsight
p834
sg18
(lp835
g828
ag829
ag830
ag831
aS'babies'
p836
aS'are'
p837
asg27
(lp838
g836
ag837
asba(iMeme
Meme
p839
(dp840
g3
(lp841
S'If'
p842
aS'you'
p843
aS'did'
p844
aS"n't"
p845
aS'want'
p846
aS'to'
p847
aS'hate'
p848
aS'your'
p849
aS'friends'
p850
asg12
S"If you didn't want to hate your friends "
p851
sg14
S' You should have never joined Facebook'
p852
sg16
Vcaptain-hindsight
p853
sg18
(lp854
g842
ag843
ag844
ag845
ag846
ag847
ag848
ag849
ag850
aS'You'
p855
aS'should'
p856
aS'have'
p857
aS'never'
p858
aS'joined'
p859
aS'Facebook'
p860
asg27
(lp861
g855
ag856
ag857
ag858
ag859
ag860
asba(iMeme
Meme
p862
(dp863
g3
(lp864
S'if'
p865
aS'you'
p866
aS'did'
p867
aS"n't"
p868
aS'want'
p869
aS'to'
p870
aS'be'
p871
aS'angry'
p872
aS'today'
p873
asg12
S"if you didn't want to be angry today "
p874
sg14
S' you should never have opened'
p875
sg16
Vcaptain-hindsight
p876
sg18
(lp877
g865
ag866
ag867
ag868
ag869
ag870
ag871
ag872
ag873
aS'you'
p878
aS'should'
p879
aS'never'
p880
aS'have'
p881
aS'opened'
p882
asg27
(lp883
g878
ag879
ag880
ag881
ag882
asba(iMeme
Meme
p884
(dp885
g3
(lp886
S'If'
p887
aS'you'
p888
aS'wanted'
p889
aS'to'
p890
aS'avoid'
p891
aS'the'
p892
aS'friend'
p893
aS'zone'
p894
asg12
S'If you wanted to avoid the friend zone '
p895
sg14
S' Then you should have made your intentions known from the start'
p896
sg16
Vcaptain-hindsight
p897
sg18
(lp898
g887
ag888
ag889
ag890
ag891
ag892
ag893
ag894
aS'Then'
p899
aS'you'
p900
aS'should'
p901
aS'have'
p902
aS'made'
p903
aS'your'
p904
aS'intentions'
p905
aS'known'
p906
aS'from'
p907
aS'the'
p908
aS'start'
p909
asg27
(lp910
g899
ag900
ag901
ag902
ag903
ag904
ag905
ag906
ag907
ag908
ag909
asba(iMeme
Meme
p911
(dp912
g3
(lp913
S'If'
p914
aS'you'
p915
aS'liked'
p916
aS'it'
p917
asg12
S'If you liked it '
p918
sg14
S" Then you should've put a ring on it"
p919
sg16
Vcaptain-hindsight
p920
sg18
(lp921
g914
ag915
ag916
ag917
aS'Then'
p922
aS'you'
p923
aS'should'
p924
aS"'ve"
p925
aS'put'
p926
ag25
aS'ring'
p927
aS'on'
p928
aS'it'
p929
asg27
(lp930
g922
ag923
ag924
ag925
ag926
ag25
ag927
ag928
ag929
asba(iMeme
Meme
p931
(dp932
g3
(lp933
S'If'
p934
aS'you'
p935
aS'never'
p936
aS'wanted'
p937
aS'nude'
p938
aS'pictures'
p939
aS'of'
p940
aS'you'
p941
aS'on'
p942
aS'the'
p943
aS'internet'
p944
asg12
S'If you never wanted nude pictures of you on the internet  '
p945
sg14
S' you should have never taken them in the first place'
p946
sg16
Vcaptain-hindsight
p947
sg18
(lp948
g934
ag935
ag936
ag937
ag938
ag939
ag940
ag941
ag942
ag943
ag944
aS'you'
p949
aS'should'
p950
aS'have'
p951
aS'never'
p952
aS'taken'
p953
aS'them'
p954
aS'in'
p955
aS'the'
p956
aS'first'
p957
aS'place'
p958
asg27
(lp959
g949
ag950
ag951
ag952
ag953
ag954
ag955
ag956
ag957
ag958
asba(iMeme
Meme
p960
(dp961
g3
(lp962
S'if'
p963
aS'you'
p964
aS'wanted'
p965
aS'to'
p966
aS'stop'
p967
aS'being'
p968
aS'forever'
p969
aS'alone'
p970
asg12
S'if you wanted to stop being forever alone '
p971
sg14
S' you should have actually gone out and interacted with people rather than going on reddit'
p972
sg16
Vcaptain-hindsight
p973
sg18
(lp974
g963
ag964
ag965
ag966
ag967
ag968
ag969
ag970
aS'you'
p975
aS'should'
p976
aS'have'
p977
aS'actually'
p978
aS'gone'
p979
aS'out'
p980
aS'and'
p981
aS'interacted'
p982
aS'with'
p983
aS'people'
p984
aS'rather'
p985
aS'than'
p986
aS'going'
p987
aS'on'
p988
aS'reddit'
p989
asg27
(lp990
g975
ag976
ag977
ag978
ag979
ag980
ag981
ag982
ag983
ag984
ag985
ag986
ag987
ag988
ag989
asba(iMeme
Meme
p991
(dp992
g3
(lp993
S'if'
p994
aS'you'
p995
aS'wanted'
p996
ag25
aS'job'
p997
asg12
S'if you wanted a job '
p998
sg14
S" you shouldn't have been an english major"
p999
sg16
Vcaptain-hindsight
p1000
sg18
(lp1001
g994
ag995
ag996
ag25
ag997
aS'you'
p1002
aS'should'
p1003
aS"n't"
p1004
aS'have'
p1005
aS'been'
p1006
aS'an'
p1007
aS'english'
p1008
aS'major'
p1009
asg27
(lp1010
g1002
ag1003
ag1004
ag1005
ag1006
ag1007
ag1008
ag1009
asba(iMeme
Meme
p1011
(dp1012
g3
(lp1013
S'If'
p1014
aS'you'
p1015
aS'did'
p1016
aS"n't"
p1017
aS'want'
p1018
aS'people'
p1019
aS'to'
p1020
aS'see'
p1021
aS'your'
p1022
aS'naked'
p1023
aS'ass'
p1024
aS'on'
p1025
aS'internet'
p1026
asg12
S"If you didn't want people to see your naked ass on internet "
p1027
sg14
S' Then you should never took pictures of it'
p1028
sg16
Vcaptain-hindsight
p1029
sg18
(lp1030
g1014
ag1015
ag1016
ag1017
ag1018
ag1019
ag1020
ag1021
ag1022
ag1023
ag1024
ag1025
ag1026
aS'Then'
p1031
aS'you'
p1032
aS'should'
p1033
aS'never'
p1034
aS'took'
p1035
aS'pictures'
p1036
aS'of'
p1037
aS'it'
p1038
asg27
(lp1039
g1031
ag1032
ag1033
ag1034
ag1035
ag1036
ag1037
ag1038
asba(iMeme
Meme
p1040
(dp1041
g3
(lp1042
S'if'
p1043
aS'you'
p1044
aS'did'
p1045
aS"n't"
p1046
aS'want'
p1047
aS'to'
p1048
aS'see'
p1049
ag25
aS'dumb'
p1050
aS'version'
p1051
aS'of'
p1052
aS'this'
p1053
aS'meme'
p1054
aS'...'
p1055
asg12
S"if you didn't want to see a dumb version of this meme... "
p1056
sg14
S' you should not have clicked on this link'
p1057
sg16
Vcaptain-hindsight
p1058
sg18
(lp1059
g1043
ag1044
ag1045
ag1046
ag1047
ag1048
ag1049
ag25
ag1050
ag1051
ag1052
ag1053
ag1054
ag1055
aS'you'
p1060
aS'should'
p1061
aS'not'
p1062
aS'have'
p1063
aS'clicked'
p1064
aS'on'
p1065
aS'this'
p1066
aS'link'
p1067
asg27
(lp1068
g1060
ag1061
ag1062
ag1063
ag1064
ag1065
ag1066
ag1067
asba(iMeme
Meme
p1069
(dp1070
g3
(lp1071
S'if'
p1072
aS'you'
p1073
aS'did'
p1074
aS"n't"
p1075
aS'want'
p1076
aS'to'
p1077
aS'vomit'
p1078
asg12
S"if you didn't want to vomit "
p1079
sg14
S" you shouldn't have had so many shots"
p1080
sg16
Vcaptain-hindsight
p1081
sg18
(lp1082
g1072
ag1073
ag1074
ag1075
ag1076
ag1077
ag1078
aS'you'
p1083
aS'should'
p1084
aS"n't"
p1085
aS'have'
p1086
aS'had'
p1087
aS'so'
p1088
aS'many'
p1089
aS'shots'
p1090
asg27
(lp1091
g1083
ag1084
ag1085
ag1086
ag1087
ag1088
ag1089
ag1090
asba(iMeme
Meme
p1092
(dp1093
g3
(lp1094
S'if'
p1095
aS'you'
p1096
aS'wanted'
p1097
ag25
aS'social'
p1098
aS'life'
p1099
asg12
S'if you wanted a social life '
p1100
sg14
S" you shouldn't have installed minecraft"
p1101
sg16
Vcaptain-hindsight
p1102
sg18
(lp1103
g1095
ag1096
ag1097
ag25
ag1098
ag1099
aS'you'
p1104
aS'should'
p1105
aS"n't"
p1106
aS'have'
p1107
aS'installed'
p1108
aS'minecraft'
p1109
asg27
(lp1110
g1104
ag1105
ag1106
ag1107
ag1108
ag1109
asba(iMeme
Meme
p1111
(dp1112
g3
(lp1113
S'that'
p1114
aS'girl'
p1115
aS'was'
p1116
aS'cute'
p1117
asg12
S'that girl was cute '
p1118
sg14
S' you should have talked to her before she left'
p1119
sg16
Vcaptain-hindsight
p1120
sg18
(lp1121
g1114
ag1115
ag1116
ag1117
aS'you'
p1122
aS'should'
p1123
aS'have'
p1124
aS'talked'
p1125
aS'to'
p1126
aS'her'
p1127
aS'before'
p1128
aS'she'
p1129
aS'left'
p1130
asg27
(lp1131
g1122
ag1123
ag1124
ag1125
ag1126
ag1127
ag1128
ag1129
ag1130
asba(iMeme
Meme
p1132
(dp1133
g3
(lp1134
S'if'
p1135
aS'they'
p1136
aS'did'
p1137
aS"n't"
p1138
aS'want'
p1139
aS'to'
p1140
aS'create'
p1141
ag25
aS'budget'
p1142
aS'problem'
p1143
asg12
S"if they didn't want to create a budget problem "
p1144
sg14
S" the government shouldn't have overspent during the recession"
p1145
sg16
Vcaptain-hindsight
p1146
sg18
(lp1147
g1135
ag1136
ag1137
ag1138
ag1139
ag1140
ag1141
ag25
ag1142
ag1143
aS'the'
p1148
aS'government'
p1149
aS'should'
p1150
aS"n't"
p1151
aS'have'
p1152
aS'overspent'
p1153
aS'during'
p1154
aS'the'
p1155
aS'recession'
p1156
asg27
(lp1157
g1148
ag1149
ag1150
ag1151
ag1152
ag1153
ag1154
ag1155
ag1156
asba(iMeme
Meme
p1158
(dp1159
g3
(lp1160
S'if'
p1161
aS'you'
p1162
aS'did'
p1163
aS"n't"
p1164
aS'want'
p1165
aS'to'
p1166
aS'be'
p1167
ag25
aS'disgusting'
p1168
aS'land'
p1169
aS'whale'
p1170
asg12
S"if you didn't want to be a disgusting land whale "
p1171
sg14
S" you shouldn't have eaten all that junk food"
p1172
sg16
Vcaptain-hindsight
p1173
sg18
(lp1174
g1161
ag1162
ag1163
ag1164
ag1165
ag1166
ag1167
ag25
ag1168
ag1169
ag1170
aS'you'
p1175
aS'should'
p1176
aS"n't"
p1177
aS'have'
p1178
aS'eaten'
p1179
aS'all'
p1180
aS'that'
p1181
aS'junk'
p1182
aS'food'
p1183
asg27
(lp1184
g1175
ag1176
ag1177
ag1178
ag1179
ag1180
ag1181
ag1182
ag1183
asba(iMeme
Meme
p1185
(dp1186
g3
(lp1187
S'if'
p1188
aS'you'
p1189
aS'make'
p1190
ag25
aS'popular'
p1191
aS'post'
p1192
asg12
S'if you make a popular post '
p1193
sg14
S' you will waste all day checking on it'
p1194
sg16
Vcaptain-hindsight
p1195
sg18
(lp1196
g1188
ag1189
ag1190
ag25
ag1191
ag1192
aS'you'
p1197
aS'will'
p1198
aS'waste'
p1199
aS'all'
p1200
aS'day'
p1201
aS'checking'
p1202
aS'on'
p1203
aS'it'
p1204
asg27
(lp1205
g1197
ag1198
ag1199
ag1200
ag1201
ag1202
ag1203
ag1204
asba(iMeme
Meme
p1206
(dp1207
g3
(lp1208
S'If'
p1209
aS'you'
p1210
aS'wanted'
p1211
aS'to'
p1212
aS'stay'
p1213
aS'friends'
p1214
asg12
S'If you wanted to stay friends '
p1215
sg14
S" you should't have treated me like a piece of shit! "
p1216
sg16
Vcaptain-hindsight
p1217
sg18
(lp1218
g1209
ag1210
ag1211
ag1212
ag1213
ag1214
aS'you'
p1219
aS"should't"
p1220
aS'have'
p1221
aS'treated'
p1222
aS'me'
p1223
aS'like'
p1224
ag25
aS'piece'
p1225
aS'of'
p1226
aS'shit'
p1227
ag427
asg27
(lp1228
g1219
ag1220
ag1221
ag1222
ag1223
ag1224
ag25
ag1225
ag1226
ag1227
ag427
asba(iMeme
Meme
p1229
(dp1230
g3
(lp1231
S'If'
p1232
aS'you'
p1233
aS'did'
p1234
aS"n't"
p1235
aS'want'
p1236
aS'your'
p1237
aS'son'
p1238
aS'to'
p1239
aS'fall'
p1240
aS'off'
p1241
aS'the'
p1242
aS'sculpture'
p1243
asg12
S"If you didn't want your son to fall off the sculpture  "
p1244
sg14
S" You shouldn't have let him climb the sculpture "
p1245
sg16
Vcaptain-hindsight
p1246
sg18
(lp1247
g1232
ag1233
ag1234
ag1235
ag1236
ag1237
ag1238
ag1239
ag1240
ag1241
ag1242
ag1243
aS'You'
p1248
aS'should'
p1249
aS"n't"
p1250
aS'have'
p1251
aS'let'
p1252
aS'him'
p1253
aS'climb'
p1254
aS'the'
p1255
aS'sculpture'
p1256
asg27
(lp1257
g1248
ag1249
ag1250
ag1251
ag1252
ag1253
ag1254
ag1255
ag1256
asba(iMeme
Meme
p1258
(dp1259
g3
(lp1260
S'If'
p1261
aS'you'
p1262
aS'knew'
p1263
aS'you'
p1264
aS'were'
p1265
aS'going'
p1266
aS'to'
p1267
aS'be'
p1268
aS'concerned'
p1269
aS'about'
p1270
aS'financial'
p1271
aS'your'
p1272
aS'issues'
p1273
asg12
S'If you knew you were going to be concerned about financial your issues '
p1274
sg14
S' You should not have gotten that 300 dollar tattoo on your arm last week '
p1275
sg16
Vcaptain-hindsight
p1276
sg18
(lp1277
g1261
ag1262
ag1263
ag1264
ag1265
ag1266
ag1267
ag1268
ag1269
ag1270
ag1271
ag1272
ag1273
aS'You'
p1278
aS'should'
p1279
aS'not'
p1280
aS'have'
p1281
aS'gotten'
p1282
aS'that'
p1283
aS'300'
p1284
aS'dollar'
p1285
aS'tattoo'
p1286
aS'on'
p1287
aS'your'
p1288
aS'arm'
p1289
aS'last'
p1290
aS'week'
p1291
asg27
(lp1292
g1278
ag1279
ag1280
ag1281
ag1282
ag1283
ag1284
ag1285
ag1286
ag1287
ag1288
ag1289
ag1290
ag1291
asba(iMeme
Meme
p1293
(dp1294
g3
(lp1295
S'If'
p1296
aS'you'
p1297
aS'did'
p1298
aS"n't"
p1299
aS'want'
p1300
aS'me'
p1301
aS'to'
p1302
aS'yell'
p1303
aS'expletives'
p1304
aS'at'
p1305
aS'you'
p1306
asg12
S"If you didn't want me to yell expletives at you "
p1307
sg14
S' then you should have fixed the fucking problem on one of the four previous calls '
p1308
sg16
Vcaptain-hindsight
p1309
sg18
(lp1310
g1296
ag1297
ag1298
ag1299
ag1300
ag1301
ag1302
ag1303
ag1304
ag1305
ag1306
aS'then'
p1311
aS'you'
p1312
aS'should'
p1313
aS'have'
p1314
aS'fixed'
p1315
aS'the'
p1316
aS'fucking'
p1317
aS'problem'
p1318
aS'on'
p1319
aS'one'
p1320
aS'of'
p1321
aS'the'
p1322
aS'four'
p1323
aS'previous'
p1324
aS'calls'
p1325
asg27
(lp1326
g1311
ag1312
ag1313
ag1314
ag1315
ag1316
ag1317
ag1318
ag1319
ag1320
ag1321
ag1322
ag1323
ag1324
ag1325
asba(iMeme
Meme
p1327
(dp1328
g3
(lp1329
S'If'
p1330
aS'you'
p1331
aS'did'
p1332
aS"n't"
p1333
aS'want'
p1334
aS'to'
p1335
aS'get'
p1336
aS'up'
p1337
asg12
S"If you didn't want to get up "
p1338
sg14
S' You should not have sat next to me on the bus '
p1339
sg16
Vcaptain-hindsight
p1340
sg18
(lp1341
g1330
ag1331
ag1332
ag1333
ag1334
ag1335
ag1336
ag1337
aS'You'
p1342
aS'should'
p1343
aS'not'
p1344
aS'have'
p1345
aS'sat'
p1346
aS'next'
p1347
aS'to'
p1348
aS'me'
p1349
aS'on'
p1350
aS'the'
p1351
aS'bus'
p1352
asg27
(lp1353
g1342
ag1343
ag1344
ag1345
ag1346
ag1347
ag1348
ag1349
ag1350
ag1351
ag1352
asba(iMeme
Meme
p1354
(dp1355
g3
(lp1356
S'If'
p1357
aS'you'
p1358
aS'want'
p1359
aS'men'
p1360
aS'to'
p1361
aS'take'
p1362
aS'you'
p1363
aS'seriously'
p1364
ag131
asg12
S'If you want men to take you seriously, '
p1365
sg14
S' you should have majored in something besides woman studies   '
p1366
sg16
Vcaptain-hindsight
p1367
sg18
(lp1368
g1357
ag1358
ag1359
ag1360
ag1361
ag1362
ag1363
ag1364
ag131
aS'you'
p1369
aS'should'
p1370
aS'have'
p1371
aS'majored'
p1372
aS'in'
p1373
aS'something'
p1374
aS'besides'
p1375
aS'woman'
p1376
aS'studies'
p1377
asg27
(lp1378
g1369
ag1370
ag1371
ag1372
ag1373
ag1374
ag1375
ag1376
ag1377
asba(iMeme
Meme
p1379
(dp1380
g3
(lp1381
S'If'
p1382
aS'you'
p1383
aS'did'
p1384
aS"n't"
p1385
aS'want'
p1386
aS'me'
p1387
aS'to'
p1388
aS'skip'
p1389
aS'so'
p1390
aS'many'
p1391
aS'songs'
p1392
asg12
S"If you didn't want me to skip so many songs "
p1393
sg14
S" you shouldn't play so much shitty music "
p1394
sg16
Vcaptain-hindsight
p1395
sg18
(lp1396
g1382
ag1383
ag1384
ag1385
ag1386
ag1387
ag1388
ag1389
ag1390
ag1391
ag1392
aS'you'
p1397
aS'should'
p1398
aS"n't"
p1399
aS'play'
p1400
aS'so'
p1401
aS'much'
p1402
aS'shitty'
p1403
aS'music'
p1404
asg27
(lp1405
g1397
ag1398
ag1399
ag1400
ag1401
ag1402
ag1403
ag1404
asba(iMeme
Meme
p1406
(dp1407
g3
(lp1408
S'If'
p1409
aS'you'
p1410
aS'did'
p1411
aS"n't"
p1412
aS'want'
p1413
aS'me'
p1414
aS'to'
p1415
aS'hit'
p1416
aS'on'
p1417
aS'you'
p1418
asg12
S"If you didn't want me to hit on you "
p1419
sg14
S" you shouldn't have sent me nude pictures of yourself  "
p1420
sg16
Vcaptain-hindsight
p1421
sg18
(lp1422
g1409
ag1410
ag1411
ag1412
ag1413
ag1414
ag1415
ag1416
ag1417
ag1418
aS'you'
p1423
aS'should'
p1424
aS"n't"
p1425
aS'have'
p1426
aS'sent'
p1427
aS'me'
p1428
aS'nude'
p1429
aS'pictures'
p1430
aS'of'
p1431
aS'yourself'
p1432
asg27
(lp1433
g1423
ag1424
ag1425
ag1426
ag1427
ag1428
ag1429
ag1430
ag1431
ag1432
asba(iMeme
Meme
p1434
(dp1435
g3
(lp1436
S'dudes'
p1437
aS'be'
p1438
aS'like'
p1439
asg12
S'dudes be like '
p1440
sg14
S' im comming holy crap i broke a sweat let me rest '
p1441
sg16
Vcaptain-hindsight
p1442
sg18
(lp1443
g1437
ag1438
ag1439
aS'im'
p1444
aS'comming'
p1445
aS'holy'
p1446
aS'crap'
p1447
aS'i'
p1448
aS'broke'
p1449
ag25
aS'sweat'
p1450
aS'let'
p1451
aS'me'
p1452
aS'rest'
p1453
asg27
(lp1454
g1444
ag1445
ag1446
ag1447
ag1448
ag1449
ag25
ag1450
ag1451
ag1452
ag1453
asba(iMeme
Meme
p1455
(dp1456
g3
(lp1457
S'If'
p1458
aS'you'
p1459
aS'are'
p1460
aS'avoiding'
p1461
aS'NSFW'
p1462
aS'posts'
p1463
aS'at'
p1464
aS'work'
p1465
asg12
S'If you are avoiding NSFW posts at work '
p1466
sg14
S" You shouldn't be on 4chan "
p1467
sg16
Vcaptain-hindsight
p1468
sg18
(lp1469
g1458
ag1459
ag1460
ag1461
ag1462
ag1463
ag1464
ag1465
aS'You'
p1470
aS'should'
p1471
aS"n't"
p1472
aS'be'
p1473
aS'on'
p1474
aS'4chan'
p1475
asg27
(lp1476
g1470
ag1471
ag1472
ag1473
ag1474
ag1475
asba(iMeme
Meme
p1477
(dp1478
g3
(lp1479
S'If'
p1480
aS'you'
p1481
aS'did'
p1482
aS"n't"
p1483
aS'want'
p1484
aS'your'
p1485
aS'food'
p1486
aS'to'
p1487
aS'taste'
p1488
aS'like'
p1489
aS'shit'
p1490
asg12
S"If you didn't want your food to taste like shit "
p1491
sg14
S" You shouldn't have treated the people who work at the restaurant like shit "
p1492
sg16
Vcaptain-hindsight
p1493
sg18
(lp1494
g1480
ag1481
ag1482
ag1483
ag1484
ag1485
ag1486
ag1487
ag1488
ag1489
ag1490
aS'You'
p1495
aS'should'
p1496
aS"n't"
p1497
aS'have'
p1498
aS'treated'
p1499
aS'the'
p1500
aS'people'
p1501
aS'who'
p1502
aS'work'
p1503
aS'at'
p1504
aS'the'
p1505
aS'restaurant'
p1506
aS'like'
p1507
aS'shit'
p1508
asg27
(lp1509
g1495
ag1496
ag1497
ag1498
ag1499
ag1500
ag1501
ag1502
ag1503
ag1504
ag1505
ag1506
ag1507
ag1508
asba(iMeme
Meme
p1510
(dp1511
g3
(lp1512
S'If'
p1513
ag1448
aS'wanted'
p1514
aS'to'
p1515
aS'sleep'
p1516
asg12
S'If i wanted to sleep '
p1517
sg14
S" i shouldn't have drank alot then watched a horror movie alone "
p1518
sg16
Vcaptain-hindsight
p1519
sg18
(lp1520
g1513
ag1448
ag1514
ag1515
ag1516
ag1448
aS'should'
p1521
aS"n't"
p1522
aS'have'
p1523
aS'drank'
p1524
aS'alot'
p1525
aS'then'
p1526
aS'watched'
p1527
ag25
aS'horror'
p1528
aS'movie'
p1529
aS'alone'
p1530
asg27
(lp1531
g1448
ag1521
ag1522
ag1523
ag1524
ag1525
ag1526
ag1527
ag25
ag1528
ag1529
ag1530
asba(iMeme
Meme
p1532
(dp1533
g3
(lp1534
S'if'
p1535
aS'dc'
p1536
aS'wanted'
p1537
aS'to'
p1538
aS'score'
p1539
aS'goals'
p1540
ag131
asg12
S'if dc wanted to score goals, '
p1541
sg14
S" they shouldn't have sold najar, santos, and salihi "
p1542
sg16
Vcaptain-hindsight
p1543
sg18
(lp1544
g1535
ag1536
ag1537
ag1538
ag1539
ag1540
ag131
aS'they'
p1545
aS'should'
p1546
aS"n't"
p1547
aS'have'
p1548
aS'sold'
p1549
aS'najar'
p1550
ag131
aS'santos'
p1551
ag131
aS'and'
p1552
aS'salihi'
p1553
asg27
(lp1554
g1545
ag1546
ag1547
ag1548
ag1549
ag1550
ag131
ag1551
ag131
ag1552
ag1553
asba(iMeme
Meme
p1555
(dp1556
g3
(lp1557
S'Psy'
p1558
aS'wrote'
p1559
ag25
aS'song'
p1560
aS'called'
p1561
ag1448
aS'love'
p1562
aS'sexx'
p1563
asg12
S'Psy wrote a song called i love sexx '
p1564
sg14
S' Stupid title for a song '
p1565
sg16
Vcaptain-hindsight
p1566
sg18
(lp1567
g1558
ag1559
ag25
ag1560
ag1561
ag1448
ag1562
ag1563
aS'Stupid'
p1568
aS'title'
p1569
aS'for'
p1570
ag25
aS'song'
p1571
asg27
(lp1572
g1568
ag1569
ag1570
ag25
ag1571
asba(iMeme
Meme
p1573
(dp1574
g3
(lp1575
S'If'
p1576
aS'you'
p1577
aS'wanted'
p1578
aS'someone'
p1579
aS'to'
p1580
aS'give'
p1581
ag25
aS'heartfelt'
p1582
aS'speach'
p1583
aS'about'
p1584
ag25
aS'senior'
p1585
asg12
S'If you wanted someone to give a heartfelt speach about a senior '
p1586
sg14
S" you shouldn't have let the most self"
p1587
sg16
Vcaptain-hindsight
p1588
sg18
(lp1589
g1576
ag1577
ag1578
ag1579
ag1580
ag1581
ag25
ag1582
ag1583
ag1584
ag25
ag1585
aS'you'
p1590
aS'should'
p1591
aS"n't"
p1592
aS'have'
p1593
aS'let'
p1594
aS'the'
p1595
aS'most'
p1596
aS'self'
p1597
asg27
(lp1598
g1590
ag1591
ag1592
ag1593
ag1594
ag1595
ag1596
ag1597
asba(iMeme
Meme
p1599
(dp1600
g3
(lp1601
S'If'
p1602
aS'you'
p1603
aS'want'
p1604
aS'me'
p1605
aS'to'
p1606
aS'take'
p1607
aS'you'
p1608
aS'seriously'
p1609
ag131
asg12
S'If you want me to take you seriously, '
p1610
sg14
S' you should have majored in something other than woman studies  '
p1611
sg16
Vcaptain-hindsight
p1612
sg18
(lp1613
g1602
ag1603
ag1604
ag1605
ag1606
ag1607
ag1608
ag1609
ag131
aS'you'
p1614
aS'should'
p1615
aS'have'
p1616
aS'majored'
p1617
aS'in'
p1618
aS'something'
p1619
aS'other'
p1620
aS'than'
p1621
aS'woman'
p1622
aS'studies'
p1623
asg27
(lp1624
g1614
ag1615
ag1616
ag1617
ag1618
ag1619
ag1620
ag1621
ag1622
ag1623
asba(iMeme
Meme
p1625
(dp1626
g3
(lp1627
S'If'
p1628
aS'you'
p1629
aS'did'
p1630
aS"n't"
p1631
aS'want'
p1632
aS'to'
p1633
aS'loose'
p1634
aS'hills'
p1635
asg12
S"If you didn't want to loose hills  "
p1636
sg14
S' you should have built arrowcarts '
p1637
sg16
Vcaptain-hindsight
p1638
sg18
(lp1639
g1628
ag1629
ag1630
ag1631
ag1632
ag1633
ag1634
ag1635
aS'you'
p1640
aS'should'
p1641
aS'have'
p1642
aS'built'
p1643
aS'arrowcarts'
p1644
asg27
(lp1645
g1640
ag1641
ag1642
ag1643
ag1644
asba(iMeme
Meme
p1646
(dp1647
g3
(lp1648
S'If'
p1649
aS'you'
p1650
aS'want'
p1651
aS'men'
p1652
aS'to'
p1653
aS'take'
p1654
aS'you'
p1655
aS'seriously'
p1656
ag131
asg12
S'If you want men to take you seriously, '
p1657
sg14
S' you should have majored in something other than woman studies  '
p1658
sg16
Vcaptain-hindsight
p1659
sg18
(lp1660
g1649
ag1650
ag1651
ag1652
ag1653
ag1654
ag1655
ag1656
ag131
aS'you'
p1661
aS'should'
p1662
aS'have'
p1663
aS'majored'
p1664
aS'in'
p1665
aS'something'
p1666
aS'other'
p1667
aS'than'
p1668
aS'woman'
p1669
aS'studies'
p1670
asg27
(lp1671
g1661
ag1662
ag1663
ag1664
ag1665
ag1666
ag1667
ag1668
ag1669
ag1670
asba(iMeme
Meme
p1672
(dp1673
g3
(lp1674
S'If'
p1675
aS'you'
p1676
aS'wanted'
p1677
aS'us'
p1678
aS'to'
p1679
aS'stay'
p1680
aS'friends'
p1681
asg12
S'If you wanted us to stay friends '
p1682
sg14
S" Then maybe you shouldn't have been such a backstabbing bitch "
p1683
sg16
Vcaptain-hindsight
p1684
sg18
(lp1685
g1675
ag1676
ag1677
ag1678
ag1679
ag1680
ag1681
aS'Then'
p1686
aS'maybe'
p1687
aS'you'
p1688
aS'should'
p1689
aS"n't"
p1690
aS'have'
p1691
aS'been'
p1692
aS'such'
p1693
ag25
aS'backstabbing'
p1694
aS'bitch'
p1695
asg27
(lp1696
g1686
ag1687
ag1688
ag1689
ag1690
ag1691
ag1692
ag1693
ag25
ag1694
ag1695
asba(iMeme
Meme
p1697
(dp1698
g3
(lp1699
S'Never'
p1700
aS'fear'
p1701
asg12
S'Never fear '
p1702
sg14
S' Cloutmann is here! '
p1703
sg16
Vcaptain-hindsight
p1704
sg18
(lp1705
g1700
ag1701
aS'Cloutmann'
p1706
aS'is'
p1707
aS'here'
p1708
ag427
asg27
(lp1709
g1706
ag1707
ag1708
ag427
asba(iMeme
Meme
p1710
(dp1711
g3
(lp1712
S'If'
p1713
aS'they'
p1714
aS'did'
p1715
aS"n't"
p1716
aS'want'
p1717
aS'us'
p1718
aS'to'
p1719
aS'fap'
p1720
aS'at'
p1721
aS'work'
p1722
asg12
S"If they didn't want us to fap at work "
p1723
sg14
S" Then they shouldn't have invented the internet. "
p1724
sg16
Vcaptain-hindsight
p1725
sg18
(lp1726
g1713
ag1714
ag1715
ag1716
ag1717
ag1718
ag1719
ag1720
ag1721
ag1722
aS'Then'
p1727
aS'they'
p1728
aS'should'
p1729
aS"n't"
p1730
aS'have'
p1731
aS'invented'
p1732
aS'the'
p1733
aS'internet'
p1734
ag192
asg27
(lp1735
g1727
ag1728
ag1729
ag1730
ag1731
ag1732
ag1733
ag1734
ag192
asba(iMeme
Meme
p1736
(dp1737
g3
(lp1738
S'If'
p1739
aS'you'
p1740
aS'always'
p1741
aS'complain'
p1742
aS'about'
p1743
aS'being'
p1744
aS'too'
p1745
aS'nice'
p1746
aS'so'
p1747
aS'girls'
p1748
aS'do'
p1749
aS"n't"
p1750
aS'like'
p1751
aS'you'
p1752
asg12
S"If you always complain about being too nice so girls don't like you "
p1753
sg14
S" You're gonna have a bad time "
p1754
sg16
Vcaptain-hindsight
p1755
sg18
(lp1756
g1739
ag1740
ag1741
ag1742
ag1743
ag1744
ag1745
ag1746
ag1747
ag1748
ag1749
ag1750
ag1751
ag1752
aS'You'
p1757
aS"'re"
p1758
aS'gon'
p1759
aS'na'
p1760
aS'have'
p1761
ag25
aS'bad'
p1762
aS'time'
p1763
asg27
(lp1764
g1757
ag1758
ag1759
ag1760
ag1761
ag25
ag1762
ag1763
asba(iMeme
Meme
p1765
(dp1766
g3
(lp1767
S'If'
p1768
aS'you'
p1769
aS'wanted'
p1770
aS'to'
p1771
aS'stay'
p1772
aS'in'
p1773
aS'contact'
p1774
aS'with'
p1775
aS'me'
p1776
asg12
S'If you wanted to stay in contact with me '
p1777
sg14
S' you shouldnt have treated me like a piece of shit! '
p1778
sg16
Vcaptain-hindsight
p1779
sg18
(lp1780
g1768
ag1769
ag1770
ag1771
ag1772
ag1773
ag1774
ag1775
ag1776
aS'you'
p1781
aS'shouldnt'
p1782
aS'have'
p1783
aS'treated'
p1784
aS'me'
p1785
aS'like'
p1786
ag25
aS'piece'
p1787
aS'of'
p1788
aS'shit'
p1789
ag427
asg27
(lp1790
g1781
ag1782
ag1783
ag1784
ag1785
ag1786
ag25
ag1787
ag1788
ag1789
ag427
asba(iMeme
Meme
p1791
(dp1792
g3
(lp1793
S'If'
p1794
aS'you'
p1795
aS'wanted'
p1796
aS'to'
p1797
aS'stay'
p1798
aS'in'
p1799
aS'contact'
p1800
aS'with'
p1801
aS'me'
p1802
asg12
S'If you wanted to stay in contact with me '
p1803
sg14
S' you shouldnt have treated me like shit! '
p1804
sg16
Vcaptain-hindsight
p1805
sg18
(lp1806
g1794
ag1795
ag1796
ag1797
ag1798
ag1799
ag1800
ag1801
ag1802
aS'you'
p1807
aS'shouldnt'
p1808
aS'have'
p1809
aS'treated'
p1810
aS'me'
p1811
aS'like'
p1812
aS'shit'
p1813
ag427
asg27
(lp1814
g1807
ag1808
ag1809
ag1810
ag1811
ag1812
ag1813
ag427
asba(iMeme
Meme
p1815
(dp1816
g3
(lp1817
S'If'
p1818
aS'you'
p1819
aS'wanted'
p1820
aS'to'
p1821
aS'do'
p1822
ag25
aS'masters'
p1823
asg12
S'If you wanted to do a masters '
p1824
sg14
S' should of done better in the exams '
p1825
sg16
Vcaptain-hindsight
p1826
sg18
(lp1827
g1818
ag1819
ag1820
ag1821
ag1822
ag25
ag1823
aS'should'
p1828
aS'of'
p1829
aS'done'
p1830
aS'better'
p1831
aS'in'
p1832
aS'the'
p1833
aS'exams'
p1834
asg27
(lp1835
g1828
ag1829
ag1830
ag1831
ag1832
ag1833
ag1834
asba(iMeme
Meme
p1836
(dp1837
g3
(lp1838
S'If'
p1839
aS'you'
p1840
aS'did'
p1841
aS'not'
p1842
aS'want'
p1843
aS'to'
p1844
aS'get'
p1845
aS'hurt'
p1846
asg12
S'If you did not want to get hurt '
p1847
sg14
S' You should not have attacked that dog that is twice as big as you are '
p1848
sg16
Vcaptain-hindsight
p1849
sg18
(lp1850
g1839
ag1840
ag1841
ag1842
ag1843
ag1844
ag1845
ag1846
aS'You'
p1851
aS'should'
p1852
aS'not'
p1853
aS'have'
p1854
aS'attacked'
p1855
aS'that'
p1856
aS'dog'
p1857
aS'that'
p1858
aS'is'
p1859
aS'twice'
p1860
aS'as'
p1861
aS'big'
p1862
aS'as'
p1863
aS'you'
p1864
aS'are'
p1865
asg27
(lp1866
g1851
ag1852
ag1853
ag1854
ag1855
ag1856
ag1857
ag1858
ag1859
ag1860
ag1861
ag1862
ag1863
ag1864
ag1865
asba(iMeme
Meme
p1867
(dp1868
g3
(lp1869
S'If'
p1870
aS'you'
p1871
aS'wanted'
p1872
aS'to'
p1873
aS'stay'
p1874
aS'friends'
p1875
asg12
S'If you wanted to stay friends '
p1876
sg14
S' you shouldnt have treated me like a piece of shit! '
p1877
sg16
Vcaptain-hindsight
p1878
sg18
(lp1879
g1870
ag1871
ag1872
ag1873
ag1874
ag1875
aS'you'
p1880
aS'shouldnt'
p1881
aS'have'
p1882
aS'treated'
p1883
aS'me'
p1884
aS'like'
p1885
ag25
aS'piece'
p1886
aS'of'
p1887
aS'shit'
p1888
ag427
asg27
(lp1889
g1880
ag1881
ag1882
ag1883
ag1884
ag1885
ag25
ag1886
ag1887
ag1888
ag427
asba(iMeme
Meme
p1890
(dp1891
g3
(lp1892
S'if'
p1893
aS'you'
p1894
aS'did'
p1895
aS"n't"
p1896
aS'want'
p1897
aS'me'
p1898
aS'to'
p1899
aS'call'
p1900
aS'you'
p1901
aS'an'
p1902
aS'ugly'
p1903
aS'bitch'
p1904
asg12
S"if you didn't want me to call you an ugly bitch "
p1905
sg14
S" you shouldn't have yelled at me for calling you beautiful. fuck you. "
p1906
sg16
Vcaptain-hindsight
p1907
sg18
(lp1908
g1893
ag1894
ag1895
ag1896
ag1897
ag1898
ag1899
ag1900
ag1901
ag1902
ag1903
ag1904
aS'you'
p1909
aS'should'
p1910
aS"n't"
p1911
aS'have'
p1912
aS'yelled'
p1913
aS'at'
p1914
aS'me'
p1915
aS'for'
p1916
aS'calling'
p1917
aS'you'
p1918
aS'beautiful'
p1919
ag192
aS'fuck'
p1920
aS'you'
p1921
ag192
asg27
(lp1922
g1909
ag1910
ag1911
ag1912
ag1913
ag1914
ag1915
ag1916
ag1917
ag1918
ag1919
ag192
ag1920
ag1921
ag192
asba(iMeme
Meme
p1923
(dp1924
g3
(lp1925
S'If'
p1926
aS'you'
p1927
aS'did'
p1928
aS"n't"
p1929
aS'want'
p1930
aS'me'
p1931
aS'to'
p1932
aS'look'
p1933
aS'at'
p1934
aS'your'
p1935
aS'ass'
p1936
asg12
S"If you didn't want me to look at your ass "
p1937
sg14
S" then you shouldn't have been wearing hotpants "
p1938
sg16
Vcaptain-hindsight
p1939
sg18
(lp1940
g1926
ag1927
ag1928
ag1929
ag1930
ag1931
ag1932
ag1933
ag1934
ag1935
ag1936
aS'then'
p1941
aS'you'
p1942
aS'should'
p1943
aS"n't"
p1944
aS'have'
p1945
aS'been'
p1946
aS'wearing'
p1947
aS'hotpants'
p1948
asg27
(lp1949
g1941
ag1942
ag1943
ag1944
ag1945
ag1946
ag1947
ag1948
asba(iMeme
Meme
p1950
(dp1951
g3
(lp1952
S'If'
p1953
aS'you'
p1954
aS'eat'
p1955
aS'more'
p1956
aS'than'
p1957
aS'one'
p1958
aS'Fiber'
p1959
aS'Bar'
p1960
aS'in'
p1961
aS'the'
p1962
aS'morning'
p1963
asg12
S'If you eat more than one Fiber Bar in the morning '
p1964
sg14
S' You are gonna have a long, hard, painful, grueling time '
p1965
sg16
Vcaptain-hindsight
p1966
sg18
(lp1967
g1953
ag1954
ag1955
ag1956
ag1957
ag1958
ag1959
ag1960
ag1961
ag1962
ag1963
aS'You'
p1968
aS'are'
p1969
aS'gon'
p1970
aS'na'
p1971
aS'have'
p1972
ag25
aS'long'
p1973
ag131
aS'hard'
p1974
ag131
aS'painful'
p1975
ag131
aS'grueling'
p1976
aS'time'
p1977
asg27
(lp1978
g1968
ag1969
ag1970
ag1971
ag1972
ag25
ag1973
ag131
ag1974
ag131
ag1975
ag131
ag1976
ag1977
asba(iMeme
Meme
p1979
(dp1980
g3
(lp1981
S'If'
p1982
aS'you'
p1983
aS'wanted'
p1984
aS'us'
p1985
aS'to'
p1986
aS'stay'
p1987
aS'friends'
p1988
asg12
S'If you wanted us to stay friends '
p1989
sg14
S" Then you shouldn't have been such a backstabbing bitch "
p1990
sg16
Vcaptain-hindsight
p1991
sg18
(lp1992
g1982
ag1983
ag1984
ag1985
ag1986
ag1987
ag1988
aS'Then'
p1993
aS'you'
p1994
aS'should'
p1995
aS"n't"
p1996
aS'have'
p1997
aS'been'
p1998
aS'such'
p1999
ag25
aS'backstabbing'
p2000
aS'bitch'
p2001
asg27
(lp2002
g1993
ag1994
ag1995
ag1996
ag1997
ag1998
ag1999
ag25
ag2000
ag2001
asba(iMeme
Meme
p2003
(dp2004
g3
(lp2005
S'if'
p2006
aS'you'
p2007
aS'did'
p2008
aS"n't"
p2009
aS'want'
p2010
aS'me'
p2011
aS'to'
p2012
aS'hit'
p2013
aS'on'
p2014
aS'you'
p2015
asg12
S"if you didn't want me to hit on you "
p2016
sg14
S" you shouldn't have made eye contact with me that one time in chemistry "
p2017
sg16
Vcaptain-hindsight
p2018
sg18
(lp2019
g2006
ag2007
ag2008
ag2009
ag2010
ag2011
ag2012
ag2013
ag2014
ag2015
aS'you'
p2020
aS'should'
p2021
aS"n't"
p2022
aS'have'
p2023
aS'made'
p2024
aS'eye'
p2025
aS'contact'
p2026
aS'with'
p2027
aS'me'
p2028
aS'that'
p2029
aS'one'
p2030
aS'time'
p2031
aS'in'
p2032
aS'chemistry'
p2033
asg27
(lp2034
g2020
ag2021
ag2022
ag2023
ag2024
ag2025
ag2026
ag2027
ag2028
ag2029
ag2030
ag2031
ag2032
ag2033
asba(iMeme
Meme
p2035
(dp2036
g3
(lp2037
S'FOR'
p2038
aS'KATE'
p2039
asg12
S'FOR KATE '
p2040
sg14
S" IF YOU DIDn't do your pelvic floor exercises "
p2041
sg16
Vcaptain-hindsight
p2042
sg18
(lp2043
g2038
ag2039
aS'IF'
p2044
aS'YOU'
p2045
aS'DID'
p2046
aS"n't"
p2047
aS'do'
p2048
aS'your'
p2049
aS'pelvic'
p2050
aS'floor'
p2051
aS'exercises'
p2052
asg27
(lp2053
g2044
ag2045
ag2046
ag2047
ag2048
ag2049
ag2050
ag2051
ag2052
asba(iMeme
Meme
p2054
(dp2055
g3
(lp2056
S'If'
p2057
aS'you'
p2058
aS'did'
p2059
aS'not'
p2060
aS'want'
p2061
aS'to'
p2062
aS'get'
p2063
aS'hurt'
p2064
asg12
S'If you did not want to get hurt '
p2065
sg14
S' you should not have attacked that dog that is two times as big as you are '
p2066
sg16
Vcaptain-hindsight
p2067
sg18
(lp2068
g2057
ag2058
ag2059
ag2060
ag2061
ag2062
ag2063
ag2064
aS'you'
p2069
aS'should'
p2070
aS'not'
p2071
aS'have'
p2072
aS'attacked'
p2073
aS'that'
p2074
aS'dog'
p2075
aS'that'
p2076
aS'is'
p2077
aS'two'
p2078
aS'times'
p2079
aS'as'
p2080
aS'big'
p2081
aS'as'
p2082
aS'you'
p2083
aS'are'
p2084
asg27
(lp2085
g2069
ag2070
ag2071
ag2072
ag2073
ag2074
ag2075
ag2076
ag2077
ag2078
ag2079
ag2080
ag2081
ag2082
ag2083
ag2084
asba(iMeme
Meme
p2086
(dp2087
g3
(lp2088
S'If'
p2089
aS'you'
p2090
aS'did'
p2091
aS"n't"
p2092
aS'want'
p2093
aS'to'
p2094
aS'miss'
p2095
aS'your'
p2096
aS'flight'
p2097
asg12
S"If you didn't want to miss your flight "
p2098
sg14
S' You should not have waited until the day of your trip to get a passport. '
p2099
sg16
Vcaptain-hindsight
p2100
sg18
(lp2101
g2089
ag2090
ag2091
ag2092
ag2093
ag2094
ag2095
ag2096
ag2097
aS'You'
p2102
aS'should'
p2103
aS'not'
p2104
aS'have'
p2105
aS'waited'
p2106
aS'until'
p2107
aS'the'
p2108
aS'day'
p2109
aS'of'
p2110
aS'your'
p2111
aS'trip'
p2112
aS'to'
p2113
aS'get'
p2114
ag25
aS'passport'
p2115
ag192
asg27
(lp2116
g2102
ag2103
ag2104
ag2105
ag2106
ag2107
ag2108
ag2109
ag2110
ag2111
ag2112
ag2113
ag2114
ag25
ag2115
ag192
asba(iMeme
Meme
p2117
(dp2118
g3
(lp2119
S'If'
p2120
aS'you'
p2121
aS'wanted'
p2122
aS'programmers'
p2123
aS'to'
p2124
aS'like'
p2125
aS'chrome'
p2126
asg12
S'If you wanted programmers to like chrome '
p2127
sg14
S' You should have implemented visibility:collapse on table rows like every other browser '
p2128
sg16
Vcaptain-hindsight
p2129
sg18
(lp2130
g2120
ag2121
ag2122
ag2123
ag2124
ag2125
ag2126
aS'You'
p2131
aS'should'
p2132
aS'have'
p2133
aS'implemented'
p2134
aS'visibility'
p2135
aS':'
p2136
aS'collapse'
p2137
aS'on'
p2138
aS'table'
p2139
aS'rows'
p2140
aS'like'
p2141
aS'every'
p2142
aS'other'
p2143
aS'browser'
p2144
asg27
(lp2145
g2131
ag2132
ag2133
ag2134
ag2135
ag2136
ag2137
ag2138
ag2139
ag2140
ag2141
ag2142
ag2143
ag2144
asba(iMeme
Meme
p2146
(dp2147
g3
(lp2148
S'I'
p2149
aS'really'
p2150
aS'shoulda'
p2151
aS'stopped'
p2152
aS'them'
p2153
asg12
S'I really shoulda stopped them '
p2154
sg14
S' from shooting themselves '
p2155
sg16
Vcaptain-hindsight
p2156
sg18
(lp2157
g2149
ag2150
ag2151
ag2152
ag2153
aS'from'
p2158
aS'shooting'
p2159
aS'themselves'
p2160
asg27
(lp2161
g2158
ag2159
ag2160
asba(iMeme
Meme
p2162
(dp2163
g3
(lp2164
S'if'
p2165
aS'you'
p2166
aS'did'
p2167
aS"n't"
p2168
aS'want'
p2169
aS'to'
p2170
aS'Loose'
p2171
aS'garri'
p2172
asg12
S"if you didn't want to Loose garri "
p2173
sg14
S' you should have built arrowcarts '
p2174
sg16
Vcaptain-hindsight
p2175
sg18
(lp2176
g2165
ag2166
ag2167
ag2168
ag2169
ag2170
ag2171
ag2172
aS'you'
p2177
aS'should'
p2178
aS'have'
p2179
aS'built'
p2180
aS'arrowcarts'
p2181
asg27
(lp2182
g2177
ag2178
ag2179
ag2180
ag2181
asba(iMeme
Meme
p2183
(dp2184
g3
(lp2185
S'If'
p2186
aS'you'
p2187
aS'want'
p2188
aS'men'
p2189
aS'to'
p2190
aS'take'
p2191
aS'you'
p2192
aS'seriously'
p2193
ag131
asg12
S'If you want men to take you seriously, '
p2194
sg14
S' you should have majored in something besides woman studies   '
p2195
sg16
Vcaptain-hindsight
p2196
sg18
(lp2197
g2186
ag2187
ag2188
ag2189
ag2190
ag2191
ag2192
ag2193
ag131
aS'you'
p2198
aS'should'
p2199
aS'have'
p2200
aS'majored'
p2201
aS'in'
p2202
aS'something'
p2203
aS'besides'
p2204
aS'woman'
p2205
aS'studies'
p2206
asg27
(lp2207
g2198
ag2199
ag2200
ag2201
ag2202
ag2203
ag2204
ag2205
ag2206
asba(iMeme
Meme
p2208
(dp2209
g3
(lp2210
S'it'
p2211
aS'was'
p2212
ag25
aS'joke'
p2213
asg12
S'it was a joke '
p2214
sg14
S'  '
p2215
sg16
Vcaptain-hindsight
p2216
sg18
(lp2217
g2211
ag2212
ag25
ag2213
asg27
(lp2218
sba(iMeme
Meme
p2219
(dp2220
g3
(lp2221
S'if'
p2222
aS'you'
p2223
aS'Did'
p2224
aS"n't"
p2225
aS'want'
p2226
aS'to'
p2227
aS'lose'
p2228
aS'hills'
p2229
asg12
S"if you Didn't want to lose hills "
p2230
sg14
S' you should have built arrow carts '
p2231
sg16
Vcaptain-hindsight
p2232
sg18
(lp2233
g2222
ag2223
ag2224
ag2225
ag2226
ag2227
ag2228
ag2229
aS'you'
p2234
aS'should'
p2235
aS'have'
p2236
aS'built'
p2237
aS'arrow'
p2238
aS'carts'
p2239
asg27
(lp2240
g2234
ag2235
ag2236
ag2237
ag2238
ag2239
asba(iMeme
Meme
p2241
(dp2242
g3
(lp2243
S'If'
p2244
aS'you'
p2245
aS'wanted'
p2246
aS'to'
p2247
aS'support'
p2248
aS'yourself'
p2249
aS'and'
p2250
ag25
aS'family'
p2251
asg12
S'If you wanted to support yourself and a family '
p2252
sg14
S' you should not have chosen a career in fast food. '
p2253
sg16
Vcaptain-hindsight
p2254
sg18
(lp2255
g2244
ag2245
ag2246
ag2247
ag2248
ag2249
ag2250
ag25
ag2251
aS'you'
p2256
aS'should'
p2257
aS'not'
p2258
aS'have'
p2259
aS'chosen'
p2260
ag25
aS'career'
p2261
aS'in'
p2262
aS'fast'
p2263
aS'food'
p2264
ag192
asg27
(lp2265
g2256
ag2257
ag2258
ag2259
ag2260
ag25
ag2261
ag2262
ag2263
ag2264
ag192
asba(iMeme
Meme
p2266
(dp2267
g3
(lp2268
S'If'
p2269
aS'you'
p2270
aS'want'
p2271
aS'men'
p2272
aS'to'
p2273
aS'take'
p2274
aS'you'
p2275
aS'seriously'
p2276
ag131
asg12
S'If you want men to take you seriously, '
p2277
sg14
S' you should have majored in something besides woman studies   '
p2278
sg16
Vcaptain-hindsight
p2279
sg18
(lp2280
g2269
ag2270
ag2271
ag2272
ag2273
ag2274
ag2275
ag2276
ag131
aS'you'
p2281
aS'should'
p2282
aS'have'
p2283
aS'majored'
p2284
aS'in'
p2285
aS'something'
p2286
aS'besides'
p2287
aS'woman'
p2288
aS'studies'
p2289
asg27
(lp2290
g2281
ag2282
ag2283
ag2284
ag2285
ag2286
ag2287
ag2288
ag2289
asba(iMeme
Meme
p2291
(dp2292
g3
(lp2293
S'Captian'
p2294
aS'Hindsight'
p2295
asg12
S'Captian Hindsight '
p2296
sg14
S' is funniest maymee on the intertroll '
p2297
sg16
Vcaptain-hindsight
p2298
sg18
(lp2299
g2294
ag2295
aS'is'
p2300
aS'funniest'
p2301
aS'maymee'
p2302
aS'on'
p2303
aS'the'
p2304
aS'intertroll'
p2305
asg27
(lp2306
g2300
ag2301
ag2302
ag2303
ag2304
ag2305
asba(iMeme
Meme
p2307
(dp2308
g3
(lp2309
S'somebottis'
p2310
asg12
S'somebottis '
p2311
sg14
S' boupt to die '
p2312
sg16
Vcaptain-hindsight
p2313
sg18
(lp2314
g2310
aS'boupt'
p2315
aS'to'
p2316
aS'die'
p2317
asg27
(lp2318
g2315
ag2316
ag2317
asba(iMeme
Meme
p2319
(dp2320
g3
(lp2321
S'Hey'
p2322
aS'people'
p2323
aS'look'
p2324
aS'at'
p2325
aS'my'
p2326
aS'finger'
p2327
asg12
S'Hey people look at my finger '
p2328
sg14
S' it was up my nose'
p2329
sg16
Vcaptain-hindsight
p2330
sg18
(lp2331
g2322
ag2323
ag2324
ag2325
ag2326
ag2327
aS'it'
p2332
aS'was'
p2333
aS'up'
p2334
aS'my'
p2335
aS'nose'
p2336
asg27
(lp2337
g2332
ag2333
ag2334
ag2335
ag2336
asba(iMeme
Meme
p2338
(dp2339
g3
(lp2340
S'if'
p2341
aS'you'
p2342
aS'did'
p2343
aS"n't"
p2344
aS'want'
p2345
aS'me'
p2346
aS'making'
p2347
aS'memes'
p2348
asg12
S"if you didn't want me making memes "
p2349
sg14
S" you shouldn't have sent me the link to the site "
p2350
sg16
Vcaptain-hindsight
p2351
sg18
(lp2352
g2341
ag2342
ag2343
ag2344
ag2345
ag2346
ag2347
ag2348
aS'you'
p2353
aS'should'
p2354
aS"n't"
p2355
aS'have'
p2356
aS'sent'
p2357
aS'me'
p2358
aS'the'
p2359
aS'link'
p2360
aS'to'
p2361
aS'the'
p2362
aS'site'
p2363
asg27
(lp2364
g2353
ag2354
ag2355
ag2356
ag2357
ag2358
ag2359
ag2360
ag2361
ag2362
ag2363
asba(iMeme
Meme
p2365
(dp2366
g3
(lp2367
S'If'
p2368
aS'you'
p2369
aS'complain'
p2370
aS'about'
p2371
aS'OP'
p2372
aS'not'
p2373
aS'posting'
p2374
aS'NSFW'
p2375
aS'in'
p2376
aS'the'
p2377
aS'title'
p2378
asg12
S'If you complain about OP not posting NSFW in the title '
p2379
sg14
S" then you shouldn't be browsing wtf "
p2380
sg16
Vcaptain-hindsight
p2381
sg18
(lp2382
g2368
ag2369
ag2370
ag2371
ag2372
ag2373
ag2374
ag2375
ag2376
ag2377
ag2378
aS'then'
p2383
aS'you'
p2384
aS'should'
p2385
aS"n't"
p2386
aS'be'
p2387
aS'browsing'
p2388
aS'wtf'
p2389
asg27
(lp2390
g2383
ag2384
ag2385
ag2386
ag2387
ag2388
ag2389
asba(iMeme
Meme
p2391
(dp2392
g3
(lp2393
S'If'
p2394
aS'you'
p2395
aS'do'
p2396
aS"n't"
p2397
aS'want'
p2398
aS'people'
p2399
aS'confusing'
p2400
aS'your'
p2401
aS'Boyfriend'
p2402
aS'for'
p2403
aS'yUr'
p2404
aS'father'
p2405
asg12
S"If you don't want people confusing your Boyfriend for yUr father "
p2406
sg14
S" Then you shouldn't be dating a man twice your age "
p2407
sg16
Vcaptain-hindsight
p2408
sg18
(lp2409
g2394
ag2395
ag2396
ag2397
ag2398
ag2399
ag2400
ag2401
ag2402
ag2403
ag2404
ag2405
aS'Then'
p2410
aS'you'
p2411
aS'should'
p2412
aS"n't"
p2413
aS'be'
p2414
aS'dating'
p2415
ag25
aS'man'
p2416
aS'twice'
p2417
aS'your'
p2418
aS'age'
p2419
asg27
(lp2420
g2410
ag2411
ag2412
ag2413
ag2414
ag2415
ag25
ag2416
ag2417
ag2418
ag2419
asba(iMeme
Meme
p2421
(dp2422
g3
(lp2423
S'Yeah'
p2424
ag2149
aS'FUcKed'
p2425
aS'the'
p2426
aS'bitCh'
p2427
asg12
S'Yeah I FUcKed the bitCh  '
p2428
sg14
S' With only this finger  '
p2429
sg16
Vcaptain-hindsight
p2430
sg18
(lp2431
g2424
ag2149
ag2425
ag2426
ag2427
aS'With'
p2432
aS'only'
p2433
aS'this'
p2434
aS'finger'
p2435
asg27
(lp2436
g2432
ag2433
ag2434
ag2435
asba(iMeme
Meme
p2437
(dp2438
g3
(lp2439
S'if'
p2440
aS'you'
p2441
aS'do'
p2442
aS"n't"
p2443
aS'want'
p2444
aS'to'
p2445
aS'hear'
p2446
aS'about'
p2447
aS'the'
p2448
aS'oppressed'
p2449
aS'PROLETARIAT'
p2450
aS'and'
p2451
aS'the'
p2452
aS'tyrannical'
p2453
aS'corporations'
p2454
asg12
S"if you don't want to hear about the oppressed PROLETARIAT and the tyrannical corporations  "
p2455
sg14
S" perhaps you shouldn't have liked the page with a marx quote as their cover! "
p2456
sg16
Vcaptain-hindsight
p2457
sg18
(lp2458
g2440
ag2441
ag2442
ag2443
ag2444
ag2445
ag2446
ag2447
ag2448
ag2449
ag2450
ag2451
ag2452
ag2453
ag2454
aS'perhaps'
p2459
aS'you'
p2460
aS'should'
p2461
aS"n't"
p2462
aS'have'
p2463
aS'liked'
p2464
aS'the'
p2465
aS'page'
p2466
aS'with'
p2467
ag25
aS'marx'
p2468
aS'quote'
p2469
aS'as'
p2470
aS'their'
p2471
aS'cover'
p2472
ag427
asg27
(lp2473
g2459
ag2460
ag2461
ag2462
ag2463
ag2464
ag2465
ag2466
ag2467
ag25
ag2468
ag2469
ag2470
ag2471
ag2472
ag427
asba(iMeme
Meme
p2474
(dp2475
g3
(lp2476
S'If'
p2477
ag1448
aS'had'
p2478
aS'not'
p2479
aS'forgotten'
p2480
aS'my'
p2481
aS'cover'
p2482
asg12
S'If i had not forgotten my cover '
p2483
sg14
S' masterchief would have bitched about me smoking in uniform '
p2484
sg16
Vcaptain-hindsight
p2485
sg18
(lp2486
g2477
ag1448
ag2478
ag2479
ag2480
ag2481
ag2482
aS'masterchief'
p2487
aS'would'
p2488
aS'have'
p2489
aS'bitched'
p2490
aS'about'
p2491
aS'me'
p2492
aS'smoking'
p2493
aS'in'
p2494
aS'uniform'
p2495
asg27
(lp2496
g2487
ag2488
ag2489
ag2490
ag2491
ag2492
ag2493
ag2494
ag2495
asba(iMeme
Meme
p2497
(dp2498
g3
(lp2499
S'If'
p2500
aS'you'
p2501
aS'dId'
p2502
aS"n't"
p2503
aS'want'
p2504
aS'people'
p2505
aS'confusing'
p2506
aS'you'
p2507
aS"'re"
p2508
aS'boyfriend'
p2509
aS'for'
p2510
aS'your'
p2511
aS'father'
p2512
asg12
S"If you dIdn't want people confusing you're boyfriend for your father "
p2513
sg14
S" You shouldn't be dating a Man twice your age "
p2514
sg16
Vcaptain-hindsight
p2515
sg18
(lp2516
g2500
ag2501
ag2502
ag2503
ag2504
ag2505
ag2506
ag2507
ag2508
ag2509
ag2510
ag2511
ag2512
aS'You'
p2517
aS'should'
p2518
aS"n't"
p2519
aS'be'
p2520
aS'dating'
p2521
ag25
aS'Man'
p2522
aS'twice'
p2523
aS'your'
p2524
aS'age'
p2525
asg27
(lp2526
g2517
ag2518
ag2519
ag2520
ag2521
ag25
ag2522
ag2523
ag2524
ag2525
asba(iMeme
Meme
p2527
(dp2528
g3
(lp2529
S'if'
p2530
aS'you'
p2531
aS'did'
p2532
aS"n't"
p2533
aS'want'
p2534
aS'to'
p2535
aS'go'
p2536
aS'to'
p2537
aS'summer'
p2538
aS'school'
p2539
asg12
S"if you didn't want to go to summer school "
p2540
sg14
S' you should have done your work and paid attention, or at least showed up to class '
p2541
sg16
Vcaptain-hindsight
p2542
sg18
(lp2543
g2530
ag2531
ag2532
ag2533
ag2534
ag2535
ag2536
ag2537
ag2538
ag2539
aS'you'
p2544
aS'should'
p2545
aS'have'
p2546
aS'done'
p2547
aS'your'
p2548
aS'work'
p2549
aS'and'
p2550
aS'paid'
p2551
aS'attention'
p2552
ag131
aS'or'
p2553
aS'at'
p2554
aS'least'
p2555
aS'showed'
p2556
aS'up'
p2557
aS'to'
p2558
aS'class'
p2559
asg27
(lp2560
g2544
ag2545
ag2546
ag2547
ag2548
ag2549
ag2550
ag2551
ag2552
ag131
ag2553
ag2554
ag2555
ag2556
ag2557
ag2558
ag2559
asba(iMeme
Meme
p2561
(dp2562
g3
(lp2563
S'Get'
p2564
aS'upstairs'
p2565
aS'to'
p2566
asg12
S'Get upstairs to  '
p2567
sg14
S' Your room!! '
p2568
sg16
Vcaptain-hindsight
p2569
sg18
(lp2570
g2564
ag2565
ag2566
aS'Your'
p2571
aS'room'
p2572
ag427
ag427
asg27
(lp2573
g2571
ag2572
ag427
ag427
asba(iMeme
Meme
p2574
(dp2575
g3
(lp2576
S'If'
p2577
aS'you'
p2578
aS'are'
p2579
aS'going'
p2580
aS'to'
p2581
aS'teach'
p2582
aS'an'
p2583
aS'advanced'
p2584
aS'computer'
p2585
aS'science'
p2586
aS'course'
p2587
asg12
S'If you are going to teach an advanced computer science course '
p2588
sg14
S' you should know how to use a computer first '
p2589
sg16
Vcaptain-hindsight
p2590
sg18
(lp2591
g2577
ag2578
ag2579
ag2580
ag2581
ag2582
ag2583
ag2584
ag2585
ag2586
ag2587
aS'you'
p2592
aS'should'
p2593
aS'know'
p2594
aS'how'
p2595
aS'to'
p2596
aS'use'
p2597
ag25
aS'computer'
p2598
aS'first'
p2599
asg27
(lp2600
g2592
ag2593
ag2594
ag2595
ag2596
ag2597
ag25
ag2598
ag2599
asba(iMeme
Meme
p2601
(dp2602
g3
(lp2603
S'If'
p2604
aS'you'
p2605
aS'Did'
p2606
aS"n't"
p2607
aS'want'
p2608
aS'to'
p2609
aS'hear'
p2610
aS'dogs'
p2611
aS'barking'
p2612
asg12
S"If you Didn't want to hear dogs barking "
p2613
sg14
S" You shouldn't have moved into an apartment complex that allows dogs "
p2614
sg16
Vcaptain-hindsight
p2615
sg18
(lp2616
g2604
ag2605
ag2606
ag2607
ag2608
ag2609
ag2610
ag2611
ag2612
aS'You'
p2617
aS'should'
p2618
aS"n't"
p2619
aS'have'
p2620
aS'moved'
p2621
aS'into'
p2622
aS'an'
p2623
aS'apartment'
p2624
aS'complex'
p2625
aS'that'
p2626
aS'allows'
p2627
aS'dogs'
p2628
asg27
(lp2629
g2617
ag2618
ag2619
ag2620
ag2621
ag2622
ag2623
ag2624
ag2625
ag2626
ag2627
ag2628
asba(iMeme
Meme
p2630
(dp2631
g3
(lp2632
S'If'
p2633
aS'you'
p2634
aS'did'
p2635
aS"n't"
p2636
aS'want'
p2637
aS'employees'
p2638
aS'to'
p2639
aS'use'
p2640
aS'that'
p2641
aS'much'
p2642
aS'toilet'
p2643
aS'paper'
p2644
aS'...'
p2645
asg12
S"If you didn't want employees to use that much toilet paper... "
p2646
sg14
S" You shouldn't have bought the cheap 1"
p2647
sg16
Vcaptain-hindsight
p2648
sg18
(lp2649
g2633
ag2634
ag2635
ag2636
ag2637
ag2638
ag2639
ag2640
ag2641
ag2642
ag2643
ag2644
ag2645
aS'You'
p2650
aS'should'
p2651
aS"n't"
p2652
aS'have'
p2653
aS'bought'
p2654
aS'the'
p2655
aS'cheap'
p2656
aS'1'
p2657
asg27
(lp2658
g2650
ag2651
ag2652
ag2653
ag2654
ag2655
ag2656
ag2657
asba(iMeme
Meme
p2659
(dp2660
g3
(lp2661
S'If'
p2662
aS'you'
p2663
aS'did'
p2664
aS"n't"
p2665
aS'want'
p2666
aS'to'
p2667
aS'be'
p2668
aS'married'
p2669
aS'to'
p2670
aS'an'
p2671
aS'asshole'
p2672
asg12
S"If you didn't want to be married to an asshole "
p2673
sg14
S" You shouldn't have married an asshole "
p2674
sg16
Vcaptain-hindsight
p2675
sg18
(lp2676
g2662
ag2663
ag2664
ag2665
ag2666
ag2667
ag2668
ag2669
ag2670
ag2671
ag2672
aS'You'
p2677
aS'should'
p2678
aS"n't"
p2679
aS'have'
p2680
aS'married'
p2681
aS'an'
p2682
aS'asshole'
p2683
asg27
(lp2684
g2677
ag2678
ag2679
ag2680
ag2681
ag2682
ag2683
asba(iMeme
Meme
p2685
(dp2686
g3
(lp2687
S'Mine'
p2688
aS'is'
p2689
asg12
S'Mine is '
p2690
sg14
S' All the way up there '
p2691
sg16
Vcaptain-hindsight
p2692
sg18
(lp2693
g2688
ag2689
aS'All'
p2694
aS'the'
p2695
aS'way'
p2696
aS'up'
p2697
aS'there'
p2698
asg27
(lp2699
g2694
ag2695
ag2696
ag2697
ag2698
asba(iMeme
Meme
p2700
(dp2701
g3
(lp2702
S'if'
p2703
aS'my'
p2704
aS'rush'
p2705
aS'surprised'
p2706
aS'you'
p2707
asg12
S'if my rush surprised you '
p2708
sg14
S' you should have scouted '
p2709
sg16
Vcaptain-hindsight
p2710
sg18
(lp2711
g2703
ag2704
ag2705
ag2706
ag2707
aS'you'
p2712
aS'should'
p2713
aS'have'
p2714
aS'scouted'
p2715
asg27
(lp2716
g2712
ag2713
ag2714
ag2715
asba(iMeme
Meme
p2717
(dp2718
g3
(lp2719
S'go'
p2720
aS'the'
p2721
aS'fuck'
p2722
asg12
S'go the fuck '
p2723
sg14
S' home!  '
p2724
sg16
Vcaptain-hindsight
p2725
sg18
(lp2726
g2720
ag2721
ag2722
aS'home'
p2727
ag427
asg27
(lp2728
g2727
ag427
asba(iMeme
Meme
p2729
(dp2730
g3
(lp2731
S'If'
p2732
aS'DC'
p2733
aS'wanted'
p2734
aS'to'
p2735
aS'score'
p2736
aS'goals'
p2737
ag131
asg12
S'If DC wanted to score goals, '
p2738
sg14
S" They shouldn't have sold Najar, Santos, and Salihi "
p2739
sg16
Vcaptain-hindsight
p2740
sg18
(lp2741
g2732
ag2733
ag2734
ag2735
ag2736
ag2737
ag131
aS'They'
p2742
aS'should'
p2743
aS"n't"
p2744
aS'have'
p2745
aS'sold'
p2746
aS'Najar'
p2747
ag131
aS'Santos'
p2748
ag131
aS'and'
p2749
aS'Salihi'
p2750
asg27
(lp2751
g2742
ag2743
ag2744
ag2745
ag2746
ag2747
ag131
ag2748
ag131
ag2749
ag2750
asba(iMeme
Meme
p2752
(dp2753
g3
(lp2754
S'In'
p2755
aS'hindsight'
p2756
asg12
S'In hindsight '
p2757
sg14
S' you should of found a better meme '
p2758
sg16
Vcaptain-hindsight
p2759
sg18
(lp2760
g2755
ag2756
aS'you'
p2761
aS'should'
p2762
aS'of'
p2763
aS'found'
p2764
ag25
aS'better'
p2765
aS'meme'
p2766
asg27
(lp2767
g2761
ag2762
ag2763
ag2764
ag25
ag2765
ag2766
asba(iMeme
Meme
p2768
(dp2769
g3
(lp2770
S'If'
p2771
aS'you'
p2772
aS'run'
p2773
aS'in'
p2774
aS'flip'
p2775
aS'flops'
p2776
asg12
S'If you run in flip flops '
p2777
sg14
S" You're gonna have a bad time "
p2778
sg16
Vcaptain-hindsight
p2779
sg18
(lp2780
g2771
ag2772
ag2773
ag2774
ag2775
ag2776
aS'You'
p2781
aS"'re"
p2782
aS'gon'
p2783
aS'na'
p2784
aS'have'
p2785
ag25
aS'bad'
p2786
aS'time'
p2787
asg27
(lp2788
g2781
ag2782
ag2783
ag2784
ag2785
ag25
ag2786
ag2787
asba(iMeme
Meme
p2789
(dp2790
g3
(lp2791
S'If'
p2792
aS'you'
p2793
aS'think'
p2794
ag2657
aS'day'
p2795
aS'of'
p2796
aS"'cleaning"
p2797
aS"'"
p2798
aS'will'
p2799
aS'get'
p2800
aS'rid'
p2801
aS'of'
p2802
aS'10'
p2803
aS'years'
p2804
aS'of'
p2805
aS'cat'
p2806
aS'stink'
p2807
aS'in'
p2808
aS'your'
p2809
aS'condo'
p2810
asg12
S"If you think 1 day of 'cleaning' will get rid of 10 years of cat stink in your condo "
p2811
sg14
S" you're gunna have a bad day "
p2812
sg16
Vcaptain-hindsight
p2813
sg18
(lp2814
g2792
ag2793
ag2794
ag2657
ag2795
ag2796
ag2797
ag2798
ag2799
ag2800
ag2801
ag2802
ag2803
ag2804
ag2805
ag2806
ag2807
ag2808
ag2809
ag2810
aS'you'
p2815
aS"'re"
p2816
aS'gunna'
p2817
aS'have'
p2818
ag25
aS'bad'
p2819
aS'day'
p2820
asg27
(lp2821
g2815
ag2816
ag2817
ag2818
ag25
ag2819
ag2820
asba(iMeme
Meme
p2822
(dp2823
g3
(lp2824
S'If'
p2825
aS'you'
p2826
aS'do'
p2827
aS"n't"
p2828
aS'want'
p2829
aS'me'
p2830
aS'to'
p2831
aS'spend'
p2832
aS'so'
p2833
aS'much'
p2834
aS'time'
p2835
aS'playing'
p2836
aS'video'
p2837
aS'games'
p2838
asg12
S"If you don't want me to spend so much time playing video games "
p2839
sg14
S" You shouldn't buy me video games for my birthday "
p2840
sg16
Vcaptain-hindsight
p2841
sg18
(lp2842
g2825
ag2826
ag2827
ag2828
ag2829
ag2830
ag2831
ag2832
ag2833
ag2834
ag2835
ag2836
ag2837
ag2838
aS'You'
p2843
aS'should'
p2844
aS"n't"
p2845
aS'buy'
p2846
aS'me'
p2847
aS'video'
p2848
aS'games'
p2849
aS'for'
p2850
aS'my'
p2851
aS'birthday'
p2852
asg27
(lp2853
g2843
ag2844
ag2845
ag2846
ag2847
ag2848
ag2849
ag2850
ag2851
ag2852
asba(iMeme
Meme
p2854
(dp2855
g3
(lp2856
S'If'
p2857
aS'you'
p2858
aS'did'
p2859
aS"n't"
p2860
aS'want'
p2861
aS'me'
p2862
aS'to'
p2863
aS'hook'
p2864
aS'up'
p2865
aS'with'
p2866
aS'random'
p2867
aS'girls'
p2868
asg12
S"If you didn't want me to hook up with random girls  "
p2869
sg14
S" You shouldn't have dumped me  "
p2870
sg16
Vcaptain-hindsight
p2871
sg18
(lp2872
g2857
ag2858
ag2859
ag2860
ag2861
ag2862
ag2863
ag2864
ag2865
ag2866
ag2867
ag2868
aS'You'
p2873
aS'should'
p2874
aS"n't"
p2875
aS'have'
p2876
aS'dumped'
p2877
aS'me'
p2878
asg27
(lp2879
g2873
ag2874
ag2875
ag2876
ag2877
ag2878
asba(iMeme
Meme
p2880
(dp2881
g3
(lp2882
S'Yeah'
p2883
ag2149
aS'FUcKed'
p2884
aS'the'
p2885
aS'bitCh'
p2886
asg12
S'Yeah I FUcKed the bitCh  '
p2887
sg14
S' With only this finger  '
p2888
sg16
Vcaptain-hindsight
p2889
sg18
(lp2890
g2883
ag2149
ag2884
ag2885
ag2886
aS'With'
p2891
aS'only'
p2892
aS'this'
p2893
aS'finger'
p2894
asg27
(lp2895
g2891
ag2892
ag2893
ag2894
asba(iMeme
Meme
p2896
(dp2897
g3
(lp2898
S'If'
p2899
aS'you'
p2900
aS'did'
p2901
aS"n't"
p2902
aS'want'
p2903
aS'me'
p2904
aS'to'
p2905
aS'fart'
p2906
aS'on'
p2907
aS'you'
p2908
asg12
S"If you didn't want me to fart on you "
p2909
sg14
S" Then maybe you shouldn't have insulted reddit. "
p2910
sg16
Vcaptain-hindsight
p2911
sg18
(lp2912
g2899
ag2900
ag2901
ag2902
ag2903
ag2904
ag2905
ag2906
ag2907
ag2908
aS'Then'
p2913
aS'maybe'
p2914
aS'you'
p2915
aS'should'
p2916
aS"n't"
p2917
aS'have'
p2918
aS'insulted'
p2919
aS'reddit'
p2920
ag192
asg27
(lp2921
g2913
ag2914
ag2915
ag2916
ag2917
ag2918
ag2919
ag2920
ag192
asba(iMeme
Meme
p2922
(dp2923
g3
(lp2924
S'If'
p2925
aS'you'
p2926
aS'did'
p2927
aS"n't"
p2928
aS'want'
p2929
aS'me'
p2930
aS'to'
p2931
aS'answer'
p2932
aS'back'
p2933
asg12
S"If you didn't want me to answer back "
p2934
sg14
S" You shouldn't have asked me a question "
p2935
sg16
Vcaptain-hindsight
p2936
sg18
(lp2937
g2925
ag2926
ag2927
ag2928
ag2929
ag2930
ag2931
ag2932
ag2933
aS'You'
p2938
aS'should'
p2939
aS"n't"
p2940
aS'have'
p2941
aS'asked'
p2942
aS'me'
p2943
ag25
aS'question'
p2944
asg27
(lp2945
g2938
ag2939
ag2940
ag2941
ag2942
ag2943
ag25
ag2944
asba(iMeme
Meme
p2946
(dp2947
g3
(lp2948
S'if'
p2949
aS'you'
p2950
aS'didnt'
p2951
aS'want'
p2952
aS'me'
p2953
aS'rehashing'
p2954
aS'the'
p2955
aS'top'
p2956
aS'comment'
p2957
aS'as'
p2958
ag25
aS'meme'
p2959
asg12
S'if you didnt want me rehashing the top comment as a meme '
p2960
sg14
S' you shouldnt have commented '
p2961
sg16
Vcaptain-hindsight
p2962
sg18
(lp2963
g2949
ag2950
ag2951
ag2952
ag2953
ag2954
ag2955
ag2956
ag2957
ag2958
ag25
ag2959
aS'you'
p2964
aS'shouldnt'
p2965
aS'have'
p2966
aS'commented'
p2967
asg27
(lp2968
g2964
ag2965
ag2966
ag2967
asba(iMeme
Meme
p2969
(dp2970
g3
(lp2971
S'im'
p2972
aS'paudi'
p2973
aS'and'
p2974
aS'one'
p2975
aS'day'
p2976
asg12
S'im paudi and one day  '
p2977
sg14
S' i will complete transformers '
p2978
sg16
Vcaptain-hindsight
p2979
sg18
(lp2980
g2972
ag2973
ag2974
ag2975
ag2976
ag1448
aS'will'
p2981
aS'complete'
p2982
aS'transformers'
p2983
asg27
(lp2984
g1448
ag2981
ag2982
ag2983
asba(iMeme
Meme
p2985
(dp2986
g3
(lp2987
S'Bitch'
p2988
aS'im'
p2989
aS'so'
p2990
aS'cool'
p2991
asg12
S'Bitch im so cool '
p2992
sg14
S' I have a eye on my chest '
p2993
sg16
Vcaptain-hindsight
p2994
sg18
(lp2995
g2988
ag2989
ag2990
ag2991
ag2149
aS'have'
p2996
ag25
aS'eye'
p2997
aS'on'
p2998
aS'my'
p2999
aS'chest'
p3000
asg27
(lp3001
g2149
ag2996
ag25
ag2997
ag2998
ag2999
ag3000
asba(iMeme
Meme
p3002
(dp3003
g3
(lp3004
S'some'
p3005
aS'day'
p3006
ag1448
aS'will'
p3007
aS'be'
p3008
ag25
asg12
S'some day i will be a '
p3009
sg14
S' hurly legand '
p3010
sg16
Vcaptain-hindsight
p3011
sg18
(lp3012
g3005
ag3006
ag1448
ag3007
ag3008
ag25
aS'hurly'
p3013
aS'legand'
p3014
asg27
(lp3015
g3013
ag3014
asba(iMeme
Meme
p3016
(dp3017
g3
(lp3018
S'if'
p3019
aS'you'
p3020
aS'wanted'
p3021
aS'me'
p3022
aS'to'
p3023
aS'understand'
p3024
aS'you'
p3025
asg12
S'if you wanted me to understand you '
p3026
sg14
S' u shoudnt tlk lik dis wen u txt me '
p3027
sg16
Vcaptain-hindsight
p3028
sg18
(lp3029
g3019
ag3020
ag3021
ag3022
ag3023
ag3024
ag3025
aS'u'
p3030
aS'shoudnt'
p3031
aS'tlk'
p3032
aS'lik'
p3033
aS'dis'
p3034
aS'wen'
p3035
ag3030
aS'txt'
p3036
aS'me'
p3037
asg27
(lp3038
g3030
ag3031
ag3032
ag3033
ag3034
ag3035
ag3030
ag3036
ag3037
asba(iMeme
Meme
p3039
(dp3040
g3
(lp3041
S'If'
p3042
aS'you'
p3043
aS'wanted'
p3044
aS'to'
p3045
aS'get'
p3046
aS'paid'
p3047
asg12
S'If you wanted to get paid '
p3048
sg14
S' You should have handed in your timecards '
p3049
sg16
Vcaptain-hindsight
p3050
sg18
(lp3051
g3042
ag3043
ag3044
ag3045
ag3046
ag3047
aS'You'
p3052
aS'should'
p3053
aS'have'
p3054
aS'handed'
p3055
aS'in'
p3056
aS'your'
p3057
aS'timecards'
p3058
asg27
(lp3059
g3052
ag3053
ag3054
ag3055
ag3056
ag3057
ag3058
asba(iMeme
Meme
p3060
(dp3061
g3
(lp3062
S'if'
p3063
aS'you'
p3064
aS'did'
p3065
aS"n't"
p3066
aS'want'
p3067
aS'to'
p3068
aS'spend'
p3069
aS'half'
p3070
aS'your'
p3071
aS'shift'
p3072
aS'picking'
p3073
aS'up'
p3074
aS'paper'
p3075
aS'towels'
p3076
asg12
S"if you didn't want to spend half your shift picking up paper towels "
p3077
sg14
S' you should have put a trash can near the bathroom door '
p3078
sg16
Vcaptain-hindsight
p3079
sg18
(lp3080
g3063
ag3064
ag3065
ag3066
ag3067
ag3068
ag3069
ag3070
ag3071
ag3072
ag3073
ag3074
ag3075
ag3076
aS'you'
p3081
aS'should'
p3082
aS'have'
p3083
aS'put'
p3084
ag25
aS'trash'
p3085
aS'can'
p3086
aS'near'
p3087
aS'the'
p3088
aS'bathroom'
p3089
aS'door'
p3090
asg27
(lp3091
g3081
ag3082
ag3083
ag3084
ag25
ag3085
ag3086
ag3087
ag3088
ag3089
ag3090
asba(iMeme
Meme
p3092
(dp3093
g3
(lp3094
S'If'
p3095
aS'you'
p3096
aS'do'
p3097
aS"n't"
p3098
aS'like'
p3099
aS'circlejerks'
p3100
asg12
S"If you don't like circlejerks "
p3101
sg14
S' you should not have gone into politics '
p3102
sg16
Vcaptain-hindsight
p3103
sg18
(lp3104
g3095
ag3096
ag3097
ag3098
ag3099
ag3100
aS'you'
p3105
aS'should'
p3106
aS'not'
p3107
aS'have'
p3108
aS'gone'
p3109
aS'into'
p3110
aS'politics'
p3111
asg27
(lp3112
g3105
ag3106
ag3107
ag3108
ag3109
ag3110
ag3111
asba(iMeme
Meme
p3113
(dp3114
g3
(lp3115
S'If'
p3116
aS'you'
p3117
aS'did'
p3118
aS"n't"
p3119
aS'want'
p3120
aS'to'
p3121
aS'be'
p3122
aS'judged'
p3123
aS'for'
p3124
aS'being'
p3125
ag25
aS'whore'
p3126
aS'while'
p3127
aS'you'
p3128
aS'were'
p3129
aS'drunk'
p3130
asg12
S"If you didn't want to be judged for being a whore while you were drunk "
p3131
sg14
S" you shouldn't get so drunk "
p3132
sg16
Vcaptain-hindsight
p3133
sg18
(lp3134
g3116
ag3117
ag3118
ag3119
ag3120
ag3121
ag3122
ag3123
ag3124
ag3125
ag25
ag3126
ag3127
ag3128
ag3129
ag3130
aS'you'
p3135
aS'should'
p3136
aS"n't"
p3137
aS'get'
p3138
aS'so'
p3139
aS'drunk'
p3140
asg27
(lp3141
g3135
ag3136
ag3137
ag3138
ag3139
ag3140
asba(iMeme
Meme
p3142
(dp3143
g3
(lp3144
S'if'
p3145
aS'you'
p3146
aS'did'
p3147
aS"n't"
p3148
aS'want'
p3149
aS'photos'
p3150
aS'of'
p3151
aS'you'
p3152
aS'giving'
p3153
aS'head'
p3154
aS'to'
p3155
aS'two'
p3156
aS'strangers'
p3157
aS'at'
p3158
aS'an'
p3159
aS'eminem'
p3160
aS'concert'
p3161
aS'to'
p3162
aS'go'
p3163
aS'viral'
p3164
asg12
S"if you didn't want photos of you giving head to two strangers at an eminem concert to go viral "
p3165
sg14
S" you shouldn't have given head to two strangers in public "
p3166
sg16
Vcaptain-hindsight
p3167
sg18
(lp3168
g3145
ag3146
ag3147
ag3148
ag3149
ag3150
ag3151
ag3152
ag3153
ag3154
ag3155
ag3156
ag3157
ag3158
ag3159
ag3160
ag3161
ag3162
ag3163
ag3164
aS'you'
p3169
aS'should'
p3170
aS"n't"
p3171
aS'have'
p3172
aS'given'
p3173
aS'head'
p3174
aS'to'
p3175
aS'two'
p3176
aS'strangers'
p3177
aS'in'
p3178
aS'public'
p3179
asg27
(lp3180
g3169
ag3170
ag3171
ag3172
ag3173
ag3174
ag3175
ag3176
ag3177
ag3178
ag3179
asba(iMeme
Meme
p3181
(dp3182
g3
(lp3183
S'Everyone'
p3184
aS'chant'
p3185
aS'with'
p3186
aS'me'
p3187
asg12
S'Everyone chant with me '
p3188
sg14
S' Roostar! Roostar! Roostar! '
p3189
sg16
Vcaptain-hindsight
p3190
sg18
(lp3191
g3184
ag3185
ag3186
ag3187
aS'Roostar'
p3192
ag427
aS'Roostar'
p3193
ag427
aS'Roostar'
p3194
ag427
asg27
(lp3195
g3192
ag427
ag3193
ag427
ag3194
ag427
asba(iMeme
Meme
p3196
(dp3197
g3
(lp3198
S'If'
p3199
aS'you'
p3200
aS'wanted'
p3201
aS'to'
p3202
aS'stay'
p3203
aS'friends'
p3204
asg12
S'If you wanted to stay friends '
p3205
sg14
S' you shouldnt have treated me like a piece of shit! '
p3206
sg16
Vcaptain-hindsight
p3207
sg18
(lp3208
g3199
ag3200
ag3201
ag3202
ag3203
ag3204
aS'you'
p3209
aS'shouldnt'
p3210
aS'have'
p3211
aS'treated'
p3212
aS'me'
p3213
aS'like'
p3214
ag25
aS'piece'
p3215
aS'of'
p3216
aS'shit'
p3217
ag427
asg27
(lp3218
g3209
ag3210
ag3211
ag3212
ag3213
ag3214
ag25
ag3215
ag3216
ag3217
ag427
asba(iMeme
Meme
p3219
(dp3220
g3
(lp3221
S'If'
p3222
aS'you'
p3223
aS'wanted'
p3224
aS'to'
p3225
aS'celebrate'
p3226
aS'with'
p3227
aS'people'
p3228
asg12
S'If you wanted to celebrate with people '
p3229
sg14
S" You shouldn't have planned it for a long weekend "
p3230
sg16
Vcaptain-hindsight
p3231
sg18
(lp3232
g3222
ag3223
ag3224
ag3225
ag3226
ag3227
ag3228
aS'You'
p3233
aS'should'
p3234
aS"n't"
p3235
aS'have'
p3236
aS'planned'
p3237
aS'it'
p3238
aS'for'
p3239
ag25
aS'long'
p3240
aS'weekend'
p3241
asg27
(lp3242
g3233
ag3234
ag3235
ag3236
ag3237
ag3238
ag3239
ag25
ag3240
ag3241
asba(iMeme
Meme
p3243
(dp3244
g3
(lp3245
S'If'
p3246
aS'you'
p3247
aS'do'
p3248
aS"n't"
p3249
aS'want'
p3250
aS'to'
p3251
aS'be'
p3252
aS'embarrassed'
p3253
aS'because'
p3254
aS'of'
p3255
aS'your'
p3256
aS'actions'
p3257
asg12
S"If you don't want to be embarrassed because of your actions  "
p3258
sg14
S" Then you shouldn't suck cock in public at a music festival "
p3259
sg16
Vcaptain-hindsight
p3260
sg18
(lp3261
g3246
ag3247
ag3248
ag3249
ag3250
ag3251
ag3252
ag3253
ag3254
ag3255
ag3256
ag3257
aS'Then'
p3262
aS'you'
p3263
aS'should'
p3264
aS"n't"
p3265
aS'suck'
p3266
aS'cock'
p3267
aS'in'
p3268
aS'public'
p3269
aS'at'
p3270
ag25
aS'music'
p3271
aS'festival'
p3272
asg27
(lp3273
g3262
ag3263
ag3264
ag3265
ag3266
ag3267
ag3268
ag3269
ag3270
ag25
ag3271
ag3272
asba(iMeme
Meme
p3274
(dp3275
g3
(lp3276
sg12
S' '
p3277
sg14
S' The guy above me is a faggot '
p3278
sg16
Vcaptain-hindsight
p3279
sg18
(lp3280
S'The'
p3281
aS'guy'
p3282
aS'above'
p3283
aS'me'
p3284
aS'is'
p3285
ag25
aS'faggot'
p3286
asg27
(lp3287
g3281
ag3282
ag3283
ag3284
ag3285
ag25
ag3286
asba(iMeme
Meme
p3288
(dp3289
g3
(lp3290
S'one'
p3291
aS'day'
p3292
aS'we'
p3293
aS'all'
p3294
aS'will'
p3295
aS'be'
p3296
aS'hurling'
p3297
aS'legends'
p3298
asg12
S'one day we all will be hurling legends '
p3299
sg14
S'  '
p3300
sg16
Vcaptain-hindsight
p3301
sg18
(lp3302
g3291
ag3292
ag3293
ag3294
ag3295
ag3296
ag3297
ag3298
asg27
(lp3303
sba(iMeme
Meme
p3304
(dp3305
g3
(lp3306
S'if'
p3307
aS'you'
p3308
aS'did'
p3309
aS"n't"
p3310
aS'want'
p3311
aS'to'
p3312
aS'get'
p3313
ag25
aS'black'
p3314
aS'eye'
p3315
aS'and'
p3316
aS'shit'
p3317
asg12
S"if you didn't want to get a black eye and shit "
p3318
sg14
S' you should have quit rugby along with dwayne '
p3319
sg16
Vcaptain-hindsight
p3320
sg18
(lp3321
g3307
ag3308
ag3309
ag3310
ag3311
ag3312
ag3313
ag25
ag3314
ag3315
ag3316
ag3317
aS'you'
p3322
aS'should'
p3323
aS'have'
p3324
aS'quit'
p3325
aS'rugby'
p3326
aS'along'
p3327
aS'with'
p3328
aS'dwayne'
p3329
asg27
(lp3330
g3322
ag3323
ag3324
ag3325
ag3326
ag3327
ag3328
ag3329
asba(iMeme
Meme
p3331
(dp3332
g3
(lp3333
S'should'
p3334
aS"'ve"
p3335
aS'used'
p3336
asg12
S"should've used  "
p3337
sg14
S' a condom! '
p3338
sg16
Vcaptain-hindsight
p3339
sg18
(lp3340
g3334
ag3335
ag3336
ag25
aS'condom'
p3341
ag427
asg27
(lp3342
g25
ag3341
ag427
asba(iMeme
Meme
p3343
(dp3344
g3
(lp3345
S'some'
p3346
aS'day'
p3347
ag1448
aS'will'
p3348
aS'grow'
p3349
aS'pubs'
p3350
asg12
S'some day i will grow pubs '
p3351
sg14
S'  '
p3352
sg16
Vcaptain-hindsight
p3353
sg18
(lp3354
g3346
ag3347
ag1448
ag3348
ag3349
ag3350
asg27
(lp3355
sba(iMeme
Meme
p3356
(dp3357
g3
(lp3358
S'If'
p3359
aS'you'
p3360
aS'give'
p3361
aS'her'
p3362
aS'counterfeit'
p3363
aS'tickets'
p3364
asg12
S'If you give her counterfeit tickets '
p3365
sg14
S" She's gonna have a bad time "
p3366
sg16
Vcaptain-hindsight
p3367
sg18
(lp3368
g3359
ag3360
ag3361
ag3362
ag3363
ag3364
aS'She'
p3369
aS"'s"
p3370
aS'gon'
p3371
aS'na'
p3372
aS'have'
p3373
ag25
aS'bad'
p3374
aS'time'
p3375
asg27
(lp3376
g3369
ag3370
ag3371
ag3372
ag3373
ag25
ag3374
ag3375
asba(iMeme
Meme
p3377
(dp3378
g3
(lp3379
S'If'
p3380
aS'you'
p3381
aS'did'
p3382
aS"n't"
p3383
aS'want'
p3384
aS'to'
p3385
aS'see'
p3386
aS'memes'
p3387
aS'used'
p3388
aS'incorrectly'
p3389
asg12
S"If you didn't want to see memes used incorrectly "
p3390
sg14
S" then you shouldn't have used such a narrow form of communication "
p3391
sg16
Vcaptain-hindsight
p3392
sg18
(lp3393
g3380
ag3381
ag3382
ag3383
ag3384
ag3385
ag3386
ag3387
ag3388
ag3389
aS'then'
p3394
aS'you'
p3395
aS'should'
p3396
aS"n't"
p3397
aS'have'
p3398
aS'used'
p3399
aS'such'
p3400
ag25
aS'narrow'
p3401
aS'form'
p3402
aS'of'
p3403
aS'communication'
p3404
asg27
(lp3405
g3394
ag3395
ag3396
ag3397
ag3398
ag3399
ag3400
ag25
ag3401
ag3402
ag3403
ag3404
asba(iMeme
Meme
p3406
(dp3407
g3
(lp3408
S'if'
p3409
aS'you'
p3410
aS'were'
p3411
aS"n't"
p3412
aS'talking'
p3413
aS'to'
p3414
aS'me'
p3415
ag131
asg12
S"if you weren't talking to me, "
p3416
sg14
S" I wouldn't have miscount. "
p3417
sg16
Vcaptain-hindsight
p3418
sg18
(lp3419
g3409
ag3410
ag3411
ag3412
ag3413
ag3414
ag3415
ag131
ag2149
aS'would'
p3420
aS"n't"
p3421
aS'have'
p3422
aS'miscount'
p3423
ag192
asg27
(lp3424
g2149
ag3420
ag3421
ag3422
ag3423
ag192
asba(iMeme
Meme
p3425
(dp3426
g3
(lp3427
S'If'
p3428
aS'you'
p3429
aS'did'
p3430
aS"n't"
p3431
aS'want'
p3432
aS'me'
p3433
aS'to'
p3434
aS'ask'
p3435
aS'you'
p3436
aS'to'
p3437
aS'park'
p3438
aS'your'
p3439
aS'car'
p3440
asg12
S"If you didn't want me to ask you to park your car "
p3441
sg14
S" then you shouldn't have pulled into the complimentary valet lane  "
p3442
sg16
Vcaptain-hindsight
p3443
sg18
(lp3444
g3428
ag3429
ag3430
ag3431
ag3432
ag3433
ag3434
ag3435
ag3436
ag3437
ag3438
ag3439
ag3440
aS'then'
p3445
aS'you'
p3446
aS'should'
p3447
aS"n't"
p3448
aS'have'
p3449
aS'pulled'
p3450
aS'into'
p3451
aS'the'
p3452
aS'complimentary'
p3453
aS'valet'
p3454
aS'lane'
p3455
asg27
(lp3456
g3445
ag3446
ag3447
ag3448
ag3449
ag3450
ag3451
ag3452
ag3453
ag3454
ag3455
asba(iMeme
Meme
p3457
(dp3458
g3
(lp3459
S'If'
p3460
ag3030
aS'didnt'
p3461
aS'want'
p3462
aS'to'
p3463
aS'get'
p3464
aS'burned'
p3465
aS'by'
p3466
ag25
aS'10th'
p3467
aS'grader'
p3468
aS'twice'
p3469
asg12
S'If u didnt want to get burned by a 10th grader twice  '
p3470
sg14
S' You should better stop posting bullshit '
p3471
sg16
Vcaptain-hindsight
p3472
sg18
(lp3473
g3460
ag3030
ag3461
ag3462
ag3463
ag3464
ag3465
ag3466
ag25
ag3467
ag3468
ag3469
aS'You'
p3474
aS'should'
p3475
aS'better'
p3476
aS'stop'
p3477
aS'posting'
p3478
aS'bullshit'
p3479
asg27
(lp3480
g3474
ag3475
ag3476
ag3477
ag3478
ag3479
asba(iMeme
Meme
p3481
(dp3482
g3
(lp3483
S'sopranus'
p3484
aS'egotisticus'
p3485
aS'is'
p3486
ag25
aS'conditioned'
p3487
aS'response'
p3488
asg12
S'sopranus egotisticus is a conditioned response '
p3489
sg14
S' Alert the scientific community '
p3490
sg16
Vcaptain-hindsight
p3491
sg18
(lp3492
g3484
ag3485
ag3486
ag25
ag3487
ag3488
aS'Alert'
p3493
aS'the'
p3494
aS'scientific'
p3495
aS'community'
p3496
asg27
(lp3497
g3493
ag3494
ag3495
ag3496
asba(iMeme
Meme
p3498
(dp3499
g3
(lp3500
S'If'
p3501
aS'you'
p3502
aS'did'
p3503
aS"n't"
p3504
aS'want'
p3505
aS'your'
p3506
aS'food'
p3507
aS'to'
p3508
aS'taste'
p3509
aS'like'
p3510
aS'shit'
p3511
asg12
S"If you didn't want your food to taste like shit "
p3512
sg14
S' You should have treated the people who work at the restaurant better '
p3513
sg16
Vcaptain-hindsight
p3514
sg18
(lp3515
g3501
ag3502
ag3503
ag3504
ag3505
ag3506
ag3507
ag3508
ag3509
ag3510
ag3511
aS'You'
p3516
aS'should'
p3517
aS'have'
p3518
aS'treated'
p3519
aS'the'
p3520
aS'people'
p3521
aS'who'
p3522
aS'work'
p3523
aS'at'
p3524
aS'the'
p3525
aS'restaurant'
p3526
aS'better'
p3527
asg27
(lp3528
g3516
ag3517
ag3518
ag3519
ag3520
ag3521
ag3522
ag3523
ag3524
ag3525
ag3526
ag3527
asba(iMeme
Meme
p3529
(dp3530
g3
(lp3531
S'if'
p3532
aS'you'
p3533
aS'did'
p3534
aS"n't"
p3535
aS'want'
p3536
aS'other'
p3537
aS'dogs'
p3538
aS'playing'
p3539
aS'with'
p3540
aS'yours'
p3541
asg12
S"if you didn't want other dogs playing with yours "
p3542
sg14
S" you shouldn't have brought them to the god damn dog park "
p3543
sg16
Vcaptain-hindsight
p3544
sg18
(lp3545
g3532
ag3533
ag3534
ag3535
ag3536
ag3537
ag3538
ag3539
ag3540
ag3541
aS'you'
p3546
aS'should'
p3547
aS"n't"
p3548
aS'have'
p3549
aS'brought'
p3550
aS'them'
p3551
aS'to'
p3552
aS'the'
p3553
aS'god'
p3554
aS'damn'
p3555
aS'dog'
p3556
aS'park'
p3557
asg27
(lp3558
g3546
ag3547
ag3548
ag3549
ag3550
ag3551
ag3552
ag3553
ag3554
ag3555
ag3556
ag3557
asba(iMeme
Meme
p3559
(dp3560
g3
(lp3561
S'If'
p3562
aS'you'
p3563
aS'ca'
p3564
aS"n't"
p3565
aS'bare'
p3566
aS'the'
p3567
aS'idea'
p3568
aS'that'
p3569
aS'you'
p3570
aS'hurt'
p3571
ag25
aS'child'
p3572
asg12
S"If you can't bare the idea that you hurt a child "
p3573
sg14
S" then you shouldn't have been speeding through the school zone "
p3574
sg16
Vcaptain-hindsight
p3575
sg18
(lp3576
g3562
ag3563
ag3564
ag3565
ag3566
ag3567
ag3568
ag3569
ag3570
ag3571
ag25
ag3572
aS'then'
p3577
aS'you'
p3578
aS'should'
p3579
aS"n't"
p3580
aS'have'
p3581
aS'been'
p3582
aS'speeding'
p3583
aS'through'
p3584
aS'the'
p3585
aS'school'
p3586
aS'zone'
p3587
asg27
(lp3588
g3577
ag3578
ag3579
ag3580
ag3581
ag3582
ag3583
ag3584
ag3585
ag3586
ag3587
asba(iMeme
Meme
p3589
(dp3590
g3
(lp3591
S'Then'
p3592
aS'you'
p3593
aS"should'nt"
p3594
aS'have'
p3595
aS'taken'
p3596
ag25
aS'Job'
p3597
aS'as'
p3598
ag25
aS'MoD'
p3599
asg12
S"Then you should'nt have taken a Job as a MoD "
p3600
sg14
S' in a Community full of Retards '
p3601
sg16
Vcaptain-hindsight
p3602
sg18
(lp3603
g3592
ag3593
ag3594
ag3595
ag3596
ag25
ag3597
ag3598
ag25
ag3599
aS'in'
p3604
ag25
aS'Community'
p3605
aS'full'
p3606
aS'of'
p3607
aS'Retards'
p3608
asg27
(lp3609
g3604
ag25
ag3605
ag3606
ag3607
ag3608
asba(iMeme
Meme
p3610
(dp3611
g3
(lp3612
S'If'
p3613
aS'you'
p3614
aS'think'
p3615
aS'youre'
p3616
aS'gon'
p3617
aS'na'
p3618
aS'have'
p3619
ag25
aS'bad'
p3620
aS'time'
p3621
asg12
S'If you think youre gonna have a bad time '
p3622
sg14
S' youre gonna have a bad time '
p3623
sg16
Vcaptain-hindsight
p3624
sg18
(lp3625
g3613
ag3614
ag3615
ag3616
ag3617
ag3618
ag3619
ag25
ag3620
ag3621
aS'youre'
p3626
aS'gon'
p3627
aS'na'
p3628
aS'have'
p3629
ag25
aS'bad'
p3630
aS'time'
p3631
asg27
(lp3632
g3626
ag3627
ag3628
ag3629
ag25
ag3630
ag3631
asba(iMeme
Meme
p3633
(dp3634
g3
(lp3635
S'If'
p3636
aS'you'
p3637
aS'did'
p3638
aS"n't"
p3639
aS'want'
p3640
aS'me'
p3641
aS'checking'
p3642
aS'out'
p3643
aS'your'
p3644
aS'butt'
p3645
asg12
S"If you didn't want me checking out your butt "
p3646
sg14
S" They you shouldn't have worn your shorts so high "
p3647
sg16
Vcaptain-hindsight
p3648
sg18
(lp3649
g3636
ag3637
ag3638
ag3639
ag3640
ag3641
ag3642
ag3643
ag3644
ag3645
aS'They'
p3650
aS'you'
p3651
aS'should'
p3652
aS"n't"
p3653
aS'have'
p3654
aS'worn'
p3655
aS'your'
p3656
aS'shorts'
p3657
aS'so'
p3658
aS'high'
p3659
asg27
(lp3660
g3650
ag3651
ag3652
ag3653
ag3654
ag3655
ag3656
ag3657
ag3658
ag3659
asba(iMeme
Meme
p3661
(dp3662
g3
(lp3663
S'If'
p3664
aS'you'
p3665
aS'did'
p3666
aS"n't"
p3667
aS'want'
p3668
aS'me'
p3669
aS'to'
p3670
aS'spend'
p3671
aS'so'
p3672
aS'much'
p3673
aS'time'
p3674
aS'on'
p3675
aS'the'
p3676
aS'computer'
p3677
asg12
S"If you didn't want me to spend so much time on the computer "
p3678
sg14
S" you shouldn't have bought me video games for my birthday "
p3679
sg16
Vcaptain-hindsight
p3680
sg18
(lp3681
g3664
ag3665
ag3666
ag3667
ag3668
ag3669
ag3670
ag3671
ag3672
ag3673
ag3674
ag3675
ag3676
ag3677
aS'you'
p3682
aS'should'
p3683
aS"n't"
p3684
aS'have'
p3685
aS'bought'
p3686
aS'me'
p3687
aS'video'
p3688
aS'games'
p3689
aS'for'
p3690
aS'my'
p3691
aS'birthday'
p3692
asg27
(lp3693
g3682
ag3683
ag3684
ag3685
ag3686
ag3687
ag3688
ag3689
ag3690
ag3691
ag3692
asba(iMeme
Meme
p3694
(dp3695
g3
(lp3696
S'if'
p3697
aS'you'
p3698
aS'did'
p3699
aS"n't"
p3700
aS'want'
p3701
aS'me'
p3702
aS'to'
p3703
aS'hit'
p3704
aS'on'
p3705
aS'you'
p3706
asg12
S"if you didn't want me to hit on you "
p3707
sg14
S" you should'nt have made eye contact with me that one time in chemistry "
p3708
sg16
Vcaptain-hindsight
p3709
sg18
(lp3710
g3697
ag3698
ag3699
ag3700
ag3701
ag3702
ag3703
ag3704
ag3705
ag3706
aS'you'
p3711
aS"should'nt"
p3712
aS'have'
p3713
aS'made'
p3714
aS'eye'
p3715
aS'contact'
p3716
aS'with'
p3717
aS'me'
p3718
aS'that'
p3719
aS'one'
p3720
aS'time'
p3721
aS'in'
p3722
aS'chemistry'
p3723
asg27
(lp3724
g3711
ag3712
ag3713
ag3714
ag3715
ag3716
ag3717
ag3718
ag3719
ag3720
ag3721
ag3722
ag3723
asba(iMeme
Meme
p3725
(dp3726
g3
(lp3727
S'If'
p3728
aS'you'
p3729
aS'did'
p3730
aS"n't"
p3731
aS'want'
p3732
aS'me'
p3733
aS'to'
p3734
aS'swear'
p3735
aS'infront'
p3736
aS'of'
p3737
aS'your'
p3738
aS'children'
p3739
asg12
S"If you didn't want me to swear infront of your children "
p3740
sg14
S" you shouldn't have brought them to a university pizza hut at 8 at night "
p3741
sg16
Vcaptain-hindsight
p3742
sg18
(lp3743
g3728
ag3729
ag3730
ag3731
ag3732
ag3733
ag3734
ag3735
ag3736
ag3737
ag3738
ag3739
aS'you'
p3744
aS'should'
p3745
aS"n't"
p3746
aS'have'
p3747
aS'brought'
p3748
aS'them'
p3749
aS'to'
p3750
ag25
aS'university'
p3751
aS'pizza'
p3752
aS'hut'
p3753
aS'at'
p3754
aS'8'
p3755
aS'at'
p3756
aS'night'
p3757
asg27
(lp3758
g3744
ag3745
ag3746
ag3747
ag3748
ag3749
ag3750
ag25
ag3751
ag3752
ag3753
ag3754
ag3755
ag3756
ag3757
asba(iMeme
Meme
p3759
(dp3760
g3
(lp3761
S'nikau'
p3762
aS'is'
p3763
aS'one'
p3764
aS'week'
p3765
aS'away'
p3766
asg12
S'nikau is one week away '
p3767
sg14
S' so save up '
p3768
sg16
Vcaptain-hindsight
p3769
sg18
(lp3770
g3762
ag3763
ag3764
ag3765
ag3766
aS'so'
p3771
aS'save'
p3772
aS'up'
p3773
asg27
(lp3774
g3771
ag3772
ag3773
asba(iMeme
Meme
p3775
(dp3776
g3
(lp3777
S'If'
p3778
aS'you'
p3779
aS'did'
p3780
aS"n't"
p3781
aS'want'
p3782
aS'to'
p3783
aS'read'
p3784
aS'long'
p3785
aS'rambling'
p3786
aS'posts'
p3787
aS'about'
p3788
aS'nothing'
p3789
aS'interesting'
p3790
asg12
S"If you didn't want to read long rambling posts about nothing interesting "
p3791
sg14
S" You shouldn't have joined Facebook. "
p3792
sg16
Vcaptain-hindsight
p3793
sg18
(lp3794
g3778
ag3779
ag3780
ag3781
ag3782
ag3783
ag3784
ag3785
ag3786
ag3787
ag3788
ag3789
ag3790
aS'You'
p3795
aS'should'
p3796
aS"n't"
p3797
aS'have'
p3798
aS'joined'
p3799
aS'Facebook'
p3800
ag192
asg27
(lp3801
g3795
ag3796
ag3797
ag3798
ag3799
ag3800
ag192
asba(iMeme
Meme
p3802
(dp3803
g3
(lp3804
S'If'
p3805
aS'you'
p3806
aS'did'
p3807
aS"n't"
p3808
aS'want'
p3809
aS'bad'
p3810
aS'empoyees'
p3811
asg12
S"If you didn't want bad empoyees "
p3812
sg14
S" You shouldn't have hired five mentally challenged individuals. "
p3813
sg16
Vcaptain-hindsight
p3814
sg18
(lp3815
g3805
ag3806
ag3807
ag3808
ag3809
ag3810
ag3811
aS'You'
p3816
aS'should'
p3817
aS"n't"
p3818
aS'have'
p3819
aS'hired'
p3820
aS'five'
p3821
aS'mentally'
p3822
aS'challenged'
p3823
aS'individuals'
p3824
ag192
asg27
(lp3825
g3816
ag3817
ag3818
ag3819
ag3820
ag3821
ag3822
ag3823
ag3824
ag192
asba(iMeme
Meme
p3826
(dp3827
g3
(lp3828
S'Then'
p3829
aS'you'
p3830
aS"should'nt"
p3831
aS'have'
p3832
aS'taken'
p3833
ag25
aS'Job'
p3834
aS'as'
p3835
ag25
aS'MoD'
p3836
asg12
S"Then you should'nt have taken a Job as a MoD "
p3837
sg14
S' in a Community full of Retards '
p3838
sg16
Vcaptain-hindsight
p3839
sg18
(lp3840
g3829
ag3830
ag3831
ag3832
ag3833
ag25
ag3834
ag3835
ag25
ag3836
aS'in'
p3841
ag25
aS'Community'
p3842
aS'full'
p3843
aS'of'
p3844
aS'Retards'
p3845
asg27
(lp3846
g3841
ag25
ag3842
ag3843
ag3844
ag3845
asba(iMeme
Meme
p3847
(dp3848
g3
(lp3849
S'If'
p3850
aS'you'
p3851
aS'rape'
p3852
ag25
aS'girl'
p3853
aS'without'
p3854
ag25
aS'coNdom'
p3855
asg12
S'If you rape a girl without a coNdom  '
p3856
sg14
S" You're Gonna have a bad time ;)! "
p3857
sg16
Vcaptain-hindsight
p3858
sg18
(lp3859
g3850
ag3851
ag3852
ag25
ag3853
ag3854
ag25
ag3855
aS'You'
p3860
aS"'re"
p3861
aS'Gon'
p3862
aS'na'
p3863
aS'have'
p3864
ag25
aS'bad'
p3865
aS'time'
p3866
aS';'
p3867
aS')'
p3868
ag427
asg27
(lp3869
g3860
ag3861
ag3862
ag3863
ag3864
ag25
ag3865
ag3866
ag3867
ag3868
ag427
asba(iMeme
Meme
p3870
(dp3871
g3
(lp3872
S'Captian'
p3873
aS'hindsight'
p3874
asg12
S'Captian hindsight '
p3875
sg14
S' Can see you in the vag '
p3876
sg16
Vcaptain-hindsight
p3877
sg18
(lp3878
g3873
ag3874
aS'Can'
p3879
aS'see'
p3880
aS'you'
p3881
aS'in'
p3882
aS'the'
p3883
aS'vag'
p3884
asg27
(lp3885
g3879
ag3880
ag3881
ag3882
ag3883
ag3884
asba(iMeme
Meme
p3886
(dp3887
g3
(lp3888
S'nikau'
p3889
aS'is'
p3890
aS'just'
p3891
aS'one'
p3892
aS'week'
p3893
aS'away'
p3894
asg12
S'nikau is just one week away '
p3895
sg14
S' i have to save right now '
p3896
sg16
Vcaptain-hindsight
p3897
sg18
(lp3898
g3889
ag3890
ag3891
ag3892
ag3893
ag3894
ag1448
aS'have'
p3899
aS'to'
p3900
aS'save'
p3901
aS'right'
p3902
aS'now'
p3903
asg27
(lp3904
g1448
ag3899
ag3900
ag3901
ag3902
ag3903
asba(iMeme
Meme
p3905
(dp3906
g3
(lp3907
S'If'
p3908
aS'you'
p3909
aS'think'
p3910
aS'things'
p3911
aS'will'
p3912
aS'get'
p3913
aS'better'
p3914
aS'after'
p3915
aS'rioting'
p3916
asg12
S'If you think things will get better after rioting '
p3917
sg14
S" you're going to have a bad time "
p3918
sg16
Vcaptain-hindsight
p3919
sg18
(lp3920
g3908
ag3909
ag3910
ag3911
ag3912
ag3913
ag3914
ag3915
ag3916
aS'you'
p3921
aS"'re"
p3922
aS'going'
p3923
aS'to'
p3924
aS'have'
p3925
ag25
aS'bad'
p3926
aS'time'
p3927
asg27
(lp3928
g3921
ag3922
ag3923
ag3924
ag3925
ag25
ag3926
ag3927
asba(iMeme
Meme
p3929
(dp3930
g3
(lp3931
S'if'
p3932
aS'you'
p3933
aS'wanted'
p3934
aS'me'
p3935
aS'to'
p3936
aS'understand'
p3937
aS'you'
p3938
asg12
S'if you wanted me to understand you '
p3939
sg14
S' u shoudnt tlk lik dis wen u txt me '
p3940
sg16
Vcaptain-hindsight
p3941
sg18
(lp3942
g3932
ag3933
ag3934
ag3935
ag3936
ag3937
ag3938
ag3030
aS'shoudnt'
p3943
aS'tlk'
p3944
aS'lik'
p3945
aS'dis'
p3946
aS'wen'
p3947
ag3030
aS'txt'
p3948
aS'me'
p3949
asg27
(lp3950
g3030
ag3943
ag3944
ag3945
ag3946
ag3947
ag3030
ag3948
ag3949
asba(iMeme
Meme
p3951
(dp3952
g3
(lp3953
S'Jon'
p3954
aS'Carr'
p3955
aS'should'
p3956
aS"'ve"
p3957
aS'set'
p3958
aS'up'
p3959
aS'the'
p3960
aS'league'
p3961
aS'earlier'
p3962
asg12
S"Jon Carr should've set up the league earlier "
p3963
sg14
S' Thank you Captain Hindsight! '
p3964
sg16
Vcaptain-hindsight
p3965
sg18
(lp3966
g3954
ag3955
ag3956
ag3957
ag3958
ag3959
ag3960
ag3961
ag3962
aS'Thank'
p3967
aS'you'
p3968
aS'Captain'
p3969
aS'Hindsight'
p3970
ag427
asg27
(lp3971
g3967
ag3968
ag3969
ag3970
ag427
asba(iMeme
Meme
p3972
(dp3973
g3
(lp3974
S'if'
p3975
aS'you'
p3976
aS'did'
p3977
aS"n't"
p3978
aS'want'
p3979
aS'to'
p3980
aS'loose'
p3981
aS'hills'
p3982
asg12
S"if you didn't want to loose hills  "
p3983
sg14
S' you should have built arrowcarts '
p3984
sg16
Vcaptain-hindsight
p3985
sg18
(lp3986
g3975
ag3976
ag3977
ag3978
ag3979
ag3980
ag3981
ag3982
aS'you'
p3987
aS'should'
p3988
aS'have'
p3989
aS'built'
p3990
aS'arrowcarts'
p3991
asg27
(lp3992
g3987
ag3988
ag3989
ag3990
ag3991
asba(iMeme
Meme
p3993
(dp3994
g3
(lp3995
S'You'
p3996
aS'you'
p3997
aS'wanted'
p3998
aS'programmers'
p3999
aS'to'
p4000
aS'like'
p4001
aS'chrome'
p4002
asg12
S'You you wanted programmers to like chrome '
p4003
sg14
S' You should have implemented visibility:collapse on table rows like every other browser '
p4004
sg16
Vcaptain-hindsight
p4005
sg18
(lp4006
g3996
ag3997
ag3998
ag3999
ag4000
ag4001
ag4002
aS'You'
p4007
aS'should'
p4008
aS'have'
p4009
aS'implemented'
p4010
aS'visibility'
p4011
ag2136
aS'collapse'
p4012
aS'on'
p4013
aS'table'
p4014
aS'rows'
p4015
aS'like'
p4016
aS'every'
p4017
aS'other'
p4018
aS'browser'
p4019
asg27
(lp4020
g4007
ag4008
ag4009
ag4010
ag4011
ag2136
ag4012
ag4013
ag4014
ag4015
ag4016
ag4017
ag4018
ag4019
asba(iMeme
Meme
p4021
(dp4022
g3
(lp4023
S'if'
p4024
aS'you'
p4025
aS'did'
p4026
aS"n't"
p4027
aS'want'
p4028
aS'your'
p4029
aS'president'
p4030
aS'to'
p4031
aS'have'
p4032
aS'the'
p4033
aS'ability'
p4034
aS'to'
p4035
aS'start'
p4036
ag25
aS'war'
p4037
aS'without'
p4038
aS'getting'
p4039
aS'permission'
p4040
aS'from'
p4041
aS'congress'
p4042
asg12
S"if you didn't want your president to have the ability to start a war without getting permission from congress "
p4043
sg14
S' you should have made that into law '
p4044
sg16
Vcaptain-hindsight
p4045
sg18
(lp4046
g4024
ag4025
ag4026
ag4027
ag4028
ag4029
ag4030
ag4031
ag4032
ag4033
ag4034
ag4035
ag4036
ag25
ag4037
ag4038
ag4039
ag4040
ag4041
ag4042
aS'you'
p4047
aS'should'
p4048
aS'have'
p4049
aS'made'
p4050
aS'that'
p4051
aS'into'
p4052
aS'law'
p4053
asg27
(lp4054
g4047
ag4048
ag4049
ag4050
ag4051
ag4052
ag4053
asba(iMeme
Meme
p4055
(dp4056
g3
(lp4057
S'If'
p4058
aS'you'
p4059
aS'did'
p4060
aS"n't"
p4061
aS'want'
p4062
aS'me'
p4063
aS'to'
p4064
aS'spend'
p4065
aS'so'
p4066
aS'much'
p4067
aS'time'
p4068
aS'playing'
p4069
aS'video'
p4070
aS'games'
p4071
asg12
S"If you didn't want me to spend so much time playing video games "
p4072
sg14
S" you shouldn't have bought me civ 5 for my birthday "
p4073
sg16
Vcaptain-hindsight
p4074
sg18
(lp4075
g4058
ag4059
ag4060
ag4061
ag4062
ag4063
ag4064
ag4065
ag4066
ag4067
ag4068
ag4069
ag4070
ag4071
aS'you'
p4076
aS'should'
p4077
aS"n't"
p4078
aS'have'
p4079
aS'bought'
p4080
aS'me'
p4081
aS'civ'
p4082
aS'5'
p4083
aS'for'
p4084
aS'my'
p4085
aS'birthday'
p4086
asg27
(lp4087
g4076
ag4077
ag4078
ag4079
ag4080
ag4081
ag4082
ag4083
ag4084
ag4085
ag4086
asba(iMeme
Meme
p4088
(dp4089
g3
(lp4090
S'If'
p4091
aS'you'
p4092
aS'did'
p4093
aS"n't"
p4094
aS'want'
p4095
aS'to'
p4096
aS'make'
p4097
aS'minimum'
p4098
aS'wage'
p4099
asg12
S"If you didn't want to make minimum wage "
p4100
sg14
S" You shouldn't have taken a job that pays minimum wage "
p4101
sg16
Vcaptain-hindsight
p4102
sg18
(lp4103
g4091
ag4092
ag4093
ag4094
ag4095
ag4096
ag4097
ag4098
ag4099
aS'You'
p4104
aS'should'
p4105
aS"n't"
p4106
aS'have'
p4107
aS'taken'
p4108
ag25
aS'job'
p4109
aS'that'
p4110
aS'pays'
p4111
aS'minimum'
p4112
aS'wage'
p4113
asg27
(lp4114
g4104
ag4105
ag4106
ag4107
ag4108
ag25
ag4109
ag4110
ag4111
ag4112
ag4113
asba(iMeme
Meme
p4115
(dp4116
g3
(lp4117
S'Everyone'
p4118
aS'chant'
p4119
aS'with'
p4120
aS'me'
p4121
asg12
S'Everyone chant with me '
p4122
sg14
S' roostar! Roostar!  '
p4123
sg16
Vcaptain-hindsight
p4124
sg18
(lp4125
g4118
ag4119
ag4120
ag4121
aS'roostar'
p4126
ag427
aS'Roostar'
p4127
ag427
asg27
(lp4128
g4126
ag427
ag4127
ag427
asba(iMeme
Meme
p4129
(dp4130
g3
(lp4131
S'If'
p4132
aS'you'
p4133
aS'didnt'
p4134
aS'want'
p4135
aS'people'
p4136
aS'to'
p4137
aS'know'
p4138
aS'you'
p4139
aS'cut'
p4140
aS'yourself'
p4141
asg12
S'If you didnt want people to know you cut yourself '
p4142
sg14
S" then you shouldn't have worn a singlet and shown them off! "
p4143
sg16
Vcaptain-hindsight
p4144
sg18
(lp4145
g4132
ag4133
ag4134
ag4135
ag4136
ag4137
ag4138
ag4139
ag4140
ag4141
aS'then'
p4146
aS'you'
p4147
aS'should'
p4148
aS"n't"
p4149
aS'have'
p4150
aS'worn'
p4151
ag25
aS'singlet'
p4152
aS'and'
p4153
aS'shown'
p4154
aS'them'
p4155
aS'off'
p4156
ag427
asg27
(lp4157
g4146
ag4147
ag4148
ag4149
ag4150
ag4151
ag25
ag4152
ag4153
ag4154
ag4155
ag4156
ag427
asba(iMeme
Meme
p4158
(dp4159
g3
(lp4160
S'if'
p4161
aS'you'
p4162
aS'wanted'
p4163
aS'an'
p4164
aS'online'
p4165
aS'platform'
p4166
aS'of'
p4167
aS'democracy'
p4168
aS'and'
p4169
aS'free'
p4170
aS'speech'
p4171
asg12
S'if you wanted an online platform of democracy and free speech '
p4172
sg14
S" you shoudn't have come to reddit "
p4173
sg16
Vcaptain-hindsight
p4174
sg18
(lp4175
g4161
ag4162
ag4163
ag4164
ag4165
ag4166
ag4167
ag4168
ag4169
ag4170
ag4171
aS'you'
p4176
aS'shoud'
p4177
aS"n't"
p4178
aS'have'
p4179
aS'come'
p4180
aS'to'
p4181
aS'reddit'
p4182
asg27
(lp4183
g4176
ag4177
ag4178
ag4179
ag4180
ag4181
ag4182
asba(iMeme
Meme
p4184
(dp4185
g3
(lp4186
S'If'
p4187
aS'you'
p4188
aS'want'
p4189
aS'good'
p4190
aS'music'
p4191
ag131
asg12
S'If you want good music, '
p4192
sg14
S' there is always heavy metal '
p4193
sg16
Vcaptain-hindsight
p4194
sg18
(lp4195
g4187
ag4188
ag4189
ag4190
ag4191
ag131
aS'there'
p4196
aS'is'
p4197
aS'always'
p4198
aS'heavy'
p4199
aS'metal'
p4200
asg27
(lp4201
g4196
ag4197
ag4198
ag4199
ag4200
asba(iMeme
Meme
p4202
(dp4203
g3
(lp4204
S'Realting'
p4205
aS'to'
p4206
aS'Game'
p4207
aS'of'
p4208
aS'Thrones'
p4209
aS'Season'
p4210
aS'3'
p4211
ag2136
asg12
S'Realting to Game of Thrones Season 3 :'
p4212
sg14
S" If you don't want people to pirate your show "
p4213
sg16
Vcaptain-hindsight
p4214
sg18
(lp4215
g4205
ag4206
ag4207
ag4208
ag4209
ag4210
ag4211
ag2136
aS'If'
p4216
aS'you'
p4217
aS'do'
p4218
aS"n't"
p4219
aS'want'
p4220
aS'people'
p4221
aS'to'
p4222
aS'pirate'
p4223
aS'your'
p4224
aS'show'
p4225
asg27
(lp4226
g4216
ag4217
ag4218
ag4219
ag4220
ag4221
ag4222
ag4223
ag4224
ag4225
asba(iMeme
Meme
p4227
(dp4228
g3
(lp4229
S'Bitch'
p4230
aS'im'
p4231
aS'so'
p4232
aS'cool'
p4233
asg12
S'Bitch im so cool '
p4234
sg14
S' I can kill a criminal just by looking at them '
p4235
sg16
Vcaptain-hindsight
p4236
sg18
(lp4237
g4230
ag4231
ag4232
ag4233
ag2149
aS'can'
p4238
aS'kill'
p4239
ag25
aS'criminal'
p4240
aS'just'
p4241
aS'by'
p4242
aS'looking'
p4243
aS'at'
p4244
aS'them'
p4245
asg27
(lp4246
g2149
ag4238
ag4239
ag25
ag4240
ag4241
ag4242
ag4243
ag4244
ag4245
asba(iMeme
Meme
p4247
(dp4248
g3
(lp4249
S'If'
p4250
aS'you'
p4251
aS'do'
p4252
aS"n't"
p4253
aS'vote'
p4254
aS'Baileigh'
p4255
aS'for'
p4256
aS'food'
p4257
aS'rep'
p4258
asg12
S"If you don't vote Baileigh for food rep "
p4259
sg14
S' Your gonna have a bad time '
p4260
sg16
Vcaptain-hindsight
p4261
sg18
(lp4262
g4250
ag4251
ag4252
ag4253
ag4254
ag4255
ag4256
ag4257
ag4258
aS'Your'
p4263
aS'gon'
p4264
aS'na'
p4265
aS'have'
p4266
ag25
aS'bad'
p4267
aS'time'
p4268
asg27
(lp4269
g4263
ag4264
ag4265
ag4266
ag25
ag4267
ag4268
asba(iMeme
Meme
p4270
(dp4271
g3
(lp4272
S'if'
p4273
aS'you'
p4274
aS'literally'
p4275
aS'lived'
p4276
aS'by'
p4277
aS'your'
p4278
aS'phone'
p4279
asg12
S'if you literally lived by your phone '
p4280
sg14
S" you shouldn't have left it unattended at the marino center "
p4281
sg16
Vcaptain-hindsight
p4282
sg18
(lp4283
g4273
ag4274
ag4275
ag4276
ag4277
ag4278
ag4279
aS'you'
p4284
aS'should'
p4285
aS"n't"
p4286
aS'have'
p4287
aS'left'
p4288
aS'it'
p4289
aS'unattended'
p4290
aS'at'
p4291
aS'the'
p4292
aS'marino'
p4293
aS'center'
p4294
asg27
(lp4295
g4284
ag4285
ag4286
ag4287
ag4288
ag4289
ag4290
ag4291
ag4292
ag4293
ag4294
asba(iMeme
Meme
p4296
(dp4297
g3
(lp4298
S'Eye'
p4299
aS'contact'
p4300
aS'in'
p4301
aS'contact'
p4302
asg12
S'Eye contact in contact '
p4303
sg14
S' So beautiful '
p4304
sg16
Vcaptain-hindsight
p4305
sg18
(lp4306
g4299
ag4300
ag4301
ag4302
aS'So'
p4307
aS'beautiful'
p4308
asg27
(lp4309
g4307
ag4308
asba(iMeme
Meme
p4310
(dp4311
g3
(lp4312
S'deasy'
p4313
aS'trying'
p4314
aS'to'
p4315
aS'say'
p4316
ag131
aS'hes'
p4317
aS'has'
p4318
aS'the'
p4319
aS'biggest'
p4320
asg12
S'deasy trying to say, hes has the biggest '
p4321
sg14
S'  '
p4322
sg16
Vcaptain-hindsight
p4323
sg18
(lp4324
g4313
ag4314
ag4315
ag4316
ag131
ag4317
ag4318
ag4319
ag4320
asg27
(lp4325
sba(iMeme
Meme
p4326
(dp4327
g3
(lp4328
S'if'
p4329
aS'you'
p4330
aS'play'
p4331
aS'football'
p4332
aS'with'
p4333
aS'an'
p4334
aS'house'
p4335
aS'brick'
p4336
asg12
S'if you play football with an house brick '
p4337
sg14
S' your gona have a bad time '
p4338
sg16
Vcaptain-hindsight
p4339
sg18
(lp4340
g4329
ag4330
ag4331
ag4332
ag4333
ag4334
ag4335
ag4336
aS'your'
p4341
aS'gona'
p4342
aS'have'
p4343
ag25
aS'bad'
p4344
aS'time'
p4345
asg27
(lp4346
g4341
ag4342
ag4343
ag25
ag4344
ag4345
asba(iMeme
Meme
p4347
(dp4348
g3
(lp4349
S'your'
p4350
aS'number'
p4351
aS'one'
p4352
aS'mom'
p4353
asg12
S'your number one mom '
p4354
sg14
S'  '
p4355
sg16
Vcaptain-hindsight
p4356
sg18
(lp4357
g4350
ag4351
ag4352
ag4353
asg27
(lp4358
sba(iMeme
Meme
p4359
(dp4360
g3
(lp4361
S'If'
p4362
aS'you'
p4363
aS'did'
p4364
aS"n't"
p4365
aS'want'
p4366
aS'me'
p4367
aS'to'
p4368
aS'tell'
p4369
aS'you'
p4370
aS"'re"
p4371
aS'mom'
p4372
aS'you'
p4373
aS'left'
p4374
aS'me'
p4375
aS'for'
p4376
ag25
aS'coke'
p4377
aS'dealer'
p4378
asg12
S"If you didn't want me to tell you're mom you left me for a coke dealer "
p4379
sg14
S" You shouldn't have ran off with your coke dealer "
p4380
sg16
Vcaptain-hindsight
p4381
sg18
(lp4382
g4362
ag4363
ag4364
ag4365
ag4366
ag4367
ag4368
ag4369
ag4370
ag4371
ag4372
ag4373
ag4374
ag4375
ag4376
ag25
ag4377
ag4378
aS'You'
p4383
aS'should'
p4384
aS"n't"
p4385
aS'have'
p4386
aS'ran'
p4387
aS'off'
p4388
aS'with'
p4389
aS'your'
p4390
aS'coke'
p4391
aS'dealer'
p4392
asg27
(lp4393
g4383
ag4384
ag4385
ag4386
ag4387
ag4388
ag4389
ag4390
ag4391
ag4392
asba(iMeme
Meme
p4394
(dp4395
g3
(lp4396
g2149
aS'will'
p4397
aS'fart'
p4398
aS'for'
p4399
asg12
S'I will fart for  '
p4400
sg14
S' The first time '
p4401
sg16
Vcaptain-hindsight
p4402
sg18
(lp4403
g2149
ag4397
ag4398
ag4399
aS'The'
p4404
aS'first'
p4405
aS'time'
p4406
asg27
(lp4407
g4404
ag4405
ag4406
asba(iMeme
Meme
p4408
(dp4409
g3
(lp4410
S'If'
p4411
aS'you'
p4412
aS'wanted'
p4413
aS'someone'
p4414
aS'to'
p4415
aS'give'
p4416
ag25
aS'heartfelt'
p4417
aS'speach'
p4418
aS'about'
p4419
ag25
aS'senior'
p4420
asg12
S'If you wanted someone to give a heartfelt speach about a senior '
p4421
sg14
S" you shouldn't have let the most self"
p4422
sg16
Vcaptain-hindsight
p4423
sg18
(lp4424
g4411
ag4412
ag4413
ag4414
ag4415
ag4416
ag25
ag4417
ag4418
ag4419
ag25
ag4420
aS'you'
p4425
aS'should'
p4426
aS"n't"
p4427
aS'have'
p4428
aS'let'
p4429
aS'the'
p4430
aS'most'
p4431
aS'self'
p4432
asg27
(lp4433
g4425
ag4426
ag4427
ag4428
ag4429
ag4430
ag4431
ag4432
asba(iMeme
Meme
p4434
(dp4435
g3
(lp4436
S'If'
p4437
aS'you'
p4438
aS'did'
p4439
aS"n't"
p4440
aS'want'
p4441
aS'to'
p4442
aS'listen'
p4443
aS'to'
p4444
aS'Imagine'
p4445
aS'Dragons'
p4446
asg12
S"If you didn't want to listen to Imagine Dragons "
p4447
sg14
S" you shouldn't have turned on the radio "
p4448
sg16
Vcaptain-hindsight
p4449
sg18
(lp4450
g4437
ag4438
ag4439
ag4440
ag4441
ag4442
ag4443
ag4444
ag4445
ag4446
aS'you'
p4451
aS'should'
p4452
aS"n't"
p4453
aS'have'
p4454
aS'turned'
p4455
aS'on'
p4456
aS'the'
p4457
aS'radio'
p4458
asg27
(lp4459
g4451
ag4452
ag4453
ag4454
ag4455
ag4456
ag4457
ag4458
asba(iMeme
Meme
p4460
(dp4461
g3
(lp4462
S'If'
p4463
aS'you'
p4464
aS'dont'
p4465
aS'want'
p4466
aS'your'
p4467
aS'weapons'
p4468
aS'to'
p4469
aS'get'
p4470
aS'nerfed'
p4471
asg12
S'If you dont want your weapons to get nerfed '
p4472
sg14
S' then you should not buy overpowered weapons '
p4473
sg16
Vcaptain-hindsight
p4474
sg18
(lp4475
g4463
ag4464
ag4465
ag4466
ag4467
ag4468
ag4469
ag4470
ag4471
aS'then'
p4476
aS'you'
p4477
aS'should'
p4478
aS'not'
p4479
aS'buy'
p4480
aS'overpowered'
p4481
aS'weapons'
p4482
asg27
(lp4483
g4476
ag4477
ag4478
ag4479
ag4480
ag4481
ag4482
asba.