(lp0
(iMeme
Meme
p1
(dp2
S'top_text'
p3
(lp4
S'Man'
p5
aS'who'
p6
aS'run'
p7
aS'in'
p8
aS'front'
p9
aS'of'
p10
aS'bus'
p11
aS'get'
p12
aS'tired'
p13
asS'top_text_raw'
p14
S'Man who run in front of bus get tired '
p15
sS'bottom_text_raw'
p16
S' man who run behind bus get exhausted'
p17
sS'meme_type'
p18
Vconfucius-says
p19
sS'all_text'
p20
(lp21
g5
ag6
ag7
ag8
ag9
ag10
ag11
ag12
ag13
aS'man'
p22
aS'who'
p23
aS'run'
p24
aS'behind'
p25
aS'bus'
p26
aS'get'
p27
aS'exhausted'
p28
asS'bottom_text'
p29
(lp30
g22
ag23
ag24
ag25
ag26
ag27
ag28
asba(iMeme
Meme
p31
(dp32
g3
(lp33
S'It'
p34
aS"'s"
p35
aS'good'
p36
aS'to'
p37
aS'meet'
p38
aS'girl'
p39
aS'in'
p40
aS'park'
p41
asg14
S"It's good to meet girl in park "
p42
sg16
S' but better to park meat in girl'
p43
sg18
Vconfucius-says
p44
sg20
(lp45
g34
ag35
ag36
ag37
ag38
ag39
ag40
ag41
aS'but'
p46
aS'better'
p47
aS'to'
p48
aS'park'
p49
aS'meat'
p50
aS'in'
p51
aS'girl'
p52
asg29
(lp53
g46
ag47
ag48
ag49
ag50
ag51
ag52
asba(iMeme
Meme
p54
(dp55
g3
(lp56
S'Baseball'
p57
aS'has'
p58
aS'got'
p59
aS'it'
p60
aS'all'
p61
aS'wrong'
p62
asg14
S'Baseball has got it all wrong '
p63
sg16
S' man who has four balls can not walk'
p64
sg18
Vconfucius-says
p65
sg20
(lp66
g57
ag58
ag59
ag60
ag61
ag62
aS'man'
p67
aS'who'
p68
aS'has'
p69
aS'four'
p70
aS'balls'
p71
aS'can'
p72
aS'not'
p73
aS'walk'
p74
asg29
(lp75
g67
ag68
ag69
ag70
ag71
ag72
ag73
ag74
asba(iMeme
Meme
p76
(dp77
g3
(lp78
S'Man'
p79
aS'who'
p80
aS'smoke'
p81
aS'weed'
p82
aS'on'
p83
aS'toilet'
p84
asg14
S'Man who smoke weed on toilet '
p85
sg16
S' is high on pot'
p86
sg18
Vconfucius-says
p87
sg20
(lp88
g79
ag80
ag81
ag82
ag83
ag84
aS'is'
p89
aS'high'
p90
aS'on'
p91
aS'pot'
p92
asg29
(lp93
g89
ag90
ag91
ag92
asba(iMeme
Meme
p94
(dp95
g3
(lp96
S'It'
p97
aS'takes'
p98
aS'many'
p99
aS'nails'
p100
aS'to'
p101
aS'build'
p102
aS'a'
p103
aS'crib'
p104
asg14
S'It takes many nails to build a crib '
p105
sg16
S' But only one screw to fill it'
p106
sg18
Vconfucius-says
p107
sg20
(lp108
g97
ag98
ag99
ag100
ag101
ag102
ag103
ag104
aS'But'
p109
aS'only'
p110
aS'one'
p111
aS'screw'
p112
aS'to'
p113
aS'fill'
p114
aS'it'
p115
asg29
(lp116
g109
ag110
ag111
ag112
ag113
ag114
ag115
asba(iMeme
Meme
p117
(dp118
g3
(lp119
S'man'
p120
aS'who'
p121
aS'shove'
p122
aS'phone'
p123
aS'up'
p124
aS'ass'
p125
asg14
S'man who shove phone up ass '
p126
sg16
S' bound to have shitty reception'
p127
sg18
Vconfucius-says
p128
sg20
(lp129
g120
ag121
ag122
ag123
ag124
ag125
aS'bound'
p130
aS'to'
p131
aS'have'
p132
aS'shitty'
p133
aS'reception'
p134
asg29
(lp135
g130
ag131
ag132
ag133
ag134
asba(iMeme
Meme
p136
(dp137
g3
(lp138
S'Man'
p139
aS'who'
p140
aS'keep'
p141
aS'staring'
p142
aS'at'
p143
aS'breasts'
p144
asg14
S'Man who keep staring at breasts '
p145
sg16
S' racks focus'
p146
sg18
Vconfucius-says
p147
sg20
(lp148
g139
ag140
ag141
ag142
ag143
ag144
aS'racks'
p149
aS'focus'
p150
asg29
(lp151
g149
ag150
asba(iMeme
Meme
p152
(dp153
g3
(lp154
S'man'
p155
aS'who'
p156
aS'drop'
p157
aS'watch'
p158
aS'in'
p159
aS'toilet'
p160
asg14
S'man who drop watch in toilet '
p161
sg16
S' bound to have shitty time'
p162
sg18
Vconfucius-says
p163
sg20
(lp164
g155
ag156
ag157
ag158
ag159
ag160
aS'bound'
p165
aS'to'
p166
aS'have'
p167
aS'shitty'
p168
aS'time'
p169
asg29
(lp170
g165
ag166
ag167
ag168
ag169
asba(iMeme
Meme
p171
(dp172
g3
(lp173
S'Man'
p174
aS'who'
p175
aS'stand'
p176
aS'on'
p177
aS'toilet'
p178
asg14
S'Man who stand on toilet '
p179
sg16
S' high on pot'
p180
sg18
Vconfucius-says
p181
sg20
(lp182
g174
ag175
ag176
ag177
ag178
aS'high'
p183
aS'on'
p184
aS'pot'
p185
asg29
(lp186
g183
ag184
ag185
asba(iMeme
Meme
p187
(dp188
g3
(lp189
S'man'
p190
aS'who'
p191
aS'put'
p192
aS'on'
p193
aS'itchy'
p194
aS'sweater'
p195
asg14
S'man who put on itchy sweater '
p196
sg16
S' start every day from scratch'
p197
sg18
Vconfucius-says
p198
sg20
(lp199
g190
ag191
ag192
ag193
ag194
ag195
aS'start'
p200
aS'every'
p201
aS'day'
p202
aS'from'
p203
aS'scratch'
p204
asg29
(lp205
g200
ag201
ag202
ag203
ag204
asba(iMeme
Meme
p206
(dp207
g3
(lp208
S'it'
p209
aS'is'
p210
aS'good'
p211
aS'to'
p212
aS'meet'
p213
aS'girl'
p214
aS'in'
p215
aS'park'
p216
asg14
S'it is good to meet girl in park '
p217
sg16
S' but better to park meat in girl'
p218
sg18
Vconfucius-says
p219
sg20
(lp220
g209
ag210
ag211
ag212
ag213
ag214
ag215
ag216
aS'but'
p221
aS'better'
p222
aS'to'
p223
aS'park'
p224
aS'meat'
p225
aS'in'
p226
aS'girl'
p227
asg29
(lp228
g221
ag222
ag223
ag224
ag225
ag226
ag227
asba(iMeme
Meme
p229
(dp230
g3
(lp231
S'Man'
p232
aS'who'
p233
aS'raises'
p234
aS'angry'
p235
aS'chickens'
p236
asg14
S'Man who raises angry chickens '
p237
sg16
S' eats raging cock for dinner'
p238
sg18
Vconfucius-says
p239
sg20
(lp240
g232
ag233
ag234
ag235
ag236
aS'eats'
p241
aS'raging'
p242
aS'cock'
p243
aS'for'
p244
aS'dinner'
p245
asg29
(lp246
g241
ag242
ag243
ag244
ag245
asba(iMeme
Meme
p247
(dp248
g3
(lp249
S'Man'
p250
aS'who'
p251
aS'make'
p252
aS'mistake'
p253
aS'in'
p254
aS'elevator'
p255
asg14
S'Man who make mistake in elevator '
p256
sg16
S' wrong on many levels'
p257
sg18
Vconfucius-says
p258
sg20
(lp259
g250
ag251
ag252
ag253
ag254
ag255
aS'wrong'
p260
aS'on'
p261
aS'many'
p262
aS'levels'
p263
asg29
(lp264
g260
ag261
ag262
ag263
asba(iMeme
Meme
p265
(dp266
g3
(lp267
S'man'
p268
aS'who'
p269
aS'puts'
p270
aS'dick'
p271
aS'in'
p272
aS'peanut'
p273
aS'butter'
p274
asg14
S'man who puts dick in peanut butter '
p275
sg16
S' is fucking nuts'
p276
sg18
Vconfucius-says
p277
sg20
(lp278
g268
ag269
ag270
ag271
ag272
ag273
ag274
aS'is'
p279
aS'fucking'
p280
aS'nuts'
p281
asg29
(lp282
g279
ag280
ag281
asba(iMeme
Meme
p283
(dp284
g3
(lp285
S'Man'
p286
aS'who'
p287
aS'stand'
p288
aS'on'
p289
aS'toilet'
p290
asg14
S'Man who stand on toilet '
p291
sg16
S' High on pot'
p292
sg18
Vconfucius-says
p293
sg20
(lp294
g286
ag287
ag288
ag289
ag290
aS'High'
p295
aS'on'
p296
aS'pot'
p297
asg29
(lp298
g295
ag296
ag297
asba(iMeme
Meme
p299
(dp300
g3
(lp301
S'man'
p302
aS'who'
p303
aS'drop'
p304
aS'watch'
p305
aS'in'
p306
aS'toilet'
p307
asg14
S'man who drop watch in toilet '
p308
sg16
S' have shitty time'
p309
sg18
Vconfucius-says
p310
sg20
(lp311
g302
ag303
ag304
ag305
ag306
ag307
aS'have'
p312
aS'shitty'
p313
aS'time'
p314
asg29
(lp315
g312
ag313
ag314
asba(iMeme
Meme
p316
(dp317
g3
(lp318
S'man'
p319
aS'who'
p320
aS'want'
p321
aS'pretty'
p322
aS'nurse'
p323
asg14
S'man who want pretty nurse '
p324
sg16
S' must be patient'
p325
sg18
Vconfucius-says
p326
sg20
(lp327
g319
ag320
ag321
ag322
ag323
aS'must'
p328
aS'be'
p329
aS'patient'
p330
asg29
(lp331
g328
ag329
ag330
asba(iMeme
Meme
p332
(dp333
g3
(lp334
S'Virginity'
p335
aS'like'
p336
aS'bubble'
p337
asg14
S'Virginity like bubble '
p338
sg16
S' One prick, all gone'
p339
sg18
Vconfucius-says
p340
sg20
(lp341
g335
ag336
ag337
aS'One'
p342
aS'prick'
p343
aS','
p344
aS'all'
p345
aS'gone'
p346
asg29
(lp347
g342
ag343
ag344
ag345
ag346
asba(iMeme
Meme
p348
(dp349
g3
(lp350
S'Go'
p351
aS'to'
p352
aS'bed'
p353
aS'with'
p354
aS'sex'
p355
aS'problem'
p356
aS'on'
p357
aS'Mind'
p358
asg14
S'Go to bed with sex problem on Mind '
p359
sg16
S' wake up with solution in hand'
p360
sg18
Vconfucius-says
p361
sg20
(lp362
g351
ag352
ag353
ag354
ag355
ag356
ag357
ag358
aS'wake'
p363
aS'up'
p364
aS'with'
p365
aS'solution'
p366
aS'in'
p367
aS'hand'
p368
asg29
(lp369
g363
ag364
ag365
ag366
ag367
ag368
asba(iMeme
Meme
p370
(dp371
g3
(lp372
S'gay'
p373
aS'men'
p374
aS'are'
p375
asg14
S'gay men are '
p376
sg16
S' fucking assholes'
p377
sg18
Vconfucius-says
p378
sg20
(lp379
g373
ag374
ag375
aS'fucking'
p380
aS'assholes'
p381
asg29
(lp382
g380
ag381
asba(iMeme
Meme
p383
(dp384
g3
(lp385
S'Man'
p386
aS'who'
p387
aS'put'
p388
aS'hand'
p389
aS'in'
p390
aS'pocket'
p391
asg14
S'Man who put hand in pocket '
p392
sg16
S' feel cocky'
p393
sg18
Vconfucius-says
p394
sg20
(lp395
g386
ag387
ag388
ag389
ag390
ag391
aS'feel'
p396
aS'cocky'
p397
asg29
(lp398
g396
ag397
asba(iMeme
Meme
p399
(dp400
g3
(lp401
S'Man'
p402
aS'should'
p403
aS'learn'
p404
aS'to'
p405
aS'masturbate'
p406
asg14
S'Man should learn to masturbate '
p407
sg16
S' Come in handy'
p408
sg18
Vconfucius-says
p409
sg20
(lp410
g402
ag403
ag404
ag405
ag406
aS'Come'
p411
aS'in'
p412
aS'handy'
p413
asg29
(lp414
g411
ag412
ag413
asba(iMeme
Meme
p415
(dp416
g3
(lp417
S'Man'
p418
aS'Have'
p419
aS'sex'
p420
aS'in'
p421
aS'psych'
p422
aS'ward'
p423
asg14
S'Man Have sex in psych ward '
p424
sg16
S' fucking crazy'
p425
sg18
Vconfucius-says
p426
sg20
(lp427
g418
ag419
ag420
ag421
ag422
ag423
aS'fucking'
p428
aS'crazy'
p429
asg29
(lp430
g428
ag429
asba(iMeme
Meme
p431
(dp432
g3
(lp433
S'BASEBALL'
p434
aS'WRONG'
p435
asg14
S'BASEBALL WRONG '
p436
sg16
S' Man with four balls no can walk'
p437
sg18
Vconfucius-says
p438
sg20
(lp439
g434
ag435
aS'Man'
p440
aS'with'
p441
aS'four'
p442
aS'balls'
p443
aS'no'
p444
aS'can'
p445
aS'walk'
p446
asg29
(lp447
g440
ag441
ag442
ag443
ag444
ag445
ag446
asba(iMeme
Meme
p448
(dp449
g3
(lp450
S'Doctor'
p451
aS'who'
p452
aS'suffer'
p453
aS'from'
p454
aS'anxiety'
p455
asg14
S'Doctor who suffer from anxiety '
p456
sg16
S' lose patients.'
p457
sg18
Vconfucius-says
p458
sg20
(lp459
g451
ag452
ag453
ag454
ag455
aS'lose'
p460
aS'patients'
p461
aS'.'
p462
asg29
(lp463
g460
ag461
ag462
asba(iMeme
Meme
p464
(dp465
g3
(lp466
S'man'
p467
aS'who'
p468
aS'walks'
p469
aS'into'
p470
aS'airport'
p471
aS'sideways'
p472
asg14
S'man who walks into airport sideways '
p473
sg16
S' is going to bangkok'
p474
sg18
Vconfucius-says
p475
sg20
(lp476
g467
ag468
ag469
ag470
ag471
ag472
aS'is'
p477
aS'going'
p478
aS'to'
p479
aS'bangkok'
p480
asg29
(lp481
g477
ag478
ag479
ag480
asba(iMeme
Meme
p482
(dp483
g3
(lp484
S'Man'
p485
aS'with'
p486
aS'hand'
p487
aS'down'
p488
aS'pants'
p489
asg14
S'Man with hand down pants '
p490
sg16
S' feel cocky all day'
p491
sg18
Vconfucius-says
p492
sg20
(lp493
g485
ag486
ag487
ag488
ag489
aS'feel'
p494
aS'cocky'
p495
aS'all'
p496
aS'day'
p497
asg29
(lp498
g494
ag495
ag496
ag497
asba(iMeme
Meme
p499
(dp500
g3
(lp501
S'Man'
p502
aS'who'
p503
aS'fish'
p504
aS'in'
p505
aS'other'
p506
aS'man'
p507
aS"'s"
p508
aS'well'
p509
asg14
S"Man who fish in other man's well "
p510
sg16
S' often catch crabs'
p511
sg18
Vconfucius-says
p512
sg20
(lp513
g502
ag503
ag504
ag505
ag506
ag507
ag508
ag509
aS'often'
p514
aS'catch'
p515
aS'crabs'
p516
asg29
(lp517
g514
ag515
ag516
asba(iMeme
Meme
p518
(dp519
g3
(lp520
S'man'
p521
aS'who'
p522
aS'run'
p523
aS'behind'
p524
aS'car'
p525
asg14
S'man who run behind car '
p526
sg16
S' get exhausted'
p527
sg18
Vconfucius-says
p528
sg20
(lp529
g521
ag522
ag523
ag524
ag525
aS'get'
p530
aS'exhausted'
p531
asg29
(lp532
g530
ag531
asba(iMeme
Meme
p533
(dp534
g3
(lp535
S'Man'
p536
aS'who'
p537
aS'run'
p538
aS'in'
p539
aS'front'
p540
aS'of'
p541
aS'bus'
p542
asg14
S'Man who run in front of bus '
p543
sg16
S' get tired'
p544
sg18
Vconfucius-says
p545
sg20
(lp546
g536
ag537
ag538
ag539
ag540
ag541
ag542
aS'get'
p547
aS'tired'
p548
asg29
(lp549
g547
ag548
asba(iMeme
Meme
p550
(dp551
g3
(lp552
S'it'
p553
aS'is'
p554
aS'good'
p555
aS'to'
p556
aS'meet'
p557
aS'girl'
p558
aS'in'
p559
aS'park'
p560
asg14
S'it is good to meet girl in park'
p561
sg16
S' better to park meat in girl'
p562
sg18
Vconfucius-says
p563
sg20
(lp564
g553
ag554
ag555
ag556
ag557
ag558
ag559
ag560
aS'better'
p565
aS'to'
p566
aS'park'
p567
aS'meat'
p568
aS'in'
p569
aS'girl'
p570
asg29
(lp571
g565
ag566
ag567
ag568
ag569
ag570
asba(iMeme
Meme
p572
(dp573
g3
(lp574
S'man'
p575
aS'who'
p576
aS'drop'
p577
aS'watch'
p578
aS'in'
p579
aS'toilet'
p580
asg14
S'man who drop watch in toilet'
p581
sg16
S' is bound to have shitty time'
p582
sg18
Vconfucius-says
p583
sg20
(lp584
g575
ag576
ag577
ag578
ag579
ag580
aS'is'
p585
aS'bound'
p586
aS'to'
p587
aS'have'
p588
aS'shitty'
p589
aS'time'
p590
asg29
(lp591
g585
ag586
ag587
ag588
ag589
ag590
asba(iMeme
Meme
p592
(dp593
g3
(lp594
S'pick'
p595
aS'pocket'
p596
aS'snatches'
p597
aS'watches'
p598
asg14
S'pick pocket snatches watches'
p599
sg16
S' peeping tom watches snatches'
p600
sg18
Vconfucius-says
p601
sg20
(lp602
g595
ag596
ag597
ag598
aS'peeping'
p603
aS'tom'
p604
aS'watches'
p605
aS'snatches'
p606
asg29
(lp607
g603
ag604
ag605
ag606
asba(iMeme
Meme
p608
(dp609
g3
(lp610
S'man'
p611
aS'who'
p612
aS'put'
p613
aS'hand'
p614
aS'in'
p615
aS'pocket'
p616
asg14
S'man who put hand in pocket'
p617
sg16
S' feel cocky'
p618
sg18
Vconfucius-says
p619
sg20
(lp620
g611
ag612
ag613
ag614
ag615
ag616
aS'feel'
p621
aS'cocky'
p622
asg29
(lp623
g621
ag622
asba(iMeme
Meme
p624
(dp625
g3
(lp626
S'man'
p627
aS'who'
p628
aS'run'
p629
aS'behind'
p630
aS'car'
p631
asg14
S'man who run behind car'
p632
sg16
S' get exhausted'
p633
sg18
Vconfucius-says
p634
sg20
(lp635
g627
ag628
ag629
ag630
ag631
aS'get'
p636
aS'exhausted'
p637
asg29
(lp638
g636
ag637
asba(iMeme
Meme
p639
(dp640
g3
(lp641
S'man'
p642
aS'who'
p643
aS'put'
p644
aS'on'
p645
aS'itchy'
p646
aS'sweater'
p647
asg14
S'man who put on itchy sweater'
p648
sg16
S' start every day from scratch'
p649
sg18
Vconfucius-says
p650
sg20
(lp651
g642
ag643
ag644
ag645
ag646
ag647
aS'start'
p652
aS'every'
p653
aS'day'
p654
aS'from'
p655
aS'scratch'
p656
asg29
(lp657
g652
ag653
ag654
ag655
ag656
asba(iMeme
Meme
p658
(dp659
g3
(lp660
S'man'
p661
aS'who'
p662
aS'walk'
p663
aS'into'
p664
aS'airport'
p665
aS'sideways'
p666
asg14
S'man who walk into airport sideways'
p667
sg16
S' is going to bangkok'
p668
sg18
Vconfucius-says
p669
sg20
(lp670
g661
ag662
ag663
ag664
ag665
ag666
aS'is'
p671
aS'going'
p672
aS'to'
p673
aS'bangkok'
p674
asg29
(lp675
g671
ag672
ag673
ag674
asba(iMeme
Meme
p676
(dp677
g3
(lp678
S'he'
p679
aS'who'
p680
aS'stands'
p681
aS'on'
p682
aS'toilet'
p683
asg14
S'he who stands on toilet'
p684
sg16
S' is high on pot'
p685
sg18
Vconfucius-says
p686
sg20
(lp687
g679
ag680
ag681
ag682
ag683
aS'is'
p688
aS'high'
p689
aS'on'
p690
aS'pot'
p691
asg29
(lp692
g688
ag689
ag690
ag691
asba(iMeme
Meme
p693
(dp694
g3
(lp695
S'gay'
p696
aS'men'
p697
asg14
S'gay men'
p698
sg16
S' are fucking assholes'
p699
sg18
Vconfucius-says
p700
sg20
(lp701
g696
ag697
aS'are'
p702
aS'fucking'
p703
aS'assholes'
p704
asg29
(lp705
g702
ag703
ag704
asba(iMeme
Meme
p706
(dp707
g3
(lp708
S'man'
p709
aS'who'
p710
aS'stand'
p711
aS'on'
p712
aS'toilet'
p713
asg14
S'man who stand on toilet'
p714
sg16
S' high on pot'
p715
sg18
Vconfucius-says
p716
sg20
(lp717
g709
ag710
ag711
ag712
ag713
aS'high'
p718
aS'on'
p719
aS'pot'
p720
asg29
(lp721
g718
ag719
ag720
asba(iMeme
Meme
p722
(dp723
g3
(lp724
S'man'
p725
aS'who'
p726
aS'make'
p727
aS'mistake'
p728
aS'in'
p729
aS'elevator'
p730
asg14
S'man who make mistake in elevator'
p731
sg16
S' wrong on many levels'
p732
sg18
Vconfucius-says
p733
sg20
(lp734
g725
ag726
ag727
ag728
ag729
ag730
aS'wrong'
p735
aS'on'
p736
aS'many'
p737
aS'levels'
p738
asg29
(lp739
g735
ag736
ag737
ag738
asba(iMeme
Meme
p740
(dp741
g3
(lp742
S'man'
p743
aS'who'
p744
aS'put'
p745
aS'dick'
p746
aS'in'
p747
aS'peanut'
p748
aS'butter'
p749
asg14
S'man who put dick in peanut butter'
p750
sg16
S' is fucking nuts'
p751
sg18
Vconfucius-says
p752
sg20
(lp753
g743
ag744
ag745
ag746
ag747
ag748
ag749
aS'is'
p754
aS'fucking'
p755
aS'nuts'
p756
asg29
(lp757
g754
ag755
ag756
asba(iMeme
Meme
p758
(dp759
g3
(lp760
S'arguing'
p761
aS'on'
p762
aS'internet'
p763
aS'is'
p764
aS'like'
p765
aS'special'
p766
aS'olympics'
p767
asg14
S'arguing on internet is like special olympics'
p768
sg16
S' you still retarded'
p769
sg18
Vconfucius-says
p770
sg20
(lp771
g761
ag762
ag763
ag764
ag765
ag766
ag767
aS'you'
p772
aS'still'
p773
aS'retarded'
p774
asg29
(lp775
g772
ag773
ag774
asba(iMeme
Meme
p776
(dp777
g3
(lp778
S'go'
p779
aS'to'
p780
aS'bed'
p781
aS'with'
p782
aS'sex'
p783
aS'problem'
p784
aS'on'
p785
aS'mind'
p786
asg14
S'go to bed with sex problem on mind'
p787
sg16
S' wake up with solution in hand'
p788
sg18
Vconfucius-says
p789
sg20
(lp790
g779
ag780
ag781
ag782
ag783
ag784
ag785
ag786
aS'wake'
p791
aS'up'
p792
aS'with'
p793
aS'solution'
p794
aS'in'
p795
aS'hand'
p796
asg29
(lp797
g791
ag792
ag793
ag794
ag795
ag796
asba(iMeme
Meme
p798
(dp799
g3
(lp800
S'man'
p801
aS'who'
p802
aS'wear'
p803
aS'white'
p804
aS'suit'
p805
asg14
S'man who wear white suit'
p806
sg16
S' is man with big penis'
p807
sg18
Vconfucius-says
p808
sg20
(lp809
g801
ag802
ag803
ag804
ag805
aS'is'
p810
aS'man'
p811
aS'with'
p812
aS'big'
p813
aS'penis'
p814
asg29
(lp815
g810
ag811
ag812
ag813
ag814
asba(iMeme
Meme
p816
(dp817
g3
(lp818
S'if'
p819
aS'at'
p820
aS'first'
p821
aS'you'
p822
aS'dont'
p823
aS'succeed'
p824
asg14
S'if at first you dont succeed'
p825
sg16
S' do it the way your wife told you'
p826
sg18
Vconfucius-says
p827
sg20
(lp828
g819
ag820
ag821
ag822
ag823
ag824
aS'do'
p829
aS'it'
p830
aS'the'
p831
aS'way'
p832
aS'your'
p833
aS'wife'
p834
aS'told'
p835
aS'you'
p836
asg29
(lp837
g829
ag830
ag831
ag832
ag833
ag834
ag835
ag836
asba(iMeme
Meme
p838
(dp839
g3
(lp840
S'its'
p841
aS'good'
p842
aS'to'
p843
aS'meet'
p844
aS'girl'
p845
aS'in'
p846
aS'park'
p847
asg14
S'its good to meet girl in park'
p848
sg16
S' better to park meat in girl'
p849
sg18
Vconfucius-says
p850
sg20
(lp851
g841
ag842
ag843
ag844
ag845
ag846
ag847
aS'better'
p852
aS'to'
p853
aS'park'
p854
aS'meat'
p855
aS'in'
p856
aS'girl'
p857
asg29
(lp858
g852
ag853
ag854
ag855
ag856
ag857
asba(iMeme
Meme
p859
(dp860
g3
(lp861
S'man'
p862
aS'with'
p863
aS'itchy'
p864
aS'ass'
p865
asg14
S'man with itchy ass'
p866
sg16
S' wake up with smelly finger'
p867
sg18
Vconfucius-says
p868
sg20
(lp869
g862
ag863
ag864
ag865
aS'wake'
p870
aS'up'
p871
aS'with'
p872
aS'smelly'
p873
aS'finger'
p874
asg29
(lp875
g870
ag871
ag872
ag873
ag874
asba(iMeme
Meme
p876
(dp877
g3
(lp878
S'i'
p879
aS'see'
p880
aS'you'
p881
asg14
S'i see you'
p882
sg16
S' you troll'
p883
sg18
Vconfucius-says
p884
sg20
(lp885
g879
ag880
ag881
aS'you'
p886
aS'troll'
p887
asg29
(lp888
g886
ag887
asba(iMeme
Meme
p889
(dp890
g3
(lp891
S'man'
p892
aS'who'
p893
aS'have'
p894
aS'big'
p895
aS'car'
p896
asg14
S'man who have big car'
p897
sg16
S' compensating for small dick'
p898
sg18
Vconfucius-says
p899
sg20
(lp900
g892
ag893
ag894
ag895
ag896
aS'compensating'
p901
aS'for'
p902
aS'small'
p903
aS'dick'
p904
asg29
(lp905
g901
ag902
ag903
ag904
asba(iMeme
Meme
p906
(dp907
g3
(lp908
S'confucius'
p909
aS'say'
p910
asg14
S'confucius say'
p911
sg16
S' crowded elevator smell different to midget'
p912
sg18
Vconfucius-says
p913
sg20
(lp914
g909
ag910
aS'crowded'
p915
aS'elevator'
p916
aS'smell'
p917
aS'different'
p918
aS'to'
p919
aS'midget'
p920
asg29
(lp921
g915
ag916
ag917
ag918
ag919
ag920
asba(iMeme
Meme
p922
(dp923
g3
(lp924
S'man'
p925
aS'who'
p926
aS'throws'
p927
aS'controller'
p928
aS'out'
p929
aS'window'
p930
asg14
S'man who throws controller out window'
p931
sg16
S' loses control'
p932
sg18
Vconfucius-says
p933
sg20
(lp934
g925
ag926
ag927
ag928
ag929
ag930
aS'loses'
p935
aS'control'
p936
asg29
(lp937
g935
ag936
asba(iMeme
Meme
p938
(dp939
g3
(lp940
S'better'
p941
aS'to'
p942
aS'act'
p943
aS'cocky'
p944
asg14
S'better to act cocky'
p945
sg16
S' than to be dickish'
p946
sg18
Vconfucius-says
p947
sg20
(lp948
g941
ag942
ag943
ag944
aS'than'
p949
aS'to'
p950
aS'be'
p951
aS'dickish'
p952
asg29
(lp953
g949
ag950
ag951
ag952
asba(iMeme
Meme
p954
(dp955
g3
(lp956
S'no'
p957
aS'money'
p958
asg14
S'no   money'
p959
sg16
S' no   honey'
p960
sg18
Vconfucius-says
p961
sg20
(lp962
g957
ag958
aS'no'
p963
aS'honey'
p964
asg29
(lp965
g963
ag964
asba(iMeme
Meme
p966
(dp967
g3
(lp968
S'work'
p969
aS'harder'
p970
aS'!'
p971
asg14
S'work harder!'
p972
sg16
S' round eye!'
p973
sg18
Vconfucius-says
p974
sg20
(lp975
g969
ag970
ag971
aS'round'
p976
aS'eye'
p977
ag971
asg29
(lp978
g976
ag977
ag971
asba(iMeme
Meme
p979
(dp980
g3
(lp981
S'man'
p982
aS'who'
p983
aS'set'
p984
aS'himself'
p985
aS'on'
p986
aS'fire'
p987
asg14
S'man who set himself on fire'
p988
sg16
S' stays warm for life'
p989
sg18
Vconfucius-says
p990
sg20
(lp991
g982
ag983
ag984
ag985
ag986
ag987
aS'stays'
p992
aS'warm'
p993
aS'for'
p994
aS'life'
p995
asg29
(lp996
g992
ag993
ag994
ag995
asba(iMeme
Meme
p997
(dp998
g3
(lp999
S'basketball'
p1000
aS'player'
p1001
aS'with'
p1002
aS'diarrhea'
p1003
asg14
S'basketball player with diarrhea'
p1004
sg16
S' dribble down court'
p1005
sg18
Vconfucius-says
p1006
sg20
(lp1007
g1000
ag1001
ag1002
ag1003
aS'dribble'
p1008
aS'down'
p1009
aS'court'
p1010
asg29
(lp1011
g1008
ag1009
ag1010
asba(iMeme
Meme
p1012
(dp1013
g3
(lp1014
S'man'
p1015
aS'who'
p1016
aS'fish'
p1017
aS'in'
p1018
aS'other'
p1019
aS'mans'
p1020
aS'well'
p1021
asg14
S'man who fish in other mans well'
p1022
sg16
S' often catch crabs'
p1023
sg18
Vconfucius-says
p1024
sg20
(lp1025
g1015
ag1016
ag1017
ag1018
ag1019
ag1020
ag1021
aS'often'
p1026
aS'catch'
p1027
aS'crabs'
p1028
asg29
(lp1029
g1026
ag1027
ag1028
asba(iMeme
Meme
p1030
(dp1031
g3
(lp1032
S'confucious'
p1033
aS'say..he'
p1034
aS'who'
p1035
aS'has'
p1036
aS'itchy'
p1037
aS'butt'
p1038
asg14
S'confucious say..he who has itchy butt'
p1039
sg16
S' is man with smelly fingers'
p1040
sg18
Vconfucius-says
p1041
sg20
(lp1042
g1033
ag1034
ag1035
ag1036
ag1037
ag1038
aS'is'
p1043
aS'man'
p1044
aS'with'
p1045
aS'smelly'
p1046
aS'fingers'
p1047
asg29
(lp1048
g1043
ag1044
ag1045
ag1046
ag1047
asba(iMeme
Meme
p1049
(dp1050
g3
(lp1051
g103
aS'vagina'
p1052
aS'is'
p1053
aS'like'
p1054
ag103
aS'very'
p1055
aS'small'
p1056
aS'hotel'
p1057
ag462
asg14
S'a vagina is like a very small hotel.'
p1058
sg16
S' one must leave his bag outside.'
p1059
sg18
Vconfucius-says
p1060
sg20
(lp1061
g103
ag1052
ag1053
ag1054
ag103
ag1055
ag1056
ag1057
ag462
aS'one'
p1062
aS'must'
p1063
aS'leave'
p1064
aS'his'
p1065
aS'bag'
p1066
aS'outside'
p1067
ag462
asg29
(lp1068
g1062
ag1063
ag1064
ag1065
ag1066
ag1067
ag462
asba(iMeme
Meme
p1069
(dp1070
g3
(lp1071
S'baseball'
p1072
aS'wrong'
p1073
asg14
S'baseball wrong'
p1074
sg16
S' man with four balls can not walk'
p1075
sg18
Vconfucius-says
p1076
sg20
(lp1077
g1072
ag1073
aS'man'
p1078
aS'with'
p1079
aS'four'
p1080
aS'balls'
p1081
aS'can'
p1082
aS'not'
p1083
aS'walk'
p1084
asg29
(lp1085
g1078
ag1079
ag1080
ag1081
ag1082
ag1083
ag1084
asba(iMeme
Meme
p1086
(dp1087
g3
(lp1088
S'connfucious'
p1089
aS'say'
p1090
asg14
S'connfucious say'
p1091
sg16
S' your a fag'
p1092
sg18
Vconfucius-says
p1093
sg20
(lp1094
g1089
ag1090
aS'your'
p1095
ag103
aS'fag'
p1096
asg29
(lp1097
g1095
ag103
ag1096
asba(iMeme
Meme
p1098
(dp1099
g3
(lp1100
S'dont'
p1101
aS'hate'
p1102
aS'bitch'
p1103
asg14
S'dont hate bitch'
p1104
sg16
S' i probably made whateever your sitting on'
p1105
sg18
Vconfucius-says
p1106
sg20
(lp1107
g1101
ag1102
ag1103
ag879
aS'probably'
p1108
aS'made'
p1109
aS'whateever'
p1110
aS'your'
p1111
aS'sitting'
p1112
aS'on'
p1113
asg29
(lp1114
g879
ag1108
ag1109
ag1110
ag1111
ag1112
ag1113
asba(iMeme
Meme
p1115
(dp1116
g3
(lp1117
S'man'
p1118
aS'who'
p1119
aS'farts'
p1120
aS'in'
p1121
aS'church'
p1122
asg14
S'man who farts in church'
p1123
sg16
S' sits in own pew'
p1124
sg18
Vconfucius-says
p1125
sg20
(lp1126
g1118
ag1119
ag1120
ag1121
ag1122
aS'sits'
p1127
aS'in'
p1128
aS'own'
p1129
aS'pew'
p1130
asg29
(lp1131
g1127
ag1128
ag1129
ag1130
asba(iMeme
Meme
p1132
(dp1133
g3
(lp1134
S'confucius'
p1135
aS'say'
p1136
asg14
S'confucius say'
p1137
sg16
S' gargle with infant tear to cure hangover'
p1138
sg18
Vconfucius-says
p1139
sg20
(lp1140
g1135
ag1136
aS'gargle'
p1141
aS'with'
p1142
aS'infant'
p1143
aS'tear'
p1144
aS'to'
p1145
aS'cure'
p1146
aS'hangover'
p1147
asg29
(lp1148
g1141
ag1142
ag1143
ag1144
ag1145
ag1146
ag1147
asba(iMeme
Meme
p1149
(dp1150
g3
(lp1151
S'man'
p1152
aS'who'
p1153
aS'runs'
p1154
aS'in'
p1155
aS'front'
p1156
aS'of'
p1157
aS'bus'
p1158
aS'gets'
p1159
aS'tired'
p1160
asg14
S'man who runs in front of bus gets tired'
p1161
sg16
S' man who runs behind bus gets exhuasted'
p1162
sg18
Vconfucius-says
p1163
sg20
(lp1164
g1152
ag1153
ag1154
ag1155
ag1156
ag1157
ag1158
ag1159
ag1160
aS'man'
p1165
aS'who'
p1166
aS'runs'
p1167
aS'behind'
p1168
aS'bus'
p1169
aS'gets'
p1170
aS'exhuasted'
p1171
asg29
(lp1172
g1165
ag1166
ag1167
ag1168
ag1169
ag1170
ag1171
asba(iMeme
Meme
p1173
(dp1174
g3
(lp1175
S'woman'
p1176
aS'who'
p1177
aS'sit'
p1178
aS'on'
p1179
aS'judges'
p1180
aS'lap'
p1181
asg14
S'woman who sit on judges lap'
p1182
sg16
S' get honorable discharge'
p1183
sg18
Vconfucius-says
p1184
sg20
(lp1185
g1176
ag1177
ag1178
ag1179
ag1180
ag1181
aS'get'
p1186
aS'honorable'
p1187
aS'discharge'
p1188
asg29
(lp1189
g1186
ag1187
ag1188
asba(iMeme
Meme
p1190
(dp1191
g3
(lp1192
S'smash'
p1193
aS'the'
p1194
aS'monkey'
p1195
asg14
S'smash the monkey'
p1196
sg16
S' for mother russia'
p1197
sg18
Vconfucius-says
p1198
sg20
(lp1199
g1193
ag1194
ag1195
aS'for'
p1200
aS'mother'
p1201
aS'russia'
p1202
asg29
(lp1203
g1200
ag1201
ag1202
asba(iMeme
Meme
p1204
(dp1205
g3
(lp1206
S'man'
p1207
aS'who'
p1208
aS'grope'
p1209
aS'woman'
p1210
aS'wrong'
p1211
aS'day'
p1212
asg14
S'man who grope woman wrong day'
p1213
sg16
S' get caught red handed'
p1214
sg18
Vconfucius-says
p1215
sg20
(lp1216
g1207
ag1208
ag1209
ag1210
ag1211
ag1212
aS'get'
p1217
aS'caught'
p1218
aS'red'
p1219
aS'handed'
p1220
asg29
(lp1221
g1217
ag1218
ag1219
ag1220
asba(iMeme
Meme
p1222
(dp1223
g3
(lp1224
S'man'
p1225
aS'who'
p1226
aS'shit'
p1227
aS'in'
p1228
aS'rooms'
p1229
asg14
S'man who shit in rooms'
p1230
sg16
S' is bound to have a shit house'
p1231
sg18
Vconfucius-says
p1232
sg20
(lp1233
g1225
ag1226
ag1227
ag1228
ag1229
aS'is'
p1234
aS'bound'
p1235
aS'to'
p1236
aS'have'
p1237
ag103
aS'shit'
p1238
aS'house'
p1239
asg29
(lp1240
g1234
ag1235
ag1236
ag1237
ag103
ag1238
ag1239
asba(iMeme
Meme
p1241
(dp1242
g3
(lp1243
S'man'
p1244
aS'wif'
p1245
aS'lots'
p1246
aS'rep'
p1247
asg14
S'man wif lots rep'
p1248
sg16
S' is man with big penis'
p1249
sg18
Vconfucius-says
p1250
sg20
(lp1251
g1244
ag1245
ag1246
ag1247
aS'is'
p1252
aS'man'
p1253
aS'with'
p1254
aS'big'
p1255
aS'penis'
p1256
asg29
(lp1257
g1252
ag1253
ag1254
ag1255
ag1256
asba(iMeme
Meme
p1258
(dp1259
g3
(lp1260
S'virginity'
p1261
aS'like'
p1262
aS'bubble'
p1263
asg14
S'virginity like bubble'
p1264
sg16
S' one prick all gone'
p1265
sg18
Vconfucius-says
p1266
sg20
(lp1267
g1261
ag1262
ag1263
aS'one'
p1268
aS'prick'
p1269
aS'all'
p1270
aS'gone'
p1271
asg29
(lp1272
g1268
ag1269
ag1270
ag1271
asba(iMeme
Meme
p1273
(dp1274
g3
(lp1275
S'man'
p1276
aS'who'
p1277
aS'walk'
p1278
aS'in'
p1279
aS'front'
p1280
aS'of'
p1281
aS'car'
p1282
aS'get'
p1283
aS'tired'
p1284
asg14
S'man who walk in front of car get tired'
p1285
sg16
S' but man who walk behind car get exhausted'
p1286
sg18
Vconfucius-says
p1287
sg20
(lp1288
g1276
ag1277
ag1278
ag1279
ag1280
ag1281
ag1282
ag1283
ag1284
aS'but'
p1289
aS'man'
p1290
aS'who'
p1291
aS'walk'
p1292
aS'behind'
p1293
aS'car'
p1294
aS'get'
p1295
aS'exhausted'
p1296
asg29
(lp1297
g1289
ag1290
ag1291
ag1292
ag1293
ag1294
ag1295
ag1296
asba(iMeme
Meme
p1298
(dp1299
g3
(lp1300
S'squirrel'
p1301
aS'who'
p1302
aS'climb'
p1303
aS'woman'
p1304
aS'leg'
p1305
asg14
S'squirrel who climb woman leg'
p1306
sg16
S' find no nuts'
p1307
sg18
Vconfucius-says
p1308
sg20
(lp1309
g1301
ag1302
ag1303
ag1304
ag1305
aS'find'
p1310
aS'no'
p1311
aS'nuts'
p1312
asg29
(lp1313
g1310
ag1311
ag1312
asba(iMeme
Meme
p1314
(dp1315
g3
(lp1316
g879
aS'told'
p1317
aS'that'
p1318
aS'bitch'
p1319
aS'man'
p1320
aS'who'
p1321
aS'run'
p1322
aS'behind'
p1323
aS'car'
p1324
asg14
S'i told that bitch man who run behind car'
p1325
sg16
S' get exhausted'
p1326
sg18
Vconfucius-says
p1327
sg20
(lp1328
g879
ag1317
ag1318
ag1319
ag1320
ag1321
ag1322
ag1323
ag1324
aS'get'
p1329
aS'exhausted'
p1330
asg29
(lp1331
g1329
ag1330
asba(iMeme
Meme
p1332
(dp1333
g3
(lp1334
S'man'
p1335
aS'who'
p1336
aS'walk'
p1337
aS'with'
p1338
aS'dog'
p1339
aS'on'
p1340
aS'long'
p1341
aS'walk'
p1342
asg14
S'man who walk with dog on long walk'
p1343
sg16
S' he get dog'
p1344
sg18
Vconfucius-says
p1345
sg20
(lp1346
g1335
ag1336
ag1337
ag1338
ag1339
ag1340
ag1341
ag1342
aS'he'
p1347
aS'get'
p1348
aS'dog'
p1349
asg29
(lp1350
g1347
ag1348
ag1349
asba(iMeme
Meme
p1351
(dp1352
g3
(lp1353
S'alejandro'
p1354
aS'say:'
p1355
asg14
S'alejandro say:'
p1356
sg16
S' hey hey hey'
p1357
sg18
Vconfucius-says
p1358
sg20
(lp1359
g1354
ag1355
aS'hey'
p1360
aS'hey'
p1361
aS'hey'
p1362
asg29
(lp1363
g1360
ag1361
ag1362
asba(iMeme
Meme
p1364
(dp1365
g3
(lp1366
S'if'
p1367
aS'at'
p1368
aS'first'
p1369
aS'you'
p1370
aS'no'
p1371
aS'succeed'
p1372
asg14
S'if at first you no succeed'
p1373
sg16
S' then go kill yourself!'
p1374
sg18
Vconfucius-says
p1375
sg20
(lp1376
g1367
ag1368
ag1369
ag1370
ag1371
ag1372
aS'then'
p1377
aS'go'
p1378
aS'kill'
p1379
aS'yourself'
p1380
ag971
asg29
(lp1381
g1377
ag1378
ag1379
ag1380
ag971
asba(iMeme
Meme
p1382
(dp1383
g3
(lp1384
S'old'
p1385
aS'chinese'
p1386
aS'proverb:'
p1387
asg14
S'old chinese proverb:'
p1388
sg16
S' nigga wit most dough get da most cookies'
p1389
sg18
Vconfucius-says
p1390
sg20
(lp1391
g1385
ag1386
ag1387
aS'nigga'
p1392
aS'wit'
p1393
aS'most'
p1394
aS'dough'
p1395
aS'get'
p1396
aS'da'
p1397
aS'most'
p1398
aS'cookies'
p1399
asg29
(lp1400
g1392
ag1393
ag1394
ag1395
ag1396
ag1397
ag1398
ag1399
asba(iMeme
Meme
p1401
(dp1402
g3
(lp1403
g103
aS'fool'
p1404
aS'&'
p1405
aS'his'
p1406
aS'money'
p1407
asg14
S'a fool & his money'
p1408
sg16
S' r a girls best friend'
p1409
sg18
Vconfucius-says
p1410
sg20
(lp1411
g103
ag1404
ag1405
ag1406
ag1407
aS'r'
p1412
ag103
aS'girls'
p1413
aS'best'
p1414
aS'friend'
p1415
asg29
(lp1416
g1412
ag103
ag1413
ag1414
ag1415
asba(iMeme
Meme
p1417
(dp1418
g3
(lp1419
S'do'
p1420
aS'same'
p1421
aS'thing'
p1422
aS'as'
p1423
aS'before'
p1424
asg14
S'do same thing as before'
p1425
sg16
S' get same results'
p1426
sg18
Vconfucius-says
p1427
sg20
(lp1428
g1420
ag1421
ag1422
ag1423
ag1424
aS'get'
p1429
aS'same'
p1430
aS'results'
p1431
asg29
(lp1432
g1429
ag1430
ag1431
asba(iMeme
Meme
p1433
(dp1434
g3
(lp1435
S'man'
p1436
aS'who'
p1437
aS'raise'
p1438
aS'many'
p1439
aS'chickens'
p1440
asg14
S'man who raise many chickens'
p1441
sg16
S' eats raging cock for dinner'
p1442
sg18
Vconfucius-says
p1443
sg20
(lp1444
g1436
ag1437
ag1438
ag1439
ag1440
aS'eats'
p1445
aS'raging'
p1446
aS'cock'
p1447
aS'for'
p1448
aS'dinner'
p1449
asg29
(lp1450
g1445
ag1446
ag1447
ag1448
ag1449
asba(iMeme
Meme
p1451
(dp1452
g3
(lp1453
S'my'
p1454
aS'dick'
p1455
aS'says'
p1456
asg14
S'my dick says'
p1457
sg16
S' to get off peter'
p1458
sg18
Vconfucius-says
p1459
sg20
(lp1460
g1454
ag1455
ag1456
aS'to'
p1461
aS'get'
p1462
aS'off'
p1463
aS'peter'
p1464
asg29
(lp1465
g1461
ag1462
ag1463
ag1464
asba(iMeme
Meme
p1466
(dp1467
g3
(lp1468
S'confucius'
p1469
aS'says'
p1470
asg14
S'confucius says'
p1471
sg16
S' goooo fuck yourself'
p1472
sg18
Vconfucius-says
p1473
sg20
(lp1474
g1469
ag1470
aS'goooo'
p1475
aS'fuck'
p1476
aS'yourself'
p1477
asg29
(lp1478
g1475
ag1476
ag1477
asba(iMeme
Meme
p1479
(dp1480
g3
(lp1481
S'man'
p1482
aS'who'
p1483
aS'run'
p1484
aS'in'
p1485
aS'front'
p1486
aS'of'
p1487
aS'car'
p1488
asg14
S'man who run in front of car'
p1489
sg16
S' get tired'
p1490
sg18
Vconfucius-says
p1491
sg20
(lp1492
g1482
ag1483
ag1484
ag1485
ag1486
ag1487
ag1488
aS'get'
p1493
aS'tired'
p1494
asg29
(lp1495
g1493
ag1494
asba(iMeme
Meme
p1496
(dp1497
g3
(lp1498
S'faggots'
p1499
aS'burnt'
p1500
aS'out'
p1501
aS'on'
p1502
aS'gay'
p1503
aS'lifestyle'
p1504
asg14
S'faggots burnt out on gay lifestyle'
p1505
sg16
S' bore the shit out of each other'
p1506
sg18
Vconfucius-says
p1507
sg20
(lp1508
g1499
ag1500
ag1501
ag1502
ag1503
ag1504
aS'bore'
p1509
aS'the'
p1510
aS'shit'
p1511
aS'out'
p1512
aS'of'
p1513
aS'each'
p1514
aS'other'
p1515
asg29
(lp1516
g1509
ag1510
ag1511
ag1512
ag1513
ag1514
ag1515
asba(iMeme
Meme
p1517
(dp1518
g3
(lp1519
S'one'
p1520
aS'one'
p1521
aS'was'
p1522
ag103
aS'race'
p1523
aS'horse'
p1524
ag462
aS'to'
p1525
aS'to'
p1526
aS'was'
p1527
aS'one'
p1528
aS'too'
p1529
ag462
asg14
S'one one was a race horse. to to was one too.'
p1530
sg16
S' one one won one race'
p1531
sg18
Vconfucius-says
p1532
sg20
(lp1533
g1520
ag1521
ag1522
ag103
ag1523
ag1524
ag462
ag1525
ag1526
ag1527
ag1528
ag1529
ag462
aS'one'
p1534
aS'one'
p1535
aS'won'
p1536
aS'one'
p1537
aS'race'
p1538
asg29
(lp1539
g1534
ag1535
ag1536
ag1537
ag1538
asba(iMeme
Meme
p1540
(dp1541
g3
(lp1542
S'man'
p1543
aS'who'
p1544
aS'is'
p1545
aS'struck'
p1546
aS'by'
p1547
aS'lightning'
p1548
asg14
S'man who is struck by lightning'
p1549
sg16
S' has mind blowing experience'
p1550
sg18
Vconfucius-says
p1551
sg20
(lp1552
g1543
ag1544
ag1545
ag1546
ag1547
ag1548
aS'has'
p1553
aS'mind'
p1554
aS'blowing'
p1555
aS'experience'
p1556
asg29
(lp1557
g1553
ag1554
ag1555
ag1556
asba(iMeme
Meme
p1558
(dp1559
g3
(lp1560
S'man'
p1561
aS'who'
p1562
aS'go'
p1563
aS'to'
p1564
aS'sleep'
p1565
aS'with'
p1566
aS'woman'
p1567
aS'problem'
p1568
aS'on'
p1569
aS'mind'
p1570
asg14
S'man who go to sleep with woman problem on mind'
p1571
sg16
S' wake up with solution in hand'
p1572
sg18
Vconfucius-says
p1573
sg20
(lp1574
g1561
ag1562
ag1563
ag1564
ag1565
ag1566
ag1567
ag1568
ag1569
ag1570
aS'wake'
p1575
aS'up'
p1576
aS'with'
p1577
aS'solution'
p1578
aS'in'
p1579
aS'hand'
p1580
asg29
(lp1581
g1575
ag1576
ag1577
ag1578
ag1579
ag1580
asba(iMeme
Meme
p1582
(dp1583
g3
(lp1584
S'man'
p1585
aS'who'
p1586
aS'wear'
p1587
aS'white'
p1588
aS'suit'
p1589
asg14
S'man who wear white suit'
p1590
sg16
S' is man who get many men'
p1591
sg18
Vconfucius-says
p1592
sg20
(lp1593
g1585
ag1586
ag1587
ag1588
ag1589
aS'is'
p1594
aS'man'
p1595
aS'who'
p1596
aS'get'
p1597
aS'many'
p1598
aS'men'
p1599
asg29
(lp1600
g1594
ag1595
ag1596
ag1597
ag1598
ag1599
asba(iMeme
Meme
p1601
(dp1602
g3
(lp1603
S'one'
p1604
aS'who'
p1605
aS'plays'
p1606
aS'h.o.n'
p1607
ag462
asg14
S'one who plays h.o.n.'
p1608
sg16
S' eats most dick'
p1609
sg18
Vconfucius-says
p1610
sg20
(lp1611
g1604
ag1605
ag1606
ag1607
ag462
aS'eats'
p1612
aS'most'
p1613
aS'dick'
p1614
asg29
(lp1615
g1612
ag1613
ag1614
asba(iMeme
Meme
p1616
(dp1617
g3
(lp1618
S'either'
p1619
aS'my'
p1620
aS'minecraft'
p1621
aS'house'
p1622
aS'is'
p1623
aS'rebel'
p1624
aS'0r'
p1625
asg14
S'either my minecraft house is rebel 0r'
p1626
sg16
S'  ive no idea what rebel means'
p1627
sg18
Vconfucius-says
p1628
sg20
(lp1629
g1619
ag1620
ag1621
ag1622
ag1623
ag1624
ag1625
aS'ive'
p1630
aS'no'
p1631
aS'idea'
p1632
aS'what'
p1633
aS'rebel'
p1634
aS'means'
p1635
asg29
(lp1636
g1630
ag1631
ag1632
ag1633
ag1634
ag1635
asba(iMeme
Meme
p1637
(dp1638
g3
(lp1639
S'confucius'
p1640
aS'say'
p1641
asg14
S'confucius say'
p1642
sg16
S' just because is japanese'
p1643
sg18
Vconfucius-says
p1644
sg20
(lp1645
g1640
ag1641
aS'just'
p1646
aS'because'
p1647
aS'is'
p1648
aS'japanese'
p1649
asg29
(lp1650
g1646
ag1647
ag1648
ag1649
asba(iMeme
Meme
p1651
(dp1652
g3
(lp1653
S'based'
p1654
aS'god'
p1655
asg14
S'based god'
p1656
sg16
S' fucked my bitch'
p1657
sg18
Vconfucius-says
p1658
sg20
(lp1659
g1654
ag1655
aS'fucked'
p1660
aS'my'
p1661
aS'bitch'
p1662
asg29
(lp1663
g1660
ag1661
ag1662
asba(iMeme
Meme
p1664
(dp1665
g3
(lp1666
S'man'
p1667
aS'who'
p1668
aS'get'
p1669
aS'killed'
p1670
aS'in'
p1671
aS'minecraft'
p1672
asg14
S'man who get killed in minecraft'
p1673
sg16
S' get blocked'
p1674
sg18
Vconfucius-says
p1675
sg20
(lp1676
g1667
ag1668
ag1669
ag1670
ag1671
ag1672
aS'get'
p1677
aS'blocked'
p1678
asg29
(lp1679
g1677
ag1678
asba(iMeme
Meme
p1680
(dp1681
g3
(lp1682
S'machine'
p1683
aS'problem'
p1684
asg14
S'machine problem'
p1685
sg16
S' way to enjoy your life !'
p1686
sg18
Vconfucius-says
p1687
sg20
(lp1688
g1683
ag1684
aS'way'
p1689
aS'to'
p1690
aS'enjoy'
p1691
aS'your'
p1692
aS'life'
p1693
ag971
asg29
(lp1694
g1689
ag1690
ag1691
ag1692
ag1693
ag971
asba(iMeme
Meme
p1695
(dp1696
g3
(lp1697
S'rape'
p1698
aS'impossible'
p1699
asg14
S'rape impossible'
p1700
sg16
S' woman faster with skirt up than man with pants down'
p1701
sg18
Vconfucius-says
p1702
sg20
(lp1703
g1698
ag1699
aS'woman'
p1704
aS'faster'
p1705
aS'with'
p1706
aS'skirt'
p1707
aS'up'
p1708
aS'than'
p1709
aS'man'
p1710
aS'with'
p1711
aS'pants'
p1712
aS'down'
p1713
asg29
(lp1714
g1704
ag1705
ag1706
ag1707
ag1708
ag1709
ag1710
ag1711
ag1712
ag1713
asba(iMeme
Meme
p1715
(dp1716
g3
(lp1717
S'the'
p1718
aS'most'
p1719
aS'epic'
p1720
aS'of'
p1721
aS'epic'
p1722
aS'is'
p1723
asg14
S'the most epic of epic is'
p1724
sg16
S' quiet  confucius'
p1725
sg18
Vconfucius-says
p1726
sg20
(lp1727
g1718
ag1719
ag1720
ag1721
ag1722
ag1723
aS'quiet'
p1728
aS'confucius'
p1729
asg29
(lp1730
g1728
ag1729
asba(iMeme
Meme
p1731
(dp1732
g3
(lp1733
S'alejandro'
p1734
aS'say'
p1735
asg14
S'alejandro say'
p1736
sg16
S' hey hey hey hey'
p1737
sg18
Vconfucius-says
p1738
sg20
(lp1739
g1734
ag1735
aS'hey'
p1740
aS'hey'
p1741
aS'hey'
p1742
aS'hey'
p1743
asg29
(lp1744
g1740
ag1741
ag1742
ag1743
asba(iMeme
Meme
p1745
(dp1746
g3
(lp1747
S'when'
p1748
ag879
aS'was'
p1749
aS'young'
p1750
asg14
S'when i was young'
p1751
sg16
S' my friends super glued their pubes on my face'
p1752
sg18
Vconfucius-says
p1753
sg20
(lp1754
g1748
ag879
ag1749
ag1750
aS'my'
p1755
aS'friends'
p1756
aS'super'
p1757
aS'glued'
p1758
aS'their'
p1759
aS'pubes'
p1760
aS'on'
p1761
aS'my'
p1762
aS'face'
p1763
asg29
(lp1764
g1755
ag1756
ag1757
ag1758
ag1759
ag1760
ag1761
ag1762
ag1763
asba(iMeme
Meme
p1765
(dp1766
g3
(lp1767
S'man'
p1768
aS'who'
p1769
aS'masterbates'
p1770
aS'in'
p1771
aS'court'
p1772
asg14
S'man who masterbates in court'
p1773
sg16
S' has firm grasp of penal system'
p1774
sg18
Vconfucius-says
p1775
sg20
(lp1776
g1768
ag1769
ag1770
ag1771
ag1772
aS'has'
p1777
aS'firm'
p1778
aS'grasp'
p1779
aS'of'
p1780
aS'penal'
p1781
aS'system'
p1782
asg29
(lp1783
g1777
ag1778
ag1779
ag1780
ag1781
ag1782
asba(iMeme
Meme
p1784
(dp1785
g3
(lp1786
S'man'
p1787
aS'who'
p1788
aS'sit'
p1789
aS'on'
p1790
aS'tack'
p1791
asg14
S'man who sit on tack'
p1792
sg16
S' get point'
p1793
sg18
Vconfucius-says
p1794
sg20
(lp1795
g1787
ag1788
ag1789
ag1790
ag1791
aS'get'
p1796
aS'point'
p1797
asg29
(lp1798
g1796
ag1797
asba(iMeme
Meme
p1799
(dp1800
g3
(lp1801
g879
aS'dont'
p1802
aS'remember'
p1803
aS'my'
p1804
aS'identity'
p1805
asg14
S'i dont remember my identity'
p1806
sg16
S' i am confused'
p1807
sg18
Vconfucius-says
p1808
sg20
(lp1809
g879
ag1802
ag1803
ag1804
ag1805
ag879
aS'am'
p1810
aS'confused'
p1811
asg29
(lp1812
g879
ag1810
ag1811
asba(iMeme
Meme
p1813
(dp1814
g3
(lp1815
S'man'
p1816
aS'who'
p1817
aS'have'
p1818
aS'little'
p1819
aS'rep'
p1820
asg14
S'man who have little rep'
p1821
sg16
S' is man who have little penis'
p1822
sg18
Vconfucius-says
p1823
sg20
(lp1824
g1816
ag1817
ag1818
ag1819
ag1820
aS'is'
p1825
aS'man'
p1826
aS'who'
p1827
aS'have'
p1828
aS'little'
p1829
aS'penis'
p1830
asg29
(lp1831
g1825
ag1826
ag1827
ag1828
ag1829
ag1830
asba(iMeme
Meme
p1832
(dp1833
g3
(lp1834
S'man'
p1835
aS'who'
p1836
aS'lives'
p1837
aS'on'
p1838
aS'knees'
p1839
asg14
S'man who lives on knees'
p1840
sg16
S' get fucked over a lot'
p1841
sg18
Vconfucius-says
p1842
sg20
(lp1843
g1835
ag1836
ag1837
ag1838
ag1839
aS'get'
p1844
aS'fucked'
p1845
aS'over'
p1846
ag103
aS'lot'
p1847
asg29
(lp1848
g1844
ag1845
ag1846
ag103
ag1847
asba(iMeme
Meme
p1849
(dp1850
g3
(lp1851
S'choose'
p1852
ag103
aS'job'
p1853
aS'you'
p1854
aS'love'
p1855
asg14
S'choose a job you love'
p1856
sg16
S' and you will never have to work a day in your life'
p1857
sg18
Vconfucius-says
p1858
sg20
(lp1859
g1852
ag103
ag1853
ag1854
ag1855
aS'and'
p1860
aS'you'
p1861
aS'will'
p1862
aS'never'
p1863
aS'have'
p1864
aS'to'
p1865
aS'work'
p1866
ag103
aS'day'
p1867
aS'in'
p1868
aS'your'
p1869
aS'life'
p1870
asg29
(lp1871
g1860
ag1861
ag1862
ag1863
ag1864
ag1865
ag1866
ag103
ag1867
ag1868
ag1869
ag1870
asba(iMeme
Meme
p1872
(dp1873
g3
(lp1874
S'shit'
p1875
asg14
S'shit'
p1876
sg16
S' you must feel poor'
p1877
sg18
Vconfucius-says
p1878
sg20
(lp1879
g1875
aS'you'
p1880
aS'must'
p1881
aS'feel'
p1882
aS'poor'
p1883
asg29
(lp1884
g1880
ag1881
ag1882
ag1883
asba(iMeme
Meme
p1885
(dp1886
g3
(lp1887
S'man'
p1888
aS'who'
p1889
aS'goes'
p1890
aS'to'
p1891
aS'sleep'
p1892
aS'with'
p1893
aS'itchy'
p1894
aS'buttonhole'
p1895
asg14
S'man who goes to sleep with itchy buttonhole'
p1896
sg16
S' wakes up with smelly fingers'
p1897
sg18
Vconfucius-says
p1898
sg20
(lp1899
g1888
ag1889
ag1890
ag1891
ag1892
ag1893
ag1894
ag1895
aS'wakes'
p1900
aS'up'
p1901
aS'with'
p1902
aS'smelly'
p1903
aS'fingers'
p1904
asg29
(lp1905
g1900
ag1901
ag1902
ag1903
ag1904
asba(iMeme
Meme
p1906
(dp1907
g3
(lp1908
S'confucius'
p1909
aS'says'
p1910
asg14
S'confucius says'
p1911
sg16
S' are you learning chinese?'
p1912
sg18
Vconfucius-says
p1913
sg20
(lp1914
g1909
ag1910
aS'are'
p1915
aS'you'
p1916
aS'learning'
p1917
aS'chinese'
p1918
aS'?'
p1919
asg29
(lp1920
g1915
ag1916
ag1917
ag1918
ag1919
asba(iMeme
Meme
p1921
(dp1922
g3
(lp1923
S'connfucious'
p1924
aS'say'
p1925
asg14
S'connfucious say'
p1926
sg16
S' jack barker like cock'
p1927
sg18
Vconfucius-says
p1928
sg20
(lp1929
g1924
ag1925
aS'jack'
p1930
aS'barker'
p1931
aS'like'
p1932
aS'cock'
p1933
asg29
(lp1934
g1930
ag1931
ag1932
ag1933
asba(iMeme
Meme
p1935
(dp1936
g3
(lp1937
S'its'
p1938
aS'good'
p1939
aS'to'
p1940
aS'meet'
p1941
aS'girl'
p1942
aS'in'
p1943
aS'park'
p1944
asg14
S'its good to meet girl in park'
p1945
sg16
S' better to park meat in girl'
p1946
sg18
Vconfucius-says
p1947
sg20
(lp1948
g1938
ag1939
ag1940
ag1941
ag1942
ag1943
ag1944
aS'better'
p1949
aS'to'
p1950
aS'park'
p1951
aS'meat'
p1952
aS'in'
p1953
aS'girl'
p1954
asg29
(lp1955
g1949
ag1950
ag1951
ag1952
ag1953
ag1954
asba(iMeme
Meme
p1956
(dp1957
g3
(lp1958
S'if'
p1959
aS'hearing'
p1960
aS'is'
p1961
aS'feeling'
p1962
asg14
S'if hearing is feeling'
p1963
sg16
S' can deaf people feel?'
p1964
sg18
Vconfucius-says
p1965
sg20
(lp1966
g1959
ag1960
ag1961
ag1962
aS'can'
p1967
aS'deaf'
p1968
aS'people'
p1969
aS'feel'
p1970
ag1919
asg29
(lp1971
g1967
ag1968
ag1969
ag1970
ag1919
asba(iMeme
Meme
p1972
(dp1973
g3
(lp1974
S'man'
p1975
aS'who'
p1976
aS'eat'
p1977
aS'no'
p1978
aS'chicken'
p1979
asg14
S'man who eat no chicken'
p1980
sg16
S' has little cock'
p1981
sg18
Vconfucius-says
p1982
sg20
(lp1983
g1975
ag1976
ag1977
ag1978
ag1979
aS'has'
p1984
aS'little'
p1985
aS'cock'
p1986
asg29
(lp1987
g1984
ag1985
ag1986
asba(iMeme
Meme
p1988
(dp1989
g3
(lp1990
S'do'
p1991
ag879
aS'smell'
p1992
aS'kenneth'
p1993
asg14
S'do i smell kenneth'
p1994
sg16
S' dame you stank lol'
p1995
sg18
Vconfucius-says
p1996
sg20
(lp1997
g1991
ag879
ag1992
ag1993
aS'dame'
p1998
aS'you'
p1999
aS'stank'
p2000
aS'lol'
p2001
asg29
(lp2002
g1998
ag1999
ag2000
ag2001
asba(iMeme
Meme
p2003
(dp2004
g3
(lp2005
S'man'
p2006
aS'who'
p2007
aS'touch'
p2008
aS'balls'
p2009
asg14
S'man who touch balls'
p2010
sg16
S' feel ballsie'
p2011
sg18
Vconfucius-says
p2012
sg20
(lp2013
g2006
ag2007
ag2008
ag2009
aS'feel'
p2014
aS'ballsie'
p2015
asg29
(lp2016
g2014
ag2015
asba(iMeme
Meme
p2017
(dp2018
g3
(lp2019
S'im'
p2020
aS'yu'
p2021
asg14
S'im yu'
p2022
sg16
S' and he is mi'
p2023
sg18
Vconfucius-says
p2024
sg20
(lp2025
g2020
ag2021
aS'and'
p2026
aS'he'
p2027
aS'is'
p2028
aS'mi'
p2029
asg29
(lp2030
g2026
ag2027
ag2028
ag2029
asba(iMeme
Meme
p2031
(dp2032
g3
(lp2033
S'cap'
p2034
aS'yo'
p2035
aS'as'
p2036
asg14
S'cap yo as'
p2037
sg16
S' fool'
p2038
sg18
Vconfucius-says
p2039
sg20
(lp2040
g2034
ag2035
ag2036
aS'fool'
p2041
asg29
(lp2042
g2041
asba(iMeme
Meme
p2043
(dp2044
g3
(lp2045
S'street'
p2046
aS'racing'
p2047
asg14
S'street racing'
p2048
sg16
S' its only for corollas'
p2049
sg18
Vconfucius-says
p2050
sg20
(lp2051
g2046
ag2047
aS'its'
p2052
aS'only'
p2053
aS'for'
p2054
aS'corollas'
p2055
asg29
(lp2056
g2052
ag2053
ag2054
ag2055
asba(iMeme
Meme
p2057
(dp2058
g3
(lp2059
S'woman'
p2060
aS'who'
p2061
aS'perfroms'
p2062
aS'hand'
p2063
aS'stands'
p2064
asg14
S'woman who perfroms hand stands'
p2065
sg16
S' have crack up'
p2066
sg18
Vconfucius-says
p2067
sg20
(lp2068
g2060
ag2061
ag2062
ag2063
ag2064
aS'have'
p2069
aS'crack'
p2070
aS'up'
p2071
asg29
(lp2072
g2069
ag2070
ag2071
asba(iMeme
Meme
p2073
(dp2074
g3
(lp2075
S'confucius'
p2076
aS'say'
p2077
asg14
S'confucius say'
p2078
sg16
S' man who stress need toke bong'
p2079
sg18
Vconfucius-says
p2080
sg20
(lp2081
g2076
ag2077
aS'man'
p2082
aS'who'
p2083
aS'stress'
p2084
aS'need'
p2085
aS'toke'
p2086
aS'bong'
p2087
asg29
(lp2088
g2082
ag2083
ag2084
ag2085
ag2086
ag2087
asba(iMeme
Meme
p2089
(dp2090
g3
(lp2091
S'one'
p2092
aS'who'
p2093
aS'drop'
p2094
aS'watch'
p2095
aS'in'
p2096
aS'toilet'
p2097
asg14
S'one who drop watch in toilet'
p2098
sg16
S' has shitty time'
p2099
sg18
Vconfucius-says
p2100
sg20
(lp2101
g2092
ag2093
ag2094
ag2095
ag2096
ag2097
aS'has'
p2102
aS'shitty'
p2103
aS'time'
p2104
asg29
(lp2105
g2102
ag2103
ag2104
asba(iMeme
Meme
p2106
(dp2107
g3
(lp2108
S'the'
p2109
aS'one'
p2110
aS'who'
p2111
aS'laughs'
p2112
aS'last..'
p2113
asg14
S'the one who laughs last..'
p2114
sg16
S' thinks slowest'
p2115
sg18
Vconfucius-says
p2116
sg20
(lp2117
g2109
ag2110
ag2111
ag2112
ag2113
aS'thinks'
p2118
aS'slowest'
p2119
asg29
(lp2120
g2118
ag2119
asba(iMeme
Meme
p2121
(dp2122
g3
(lp2123
S'wait'
p2124
aS'not'
p2125
asg14
S'wait not'
p2126
sg16
S' want wok'
p2127
sg18
Vconfucius-says
p2128
sg20
(lp2129
g2124
ag2125
aS'want'
p2130
aS'wok'
p2131
asg29
(lp2132
g2130
ag2131
asba(iMeme
Meme
p2133
(dp2134
g3
(lp2135
S'man'
p2136
aS'who'
p2137
aS'say'
p2138
aS'sorry'
p2139
aS'for'
p2140
aS'spamming'
p2141
asg14
S'man who say sorry for spamming'
p2142
sg16
S' but no real sorry'
p2143
sg18
Vconfucius-says
p2144
sg20
(lp2145
g2136
ag2137
ag2138
ag2139
ag2140
ag2141
aS'but'
p2146
aS'no'
p2147
aS'real'
p2148
aS'sorry'
p2149
asg29
(lp2150
g2146
ag2147
ag2148
ag2149
asba(iMeme
Meme
p2151
(dp2152
g3
(lp2153
S'not'
p2154
aS'in'
p2155
aS'clan'
p2156
aS'ranking'
p2157
ag1919
asg14
S'not in clan ranking?'
p2158
sg16
S' try harder!'
p2159
sg18
Vconfucius-says
p2160
sg20
(lp2161
g2154
ag2155
ag2156
ag2157
ag1919
aS'try'
p2162
aS'harder'
p2163
ag971
asg29
(lp2164
g2162
ag2163
ag971
asba(iMeme
Meme
p2165
(dp2166
g3
(lp2167
S'ladies'
p2168
aS'ladies'
p2169
asg14
S'ladies ladies'
p2170
sg16
S' call me weifang'
p2171
sg18
Vconfucius-says
p2172
sg20
(lp2173
g2168
ag2169
aS'call'
p2174
aS'me'
p2175
aS'weifang'
p2176
asg29
(lp2177
g2174
ag2175
ag2176
asba(iMeme
Meme
p2178
(dp2179
g3
(lp2180
S'student'
p2181
aS'who'
p2182
aS'take'
p2183
aS'route'
p2184
aS'20'
p2185
aS'and'
p2186
aS'22'
p2187
asg14
S'student who take route 20 and 22'
p2188
sg16
S' out of breath at top of stairs'
p2189
sg18
Vconfucius-says
p2190
sg20
(lp2191
g2181
ag2182
ag2183
ag2184
ag2185
ag2186
ag2187
aS'out'
p2192
aS'of'
p2193
aS'breath'
p2194
aS'at'
p2195
aS'top'
p2196
aS'of'
p2197
aS'stairs'
p2198
asg29
(lp2199
g2192
ag2193
ag2194
ag2195
ag2196
ag2197
ag2198
asba(iMeme
Meme
p2200
(dp2201
g3
(lp2202
S'man'
p2203
aS'who'
p2204
aS'is'
p2205
aS'god'
p2206
asg14
S'man who is god'
p2207
sg16
S' is tejaswi'
p2208
sg18
Vconfucius-says
p2209
sg20
(lp2210
g2203
ag2204
ag2205
ag2206
aS'is'
p2211
aS'tejaswi'
p2212
asg29
(lp2213
g2211
ag2212
asba(iMeme
Meme
p2214
(dp2215
g3
(lp2216
S'man'
p2217
aS'who'
p2218
aS'jerk'
p2219
aS'in'
p2220
aS'circle'
p2221
asg14
S'man who jerk in circle'
p2222
sg16
S' come around eventually'
p2223
sg18
Vconfucius-says
p2224
sg20
(lp2225
g2217
ag2218
ag2219
ag2220
ag2221
aS'come'
p2226
aS'around'
p2227
aS'eventually'
p2228
asg29
(lp2229
g2226
ag2227
ag2228
asba(iMeme
Meme
p2230
(dp2231
g3
(lp2232
S'confucius'
p2233
aS'says'
p2234
asg14
S'confucius says'
p2235
sg16
S' the shed is too damn small'
p2236
sg18
Vconfucius-says
p2237
sg20
(lp2238
g2233
ag2234
aS'the'
p2239
aS'shed'
p2240
aS'is'
p2241
aS'too'
p2242
aS'damn'
p2243
aS'small'
p2244
asg29
(lp2245
g2239
ag2240
ag2241
ag2242
ag2243
ag2244
asba(iMeme
Meme
p2246
(dp2247
g3
(lp2248
S'confucious'
p2249
aS'says'
p2250
asg14
S'confucious says'
p2251
sg16
S' man who walks through airport turnstile sideways'
p2252
sg18
Vconfucius-says
p2253
sg20
(lp2254
g2249
ag2250
aS'man'
p2255
aS'who'
p2256
aS'walks'
p2257
aS'through'
p2258
aS'airport'
p2259
aS'turnstile'
p2260
aS'sideways'
p2261
asg29
(lp2262
g2255
ag2256
ag2257
ag2258
ag2259
ag2260
ag2261
asba(iMeme
Meme
p2263
(dp2264
g3
(lp2265
S'when'
p2266
aS'someone'
p2267
aS'hate'
p2268
aS'you'
p2269
asg14
S'when someone hate you'
p2270
sg16
S' fuck them'
p2271
sg18
Vconfucius-says
p2272
sg20
(lp2273
g2266
ag2267
ag2268
ag2269
aS'fuck'
p2274
aS'them'
p2275
asg29
(lp2276
g2274
ag2275
asba(iMeme
Meme
p2277
(dp2278
g3
(lp2279
S'my'
p2280
aS'name'
p2281
aS'is'
p2282
asg14
S'my name is'
p2283
sg16
S' richard bolter'
p2284
sg18
Vconfucius-says
p2285
sg20
(lp2286
g2280
ag2281
ag2282
aS'richard'
p2287
aS'bolter'
p2288
asg29
(lp2289
g2287
ag2288
asba(iMeme
Meme
p2290
(dp2291
g3
(lp2292
S'confucius'
p2293
aS'say'
p2294
asg14
S'confucius say'
p2295
sg16
S' one who plays h.o.n.'
p2296
sg18
Vconfucius-says
p2297
sg20
(lp2298
g2293
ag2294
aS'one'
p2299
aS'who'
p2300
aS'plays'
p2301
aS'h.o.n'
p2302
ag462
asg29
(lp2303
g2299
ag2300
ag2301
ag2302
ag462
asba(iMeme
Meme
p2304
(dp2305
g3
(lp2306
S'fix'
p2307
ag103
aS'machine'
p2308
asg14
S'fix a machine'
p2309
sg16
S' it works'
p2310
sg18
Vconfucius-says
p2311
sg20
(lp2312
g2307
ag103
ag2308
aS'it'
p2313
aS'works'
p2314
asg29
(lp2315
g2313
ag2314
asba(iMeme
Meme
p2316
(dp2317
g3
(lp2318
S'you'
p2319
aS'no'
p2320
aS'get'
p2321
ag103
ag971
ag971
asg14
S'you no get a!!'
p2322
sg16
S' you go back to china with your grandparents!!'
p2323
sg18
Vconfucius-says
p2324
sg20
(lp2325
g2319
ag2320
ag2321
ag103
ag971
ag971
aS'you'
p2326
aS'go'
p2327
aS'back'
p2328
aS'to'
p2329
aS'china'
p2330
aS'with'
p2331
aS'your'
p2332
aS'grandparents'
p2333
ag971
ag971
asg29
(lp2334
g2326
ag2327
ag2328
ag2329
ag2330
ag2331
ag2332
ag2333
ag971
ag971
asba(iMeme
Meme
p2335
(dp2336
g3
(lp2337
S'people'
p2338
aS'that'
p2339
aS'go'
p2340
aS'to'
p2341
aS'boring'
p2342
aS'ot'
p2343
asg14
S'people that go to boring ot'
p2344
sg16
S' bound to have brain explode'
p2345
sg18
Vconfucius-says
p2346
sg20
(lp2347
g2338
ag2339
ag2340
ag2341
ag2342
ag2343
aS'bound'
p2348
aS'to'
p2349
aS'have'
p2350
aS'brain'
p2351
aS'explode'
p2352
asg29
(lp2353
g2348
ag2349
ag2350
ag2351
ag2352
asba(iMeme
Meme
p2354
(dp2355
g3
(lp2356
S'man'
p2357
aS'who'
p2358
aS'smoke'
p2359
aS'ciggys'
p2360
asg14
S'man who smoke ciggys'
p2361
sg16
S' end up like ryans dad'
p2362
sg18
Vconfucius-says
p2363
sg20
(lp2364
g2357
ag2358
ag2359
ag2360
aS'end'
p2365
aS'up'
p2366
aS'like'
p2367
aS'ryans'
p2368
aS'dad'
p2369
asg29
(lp2370
g2365
ag2366
ag2367
ag2368
ag2369
asba(iMeme
Meme
p2371
(dp2372
g3
(lp2373
S'for'
p2374
ag103
aS'good'
p2375
aS'time'
p2376
asg14
S'for a good time'
p2377
sg16
S' call ryan'
p2378
sg18
Vconfucius-says
p2379
sg20
(lp2380
g2374
ag103
ag2375
ag2376
aS'call'
p2381
aS'ryan'
p2382
asg29
(lp2383
g2381
ag2382
asba(iMeme
Meme
p2384
(dp2385
g3
(lp2386
S'kevin'
p2387
aS'guan'
p2388
asg14
S'kevin guan'
p2389
sg16
S' get a dam diary fool!'
p2390
sg18
Vconfucius-says
p2391
sg20
(lp2392
g2387
ag2388
aS'get'
p2393
ag103
aS'dam'
p2394
aS'diary'
p2395
aS'fool'
p2396
ag971
asg29
(lp2397
g2393
ag103
ag2394
ag2395
ag2396
ag971
asba(iMeme
Meme
p2398
(dp2399
g3
(lp2400
S'man'
p2401
aS'who'
p2402
aS'has'
p2403
aS'sex'
p2404
aS'on'
p2405
aS'ground'
p2406
asg14
S'man who has sex on ground'
p2407
sg16
S' has pice on earth'
p2408
sg18
Vconfucius-says
p2409
sg20
(lp2410
g2401
ag2402
ag2403
ag2404
ag2405
ag2406
aS'has'
p2411
aS'pice'
p2412
aS'on'
p2413
aS'earth'
p2414
asg29
(lp2415
g2411
ag2412
ag2413
ag2414
asba(iMeme
Meme
p2416
(dp2417
g3
(lp2418
S'confucius'
p2419
aS'says'
p2420
asg14
S'confucius says'
p2421
sg16
S' vagina now!'
p2422
sg18
Vconfucius-says
p2423
sg20
(lp2424
g2419
ag2420
aS'vagina'
p2425
aS'now'
p2426
ag971
asg29
(lp2427
g2425
ag2426
ag971
asba(iMeme
Meme
p2428
(dp2429
g3
(lp2430
S'trade'
p2431
aS'daughter'
p2432
aS'for'
p2433
aS'pig'
p2434
ag462
asg14
S'trade daughter for pig.'
p2435
sg16
S' gain twin brother.'
p2436
sg18
Vconfucius-says
p2437
sg20
(lp2438
g2431
ag2432
ag2433
ag2434
ag462
aS'gain'
p2439
aS'twin'
p2440
aS'brother'
p2441
ag462
asg29
(lp2442
g2439
ag2440
ag2441
ag462
asba(iMeme
Meme
p2443
(dp2444
g3
(lp2445
S'girl'
p2446
aS'tries'
p2447
aS'to'
p2448
aS'acquire'
p2449
aS'knowledge'
p2450
asg14
S'girl tries to acquire knowledge'
p2451
sg16
S' girl feels poor'
p2452
sg18
Vconfucius-says
p2453
sg20
(lp2454
g2446
ag2447
ag2448
ag2449
ag2450
aS'girl'
p2455
aS'feels'
p2456
aS'poor'
p2457
asg29
(lp2458
g2455
ag2456
ag2457
asba(iMeme
Meme
p2459
(dp2460
g3
(lp2461
S'man'
p2462
aS'who'
p2463
aS'flys'
p2464
aS'upside'
p2465
aS'down'
p2466
asg14
S'man who flys upside down'
p2467
sg16
S' is bound to crack up'
p2468
sg18
Vconfucius-says
p2469
sg20
(lp2470
g2462
ag2463
ag2464
ag2465
ag2466
aS'is'
p2471
aS'bound'
p2472
aS'to'
p2473
aS'crack'
p2474
aS'up'
p2475
asg29
(lp2476
g2471
ag2472
ag2473
ag2474
ag2475
asba(iMeme
Meme
p2477
(dp2478
g3
(lp2479
S'rick'
p2480
ag971
aS'rick'
p2481
ag971
aS'rick'
p2482
ag971
aS'rick'
p2483
ag971
asg14
S'rick! rick! rick! rick!'
p2484
sg16
S' i wear the tophat bowtie and monocle to rook rike a human!'
p2485
sg18
Vconfucius-says
p2486
sg20
(lp2487
g2480
ag971
ag2481
ag971
ag2482
ag971
ag2483
ag971
ag879
aS'wear'
p2488
aS'the'
p2489
aS'tophat'
p2490
aS'bowtie'
p2491
aS'and'
p2492
aS'monocle'
p2493
aS'to'
p2494
aS'rook'
p2495
aS'rike'
p2496
ag103
aS'human'
p2497
ag971
asg29
(lp2498
g879
ag2488
ag2489
ag2490
ag2491
ag2492
ag2493
ag2494
ag2495
ag2496
ag103
ag2497
ag971
asba(iMeme
Meme
p2499
(dp2500
g3
(lp2501
S'as'
p2502
aS'sarah'
p2503
aS'fathaaa'
p2504
asg14
S'as sarah fathaaa'
p2505
sg16
S' i forbid you bradrey'
p2506
sg18
Vconfucius-says
p2507
sg20
(lp2508
g2502
ag2503
ag2504
ag879
aS'forbid'
p2509
aS'you'
p2510
aS'bradrey'
p2511
asg29
(lp2512
g879
ag2509
ag2510
ag2511
asba(iMeme
Meme
p2513
(dp2514
g3
(lp2515
S'confucious'
p2516
aS'says..'
p2517
aS'he'
p2518
aS'who'
p2519
aS'ruined'
p2520
aS'christmas'
p2521
aS'parties'
p2522
aS'because'
p2523
aS'of'
p2524
aS'failure'
p2525
asg14
S'confucious says.. he who ruined christmas parties because of failure'
p2526
sg16
S' must not ruin the promenade'
p2527
sg18
Vconfucius-says
p2528
sg20
(lp2529
g2516
ag2517
ag2518
ag2519
ag2520
ag2521
ag2522
ag2523
ag2524
ag2525
aS'must'
p2530
aS'not'
p2531
aS'ruin'
p2532
aS'the'
p2533
aS'promenade'
p2534
asg29
(lp2535
g2530
ag2531
ag2532
ag2533
ag2534
asba(iMeme
Meme
p2536
(dp2537
g3
(lp2538
S'what'
p2539
aS'would'
p2540
asg14
S'what would'
p2541
sg16
S' obama do?'
p2542
sg18
Vconfucius-says
p2543
sg20
(lp2544
g2539
ag2540
aS'obama'
p2545
aS'do'
p2546
ag1919
asg29
(lp2547
g2545
ag2546
ag1919
asba(iMeme
Meme
p2548
(dp2549
g3
(lp2550
S'confucius'
p2551
aS'says'
p2552
asg14
S'confucius says'
p2553
sg16
S' i should die'
p2554
sg18
Vconfucius-says
p2555
sg20
(lp2556
g2551
ag2552
ag879
aS'should'
p2557
aS'die'
p2558
asg29
(lp2559
g879
ag2557
ag2558
asba(iMeme
Meme
p2560
(dp2561
g3
(lp2562
S'he'
p2563
aS'who'
p2564
aS'wants'
p2565
aS'pretty'
p2566
aS'nurse'
p2567
asg14
S'he who wants pretty nurse'
p2568
sg16
S' must be patient'
p2569
sg18
Vconfucius-says
p2570
sg20
(lp2571
g2563
ag2564
ag2565
ag2566
ag2567
aS'must'
p2572
aS'be'
p2573
aS'patient'
p2574
asg29
(lp2575
g2572
ag2573
ag2574
asba(iMeme
Meme
p2576
(dp2577
g3
(lp2578
S'teacher'
p2579
aS'gives'
p2580
aS'69'
p2581
aS'on'
p2582
aS'test'
p2583
asg14
S'teacher gives 69 on test'
p2584
sg16
S' better to test teacher on 69'
p2585
sg18
Vconfucius-says
p2586
sg20
(lp2587
g2579
ag2580
ag2581
ag2582
ag2583
aS'better'
p2588
aS'to'
p2589
aS'test'
p2590
aS'teacher'
p2591
aS'on'
p2592
aS'69'
p2593
asg29
(lp2594
g2588
ag2589
ag2590
ag2591
ag2592
ag2593
asba(iMeme
Meme
p2595
(dp2596
g3
(lp2597
S'mista'
p2598
aS'yedricka'
p2599
aS'says'
p2600
asg14
S'mista yedricka says'
p2601
sg16
S' im not asian'
p2602
sg18
Vconfucius-says
p2603
sg20
(lp2604
g2598
ag2599
ag2600
aS'im'
p2605
aS'not'
p2606
aS'asian'
p2607
asg29
(lp2608
g2605
ag2606
ag2607
asba(iMeme
Meme
p2609
(dp2610
g3
(lp2611
S'man'
p2612
aS'who'
p2613
aS'keeps'
p2614
aS'staring'
p2615
aS'at'
p2616
aS'breasts'
p2617
asg14
S'man who keeps staring at breasts'
p2618
sg16
S' racks focus!!!'
p2619
sg18
Vconfucius-says
p2620
sg20
(lp2621
g2612
ag2613
ag2614
ag2615
ag2616
ag2617
aS'racks'
p2622
aS'focus'
p2623
ag971
ag971
ag971
asg29
(lp2624
g2622
ag2623
ag971
ag971
ag971
asba(iMeme
Meme
p2625
(dp2626
g3
(lp2627
S'man'
p2628
aS'who'
p2629
aS'goes'
p2630
aS'to'
p2631
aS'bed'
p2632
aS'with'
p2633
aS'itchy'
p2634
aS'buttocks'
p2635
asg14
S'man who goes to bed with itchy buttocks'
p2636
sg16
S' wake up with smelly fingers'
p2637
sg18
Vconfucius-says
p2638
sg20
(lp2639
g2628
ag2629
ag2630
ag2631
ag2632
ag2633
ag2634
ag2635
aS'wake'
p2640
aS'up'
p2641
aS'with'
p2642
aS'smelly'
p2643
aS'fingers'
p2644
asg29
(lp2645
g2640
ag2641
ag2642
ag2643
ag2644
asba(iMeme
Meme
p2646
(dp2647
g3
(lp2648
S'man'
p2649
aS'who'
p2650
aS'works'
p2651
aS'for'
p2652
aS'state'
p2653
asg14
S'man who works for state'
p2654
sg16
S' never need to work'
p2655
sg18
Vconfucius-says
p2656
sg20
(lp2657
g2649
ag2650
ag2651
ag2652
ag2653
aS'never'
p2658
aS'need'
p2659
aS'to'
p2660
aS'work'
p2661
asg29
(lp2662
g2658
ag2659
ag2660
ag2661
asba(iMeme
Meme
p2663
(dp2664
g3
(lp2665
S'confucius'
p2666
aS'say'
p2667
aS';'
p2668
asg14
S'confucius say;'
p2669
sg16
S' fire hot!!'
p2670
sg18
Vconfucius-says
p2671
sg20
(lp2672
g2666
ag2667
ag2668
aS'fire'
p2673
aS'hot'
p2674
ag971
ag971
asg29
(lp2675
g2673
ag2674
ag971
ag971
asba(iMeme
Meme
p2676
(dp2677
g3
(lp2678
S'woman'
p2679
aS'who'
p2680
aS'stand'
p2681
aS'on'
p2682
aS'street'
p2683
aS'corner'
p2684
asg14
S'woman who stand on street corner'
p2685
sg16
S' not wait for bus'
p2686
sg18
Vconfucius-says
p2687
sg20
(lp2688
g2679
ag2680
ag2681
ag2682
ag2683
ag2684
aS'not'
p2689
aS'wait'
p2690
aS'for'
p2691
aS'bus'
p2692
asg29
(lp2693
g2689
ag2690
ag2691
ag2692
asba(iMeme
Meme
p2694
(dp2695
g3
(lp2696
g103
aS'fool'
p2697
ag1405
aS'his'
p2698
aS'money'
p2699
asg14
S'a fool & his money'
p2700
sg16
S' are a gals best friend'
p2701
sg18
Vconfucius-says
p2702
sg20
(lp2703
g103
ag2697
ag1405
ag2698
ag2699
aS'are'
p2704
ag103
aS'gals'
p2705
aS'best'
p2706
aS'friend'
p2707
asg29
(lp2708
g2704
ag103
ag2705
ag2706
ag2707
asba(iMeme
Meme
p2709
(dp2710
g3
(lp2711
S'confucius'
p2712
aS'says'
p2713
asg14
S'confucius says'
p2714
sg16
S' matt shut the fuck up'
p2715
sg18
Vconfucius-says
p2716
sg20
(lp2717
g2712
ag2713
aS'matt'
p2718
aS'shut'
p2719
aS'the'
p2720
aS'fuck'
p2721
aS'up'
p2722
asg29
(lp2723
g2718
ag2719
ag2720
ag2721
ag2722
asba(iMeme
Meme
p2724
(dp2725
g3
(lp2726
S'man'
p2727
aS'who'
p2728
aS'run'
p2729
aS'behind'
p2730
aS'car'
p2731
asg14
S'man who run behind car'
p2732
sg16
S' gets exhausted'
p2733
sg18
Vconfucius-says
p2734
sg20
(lp2735
g2727
ag2728
ag2729
ag2730
ag2731
aS'gets'
p2736
aS'exhausted'
p2737
asg29
(lp2738
g2736
ag2737
asba(iMeme
Meme
p2739
(dp2740
g3
(lp2741
S'man'
p2742
aS'who'
p2743
aS'block'
p2744
asg14
S'man who block'
p2745
sg16
S' have no cock'
p2746
sg18
Vconfucius-says
p2747
sg20
(lp2748
g2742
ag2743
ag2744
aS'have'
p2749
aS'no'
p2750
aS'cock'
p2751
asg29
(lp2752
g2749
ag2750
ag2751
asba(iMeme
Meme
p2753
(dp2754
g3
(lp2755
S'man'
p2756
aS'who'
p2757
aS'put'
p2758
aS'hand'
p2759
aS'in'
p2760
aS'pocket'
p2761
asg14
S'man who put hand in pocket'
p2762
sg16
S' feel cocky'
p2763
sg18
Vconfucius-says
p2764
sg20
(lp2765
g2756
ag2757
ag2758
ag2759
ag2760
ag2761
aS'feel'
p2766
aS'cocky'
p2767
asg29
(lp2768
g2766
ag2767
asba(iMeme
Meme
p2769
(dp2770
g3
(lp2771
S'man'
p2772
aS'who'
p2773
aS'jumps'
p2774
aS'out'
p2775
aS'window'
p2776
asg14
S'man who jumps out window'
p2777
sg16
S' get flar'
p2778
sg18
Vconfucius-says
p2779
sg20
(lp2780
g2772
ag2773
ag2774
ag2775
ag2776
aS'get'
p2781
aS'flar'
p2782
asg29
(lp2783
g2781
ag2782
asba(iMeme
Meme
p2784
(dp2785
g3
(lp2786
S'you'
p2787
aS'break'
p2788
aS'it'
p2789
asg14
S'you break it'
p2790
sg16
S' you buy it'
p2791
sg18
Vconfucius-says
p2792
sg20
(lp2793
g2787
ag2788
ag2789
aS'you'
p2794
aS'buy'
p2795
aS'it'
p2796
asg29
(lp2797
g2794
ag2795
ag2796
asba(iMeme
Meme
p2798
(dp2799
g3
(lp2800
S'confucius'
p2801
aS'say'
p2802
asg14
S'confucius say'
p2803
sg16
S' hi my names max'
p2804
sg18
Vconfucius-says
p2805
sg20
(lp2806
g2801
ag2802
aS'hi'
p2807
aS'my'
p2808
aS'names'
p2809
aS'max'
p2810
asg29
(lp2811
g2807
ag2808
ag2809
ag2810
asba(iMeme
Meme
p2812
(dp2813
g3
(lp2814
S'change'
p2815
aS'name'
p2816
aS'not'
p2817
aS'working'
p2818
ag1919
asg14
S'change name not working?'
p2819
sg16
S' buy again'
p2820
sg18
Vconfucius-says
p2821
sg20
(lp2822
g2815
ag2816
ag2817
ag2818
ag1919
aS'buy'
p2823
aS'again'
p2824
asg29
(lp2825
g2823
ag2824
asba(iMeme
Meme
p2826
(dp2827
g3
(lp2828
S'man'
p2829
aS'who'
p2830
aS'go'
p2831
aS'to'
p2832
aS'sleep'
p2833
aS'with'
p2834
aS'woman'
p2835
aS'problem'
p2836
aS'on'
p2837
aS'mind'
p2838
asg14
S'man who go to sleep with woman problem on mind'
p2839
sg16
S' wake up wiyh solution in hand'
p2840
sg18
Vconfucius-says
p2841
sg20
(lp2842
g2829
ag2830
ag2831
ag2832
ag2833
ag2834
ag2835
ag2836
ag2837
ag2838
aS'wake'
p2843
aS'up'
p2844
aS'wiyh'
p2845
aS'solution'
p2846
aS'in'
p2847
aS'hand'
p2848
asg29
(lp2849
g2843
ag2844
ag2845
ag2846
ag2847
ag2848
asba(iMeme
Meme
p2850
(dp2851
g3
(lp2852
S'confucius'
p2853
aS'say:'
p2854
asg14
S'confucius say:'
p2855
sg16
S' if you wait for super mario rpg. maybe your girlfriend get for you for valentines day'
p2856
sg18
Vconfucius-says
p2857
sg20
(lp2858
g2853
ag2854
aS'if'
p2859
aS'you'
p2860
aS'wait'
p2861
aS'for'
p2862
aS'super'
p2863
aS'mario'
p2864
aS'rpg'
p2865
ag462
aS'maybe'
p2866
aS'your'
p2867
aS'girlfriend'
p2868
aS'get'
p2869
aS'for'
p2870
aS'you'
p2871
aS'for'
p2872
aS'valentines'
p2873
aS'day'
p2874
asg29
(lp2875
g2859
ag2860
ag2861
ag2862
ag2863
ag2864
ag2865
ag462
ag2866
ag2867
ag2868
ag2869
ag2870
ag2871
ag2872
ag2873
ag2874
asba(iMeme
Meme
p2876
(dp2877
g3
(lp2878
S'hit'
p2879
aS'the'
p2880
aS'bricks'
p2881
ag971
ag971
asg14
S'hit the bricks!!'
p2882
sg16
S' ortiz is madd !!!'
p2883
sg18
Vconfucius-says
p2884
sg20
(lp2885
g2879
ag2880
ag2881
ag971
ag971
aS'ortiz'
p2886
aS'is'
p2887
aS'madd'
p2888
ag971
ag971
ag971
asg29
(lp2889
g2886
ag2887
ag2888
ag971
ag971
ag971
asba(iMeme
Meme
p2890
(dp2891
g3
(lp2892
S'the'
p2893
aS'lower'
p2894
aS'u'
p2895
aS'cut'
p2896
aS'the'
p2897
aS'grass'
p2898
asg14
S'the lower u cut the grass'
p2899
sg16
S''
p2900
sg18
Vconfucius-says
p2901
sg20
(lp2902
g2893
ag2894
ag2895
ag2896
ag2897
ag2898
asg29
(lp2903
sba(iMeme
Meme
p2904
(dp2905
g3
(lp2906
S'man'
p2907
aS'who'
p2908
aS'does'
p2909
aS'not'
p2910
aS'generate'
p2911
aS'sos'
p2912
asg14
S'man who does not generate sos'
p2913
sg16
S' feeds others lunch'
p2914
sg18
Vconfucius-says
p2915
sg20
(lp2916
g2907
ag2908
ag2909
ag2910
ag2911
ag2912
aS'feeds'
p2917
aS'others'
p2918
aS'lunch'
p2919
asg29
(lp2920
g2917
ag2918
ag2919
asba(iMeme
Meme
p2921
(dp2922
g3
(lp2923
S'man'
p2924
aS'who'
p2925
aS'say'
p2926
aS'sorry'
p2927
aS'with'
p2928
aS'out'
p2929
aS'being'
p2930
aS'sorry'
p2931
asg14
S'man who say sorry with out being sorry'
p2932
sg16
S' make no friend'
p2933
sg18
Vconfucius-says
p2934
sg20
(lp2935
g2924
ag2925
ag2926
ag2927
ag2928
ag2929
ag2930
ag2931
aS'make'
p2936
aS'no'
p2937
aS'friend'
p2938
asg29
(lp2939
g2936
ag2937
ag2938
asba(iMeme
Meme
p2940
(dp2941
g3
(lp2942
S'man'
p2943
aS'whos'
p2944
aS'high'
p2945
asg14
S'man whos high'
p2946
sg16
S' keeps everyone up too date'
p2947
sg18
Vconfucius-says
p2948
sg20
(lp2949
g2943
ag2944
ag2945
aS'keeps'
p2950
aS'everyone'
p2951
aS'up'
p2952
aS'too'
p2953
aS'date'
p2954
asg29
(lp2955
g2950
ag2951
ag2952
ag2953
ag2954
asba(iMeme
Meme
p2956
(dp2957
g3
(lp2958
S'those'
p2959
aS'who'
p2960
aS'hate'
p2961
asg14
S'those who hate'
p2962
sg16
S' shall be fucked'
p2963
sg18
Vconfucius-says
p2964
sg20
(lp2965
g2959
ag2960
ag2961
aS'shall'
p2966
aS'be'
p2967
aS'fucked'
p2968
asg29
(lp2969
g2966
ag2967
ag2968
asba(iMeme
Meme
p2970
(dp2971
g3
(lp2972
S'man'
p2973
aS'who'
p2974
aS'sleep'
p2975
aS'with'
p2976
aS'itchy'
p2977
aS'bum'
p2978
asg14
S'man who sleep with itchy bum'
p2979
sg16
S' wake up with brown finger'
p2980
sg18
Vconfucius-says
p2981
sg20
(lp2982
g2973
ag2974
ag2975
ag2976
ag2977
ag2978
aS'wake'
p2983
aS'up'
p2984
aS'with'
p2985
aS'brown'
p2986
aS'finger'
p2987
asg29
(lp2988
g2983
ag2984
ag2985
ag2986
ag2987
asba(iMeme
Meme
p2989
(dp2990
g3
(lp2991
S'cash'
p2992
aS'in'
p2993
aS'hand'
p2994
asg14
S'cash in hand'
p2995
sg16
S' better than table in storage!'
p2996
sg18
Vconfucius-says
p2997
sg20
(lp2998
g2992
ag2993
ag2994
aS'better'
p2999
aS'than'
p3000
aS'table'
p3001
aS'in'
p3002
aS'storage'
p3003
ag971
asg29
(lp3004
g2999
ag3000
ag3001
ag3002
ag3003
ag971
asba(iMeme
Meme
p3005
(dp3006
g3
(lp3007
S'confucius'
p3008
aS'says'
p3009
asg14
S'confucius says'
p3010
sg16
S' high priority defect'
p3011
sg18
Vconfucius-says
p3012
sg20
(lp3013
g3008
ag3009
aS'high'
p3014
aS'priority'
p3015
aS'defect'
p3016
asg29
(lp3017
g3014
ag3015
ag3016
asba(iMeme
Meme
p3018
(dp3019
g3
(lp3020
S'yuku'
p3021
asg14
S'yuku'
p3022
sg16
S' no like bbcode :('
p3023
sg18
Vconfucius-says
p3024
sg20
(lp3025
g3021
aS'no'
p3026
aS'like'
p3027
aS'bbcode'
p3028
aS':'
p3029
aS'('
p3030
asg29
(lp3031
g3026
ag3027
ag3028
ag3029
ag3030
asba(iMeme
Meme
p3032
(dp3033
g3
(lp3034
S'man'
p3035
aS'who'
p3036
aS'fight'
p3037
aS'with'
p3038
aS'wife'
p3039
aS'at'
p3040
aS'night'
p3041
asg14
S'man who fight with wife at night'
p3042
sg16
S' get no piece at night'
p3043
sg18
Vconfucius-says
p3044
sg20
(lp3045
g3035
ag3036
ag3037
ag3038
ag3039
ag3040
ag3041
aS'get'
p3046
aS'no'
p3047
aS'piece'
p3048
aS'at'
p3049
aS'night'
p3050
asg29
(lp3051
g3046
ag3047
ag3048
ag3049
ag3050
asba(iMeme
Meme
p3052
(dp3053
g3
(lp3054
S'ohhhhh'
p3055
ag462
asg14
S'ohhhhh.'
p3056
sg16
S' such a great!'
p3057
sg18
Vconfucius-says
p3058
sg20
(lp3059
g3055
ag462
aS'such'
p3060
ag103
aS'great'
p3061
ag971
asg29
(lp3062
g3060
ag103
ag3061
ag971
asba(iMeme
Meme
p3063
(dp3064
g3
(lp3065
S'by'
p3066
aS'the'
p3067
aS'way'
p3068
asg14
S'by the way'
p3069
sg16
S' anyway'
p3070
sg18
Vconfucius-says
p3071
sg20
(lp3072
g3066
ag3067
ag3068
aS'anyway'
p3073
asg29
(lp3074
g3073
asba(iMeme
Meme
p3075
(dp3076
g3
(lp3077
S'dont'
p3078
aS'drink'
p3079
aS'and'
p3080
aS'park'
p3081
asg14
S'dont drink and park'
p3082
sg16
S' accidents cause people'
p3083
sg18
Vconfucius-says
p3084
sg20
(lp3085
g3078
ag3079
ag3080
ag3081
aS'accidents'
p3086
aS'cause'
p3087
aS'people'
p3088
asg29
(lp3089
g3086
ag3087
ag3088
asba(iMeme
Meme
p3090
(dp3091
g3
(lp3092
S'man'
p3093
aS'who'
p3094
aS'go'
p3095
aS'to'
p3096
aS'bed'
p3097
aS'with'
p3098
aS'itchy'
p3099
aS'butt'
p3100
asg14
S'man who go to bed with itchy butt'
p3101
sg16
S' wake up with stinky finger'
p3102
sg18
Vconfucius-says
p3103
sg20
(lp3104
g3093
ag3094
ag3095
ag3096
ag3097
ag3098
ag3099
ag3100
aS'wake'
p3105
aS'up'
p3106
aS'with'
p3107
aS'stinky'
p3108
aS'finger'
p3109
asg29
(lp3110
g3105
ag3106
ag3107
ag3108
ag3109
asba(iMeme
Meme
p3111
(dp3112
g3
(lp3113
S'one'
p3114
aS'uses'
p3115
aS'skin'
p3116
asg14
S'one uses skin'
p3117
sg16
S' another man want skin'
p3118
sg18
Vconfucius-says
p3119
sg20
(lp3120
g3114
ag3115
ag3116
aS'another'
p3121
aS'man'
p3122
aS'want'
p3123
aS'skin'
p3124
asg29
(lp3125
g3121
ag3122
ag3123
ag3124
asba(iMeme
Meme
p3126
(dp3127
g3
(lp3128
S'yuku'
p3129
asg14
S'yuku'
p3130
sg16
S' no speak bbcode?'
p3131
sg18
Vconfucius-says
p3132
sg20
(lp3133
g3129
aS'no'
p3134
aS'speak'
p3135
aS'bbcode'
p3136
ag1919
asg29
(lp3137
g3134
ag3135
ag3136
ag1919
asba(iMeme
Meme
p3138
(dp3139
g3
(lp3140
S'it'
p3141
aS'is'
p3142
aS'always'
p3143
aS'easier'
p3144
aS'to'
p3145
aS'access'
p3146
aS'your'
p3147
aS'desktop'
p3148
asg14
S'it is always easier to access your desktop'
p3149
sg16
S' via a shortcut on your desktop'
p3150
sg18
Vconfucius-says
p3151
sg20
(lp3152
g3141
ag3142
ag3143
ag3144
ag3145
ag3146
ag3147
ag3148
aS'via'
p3153
ag103
aS'shortcut'
p3154
aS'on'
p3155
aS'your'
p3156
aS'desktop'
p3157
asg29
(lp3158
g3153
ag103
ag3154
ag3155
ag3156
ag3157
asba(iMeme
Meme
p3159
(dp3160
g3
(lp3161
S'chef'
p3162
aS'in'
p3163
aS'hub'
p3164
asg14
S'chef in hub'
p3165
sg16
S' cooks to order'
p3166
sg18
Vconfucius-says
p3167
sg20
(lp3168
g3162
ag3163
ag3164
aS'cooks'
p3169
aS'to'
p3170
aS'order'
p3171
asg29
(lp3172
g3169
ag3170
ag3171
asba(iMeme
Meme
p3173
(dp3174
g3
(lp3175
S'man'
p3176
aS'who'
p3177
aS'run'
p3178
aS'infront'
p3179
aS'of'
p3180
aS'bus'
p3181
aS'get'
p3182
aS'tired'
p3183
asg14
S'man who run infront of bus get tired'
p3184
sg16
S' man who run behind bus get exhausted'
p3185
sg18
Vconfucius-says
p3186
sg20
(lp3187
g3176
ag3177
ag3178
ag3179
ag3180
ag3181
ag3182
ag3183
aS'man'
p3188
aS'who'
p3189
aS'run'
p3190
aS'behind'
p3191
aS'bus'
p3192
aS'get'
p3193
aS'exhausted'
p3194
asg29
(lp3195
g3188
ag3189
ag3190
ag3191
ag3192
ag3193
ag3194
asba(iMeme
Meme
p3196
(dp3197
g3
(lp3198
S'antonio'
p3199
aS'is'
p3200
asg14
S'antonio is'
p3201
sg16
S' very stinky'
p3202
sg18
Vconfucius-says
p3203
sg20
(lp3204
g3199
ag3200
aS'very'
p3205
aS'stinky'
p3206
asg29
(lp3207
g3205
ag3206
asba(iMeme
Meme
p3208
(dp3209
g3
(lp3210
S'he'
p3211
aS'who'
p3212
aS'messes'
p3213
aS'with'
p3214
aS'oceanz'
p3215
asg14
S'he who messes with oceanz'
p3216
sg16
S' often drowns in the wave'
p3217
sg18
Vconfucius-says
p3218
sg20
(lp3219
g3211
ag3212
ag3213
ag3214
ag3215
aS'often'
p3220
aS'drowns'
p3221
aS'in'
p3222
aS'the'
p3223
aS'wave'
p3224
asg29
(lp3225
g3220
ag3221
ag3222
ag3223
ag3224
asba(iMeme
Meme
p3226
(dp3227
g3
(lp3228
S'defending'
p3229
aS'gloucester'
p3230
aS'hill'
p3231
aS'with'
p3232
aS'4'
p3233
asg14
S'defending gloucester hill with 4'
p3234
sg16
S'000 men?'
p3235
sg18
Vconfucius-says
p3236
sg20
(lp3237
g3229
ag3230
ag3231
ag3232
ag3233
aS'000'
p3238
aS'men'
p3239
ag1919
asg29
(lp3240
g3238
ag3239
ag1919
asba(iMeme
Meme
p3241
(dp3242
g3
(lp3243
S'confucious'
p3244
aS'says'
p3245
aS'it'
p3246
aS'is'
p3247
aS'safe'
p3248
aS'to'
p3249
aS'make'
p3250
aS'girlfriends'
p3251
aS'in'
p3252
aS'nit'
p3253
asg14
S'confucious says it is safe to make girlfriends in nit'
p3254
sg16
S'trichi'
p3255
sg18
Vconfucius-says
p3256
sg20
(lp3257
g3244
ag3245
ag3246
ag3247
ag3248
ag3249
ag3250
ag3251
ag3252
ag3253
aS'trichi'
p3258
asg29
(lp3259
g3258
asba(iMeme
Meme
p3260
(dp3261
g3
(lp3262
S'rick'
p3263
ag971
aS'rick'
p3264
ag971
aS'rick'
p3265
ag971
aS'rick'
p3266
ag971
asg14
S'rick! rick! rick! rick!'
p3267
sg16
S' no i wirr not take my tophat off!'
p3268
sg18
Vconfucius-says
p3269
sg20
(lp3270
g3263
ag971
ag3264
ag971
ag3265
ag971
ag3266
ag971
aS'no'
p3271
ag879
aS'wirr'
p3272
aS'not'
p3273
aS'take'
p3274
aS'my'
p3275
aS'tophat'
p3276
aS'off'
p3277
ag971
asg29
(lp3278
g3271
ag879
ag3272
ag3273
ag3274
ag3275
ag3276
ag3277
ag971
asba(iMeme
Meme
p3279
(dp3280
g3
(lp3281
S'confucious'
p3282
aS'says..'
p3283
aS'he'
p3284
aS'who'
p3285
aS'ruined'
p3286
aS'christmas'
p3287
aS'parties'
p3288
aS'because'
p3289
aS'of'
p3290
aS'failure'
p3291
asg14
S'confucious says.. he who ruined christmas parties because of failure'
p3292
sg16
S' must not ruin the junior and senior prom'
p3293
sg18
Vconfucius-says
p3294
sg20
(lp3295
g3282
ag3283
ag3284
ag3285
ag3286
ag3287
ag3288
ag3289
ag3290
ag3291
aS'must'
p3296
aS'not'
p3297
aS'ruin'
p3298
aS'the'
p3299
aS'junior'
p3300
aS'and'
p3301
aS'senior'
p3302
aS'prom'
p3303
asg29
(lp3304
g3296
ag3297
ag3298
ag3299
ag3300
ag3301
ag3302
ag3303
asba(iMeme
Meme
p3305
(dp3306
g3
(lp3307
S'baseball'
p3308
aS'wrong'
p3309
asg14
S'baseball wrong'
p3310
sg16
S' man with four balls no can walk'
p3311
sg18
Vconfucius-says
p3312
sg20
(lp3313
g3308
ag3309
aS'man'
p3314
aS'with'
p3315
aS'four'
p3316
aS'balls'
p3317
aS'no'
p3318
aS'can'
p3319
aS'walk'
p3320
asg29
(lp3321
g3314
ag3315
ag3316
ag3317
ag3318
ag3319
ag3320
asba(iMeme
Meme
p3322
(dp3323
g3
(lp3324
S'man'
p3325
aS'with'
p3326
aS'hole'
p3327
aS'in'
p3328
aS'pocket'
p3329
asg14
S'man with hole in pocket'
p3330
sg16
S' feel cocky all day long'
p3331
sg18
Vconfucius-says
p3332
sg20
(lp3333
g3325
ag3326
ag3327
ag3328
ag3329
aS'feel'
p3334
aS'cocky'
p3335
aS'all'
p3336
aS'day'
p3337
aS'long'
p3338
asg29
(lp3339
g3334
ag3335
ag3336
ag3337
ag3338
asba(iMeme
Meme
p3340
(dp3341
g3
(lp3342
S'confucius'
p3343
aS'say'
p3344
asg14
S'confucius say'
p3345
sg16
S' vote samir for treasurer'
p3346
sg18
Vconfucius-says
p3347
sg20
(lp3348
g3343
ag3344
aS'vote'
p3349
aS'samir'
p3350
aS'for'
p3351
aS'treasurer'
p3352
asg29
(lp3353
g3349
ag3350
ag3351
ag3352
asba(iMeme
Meme
p3354
(dp3355
g3
(lp3356
S'shai'
p3357
aS'is'
p3358
aS'gay'
p3359
asg14
S'shai is gay'
p3360
sg16
S' and his mums a prosttue'
p3361
sg18
Vconfucius-says
p3362
sg20
(lp3363
g3357
ag3358
ag3359
aS'and'
p3364
aS'his'
p3365
aS'mums'
p3366
ag103
aS'prosttue'
p3367
asg29
(lp3368
g3364
ag3365
ag3366
ag103
ag3367
asba(iMeme
Meme
p3369
(dp3370
g3
(lp3371
S'you'
p3372
aS'tell'
p3373
aS'me'
p3374
aS'fuck'
p3375
aS'offf'
p3376
asg14
S'you tell me fuck offf'
p3377
sg16
S' i ninja ur ass'
p3378
sg18
Vconfucius-says
p3379
sg20
(lp3380
g3372
ag3373
ag3374
ag3375
ag3376
ag879
aS'ninja'
p3381
aS'ur'
p3382
aS'ass'
p3383
asg29
(lp3384
g879
ag3381
ag3382
ag3383
asba(iMeme
Meme
p3385
(dp3386
g3
(lp3387
S'confucius'
p3388
aS'say'
p3389
asg14
S'confucius say'
p3390
sg16
S' yew bee bahd boi'
p3391
sg18
Vconfucius-says
p3392
sg20
(lp3393
g3388
ag3389
aS'yew'
p3394
aS'bee'
p3395
aS'bahd'
p3396
aS'boi'
p3397
asg29
(lp3398
g3394
ag3395
ag3396
ag3397
asba(iMeme
Meme
p3399
(dp3400
g3
(lp3401
S'teacher'
p3402
aS'gives'
p3403
aS'69'
p3404
aS'on'
p3405
aS'test'
p3406
asg14
S'teacher gives 69 on test'
p3407
sg16
S' better to test teacher on 59'
p3408
sg18
Vconfucius-says
p3409
sg20
(lp3410
g3402
ag3403
ag3404
ag3405
ag3406
aS'better'
p3411
aS'to'
p3412
aS'test'
p3413
aS'teacher'
p3414
aS'on'
p3415
aS'59'
p3416
asg29
(lp3417
g3411
ag3412
ag3413
ag3414
ag3415
ag3416
asba(iMeme
Meme
p3418
(dp3419
g3
(lp3420
S'wherever'
p3421
aS'you'
p3422
aS'go'
p3423
asg14
S'wherever you go'
p3424
sg16
S' go with your heart'
p3425
sg18
Vconfucius-says
p3426
sg20
(lp3427
g3421
ag3422
ag3423
aS'go'
p3428
aS'with'
p3429
aS'your'
p3430
aS'heart'
p3431
asg29
(lp3432
g3428
ag3429
ag3430
ag3431
asba(iMeme
Meme
p3433
(dp3434
g3
(lp3435
S'bro'
p3436
aS'offers'
p3437
aS'you'
p3438
aS'samurai'
p3439
aS'swords'
p3440
aS'and'
p3441
aS'chicklets'
p3442
asg14
S'bro offers you samurai swords and chicklets'
p3443
sg16
S' take all for himself'
p3444
sg18
Vconfucius-says
p3445
sg20
(lp3446
g3436
ag3437
ag3438
ag3439
ag3440
ag3441
ag3442
aS'take'
p3447
aS'all'
p3448
aS'for'
p3449
aS'himself'
p3450
asg29
(lp3451
g3447
ag3448
ag3449
ag3450
asba(iMeme
Meme
p3452
(dp3453
g3
(lp3454
S'man'
p3455
aS'who'
p3456
aS'waddle'
p3457
aS'out'
p3458
aS'of'
p3459
aS'airport'
p3460
asg14
S'man who waddle out of airport'
p3461
sg16
S' went to thailand'
p3462
sg18
Vconfucius-says
p3463
sg20
(lp3464
g3455
ag3456
ag3457
ag3458
ag3459
ag3460
aS'went'
p3465
aS'to'
p3466
aS'thailand'
p3467
asg29
(lp3468
g3465
ag3466
ag3467
asba(iMeme
Meme
p3469
(dp3470
g3
(lp3471
S'philosophy'
p3472
aS'is'
p3473
aS'like'
p3474
aS'plumbing'
p3475
asg14
S'philosophy is like plumbing'
p3476
sg16
S' full of crap'
p3477
sg18
Vconfucius-says
p3478
sg20
(lp3479
g3472
ag3473
ag3474
ag3475
aS'full'
p3480
aS'of'
p3481
aS'crap'
p3482
asg29
(lp3483
g3480
ag3481
ag3482
asba(iMeme
Meme
p3484
(dp3485
g3
(lp3486
S'osama'
p3487
aS'troll'
p3488
aS'goes'
p3489
aS'fishing'
p3490
aS'for'
p3491
aS'compliments'
p3492
asg14
S'osama troll goes fishing for compliments'
p3493
sg16
S' wifi broadcasting location to us navy seals pizza for osama'
p3494
sg18
Vconfucius-says
p3495
sg20
(lp3496
g3487
ag3488
ag3489
ag3490
ag3491
ag3492
aS'wifi'
p3497
aS'broadcasting'
p3498
aS'location'
p3499
aS'to'
p3500
aS'us'
p3501
aS'navy'
p3502
aS'seals'
p3503
aS'pizza'
p3504
aS'for'
p3505
aS'osama'
p3506
asg29
(lp3507
g3497
ag3498
ag3499
ag3500
ag3501
ag3502
ag3503
ag3504
ag3505
ag3506
asba(iMeme
Meme
p3508
(dp3509
g3
(lp3510
S'fat'
p3511
aS'asian'
p3512
aS'meme'
p3513
asg14
S'fat asian meme'
p3514
sg16
S' make you grab your wewe'
p3515
sg18
Vconfucius-says
p3516
sg20
(lp3517
g3511
ag3512
ag3513
aS'make'
p3518
aS'you'
p3519
aS'grab'
p3520
aS'your'
p3521
aS'wewe'
p3522
asg29
(lp3523
g3518
ag3519
ag3520
ag3521
ag3522
asba(iMeme
Meme
p3524
(dp3525
g3
(lp3526
S'bro'
p3527
aS'offers'
p3528
aS'you'
p3529
aS'chicklets'
p3530
asg14
S'bro offers you chicklets'
p3531
sg16
S' take all for himself'
p3532
sg18
Vconfucius-says
p3533
sg20
(lp3534
g3527
ag3528
ag3529
ag3530
aS'take'
p3535
aS'all'
p3536
aS'for'
p3537
aS'himself'
p3538
asg29
(lp3539
g3535
ag3536
ag3537
ag3538
asba(iMeme
Meme
p3540
(dp3541
g3
(lp3542
S'man'
p3543
aS'who'
p3544
aS'master'
p3545
aS'axes'
p3546
asg14
S'man who master axes'
p3547
sg16
S' is bound to have sharp wits'
p3548
sg18
Vconfucius-says
p3549
sg20
(lp3550
g3543
ag3544
ag3545
ag3546
aS'is'
p3551
aS'bound'
p3552
aS'to'
p3553
aS'have'
p3554
aS'sharp'
p3555
aS'wits'
p3556
asg29
(lp3557
g3551
ag3552
ag3553
ag3554
ag3555
ag3556
asba(iMeme
Meme
p3558
(dp3559
g3
(lp3560
S'wiseman'
p3561
aS'timeless'
p3562
aS'luck'
p3563
asg14
S'wiseman timeless luck'
p3564
sg16
S' scrub old mans back'
p3565
sg18
Vconfucius-says
p3566
sg20
(lp3567
g3561
ag3562
ag3563
aS'scrub'
p3568
aS'old'
p3569
aS'mans'
p3570
aS'back'
p3571
asg29
(lp3572
g3568
ag3569
ag3570
ag3571
asba(iMeme
Meme
p3573
(dp3574
g3
(lp3575
S'you'
p3576
aS'want'
p3577
asg14
S'you want'
p3578
sg16
S' to fuck on me?'
p3579
sg18
Vconfucius-says
p3580
sg20
(lp3581
g3576
ag3577
aS'to'
p3582
aS'fuck'
p3583
aS'on'
p3584
aS'me'
p3585
ag1919
asg29
(lp3586
g3582
ag3583
ag3584
ag3585
ag1919
asba(iMeme
Meme
p3587
(dp3588
g3
(lp3589
S'man'
p3590
aS'who'
p3591
aS'chase'
p3592
aS'bus'
p3593
asg14
S'man who chase bus'
p3594
sg16
S' get tired'
p3595
sg18
Vconfucius-says
p3596
sg20
(lp3597
g3590
ag3591
ag3592
ag3593
aS'get'
p3598
aS'tired'
p3599
asg29
(lp3600
g3598
ag3599
asba(iMeme
Meme
p3601
(dp3602
g3
(lp3603
S'man'
p3604
aS'with'
p3605
aS'penis'
p3606
aS'in'
p3607
aS'peanut'
p3608
aS'butter'
p3609
asg14
S'man with penis in peanut butter'
p3610
sg16
S' f#%king nuts'
p3611
sg18
Vconfucius-says
p3612
sg20
(lp3613
g3604
ag3605
ag3606
ag3607
ag3608
ag3609
aS'f'
p3614
aS'#'
p3615
aS'%'
p3616
aS'king'
p3617
aS'nuts'
p3618
asg29
(lp3619
g3614
ag3615
ag3616
ag3617
ag3618
asba(iMeme
Meme
p3620
(dp3621
g3
(lp3622
S'no'
p3623
aS'score'
p3624
ag1919
asg14
S'no score?'
p3625
sg16
S' play again'
p3626
sg18
Vconfucius-says
p3627
sg20
(lp3628
g3623
ag3624
ag1919
aS'play'
p3629
aS'again'
p3630
asg29
(lp3631
g3629
ag3630
asba(iMeme
Meme
p3632
(dp3633
g3
(lp3634
S'nathan'
p3635
aS'wagstaff'
p3636
asg14
S'nathan wagstaff'
p3637
sg16
S' he so runny'
p3638
sg18
Vconfucius-says
p3639
sg20
(lp3640
g3635
ag3636
aS'he'
p3641
aS'so'
p3642
aS'runny'
p3643
asg29
(lp3644
g3641
ag3642
ag3643
asba(iMeme
Meme
p3645
(dp3646
g3
(lp3647
S'if'
p3648
aS'you'
p3649
aS'give'
p3650
aS'your'
p3651
aS'crush'
p3652
ag103
aS'ps3'
p3653
aS'game'
p3654
asg14
S'if you give your crush a ps3 game'
p3655
sg16
S' she will ignore you'
p3656
sg18
Vconfucius-says
p3657
sg20
(lp3658
g3648
ag3649
ag3650
ag3651
ag3652
ag103
ag3653
ag3654
aS'she'
p3659
aS'will'
p3660
aS'ignore'
p3661
aS'you'
p3662
asg29
(lp3663
g3659
ag3660
ag3661
ag3662
asba(iMeme
Meme
p3664
(dp3665
g3
(lp3666
g103
aS'good'
p3667
aS'shell'
p3668
aS'is'
p3669
aS'hard'
p3670
aS'to'
p3671
aS'find'
p3672
asg14
S'a good shell is hard to find'
p3673
sg16
S' and a hard shell is good to find'
p3674
sg18
Vconfucius-says
p3675
sg20
(lp3676
g103
ag3667
ag3668
ag3669
ag3670
ag3671
ag3672
aS'and'
p3677
ag103
aS'hard'
p3678
aS'shell'
p3679
aS'is'
p3680
aS'good'
p3681
aS'to'
p3682
aS'find'
p3683
asg29
(lp3684
g3677
ag103
ag3678
ag3679
ag3680
ag3681
ag3682
ag3683
asba(iMeme
Meme
p3685
(dp3686
g3
(lp3687
S'women'
p3688
aS'who'
p3689
aS'swallow'
p3690
asg14
S'women who swallow'
p3691
sg16
S' are the ones that ken loves'
p3692
sg18
Vconfucius-says
p3693
sg20
(lp3694
g3688
ag3689
ag3690
aS'are'
p3695
aS'the'
p3696
aS'ones'
p3697
aS'that'
p3698
aS'ken'
p3699
aS'loves'
p3700
asg29
(lp3701
g3695
ag3696
ag3697
ag3698
ag3699
ag3700
asba(iMeme
Meme
p3702
(dp3703
g3
(lp3704
S'look'
p3705
aS'at'
p3706
aS'my'
p3707
aS'face'
p3708
asg14
S'look at my face'
p3709
sg16
S' a fuck it does not give!'
p3710
sg18
Vconfucius-says
p3711
sg20
(lp3712
g3705
ag3706
ag3707
ag3708
ag103
aS'fuck'
p3713
aS'it'
p3714
aS'does'
p3715
aS'not'
p3716
aS'give'
p3717
ag971
asg29
(lp3718
g103
ag3713
ag3714
ag3715
ag3716
ag3717
ag971
asba(iMeme
Meme
p3719
(dp3720
g3
(lp3721
S'man'
p3722
aS'who'
p3723
aS'drops'
p3724
aS'watch'
p3725
aS'in'
p3726
ag103
aS'toilet'
p3727
asg14
S'man who drops watch in a toilet'
p3728
sg16
S' is bound to have shitty time'
p3729
sg18
Vconfucius-says
p3730
sg20
(lp3731
g3722
ag3723
ag3724
ag3725
ag3726
ag103
ag3727
aS'is'
p3732
aS'bound'
p3733
aS'to'
p3734
aS'have'
p3735
aS'shitty'
p3736
aS'time'
p3737
asg29
(lp3738
g3732
ag3733
ag3734
ag3735
ag3736
ag3737
asba(iMeme
Meme
p3739
(dp3740
g3
(lp3741
S'choose'
p3742
ag103
aS'job'
p3743
aS'you'
p3744
aS'love'
p3745
asg14
S'choose a job you love'
p3746
sg16
S' and you will never have to work a day in your life'
p3747
sg18
Vconfucius-says
p3748
sg20
(lp3749
g3742
ag103
ag3743
ag3744
ag3745
aS'and'
p3750
aS'you'
p3751
aS'will'
p3752
aS'never'
p3753
aS'have'
p3754
aS'to'
p3755
aS'work'
p3756
ag103
aS'day'
p3757
aS'in'
p3758
aS'your'
p3759
aS'life'
p3760
asg29
(lp3761
g3750
ag3751
ag3752
ag3753
ag3754
ag3755
ag3756
ag103
ag3757
ag3758
ag3759
ag3760
asba(iMeme
Meme
p3762
(dp3763
g3
(lp3764
S'students'
p3765
aS'who'
p3766
aS'take'
p3767
aS'bus'
p3768
aS'routes'
p3769
aS'20'
p3770
aS'and'
p3771
aS'22'
p3772
asg14
S'students who take bus routes 20 and 22'
p3773
sg16
S' will be out of breath'
p3774
sg18
Vconfucius-says
p3775
sg20
(lp3776
g3765
ag3766
ag3767
ag3768
ag3769
ag3770
ag3771
ag3772
aS'will'
p3777
aS'be'
p3778
aS'out'
p3779
aS'of'
p3780
aS'breath'
p3781
asg29
(lp3782
g3777
ag3778
ag3779
ag3780
ag3781
asba(iMeme
Meme
p3783
(dp3784
g3
(lp3785
S'man'
p3786
aS'who'
p3787
aS'fart'
p3788
aS'in'
p3789
aS'church'
p3790
asg14
S'man who fart in church'
p3791
sg16
S' set on pew'
p3792
sg18
Vconfucius-says
p3793
sg20
(lp3794
g3786
ag3787
ag3788
ag3789
ag3790
aS'set'
p3795
aS'on'
p3796
aS'pew'
p3797
asg29
(lp3798
g3795
ag3796
ag3797
asba(iMeme
Meme
p3799
(dp3800
g3
(lp3801
S'man'
p3802
aS'who'
p3803
aS'fart'
p3804
aS'in'
p3805
aS'church'
p3806
asg14
S'man who fart in church'
p3807
sg16
S' set on pew'
p3808
sg18
Vconfucius-says
p3809
sg20
(lp3810
g3802
ag3803
ag3804
ag3805
ag3806
aS'set'
p3811
aS'on'
p3812
aS'pew'
p3813
asg29
(lp3814
g3811
ag3812
ag3813
asba(iMeme
Meme
p3815
(dp3816
g3
(lp3817
S'those'
p3818
aS'who'
p3819
aS'are'
p3820
aS'stupid'
p3821
asg14
S'those who are stupid'
p3822
sg16
S' really are stupid'
p3823
sg18
Vconfucius-says
p3824
sg20
(lp3825
g3818
ag3819
ag3820
ag3821
aS'really'
p3826
aS'are'
p3827
aS'stupid'
p3828
asg29
(lp3829
g3826
ag3827
ag3828
asba(iMeme
Meme
p3830
(dp3831
g3
(lp3832
S'defending'
p3833
aS'gloucester'
p3834
aS'hill'
p3835
aS'with'
p3836
ag3233
asg14
S'defending gloucester hill with 4'
p3837
sg16
S'000 men?'
p3838
sg18
Vconfucius-says
p3839
sg20
(lp3840
g3833
ag3834
ag3835
ag3836
ag3233
aS'000'
p3841
aS'men'
p3842
ag1919
asg29
(lp3843
g3841
ag3842
ag1919
asba(iMeme
Meme
p3844
(dp3845
g3
(lp3846
S'woman'
p3847
aS'who'
p3848
aS'masturbate'
p3849
aS'on'
p3850
aS'period'
p3851
asg14
S'woman who masturbate on period'
p3852
sg16
S' gets caught red handed'
p3853
sg18
Vconfucius-says
p3854
sg20
(lp3855
g3847
ag3848
ag3849
ag3850
ag3851
aS'gets'
p3856
aS'caught'
p3857
aS'red'
p3858
aS'handed'
p3859
asg29
(lp3860
g3856
ag3857
ag3858
ag3859
asba(iMeme
Meme
p3861
(dp3862
g3
(lp3863
S'my'
p3864
aS'milk'
p3865
aS'shake'
p3866
aS'bring'
p3867
aS'all'
p3868
aS'the'
p3869
aS'girls'
p3870
aS'to'
p3871
aS'the'
p3872
aS'yard'
p3873
asg14
S'my milk shake bring all the girls to the yard'
p3874
sg16
S' damn right it better than urs'
p3875
sg18
Vconfucius-says
p3876
sg20
(lp3877
g3864
ag3865
ag3866
ag3867
ag3868
ag3869
ag3870
ag3871
ag3872
ag3873
aS'damn'
p3878
aS'right'
p3879
aS'it'
p3880
aS'better'
p3881
aS'than'
p3882
aS'urs'
p3883
asg29
(lp3884
g3878
ag3879
ag3880
ag3881
ag3882
ag3883
asba(iMeme
Meme
p3885
(dp3886
g3
(lp3887
g103
aS'fool'
p3888
aS'and'
p3889
aS'his'
p3890
aS'money'
p3891
asg14
S'a fool and his money'
p3892
sg16
S' are a girl$ best friend'
p3893
sg18
Vconfucius-says
p3894
sg20
(lp3895
g103
ag3888
ag3889
ag3890
ag3891
aS'are'
p3896
ag103
aS'girl'
p3897
aS'$'
p3898
aS'best'
p3899
aS'friend'
p3900
asg29
(lp3901
g3896
ag103
ag3897
ag3898
ag3899
ag3900
asba(iMeme
Meme
p3902
(dp3903
g3
(lp3904
g879
aS'swear'
p3905
asg14
S'i swear'
p3906
sg16
S' i wont spit on you this time'
p3907
sg18
Vconfucius-says
p3908
sg20
(lp3909
g879
ag3905
ag879
aS'wont'
p3910
aS'spit'
p3911
aS'on'
p3912
aS'you'
p3913
aS'this'
p3914
aS'time'
p3915
asg29
(lp3916
g879
ag3910
ag3911
ag3912
ag3913
ag3914
ag3915
asba(iMeme
Meme
p3917
(dp3918
g3
(lp3919
S'man'
p3920
aS'who'
p3921
aS'put'
p3922
aS'hand'
p3923
aS'in'
p3924
aS'pocket'
p3925
asg14
S'man who put hand in pocket'
p3926
sg16
S' feel cocky'
p3927
sg18
Vconfucius-says
p3928
sg20
(lp3929
g3920
ag3921
ag3922
ag3923
ag3924
ag3925
aS'feel'
p3930
aS'cocky'
p3931
asg29
(lp3932
g3930
ag3931
asba(iMeme
Meme
p3933
(dp3934
g3
(lp3935
S'man'
p3936
aS'who'
p3937
aS'in'
p3938
aS'dodrill'
p3939
aS'class'
p3940
asg14
S'man who in dodrill class'
p3941
sg16
S' know only about wife'
p3942
sg18
Vconfucius-says
p3943
sg20
(lp3944
g3936
ag3937
ag3938
ag3939
ag3940
aS'know'
p3945
aS'only'
p3946
aS'about'
p3947
aS'wife'
p3948
asg29
(lp3949
g3945
ag3946
ag3947
ag3948
asba(iMeme
Meme
p3950
(dp3951
g3
(lp3952
S'man'
p3953
aS'who'
p3954
aS'jumps'
p3955
aS'to'
p3956
aS'conclusion'
p3957
asg14
S'man who jumps to conclusion'
p3958
sg16
S' has jumped off cliff'
p3959
sg18
Vconfucius-says
p3960
sg20
(lp3961
g3953
ag3954
ag3955
ag3956
ag3957
aS'has'
p3962
aS'jumped'
p3963
aS'off'
p3964
aS'cliff'
p3965
asg29
(lp3966
g3962
ag3963
ag3964
ag3965
asba(iMeme
Meme
p3967
(dp3968
g3
(lp3969
S'wise'
p3970
aS'man'
p3971
aS'says'
p3972
asg14
S'wise man says'
p3973
sg16
S' dont post shit and shit wont be told to you'
p3974
sg18
Vconfucius-says
p3975
sg20
(lp3976
g3970
ag3971
ag3972
aS'dont'
p3977
aS'post'
p3978
aS'shit'
p3979
aS'and'
p3980
aS'shit'
p3981
aS'wont'
p3982
aS'be'
p3983
aS'told'
p3984
aS'to'
p3985
aS'you'
p3986
asg29
(lp3987
g3977
ag3978
ag3979
ag3980
ag3981
ag3982
ag3983
ag3984
ag3985
ag3986
asba(iMeme
Meme
p3988
(dp3989
g3
(lp3990
S'conficius'
p3991
aS'says'
p3992
ag3029
aS'it'
p3993
aS'is'
p3994
aS'always'
p3995
aS'easier'
p3996
aS'to'
p3997
aS'access'
p3998
aS'your'
p3999
aS'desktop'
p4000
asg14
S'conficius says: it is always easier to access your desktop'
p4001
sg16
S' via a shortcut on your desktop'
p4002
sg18
Vconfucius-says
p4003
sg20
(lp4004
g3991
ag3992
ag3029
ag3993
ag3994
ag3995
ag3996
ag3997
ag3998
ag3999
ag4000
aS'via'
p4005
ag103
aS'shortcut'
p4006
aS'on'
p4007
aS'your'
p4008
aS'desktop'
p4009
asg29
(lp4010
g4005
ag103
ag4006
ag4007
ag4008
ag4009
asba(iMeme
Meme
p4011
(dp4012
g3
(lp4013
S'wiseman'
p4014
aS'times'
p4015
aS'luck'
p4016
asg14
S'wiseman times luck'
p4017
sg16
S' scrub old mans back'
p4018
sg18
Vconfucius-says
p4019
sg20
(lp4020
g4014
ag4015
ag4016
aS'scrub'
p4021
aS'old'
p4022
aS'mans'
p4023
aS'back'
p4024
asg29
(lp4025
g4021
ag4022
ag4023
ag4024
asba(iMeme
Meme
p4026
(dp4027
g3
(lp4028
S'wait'
p4029
aS'until'
p4030
aS'it'
p4031
aS'gets'
p4032
aS'dark'
p4033
asg14
S'wait until it gets dark'
p4034
sg16
S' bring out my dragons'
p4035
sg18
Vconfucius-says
p4036
sg20
(lp4037
g4029
ag4030
ag4031
ag4032
ag4033
aS'bring'
p4038
aS'out'
p4039
aS'my'
p4040
aS'dragons'
p4041
asg29
(lp4042
g4038
ag4039
ag4040
ag4041
asba(iMeme
Meme
p4043
(dp4044
g3
(lp4045
S'holland'
p4046
aS'snitch'
p4047
asg14
S'holland snitch'
p4048
sg16
S' what the fuck'
p4049
sg18
Vconfucius-says
p4050
sg20
(lp4051
g4046
ag4047
aS'what'
p4052
aS'the'
p4053
aS'fuck'
p4054
asg29
(lp4055
g4052
ag4053
ag4054
asba(iMeme
Meme
p4056
(dp4057
g3
(lp4058
S'if'
p4059
aS'you'
p4060
aS'do'
p4061
aS'not'
p4062
aS'make'
p4063
aS'mistakes'
p4064
asg14
S'if you do not make mistakes'
p4065
sg16
S' then you dont do anything'
p4066
sg18
Vconfucius-says
p4067
sg20
(lp4068
g4059
ag4060
ag4061
ag4062
ag4063
ag4064
aS'then'
p4069
aS'you'
p4070
aS'dont'
p4071
aS'do'
p4072
aS'anything'
p4073
asg29
(lp4074
g4069
ag4070
ag4071
ag4072
ag4073
asba(iMeme
Meme
p4075
(dp4076
g3
(lp4077
S'people'
p4078
aS'alway'
p4079
aS'say'
p4080
aS'they'
p4081
aS'sit'
p4082
aS'on'
p4083
aS'stuff'
p4084
asg14
S'people alway say they sit on stuff'
p4085
sg16
S' but every 1 know that they used it for sex'
p4086
sg18
Vconfucius-says
p4087
sg20
(lp4088
g4078
ag4079
ag4080
ag4081
ag4082
ag4083
ag4084
aS'but'
p4089
aS'every'
p4090
aS'1'
p4091
aS'know'
p4092
aS'that'
p4093
aS'they'
p4094
aS'used'
p4095
aS'it'
p4096
aS'for'
p4097
aS'sex'
p4098
asg29
(lp4099
g4089
ag4090
ag4091
ag4092
ag4093
ag4094
ag4095
ag4096
ag4097
ag4098
asba(iMeme
Meme
p4100
(dp4101
g3
(lp4102
S'osama'
p4103
aS'eat'
p4104
aS'balls'
p4105
asg14
S'osama eat balls'
p4106
sg16
S' very nice'
p4107
sg18
Vconfucius-says
p4108
sg20
(lp4109
g4103
ag4104
ag4105
aS'very'
p4110
aS'nice'
p4111
asg29
(lp4112
g4110
ag4111
asba(iMeme
Meme
p4113
(dp4114
g3
(lp4115
S'quang'
p4116
aS'say'
p4117
ag462
aS'no'
p4118
aS'more'
p4119
aS'lie'
p4120
aS'to'
p4121
aS'me'
p4122
asg14
S'quang say. no more lie to me'
p4123
sg16
S' where my filter!'
p4124
sg18
Vconfucius-says
p4125
sg20
(lp4126
g4116
ag4117
ag462
ag4118
ag4119
ag4120
ag4121
ag4122
aS'where'
p4127
aS'my'
p4128
aS'filter'
p4129
ag971
asg29
(lp4130
g4127
ag4128
ag4129
ag971
asba(iMeme
Meme
p4131
(dp4132
g3
(lp4133
S'its'
p4134
aS'good'
p4135
aS'to'
p4136
aS'meet'
p4137
aS'girl'
p4138
aS'in'
p4139
aS'park'
p4140
asg14
S'its good to meet girl in park'
p4141
sg16
S' but better to park meat in girl'
p4142
sg18
Vconfucius-says
p4143
sg20
(lp4144
g4134
ag4135
ag4136
ag4137
ag4138
ag4139
ag4140
aS'but'
p4145
aS'better'
p4146
aS'to'
p4147
aS'park'
p4148
aS'meat'
p4149
aS'in'
p4150
aS'girl'
p4151
asg29
(lp4152
g4145
ag4146
ag4147
ag4148
ag4149
ag4150
ag4151
asba(iMeme
Meme
p4153
(dp4154
g3
(lp4155
S'there'
p4156
aS'are'
p4157
aS'two'
p4158
aS'kinds'
p4159
aS'of'
p4160
aS'people'
p4161
aS'who'
p4162
aS'get'
p4163
aS'into'
p4164
aS'iit'
p4165
asg14
S'there are two kinds of people who get into iit'
p4166
sg16
S' ones who are in kota '
p4167
sg18
Vconfucius-says
p4168
sg20
(lp4169
g4156
ag4157
ag4158
ag4159
ag4160
ag4161
ag4162
ag4163
ag4164
ag4165
aS'ones'
p4170
aS'who'
p4171
aS'are'
p4172
aS'in'
p4173
aS'kota'
p4174
asg29
(lp4175
g4170
ag4171
ag4172
ag4173
ag4174
asba(iMeme
Meme
p4176
(dp4177
g3
(lp4178
S'confucius'
p4179
aS'sayuhh'
p4180
asg14
S'confucius sayuhh'
p4181
sg16
S' suck mai dickuhh'
p4182
sg18
Vconfucius-says
p4183
sg20
(lp4184
g4179
ag4180
aS'suck'
p4185
aS'mai'
p4186
aS'dickuhh'
p4187
asg29
(lp4188
g4185
ag4186
ag4187
asba(iMeme
Meme
p4189
(dp4190
g3
(lp4191
S'when'
p4192
aS'embarking'
p4193
aS'on'
p4194
ag103
aS'thinking'
p4195
aS'thought'
p4196
asg14
S'when embarking on a thinking thought'
p4197
sg16
S' one shall proceed during a drinking sought'
p4198
sg18
Vconfucius-says
p4199
sg20
(lp4200
g4192
ag4193
ag4194
ag103
ag4195
ag4196
aS'one'
p4201
aS'shall'
p4202
aS'proceed'
p4203
aS'during'
p4204
ag103
aS'drinking'
p4205
aS'sought'
p4206
asg29
(lp4207
g4201
ag4202
ag4203
ag4204
ag103
ag4205
ag4206
asba(iMeme
Meme
p4208
(dp4209
g3
(lp4210
S'enter'
p4211
aS'tab'
p4212
aS'type'
p4213
asg14
S'enter tab type'
p4214
sg16
S' ctrl + f5 finger i give freely'
p4215
sg18
Vconfucius-says
p4216
sg20
(lp4217
g4211
ag4212
ag4213
aS'ctrl'
p4218
aS'+'
p4219
aS'f5'
p4220
aS'finger'
p4221
ag879
aS'give'
p4222
aS'freely'
p4223
asg29
(lp4224
g4218
ag4219
ag4220
ag4221
ag879
ag4222
ag4223
asba(iMeme
Meme
p4225
(dp4226
g3
(lp4227
S'confucius'
p4228
aS'say'
p4229
asg14
S'confucius say'
p4230
sg16
S' man who stand on toilet high on pot'
p4231
sg18
Vconfucius-says
p4232
sg20
(lp4233
g4228
ag4229
aS'man'
p4234
aS'who'
p4235
aS'stand'
p4236
aS'on'
p4237
aS'toilet'
p4238
aS'high'
p4239
aS'on'
p4240
aS'pot'
p4241
asg29
(lp4242
g4234
ag4235
ag4236
ag4237
ag4238
ag4239
ag4240
ag4241
asba(iMeme
Meme
p4243
(dp4244
g3
(lp4245
S'if'
p4246
aS'you'
p4247
aS'find'
p4248
aS'yourself'
p4249
aS'being'
p4250
aS'the'
p4251
aS'target'
p4252
aS'for'
p4253
aS'arrows'
p4254
asg14
S'if you find yourself being the target for arrows'
p4255
sg16
g2900
sg18
Vconfucius-says
p4256
sg20
(lp4257
g4246
ag4247
ag4248
ag4249
ag4250
ag4251
ag4252
ag4253
ag4254
asg29
(lp4258
sba(iMeme
Meme
p4259
(dp4260
g3
(lp4261
S'upon'
p4262
aS'embarking'
p4263
aS'on'
p4264
ag103
aS'thinking'
p4265
aS'though'
p4266
asg14
S'upon embarking on a thinking though'
p4267
sg16
S' is a must to follow with a drinking sought'
p4268
sg18
Vconfucius-says
p4269
sg20
(lp4270
g4262
ag4263
ag4264
ag103
ag4265
ag4266
aS'is'
p4271
ag103
aS'must'
p4272
aS'to'
p4273
aS'follow'
p4274
aS'with'
p4275
ag103
aS'drinking'
p4276
aS'sought'
p4277
asg29
(lp4278
g4271
ag103
ag4272
ag4273
ag4274
ag4275
ag103
ag4276
ag4277
asba(iMeme
Meme
p4279
(dp4280
g3
(lp4281
S'ay'
p4282
aS'si'
p4283
aS'soy'
p4284
aS'huevona'
p4285
ag971
asg14
S'ay si soy huevona!'
p4286
sg16
S' no erika. sabidura!'
p4287
sg18
Vconfucius-says
p4288
sg20
(lp4289
g4282
ag4283
ag4284
ag4285
ag971
aS'no'
p4290
aS'erika'
p4291
ag462
aS'sabidura'
p4292
ag971
asg29
(lp4293
g4290
ag4291
ag462
ag4292
ag971
asba.