(lp0
(iMeme
Meme
p1
(dp2
S'top_text'
p3
(lp4
S'A'
p5
aS'Joke'
p6
aS'about'
p7
aS'sarah'
p8
aS'jessica'
p9
aS'parker'
p10
aS'looking'
p11
aS'like'
p12
aS'a'
p13
aS'horse'
p14
asS'top_text_raw'
p15
S'A Joke about sarah jessica parker looking like a horse '
p16
sS'bottom_text_raw'
p17
S' Nay'
p18
sS'meme_type'
p19
Vdownvoting-roman
p20
sS'all_text'
p21
(lp22
g5
ag6
ag7
ag8
ag9
ag10
ag11
ag12
ag13
ag14
aS'Nay'
p23
asS'bottom_text'
p24
(lp25
g23
asba(iMeme
Meme
p26
(dp27
g3
(lp28
S'Your'
p29
aS'adorable'
p30
aS'pet'
p31
aS'died'
p32
aS'yesterday'
p33
aS'?'
p34
asg15
S'Your adorable pet died yesterday? '
p35
sg17
S' Let me help you bury it'
p36
sg19
Vdownvoting-roman
p37
sg21
(lp38
g29
ag30
ag31
ag32
ag33
ag34
aS'Let'
p39
aS'me'
p40
aS'help'
p41
aS'you'
p42
aS'bury'
p43
aS'it'
p44
asg24
(lp45
g39
ag40
ag41
ag42
ag43
ag44
asba(iMeme
Meme
p46
(dp47
g3
(lp48
S'you'
p49
aS'made'
p50
ag13
aS'rage'
p51
aS'comic'
p52
aS'about'
p53
aS'how'
p54
aS'you'
p55
aS'always'
p56
aS'get'
p57
aS'downvoted'
p58
ag34
asg15
S'you made a rage comic about how you always get downvoted? '
p59
sg17
S" Wouldn't want to break tradition"
p60
sg19
Vdownvoting-roman
p61
sg21
(lp62
g49
ag50
ag13
ag51
ag52
ag53
ag54
ag55
ag56
ag57
ag58
ag34
aS'Would'
p63
aS"n't"
p64
aS'want'
p65
aS'to'
p66
aS'break'
p67
aS'tradition'
p68
asg24
(lp69
g63
ag64
ag65
ag66
ag67
ag68
asba(iMeme
Meme
p70
(dp71
g3
(lp72
S'I'
p73
aS'just'
p74
aS'got'
p75
aS'friendzoned'
p76
aS','
p77
aS'FML'
p78
aS'!'
p79
asg15
S'I just got friendzoned , FML! '
p80
sg17
S" Good, so you're used to rejection"
p81
sg19
Vdownvoting-roman
p82
sg21
(lp83
g73
ag74
ag75
ag76
ag77
ag78
ag79
aS'Good'
p84
ag77
aS'so'
p85
aS'you'
p86
aS"'re"
p87
aS'used'
p88
aS'to'
p89
aS'rejection'
p90
asg24
(lp91
g84
ag77
ag85
ag86
ag87
ag88
ag89
ag90
asba(iMeme
Meme
p92
(dp93
g3
(lp94
S'&'
p95
aS'#'
p96
aS'8220'
p97
aS';'
p98
aS'if'
p99
aS'this'
p100
aS'gets'
p101
aS'50'
p102
aS'upvotes'
p103
ag77
aS'my'
p104
aS'girlfriend'
p105
aS'will'
p106
aS'make'
p107
aS'me'
p108
ag13
aS'bowl'
p109
aS'of'
p110
aS'cheerios'
p111
ag95
ag96
aS'8221'
p112
ag98
asg15
S'&#8220;if this gets 50 upvotes, my girlfriend will make me a bowl of cheerios&#8221; '
p113
sg17
S" Here's 50 downvotes, and a hot cup of shut the fuck up"
p114
sg19
Vdownvoting-roman
p115
sg21
(lp116
g95
ag96
ag97
ag98
ag99
ag100
ag101
ag102
ag103
ag77
ag104
ag105
ag106
ag107
ag108
ag13
ag109
ag110
ag111
ag95
ag96
ag112
ag98
aS'Here'
p117
aS"'s"
p118
aS'50'
p119
aS'downvotes'
p120
ag77
aS'and'
p121
ag13
aS'hot'
p122
aS'cup'
p123
aS'of'
p124
aS'shut'
p125
aS'the'
p126
aS'fuck'
p127
aS'up'
p128
asg24
(lp129
g117
ag118
ag119
ag120
ag77
ag121
ag13
ag122
ag123
ag124
ag125
ag126
ag127
ag128
asba(iMeme
Meme
p130
(dp131
g3
(lp132
S'Your'
p133
aS'friend'
p134
aS'would'
p135
aS'be'
p136
aS'pissed'
p137
aS'if'
p138
aS'his'
p139
aS'meme'
p140
aS'got'
p141
aS'big'
p142
ag34
asg15
S'Your friend would be pissed if his meme got big? '
p143
sg17
S" Let's not ruin your friendship, then"
p144
sg19
Vdownvoting-roman
p145
sg21
(lp146
g133
ag134
ag135
ag136
ag137
ag138
ag139
ag140
ag141
ag142
ag34
aS'Let'
p147
aS"'s"
p148
aS'not'
p149
aS'ruin'
p150
aS'your'
p151
aS'friendship'
p152
ag77
aS'then'
p153
asg24
(lp154
g147
ag148
ag149
ag150
ag151
ag152
ag77
ag153
asba(iMeme
Meme
p155
(dp156
g3
(lp157
S'Nice'
p158
aS'opinion'
p159
asg15
S'Nice opinion '
p160
sg17
S" too bad It isn't the same as mine"
p161
sg19
Vdownvoting-roman
p162
sg21
(lp163
g158
ag159
aS'too'
p164
aS'bad'
p165
aS'It'
p166
aS'is'
p167
aS"n't"
p168
aS'the'
p169
aS'same'
p170
aS'as'
p171
aS'mine'
p172
asg24
(lp173
g164
ag165
ag166
ag167
ag168
ag169
ag170
ag171
ag172
asba(iMeme
Meme
p174
(dp175
g3
(lp176
S'This'
p177
aS'will'
p178
aS'probably'
p179
aS'be'
p180
aS'downvoted'
p181
asg15
S'This will probably be downvoted '
p182
sg17
S' You got that right'
p183
sg19
Vdownvoting-roman
p184
sg21
(lp185
g177
ag178
ag179
ag180
ag181
aS'You'
p186
aS'got'
p187
aS'that'
p188
aS'right'
p189
asg24
(lp190
g186
ag187
ag188
ag189
asba(iMeme
Meme
p191
(dp192
g3
(lp193
S'This'
p194
aS'video'
p195
aS'is'
p196
aS'not'
p197
aS'available'
p198
aS'in'
p199
aS'your'
p200
aS'country'
p201
asg15
S'This video is not available in your country '
p202
sg17
S" if i can't see it no one shall"
p203
sg19
Vdownvoting-roman
p204
sg21
(lp205
g194
ag195
ag196
ag197
ag198
ag199
ag200
ag201
aS'if'
p206
aS'i'
p207
aS'ca'
p208
aS"n't"
p209
aS'see'
p210
aS'it'
p211
aS'no'
p212
aS'one'
p213
aS'shall'
p214
asg24
(lp215
g206
ag207
ag208
ag209
ag210
ag211
ag212
ag213
ag214
asba(iMeme
Meme
p216
(dp217
g3
(lp218
S'It'
p219
aS"'s"
p220
aS'your'
p221
aS'wedding'
p222
aS'day'
p223
ag34
aS'How'
p224
aS'sweet'
p225
aS'.'
p226
asg15
S"It's your wedding day? How sweet. "
p227
sg17
S' Here, have something blue.'
p228
sg19
Vdownvoting-roman
p229
sg21
(lp230
g219
ag220
ag221
ag222
ag223
ag34
ag224
ag225
ag226
aS'Here'
p231
ag77
aS'have'
p232
aS'something'
p233
aS'blue'
p234
ag226
asg24
(lp235
g231
ag77
ag232
ag233
ag234
ag226
asba(iMeme
Meme
p236
(dp237
g3
(lp238
S'Showed'
p239
aS'my'
p240
aS'8'
p241
aS'year'
p242
aS'old'
p243
aS'cousin'
p244
aS'the'
p245
aS'rage'
p246
aS'maker'
p247
ag226
aS'His'
p248
aS'sense'
p249
aS'of'
p250
aS'humor'
p251
aS'is'
p252
aS'limited'
p253
ag226
asg15
S'Showed my 8 year old cousin the rage maker. His sense of humor is limited. '
p254
sg17
S' So is mine'
p255
sg19
Vdownvoting-roman
p256
sg21
(lp257
g239
ag240
ag241
ag242
ag243
ag244
ag245
ag246
ag247
ag226
ag248
ag249
ag250
ag251
ag252
ag253
ag226
aS'So'
p258
aS'is'
p259
aS'mine'
p260
asg24
(lp261
g258
ag259
ag260
asba(iMeme
Meme
p262
(dp263
g3
(lp264
g73
aS'know'
p265
ag73
aS"'m"
p266
aS'gon'
p267
aS'na'
p268
aS'get'
p269
aS'down'
p270
aS'voted'
p271
aS'for'
p272
aS'this'
p273
asg15
S"I know I'm gonna get down voted for this "
p274
sg17
S' Well at least you know something'
p275
sg19
Vdownvoting-roman
p276
sg21
(lp277
g73
ag265
ag73
ag266
ag267
ag268
ag269
ag270
ag271
ag272
ag273
aS'Well'
p278
aS'at'
p279
aS'least'
p280
aS'you'
p281
aS'know'
p282
aS'something'
p283
asg24
(lp284
g278
ag279
ag280
ag281
ag282
ag283
asba(iMeme
Meme
p285
(dp286
g3
(lp287
S'This'
p288
aS'is'
p289
aS'how'
p290
ag73
aS'feel'
p291
aS'about'
p292
aS'all'
p293
aS'these'
p294
aS'Megyn'
p295
aS'Kelly'
p296
aS'posts'
p297
asg15
S'This is how I feel about all these Megyn Kelly posts '
p298
sg17
S' essentially'
p299
sg19
Vdownvoting-roman
p300
sg21
(lp301
g288
ag289
ag290
ag73
ag291
ag292
ag293
ag294
ag295
ag296
ag297
aS'essentially'
p302
asg24
(lp303
g302
asba(iMeme
Meme
p304
(dp305
g3
(lp306
S'Google+'
p307
aS'and'
p308
aS'Facebook'
p309
aS'still'
p310
aS'lack'
p311
aS'one'
p312
aS'feature'
p313
ag226
asg15
S'Google+ and Facebook still lack one feature. '
p314
sg17
S''
p315
sg19
Vdownvoting-roman
p316
sg21
(lp317
g307
ag308
ag309
ag310
ag311
ag312
ag313
ag226
asg24
(lp318
sba(iMeme
Meme
p319
(dp320
g3
(lp321
g5
aS'comic'
p322
aS'about'
p323
aS'how'
p324
aS'all'
p325
aS'your'
p326
aS'other'
p327
aS'comics'
p328
aS'got'
p329
aS'downvoted'
p330
ag34
asg15
S'A comic about how all your other comics got downvoted? '
p331
sg17
S' I wonder what will happen to this one'
p332
sg19
Vdownvoting-roman
p333
sg21
(lp334
g5
ag322
ag323
ag324
ag325
ag326
ag327
ag328
ag329
ag330
ag34
ag73
aS'wonder'
p335
aS'what'
p336
aS'will'
p337
aS'happen'
p338
aS'to'
p339
aS'this'
p340
aS'one'
p341
asg24
(lp342
g73
ag335
ag336
ag337
ag338
ag339
ag340
ag341
asba(iMeme
Meme
p343
(dp344
g3
(lp345
S'Hit'
p346
aS'Random'
p347
aS'on'
p348
aS'wikipedia'
p349
aS'and'
p350
aS'make'
p351
ag13
aS'TIL'
p352
ag34
asg15
S'Hit Random on wikipedia and make a TIL? '
p353
sg17
S' TI downvote'
p354
sg19
Vdownvoting-roman
p355
sg21
(lp356
g346
ag347
ag348
ag349
ag350
ag351
ag13
ag352
ag34
aS'TI'
p357
aS'downvote'
p358
asg24
(lp359
g357
ag358
asba(iMeme
Meme
p360
(dp361
g3
(lp362
S'iama'
p363
aS'person'
p364
aS'with'
p365
ag13
aS'mental'
p366
aS'condition'
p367
asg15
S'iama person with a mental condition '
p368
sg17
S" and i have 'down syndrome'"
p369
sg19
Vdownvoting-roman
p370
sg21
(lp371
g363
ag364
ag365
ag13
ag366
ag367
aS'and'
p372
ag207
aS'have'
p373
aS"'down"
p374
aS'syndrome'
p375
aS"'"
p376
asg24
(lp377
g372
ag207
ag373
ag374
ag375
ag376
asba(iMeme
Meme
p378
(dp379
g3
(lp380
g73
aS'do'
p381
aS"n't"
p382
aS'care'
p383
aS'if'
p384
aS'you'
p385
aS'downvote'
p386
aS'me'
p387
asg15
S"I don't care if you downvote me "
p388
sg17
S' Good'
p389
sg19
Vdownvoting-roman
p390
sg21
(lp391
g73
ag381
ag382
ag383
ag384
ag385
ag386
ag387
aS'Good'
p392
asg24
(lp393
g392
asba(iMeme
Meme
p394
(dp395
g3
(lp396
S'This'
p397
aS'just'
p398
aS'happened'
p399
aS'to'
p400
aS'me'
p401
asg15
S'This just happened to me '
p402
sg17
S' So did this.'
p403
sg19
Vdownvoting-roman
p404
sg21
(lp405
g397
ag398
ag399
ag400
ag401
aS'So'
p406
aS'did'
p407
aS'this'
p408
ag226
asg24
(lp409
g406
ag407
ag408
ag226
asba(iMeme
Meme
p410
(dp411
g3
(lp412
S'Maybe'
p413
aS'he'
p414
aS"'ll"
p415
aS'see'
p416
aS'this'
p417
asg15
S"Maybe he'll see this "
p418
sg17
S' maybe not.'
p419
sg19
Vdownvoting-roman
p420
sg21
(lp421
g413
ag414
ag415
ag416
ag417
aS'maybe'
p422
aS'not'
p423
ag226
asg24
(lp424
g422
ag423
ag226
asba(iMeme
Meme
p425
(dp426
g3
(lp427
S'oh'
p428
aS'you'
p429
aS'found'
p430
aS'this'
p431
aS'on'
p432
aS'your'
p433
aS'friend'
p434
aS"'s"
p435
aS'facebook'
p436
ag34
asg15
S"oh you found this on your friend's facebook? "
p437
sg17
S" that's funny, I found the downvote button right here"
p438
sg19
Vdownvoting-roman
p439
sg21
(lp440
g428
ag429
ag430
ag431
ag432
ag433
ag434
ag435
ag436
ag34
aS'that'
p441
aS"'s"
p442
aS'funny'
p443
ag77
ag73
aS'found'
p444
aS'the'
p445
aS'downvote'
p446
aS'button'
p447
aS'right'
p448
aS'here'
p449
asg24
(lp450
g441
ag442
ag443
ag77
ag73
ag444
ag445
ag446
ag447
ag448
ag449
asba(iMeme
Meme
p451
(dp452
g3
(lp453
S'Friend'
p454
aS'Zone'
p455
aS'Phil'
p456
asg15
S'Friend Zone Phil '
p457
sg17
S" Then you're already used to rejection"
p458
sg19
Vdownvoting-roman
p459
sg21
(lp460
g454
ag455
ag456
aS'Then'
p461
aS'you'
p462
aS"'re"
p463
aS'already'
p464
aS'used'
p465
aS'to'
p466
aS'rejection'
p467
asg24
(lp468
g461
ag462
ag463
ag464
ag465
ag466
ag467
asba(iMeme
Meme
p469
(dp470
g3
(lp471
S'Today'
p472
aS"'s"
p473
aS'my'
p474
aS'Reddit'
p475
aS'birthday'
p476
ag79
asg15
S"Today's my Reddit birthday! "
p477
sg17
S' Enjoy your present'
p478
sg19
Vdownvoting-roman
p479
sg21
(lp480
g472
ag473
ag474
ag475
ag476
ag79
aS'Enjoy'
p481
aS'your'
p482
aS'present'
p483
asg24
(lp484
g481
ag482
ag483
asba(iMeme
Meme
p485
(dp486
g3
(lp487
S'Edit'
p488
aS':'
p489
ag73
aS'did'
p490
aS"n't"
p491
aS'expect'
p492
aS'so'
p493
aS'many'
p494
aS'upvotes'
p495
ag79
asg15
S"Edit: I didn't expect so many upvotes! "
p496
sg17
S' Let me help you meet your expectations'
p497
sg19
Vdownvoting-roman
p498
sg21
(lp499
g488
ag489
ag73
ag490
ag491
ag492
ag493
ag494
ag495
ag79
aS'Let'
p500
aS'me'
p501
aS'help'
p502
aS'you'
p503
aS'meet'
p504
aS'your'
p505
aS'expectations'
p506
asg24
(lp507
g500
ag501
ag502
ag503
ag504
ag505
ag506
asba(iMeme
Meme
p508
(dp509
g3
(lp510
S'This'
p511
aS'is'
p512
aS'why'
p513
ag73
aS'ca'
p514
aS"n't"
p515
aS'make'
p516
aS'it'
p517
aS'to'
p518
aS'the'
p519
aS'front'
p520
aS'page'
p521
asg15
S"This is why I can't make it to the front page "
p522
sg17
S' No, THIS IS WHY'
p523
sg19
Vdownvoting-roman
p524
sg21
(lp525
g511
ag512
ag513
ag73
ag514
ag515
ag516
ag517
ag518
ag519
ag520
ag521
aS'No'
p526
ag77
aS'THIS'
p527
aS'IS'
p528
aS'WHY'
p529
asg24
(lp530
g526
ag77
ag527
ag528
ag529
asba(iMeme
Meme
p531
(dp532
g3
(lp533
S'You'
p534
aS'lost'
p535
aS'how'
p536
aS'much'
p537
aS'weight'
p538
ag34
ag34
asg15
S'You lost how much weight?? '
p539
sg17
S' not enough'
p540
sg19
Vdownvoting-roman
p541
sg21
(lp542
g534
ag535
ag536
ag537
ag538
ag34
ag34
aS'not'
p543
aS'enough'
p544
asg24
(lp545
g543
ag544
asba(iMeme
Meme
p546
(dp547
g3
(lp548
S'hope'
p549
aS'my'
p550
aS'redditor'
p551
aS'girlfriend'
p552
aS'does'
p553
aS"n't"
p554
aS'see'
p555
aS'this'
p556
asg15
S"hope my redditor girlfriend doesn't see this "
p557
sg17
S" She won't."
p558
sg19
Vdownvoting-roman
p559
sg21
(lp560
g549
ag550
ag551
ag552
ag553
ag554
ag555
ag556
aS'She'
p561
aS'wo'
p562
aS"n't"
p563
ag226
asg24
(lp564
g561
ag562
ag563
ag226
asba(iMeme
Meme
p565
(dp566
g3
(lp567
S'Introducing'
p568
aS'['
p569
aS'new'
p570
aS'meme'
p571
aS']'
p572
asg15
S'Introducing [new meme] '
p573
sg17
S' let me show you a classic'
p574
sg19
Vdownvoting-roman
p575
sg21
(lp576
g568
ag569
ag570
ag571
ag572
aS'let'
p577
aS'me'
p578
aS'show'
p579
aS'you'
p580
ag13
aS'classic'
p581
asg24
(lp582
g577
ag578
ag579
ag580
ag13
ag581
asba(iMeme
Meme
p583
(dp584
g3
(lp585
S'18'
p586
aS'panel'
p587
aS'rage'
p588
aS'comic'
p589
asg15
S'18 panel rage comic '
p590
sg17
S' GTFO'
p591
sg19
Vdownvoting-roman
p592
sg21
(lp593
g586
ag587
ag588
ag589
aS'GTFO'
p594
asg24
(lp595
g594
asba(iMeme
Meme
p596
(dp597
g3
(lp598
S"'I"
p599
aS'ca'
p600
aS"n't"
p601
aS'be'
p602
aS'the'
p603
aS'only'
p604
aS'person'
p605
aS'who'
p606
aS'...'
p607
asg15
S"'I can't be the only person who... "
p608
sg17
S' Sure you can'
p609
sg19
Vdownvoting-roman
p610
sg21
(lp611
g599
ag600
ag601
ag602
ag603
ag604
ag605
ag606
ag607
aS'Sure'
p612
aS'you'
p613
aS'can'
p614
asg24
(lp615
g612
ag613
ag614
asba(iMeme
Meme
p616
(dp617
g3
(lp618
g73
aS'signed'
p619
aS'in'
p620
aS'just'
p621
aS'to'
p622
aS'upvote'
p623
aS'this'
p624
asg15
S'I signed in just to upvote this '
p625
sg17
S" that's funny, I signed in just to downvote you"
p626
sg19
Vdownvoting-roman
p627
sg21
(lp628
g73
ag619
ag620
ag621
ag622
ag623
ag624
aS'that'
p629
aS"'s"
p630
aS'funny'
p631
ag77
ag73
aS'signed'
p632
aS'in'
p633
aS'just'
p634
aS'to'
p635
aS'downvote'
p636
aS'you'
p637
asg24
(lp638
g629
ag630
ag631
ag77
ag73
ag632
ag633
ag634
ag635
ag636
ag637
asba(iMeme
Meme
p639
(dp640
g3
(lp641
S'do'
p642
aS"n't"
p643
aS'downvote'
p644
aS'opinions'
p645
aS'just'
p646
aS'because'
p647
aS'you'
p648
aS'disagree'
p649
aS'with'
p650
aS'them'
p651
asg15
S"don't downvote opinions just because you disagree with them "
p652
sg17
S' i disagree...'
p653
sg19
Vdownvoting-roman
p654
sg21
(lp655
g642
ag643
ag644
ag645
ag646
ag647
ag648
ag649
ag650
ag651
ag207
aS'disagree'
p656
aS'...'
p657
asg24
(lp658
g207
ag656
ag657
asba(iMeme
Meme
p659
(dp660
g3
(lp661
S'How'
p662
aS'do'
p663
aS'you'
p664
aS'get'
p665
aS'so'
p666
aS'much'
p667
aS'Karma'
p668
ag34
ag73
aS'only'
p669
aS'have'
p670
aS'60'
p671
ag79
asg15
S'How do you get so much Karma? I only have 60! '
p672
sg17
S' 59'
p673
sg19
Vdownvoting-roman
p674
sg21
(lp675
g662
ag663
ag664
ag665
ag666
ag667
ag668
ag34
ag73
ag669
ag670
ag671
ag79
aS'59'
p676
asg24
(lp677
g676
asba(iMeme
Meme
p678
(dp679
g3
(lp680
S'My'
p681
aS'first'
p682
aS'post'
p683
ag77
aS'be'
p684
aS'gentle'
p685
asg15
S'My first post, be gentle '
p686
sg17
S" It's ok, I'll only use one finger"
p687
sg19
Vdownvoting-roman
p688
sg21
(lp689
g681
ag682
ag683
ag77
ag684
ag685
aS'It'
p690
aS"'s"
p691
aS'ok'
p692
ag77
ag73
aS"'ll"
p693
aS'only'
p694
aS'use'
p695
aS'one'
p696
aS'finger'
p697
asg24
(lp698
g690
ag691
ag692
ag77
ag73
ag693
ag694
ag695
ag696
ag697
asba(iMeme
Meme
p699
(dp700
g3
(lp701
S'looking'
p702
aS'for'
p703
aS'someone'
p704
aS'to'
p705
aS'downvote'
p706
asg15
S'looking for someone to downvote '
p707
sg17
S' why not zoidberg'
p708
sg19
Vdownvoting-roman
p709
sg21
(lp710
g702
ag703
ag704
ag705
ag706
aS'why'
p711
aS'not'
p712
aS'zoidberg'
p713
asg24
(lp714
g711
ag712
ag713
asba(iMeme
Meme
p715
(dp716
g3
(lp717
S'You'
p718
aS'saw'
p719
aS'something'
p720
aS'IRL'
p721
aS'that'
p722
aS'looked'
p723
aS'like'
p724
aS'an'
p725
aS'upvote'
p726
aS'arrow'
p727
ag34
asg15
S'You saw something IRL that looked like an upvote arrow? '
p728
sg17
S" Here's something on the internet that looks like a downvote arrow."
p729
sg19
Vdownvoting-roman
p730
sg21
(lp731
g718
ag719
ag720
ag721
ag722
ag723
ag724
ag725
ag726
ag727
ag34
aS'Here'
p732
aS"'s"
p733
aS'something'
p734
aS'on'
p735
aS'the'
p736
aS'internet'
p737
aS'that'
p738
aS'looks'
p739
aS'like'
p740
ag13
aS'downvote'
p741
aS'arrow'
p742
ag226
asg24
(lp743
g732
ag733
ag734
ag735
ag736
ag737
ag738
ag739
ag740
ag13
ag741
ag742
ag226
asba(iMeme
Meme
p744
(dp745
g3
(lp746
S'Your'
p747
aS'life'
p748
aS'story'
p749
aS'rage'
p750
aS'comic'
p751
aS'is'
p752
aS'very'
p753
aS'touching'
p754
asg15
S'Your life story rage comic is very touching '
p755
sg17
S" but i don't give a shit"
p756
sg19
Vdownvoting-roman
p757
sg21
(lp758
g747
ag748
ag749
ag750
ag751
ag752
ag753
ag754
aS'but'
p759
ag207
aS'do'
p760
aS"n't"
p761
aS'give'
p762
ag13
aS'shit'
p763
asg24
(lp764
g759
ag207
ag760
ag761
ag762
ag13
ag763
asba(iMeme
Meme
p765
(dp766
g3
(lp767
S'Haters'
p768
aS'gon'
p769
aS'na'
p770
aS'hate'
p771
asg15
S'Haters gonna hate '
p772
sg17
S' Good point'
p773
sg19
Vdownvoting-roman
p774
sg21
(lp775
g768
ag769
ag770
ag771
aS'Good'
p776
aS'point'
p777
asg24
(lp778
g776
ag777
asba(iMeme
Meme
p779
(dp780
g3
(lp781
S'Just'
p782
aS'learned'
p783
aS'how'
p784
aS'to'
p785
aS'say'
p786
aS'down-vote'
p787
aS'in'
p788
aS'Russian'
p789
asg15
S'Just learned how to say down-vote in Russian '
p790
sg17
S' Jakucha'
p791
sg19
Vdownvoting-roman
p792
sg21
(lp793
g782
ag783
ag784
ag785
ag786
ag787
ag788
ag789
aS'Jakucha'
p794
asg24
(lp795
g794
asba(iMeme
Meme
p796
(dp797
g3
(lp798
S'Your'
p799
aS'pet'
p800
aS'is'
p801
aS"n't"
p802
aS'giving'
p803
ag13
aS'fuck'
p804
ag34
asg15
S"Your pet isn't giving a fuck? "
p805
sg17
S' Neither am I'
p806
sg19
Vdownvoting-roman
p807
sg21
(lp808
g799
ag800
ag801
ag802
ag803
ag13
ag804
ag34
aS'Neither'
p809
aS'am'
p810
ag73
asg24
(lp811
g809
ag810
ag73
asba(iMeme
Meme
p812
(dp813
g3
(lp814
g73
aS"'m"
p815
aS'sure'
p816
ag73
aS"'ll"
p817
aS'get'
p818
aS'downvoted'
p819
aS'for'
p820
aS'this'
p821
aS'...'
p822
asg15
S"I'm sure I'll get downvoted for this... "
p823
sg17
S' Well, if you insist'
p824
sg19
Vdownvoting-roman
p825
sg21
(lp826
g73
ag815
ag816
ag73
ag817
ag818
ag819
ag820
ag821
ag822
aS'Well'
p827
ag77
aS'if'
p828
aS'you'
p829
aS'insist'
p830
asg24
(lp831
g827
ag77
ag828
ag829
ag830
asba(iMeme
Meme
p832
(dp833
g3
(lp834
S'april'
p835
ag77
aS'will'
p836
aS'You'
p837
aS'marry'
p838
aS'me'
p839
ag34
asg15
S'april, will You marry me? '
p840
sg17
S' nope'
p841
sg19
Vdownvoting-roman
p842
sg21
(lp843
g835
ag77
ag836
ag837
ag838
ag839
ag34
aS'nope'
p844
asg24
(lp845
g844
asba(iMeme
Meme
p846
(dp847
g3
(lp848
S'jesus'
p849
aS'what'
p850
ag34
asg15
S'jesus what? '
p851
sg17
S' I crucified the real one'
p852
sg19
Vdownvoting-roman
p853
sg21
(lp854
g849
ag850
ag34
ag73
aS'crucified'
p855
aS'the'
p856
aS'real'
p857
aS'one'
p858
asg24
(lp859
g73
ag855
ag856
ag857
ag858
asba(iMeme
Meme
p860
(dp861
g3
(lp862
S'haters'
p863
aS'gon'
p864
aS'na'
p865
aS'hate'
p866
asg15
S'haters gonna hate '
p867
sg17
S' sure do.'
p868
sg19
Vdownvoting-roman
p869
sg21
(lp870
g863
ag864
ag865
ag866
aS'sure'
p871
aS'do'
p872
ag226
asg24
(lp873
g871
ag872
ag226
asba(iMeme
Meme
p874
(dp875
g3
(lp876
S'Cat'
p877
aS'pictures'
p878
aS'for'
p879
aS'your'
p880
aS'reddit'
p881
aS'birthday'
p882
ag34
asg15
S'Cat pictures for your reddit birthday? '
p883
sg17
S" I'll help you celebrate"
p884
sg19
Vdownvoting-roman
p885
sg21
(lp886
g877
ag878
ag879
ag880
ag881
ag882
ag34
ag73
aS"'ll"
p887
aS'help'
p888
aS'you'
p889
aS'celebrate'
p890
asg24
(lp891
g73
ag887
ag888
ag889
ag890
asba(iMeme
Meme
p892
(dp893
g3
(lp894
S'Came'
p895
aS'here'
p896
aS'to'
p897
aS'say'
p898
aS'this'
p899
asg15
S'Came here to say this '
p900
sg17
S' Guess what I came here for'
p901
sg19
Vdownvoting-roman
p902
sg21
(lp903
g895
ag896
ag897
ag898
ag899
aS'Guess'
p904
aS'what'
p905
ag73
aS'came'
p906
aS'here'
p907
aS'for'
p908
asg24
(lp909
g904
ag905
ag73
ag906
ag907
ag908
asba(iMeme
Meme
p910
(dp911
g3
(lp912
S'new'
p913
aS'meme'
p914
aS'begins'
p915
ag13
aS'front'
p916
aS'page'
p917
aS'takeover'
p918
asg15
S'new meme begins a front page takeover '
p919
sg17
S' not on my watch'
p920
sg19
Vdownvoting-roman
p921
sg21
(lp922
g913
ag914
ag915
ag13
ag916
ag917
ag918
aS'not'
p923
aS'on'
p924
aS'my'
p925
aS'watch'
p926
asg24
(lp927
g923
ag924
ag925
ag926
asba(iMeme
Meme
p928
(dp929
g3
(lp930
g73
aS"'m"
p931
aS'sure'
p932
aS'this'
p933
aS'has'
p934
aS'been'
p935
aS'posted'
p936
aS'before'
p937
asg15
S"I'm sure this has been posted before "
p938
sg17
S" You're probably right"
p939
sg19
Vdownvoting-roman
p940
sg21
(lp941
g73
ag931
ag932
ag933
ag934
ag935
ag936
ag937
aS'You'
p942
aS"'re"
p943
aS'probably'
p944
aS'right'
p945
asg24
(lp946
g942
ag943
ag944
ag945
asba(iMeme
Meme
p947
(dp948
g3
(lp949
g569
aS'Edit'
p950
ag572
aS'Thanks'
p951
aS'for'
p952
aS'the'
p953
aS'upvotes'
p954
aS'guys'
p955
asg15
S'[Edit] Thanks for the upvotes guys '
p956
sg17
S' That can be fixed'
p957
sg19
Vdownvoting-roman
p958
sg21
(lp959
g569
ag950
ag572
ag951
ag952
ag953
ag954
ag955
aS'That'
p960
aS'can'
p961
aS'be'
p962
aS'fixed'
p963
asg24
(lp964
g960
ag961
ag962
ag963
asba(iMeme
Meme
p965
(dp966
g3
(lp967
S'For'
p968
aS'every'
p969
aS'100'
p970
aS'upvotes'
p971
aS'you'
p972
aS"'ll"
p973
aS'donate'
p974
aS'10'
p975
aS'$'
p976
aS'to'
p977
ag13
aS'soup'
p978
aS'kitchen'
p979
ag34
asg15
S"For every 100 upvotes you'll donate 10$ to a soup kitchen? "
p980
sg17
S' Looks like they will starve'
p981
sg19
Vdownvoting-roman
p982
sg21
(lp983
g968
ag969
ag970
ag971
ag972
ag973
ag974
ag975
ag976
ag977
ag13
ag978
ag979
ag34
aS'Looks'
p984
aS'like'
p985
aS'they'
p986
aS'will'
p987
aS'starve'
p988
asg24
(lp989
g984
ag985
ag986
ag987
ag988
asba(iMeme
Meme
p990
(dp991
g3
(lp992
S'TIL'
p993
asg15
S'TIL '
p994
sg17
S' Already knew that'
p995
sg19
Vdownvoting-roman
p996
sg21
(lp997
g993
aS'Already'
p998
aS'knew'
p999
aS'that'
p1000
asg24
(lp1001
g998
ag999
ag1000
asba(iMeme
Meme
p1002
(dp1003
g3
(lp1004
S'Not'
p1005
aS'sure'
p1006
aS'why'
p1007
aS'you'
p1008
aS"'re"
p1009
aS'being'
p1010
aS'downvoted'
p1011
aS'for'
p1012
aS'this'
p1013
asg15
S"Not sure why you're being downvoted for this "
p1014
sg17
S' I am.'
p1015
sg19
Vdownvoting-roman
p1016
sg21
(lp1017
g1005
ag1006
ag1007
ag1008
ag1009
ag1010
ag1011
ag1012
ag1013
ag73
aS'am'
p1018
ag226
asg24
(lp1019
g73
ag1018
ag226
asba(iMeme
Meme
p1020
(dp1021
g3
(lp1022
S'This'
p1023
aS'is'
p1024
aS'my'
p1025
aS'dog'
p1026
ag77
aS'he'
p1027
aS'just'
p1028
aS'passed'
p1029
aS'away'
p1030
aS'today'
p1031
asg15
S'This is my dog, he just passed away today '
p1032
sg17
S" Today Just isn't your day"
p1033
sg19
Vdownvoting-roman
p1034
sg21
(lp1035
g1023
ag1024
ag1025
ag1026
ag77
ag1027
ag1028
ag1029
ag1030
ag1031
aS'Today'
p1036
aS'Just'
p1037
aS'is'
p1038
aS"n't"
p1039
aS'your'
p1040
aS'day'
p1041
asg24
(lp1042
g1036
ag1037
ag1038
ag1039
ag1040
ag1041
asba(iMeme
Meme
p1043
(dp1044
g3
(lp1045
S'All'
p1046
aS'my'
p1047
aS'posts'
p1048
aS'get'
p1049
aS'downvoted'
p1050
asg15
S'All my posts get downvoted '
p1051
sg17
S" Wouldn't want to break a streak"
p1052
sg19
Vdownvoting-roman
p1053
sg21
(lp1054
g1046
ag1047
ag1048
ag1049
ag1050
aS'Would'
p1055
aS"n't"
p1056
aS'want'
p1057
aS'to'
p1058
aS'break'
p1059
ag13
aS'streak'
p1060
asg24
(lp1061
g1055
ag1056
ag1057
ag1058
ag1059
ag13
ag1060
asba(iMeme
Meme
p1062
(dp1063
g3
(lp1064
S'My'
p1065
aS'friend'
p1066
aS'made'
p1067
aS'this'
p1068
ag77
aS'she'
p1069
aS"does't"
p1070
aS'think'
p1071
aS'its'
p1072
aS'very'
p1073
aS'good'
p1074
aS'...'
p1075
asg15
S"My friend made this, she does't think its very good... "
p1076
sg17
S' ITS NOT.'
p1077
sg19
Vdownvoting-roman
p1078
sg21
(lp1079
g1065
ag1066
ag1067
ag1068
ag77
ag1069
ag1070
ag1071
ag1072
ag1073
ag1074
ag1075
aS'ITS'
p1080
aS'NOT'
p1081
ag226
asg24
(lp1082
g1080
ag1081
ag226
asba(iMeme
Meme
p1083
(dp1084
g3
(lp1085
S'Guess'
p1086
aS'who'
p1087
ag73
aS'ran'
p1088
aS'into'
p1089
asg15
S'Guess who I ran into '
p1090
sg17
S' My downvote'
p1091
sg19
Vdownvoting-roman
p1092
sg21
(lp1093
g1086
ag1087
ag73
ag1088
ag1089
aS'My'
p1094
aS'downvote'
p1095
asg24
(lp1096
g1094
ag1095
asba(iMeme
Meme
p1097
(dp1098
g3
(lp1099
S'Omg'
p1100
ag73
aS'cant'
p1101
aS'believe'
p1102
aS'how'
p1103
aS'many'
p1104
aS'upvotes'
p1105
ag73
aS'got'
p1106
ag79
ag73
aS"'m"
p1107
aS'so'
p1108
aS'happy'
p1109
ag77
ag73
aS'cant'
p1110
aS'even'
p1111
aS'think'
p1112
aS'straight'
p1113
ag79
asg15
S"Omg I cant believe how many upvotes I got! I'm so happy, I cant even think straight! "
p1114
sg17
S' Let me help you collect your thoughts.'
p1115
sg19
Vdownvoting-roman
p1116
sg21
(lp1117
g1100
ag73
ag1101
ag1102
ag1103
ag1104
ag1105
ag73
ag1106
ag79
ag73
ag1107
ag1108
ag1109
ag77
ag73
ag1110
ag1111
ag1112
ag1113
ag79
aS'Let'
p1118
aS'me'
p1119
aS'help'
p1120
aS'you'
p1121
aS'collect'
p1122
aS'your'
p1123
aS'thoughts'
p1124
ag226
asg24
(lp1125
g1118
ag1119
ag1120
ag1121
ag1122
ag1123
ag1124
ag226
asba(iMeme
Meme
p1126
(dp1127
g3
(lp1128
S'OMG'
p1129
aS'look'
p1130
aS'what'
p1131
aS'my'
p1132
aS'kid'
p1133
aS'did'
p1134
ag226
aS'he'
p1135
aS"'s"
p1136
aS'so'
p1137
aS'amazing'
p1138
asg15
S"OMG look what my kid did.  he's so amazing "
p1139
sg17
S' your child is ordinary.'
p1140
sg19
Vdownvoting-roman
p1141
sg21
(lp1142
g1129
ag1130
ag1131
ag1132
ag1133
ag1134
ag226
ag1135
ag1136
ag1137
ag1138
aS'your'
p1143
aS'child'
p1144
aS'is'
p1145
aS'ordinary'
p1146
ag226
asg24
(lp1147
g1143
ag1144
ag1145
ag1146
ag226
asba(iMeme
Meme
p1148
(dp1149
g3
(lp1150
S'you'
p1151
aS'win'
p1152
aS'the'
p1153
aS'bet'
p1154
aS'if'
p1155
aS'this'
p1156
aS'gets'
p1157
aS'to'
p1158
aS'the'
p1159
aS'front'
p1160
aS'page'
p1161
ag34
asg15
S'you win the bet if this gets to the front page? '
p1162
sg17
S' nope'
p1163
sg19
Vdownvoting-roman
p1164
sg21
(lp1165
g1151
ag1152
ag1153
ag1154
ag1155
ag1156
ag1157
ag1158
ag1159
ag1160
ag1161
ag34
aS'nope'
p1166
asg24
(lp1167
g1166
asba(iMeme
Meme
p1168
(dp1169
g3
(lp1170
S'Hey'
p1171
aS'Reddit'
p1172
ag77
ag73
aS'heard'
p1173
aS'you'
p1174
aS'like'
p1175
aS'...'
p1176
asg15
S'Hey Reddit, I heard you like... '
p1177
sg17
S' You were misinformed'
p1178
sg19
Vdownvoting-roman
p1179
sg21
(lp1180
g1171
ag1172
ag77
ag73
ag1173
ag1174
ag1175
ag1176
aS'You'
p1181
aS'were'
p1182
aS'misinformed'
p1183
asg24
(lp1184
g1181
ag1182
ag1183
asba(iMeme
Meme
p1185
(dp1186
g3
(lp1187
S'the'
p1188
aS'narwhal'
p1189
aS'bacons'
p1190
aS'at'
p1191
aS'midnight'
p1192
aS"''"
p1193
ag77
aS'huh'
p1194
ag34
asg15
S'the narwhal bacons at midnight", huh? '
p1195
sg17
S' the downvote bacons now'
p1196
sg19
Vdownvoting-roman
p1197
sg21
(lp1198
g1188
ag1189
ag1190
ag1191
ag1192
ag1193
ag77
ag1194
ag34
aS'the'
p1199
aS'downvote'
p1200
aS'bacons'
p1201
aS'now'
p1202
asg24
(lp1203
g1199
ag1200
ag1201
ag1202
asba(iMeme
Meme
p1204
(dp1205
g3
(lp1206
S'Comment'
p1207
aS'reads'
p1208
ag77
aS'``'
p1209
ag73
aS'came'
p1210
aS'here'
p1211
aS'to'
p1212
aS'say'
p1213
aS'that'
p1214
asg15
S'Comment reads, "I came here to say that '
p1215
sg17
S' I came here to destroy you'
p1216
sg19
Vdownvoting-roman
p1217
sg21
(lp1218
g1207
ag1208
ag77
ag1209
ag73
ag1210
ag1211
ag1212
ag1213
ag1214
ag73
aS'came'
p1219
aS'here'
p1220
aS'to'
p1221
aS'destroy'
p1222
aS'you'
p1223
asg24
(lp1224
g73
ag1219
ag1220
ag1221
ag1222
ag1223
asba(iMeme
Meme
p1225
(dp1226
g3
(lp1227
S'Forever'
p1228
aS'alone'
p1229
ag34
asg15
S'Forever alone? '
p1230
sg17
S' You can be alone at the bottom of the comments'
p1231
sg19
Vdownvoting-roman
p1232
sg21
(lp1233
g1228
ag1229
ag34
aS'You'
p1234
aS'can'
p1235
aS'be'
p1236
aS'alone'
p1237
aS'at'
p1238
aS'the'
p1239
aS'bottom'
p1240
aS'of'
p1241
aS'the'
p1242
aS'comments'
p1243
asg24
(lp1244
g1234
ag1235
ag1236
ag1237
ag1238
ag1239
ag1240
ag1241
ag1242
ag1243
asba(iMeme
Meme
p1245
(dp1246
g3
(lp1247
g73
aS'downvote'
p1248
aS'everything'
p1249
ag79
aS'LOL'
p1250
asg15
S'I downvote everything! LOL '
p1251
sg17
S' what a coincidence...'
p1252
sg19
Vdownvoting-roman
p1253
sg21
(lp1254
g73
ag1248
ag1249
ag79
ag1250
aS'what'
p1255
ag13
aS'coincidence'
p1256
aS'...'
p1257
asg24
(lp1258
g1255
ag13
ag1256
ag1257
asba(iMeme
Meme
p1259
(dp1260
g3
(lp1261
S'Birthday'
p1262
aS'card'
p1263
aS'from'
p1264
aS'my'
p1265
aS'brother'
p1266
aS'who'
p1267
aS'has'
p1268
aS'down'
p1269
aS'syndrome'
p1270
asg15
S'Birthday card from my brother who has down syndrome '
p1271
sg17
S' He\'s not the only one with "down" syndrome.'
p1272
sg19
Vdownvoting-roman
p1273
sg21
(lp1274
g1262
ag1263
ag1264
ag1265
ag1266
ag1267
ag1268
ag1269
ag1270
aS'He'
p1275
aS"'s"
p1276
aS'not'
p1277
aS'the'
p1278
aS'only'
p1279
aS'one'
p1280
aS'with'
p1281
aS'``'
p1282
aS'down'
p1283
aS"''"
p1284
aS'syndrome'
p1285
ag226
asg24
(lp1286
g1275
ag1276
ag1277
ag1278
ag1279
ag1280
ag1281
ag1282
ag1283
ag1284
ag1285
ag226
asba(iMeme
Meme
p1287
(dp1288
g3
(lp1289
S'Do'
p1290
aS"n't"
p1291
aS'let'
p1292
aS'this'
p1293
aS'get'
p1294
aS'to'
p1295
aS'the'
p1296
aS'front'
p1297
aS'page'
p1298
ag77
aS'my'
p1299
aS'girlfriend'
p1300
aS'reads'
p1301
aS'reddit'
p1302
asg15
S"Don't let this get to the front page, my girlfriend reads reddit "
p1303
sg17
S' no worries'
p1304
sg19
Vdownvoting-roman
p1305
sg21
(lp1306
g1290
ag1291
ag1292
ag1293
ag1294
ag1295
ag1296
ag1297
ag1298
ag77
ag1299
ag1300
ag1301
ag1302
aS'no'
p1307
aS'worries'
p1308
asg24
(lp1309
g1307
ag1308
asba(iMeme
Meme
p1310
(dp1311
g3
(lp1312
S'Look'
p1313
aS'who'
p1314
ag73
aS'ran'
p1315
aS'into'
p1316
aS'yesterday'
p1317
ag79
asg15
S'Look who I ran into yesterday! '
p1318
sg17
S' Look who I  '
p1319
sg19
Vdownvoting-roman
p1320
sg21
(lp1321
g1313
ag1314
ag73
ag1315
ag1316
ag1317
ag79
aS'Look'
p1322
aS'who'
p1323
ag73
asg24
(lp1324
g1322
ag1323
ag73
asba(iMeme
Meme
p1325
(dp1326
g3
(lp1327
S'voting'
p1328
aS'implies'
p1329
ag13
aS'democracy'
p1330
asg15
S'voting implies a democracy '
p1331
sg17
S' my word is law, peasant'
p1332
sg19
Vdownvoting-roman
p1333
sg21
(lp1334
g1328
ag1329
ag13
ag1330
aS'my'
p1335
aS'word'
p1336
aS'is'
p1337
aS'law'
p1338
ag77
aS'peasant'
p1339
asg24
(lp1340
g1335
ag1336
ag1337
ag1338
ag77
ag1339
asba(iMeme
Meme
p1341
(dp1342
g3
(lp1343
S'your'
p1344
aS'response'
p1345
aS'was'
p1346
aS'original'
p1347
ag77
aS'funny'
p1348
ag77
aS'and'
p1349
aS'provocative'
p1350
asg15
S'your response was original, funny, and provocative '
p1351
sg17
S' until you said "like a boss'
p1352
sg19
Vdownvoting-roman
p1353
sg21
(lp1354
g1344
ag1345
ag1346
ag1347
ag77
ag1348
ag77
ag1349
ag1350
aS'until'
p1355
aS'you'
p1356
aS'said'
p1357
aS'``'
p1358
aS'like'
p1359
ag13
aS'boss'
p1360
asg24
(lp1361
g1355
ag1356
ag1357
ag1358
ag1359
ag13
ag1360
asba(iMeme
Meme
p1362
(dp1363
g3
(lp1364
S'Edit'
p1365
ag489
aS'Wow'
p1366
ag77
ag73
aS"'m"
p1367
aS'amazed'
p1368
aS'at'
p1369
aS'all'
p1370
aS'the'
p1371
aS'positive'
p1372
aS'responses'
p1373
aS'this'
p1374
aS'is'
p1375
aS'getting'
p1376
asg15
S"Edit: Wow, I'm amazed at all the positive responses this is getting "
p1377
sg17
S' Well here is something to bring you back to earth'
p1378
sg19
Vdownvoting-roman
p1379
sg21
(lp1380
g1365
ag489
ag1366
ag77
ag73
ag1367
ag1368
ag1369
ag1370
ag1371
ag1372
ag1373
ag1374
ag1375
ag1376
aS'Well'
p1381
aS'here'
p1382
aS'is'
p1383
aS'something'
p1384
aS'to'
p1385
aS'bring'
p1386
aS'you'
p1387
aS'back'
p1388
aS'to'
p1389
aS'earth'
p1390
asg24
(lp1391
g1381
ag1382
ag1383
ag1384
ag1385
ag1386
ag1387
ag1388
ag1389
ag1390
asba(iMeme
Meme
p1392
(dp1393
g3
(lp1394
S'should'
p1395
aS'have'
p1396
aS'been'
p1397
aS'studying'
p1398
aS'for'
p1399
aS'test'
p1400
ag77
aS'but'
p1401
aS'made'
p1402
aS'this'
p1403
aS'comic'
p1404
aS'instead'
p1405
ag226
asg15
S'should have been studying for test, but made this comic instead. '
p1406
sg17
S' and  you fail both'
p1407
sg19
Vdownvoting-roman
p1408
sg21
(lp1409
g1395
ag1396
ag1397
ag1398
ag1399
ag1400
ag77
ag1401
ag1402
ag1403
ag1404
ag1405
ag226
aS'and'
p1410
aS'you'
p1411
aS'fail'
p1412
aS'both'
p1413
asg24
(lp1414
g1410
ag1411
ag1412
ag1413
asba(iMeme
Meme
p1415
(dp1416
g3
(lp1417
S'Your'
p1418
aS'adorable'
p1419
aS'pet'
p1420
aS'you'
p1421
aS"'ve"
p1422
aS'had'
p1423
aS'your'
p1424
aS'whole'
p1425
aS'life'
p1426
aS'died'
p1427
aS'yesterday'
p1428
ag34
asg15
S"Your adorable pet you've had your whole life died yesterday? "
p1429
sg17
S' deal with it'
p1430
sg19
Vdownvoting-roman
p1431
sg21
(lp1432
g1418
ag1419
ag1420
ag1421
ag1422
ag1423
ag1424
ag1425
ag1426
ag1427
ag1428
ag34
aS'deal'
p1433
aS'with'
p1434
aS'it'
p1435
asg24
(lp1436
g1433
ag1434
ag1435
asba(iMeme
Meme
p1437
(dp1438
g3
(lp1439
S'Your'
p1440
aS'girlfriend'
p1441
aS'made'
p1442
aS'this'
p1443
ag34
aS'How'
p1444
aS'nice'
p1445
asg15
S'Your girlfriend made this? How nice '
p1446
sg17
S' Instant downvote'
p1447
sg19
Vdownvoting-roman
p1448
sg21
(lp1449
g1440
ag1441
ag1442
ag1443
ag34
ag1444
ag1445
aS'Instant'
p1450
aS'downvote'
p1451
asg24
(lp1452
g1450
ag1451
asba(iMeme
Meme
p1453
(dp1454
g3
(lp1455
S'Object'
p1456
aS'that'
p1457
aS'resembles'
p1458
aS'an'
p1459
aS'upvote'
p1460
ag34
asg15
S'Object that resembles an upvote? '
p1461
sg17
S' Have a very realistic downvote'
p1462
sg19
Vdownvoting-roman
p1463
sg21
(lp1464
g1456
ag1457
ag1458
ag1459
ag1460
ag34
aS'Have'
p1465
ag13
aS'very'
p1466
aS'realistic'
p1467
aS'downvote'
p1468
asg24
(lp1469
g1465
ag13
ag1466
ag1467
ag1468
asba(iMeme
Meme
p1470
(dp1471
g3
(lp1472
S'That'
p1473
aS'show'
p1474
aS'from'
p1475
aS'your'
p1476
aS'childhood'
p1477
ag34
asg15
S'That show from your childhood? '
p1478
sg17
S" It's still terrible."
p1479
sg19
Vdownvoting-roman
p1480
sg21
(lp1481
g1473
ag1474
ag1475
ag1476
ag1477
ag34
aS'It'
p1482
aS"'s"
p1483
aS'still'
p1484
aS'terrible'
p1485
ag226
asg24
(lp1486
g1482
ag1483
ag1484
ag1485
ag226
asba(iMeme
Meme
p1487
(dp1488
g3
(lp1489
S'My'
p1490
aS'Boyfriend'
p1491
aS'Does'
p1492
aS"n't"
p1493
aS'Think'
p1494
aS'his'
p1495
aS'art'
p1496
aS'is'
p1497
aS'very'
p1498
aS'good'
p1499
ag226
asg15
S"My Boyfriend Doesn't Think his art is very good. "
p1500
sg17
S" he's right"
p1501
sg19
Vdownvoting-roman
p1502
sg21
(lp1503
g1490
ag1491
ag1492
ag1493
ag1494
ag1495
ag1496
ag1497
ag1498
ag1499
ag226
aS'he'
p1504
aS"'s"
p1505
aS'right'
p1506
asg24
(lp1507
g1504
ag1505
ag1506
asba(iMeme
Meme
p1508
(dp1509
g3
(lp1510
S'Not'
p1511
aS'available'
p1512
aS'in'
p1513
aS'my'
p1514
aS'area'
p1515
ag34
asg15
S'Not available in my area? '
p1516
sg17
S' Not upvoted in my area'
p1517
sg19
Vdownvoting-roman
p1518
sg21
(lp1519
g1511
ag1512
ag1513
ag1514
ag1515
ag34
aS'Not'
p1520
aS'upvoted'
p1521
aS'in'
p1522
aS'my'
p1523
aS'area'
p1524
asg24
(lp1525
g1520
ag1521
ag1522
ag1523
ag1524
asba(iMeme
Meme
p1526
(dp1527
g3
(lp1528
S'omg'
p1529
aS'reddit'
p1530
ag77
aS'look'
p1531
aS'what'
p1532
ag207
aS'got'
p1533
ag77
ag207
aS"'ll"
p1534
aS'post'
p1535
aS'pics'
p1536
aS'later'
p1537
asg15
S"omg reddit, look what i got, i'll post pics later "
p1538
sg17
S' too late'
p1539
sg19
Vdownvoting-roman
p1540
sg21
(lp1541
g1529
ag1530
ag77
ag1531
ag1532
ag207
ag1533
ag77
ag207
ag1534
ag1535
ag1536
ag1537
aS'too'
p1542
aS'late'
p1543
asg24
(lp1544
g1542
ag1543
asba(iMeme
Meme
p1545
(dp1546
g3
(lp1547
S'Yeah'
p1548
ag77
aS'babe'
p1549
ag226
ag73
aS"'m"
p1550
ag13
aS'pretty'
p1551
aS'big'
p1552
aS'deal'
p1553
aS'on'
p1554
aS'reddit'
p1555
ag226
asg15
S"Yeah, babe. I'm a pretty big deal on reddit. "
p1556
sg17
S' Not any more.'
p1557
sg19
Vdownvoting-roman
p1558
sg21
(lp1559
g1548
ag77
ag1549
ag226
ag73
ag1550
ag13
ag1551
ag1552
ag1553
ag1554
ag1555
ag226
aS'Not'
p1560
aS'any'
p1561
aS'more'
p1562
ag226
asg24
(lp1563
g1560
ag1561
ag1562
ag226
asba(iMeme
Meme
p1564
(dp1565
g3
(lp1566
S'You'
p1567
aS"'ll"
p1568
aS'need'
p1569
aS'to'
p1570
aS'login'
p1571
aS'or'
p1572
aS'register'
p1573
aS'to'
p1574
aS'do'
p1575
aS'that'
p1576
asg15
S"You'll need to login or register to do that "
p1577
sg17
S' today you live'
p1578
sg19
Vdownvoting-roman
p1579
sg21
(lp1580
g1567
ag1568
ag1569
ag1570
ag1571
ag1572
ag1573
ag1574
ag1575
ag1576
aS'today'
p1581
aS'you'
p1582
aS'live'
p1583
asg24
(lp1584
g1581
ag1582
ag1583
asba(iMeme
Meme
p1585
(dp1586
g3
(lp1587
g73
aS'see'
p1588
aS'what'
p1589
aS'you'
p1590
aS'did'
p1591
aS'there'
p1592
asg15
S'I see what you did there '
p1593
sg17
S' See what I did here?'
p1594
sg19
Vdownvoting-roman
p1595
sg21
(lp1596
g73
ag1588
ag1589
ag1590
ag1591
ag1592
aS'See'
p1597
aS'what'
p1598
ag73
aS'did'
p1599
aS'here'
p1600
ag34
asg24
(lp1601
g1597
ag1598
ag73
ag1599
ag1600
ag34
asba(iMeme
Meme
p1602
(dp1603
g3
(lp1604
g5
aS'rage'
p1605
aS'comic'
p1606
aS'about'
p1607
aS'being'
p1608
aS'downvoted'
p1609
ag34
asg15
S'A rage comic about being downvoted? '
p1610
sg17
S' Have some inspiration.'
p1611
sg19
Vdownvoting-roman
p1612
sg21
(lp1613
g5
ag1605
ag1606
ag1607
ag1608
ag1609
ag34
aS'Have'
p1614
aS'some'
p1615
aS'inspiration'
p1616
ag226
asg24
(lp1617
g1614
ag1615
ag1616
ag226
asba(iMeme
Meme
p1618
(dp1619
g3
(lp1620
S'Haters'
p1621
aS'gon'
p1622
aS'na'
p1623
aS'hate'
p1624
asg15
S'Haters gonna hate '
p1625
sg17
S' agreed'
p1626
sg19
Vdownvoting-roman
p1627
sg21
(lp1628
g1621
ag1622
ag1623
ag1624
aS'agreed'
p1629
asg24
(lp1630
g1629
asba(iMeme
Meme
p1631
(dp1632
g3
(lp1633
g207
aS'know'
p1634
aS'this'
p1635
aS'will'
p1636
aS'be'
p1637
aS'downvoted'
p1638
aS'...'
p1639
ag226
asg15
S'i know this will be downvoted.... '
p1640
sg17
S' you are correct   instant downvote'
p1641
sg19
Vdownvoting-roman
p1642
sg21
(lp1643
g207
ag1634
ag1635
ag1636
ag1637
ag1638
ag1639
ag226
aS'you'
p1644
aS'are'
p1645
aS'correct'
p1646
aS'instant'
p1647
aS'downvote'
p1648
asg24
(lp1649
g1644
ag1645
ag1646
ag1647
ag1648
asba(iMeme
Meme
p1650
(dp1651
g3
(lp1652
S'Do'
p1653
aS"n't"
p1654
aS'you'
p1655
aS'just'
p1656
aS'hate'
p1657
aS'stuff'
p1658
aS'like'
p1659
aS'this'
p1660
aS'on'
p1661
aS'facebook'
p1662
ag34
asg15
S"Don't you just hate stuff like this on facebook? "
p1663
sg17
S' yes, and i like it even less on reddit'
p1664
sg19
Vdownvoting-roman
p1665
sg21
(lp1666
g1653
ag1654
ag1655
ag1656
ag1657
ag1658
ag1659
ag1660
ag1661
ag1662
ag34
aS'yes'
p1667
ag77
aS'and'
p1668
ag207
aS'like'
p1669
aS'it'
p1670
aS'even'
p1671
aS'less'
p1672
aS'on'
p1673
aS'reddit'
p1674
asg24
(lp1675
g1667
ag77
ag1668
ag207
ag1669
ag1670
ag1671
ag1672
ag1673
ag1674
asba(iMeme
Meme
p1676
(dp1677
g3
(lp1678
S'Not'
p1679
aS'sure'
p1680
aS'why'
p1681
aS'you'
p1682
aS"'re"
p1683
aS'being'
p1684
aS'downvoted'
p1685
asg15
S"Not sure why you're being downvoted "
p1686
sg17
S' ponder this'
p1687
sg19
Vdownvoting-roman
p1688
sg21
(lp1689
g1679
ag1680
ag1681
ag1682
ag1683
ag1684
ag1685
aS'ponder'
p1690
aS'this'
p1691
asg24
(lp1692
g1690
ag1691
asba(iMeme
Meme
p1693
(dp1694
g3
(lp1695
S'Obnoxious'
p1696
aS'self'
p1697
aS'post'
p1698
ag34
asg15
S'Obnoxious self post? '
p1699
sg17
S' Click username, downvote something that matters.'
p1700
sg19
Vdownvoting-roman
p1701
sg21
(lp1702
g1696
ag1697
ag1698
ag34
aS'Click'
p1703
aS'username'
p1704
ag77
aS'downvote'
p1705
aS'something'
p1706
aS'that'
p1707
aS'matters'
p1708
ag226
asg24
(lp1709
g1703
ag1704
ag77
ag1705
ag1706
ag1707
ag1708
ag226
asba(iMeme
Meme
p1710
(dp1711
g3
(lp1712
S'You'
p1713
aS'did'
p1714
aS'something'
p1715
aS'nice'
p1716
aS'for'
p1717
aS'real'
p1718
aS'life'
p1719
aS'karma'
p1720
ag34
asg15
S'You did something nice for real life karma? '
p1721
sg17
S" Then I guess you won't mind this."
p1722
sg19
Vdownvoting-roman
p1723
sg21
(lp1724
g1713
ag1714
ag1715
ag1716
ag1717
ag1718
ag1719
ag1720
ag34
aS'Then'
p1725
ag73
aS'guess'
p1726
aS'you'
p1727
aS'wo'
p1728
aS"n't"
p1729
aS'mind'
p1730
aS'this'
p1731
ag226
asg24
(lp1732
g1725
ag73
ag1726
ag1727
ag1728
ag1729
ag1730
ag1731
ag226
asba(iMeme
Meme
p1733
(dp1734
g3
(lp1735
S'my'
p1736
aS'girlfriend'
p1737
aS'made'
p1738
aS'this'
p1739
aS'for'
p1740
aS'me'
p1741
asg15
S'my girlfriend made this for me '
p1742
sg17
S' give her this downvote'
p1743
sg19
Vdownvoting-roman
p1744
sg21
(lp1745
g1736
ag1737
ag1738
ag1739
ag1740
ag1741
aS'give'
p1746
aS'her'
p1747
aS'this'
p1748
aS'downvote'
p1749
asg24
(lp1750
g1746
ag1747
ag1748
ag1749
asba(iMeme
Meme
p1751
(dp1752
g3
(lp1753
S'Had'
p1754
ag13
aS'bad'
p1755
aS'day'
p1756
ag34
asg15
S'Had a bad day? '
p1757
sg17
S' Just got worse.'
p1758
sg19
Vdownvoting-roman
p1759
sg21
(lp1760
g1754
ag13
ag1755
ag1756
ag34
aS'Just'
p1761
aS'got'
p1762
aS'worse'
p1763
ag226
asg24
(lp1764
g1761
ag1762
ag1763
ag226
asba(iMeme
Meme
p1765
(dp1766
g3
(lp1767
S'First'
p1768
aS'Comic'
p1769
asg15
S'First Comic '
p1770
sg17
S' Get used to it'
p1771
sg19
Vdownvoting-roman
p1772
sg21
(lp1773
g1768
ag1769
aS'Get'
p1774
aS'used'
p1775
aS'to'
p1776
aS'it'
p1777
asg24
(lp1778
g1774
ag1775
ag1776
ag1777
asba(iMeme
Meme
p1779
(dp1780
g3
(lp1781
S'Broken'
p1782
aS'link'
p1783
ag34
asg15
S'Broken link? '
p1784
sg17
S' my downvote seems to be working just fine'
p1785
sg19
Vdownvoting-roman
p1786
sg21
(lp1787
g1782
ag1783
ag34
aS'my'
p1788
aS'downvote'
p1789
aS'seems'
p1790
aS'to'
p1791
aS'be'
p1792
aS'working'
p1793
aS'just'
p1794
aS'fine'
p1795
asg24
(lp1796
g1788
ag1789
ag1790
ag1791
ag1792
ag1793
ag1794
ag1795
asba(iMeme
Meme
p1797
(dp1798
g3
(lp1799
S'You'
p1800
aS"'ve"
p1801
aS'adopted'
p1802
ag13
aS'new'
p1803
aS'pet'
p1804
ag34
asg15
S"You've adopted a new pet? "
p1805
sg17
S" I've adopted a strict downvote policy"
p1806
sg19
Vdownvoting-roman
p1807
sg21
(lp1808
g1800
ag1801
ag1802
ag13
ag1803
ag1804
ag34
ag73
aS"'ve"
p1809
aS'adopted'
p1810
ag13
aS'strict'
p1811
aS'downvote'
p1812
aS'policy'
p1813
asg24
(lp1814
g73
ag1809
ag1810
ag13
ag1811
ag1812
ag1813
asba(iMeme
Meme
p1815
(dp1816
g3
(lp1817
S'Sees'
p1818
aS'comment'
p1819
aS'``'
p1820
aS'See'
p1821
aS'you'
p1822
aS'on'
p1823
aS'the'
p1824
aS'front'
p1825
aS'page'
p1826
asg15
S'Sees comment "See you on the front page '
p1827
sg17
S' Wish I could say the same for you'
p1828
sg19
Vdownvoting-roman
p1829
sg21
(lp1830
g1818
ag1819
ag1820
ag1821
ag1822
ag1823
ag1824
ag1825
ag1826
aS'Wish'
p1831
ag73
aS'could'
p1832
aS'say'
p1833
aS'the'
p1834
aS'same'
p1835
aS'for'
p1836
aS'you'
p1837
asg24
(lp1838
g1831
ag73
ag1832
ag1833
ag1834
ag1835
ag1836
ag1837
asba(iMeme
Meme
p1839
(dp1840
g3
(lp1841
S'Why'
p1842
aS'Is'
p1843
aS"n't"
p1844
aS'This'
p1845
aS'On'
p1846
aS'The'
p1847
aS'Front'
p1848
aS'Page'
p1849
ag34
asg15
S"Why Isn't This On The Front Page? "
p1850
sg17
S' This downvote might have something to do with it.'
p1851
sg19
Vdownvoting-roman
p1852
sg21
(lp1853
g1842
ag1843
ag1844
ag1845
ag1846
ag1847
ag1848
ag1849
ag34
aS'This'
p1854
aS'downvote'
p1855
aS'might'
p1856
aS'have'
p1857
aS'something'
p1858
aS'to'
p1859
aS'do'
p1860
aS'with'
p1861
aS'it'
p1862
ag226
asg24
(lp1863
g1854
ag1855
ag1856
ag1857
ag1858
ag1859
ag1860
ag1861
ag1862
ag226
asba(iMeme
Meme
p1864
(dp1865
g3
(lp1866
S'raising'
p1867
aS'awareness'
p1868
aS'of'
p1869
aS'down'
p1870
aS"'s"
p1871
aS'syndrome'
p1872
ag34
asg15
S"raising awareness of down's syndrome? "
p1873
sg17
S" down's vote"
p1874
sg19
Vdownvoting-roman
p1875
sg21
(lp1876
g1867
ag1868
ag1869
ag1870
ag1871
ag1872
ag34
aS'down'
p1877
aS"'s"
p1878
aS'vote'
p1879
asg24
(lp1880
g1877
ag1878
ag1879
asba(iMeme
Meme
p1881
(dp1882
g3
(lp1883
S'Bring'
p1884
aS'on'
p1885
aS'the'
p1886
aS'Downvotes'
p1887
ag34
asg15
S'Bring on the Downvotes? '
p1888
sg17
S' As you wish'
p1889
sg19
Vdownvoting-roman
p1890
sg21
(lp1891
g1884
ag1885
ag1886
ag1887
ag34
aS'As'
p1892
aS'you'
p1893
aS'wish'
p1894
asg24
(lp1895
g1892
ag1893
ag1894
asba(iMeme
Meme
p1896
(dp1897
g3
(lp1898
S'Karma'
p1899
aS'does'
p1900
aS"n't"
p1901
aS'mean'
p1902
aS'anything'
p1903
ag79
asg15
S"Karma doesn't mean anything! "
p1904
sg17
S' I agree'
p1905
sg19
Vdownvoting-roman
p1906
sg21
(lp1907
g1899
ag1900
ag1901
ag1902
ag1903
ag79
ag73
aS'agree'
p1908
asg24
(lp1909
g73
ag1908
asba(iMeme
Meme
p1910
(dp1911
g3
(lp1912
S'Downvoting'
p1913
aS'roman'
p1914
aS'comic'
p1915
ag34
asg15
S'Downvoting roman comic? '
p1916
sg17
S' How ironic.'
p1917
sg19
Vdownvoting-roman
p1918
sg21
(lp1919
g1913
ag1914
ag1915
ag34
aS'How'
p1920
aS'ironic'
p1921
ag226
asg24
(lp1922
g1920
ag1921
ag226
asba(iMeme
Meme
p1923
(dp1924
g3
(lp1925
S'Downvotes'
p1926
aS'for'
p1927
aS'Karma'
p1928
aS'whoring'
p1929
asg15
S'Downvotes for Karma whoring '
p1930
sg17
S' on your reddit birthday'
p1931
sg19
Vdownvoting-roman
p1932
sg21
(lp1933
g1926
ag1927
ag1928
ag1929
aS'on'
p1934
aS'your'
p1935
aS'reddit'
p1936
aS'birthday'
p1937
asg24
(lp1938
g1934
ag1935
ag1936
ag1937
asba(iMeme
Meme
p1939
(dp1940
g3
(lp1941
S'comment'
p1942
aS'reply'
p1943
ag489
aS'``'
p1944
aS'this'
p1945
asg15
S'comment reply: "this '
p1946
sg17
S' down you go'
p1947
sg19
Vdownvoting-roman
p1948
sg21
(lp1949
g1942
ag1943
ag489
ag1944
ag1945
aS'down'
p1950
aS'you'
p1951
aS'go'
p1952
asg24
(lp1953
g1950
ag1951
ag1952
asba(iMeme
Meme
p1954
(dp1955
g3
(lp1956
S'You'
p1957
aS'met'
p1958
ag13
aS'redditor'
p1959
aS'and'
p1960
aS'hope'
p1961
aS'they'
p1962
aS'see'
p1963
aS'this'
p1964
ag34
asg15
S'You met a redditor and hope they see this? '
p1965
sg17
S' too bad'
p1966
sg19
Vdownvoting-roman
p1967
sg21
(lp1968
g1957
ag1958
ag13
ag1959
ag1960
ag1961
ag1962
ag1963
ag1964
ag34
aS'too'
p1969
aS'bad'
p1970
asg24
(lp1971
g1969
ag1970
asba(iMeme
Meme
p1972
(dp1973
g3
(lp1974
S'First'
p1975
aS'post'
p1976
ag77
aS'just'
p1977
aS'happened'
p1978
ag77
aS'or'
p1979
aS'true'
p1980
aS'story'
p1981
aS'in'
p1982
aS'title'
p1983
asg15
S'First post, just happened, or true story in title '
p1984
sg17
S' Instant downvote'
p1985
sg19
Vdownvoting-roman
p1986
sg21
(lp1987
g1975
ag1976
ag77
ag1977
ag1978
ag77
ag1979
ag1980
ag1981
ag1982
ag1983
aS'Instant'
p1988
aS'downvote'
p1989
asg24
(lp1990
g1988
ag1989
asba(iMeme
Meme
p1991
(dp1992
g3
(lp1993
S'missed'
p1994
aS'an'
p1995
aS'apostrophe'
p1996
asg15
S'missed an apostrophe '
p1997
sg17
S' Instant downvote'
p1998
sg19
Vdownvoting-roman
p1999
sg21
(lp2000
g1994
ag1995
ag1996
aS'Instant'
p2001
aS'downvote'
p2002
asg24
(lp2003
g2001
ag2002
asba(iMeme
Meme
p2004
(dp2005
g3
(lp2006
g73
aS'know'
p2007
ag73
aS"'ll"
p2008
aS'get'
p2009
aS'downvoted'
p2010
aS'for'
p2011
aS'this'
p2012
asg15
S"I know I'll get downvoted for this "
p2013
sg17
S' Why yes, yes you will.'
p2014
sg19
Vdownvoting-roman
p2015
sg21
(lp2016
g73
ag2007
ag73
ag2008
ag2009
ag2010
ag2011
ag2012
aS'Why'
p2017
aS'yes'
p2018
ag77
aS'yes'
p2019
aS'you'
p2020
aS'will'
p2021
ag226
asg24
(lp2022
g2017
ag2018
ag77
ag2019
ag2020
ag2021
ag226
asba(iMeme
Meme
p2023
(dp2024
g3
(lp2025
g207
aS'hate'
p2026
aS'you'
p2027
aS'minitree'
p2028
asg15
S'i hate you minitree '
p2029
sg17
S' get out! '
p2030
sg19
Vdownvoting-roman
p2031
sg21
(lp2032
g207
ag2026
ag2027
ag2028
aS'get'
p2033
aS'out'
p2034
ag79
asg24
(lp2035
g2033
ag2034
ag79
asba(iMeme
Meme
p2036
(dp2037
g3
(lp2038
g207
aS'hate'
p2039
aS'you'
p2040
aS'minitree'
p2041
asg15
S'i hate you minitree '
p2042
sg17
S' get out! '
p2043
sg19
Vdownvoting-roman
p2044
sg21
(lp2045
g207
ag2039
ag2040
ag2041
aS'get'
p2046
aS'out'
p2047
ag79
asg24
(lp2048
g2046
ag2047
ag79
asba(iMeme
Meme
p2049
(dp2050
g3
(lp2051
S'that'
p2052
aS"'s"
p2053
aS'hilarious'
p2054
asg15
S"that's hilarious "
p2055
sg17
S' screw you '
p2056
sg19
Vdownvoting-roman
p2057
sg21
(lp2058
g2052
ag2053
ag2054
aS'screw'
p2059
aS'you'
p2060
asg24
(lp2061
g2059
ag2060
asba(iMeme
Meme
p2062
(dp2063
g3
(lp2064
S'ill'
p2065
aS'clean'
p2066
aS'the'
p2067
aS'masjid'
p2068
asg15
S'ill clean the masjid  '
p2069
sg17
S' my own damn self!!!!!! '
p2070
sg19
Vdownvoting-roman
p2071
sg21
(lp2072
g2065
ag2066
ag2067
ag2068
aS'my'
p2073
aS'own'
p2074
aS'damn'
p2075
aS'self'
p2076
ag79
ag79
ag79
ag79
ag79
ag79
asg24
(lp2077
g2073
ag2074
ag2075
ag2076
ag79
ag79
ag79
ag79
ag79
ag79
asba(iMeme
Meme
p2078
(dp2079
g3
(lp2080
S'image'
p2081
aS'not'
p2082
aS'from'
p2083
aS'quickmeme'
p2084
aS'or'
p2085
aS'memedad'
p2086
ag34
asg15
S'image not from quickmeme or memedad? '
p2087
sg17
S' have a downvote '
p2088
sg19
Vdownvoting-roman
p2089
sg21
(lp2090
g2081
ag2082
ag2083
ag2084
ag2085
ag2086
ag34
aS'have'
p2091
ag13
aS'downvote'
p2092
asg24
(lp2093
g2091
ag13
ag2092
asba(iMeme
Meme
p2094
(dp2095
g3
(lp2096
S'You'
p2097
aS'have'
p2098
aS"n't"
p2099
aS'seen'
p2100
aS'my'
p2101
aS'upvote'
p2102
aS'either'
p2103
asg15
S"You haven't seen my upvote either "
p2104
sg17
S'  '
p2105
sg19
Vdownvoting-roman
p2106
sg21
(lp2107
g2097
ag2098
ag2099
ag2100
ag2101
ag2102
ag2103
asg24
(lp2108
sba(iMeme
Meme
p2109
(dp2110
g3
(lp2111
S'You'
p2112
aS'``'
p2113
aS'fixed'
p2114
aS"''"
p2115
ag13
aS'post'
p2116
ag34
asg15
S'You "fixed" a post? '
p2117
sg17
S' I broke my upvote. '
p2118
sg19
Vdownvoting-roman
p2119
sg21
(lp2120
g2112
ag2113
ag2114
ag2115
ag13
ag2116
ag34
ag73
aS'broke'
p2121
aS'my'
p2122
aS'upvote'
p2123
ag226
asg24
(lp2124
g73
ag2121
ag2122
ag2123
ag226
asba(iMeme
Meme
p2125
(dp2126
g3
(lp2127
S'It'
p2128
aS'vexes'
p2129
aS'me'
p2130
ag226
asg15
S'It vexes me.  '
p2131
sg17
S" I'm terribly vexed. "
p2132
sg19
Vdownvoting-roman
p2133
sg21
(lp2134
g2128
ag2129
ag2130
ag226
ag73
aS"'m"
p2135
aS'terribly'
p2136
aS'vexed'
p2137
ag226
asg24
(lp2138
g73
ag2135
ag2136
ag2137
ag226
asba(iMeme
Meme
p2139
(dp2140
g3
(lp2141
S'You'
p2142
aS'forgot'
p2143
aS'how'
p2144
aS'to'
p2145
aS'use'
p2146
aS'proper'
p2147
aS'grammar'
p2148
ag34
asg15
S'You forgot how to use proper grammar? '
p2149
sg17
S' I forgot how to upvote. '
p2150
sg19
Vdownvoting-roman
p2151
sg21
(lp2152
g2142
ag2143
ag2144
ag2145
ag2146
ag2147
ag2148
ag34
ag73
aS'forgot'
p2153
aS'how'
p2154
aS'to'
p2155
aS'upvote'
p2156
ag226
asg24
(lp2157
g73
ag2153
ag2154
ag2155
ag2156
ag226
asba(iMeme
Meme
p2158
(dp2159
g3
(lp2160
S'Your'
p2161
aS'livememe'
p2162
aS'link'
p2163
aS'did'
p2164
aS"n't"
p2165
aS'load'
p2166
ag34
asg15
S"Your livememe link didn't load? "
p2167
sg17
S' neither did my upvote '
p2168
sg19
Vdownvoting-roman
p2169
sg21
(lp2170
g2161
ag2162
ag2163
ag2164
ag2165
ag2166
ag34
aS'neither'
p2171
aS'did'
p2172
aS'my'
p2173
aS'upvote'
p2174
asg24
(lp2175
g2171
ag2172
ag2173
ag2174
asba(iMeme
Meme
p2176
(dp2177
g3
(lp2178
sg15
S' '
p2179
sg17
S" You haven't seen my upvote either "
p2180
sg19
Vdownvoting-roman
p2181
sg21
(lp2182
S'You'
p2183
aS'have'
p2184
aS"n't"
p2185
aS'seen'
p2186
aS'my'
p2187
aS'upvote'
p2188
aS'either'
p2189
asg24
(lp2190
g2183
ag2184
ag2185
ag2186
ag2187
ag2188
ag2189
asba(iMeme
Meme
p2191
(dp2192
g3
(lp2193
S'Bandwidth'
p2194
aS'exceeded'
p2195
ag34
asg15
S'Bandwidth exceeded? '
p2196
sg17
S' Upvotes exceeded '
p2197
sg19
Vdownvoting-roman
p2198
sg21
(lp2199
g2194
ag2195
ag34
aS'Upvotes'
p2200
aS'exceeded'
p2201
asg24
(lp2202
g2200
ag2201
asba(iMeme
Meme
p2203
(dp2204
g3
(lp2205
S'You'
p2206
aS'were'
p2207
aS"n't"
p2208
aS'sure'
p2209
aS'what'
p2210
aS'meme'
p2211
aS'to'
p2212
aS'use'
p2213
ag34
asg15
S"You weren't sure what meme to use?  "
p2214
sg17
S" I wasn't sure which arrow to press "
p2215
sg19
Vdownvoting-roman
p2216
sg21
(lp2217
g2206
ag2207
ag2208
ag2209
ag2210
ag2211
ag2212
ag2213
ag34
ag73
aS'was'
p2218
aS"n't"
p2219
aS'sure'
p2220
aS'which'
p2221
aS'arrow'
p2222
aS'to'
p2223
aS'press'
p2224
asg24
(lp2225
g73
ag2218
ag2219
ag2220
ag2221
ag2222
ag2223
ag2224
asba(iMeme
Meme
p2226
(dp2227
g3
(lp2228
S'``'
p2229
aS'Am'
p2230
ag73
aS'the'
p2231
aS'only'
p2232
aS'one'
p2233
aS'around'
p2234
aS'here'
p2235
ag34
aS"''"
p2236
asg15
S'"Am I the only one around here?" '
p2237
sg17
S' yes '
p2238
sg19
Vdownvoting-roman
p2239
sg21
(lp2240
g2229
ag2230
ag73
ag2231
ag2232
ag2233
ag2234
ag2235
ag34
ag2236
aS'yes'
p2241
asg24
(lp2242
g2241
asba(iMeme
Meme
p2243
(dp2244
g3
(lp2245
S'Poor'
p2246
aS'grammar'
p2247
aS'and'
p2248
aS'spelling'
p2249
aS'in'
p2250
aS'your'
p2251
aS'meme'
p2252
ag34
asg15
S'Poor grammar and spelling in your meme? '
p2253
sg17
S' her is ur downvowt lol '
p2254
sg19
Vdownvoting-roman
p2255
sg21
(lp2256
g2246
ag2247
ag2248
ag2249
ag2250
ag2251
ag2252
ag34
aS'her'
p2257
aS'is'
p2258
aS'ur'
p2259
aS'downvowt'
p2260
aS'lol'
p2261
asg24
(lp2262
g2257
ag2258
ag2259
ag2260
ag2261
asba(iMeme
Meme
p2263
(dp2264
g3
(lp2265
S'Apologizing'
p2266
aS'for'
p2267
aS'your'
p2268
aS'confession'
p2269
ag34
asg15
S'Apologizing for your confession? '
p2270
sg17
S" I'm not apologizing for my downvote. "
p2271
sg19
Vdownvoting-roman
p2272
sg21
(lp2273
g2266
ag2267
ag2268
ag2269
ag34
ag73
aS"'m"
p2274
aS'not'
p2275
aS'apologizing'
p2276
aS'for'
p2277
aS'my'
p2278
aS'downvote'
p2279
ag226
asg24
(lp2280
g73
ag2274
ag2275
ag2276
ag2277
ag2278
ag2279
ag226
asba(iMeme
Meme
p2281
(dp2282
g3
(lp2283
S'Annual'
p2284
aS'Homeless'
p2285
aS'Battle'
p2286
aS'Royale'
p2287
asg15
S'Annual Homeless Battle Royale '
p2288
sg17
S' only one gets the donuts '
p2289
sg19
Vdownvoting-roman
p2290
sg21
(lp2291
g2284
ag2285
ag2286
ag2287
aS'only'
p2292
aS'one'
p2293
aS'gets'
p2294
aS'the'
p2295
aS'donuts'
p2296
asg24
(lp2297
g2292
ag2293
ag2294
ag2295
ag2296
asba(iMeme
Meme
p2298
(dp2299
g3
(lp2300
S'Found'
p2301
aS'it'
p2302
aS'on'
p2303
aS'Facebook'
p2304
ag34
asg15
S'Found it on Facebook? '
p2305
sg17
S' Should have left it there '
p2306
sg19
Vdownvoting-roman
p2307
sg21
(lp2308
g2301
ag2302
ag2303
ag2304
ag34
aS'Should'
p2309
aS'have'
p2310
aS'left'
p2311
aS'it'
p2312
aS'there'
p2313
asg24
(lp2314
g2309
ag2310
ag2311
ag2312
ag2313
asba(iMeme
Meme
p2315
(dp2316
g3
(lp2317
S'College'
p2318
aS'advice'
p2319
asg15
S'College advice '
p2320
sg17
S' Pollice verso '
p2321
sg19
Vdownvoting-roman
p2322
sg21
(lp2323
g2318
ag2319
aS'Pollice'
p2324
aS'verso'
p2325
asg24
(lp2326
g2324
ag2325
asba(iMeme
Meme
p2327
(dp2328
g3
(lp2329
S'You'
p2330
aS"'re"
p2331
aS'admitting'
p2332
aS'you'
p2333
aS'like'
p2334
aS'Confession'
p2335
aS'Bear'
p2336
ag34
asg15
S"You're admitting you like Confession Bear? "
p2337
sg17
S" I'm admitting I downvoted you. "
p2338
sg19
Vdownvoting-roman
p2339
sg21
(lp2340
g2330
ag2331
ag2332
ag2333
ag2334
ag2335
ag2336
ag34
ag73
aS"'m"
p2341
aS'admitting'
p2342
ag73
aS'downvoted'
p2343
aS'you'
p2344
ag226
asg24
(lp2345
g73
ag2341
ag2342
ag73
ag2343
ag2344
ag226
asba(iMeme
Meme
p2346
(dp2347
g3
(lp2348
S'compared'
p2349
aS'to'
p2350
aS'the'
p2351
aS'roostar'
p2352
asg15
S'compared to the roostar '
p2353
sg17
S" all of these other mc's are garbage "
p2354
sg19
Vdownvoting-roman
p2355
sg21
(lp2356
g2349
ag2350
ag2351
ag2352
aS'all'
p2357
aS'of'
p2358
aS'these'
p2359
aS'other'
p2360
aS'mc'
p2361
aS"'s"
p2362
aS'are'
p2363
aS'garbage'
p2364
asg24
(lp2365
g2357
ag2358
ag2359
ag2360
ag2361
ag2362
ag2363
ag2364
asba(iMeme
Meme
p2366
(dp2367
g3
(lp2368
S'``'
p2369
ag73
aS'could'
p2370
aS"n't"
p2371
aS'think'
p2372
aS'of'
p2373
ag13
aS'clever'
p2374
aS'title'
p2375
aS"''"
p2376
asg15
S'"I couldn\'t think of a clever title" '
p2377
sg17
S" I couldn't think of an upvote "
p2378
sg19
Vdownvoting-roman
p2379
sg21
(lp2380
g2369
ag73
ag2370
ag2371
ag2372
ag2373
ag13
ag2374
ag2375
ag2376
ag73
aS'could'
p2381
aS"n't"
p2382
aS'think'
p2383
aS'of'
p2384
aS'an'
p2385
aS'upvote'
p2386
asg24
(lp2387
g73
ag2381
ag2382
ag2383
ag2384
ag2385
ag2386
asba(iMeme
Meme
p2388
(dp2389
g3
(lp2390
S'goes'
p2391
aS'on'
p2392
aS'zimmerman'
p2393
aS'rant'
p2394
asg15
S'goes on zimmerman rant '
p2395
sg17
S'  '
p2396
sg19
Vdownvoting-roman
p2397
sg21
(lp2398
g2391
ag2392
ag2393
ag2394
asg24
(lp2399
sba(iMeme
Meme
p2400
(dp2401
g3
(lp2402
S'Do'
p2403
aS"n't"
p2404
aS'have'
p2405
ag13
aS'title'
p2406
ag34
asg15
S"Don't have a title? "
p2407
sg17
S" Don't have an upvote "
p2408
sg19
Vdownvoting-roman
p2409
sg21
(lp2410
g2403
ag2404
ag2405
ag13
ag2406
ag34
aS'Do'
p2411
aS"n't"
p2412
aS'have'
p2413
aS'an'
p2414
aS'upvote'
p2415
asg24
(lp2416
g2411
ag2412
ag2413
ag2414
ag2415
asba(iMeme
Meme
p2417
(dp2418
g3
(lp2419
S'You'
p2420
aS'watched'
p2421
aS'Miley'
p2422
aS'Cyrus'
p2423
aS'``'
p2424
aS'get'
p2425
aS'down'
p2426
aS"''"
p2427
ag34
asg15
S'You watched Miley Cyrus "get down"? '
p2428
sg17
S" Let's watch your karma do the same "
p2429
sg19
Vdownvoting-roman
p2430
sg21
(lp2431
g2420
ag2421
ag2422
ag2423
ag2424
ag2425
ag2426
ag2427
ag34
aS'Let'
p2432
aS"'s"
p2433
aS'watch'
p2434
aS'your'
p2435
aS'karma'
p2436
aS'do'
p2437
aS'the'
p2438
aS'same'
p2439
asg24
(lp2440
g2432
ag2433
ag2434
ag2435
ag2436
ag2437
ag2438
ag2439
asba(iMeme
Meme
p2441
(dp2442
g3
(lp2443
S'Not'
p2444
aS'available'
p2445
aS'for'
p2446
aS'mobile'
p2447
ag34
asg15
S'Not available for mobile? '
p2448
sg17
S' How about a downvote? '
p2449
sg19
Vdownvoting-roman
p2450
sg21
(lp2451
g2444
ag2445
ag2446
ag2447
ag34
aS'How'
p2452
aS'about'
p2453
ag13
aS'downvote'
p2454
ag34
asg24
(lp2455
g2452
ag2453
ag13
ag2454
ag34
asba(iMeme
Meme
p2456
(dp2457
g3
(lp2458
S'Nobody'
p2459
aS'likes'
p2460
aS'``'
p2461
aS'LOL'
p2462
aS"''"
p2463
aS'or'
p2464
aS'``'
p2465
aS'This'
p2466
aS"''"
p2467
aS'either'
p2468
asg15
S'Nobody likes "LOL" or "This" either '
p2469
sg17
S'  '
p2470
sg19
Vdownvoting-roman
p2471
sg21
(lp2472
g2459
ag2460
ag2461
ag2462
ag2463
ag2464
ag2465
ag2466
ag2467
ag2468
asg24
(lp2473
sba(iMeme
Meme
p2474
(dp2475
g3
(lp2476
S'Fuck'
p2477
aS'it'
p2478
aS'you'
p2479
aS"'re"
p2480
ag13
aS'non'
p2481
aS'factor'
p2482
asg15
S"Fuck it you're a non factor "
p2483
sg17
S'  '
p2484
sg19
Vdownvoting-roman
p2485
sg21
(lp2486
g2477
ag2478
ag2479
ag2480
ag13
ag2481
ag2482
asg24
(lp2487
sba(iMeme
Meme
p2488
(dp2489
g3
(lp2490
S'this'
p2491
aS'is'
p2492
aS'how'
p2493
aS'you'
p2494
aS'deal'
p2495
aS'with'
p2496
aS'reposts'
p2497
asg15
S'this is how you deal with reposts  '
p2498
sg17
S'  '
p2499
sg19
Vdownvoting-roman
p2500
sg21
(lp2501
g2491
ag2492
ag2493
ag2494
ag2495
ag2496
ag2497
asg24
(lp2502
sba(iMeme
Meme
p2503
(dp2504
g3
(lp2505
S'Annual'
p2506
aS'Homeless'
p2507
aS'Battle'
p2508
aS'Royale'
p2509
asg15
S'Annual Homeless Battle Royale '
p2510
sg17
S' nobody gets the donuts '
p2511
sg19
Vdownvoting-roman
p2512
sg21
(lp2513
g2506
ag2507
ag2508
ag2509
aS'nobody'
p2514
aS'gets'
p2515
aS'the'
p2516
aS'donuts'
p2517
asg24
(lp2518
g2514
ag2515
ag2516
ag2517
asba(iMeme
Meme
p2519
(dp2520
g3
(lp2521
S'``'
p2522
aS'It'
p2523
aS"'s"
p2524
aS'my'
p2525
aS'cakeday'
p2526
ag77
aS'give'
p2527
aS'me'
p2528
aS'Karma'
p2529
aS"''"
p2530
asg15
S'"It\'s my cakeday, give me Karma" '
p2531
sg17
S' Negative karma '
p2532
sg19
Vdownvoting-roman
p2533
sg21
(lp2534
g2522
ag2523
ag2524
ag2525
ag2526
ag77
ag2527
ag2528
ag2529
ag2530
aS'Negative'
p2535
aS'karma'
p2536
asg24
(lp2537
g2535
ag2536
asba(iMeme
Meme
p2538
(dp2539
g3
(lp2540
S'Oh'
p2541
ag77
aS'you'
p2542
aS'have'
p2543
aS'901'
p2544
aS'karma'
p2545
aS'on'
p2546
aS'your'
p2547
aS'post'
p2548
ag34
asg15
S'Oh, you have 901 karma on your post? '
p2549
sg17
S' let me fix that for you '
p2550
sg19
Vdownvoting-roman
p2551
sg21
(lp2552
g2541
ag77
ag2542
ag2543
ag2544
ag2545
ag2546
ag2547
ag2548
ag34
aS'let'
p2553
aS'me'
p2554
aS'fix'
p2555
aS'that'
p2556
aS'for'
p2557
aS'you'
p2558
asg24
(lp2559
g2553
ag2554
ag2555
ag2556
ag2557
ag2558
asba(iMeme
Meme
p2560
(dp2561
g3
(lp2562
S'greg'
p2563
aS'inglis'
p2564
asg15
S'greg inglis  '
p2565
sg17
S' go back to bowra '
p2566
sg19
Vdownvoting-roman
p2567
sg21
(lp2568
g2563
ag2564
aS'go'
p2569
aS'back'
p2570
aS'to'
p2571
aS'bowra'
p2572
asg24
(lp2573
g2569
ag2570
ag2571
ag2572
asba(iMeme
Meme
p2574
(dp2575
g3
(lp2576
S'if'
p2577
aS'statistics'
p2578
ag95
aS'science'
p2579
aS'are'
p2580
aS'so'
p2581
aS'important'
p2582
asg15
S'if statistics & science are so important '
p2583
sg17
S' then why does the bible have no reference page?  '
p2584
sg19
Vdownvoting-roman
p2585
sg21
(lp2586
g2577
ag2578
ag95
ag2579
ag2580
ag2581
ag2582
aS'then'
p2587
aS'why'
p2588
aS'does'
p2589
aS'the'
p2590
aS'bible'
p2591
aS'have'
p2592
aS'no'
p2593
aS'reference'
p2594
aS'page'
p2595
ag34
asg24
(lp2596
g2587
ag2588
ag2589
ag2590
ag2591
ag2592
ag2593
ag2594
ag2595
ag34
asba(iMeme
Meme
p2597
(dp2598
g3
(lp2599
S'``'
p2600
ag73
aS'know'
p2601
aS'this'
p2602
aS'is'
p2603
aS'going'
p2604
aS'to'
p2605
aS'get'
p2606
aS'buried'
p2607
aS'but'
p2608
ag77
aS"''"
p2609
asg15
S'"I know this is going to get buried but," '
p2610
sg17
S" You're right "
p2611
sg19
Vdownvoting-roman
p2612
sg21
(lp2613
g2600
ag73
ag2601
ag2602
ag2603
ag2604
ag2605
ag2606
ag2607
ag2608
ag77
ag2609
aS'You'
p2614
aS"'re"
p2615
aS'right'
p2616
asg24
(lp2617
g2614
ag2615
ag2616
asba(iMeme
Meme
p2618
(dp2619
g3
(lp2620
S'video'
p2621
aS'ref'
p2622
aS'says'
p2623
asg15
S'video ref says '
p2624
sg17
S' no try, NSW '
p2625
sg19
Vdownvoting-roman
p2626
sg21
(lp2627
g2621
ag2622
ag2623
aS'no'
p2628
aS'try'
p2629
ag77
aS'NSW'
p2630
asg24
(lp2631
g2628
ag2629
ag77
ag2630
asba(iMeme
Meme
p2632
(dp2633
g3
(lp2634
S'Zimbardo'
p2635
aS"'s"
p2636
aS'known'
p2637
aS'for'
p2638
aS'his'
p2639
aS'prison'
p2640
aS'experiment'
p2641
ag34
asg15
S"Zimbardo's known for his prison experiment? "
p2642
sg17
S" Guess what I'm known for. "
p2643
sg19
Vdownvoting-roman
p2644
sg21
(lp2645
g2635
ag2636
ag2637
ag2638
ag2639
ag2640
ag2641
ag34
aS'Guess'
p2646
aS'what'
p2647
ag73
aS"'m"
p2648
aS'known'
p2649
aS'for'
p2650
ag226
asg24
(lp2651
g2646
ag2647
ag73
ag2648
ag2649
ag2650
ag226
asba(iMeme
Meme
p2652
(dp2653
g3
(lp2654
S'Oh'
p2655
ag77
aS'your'
p2656
aS'last'
p2657
aS'post'
p2658
aS'was'
p2659
aS'downvoted'
p2660
aS'to'
p2661
aS'hell'
p2662
ag34
asg15
S'Oh, your last post was downvoted to hell? '
p2663
sg17
S" I'd hate to buck the trend "
p2664
sg19
Vdownvoting-roman
p2665
sg21
(lp2666
g2655
ag77
ag2656
ag2657
ag2658
ag2659
ag2660
ag2661
ag2662
ag34
ag73
aS"'d"
p2667
aS'hate'
p2668
aS'to'
p2669
aS'buck'
p2670
aS'the'
p2671
aS'trend'
p2672
asg24
(lp2673
g73
ag2667
ag2668
ag2669
ag2670
ag2671
ag2672
asba(iMeme
Meme
p2674
(dp2675
g3
(lp2676
S'Annual'
p2677
aS'Homeless'
p2678
aS'Battle'
p2679
aS'Royale'
p2680
asg15
S'Annual Homeless Battle Royale '
p2681
sg17
S' Only one gets the donuts '
p2682
sg19
Vdownvoting-roman
p2683
sg21
(lp2684
g2677
ag2678
ag2679
ag2680
aS'Only'
p2685
aS'one'
p2686
aS'gets'
p2687
aS'the'
p2688
aS'donuts'
p2689
asg24
(lp2690
g2685
ag2686
ag2687
ag2688
ag2689
asba(iMeme
Meme
p2691
(dp2692
g3
(lp2693
S'slowpoke'
p2694
aS'meme'
p2695
ag34
asg15
S'slowpoke meme? '
p2696
sg17
S' Have a downvote. '
p2697
sg19
Vdownvoting-roman
p2698
sg21
(lp2699
g2694
ag2695
ag34
aS'Have'
p2700
ag13
aS'downvote'
p2701
ag226
asg24
(lp2702
g2700
ag13
ag2701
ag226
asba(iMeme
Meme
p2703
(dp2704
g3
(lp2705
S'this'
p2706
aS'will'
p2707
aS'probably'
p2708
aS'be'
p2709
aS'downvoted'
p2710
asg15
S'this will probably be downvoted'
p2711
sg17
S' you got that right'
p2712
sg19
Vdownvoting-roman
p2713
sg21
(lp2714
g2706
ag2707
ag2708
ag2709
ag2710
aS'you'
p2715
aS'got'
p2716
aS'that'
p2717
aS'right'
p2718
asg24
(lp2719
g2715
ag2716
ag2717
ag2718
asba(iMeme
Meme
p2720
(dp2721
g3
(lp2722
g207
aS'know'
p2723
aS'im'
p2724
aS'going'
p2725
aS'to'
p2726
aS'get'
p2727
aS'downvoted'
p2728
aS'for'
p2729
aS'this'
p2730
asg15
S'i know im going to get downvoted for this'
p2731
sg17
S' well you know something at least'
p2732
sg19
Vdownvoting-roman
p2733
sg21
(lp2734
g207
ag2723
ag2724
ag2725
ag2726
ag2727
ag2728
ag2729
ag2730
aS'well'
p2735
aS'you'
p2736
aS'know'
p2737
aS'something'
p2738
aS'at'
p2739
aS'least'
p2740
asg24
(lp2741
g2735
ag2736
ag2737
ag2738
ag2739
ag2740
asba(iMeme
Meme
p2742
(dp2743
g3
(lp2744
S'ok'
p2745
asg15
S'ok'
p2746
sg17
S' just kill him'
p2747
sg19
Vdownvoting-roman
p2748
sg21
(lp2749
g2745
aS'just'
p2750
aS'kill'
p2751
aS'him'
p2752
asg24
(lp2753
g2750
ag2751
ag2752
asba(iMeme
Meme
p2754
(dp2755
g3
(lp2756
S'posting'
p2757
aS'pony'
p2758
aS'porn'
p2759
ag207
aS'say'
p2760
asg15
S'posting pony porn i say'
p2761
sg17
S' let me help you with that'
p2762
sg19
Vdownvoting-roman
p2763
sg21
(lp2764
g2757
ag2758
ag2759
ag207
ag2760
aS'let'
p2765
aS'me'
p2766
aS'help'
p2767
aS'you'
p2768
aS'with'
p2769
aS'that'
p2770
asg24
(lp2771
g2765
ag2766
ag2767
ag2768
ag2769
ag2770
asba(iMeme
Meme
p2772
(dp2773
g3
(lp2774
S'your'
p2775
aS'post'
p2776
aS'is'
p2777
aS'stupid'
p2778
ag226
asg15
S'your post is stupid.'
p2779
sg17
S' release the lions.'
p2780
sg19
Vdownvoting-roman
p2781
sg21
(lp2782
g2775
ag2776
ag2777
ag2778
ag226
aS'release'
p2783
aS'the'
p2784
aS'lions'
p2785
ag226
asg24
(lp2786
g2783
ag2784
ag2785
ag226
asba(iMeme
Meme
p2787
(dp2788
g3
(lp2789
S'iama'
p2790
ag13
aS'person'
p2791
aS'with'
p2792
ag13
aS'mental'
p2793
aS'condition'
p2794
asg15
S'iama a person with a mental condition'
p2795
sg17
S' and i have down syndrome'
p2796
sg19
Vdownvoting-roman
p2797
sg21
(lp2798
g2790
ag13
ag2791
ag2792
ag13
ag2793
ag2794
aS'and'
p2799
ag207
aS'have'
p2800
aS'down'
p2801
aS'syndrome'
p2802
asg24
(lp2803
g2799
ag207
ag2800
ag2801
ag2802
asba(iMeme
Meme
p2804
(dp2805
g3
(lp2806
g207
aS'know'
p2807
aS'this'
p2808
aS'will'
p2809
aS'get'
p2810
aS'buried'
p2811
asg15
S'i know this will get buried'
p2812
sg17
S' how right you are'
p2813
sg19
Vdownvoting-roman
p2814
sg21
(lp2815
g207
ag2807
ag2808
ag2809
ag2810
ag2811
aS'how'
p2816
aS'right'
p2817
aS'you'
p2818
aS'are'
p2819
asg24
(lp2820
g2816
ag2817
ag2818
ag2819
asba(iMeme
Meme
p2821
(dp2822
g3
(lp2823
S'kill'
p2824
asg15
S'kill'
p2825
sg17
S' the new york giants'
p2826
sg19
Vdownvoting-roman
p2827
sg21
(lp2828
g2824
aS'the'
p2829
aS'new'
p2830
aS'york'
p2831
aS'giants'
p2832
asg24
(lp2833
g2829
ag2830
ag2831
ag2832
asba(iMeme
Meme
p2834
(dp2835
g3
(lp2836
S'as'
p2837
aS'touching'
p2838
aS'as'
p2839
aS'your'
p2840
aS'amanda'
p2841
aS'todd'
p2842
aS'post'
p2843
aS'is'
p2844
asg15
S'as touching as your amanda todd post is'
p2845
sg17
S' zero shits are given this day'
p2846
sg19
Vdownvoting-roman
p2847
sg21
(lp2848
g2837
ag2838
ag2839
ag2840
ag2841
ag2842
ag2843
ag2844
aS'zero'
p2849
aS'shits'
p2850
aS'are'
p2851
aS'given'
p2852
aS'this'
p2853
aS'day'
p2854
asg24
(lp2855
g2849
ag2850
ag2851
ag2852
ag2853
ag2854
asba(iMeme
Meme
p2856
(dp2857
g3
(lp2858
S'no'
p2859
aS'more'
p2860
aS'funny'
p2861
aS'posts'
p2862
asg15
S'no more funny posts'
p2863
sg17
S' or u get banned!'
p2864
sg19
Vdownvoting-roman
p2865
sg21
(lp2866
g2859
ag2860
ag2861
ag2862
aS'or'
p2867
aS'u'
p2868
aS'get'
p2869
aS'banned'
p2870
ag79
asg24
(lp2871
g2867
ag2868
ag2869
ag2870
ag79
asba(iMeme
Meme
p2872
(dp2873
g3
(lp2874
S'came'
p2875
aS'here'
p2876
aS'to'
p2877
aS'say'
p2878
aS'this'
p2879
asg15
S'came here to say this'
p2880
sg17
S' guess what i came here for'
p2881
sg19
Vdownvoting-roman
p2882
sg21
(lp2883
g2875
ag2876
ag2877
ag2878
ag2879
aS'guess'
p2884
aS'what'
p2885
ag207
aS'came'
p2886
aS'here'
p2887
aS'for'
p2888
asg24
(lp2889
g2884
ag2885
ag207
ag2886
ag2887
ag2888
asba(iMeme
Meme
p2890
(dp2891
g3
(lp2892
S'sees'
p2893
aS'cat'
p2894
aS'in'
p2895
aS'post'
p2896
asg15
S'sees cat in post'
p2897
sg17
S' downvotes no matter what'
p2898
sg19
Vdownvoting-roman
p2899
sg21
(lp2900
g2893
ag2894
ag2895
ag2896
aS'downvotes'
p2901
aS'no'
p2902
aS'matter'
p2903
aS'what'
p2904
asg24
(lp2905
g2901
ag2902
ag2903
ag2904
asba(iMeme
Meme
p2906
(dp2907
g3
(lp2908
S'go'
p2909
aS'ahead'
p2910
aS'and'
p2911
aS'downvote'
p2912
aS'me'
p2913
asg15
S'go ahead and downvote me'
p2914
sg17
S' but one thing that sucks about the princess bride is'
p2915
sg19
Vdownvoting-roman
p2916
sg21
(lp2917
g2909
ag2910
ag2911
ag2912
ag2913
aS'but'
p2918
aS'one'
p2919
aS'thing'
p2920
aS'that'
p2921
aS'sucks'
p2922
aS'about'
p2923
aS'the'
p2924
aS'princess'
p2925
aS'bride'
p2926
aS'is'
p2927
asg24
(lp2928
g2918
ag2919
ag2920
ag2921
ag2922
ag2923
ag2924
ag2925
ag2926
ag2927
asba(iMeme
Meme
p2929
(dp2930
g3
(lp2931
S'edit'
p2932
ag489
aS'downvotes'
p2933
ag34
aS'really'
p2934
ag34
asg15
S'edit: downvotes? really?'
p2935
sg17
S' instant downvote'
p2936
sg19
Vdownvoting-roman
p2937
sg21
(lp2938
g2932
ag489
ag2933
ag34
ag2934
ag34
aS'instant'
p2939
aS'downvote'
p2940
asg24
(lp2941
g2939
ag2940
asba(iMeme
Meme
p2942
(dp2943
g3
(lp2944
S'show'
p2945
aS'some'
p2946
aS'love'
p2947
asg15
S'show some love'
p2948
sg17
S' reddit!'
p2949
sg19
Vdownvoting-roman
p2950
sg21
(lp2951
g2945
ag2946
ag2947
aS'reddit'
p2952
ag79
asg24
(lp2953
g2952
ag79
asba(iMeme
Meme
p2954
(dp2955
g3
(lp2956
S'lolololol'
p2957
asg15
S'lolololol'
p2958
sg17
S' aped for uchiha lord?'
p2959
sg19
Vdownvoting-roman
p2960
sg21
(lp2961
g2957
aS'aped'
p2962
aS'for'
p2963
aS'uchiha'
p2964
aS'lord'
p2965
ag34
asg24
(lp2966
g2962
ag2963
ag2964
ag2965
ag34
asba(iMeme
Meme
p2967
(dp2968
g3
(lp2969
S'cool'
p2970
asg15
S'cool'
p2971
sg17
S' a girl on reddit. lets check out your profile.'
p2972
sg19
Vdownvoting-roman
p2973
sg21
(lp2974
g2970
ag13
aS'girl'
p2975
aS'on'
p2976
aS'reddit'
p2977
ag226
aS'lets'
p2978
aS'check'
p2979
aS'out'
p2980
aS'your'
p2981
aS'profile'
p2982
ag226
asg24
(lp2983
g13
ag2975
ag2976
ag2977
ag226
ag2978
ag2979
ag2980
ag2981
ag2982
ag226
asba(iMeme
Meme
p2984
(dp2985
g3
(lp2986
g207
aS'dont'
p2987
aS'care'
p2988
aS'if'
p2989
aS'you'
p2990
aS'downvote'
p2991
aS'me'
p2992
asg15
S'i dont care if you downvote me'
p2993
sg17
S' good'
p2994
sg19
Vdownvoting-roman
p2995
sg21
(lp2996
g207
ag2987
ag2988
ag2989
ag2990
ag2991
ag2992
aS'good'
p2997
asg24
(lp2998
g2997
asba(iMeme
Meme
p2999
(dp3000
g3
(lp3001
S'we'
p3002
aS'found'
p3003
aS'dove'
p3004
asg15
S'we found dove'
p3005
sg17
S' in a soapless place'
p3006
sg19
Vdownvoting-roman
p3007
sg21
(lp3008
g3002
ag3003
ag3004
aS'in'
p3009
ag13
aS'soapless'
p3010
aS'place'
p3011
asg24
(lp3012
g3009
ag13
ag3010
ag3011
asba(iMeme
Meme
p3013
(dp3014
g3
(lp3015
S'its'
p3016
aS'your'
p3017
aS'wedding'
p3018
aS'day'
p3019
asg15
S'its your wedding day'
p3020
sg17
S' how sweet'
p3021
sg19
Vdownvoting-roman
p3022
sg21
(lp3023
g3016
ag3017
ag3018
ag3019
aS'how'
p3024
aS'sweet'
p3025
asg24
(lp3026
g3024
ag3025
asba(iMeme
Meme
p3027
(dp3028
g3
(lp3029
S'sardar'
p3030
aS'proposed'
p3031
ag13
aS'girl'
p3032
aS'girl'
p3033
aS'said'
p3034
aS'im'
p3035
aS'1'
p3036
aS'year'
p3037
aS'elder'
p3038
aS'to'
p3039
aS'you'
p3040
asg15
S'sardar proposed a girl girl said im 1 year elder to you'
p3041
sg17
S' sardar said oye no problem soniye'
p3042
sg19
Vdownvoting-roman
p3043
sg21
(lp3044
g3030
ag3031
ag13
ag3032
ag3033
ag3034
ag3035
ag3036
ag3037
ag3038
ag3039
ag3040
aS'sardar'
p3045
aS'said'
p3046
aS'oye'
p3047
aS'no'
p3048
aS'problem'
p3049
aS'soniye'
p3050
asg24
(lp3051
g3045
ag3046
ag3047
ag3048
ag3049
ag3050
asba(iMeme
Meme
p3052
(dp3053
g3
(lp3054
S'todays'
p3055
aS'my'
p3056
aS'birthday'
p3057
aS'reddit'
p3058
ag79
asg15
S'todays my birthday reddit!'
p3059
sg17
S' enjoy your present'
p3060
sg19
Vdownvoting-roman
p3061
sg21
(lp3062
g3055
ag3056
ag3057
ag3058
ag79
aS'enjoy'
p3063
aS'your'
p3064
aS'present'
p3065
asg24
(lp3066
g3063
ag3064
ag3065
asba(iMeme
Meme
p3067
(dp3068
g3
(lp3069
S'you'
p3070
aS'came'
p3071
aS'here'
p3072
aS'to'
p3073
aS'upvote'
p3074
aS'his'
p3075
aS'comment'
p3076
ag34
asg15
S'you came here to upvote his comment?'
p3077
sg17
S' i came here to destroy you'
p3078
sg19
Vdownvoting-roman
p3079
sg21
(lp3080
g3070
ag3071
ag3072
ag3073
ag3074
ag3075
ag3076
ag34
ag207
aS'came'
p3081
aS'here'
p3082
aS'to'
p3083
aS'destroy'
p3084
aS'you'
p3085
asg24
(lp3086
g207
ag3081
ag3082
ag3083
ag3084
ag3085
asba(iMeme
Meme
p3087
(dp3088
g3
(lp3089
S'spend'
p3090
aS'9'
p3091
aS'hours'
p3092
aS'downloading'
p3093
aS'dc'
p3094
aS'universe'
p3095
asg15
S'spend 9 hours downloading dc universe'
p3096
sg17
S' game doesnt work'
p3097
sg19
Vdownvoting-roman
p3098
sg21
(lp3099
g3090
ag3091
ag3092
ag3093
ag3094
ag3095
aS'game'
p3100
aS'doesnt'
p3101
aS'work'
p3102
asg24
(lp3103
g3100
ag3101
ag3102
asba(iMeme
Meme
p3104
(dp3105
g3
(lp3106
S'til'
p3107
asg15
S'til'
p3108
sg17
S' i already knew that'
p3109
sg19
Vdownvoting-roman
p3110
sg21
(lp3111
g3107
ag207
aS'already'
p3112
aS'knew'
p3113
aS'that'
p3114
asg24
(lp3115
g207
ag3112
ag3113
ag3114
asba(iMeme
Meme
p3116
(dp3117
g3
(lp3118
S'sees'
p3119
aS'koutelaki'
p3120
aS'naked'
p3121
asg15
S'sees koutelaki naked'
p3122
sg17
S' punished with death'
p3123
sg19
Vdownvoting-roman
p3124
sg21
(lp3125
g3119
ag3120
ag3121
aS'punished'
p3126
aS'with'
p3127
aS'death'
p3128
asg24
(lp3129
g3126
ag3127
ag3128
asba(iMeme
Meme
p3130
(dp3131
g3
(lp3132
g13
aS'story'
p3133
aS'about'
p3134
aS'you'
p3135
aS'being'
p3136
aS'friendzoned'
p3137
ag34
asg15
S'a story about you being friendzoned?'
p3138
sg17
S' not funny.'
p3139
sg19
Vdownvoting-roman
p3140
sg21
(lp3141
g13
ag3133
ag3134
ag3135
ag3136
ag3137
ag34
aS'not'
p3142
aS'funny'
p3143
ag226
asg24
(lp3144
g3142
ag3143
ag226
asba(iMeme
Meme
p3145
(dp3146
g3
(lp3147
S'this'
p3148
aS'is'
p3149
aS'how'
p3150
ag207
aS'feel'
p3151
aS'about'
p3152
asg15
S'this is how i feel about'
p3153
sg17
S' draks take care album cause its too pussy'
p3154
sg19
Vdownvoting-roman
p3155
sg21
(lp3156
g3148
ag3149
ag3150
ag207
ag3151
ag3152
aS'draks'
p3157
aS'take'
p3158
aS'care'
p3159
aS'album'
p3160
aS'cause'
p3161
aS'its'
p3162
aS'too'
p3163
aS'pussy'
p3164
asg24
(lp3165
g3157
ag3158
ag3159
ag3160
ag3161
ag3162
ag3163
ag3164
asba(iMeme
Meme
p3166
(dp3167
g3
(lp3168
S'your'
p3169
aS'girlfriend'
p3170
aS'made'
p3171
aS'this'
p3172
ag34
asg15
S'your girlfriend made this?'
p3173
sg17
S' instant downvote'
p3174
sg19
Vdownvoting-roman
p3175
sg21
(lp3176
g3169
ag3170
ag3171
ag3172
ag34
aS'instant'
p3177
aS'downvote'
p3178
asg24
(lp3179
g3177
ag3178
asba(iMeme
Meme
p3180
(dp3181
g3
(lp3182
S'the'
p3183
aS'vloasis'
p3184
aS'elite'
p3185
asg15
S'the vloasis elite'
p3186
sg17
S' disapproves of your liberal lesbianism'
p3187
sg19
Vdownvoting-roman
p3188
sg21
(lp3189
g3183
ag3184
ag3185
aS'disapproves'
p3190
aS'of'
p3191
aS'your'
p3192
aS'liberal'
p3193
aS'lesbianism'
p3194
asg24
(lp3195
g3190
ag3191
ag3192
ag3193
ag3194
asba(iMeme
Meme
p3196
(dp3197
g3
(lp3198
S'am'
p3199
ag207
aS'doing'
p3200
aS'this'
p3201
aS'right'
p3202
ag34
ag34
asg15
S'am i doing this right??'
p3203
sg17
S' no.'
p3204
sg19
Vdownvoting-roman
p3205
sg21
(lp3206
g3199
ag207
ag3200
ag3201
ag3202
ag34
ag34
aS'no'
p3207
ag226
asg24
(lp3208
g3207
ag226
asba(iMeme
Meme
p3209
(dp3210
g3
(lp3211
S'so'
p3212
aS'you'
p3213
aS'say'
p3214
aS'and'
p3215
aS'claim'
p3216
asg15
S'so you say and claim'
p3217
sg17
S' the people have spoken off with his head'
p3218
sg19
Vdownvoting-roman
p3219
sg21
(lp3220
g3212
ag3213
ag3214
ag3215
ag3216
aS'the'
p3221
aS'people'
p3222
aS'have'
p3223
aS'spoken'
p3224
aS'off'
p3225
aS'with'
p3226
aS'his'
p3227
aS'head'
p3228
asg24
(lp3229
g3221
ag3222
ag3223
ag3224
ag3225
ag3226
ag3227
ag3228
asba(iMeme
Meme
p3230
(dp3231
g3
(lp3232
g207
aS'dont'
p3233
aS'even'
p3234
aS'curr'
p3235
asg15
S'i dont even curr'
p3236
sg17
S' about your life'
p3237
sg19
Vdownvoting-roman
p3238
sg21
(lp3239
g207
ag3233
ag3234
ag3235
aS'about'
p3240
aS'your'
p3241
aS'life'
p3242
asg24
(lp3243
g3240
ag3241
ag3242
asba(iMeme
Meme
p3244
(dp3245
g3
(lp3246
S'your'
p3247
aS'dog'
p3248
aS'died'
p3249
aS'today'
p3250
ag34
asg15
S'your dog died today?'
p3251
sg17
S' let me help bury her'
p3252
sg19
Vdownvoting-roman
p3253
sg21
(lp3254
g3247
ag3248
ag3249
ag3250
ag34
aS'let'
p3255
aS'me'
p3256
aS'help'
p3257
aS'bury'
p3258
aS'her'
p3259
asg24
(lp3260
g3255
ag3256
ag3257
ag3258
ag3259
asba(iMeme
Meme
p3261
(dp3262
g3
(lp3263
S'how'
p3264
aS'she'
p3265
aS'dont'
p3266
aS'suck'
p3267
aS'dick'
p3268
asg15
S'how she dont suck dick'
p3269
sg17
S' but expect 4 me 2 eat her?'
p3270
sg19
Vdownvoting-roman
p3271
sg21
(lp3272
g3264
ag3265
ag3266
ag3267
ag3268
aS'but'
p3273
aS'expect'
p3274
aS'4'
p3275
aS'me'
p3276
aS'2'
p3277
aS'eat'
p3278
aS'her'
p3279
ag34
asg24
(lp3280
g3273
ag3274
ag3275
ag3276
ag3277
ag3278
ag3279
ag34
asba(iMeme
Meme
p3281
(dp3282
g3
(lp3283
S'sellimg'
p3284
aS'yemstafa'
p3285
ag34
asg15
S'sellimg yemstafa?'
p3286
sg17
S' i disapprove of this!'
p3287
sg19
Vdownvoting-roman
p3288
sg21
(lp3289
g3284
ag3285
ag34
ag207
aS'disapprove'
p3290
aS'of'
p3291
aS'this'
p3292
ag79
asg24
(lp3293
g207
ag3290
ag3291
ag3292
ag79
asba(iMeme
Meme
p3294
(dp3295
g3
(lp3296
S'this'
p3297
aS'is'
p3298
aS'my'
p3299
aS'dog'
p3300
asg15
S'this is my dog'
p3301
sg17
S' he just passed away today'
p3302
sg19
Vdownvoting-roman
p3303
sg21
(lp3304
g3297
ag3298
ag3299
ag3300
aS'he'
p3305
aS'just'
p3306
aS'passed'
p3307
aS'away'
p3308
aS'today'
p3309
asg24
(lp3310
g3305
ag3306
ag3307
ag3308
ag3309
asba(iMeme
Meme
p3311
(dp3312
g3
(lp3313
S'downvoting'
p3314
asg15
S'downvoting'
p3315
sg17
S' the new facebook'
p3316
sg19
Vdownvoting-roman
p3317
sg21
(lp3318
g3314
aS'the'
p3319
aS'new'
p3320
aS'facebook'
p3321
asg24
(lp3322
g3319
ag3320
ag3321
asba(iMeme
Meme
p3323
(dp3324
g3
(lp3325
g13
aS'post'
p3326
aS'about'
p3327
aS'getting'
p3328
aS'downvoted'
p3329
ag34
asg15
S'a post about getting downvoted?'
p3330
sg17
S' ill give you more to post about'
p3331
sg19
Vdownvoting-roman
p3332
sg21
(lp3333
g13
ag3326
ag3327
ag3328
ag3329
ag34
aS'ill'
p3334
aS'give'
p3335
aS'you'
p3336
aS'more'
p3337
aS'to'
p3338
aS'post'
p3339
aS'about'
p3340
asg24
(lp3341
g3334
ag3335
ag3336
ag3337
ag3338
ag3339
ag3340
asba(iMeme
Meme
p3342
(dp3343
g3
(lp3344
g207
aS'wake'
p3345
aS'up'
p3346
aS'to'
p3347
aS'this'
p3348
aS'every'
p3349
aS'day'
p3350
asg15
S'i wake up to this every day'
p3351
sg17
S' now you can wake up to this'
p3352
sg19
Vdownvoting-roman
p3353
sg21
(lp3354
g207
ag3345
ag3346
ag3347
ag3348
ag3349
ag3350
aS'now'
p3355
aS'you'
p3356
aS'can'
p3357
aS'wake'
p3358
aS'up'
p3359
aS'to'
p3360
aS'this'
p3361
asg24
(lp3362
g3355
ag3356
ag3357
ag3358
ag3359
ag3360
ag3361
asba(iMeme
Meme
p3363
(dp3364
g3
(lp3365
S'joaquin'
p3366
aS'phoenix'
p3367
aS'how'
p3368
aS'do'
p3369
aS'you'
p3370
aS'feel'
p3371
aS'about'
p3372
asg15
S'joaquin phoenix how do you feel about'
p3373
sg17
S' jeremys last 20 gifs?'
p3374
sg19
Vdownvoting-roman
p3375
sg21
(lp3376
g3366
ag3367
ag3368
ag3369
ag3370
ag3371
ag3372
aS'jeremys'
p3377
aS'last'
p3378
aS'20'
p3379
aS'gifs'
p3380
ag34
asg24
(lp3381
g3377
ag3378
ag3379
ag3380
ag34
asba(iMeme
Meme
p3382
(dp3383
g3
(lp3384
S'you'
p3385
aS'can'
p3386
aS'downvote'
p3387
aS'this'
p3388
aS'but'
p3389
asg15
S'you can downvote this but'
p3390
sg17
S' your welcome'
p3391
sg19
Vdownvoting-roman
p3392
sg21
(lp3393
g3385
ag3386
ag3387
ag3388
ag3389
aS'your'
p3394
aS'welcome'
p3395
asg24
(lp3396
g3394
ag3395
asba(iMeme
Meme
p3397
(dp3398
g3
(lp3399
g207
aS'hope'
p3400
aS'my'
p3401
aS'redditor'
p3402
aS'girlfriend'
p3403
aS'doesnt'
p3404
aS'see'
p3405
aS'this'
p3406
asg15
S'i hope my redditor girlfriend doesnt see this'
p3407
sg17
S' dont worry'
p3408
sg19
Vdownvoting-roman
p3409
sg21
(lp3410
g207
ag3400
ag3401
ag3402
ag3403
ag3404
ag3405
ag3406
aS'dont'
p3411
aS'worry'
p3412
asg24
(lp3413
g3411
ag3412
asba(iMeme
Meme
p3414
(dp3415
g3
(lp3416
S'kill'
p3417
aS'him'
p3418
ag79
ag79
ag79
asg15
S'kill him !!!'
p3419
sg17
S' he has 13er oberarme like fogel !'
p3420
sg19
Vdownvoting-roman
p3421
sg21
(lp3422
g3417
ag3418
ag79
ag79
ag79
aS'he'
p3423
aS'has'
p3424
aS'13er'
p3425
aS'oberarme'
p3426
aS'like'
p3427
aS'fogel'
p3428
ag79
asg24
(lp3429
g3423
ag3424
ag3425
ag3426
ag3427
ag3428
ag79
asba(iMeme
Meme
p3430
(dp3431
g3
(lp3432
S'makes'
p3433
ag13
aS'post'
p3434
aS'about'
p3435
aS'receiving'
p3436
aS'downvotes'
p3437
asg15
S'makes a post about receiving downvotes'
p3438
sg17
S' your failure shall not be used for success.'
p3439
sg19
Vdownvoting-roman
p3440
sg21
(lp3441
g3433
ag13
ag3434
ag3435
ag3436
ag3437
aS'your'
p3442
aS'failure'
p3443
aS'shall'
p3444
aS'not'
p3445
aS'be'
p3446
aS'used'
p3447
aS'for'
p3448
aS'success'
p3449
ag226
asg24
(lp3450
g3442
ag3443
ag3444
ag3445
ag3446
ag3447
ag3448
ag3449
ag226
asba(iMeme
Meme
p3451
(dp3452
g3
(lp3453
S'isma'
p3454
aS'dice'
p3455
aS'que'
p3456
asg15
S'isma dice que'
p3457
sg17
S' no'
p3458
sg19
Vdownvoting-roman
p3459
sg21
(lp3460
g3454
ag3455
ag3456
aS'no'
p3461
asg24
(lp3462
g3461
asba(iMeme
Meme
p3463
(dp3464
g3
(lp3465
S'makes'
p3466
ag13
aS'post'
p3467
aS'about'
p3468
aS'receiving'
p3469
aS'downvotes'
p3470
asg15
S'makes a post about receiving downvotes'
p3471
sg17
S' heres some more'
p3472
sg19
Vdownvoting-roman
p3473
sg21
(lp3474
g3466
ag13
ag3467
ag3468
ag3469
ag3470
aS'heres'
p3475
aS'some'
p3476
aS'more'
p3477
asg24
(lp3478
g3475
ag3476
ag3477
asba(iMeme
Meme
p3479
(dp3480
g3
(lp3481
S'you'
p3482
aS'want'
p3483
aS'downvotes'
p3484
ag34
asg15
S'you want downvotes?'
p3485
sg17
S' i happily aquiesce'
p3486
sg19
Vdownvoting-roman
p3487
sg21
(lp3488
g3482
ag3483
ag3484
ag34
ag207
aS'happily'
p3489
aS'aquiesce'
p3490
asg24
(lp3491
g207
ag3489
ag3490
asba(iMeme
Meme
p3492
(dp3493
g3
(lp3494
S'continuing'
p3495
aS'to'
p3496
aS'argue'
p3497
aS'about'
p3498
aS'greeks'
p3499
ag34
asg15
S'continuing to argue about greeks?'
p3500
sg17
S' try romans.'
p3501
sg19
Vdownvoting-roman
p3502
sg21
(lp3503
g3495
ag3496
ag3497
ag3498
ag3499
ag34
aS'try'
p3504
aS'romans'
p3505
ag226
asg24
(lp3506
g3504
ag3505
ag226
asba(iMeme
Meme
p3507
(dp3508
g3
(lp3509
g569
aS'first'
p3510
aS'post'
p3511
ag79
ag572
asg15
S'[first post!]'
p3512
sg17
S' first downvote'
p3513
sg19
Vdownvoting-roman
p3514
sg21
(lp3515
g569
ag3510
ag3511
ag79
ag572
aS'first'
p3516
aS'downvote'
p3517
asg24
(lp3518
g3516
ag3517
asba(iMeme
Meme
p3519
(dp3520
g3
(lp3521
g207
aS'just'
p3522
aS'signed'
p3523
aS'in'
p3524
aS'to'
p3525
aS'upvote'
p3526
aS'this'
p3527
asg15
S'i just signed in to upvote this'
p3528
sg17
S' funny'
p3529
sg19
Vdownvoting-roman
p3530
sg21
(lp3531
g207
ag3522
ag3523
ag3524
ag3525
ag3526
ag3527
aS'funny'
p3532
asg24
(lp3533
g3532
asba(iMeme
Meme
p3534
(dp3535
g3
(lp3536
S'edit'
p3537
ag489
aS'lol'
p3538
ag207
aS'cant'
p3539
aS'believe'
p3540
aS'this'
p3541
aS'is'
p3542
aS'my'
p3543
aS'most'
p3544
aS'upvoted'
p3545
aS'comment'
p3546
ag79
asg15
S'edit: lol i cant believe this is my most upvoted comment!'
p3547
sg17
S' let me fix that for you'
p3548
sg19
Vdownvoting-roman
p3549
sg21
(lp3550
g3537
ag489
ag3538
ag207
ag3539
ag3540
ag3541
ag3542
ag3543
ag3544
ag3545
ag3546
ag79
aS'let'
p3551
aS'me'
p3552
aS'fix'
p3553
aS'that'
p3554
aS'for'
p3555
aS'you'
p3556
asg24
(lp3557
g3551
ag3552
ag3553
ag3554
ag3555
ag3556
asba(iMeme
Meme
p3558
(dp3559
g3
(lp3560
S'how'
p3561
ag207
aS'feel'
p3562
aS'when'
p3563
ag207
aS'only'
p3564
aS'get'
p3565
aS'downvotes'
p3566
asg15
S'how i feel when i only get downvotes'
p3567
sg17
S' heres some more. youve earned them.'
p3568
sg19
Vdownvoting-roman
p3569
sg21
(lp3570
g3561
ag207
ag3562
ag3563
ag207
ag3564
ag3565
ag3566
aS'heres'
p3571
aS'some'
p3572
aS'more'
p3573
ag226
aS'youve'
p3574
aS'earned'
p3575
aS'them'
p3576
ag226
asg24
(lp3577
g3571
ag3572
ag3573
ag226
ag3574
ag3575
ag3576
ag226
asba(iMeme
Meme
p3578
(dp3579
g3
(lp3580
g207
aS'was'
p3581
ag207
aS'had'
p3582
aS'more'
p3583
aS'hands'
p3584
asg15
S'i was i had more hands'
p3585
sg17
S' so i could give those titties 4 thumbs down!'
p3586
sg19
Vdownvoting-roman
p3587
sg21
(lp3588
g207
ag3581
ag207
ag3582
ag3583
ag3584
aS'so'
p3589
ag207
aS'could'
p3590
aS'give'
p3591
aS'those'
p3592
aS'titties'
p3593
ag3275
aS'thumbs'
p3594
aS'down'
p3595
ag79
asg24
(lp3596
g3589
ag207
ag3590
ag3591
ag3592
ag3593
ag3275
ag3594
ag3595
ag79
asba(iMeme
Meme
p3597
(dp3598
g3
(lp3599
S'he'
p3600
aS'doesnt'
p3601
aS'like'
p3602
aS'turtles'
p3603
asg15
S'he doesnt like turtles'
p3604
sg17
S' finish him'
p3605
sg19
Vdownvoting-roman
p3606
sg21
(lp3607
g3600
ag3601
ag3602
ag3603
aS'finish'
p3608
aS'him'
p3609
asg24
(lp3610
g3608
ag3609
asba(iMeme
Meme
p3611
(dp3612
g3
(lp3613
S'parents'
p3614
aS'voice'
p3615
ag34
asg15
S'parents voice?'
p3616
sg17
S' i hope they understand sign language.'
p3617
sg19
Vdownvoting-roman
p3618
sg21
(lp3619
g3614
ag3615
ag34
ag207
aS'hope'
p3620
aS'they'
p3621
aS'understand'
p3622
aS'sign'
p3623
aS'language'
p3624
ag226
asg24
(lp3625
g207
ag3620
ag3621
ag3622
ag3623
ag3624
ag226
asba(iMeme
Meme
p3626
(dp3627
g3
(lp3628
S'yal'
p3629
aS'go'
p3630
aS'hard'
p3631
asg15
S'yal go hard'
p3632
sg17
S' i go smart. howzit working'
p3633
sg19
Vdownvoting-roman
p3634
sg21
(lp3635
g3629
ag3630
ag3631
ag207
aS'go'
p3636
aS'smart'
p3637
ag226
aS'howzit'
p3638
aS'working'
p3639
asg24
(lp3640
g207
ag3636
ag3637
ag226
ag3638
ag3639
asba(iMeme
Meme
p3641
(dp3642
g3
(lp3643
S'my'
p3644
aS'friend'
p3645
aS'made'
p3646
aS'this'
p3647
asg15
S'my friend made this'
p3648
sg17
S' she doesnt think its very good'
p3649
sg19
Vdownvoting-roman
p3650
sg21
(lp3651
g3644
ag3645
ag3646
ag3647
aS'she'
p3652
aS'doesnt'
p3653
aS'think'
p3654
aS'its'
p3655
aS'very'
p3656
aS'good'
p3657
asg24
(lp3658
g3652
ag3653
ag3654
ag3655
ag3656
ag3657
asba(iMeme
Meme
p3659
(dp3660
g3
(lp3661
S'as'
p3662
aS'touching'
p3663
aS'as'
p3664
aS'your'
p3665
aS'post'
p3666
aS'is'
p3667
asg15
S'as touching as your post is'
p3668
sg17
S' zero shits are given this day'
p3669
sg19
Vdownvoting-roman
p3670
sg21
(lp3671
g3662
ag3663
ag3664
ag3665
ag3666
ag3667
aS'zero'
p3672
aS'shits'
p3673
aS'are'
p3674
aS'given'
p3675
aS'this'
p3676
aS'day'
p3677
asg24
(lp3678
g3672
ag3673
ag3674
ag3675
ag3676
ag3677
asba(iMeme
Meme
p3679
(dp3680
g3
(lp3681
S'using'
p3682
aS'your'
p3683
aS'g'
p3684
aS'('
p3685
aS'f'
p3686
aS')'
p3687
aS'for'
p3688
aS'upvotes'
p3689
ag34
asg15
S'using your g(f) for upvotes?'
p3690
sg17
S' heres some of this shit instead.'
p3691
sg19
Vdownvoting-roman
p3692
sg21
(lp3693
g3682
ag3683
ag3684
ag3685
ag3686
ag3687
ag3688
ag3689
ag34
aS'heres'
p3694
aS'some'
p3695
aS'of'
p3696
aS'this'
p3697
aS'shit'
p3698
aS'instead'
p3699
ag226
asg24
(lp3700
g3694
ag3695
ag3696
ag3697
ag3698
ag3699
ag226
asba(iMeme
Meme
p3701
(dp3702
g3
(lp3703
g13
aS'comic'
p3704
aS'about'
p3705
aS'how'
p3706
aS'your'
p3707
aS'other'
p3708
aS'comics'
p3709
aS'got'
p3710
aS'downvoted'
p3711
ag34
asg15
S'a comic about how your other comics got downvoted?'
p3712
sg17
S' i wonder how this one will do'
p3713
sg19
Vdownvoting-roman
p3714
sg21
(lp3715
g13
ag3704
ag3705
ag3706
ag3707
ag3708
ag3709
ag3710
ag3711
ag34
ag207
aS'wonder'
p3716
aS'how'
p3717
aS'this'
p3718
aS'one'
p3719
aS'will'
p3720
aS'do'
p3721
asg24
(lp3722
g207
ag3716
ag3717
ag3718
ag3719
ag3720
ag3721
asba(iMeme
Meme
p3723
(dp3724
g3
(lp3725
S'justin'
p3726
aS'is'
p3727
ag13
aS'new'
p3728
aS'york'
p3729
aS'giants'
p3730
asg15
S'justin is a new york giants'
p3731
sg17
S' lover yikessssss he says eli  is the best  qb'
p3732
sg19
Vdownvoting-roman
p3733
sg21
(lp3734
g3726
ag3727
ag13
ag3728
ag3729
ag3730
aS'lover'
p3735
aS'yikessssss'
p3736
aS'he'
p3737
aS'says'
p3738
aS'eli'
p3739
aS'is'
p3740
aS'the'
p3741
aS'best'
p3742
aS'qb'
p3743
asg24
(lp3744
g3735
ag3736
ag3737
ag3738
ag3739
ag3740
ag3741
ag3742
ag3743
asba(iMeme
Meme
p3745
(dp3746
g3
(lp3747
S'keep'
p3748
aS'the'
p3749
aS'pale'
p3750
aS'horse'
p3751
aS'under'
p3752
asg15
S'keep the pale horse under'
p3753
sg17
S' the thumb israel'
p3754
sg19
Vdownvoting-roman
p3755
sg21
(lp3756
g3748
ag3749
ag3750
ag3751
ag3752
aS'the'
p3757
aS'thumb'
p3758
aS'israel'
p3759
asg24
(lp3760
g3757
ag3758
ag3759
asba(iMeme
Meme
p3761
(dp3762
g3
(lp3763
S'hey'
p3764
aS'girl'
p3765
asg15
S'hey girl'
p3766
sg17
S' guess what happens to assholes who'
p3767
sg19
Vdownvoting-roman
p3768
sg21
(lp3769
g3764
ag3765
aS'guess'
p3770
aS'what'
p3771
aS'happens'
p3772
aS'to'
p3773
aS'assholes'
p3774
aS'who'
p3775
asg24
(lp3776
g3770
ag3771
ag3772
ag3773
ag3774
ag3775
asba(iMeme
Meme
p3777
(dp3778
g3
(lp3779
S'experts'
p3780
aS'agree'
p3781
asg15
S'experts agree'
p3782
sg17
S' africa sucks'
p3783
sg19
Vdownvoting-roman
p3784
sg21
(lp3785
g3780
ag3781
aS'africa'
p3786
aS'sucks'
p3787
asg24
(lp3788
g3786
ag3787
asba(iMeme
Meme
p3789
(dp3790
g3
(lp3791
S'you'
p3792
aS'said'
p3793
aS'this'
p3794
aS'will'
p3795
aS'get'
p3796
aS'downvoted'
p3797
aS'to'
p3798
aS'hell'
p3799
ag34
asg15
S'you said this will get downvoted to hell?'
p3800
sg17
S' you were right'
p3801
sg19
Vdownvoting-roman
p3802
sg21
(lp3803
g3792
ag3793
ag3794
ag3795
ag3796
ag3797
ag3798
ag3799
ag34
aS'you'
p3804
aS'were'
p3805
aS'right'
p3806
asg24
(lp3807
g3804
ag3805
ag3806
asba(iMeme
Meme
p3808
(dp3809
g3
(lp3810
S'edit'
p3811
ag489
aS'omg'
p3812
aS'front'
p3813
aS'page'
p3814
ag79
aS'thanks'
p3815
aS'guys'
p3816
asg15
S'edit: omg front page! thanks guys'
p3817
sg17
S' omg downvote'
p3818
sg19
Vdownvoting-roman
p3819
sg21
(lp3820
g3811
ag489
ag3812
ag3813
ag3814
ag79
ag3815
ag3816
aS'omg'
p3821
aS'downvote'
p3822
asg24
(lp3823
g3821
ag3822
asba(iMeme
Meme
p3824
(dp3825
g3
(lp3826
S'so'
p3827
aS'youre'
p3828
aS'posting'
p3829
aS'about'
p3830
aS'getting'
p3831
aS'downvoted'
p3832
ag34
asg15
S'so youre posting about getting downvoted?'
p3833
sg17
S' there is probably a reason.'
p3834
sg19
Vdownvoting-roman
p3835
sg21
(lp3836
g3827
ag3828
ag3829
ag3830
ag3831
ag3832
ag34
aS'there'
p3837
aS'is'
p3838
aS'probably'
p3839
ag13
aS'reason'
p3840
ag226
asg24
(lp3841
g3837
ag3838
ag3839
ag13
ag3840
ag226
asba(iMeme
Meme
p3842
(dp3843
g3
(lp3844
S'edit'
p3845
ag489
aS'lol'
p3846
ag207
aS'cant'
p3847
aS'believe'
p3848
aS'this'
p3849
aS'is'
p3850
aS'my'
p3851
aS'most'
p3852
aS'upvoted'
p3853
aS'comment'
p3854
ag79
asg15
S'edit: lol i cant believe this is my most upvoted comment!'
p3855
sg17
S' neither can i'
p3856
sg19
Vdownvoting-roman
p3857
sg21
(lp3858
g3845
ag489
ag3846
ag207
ag3847
ag3848
ag3849
ag3850
ag3851
ag3852
ag3853
ag3854
ag79
aS'neither'
p3859
aS'can'
p3860
ag207
asg24
(lp3861
g3859
ag3860
ag207
asba(iMeme
Meme
p3862
(dp3863
g3
(lp3864
S'hey'
p3865
aS'girl'
p3866
asg15
S'hey girl'
p3867
sg17
S' guess what happens to assholes who live downstairs'
p3868
sg19
Vdownvoting-roman
p3869
sg21
(lp3870
g3865
ag3866
aS'guess'
p3871
aS'what'
p3872
aS'happens'
p3873
aS'to'
p3874
aS'assholes'
p3875
aS'who'
p3876
aS'live'
p3877
aS'downstairs'
p3878
asg24
(lp3879
g3871
ag3872
ag3873
ag3874
ag3875
ag3876
ag3877
ag3878
asba(iMeme
Meme
p3880
(dp3881
g3
(lp3882
S'yesterday'
p3883
ag207
aS'was'
p3884
ag13
aS'mere'
p3885
aS'rumpled'
p3886
aS'suit'
p3887
aS'lawyer'
p3888
asg15
S'yesterday i was a mere rumpled suit lawyer'
p3889
sg17
S' but today i am a social security alj and thus i am god'
p3890
sg19
Vdownvoting-roman
p3891
sg21
(lp3892
g3883
ag207
ag3884
ag13
ag3885
ag3886
ag3887
ag3888
aS'but'
p3893
aS'today'
p3894
ag207
aS'am'
p3895
ag13
aS'social'
p3896
aS'security'
p3897
aS'alj'
p3898
aS'and'
p3899
aS'thus'
p3900
ag207
aS'am'
p3901
aS'god'
p3902
asg24
(lp3903
g3893
ag3894
ag207
ag3895
ag13
ag3896
ag3897
ag3898
ag3899
ag3900
ag207
ag3901
ag3902
asba(iMeme
Meme
p3904
(dp3905
g3
(lp3906
S'real'
p3907
aS'bad'
p3908
aS'unedited'
p3909
aS'photo'
p3910
asg15
S'real bad unedited photo'
p3911
sg17
S' how right you are'
p3912
sg19
Vdownvoting-roman
p3913
sg21
(lp3914
g3907
ag3908
ag3909
ag3910
aS'how'
p3915
aS'right'
p3916
aS'you'
p3917
aS'are'
p3918
asg24
(lp3919
g3915
ag3916
ag3917
ag3918
asba(iMeme
Meme
p3920
(dp3921
g3
(lp3922
S'you'
p3923
aS'misbehaved'
p3924
asg15
S'you misbehaved'
p3925
sg17
S' now go to the gauntlet'
p3926
sg19
Vdownvoting-roman
p3927
sg21
(lp3928
g3923
ag3924
aS'now'
p3929
aS'go'
p3930
aS'to'
p3931
aS'the'
p3932
aS'gauntlet'
p3933
asg24
(lp3934
g3929
ag3930
ag3931
ag3932
ag3933
asba(iMeme
Meme
p3935
(dp3936
g3
(lp3937
S'why'
p3938
aS'the'
p3939
aS'downvotes'
p3940
ag34
asg15
S'why the downvotes?'
p3941
sg17
S' why the upvotes?'
p3942
sg19
Vdownvoting-roman
p3943
sg21
(lp3944
g3938
ag3939
ag3940
ag34
aS'why'
p3945
aS'the'
p3946
aS'upvotes'
p3947
ag34
asg24
(lp3948
g3945
ag3946
ag3947
ag34
asba(iMeme
Meme
p3949
(dp3950
g3
(lp3951
S'you'
p3952
aS'cant'
p3953
aS'upvote'
p3954
aS'him'
p3955
aS'enough'
p3956
ag34
asg15
S'you cant upvote him enough?'
p3957
sg17
S' i cant downvote you enough'
p3958
sg19
Vdownvoting-roman
p3959
sg21
(lp3960
g3952
ag3953
ag3954
ag3955
ag3956
ag34
ag207
aS'cant'
p3961
aS'downvote'
p3962
aS'you'
p3963
aS'enough'
p3964
asg24
(lp3965
g207
ag3961
ag3962
ag3963
ag3964
asba(iMeme
Meme
p3966
(dp3967
g3
(lp3968
S'now'
p3969
aS'you'
p3970
aS'shall'
p3971
aS'be'
p3972
aS'taken'
p3973
aS'to'
p3974
aS'the'
p3975
asg15
S'now you shall be taken to the'
p3976
sg17
S' gauntlet'
p3977
sg19
Vdownvoting-roman
p3978
sg21
(lp3979
g3969
ag3970
ag3971
ag3972
ag3973
ag3974
ag3975
aS'gauntlet'
p3980
asg24
(lp3981
g3980
asba(iMeme
Meme
p3982
(dp3983
g3
(lp3984
S'your'
p3985
aS'code'
p3986
asg15
S'your code'
p3987
sg17
S' it sucks'
p3988
sg19
Vdownvoting-roman
p3989
sg21
(lp3990
g3985
ag3986
aS'it'
p3991
aS'sucks'
p3992
asg24
(lp3993
g3991
ag3992
asba(iMeme
Meme
p3994
(dp3995
g3
(lp3996
S'you'
p3997
aS'showed'
p3998
aS'your'
p3999
aS'grandma'
p4000
aS'how'
p4001
aS'to'
p4002
aS'make'
p4003
ag13
aS'meme'
p4004
ag34
asg15
S'you showed your grandma how to make a meme?'
p4005
sg17
S' bullshit'
p4006
sg19
Vdownvoting-roman
p4007
sg21
(lp4008
g3997
ag3998
ag3999
ag4000
ag4001
ag4002
ag4003
ag13
ag4004
ag34
aS'bullshit'
p4009
asg24
(lp4010
g4009
asba(iMeme
Meme
p4011
(dp4012
g3
(lp4013
g207
aS'shall'
p4014
aS'not'
p4015
asg15
S'i shall not'
p4016
sg17
S' give any fucks'
p4017
sg19
Vdownvoting-roman
p4018
sg21
(lp4019
g207
ag4014
ag4015
aS'give'
p4020
aS'any'
p4021
aS'fucks'
p4022
asg24
(lp4023
g4020
ag4021
ag4022
asba(iMeme
Meme
p4024
(dp4025
g3
(lp4026
g207
aS'checked'
p4027
aS'it'
p4028
asg15
S'i checked it'
p4029
sg17
S' its lies'
p4030
sg19
Vdownvoting-roman
p4031
sg21
(lp4032
g207
ag4027
ag4028
aS'its'
p4033
aS'lies'
p4034
asg24
(lp4035
g4033
ag4034
asba(iMeme
Meme
p4036
(dp4037
g3
(lp4038
S'this'
p4039
aS'is'
p4040
aS'me'
p4041
asg15
S'this is me'
p4042
sg17
S' everytime i downvote your posts'
p4043
sg19
Vdownvoting-roman
p4044
sg21
(lp4045
g4039
ag4040
ag4041
aS'everytime'
p4046
ag207
aS'downvote'
p4047
aS'your'
p4048
aS'posts'
p4049
asg24
(lp4050
g4046
ag207
ag4047
ag4048
ag4049
asba(iMeme
Meme
p4051
(dp4052
g3
(lp4053
S'giving'
p4054
ag13
aS'fuck'
p4055
asg15
S'giving a fuck'
p4056
sg17
S' never been my style'
p4057
sg19
Vdownvoting-roman
p4058
sg21
(lp4059
g4054
ag13
ag4055
aS'never'
p4060
aS'been'
p4061
aS'my'
p4062
aS'style'
p4063
asg24
(lp4064
g4060
ag4061
ag4062
ag4063
asba(iMeme
Meme
p4065
(dp4066
g3
(lp4067
S'watched'
p4068
aS'twilight'
p4069
asg15
S'watched twilight'
p4070
sg17
S' decides meyers fate'
p4071
sg19
Vdownvoting-roman
p4072
sg21
(lp4073
g4068
ag4069
aS'decides'
p4074
aS'meyers'
p4075
aS'fate'
p4076
asg24
(lp4077
g4074
ag4075
ag4076
asba(iMeme
Meme
p4078
(dp4079
g3
(lp4080
S'matt'
p4081
aS'sitarski'
p4082
asg15
S'matt sitarski'
p4083
sg17
S' you suck!'
p4084
sg19
Vdownvoting-roman
p4085
sg21
(lp4086
g4081
ag4082
aS'you'
p4087
aS'suck'
p4088
ag79
asg24
(lp4089
g4087
ag4088
ag79
asba(iMeme
Meme
p4090
(dp4091
g3
(lp4092
S'be'
p4093
aS'nice'
p4094
aS'its'
p4095
aS'my'
p4096
aS'first'
p4097
aS'post'
p4098
asg15
S'be nice its my first post'
p4099
sg17
S' dont tell me what to do'
p4100
sg19
Vdownvoting-roman
p4101
sg21
(lp4102
g4093
ag4094
ag4095
ag4096
ag4097
ag4098
aS'dont'
p4103
aS'tell'
p4104
aS'me'
p4105
aS'what'
p4106
aS'to'
p4107
aS'do'
p4108
asg24
(lp4109
g4103
ag4104
ag4105
ag4106
ag4107
ag4108
asba(iMeme
Meme
p4110
(dp4111
g3
(lp4112
S'say'
p4113
aS'no'
p4114
asg15
S'say no'
p4115
sg17
S' to dumbness'
p4116
sg19
Vdownvoting-roman
p4117
sg21
(lp4118
g4113
ag4114
aS'to'
p4119
aS'dumbness'
p4120
asg24
(lp4121
g4119
ag4120
asba(iMeme
Meme
p4122
(dp4123
g3
(lp4124
S'this'
p4125
aS'kingdom'
p4126
ag79
asg15
S'this kingdom!'
p4127
sg17
S' will not be disgraced by ur mindless wobble bass'
p4128
sg19
Vdownvoting-roman
p4129
sg21
(lp4130
g4125
ag4126
ag79
aS'will'
p4131
aS'not'
p4132
aS'be'
p4133
aS'disgraced'
p4134
aS'by'
p4135
aS'ur'
p4136
aS'mindless'
p4137
aS'wobble'
p4138
aS'bass'
p4139
asg24
(lp4140
g4131
ag4132
ag4133
ag4134
ag4135
ag4136
ag4137
ag4138
ag4139
asba(iMeme
Meme
p4141
(dp4142
g3
(lp4143
S'experts'
p4144
aS'agree'
p4145
asg15
S'experts agree'
p4146
sg17
S' you suck'
p4147
sg19
Vdownvoting-roman
p4148
sg21
(lp4149
g4144
ag4145
aS'you'
p4150
aS'suck'
p4151
asg24
(lp4152
g4150
ag4151
asba(iMeme
Meme
p4153
(dp4154
g3
(lp4155
S'showed'
p4156
ag241
aS'year'
p4157
aS'old'
p4158
aS'cousin'
p4159
aS'the'
p4160
aS'rage'
p4161
aS'maker'
p4162
asg15
S'showed 8 year old cousin the rage maker'
p4163
sg17
S' his humor is limited'
p4164
sg19
Vdownvoting-roman
p4165
sg21
(lp4166
g4156
ag241
ag4157
ag4158
ag4159
ag4160
ag4161
ag4162
aS'his'
p4167
aS'humor'
p4168
aS'is'
p4169
aS'limited'
p4170
asg24
(lp4171
g4167
ag4168
ag4169
ag4170
asba(iMeme
Meme
p4172
(dp4173
g3
(lp4174
S'am'
p4175
ag207
aS'doing'
p4176
aS'it'
p4177
aS'right'
p4178
ag34
ag34
asg15
S'am i doing it right??'
p4179
sg17
S' no.'
p4180
sg19
Vdownvoting-roman
p4181
sg21
(lp4182
g4175
ag207
ag4176
ag4177
ag4178
ag34
ag34
aS'no'
p4183
ag226
asg24
(lp4184
g4183
ag226
asba(iMeme
Meme
p4185
(dp4186
g3
(lp4187
S'if'
p4188
aS'this'
p4189
aS'gets'
p4190
aS'50'
p4191
aS'upvotes'
p4192
aS'my'
p4193
aS'girlfriend'
p4194
aS'will'
p4195
aS'make'
p4196
aS'me'
p4197
ag13
aS'bowl'
p4198
aS'of'
p4199
aS'cerial'
p4200
asg15
S'if this gets 50 upvotes my girlfriend will make me a bowl of cerial'
p4201
sg17
S' how about 50 downvotes and a bowl of shut the fuck up'
p4202
sg19
Vdownvoting-roman
p4203
sg21
(lp4204
g4188
ag4189
ag4190
ag4191
ag4192
ag4193
ag4194
ag4195
ag4196
ag4197
ag13
ag4198
ag4199
ag4200
aS'how'
p4205
aS'about'
p4206
aS'50'
p4207
aS'downvotes'
p4208
aS'and'
p4209
ag13
aS'bowl'
p4210
aS'of'
p4211
aS'shut'
p4212
aS'the'
p4213
aS'fuck'
p4214
aS'up'
p4215
asg24
(lp4216
g4205
ag4206
ag4207
ag4208
ag4209
ag13
ag4210
ag4211
ag4212
ag4213
ag4214
ag4215
asba(iMeme
Meme
p4217
(dp4218
g3
(lp4219
S'you'
p4220
aS'logically'
p4221
aS'proved'
p4222
aS'me'
p4223
aS'wrong'
p4224
asg15
S'you logically proved me wrong'
p4225
sg17
S' downvote'
p4226
sg19
Vdownvoting-roman
p4227
sg21
(lp4228
g4220
ag4221
ag4222
ag4223
ag4224
aS'downvote'
p4229
asg24
(lp4230
g4229
asba(iMeme
Meme
p4231
(dp4232
g3
(lp4233
S'edit'
p4234
ag489
ag207
aS'didnt'
p4235
aS'expect'
p4236
aS'to'
p4237
aS'get'
p4238
aS'so'
p4239
aS'many'
p4240
aS'upvotes'
p4241
ag79
asg15
S'edit: i didnt expect to get so many upvotes!'
p4242
sg17
S' let me help you reach your expectations'
p4243
sg19
Vdownvoting-roman
p4244
sg21
(lp4245
g4234
ag489
ag207
ag4235
ag4236
ag4237
ag4238
ag4239
ag4240
ag4241
ag79
aS'let'
p4246
aS'me'
p4247
aS'help'
p4248
aS'you'
p4249
aS'reach'
p4250
aS'your'
p4251
aS'expectations'
p4252
asg24
(lp4253
g4246
ag4247
ag4248
ag4249
ag4250
ag4251
ag4252
asba(iMeme
Meme
p4254
(dp4255
g3
(lp4256
S'friend'
p4257
aS'youintroduced'
p4258
aS'to'
p4259
aS'reddit'
p4260
aS'has'
p4261
aS'more'
p4262
aS'karma'
p4263
aS'than'
p4264
aS'you'
p4265
asg15
S'friend youintroduced to reddit has more karma than you'
p4266
sg17
S' too bad'
p4267
sg19
Vdownvoting-roman
p4268
sg21
(lp4269
g4257
ag4258
ag4259
ag4260
ag4261
ag4262
ag4263
ag4264
ag4265
aS'too'
p4270
aS'bad'
p4271
asg24
(lp4272
g4270
ag4271
asba(iMeme
Meme
p4273
(dp4274
g3
(lp4275
S'double'
p4276
aS'karma'
p4277
ag34
asg15
S'double karma?'
p4278
sg17
S' double downvotes!'
p4279
sg19
Vdownvoting-roman
p4280
sg21
(lp4281
g4276
ag4277
ag34
aS'double'
p4282
aS'downvotes'
p4283
ag79
asg24
(lp4284
g4282
ag4283
ag79
asba(iMeme
Meme
p4285
(dp4286
g3
(lp4287
S'who'
p4288
aS'the'
p4289
aS'fuck'
p4290
asg15
S'who the fuck'
p4291
sg17
S' are man united?'
p4292
sg19
Vdownvoting-roman
p4293
sg21
(lp4294
g4288
ag4289
ag4290
aS'are'
p4295
aS'man'
p4296
aS'united'
p4297
ag34
asg24
(lp4298
g4295
ag4296
ag4297
ag34
asba(iMeme
Meme
p4299
(dp4300
g3
(lp4301
S'if'
p4302
aS'you'
p4303
aS'mess'
p4304
aS'with'
p4305
aS'hcm'
p4306
aS'roles'
p4307
asg15
S'if you mess with hcm roles'
p4308
sg17
S' youre screwed!'
p4309
sg19
Vdownvoting-roman
p4310
sg21
(lp4311
g4302
ag4303
ag4304
ag4305
ag4306
ag4307
aS'youre'
p4312
aS'screwed'
p4313
ag79
asg24
(lp4314
g4312
ag4313
ag79
asba(iMeme
Meme
p4315
(dp4316
g3
(lp4317
S'hombre'
p4318
aS'de'
p4319
aS'nutricion'
p4320
aS'que'
p4321
aS'no'
p4322
aS'se'
p4323
aS'echa'
p4324
aS'ramos'
p4325
aS'wnes'
p4326
ag34
asg15
S'hombre de nutricion que no se echa ramos wnes?'
p4327
sg17
S' a los leones por no seguir la tradicion'
p4328
sg19
Vdownvoting-roman
p4329
sg21
(lp4330
g4318
ag4319
ag4320
ag4321
ag4322
ag4323
ag4324
ag4325
ag4326
ag34
ag13
aS'los'
p4331
aS'leones'
p4332
aS'por'
p4333
aS'no'
p4334
aS'seguir'
p4335
aS'la'
p4336
aS'tradicion'
p4337
asg24
(lp4338
g13
ag4331
ag4332
ag4333
ag4334
ag4335
ag4336
ag4337
asba(iMeme
Meme
p4339
(dp4340
g3
(lp4341
S'you'
p4342
aS'only'
p4343
aS'live'
p4344
aS'once'
p4345
ag34
asg15
S'you only live once?'
p4346
sg17
S' lets test that theory'
p4347
sg19
Vdownvoting-roman
p4348
sg21
(lp4349
g4342
ag4343
ag4344
ag4345
ag34
aS'lets'
p4350
aS'test'
p4351
aS'that'
p4352
aS'theory'
p4353
asg24
(lp4354
g4350
ag4351
ag4352
ag4353
asba(iMeme
Meme
p4355
(dp4356
g3
(lp4357
S'reaction'
p4358
aS'to'
p4359
aS'helicopterjim'
p4360
aS'and'
p4361
aS'freddie..'
p4362
asg15
S'reaction to helicopterjim and freddie..'
p4363
sg17
S' downvote!'
p4364
sg19
Vdownvoting-roman
p4365
sg21
(lp4366
g4358
ag4359
ag4360
ag4361
ag4362
aS'downvote'
p4367
ag79
asg24
(lp4368
g4367
ag79
asba(iMeme
Meme
p4369
(dp4370
g3
(lp4371
S'oh'
p4372
aS'you'
p4373
aS'rescued'
p4374
aS'that'
p4375
aS'kitten'
p4376
aS'from'
p4377
aS'jabbas'
p4378
aS'sand'
p4379
aS'barge'
p4380
asg15
S'oh you rescued that kitten from jabbas sand barge'
p4381
sg17
S' why dont i direct you to a shelter.'
p4382
sg19
Vdownvoting-roman
p4383
sg21
(lp4384
g4372
ag4373
ag4374
ag4375
ag4376
ag4377
ag4378
ag4379
ag4380
aS'why'
p4385
aS'dont'
p4386
ag207
aS'direct'
p4387
aS'you'
p4388
aS'to'
p4389
ag13
aS'shelter'
p4390
ag226
asg24
(lp4391
g4385
ag4386
ag207
ag4387
ag4388
ag4389
ag13
ag4390
ag226
asba(iMeme
Meme
p4392
(dp4393
g3
(lp4394
S'meekro'
p4395
asg15
S'meekro'
p4396
sg17
S' has made his opinion clear on this matter.'
p4397
sg19
Vdownvoting-roman
p4398
sg21
(lp4399
g4395
aS'has'
p4400
aS'made'
p4401
aS'his'
p4402
aS'opinion'
p4403
aS'clear'
p4404
aS'on'
p4405
aS'this'
p4406
aS'matter'
p4407
ag226
asg24
(lp4408
g4400
ag4401
ag4402
ag4403
ag4404
ag4405
ag4406
ag4407
ag226
asba(iMeme
Meme
p4409
(dp4410
g3
(lp4411
S'my'
p4412
aS'last'
p4413
aS'post'
p4414
aS'didnt'
p4415
aS'get'
p4416
aS'much'
p4417
aS'love'
p4418
asg15
S'my last post didnt get much love'
p4419
sg17
S' neither will this one.'
p4420
sg19
Vdownvoting-roman
p4421
sg21
(lp4422
g4412
ag4413
ag4414
ag4415
ag4416
ag4417
ag4418
aS'neither'
p4423
aS'will'
p4424
aS'this'
p4425
aS'one'
p4426
ag226
asg24
(lp4427
g4423
ag4424
ag4425
ag4426
ag226
asba(iMeme
Meme
p4428
(dp4429
g3
(lp4430
S'you'
p4431
aS'misbehaved'
p4432
asg15
S'you misbehaved'
p4433
sg17
S' time to put you in the gauntlet'
p4434
sg19
Vdownvoting-roman
p4435
sg21
(lp4436
g4431
ag4432
aS'time'
p4437
aS'to'
p4438
aS'put'
p4439
aS'you'
p4440
aS'in'
p4441
aS'the'
p4442
aS'gauntlet'
p4443
asg24
(lp4444
g4437
ag4438
ag4439
ag4440
ag4441
ag4442
ag4443
asba(iMeme
Meme
p4445
(dp4446
g3
(lp4447
S'no'
p4448
aS'posts'
p4449
aS'on'
p4450
aS'my'
p4451
aS'picture'
p4452
asg15
S'no posts on my picture'
p4453
sg17
S' i downvote theirs'
p4454
sg19
Vdownvoting-roman
p4455
sg21
(lp4456
g4448
ag4449
ag4450
ag4451
ag4452
ag207
aS'downvote'
p4457
aS'theirs'
p4458
asg24
(lp4459
g207
ag4457
ag4458
asba(iMeme
Meme
p4460
(dp4461
g3
(lp4462
S'yal'
p4463
aS'go'
p4464
aS'hard'
p4465
asg15
S'yal go hard'
p4466
sg17
S' i go smart. howit working'
p4467
sg19
Vdownvoting-roman
p4468
sg21
(lp4469
g4463
ag4464
ag4465
ag207
aS'go'
p4470
aS'smart'
p4471
ag226
aS'howit'
p4472
aS'working'
p4473
asg24
(lp4474
g207
ag4470
ag4471
ag226
ag4472
ag4473
asba(iMeme
Meme
p4475
(dp4476
g3
(lp4477
S'you'
p4478
aS'misbehaved'
p4479
asg15
S'you misbehaved'
p4480
sg17
S' so we shall throw you into the gauntlet'
p4481
sg19
Vdownvoting-roman
p4482
sg21
(lp4483
g4478
ag4479
aS'so'
p4484
aS'we'
p4485
aS'shall'
p4486
aS'throw'
p4487
aS'you'
p4488
aS'into'
p4489
aS'the'
p4490
aS'gauntlet'
p4491
asg24
(lp4492
g4484
ag4485
ag4486
ag4487
ag4488
ag4489
ag4490
ag4491
asba(iMeme
Meme
p4493
(dp4494
g3
(lp4495
S'show'
p4496
aS'some'
p4497
aS'love'
p4498
asg15
S'show some love'
p4499
sg17
S' reddit!'
p4500
sg19
Vdownvoting-roman
p4501
sg21
(lp4502
g4496
ag4497
ag4498
aS'reddit'
p4503
ag79
asg24
(lp4504
g4503
ag79
asba(iMeme
Meme
p4505
(dp4506
g3
(lp4507
S'im'
p4508
aS'sure'
p4509
aS'this'
p4510
aS'has'
p4511
aS'been'
p4512
aS'posted'
p4513
aS'before'
p4514
asg15
S'im sure this has been posted before'
p4515
sg17
S' im sure youre right'
p4516
sg19
Vdownvoting-roman
p4517
sg21
(lp4518
g4508
ag4509
ag4510
ag4511
ag4512
ag4513
ag4514
aS'im'
p4519
aS'sure'
p4520
aS'youre'
p4521
aS'right'
p4522
asg24
(lp4523
g4519
ag4520
ag4521
ag4522
asba(iMeme
Meme
p4524
(dp4525
g3
(lp4526
S'perfection'
p4527
aS'is'
p4528
aS'boring'
p4529
ag34
asg15
S'perfection is boring?'
p4530
sg17
S' prepare to be excited'
p4531
sg19
Vdownvoting-roman
p4532
sg21
(lp4533
g4527
ag4528
ag4529
ag34
aS'prepare'
p4534
aS'to'
p4535
aS'be'
p4536
aS'excited'
p4537
asg24
(lp4538
g4534
ag4535
ag4536
ag4537
asba(iMeme
Meme
p4539
(dp4540
g3
(lp4541
S'should'
p4542
aS'obama'
p4543
aS'be'
p4544
aS'reelected'
p4545
ag34
asg15
S'should obama be reelected?'
p4546
sg17
S' the citizens say no.'
p4547
sg19
Vdownvoting-roman
p4548
sg21
(lp4549
g4542
ag4543
ag4544
ag4545
ag34
aS'the'
p4550
aS'citizens'
p4551
aS'say'
p4552
aS'no'
p4553
ag226
asg24
(lp4554
g4550
ag4551
ag4552
ag4553
ag226
asba(iMeme
Meme
p4555
(dp4556
g3
(lp4557
S'oh'
p4558
asg15
S'oh'
p4559
sg17
S' you made a mistake and would like to apologize?'
p4560
sg19
Vdownvoting-roman
p4561
sg21
(lp4562
g4558
aS'you'
p4563
aS'made'
p4564
ag13
aS'mistake'
p4565
aS'and'
p4566
aS'would'
p4567
aS'like'
p4568
aS'to'
p4569
aS'apologize'
p4570
ag34
asg24
(lp4571
g4563
ag4564
ag13
ag4565
ag4566
ag4567
ag4568
ag4569
ag4570
ag34
asba(iMeme
Meme
p4572
(dp4573
g3
(lp4574
S'phillips'
p4575
aS'new'
p4576
aS'girlfriend'
p4577
ag34
asg15
S'phillips new girlfriend?'
p4578
sg17
S' priscilla says'
p4579
sg19
Vdownvoting-roman
p4580
sg21
(lp4581
g4575
ag4576
ag4577
ag34
aS'priscilla'
p4582
aS'says'
p4583
asg24
(lp4584
g4582
ag4583
asba(iMeme
Meme
p4585
(dp4586
g3
(lp4587
S'different'
p4588
aS'subreddit'
p4589
aS'didnt'
p4590
aS'give'
p4591
aS'you'
p4592
aS'love'
p4593
ag34
asg15
S'different subreddit didnt give you love?'
p4594
sg17
S' you only get one chance!'
p4595
sg19
Vdownvoting-roman
p4596
sg21
(lp4597
g4588
ag4589
ag4590
ag4591
ag4592
ag4593
ag34
aS'you'
p4598
aS'only'
p4599
aS'get'
p4600
aS'one'
p4601
aS'chance'
p4602
ag79
asg24
(lp4603
g4598
ag4599
ag4600
ag4601
ag4602
ag79
asba(iMeme
Meme
p4604
(dp4605
g3
(lp4606
S'oh'
p4607
asg15
S'oh'
p4608
sg17
S' you flipped something upside down and called it australian?'
p4609
sg19
Vdownvoting-roman
p4610
sg21
(lp4611
g4607
aS'you'
p4612
aS'flipped'
p4613
aS'something'
p4614
aS'upside'
p4615
aS'down'
p4616
aS'and'
p4617
aS'called'
p4618
aS'it'
p4619
aS'australian'
p4620
ag34
asg24
(lp4621
g4612
ag4613
ag4614
ag4615
ag4616
ag4617
ag4618
ag4619
ag4620
ag34
asba(iMeme
Meme
p4622
(dp4623
g3
(lp4624
S'how'
p4625
aS'was'
p4626
aS'that'
p4627
aS'shit'
p4628
aS'you'
p4629
aS'bought'
p4630
aS'from'
p4631
aS'austin'
p4632
asg15
S'how was that shit you bought from austin'
p4633
sg17
S' .'
p4634
sg19
Vdownvoting-roman
p4635
sg21
(lp4636
g4625
ag4626
ag4627
ag4628
ag4629
ag4630
ag4631
ag4632
ag226
asg24
(lp4637
g226
asba(iMeme
Meme
p4638
(dp4639
g3
(lp4640
S'you'
p4641
aS'misbehaved'
p4642
asg15
S'you misbehaved'
p4643
sg17
S' you shall be thrown into the gauntlet'
p4644
sg19
Vdownvoting-roman
p4645
sg21
(lp4646
g4641
ag4642
aS'you'
p4647
aS'shall'
p4648
aS'be'
p4649
aS'thrown'
p4650
aS'into'
p4651
aS'the'
p4652
aS'gauntlet'
p4653
asg24
(lp4654
g4647
ag4648
ag4649
ag4650
ag4651
ag4652
ag4653
asba(iMeme
Meme
p4655
(dp4656
g3
(lp4657
g207
aS'know'
p4658
aS'this'
p4659
aS'will'
p4660
aS'get'
p4661
aS'vuried'
p4662
asg15
S'i know this will get vuried'
p4663
sg17
S' how right you are'
p4664
sg19
Vdownvoting-roman
p4665
sg21
(lp4666
g207
ag4658
ag4659
ag4660
ag4661
ag4662
aS'how'
p4667
aS'right'
p4668
aS'you'
p4669
aS'are'
p4670
asg24
(lp4671
g4667
ag4668
ag4669
ag4670
asba(iMeme
Meme
p4672
(dp4673
g3
(lp4674
S'this'
p4675
aS'is'
p4676
aS'what'
p4677
aS'happens'
p4678
asg15
S'this is what happens'
p4679
sg17
S' when you dont vote for meztli'
p4680
sg19
Vdownvoting-roman
p4681
sg21
(lp4682
g4675
ag4676
ag4677
ag4678
aS'when'
p4683
aS'you'
p4684
aS'dont'
p4685
aS'vote'
p4686
aS'for'
p4687
aS'meztli'
p4688
asg24
(lp4689
g4683
ag4684
ag4685
ag4686
ag4687
ag4688
asba(iMeme
Meme
p4690
(dp4691
g3
(lp4692
S'team'
p4693
aS'member'
p4694
aS'kills'
p4695
aS'perfect'
p4696
aS'attendance'
p4697
ag34
asg15
S'team member kills perfect attendance?'
p4698
sg17
S' kill team member'
p4699
sg19
Vdownvoting-roman
p4700
sg21
(lp4701
g4693
ag4694
ag4695
ag4696
ag4697
ag34
aS'kill'
p4702
aS'team'
p4703
aS'member'
p4704
asg24
(lp4705
g4702
ag4703
ag4704
asba(iMeme
Meme
p4706
(dp4707
g3
(lp4708
S'for'
p4709
aS'every'
p4710
aS'10'
p4711
aS'upvotes'
p4712
ag207
aS'will'
p4713
aS'donate'
p4714
ag976
aS'10'
p4715
aS'to'
p4716
ag13
aS'soup'
p4717
aS'kitchen'
p4718
asg15
S'for every 10 upvotes i will donate $10 to a soup kitchen'
p4719
sg17
S' looks like theyll starve'
p4720
sg19
Vdownvoting-roman
p4721
sg21
(lp4722
g4709
ag4710
ag4711
ag4712
ag207
ag4713
ag4714
ag976
ag4715
ag4716
ag13
ag4717
ag4718
aS'looks'
p4723
aS'like'
p4724
aS'theyll'
p4725
aS'starve'
p4726
asg24
(lp4727
g4723
ag4724
ag4725
ag4726
asba(iMeme
Meme
p4728
(dp4729
g3
(lp4730
S'your'
p4731
aS'team'
p4732
asg15
S'your team'
p4733
sg17
S' still going down'
p4734
sg19
Vdownvoting-roman
p4735
sg21
(lp4736
g4731
ag4732
aS'still'
p4737
aS'going'
p4738
aS'down'
p4739
asg24
(lp4740
g4737
ag4738
ag4739
asba(iMeme
Meme
p4741
(dp4742
g3
(lp4743
S'welcome'
p4744
asg15
S'welcome'
p4745
sg17
S' to the fiscal cliff'
p4746
sg19
Vdownvoting-roman
p4747
sg21
(lp4748
g4744
aS'to'
p4749
aS'the'
p4750
aS'fiscal'
p4751
aS'cliff'
p4752
asg24
(lp4753
g4749
ag4750
ag4751
ag4752
asba(iMeme
Meme
p4754
(dp4755
g3
(lp4756
S'getting'
p4757
aS'ready'
p4758
aS'for'
p4759
aS'collegefest'
p4760
asg15
S'getting ready for collegefest'
p4761
sg17
S' get ready for this.'
p4762
sg19
Vdownvoting-roman
p4763
sg21
(lp4764
g4757
ag4758
ag4759
ag4760
aS'get'
p4765
aS'ready'
p4766
aS'for'
p4767
aS'this'
p4768
ag226
asg24
(lp4769
g4765
ag4766
ag4767
ag4768
ag226
asba(iMeme
Meme
p4770
(dp4771
g3
(lp4772
S'you'
p4773
aS'shall'
p4774
aS'be'
p4775
aS'taken'
p4776
aS'to'
p4777
aS'the'
p4778
asg15
S'you shall be taken to the'
p4779
sg17
S' gauntlet'
p4780
sg19
Vdownvoting-roman
p4781
sg21
(lp4782
g4773
ag4774
ag4775
ag4776
ag4777
ag4778
aS'gauntlet'
p4783
asg24
(lp4784
g4783
asba(iMeme
Meme
p4785
(dp4786
g3
(lp4787
S'makes'
p4788
ag13
aS'topic'
p4789
aS'about'
p4790
aS'staff'
p4791
asg15
S'makes a topic about staff'
p4792
sg17
S' have some more'
p4793
sg19
Vdownvoting-roman
p4794
sg21
(lp4795
g4788
ag13
ag4789
ag4790
ag4791
aS'have'
p4796
aS'some'
p4797
aS'more'
p4798
asg24
(lp4799
g4796
ag4797
ag4798
asba(iMeme
Meme
p4800
(dp4801
g3
(lp4802
g207
aS'dont'
p4803
aS'support'
p4804
aS'the'
p4805
aS'selecta'
p4806
aS'either'
p4807
asg15
S'i dont support the selecta either'
p4808
sg17
S' so guess what ?'
p4809
sg19
Vdownvoting-roman
p4810
sg21
(lp4811
g207
ag4803
ag4804
ag4805
ag4806
ag4807
aS'so'
p4812
aS'guess'
p4813
aS'what'
p4814
ag34
asg24
(lp4815
g4812
ag4813
ag4814
ag34
asba(iMeme
Meme
p4816
(dp4817
g3
(lp4818
S'thanks'
p4819
aS'for'
p4820
aS'the'
p4821
aS'love'
p4822
aS'guys'
p4823
asg15
S'thanks for the love guys'
p4824
sg17
S' now you die'
p4825
sg19
Vdownvoting-roman
p4826
sg21
(lp4827
g4819
ag4820
ag4821
ag4822
ag4823
aS'now'
p4828
aS'you'
p4829
aS'die'
p4830
asg24
(lp4831
g4828
ag4829
ag4830
asba(iMeme
Meme
p4832
(dp4833
g3
(lp4834
S'when'
p4835
aS'the'
p4836
aS'third'
p4837
aS'line'
p4838
asg15
S'when the third line'
p4839
sg17
S' is to back home'
p4840
sg19
Vdownvoting-roman
p4841
sg21
(lp4842
g4835
ag4836
ag4837
ag4838
aS'is'
p4843
aS'to'
p4844
aS'back'
p4845
aS'home'
p4846
asg24
(lp4847
g4843
ag4844
ag4845
ag4846
asba(iMeme
Meme
p4848
(dp4849
g3
(lp4850
S'you'
p4851
aS'say'
p4852
aS'this'
p4853
aS'will'
p4854
aS'get'
p4855
aS'downvoted'
p4856
aS'to'
p4857
aS'hell'
p4858
asg15
S'you say this will get downvoted to hell'
p4859
sg17
S' you were right'
p4860
sg19
Vdownvoting-roman
p4861
sg21
(lp4862
g4851
ag4852
ag4853
ag4854
ag4855
ag4856
ag4857
ag4858
aS'you'
p4863
aS'were'
p4864
aS'right'
p4865
asg24
(lp4866
g4863
ag4864
ag4865
asba(iMeme
Meme
p4867
(dp4868
g3
(lp4869
S'happy'
p4870
aS'that'
p4871
aS'you'
p4872
aS'made'
p4873
aS'the'
p4874
aS'front'
p4875
aS'page'
p4876
ag34
asg15
S'happy that you made the front page?'
p4877
sg17
S' heres something to put you back to reality'
p4878
sg19
Vdownvoting-roman
p4879
sg21
(lp4880
g4870
ag4871
ag4872
ag4873
ag4874
ag4875
ag4876
ag34
aS'heres'
p4881
aS'something'
p4882
aS'to'
p4883
aS'put'
p4884
aS'you'
p4885
aS'back'
p4886
aS'to'
p4887
aS'reality'
p4888
asg24
(lp4889
g4881
ag4882
ag4883
ag4884
ag4885
ag4886
ag4887
ag4888
asba(iMeme
Meme
p4890
(dp4891
g3
(lp4892
S'post'
p4893
aS'this'
p4894
aS'meme'
p4895
aS'on'
p4896
aS'reddit'
p4897
asg15
S'post this meme on reddit'
p4898
sg17
S' i dare you'
p4899
sg19
Vdownvoting-roman
p4900
sg21
(lp4901
g4893
ag4894
ag4895
ag4896
ag4897
ag207
aS'dare'
p4902
aS'you'
p4903
asg24
(lp4904
g207
ag4902
ag4903
asba(iMeme
Meme
p4905
(dp4906
g3
(lp4907
S'different'
p4908
aS'subreddit'
p4909
aS'didnt'
p4910
aS'give'
p4911
aS'you'
p4912
aS'love'
p4913
ag34
asg15
S'different subreddit didnt give you love?'
p4914
sg17
S' here'
p4915
sg19
Vdownvoting-roman
p4916
sg21
(lp4917
g4908
ag4909
ag4910
ag4911
ag4912
ag4913
ag34
aS'here'
p4918
asg24
(lp4919
g4918
asba(iMeme
Meme
p4920
(dp4921
g3
(lp4922
S'you'
p4923
aS'misbehaved'
p4924
asg15
S'you misbehaved'
p4925
sg17
S' now you shall be taken to the gauntlet'
p4926
sg19
Vdownvoting-roman
p4927
sg21
(lp4928
g4923
ag4924
aS'now'
p4929
aS'you'
p4930
aS'shall'
p4931
aS'be'
p4932
aS'taken'
p4933
aS'to'
p4934
aS'the'
p4935
aS'gauntlet'
p4936
asg24
(lp4937
g4929
ag4930
ag4931
ag4932
ag4933
ag4934
ag4935
ag4936
asba(iMeme
Meme
p4938
(dp4939
g3
(lp4940
S'yall'
p4941
aS'go'
p4942
aS'hard'
p4943
asg15
S'yall go hard'
p4944
sg17
S' i go smart. howzit working out'
p4945
sg19
Vdownvoting-roman
p4946
sg21
(lp4947
g4941
ag4942
ag4943
ag207
aS'go'
p4948
aS'smart'
p4949
ag226
aS'howzit'
p4950
aS'working'
p4951
aS'out'
p4952
asg24
(lp4953
g207
ag4948
ag4949
ag226
ag4950
ag4951
ag4952
asba(iMeme
Meme
p4954
(dp4955
g3
(lp4956
S'look'
p4957
aS'at'
p4958
aS'this'
p4959
aS'little'
p4960
aS'gem'
p4961
ag207
asg15
S'look at this little gem i'
p4962
sg17
S' downvoted'
p4963
sg19
Vdownvoting-roman
p4964
sg21
(lp4965
g4957
ag4958
ag4959
ag4960
ag4961
ag207
aS'downvoted'
p4966
asg24
(lp4967
g4966
asba(iMeme
Meme
p4968
(dp4969
g3
(lp4970
S'gig'
p4971
aS'em'
p4972
asg15
S'gig em'
p4973
sg17
S' gig this'
p4974
sg19
Vdownvoting-roman
p4975
sg21
(lp4976
g4971
ag4972
aS'gig'
p4977
aS'this'
p4978
asg24
(lp4979
g4977
ag4978
asba(iMeme
Meme
p4980
(dp4981
g3
(lp4982
S'hr'
p4983
aS'never'
p4984
aS'told'
p4985
aS'you'
p4986
aS'about'
p4987
aS'the'
p4988
aS'leaver'
p4989
asg15
S'hr never told you about the leaver'
p4990
sg17
S' does this look like the face of someone who cares'
p4991
sg19
Vdownvoting-roman
p4992
sg21
(lp4993
g4983
ag4984
ag4985
ag4986
ag4987
ag4988
ag4989
aS'does'
p4994
aS'this'
p4995
aS'look'
p4996
aS'like'
p4997
aS'the'
p4998
aS'face'
p4999
aS'of'
p5000
aS'someone'
p5001
aS'who'
p5002
aS'cares'
p5003
asg24
(lp5004
g4994
ag4995
ag4996
ag4997
ag4998
ag4999
ag5000
ag5001
ag5002
ag5003
asba(iMeme
Meme
p5005
(dp5006
g3
(lp5007
S'my'
p5008
aS'opinion'
p5009
aS'on'
p5010
aS'your'
p5011
aS'first'
p5012
aS'photoshop'
p5013
aS'you'
p5014
aS'posted'
p5015
aS'on'
p5016
aS'/r/pics'
p5017
ag34
asg15
S'my opinion on your first photoshop you posted on /r/pics?'
p5018
sg17
S' here you go.'
p5019
sg19
Vdownvoting-roman
p5020
sg21
(lp5021
g5008
ag5009
ag5010
ag5011
ag5012
ag5013
ag5014
ag5015
ag5016
ag5017
ag34
aS'here'
p5022
aS'you'
p5023
aS'go'
p5024
ag226
asg24
(lp5025
g5022
ag5023
ag5024
ag226
asba(iMeme
Meme
p5026
(dp5027
g3
(lp5028
S'moderator'
p5029
ag79
ag79
ag79
asg15
S'moderator!!!'
p5030
sg17
S' off with his head'
p5031
sg19
Vdownvoting-roman
p5032
sg21
(lp5033
g5029
ag79
ag79
ag79
aS'off'
p5034
aS'with'
p5035
aS'his'
p5036
aS'head'
p5037
asg24
(lp5038
g5034
ag5035
ag5036
ag5037
asba(iMeme
Meme
p5039
(dp5040
g3
(lp5041
S'what'
p5042
aS'happens'
p5043
aS'to'
p5044
aS'rohin'
p5045
aS'when'
p5046
asg15
S'what happens to rohin when'
p5047
sg17
S' he skits to the teacher'
p5048
sg19
Vdownvoting-roman
p5049
sg21
(lp5050
g5042
ag5043
ag5044
ag5045
ag5046
aS'he'
p5051
aS'skits'
p5052
aS'to'
p5053
aS'the'
p5054
aS'teacher'
p5055
asg24
(lp5056
g5051
ag5052
ag5053
ag5054
ag5055
asba(iMeme
Meme
p5057
(dp5058
g3
(lp5059
S'time'
p5060
aS'to'
p5061
aS'take'
p5062
aS'him'
p5063
aS'to'
p5064
aS'the'
p5065
asg15
S'time to take him to the'
p5066
sg17
S' gauntlet'
p5067
sg19
Vdownvoting-roman
p5068
sg21
(lp5069
g5060
ag5061
ag5062
ag5063
ag5064
ag5065
aS'gauntlet'
p5070
asg24
(lp5071
g5070
asba(iMeme
Meme
p5072
(dp5073
g3
(lp5074
S'gron'
p5075
aS'and'
p5076
aS'flame'
p5077
aS'away'
p5078
ag34
asg15
S'gron and flame away?'
p5079
sg17
S' dont mind if i do.'
p5080
sg19
Vdownvoting-roman
p5081
sg21
(lp5082
g5075
ag5076
ag5077
ag5078
ag34
aS'dont'
p5083
aS'mind'
p5084
aS'if'
p5085
ag207
aS'do'
p5086
ag226
asg24
(lp5087
g5083
ag5084
ag5085
ag207
ag5086
ag226
asba(iMeme
Meme
p5088
(dp5089
g3
(lp5090
S'and'
p5091
aS'then'
p5092
aS'he'
p5093
aS'fell'
p5094
aS'off'
p5095
ag13
aS'bridge'
p5096
asg15
S'and then he fell off a bridge'
p5097
sg17
S' and your sass went with him'
p5098
sg19
Vdownvoting-roman
p5099
sg21
(lp5100
g5091
ag5092
ag5093
ag5094
ag5095
ag13
ag5096
aS'and'
p5101
aS'your'
p5102
aS'sass'
p5103
aS'went'
p5104
aS'with'
p5105
aS'him'
p5106
asg24
(lp5107
g5101
ag5102
ag5103
ag5104
ag5105
ag5106
asba(iMeme
Meme
p5108
(dp5109
g3
(lp5110
S'current'
p5111
aS'state'
p5112
aS'of'
p5113
aS'government'
p5114
asg15
S'current state of government'
p5115
sg17
S' is under heavenly treason'
p5116
sg19
Vdownvoting-roman
p5117
sg21
(lp5118
g5111
ag5112
ag5113
ag5114
aS'is'
p5119
aS'under'
p5120
aS'heavenly'
p5121
aS'treason'
p5122
asg24
(lp5123
g5119
ag5120
ag5121
ag5122
asba(iMeme
Meme
p5124
(dp5125
g3
(lp5126
S'oh'
p5127
asg15
S'oh'
p5128
sg17
S' you made a mistake and want to express your apologies?'
p5129
sg19
Vdownvoting-roman
p5130
sg21
(lp5131
g5127
aS'you'
p5132
aS'made'
p5133
ag13
aS'mistake'
p5134
aS'and'
p5135
aS'want'
p5136
aS'to'
p5137
aS'express'
p5138
aS'your'
p5139
aS'apologies'
p5140
ag34
asg24
(lp5141
g5132
ag5133
ag13
ag5134
ag5135
ag5136
ag5137
ag5138
ag5139
ag5140
ag34
asba(iMeme
Meme
p5142
(dp5143
g3
(lp5144
S'show'
p5145
aS'some'
p5146
aS'love'
p5147
asg15
S'show some love'
p5148
sg17
S' reddit!'
p5149
sg19
Vdownvoting-roman
p5150
sg21
(lp5151
g5145
ag5146
ag5147
aS'reddit'
p5152
ag79
asg24
(lp5153
g5152
ag79
asba(iMeme
Meme
p5154
(dp5155
g3
(lp5156
S'uncapped'
p5157
aS'adsl'
p5158
asg15
S'uncapped adsl'
p5159
sg17
S' not worth your excitement'
p5160
sg19
Vdownvoting-roman
p5161
sg21
(lp5162
g5157
ag5158
aS'not'
p5163
aS'worth'
p5164
aS'your'
p5165
aS'excitement'
p5166
asg24
(lp5167
g5163
ag5164
ag5165
ag5166
asba(iMeme
Meme
p5168
(dp5169
g3
(lp5170
S'meekro'
p5171
asg15
S'meekro'
p5172
sg17
S' has spoken on the matter'
p5173
sg19
Vdownvoting-roman
p5174
sg21
(lp5175
g5171
aS'has'
p5176
aS'spoken'
p5177
aS'on'
p5178
aS'the'
p5179
aS'matter'
p5180
asg24
(lp5181
g5176
ag5177
ag5178
ag5179
ag5180
asba(iMeme
Meme
p5182
(dp5183
g3
(lp5184
S'you'
p5185
aS'misbehaved'
p5186
asg15
S'you misbehaved'
p5187
sg17
S' you shall be taken to  the gauntlet'
p5188
sg19
Vdownvoting-roman
p5189
sg21
(lp5190
g5185
ag5186
aS'you'
p5191
aS'shall'
p5192
aS'be'
p5193
aS'taken'
p5194
aS'to'
p5195
aS'the'
p5196
aS'gauntlet'
p5197
asg24
(lp5198
g5191
ag5192
ag5193
ag5194
ag5195
ag5196
ag5197
asba(iMeme
Meme
p5199
(dp5200
g3
(lp5201
S'maybe'
p5202
aS'itll'
p5203
aS'do'
p5204
aS'better'
p5205
aS'here'
p5206
asg15
S'maybe itll do better here'
p5207
sg17
S' maybe it won'
p5208
sg19
Vdownvoting-roman
p5209
sg21
(lp5210
g5202
ag5203
ag5204
ag5205
ag5206
aS'maybe'
p5211
aS'it'
p5212
aS'won'
p5213
asg24
(lp5214
g5211
ag5212
ag5213
asba(iMeme
Meme
p5215
(dp5216
g3
(lp5217
S'maybe'
p5218
aS'itll'
p5219
aS'do'
p5220
aS'better'
p5221
aS'here'
p5222
asg15
S'maybe itll do better here'
p5223
sg17
S' maybe it wont'
p5224
sg19
Vdownvoting-roman
p5225
sg21
(lp5226
g5218
ag5219
ag5220
ag5221
ag5222
aS'maybe'
p5227
aS'it'
p5228
aS'wont'
p5229
asg24
(lp5230
g5227
ag5228
ag5229
asba(iMeme
Meme
p5231
(dp5232
g3
(lp5233
S'you'
p5234
aS'misbehaved'
p5235
asg15
S'you misbehaved'
p5236
sg17
S' you shall be taken to  the gauntlet'
p5237
sg19
Vdownvoting-roman
p5238
sg21
(lp5239
g5234
ag5235
aS'you'
p5240
aS'shall'
p5241
aS'be'
p5242
aS'taken'
p5243
aS'to'
p5244
aS'the'
p5245
aS'gauntlet'
p5246
asg24
(lp5247
g5240
ag5241
ag5242
ag5243
ag5244
ag5245
ag5246
asba(iMeme
Meme
p5248
(dp5249
g3
(lp5250
S'maybe'
p5251
aS'itll'
p5252
aS'do'
p5253
aS'better'
p5254
aS'here'
p5255
asg15
S'maybe itll do better here'
p5256
sg17
S' maybe it won'
p5257
sg19
Vdownvoting-roman
p5258
sg21
(lp5259
g5251
ag5252
ag5253
ag5254
ag5255
aS'maybe'
p5260
aS'it'
p5261
aS'won'
p5262
asg24
(lp5263
g5260
ag5261
ag5262
asba(iMeme
Meme
p5264
(dp5265
g3
(lp5266
S'time'
p5267
aS'to'
p5268
aS'take'
p5269
aS'him'
p5270
aS'down'
p5271
aS'the'
p5272
asg15
S'time to take him down the'
p5273
sg17
S' gauntlet'
p5274
sg19
Vdownvoting-roman
p5275
sg21
(lp5276
g5267
ag5268
ag5269
ag5270
ag5271
ag5272
aS'gauntlet'
p5277
asg24
(lp5278
g5277
asba(iMeme
Meme
p5279
(dp5280
g3
(lp5281
S'first'
p5282
aS'world'
p5283
aS'problem'
p5284
ag34
asg15
S'first world problem?'
p5285
sg17
S' first world solution'
p5286
sg19
Vdownvoting-roman
p5287
sg21
(lp5288
g5282
ag5283
ag5284
ag34
aS'first'
p5289
aS'world'
p5290
aS'solution'
p5291
asg24
(lp5292
g5289
ag5290
ag5291
asba(iMeme
Meme
p5293
(dp5294
g3
(lp5295
S'chafouha'
p5296
aS'w9fat'
p5297
aS'm3a'
p5298
aS'easy'
p5299
aS'semmaw'
p5300
aS'3liha'
p5301
aS'hardy'
p5302
asg15
S'chafouha w9fat m3a easy semmaw 3liha hardy'
p5303
sg17
S' youre goinig down bitches'
p5304
sg19
Vdownvoting-roman
p5305
sg21
(lp5306
g5296
ag5297
ag5298
ag5299
ag5300
ag5301
ag5302
aS'youre'
p5307
aS'goinig'
p5308
aS'down'
p5309
aS'bitches'
p5310
asg24
(lp5311
g5307
ag5308
ag5309
ag5310
asba(iMeme
Meme
p5312
(dp5313
g3
(lp5314
S'now'
p5315
aS'you'
p5316
aS'shall'
p5317
aS'be'
p5318
aS'taken'
p5319
aS'to'
p5320
ag13
aS'dark'
p5321
aS'region'
p5322
aS'called'
p5323
aS'the'
p5324
asg15
S'now you shall be taken to a dark region called the'
p5325
sg17
S' gauntlet'
p5326
sg19
Vdownvoting-roman
p5327
sg21
(lp5328
g5315
ag5316
ag5317
ag5318
ag5319
ag5320
ag13
ag5321
ag5322
ag5323
ag5324
aS'gauntlet'
p5329
asg24
(lp5330
g5329
asba(iMeme
Meme
p5331
(dp5332
g3
(lp5333
S'you'
p5334
aS'misbehaved'
p5335
asg15
S'you misbehaved'
p5336
sg17
S' time to take to the gauntlet'
p5337
sg19
Vdownvoting-roman
p5338
sg21
(lp5339
g5334
ag5335
aS'time'
p5340
aS'to'
p5341
aS'take'
p5342
aS'to'
p5343
aS'the'
p5344
aS'gauntlet'
p5345
asg24
(lp5346
g5340
ag5341
ag5342
ag5343
ag5344
ag5345
asba(iMeme
Meme
p5347
(dp5348
g3
(lp5349
S'sip'
p5350
asg15
S'sip'
p5351
sg17
S' is not fun'
p5352
sg19
Vdownvoting-roman
p5353
sg21
(lp5354
g5350
aS'is'
p5355
aS'not'
p5356
aS'fun'
p5357
asg24
(lp5358
g5355
ag5356
ag5357
asba(iMeme
Meme
p5359
(dp5360
g3
(lp5361
S'get'
p5362
aS'mad'
p5363
aS'at'
p5364
aS'people'
p5365
aS'for'
p5366
aS'crying'
p5367
aS'on'
p5368
aS'facebook'
p5369
asg15
S'get mad at people for crying on facebook'
p5370
sg17
S' proceed to cry on twitter'
p5371
sg19
Vdownvoting-roman
p5372
sg21
(lp5373
g5362
ag5363
ag5364
ag5365
ag5366
ag5367
ag5368
ag5369
aS'proceed'
p5374
aS'to'
p5375
aS'cry'
p5376
aS'on'
p5377
aS'twitter'
p5378
asg24
(lp5379
g5374
ag5375
ag5376
ag5377
ag5378
asba(iMeme
Meme
p5380
(dp5381
g3
(lp5382
S'oh'
p5383
aS'you'
p5384
aS'want'
p5385
aS'to'
p5386
aS'get'
p5387
aS'into'
p5388
aS'university'
p5389
ag34
asg15
S'oh you want to get into university?'
p5390
sg17
S' here'
p5391
sg19
Vdownvoting-roman
p5392
sg21
(lp5393
g5383
ag5384
ag5385
ag5386
ag5387
ag5388
ag5389
ag34
aS'here'
p5394
asg24
(lp5395
g5394
asba(iMeme
Meme
p5396
(dp5397
g3
(lp5398
S'you'
p5399
aS'misbehaved'
p5400
asg15
S'you misbehaved'
p5401
sg17
S' time to take you down the gauntlet'
p5402
sg19
Vdownvoting-roman
p5403
sg21
(lp5404
g5399
ag5400
aS'time'
p5405
aS'to'
p5406
aS'take'
p5407
aS'you'
p5408
aS'down'
p5409
aS'the'
p5410
aS'gauntlet'
p5411
asg24
(lp5412
g5405
ag5406
ag5407
ag5408
ag5409
ag5410
ag5411
asba(iMeme
Meme
p5413
(dp5414
g3
(lp5415
S'boooooooo'
p5416
asg15
S'boooooooo'
p5417
sg17
S' come up with something else'
p5418
sg19
Vdownvoting-roman
p5419
sg21
(lp5420
g5416
aS'come'
p5421
aS'up'
p5422
aS'with'
p5423
aS'something'
p5424
aS'else'
p5425
asg24
(lp5426
g5421
ag5422
ag5423
ag5424
ag5425
asba(iMeme
Meme
p5427
(dp5428
g3
(lp5429
S'this'
p5430
aS'shit'
p5431
aS'will'
p5432
aS'probably'
p5433
aS'be'
p5434
aS'tabled'
p5435
aS'indefinitely'
p5436
asg15
S'this shit will probably be tabled indefinitely'
p5437
sg17
S' you better fucking believe it fool'
p5438
sg19
Vdownvoting-roman
p5439
sg21
(lp5440
g5430
ag5431
ag5432
ag5433
ag5434
ag5435
ag5436
aS'you'
p5441
aS'better'
p5442
aS'fucking'
p5443
aS'believe'
p5444
aS'it'
p5445
aS'fool'
p5446
asg24
(lp5447
g5441
ag5442
ag5443
ag5444
ag5445
ag5446
asba(iMeme
Meme
p5448
(dp5449
g3
(lp5450
S'work'
p5451
aS'on'
p5452
aS'logo'
p5453
aS'for'
p5454
aS'3'
p5455
aS'months'
p5456
asg15
S'work on logo for 3 months'
p5457
sg17
S' not matted correctly'
p5458
sg19
Vdownvoting-roman
p5459
sg21
(lp5460
g5451
ag5452
ag5453
ag5454
ag5455
ag5456
aS'not'
p5461
aS'matted'
p5462
aS'correctly'
p5463
asg24
(lp5464
g5461
ag5462
ag5463
asba(iMeme
Meme
p5465
(dp5466
g3
(lp5467
S'as'
p5468
aS'impassioned'
p5469
aS'as'
p5470
aS'your'
p5471
aS'argument'
p5472
aS'was'
p5473
asg15
S'as impassioned as your argument was'
p5474
sg17
S' chrisbanks.'
p5475
sg19
Vdownvoting-roman
p5476
sg21
(lp5477
g5468
ag5469
ag5470
ag5471
ag5472
ag5473
aS'chrisbanks'
p5478
ag226
asg24
(lp5479
g5478
ag226
asba(iMeme
Meme
p5480
(dp5481
g3
(lp5482
S'wait'
p5483
asg15
S'wait'
p5484
sg17
S' the user got permabanned?'
p5485
sg19
Vdownvoting-roman
p5486
sg21
(lp5487
g5483
aS'the'
p5488
aS'user'
p5489
aS'got'
p5490
aS'permabanned'
p5491
ag34
asg24
(lp5492
g5488
ag5489
ag5490
ag5491
ag34
asba(iMeme
Meme
p5493
(dp5494
g3
(lp5495
S'time'
p5496
aS'to'
p5497
aS'take'
p5498
aS'you'
p5499
aS'to'
p5500
aS'the'
p5501
asg15
S'time to take you to the'
p5502
sg17
S' gauntlet'
p5503
sg19
Vdownvoting-roman
p5504
sg21
(lp5505
g5496
ag5497
ag5498
ag5499
ag5500
ag5501
aS'gauntlet'
p5506
asg24
(lp5507
g5506
asba(iMeme
Meme
p5508
(dp5509
g3
(lp5510
S'follow'
p5511
aS'you'
p5512
ag34
ag34
ag34
asg15
S'follow you???'
p5513
sg17
S' i think not'
p5514
sg19
Vdownvoting-roman
p5515
sg21
(lp5516
g5511
ag5512
ag34
ag34
ag34
ag207
aS'think'
p5517
aS'not'
p5518
asg24
(lp5519
g207
ag5517
ag5518
asba(iMeme
Meme
p5520
(dp5521
g3
(lp5522
S'this'
p5523
aS'will'
p5524
aS'be'
p5525
aS'probably'
p5526
aS'tabled'
p5527
aS'indefinitely'
p5528
asg15
S'this will be probably tabled indefinitely'
p5529
sg17
S' you better fucking believe it'
p5530
sg19
Vdownvoting-roman
p5531
sg21
(lp5532
g5523
ag5524
ag5525
ag5526
ag5527
ag5528
aS'you'
p5533
aS'better'
p5534
aS'fucking'
p5535
aS'believe'
p5536
aS'it'
p5537
asg24
(lp5538
g5533
ag5534
ag5535
ag5536
ag5537
asba(iMeme
Meme
p5539
(dp5540
g3
(lp5541
S'mom'
p5542
asg15
S'mom'
p5543
sg17
S' fuck u for calling me a baby hope it rains on the 13th'
p5544
sg19
Vdownvoting-roman
p5545
sg21
(lp5546
g5542
aS'fuck'
p5547
ag2868
aS'for'
p5548
aS'calling'
p5549
aS'me'
p5550
ag13
aS'baby'
p5551
aS'hope'
p5552
aS'it'
p5553
aS'rains'
p5554
aS'on'
p5555
aS'the'
p5556
aS'13th'
p5557
asg24
(lp5558
g5547
ag2868
ag5548
ag5549
ag5550
ag13
ag5551
ag5552
ag5553
ag5554
ag5555
ag5556
ag5557
asba(iMeme
Meme
p5559
(dp5560
g3
(lp5561
S'made'
p5562
ag13
aS'downvoting'
p5563
aS'roman'
p5564
aS'post'
p5565
ag34
asg15
S'made a downvoting roman post?'
p5566
sg17
S' good'
p5567
sg19
Vdownvoting-roman
p5568
sg21
(lp5569
g5562
ag13
ag5563
ag5564
ag5565
ag34
aS'good'
p5570
asg24
(lp5571
g5570
asba(iMeme
Meme
p5572
(dp5573
g3
(lp5574
S'hey'
p5575
aS'girl'
p5576
asg15
S'hey girl'
p5577
sg17
S'  guess what happens to assholes who live downstairs and'
p5578
sg19
Vdownvoting-roman
p5579
sg21
(lp5580
g5575
ag5576
aS'guess'
p5581
aS'what'
p5582
aS'happens'
p5583
aS'to'
p5584
aS'assholes'
p5585
aS'who'
p5586
aS'live'
p5587
aS'downstairs'
p5588
aS'and'
p5589
asg24
(lp5590
g5581
ag5582
ag5583
ag5584
ag5585
ag5586
ag5587
ag5588
ag5589
asba(iMeme
Meme
p5591
(dp5592
g3
(lp5593
S'master'
p5594
aS'chief'
p5595
aS'lost'
p5596
aS'battle'
p5597
aS'of'
p5598
aS'carthage'
p5599
asg15
S'master chief lost battle of carthage'
p5600
sg17
S' punish his nutsack with a boat propellor'
p5601
sg19
Vdownvoting-roman
p5602
sg21
(lp5603
g5594
ag5595
ag5596
ag5597
ag5598
ag5599
aS'punish'
p5604
aS'his'
p5605
aS'nutsack'
p5606
aS'with'
p5607
ag13
aS'boat'
p5608
aS'propellor'
p5609
asg24
(lp5610
g5604
ag5605
ag5606
ag5607
ag13
ag5608
ag5609
asba(iMeme
Meme
p5611
(dp5612
g3
(lp5613
S'master'
p5614
aS'chief'
p5615
aS'lost'
p5616
aS'battle'
p5617
aS'of'
p5618
aS'carthage'
p5619
asg15
S'master chief lost battle of carthage'
p5620
sg17
S' punish his nutsack with the new boat propeller.'
p5621
sg19
Vdownvoting-roman
p5622
sg21
(lp5623
g5614
ag5615
ag5616
ag5617
ag5618
ag5619
aS'punish'
p5624
aS'his'
p5625
aS'nutsack'
p5626
aS'with'
p5627
aS'the'
p5628
aS'new'
p5629
aS'boat'
p5630
aS'propeller'
p5631
ag226
asg24
(lp5632
g5624
ag5625
ag5626
ag5627
ag5628
ag5629
ag5630
ag5631
ag226
asba(iMeme
Meme
p5633
(dp5634
g3
(lp5635
S'master'
p5636
aS'chief'
p5637
aS'lost'
p5638
aS'battle'
p5639
aS'of'
p5640
aS'carthage'
p5641
asg15
S'master chief lost battle of carthage'
p5642
sg17
S' punish his nutsack with a boat prop'
p5643
sg19
Vdownvoting-roman
p5644
sg21
(lp5645
g5636
ag5637
ag5638
ag5639
ag5640
ag5641
aS'punish'
p5646
aS'his'
p5647
aS'nutsack'
p5648
aS'with'
p5649
ag13
aS'boat'
p5650
aS'prop'
p5651
asg24
(lp5652
g5646
ag5647
ag5648
ag5649
ag13
ag5650
ag5651
asba(iMeme
Meme
p5653
(dp5654
g3
(lp5655
S'call'
p5656
aS'me'
p5657
aS'fuko'
p5658
aS'through'
p5659
aS'text'
p5660
ag34
asg15
S'call me fuko through text?'
p5661
sg17
S' battle of carthage it is.'
p5662
sg19
Vdownvoting-roman
p5663
sg21
(lp5664
g5656
ag5657
ag5658
ag5659
ag5660
ag34
aS'battle'
p5665
aS'of'
p5666
aS'carthage'
p5667
aS'it'
p5668
aS'is'
p5669
ag226
asg24
(lp5670
g5665
ag5666
ag5667
ag5668
ag5669
ag226
asba(iMeme
Meme
p5671
(dp5672
g3
(lp5673
S'its'
p5674
aS'too'
p5675
aS'late'
p5676
asg15
S'its too late'
p5677
sg17
S' fuck you mom!'
p5678
sg19
Vdownvoting-roman
p5679
sg21
(lp5680
g5674
ag5675
ag5676
aS'fuck'
p5681
aS'you'
p5682
aS'mom'
p5683
ag79
asg24
(lp5684
g5681
ag5682
ag5683
ag79
asba.