(lp0
(iMeme
Meme
p1
(dp2
S'top_text'
p3
(lp4
S'someone'
p5
aS'with'
p6
aS'a'
p7
aS'negative'
p8
aS'opinion'
p9
aS'about'
p10
aS'my'
p11
aS'business'
p12
aS'?'
p13
asS'top_text_raw'
p14
S'someone with a negative opinion about my business? '
p15
sS'bottom_text_raw'
p16
S" I'll become a vendor to help hide my bad business practices and poor quality! "
p17
sS'meme_type'
p18
Vfirst-day-on-the-internet-kid
p19
sS'all_text'
p20
(lp21
g5
ag6
ag7
ag8
ag9
ag10
ag11
ag12
ag13
aS'I'
p22
aS"'ll"
p23
aS'become'
p24
ag7
aS'vendor'
p25
aS'to'
p26
aS'help'
p27
aS'hide'
p28
aS'my'
p29
aS'bad'
p30
aS'business'
p31
aS'practices'
p32
aS'and'
p33
aS'poor'
p34
aS'quality'
p35
aS'!'
p36
asS'bottom_text'
p37
(lp38
g22
ag23
ag24
ag7
ag25
ag26
ag27
ag28
ag29
ag30
ag31
ag32
ag33
ag34
ag35
ag36
asba(iMeme
Meme
p39
(dp40
g3
(lp41
S'Routinely'
p42
aS'gets'
p43
aS'his'
p44
aS'ass'
p45
aS'handed'
p46
aS'to'
p47
aS'him'
p48
aS'in'
p49
aS'Call'
p50
aS'of'
p51
aS'Duty'
p52
asg14
S'Routinely gets his ass handed to him in Call of Duty '
p53
sg16
S' Takes out his revenge in ToonTown  '
p54
sg18
Vfirst-day-on-the-internet-kid
p55
sg20
(lp56
g42
ag43
ag44
ag45
ag46
ag47
ag48
ag49
ag50
ag51
ag52
aS'Takes'
p57
aS'out'
p58
aS'his'
p59
aS'revenge'
p60
aS'in'
p61
aS'ToonTown'
p62
asg37
(lp63
g57
ag58
ag59
ag60
ag61
ag62
asba(iMeme
Meme
p64
(dp65
g3
(lp66
S'Oh'
p67
aS'great'
p68
aS'an'
p69
aS'actor'
p70
ag22
aS'like'
p71
aS'is'
p72
aS'doing'
p73
aS'an'
p74
aS'AMA'
p75
asg14
S'Oh great an actor I like is doing an AMA '
p76
sg16
S" I better respond to all of their answers with a quote from something they've done, nobody else will do that. "
p77
sg18
Vfirst-day-on-the-internet-kid
p78
sg20
(lp79
g67
ag68
ag69
ag70
ag22
ag71
ag72
ag73
ag74
ag75
ag22
aS'better'
p80
aS'respond'
p81
aS'to'
p82
aS'all'
p83
aS'of'
p84
aS'their'
p85
aS'answers'
p86
aS'with'
p87
ag7
aS'quote'
p88
aS'from'
p89
aS'something'
p90
aS'they'
p91
aS"'ve"
p92
aS'done'
p93
aS','
p94
aS'nobody'
p95
aS'else'
p96
aS'will'
p97
aS'do'
p98
aS'that'
p99
aS'.'
p100
asg37
(lp101
g22
ag80
ag81
ag82
ag83
ag84
ag85
ag86
ag87
ag7
ag88
ag89
ag90
ag91
ag92
ag93
ag94
ag95
ag96
ag97
ag98
ag99
ag100
asba(iMeme
Meme
p102
(dp103
g3
(lp104
S'someone'
p105
aS'with'
p106
ag7
aS'negative'
p107
aS'opinion'
p108
aS'about'
p109
aS'my'
p110
aS'business'
p111
ag13
asg14
S'someone with a negative opinion about my business? '
p112
sg16
S" I'll become a vendor to help hide my bad business practices! "
p113
sg18
Vfirst-day-on-the-internet-kid
p114
sg20
(lp115
g105
ag106
ag7
ag107
ag108
ag109
ag110
ag111
ag13
ag22
aS"'ll"
p116
aS'become'
p117
ag7
aS'vendor'
p118
aS'to'
p119
aS'help'
p120
aS'hide'
p121
aS'my'
p122
aS'bad'
p123
aS'business'
p124
aS'practices'
p125
ag36
asg37
(lp126
g22
ag116
ag117
ag7
ag118
ag119
ag120
ag121
ag122
ag123
ag124
ag125
ag36
asba(iMeme
Meme
p127
(dp128
g3
(lp129
S'Kanslan'
p130
asg14
S'Kanslan  '
p131
sg16
S' Nar my har penna '
p132
sg18
Vfirst-day-on-the-internet-kid
p133
sg20
(lp134
g130
aS'Nar'
p135
aS'my'
p136
aS'har'
p137
aS'penna'
p138
asg37
(lp139
g135
ag136
ag137
ag138
asba(iMeme
Meme
p140
(dp141
g3
(lp142
S'Knslan'
p143
asg14
S'Knslan  '
p144
sg16
S' Nr my har penna '
p145
sg18
Vfirst-day-on-the-internet-kid
p146
sg20
(lp147
g143
aS'Nr'
p148
aS'my'
p149
aS'har'
p150
aS'penna'
p151
asg37
(lp152
g148
ag149
ag150
ag151
asba(iMeme
Meme
p153
(dp154
g3
(lp155
S'Routinely'
p156
aS'gets'
p157
aS'his'
p158
aS'ass'
p159
aS'killed'
p160
aS'in'
p161
aS'Call'
p162
aS'of'
p163
aS'Duty'
p164
aS'...'
p165
asg14
S'Routinely gets his ass killed in Call of Duty... '
p166
sg16
S' Takes his revenge out in ToonTown '
p167
sg18
Vfirst-day-on-the-internet-kid
p168
sg20
(lp169
g156
ag157
ag158
ag159
ag160
ag161
ag162
ag163
ag164
ag165
aS'Takes'
p170
aS'his'
p171
aS'revenge'
p172
aS'out'
p173
aS'in'
p174
aS'ToonTown'
p175
asg37
(lp176
g170
ag171
ag172
ag173
ag174
ag175
asba(iMeme
Meme
p177
(dp178
g3
(lp179
S'Posted'
p180
aS'the'
p181
aS'``'
p182
aS'Hilarious'
p183
aS"''"
p184
aS'Eminem'
p185
aS'meme'
p186
asg14
S'Posted the "Hilarious" Eminem meme '
p187
sg16
S" I'm getting tons of Likes now! "
p188
sg18
Vfirst-day-on-the-internet-kid
p189
sg20
(lp190
g180
ag181
ag182
ag183
ag184
ag185
ag186
ag22
aS"'m"
p191
aS'getting'
p192
aS'tons'
p193
aS'of'
p194
aS'Likes'
p195
aS'now'
p196
ag36
asg37
(lp197
g22
ag191
ag192
ag193
ag194
ag195
ag196
ag36
asba(iMeme
Meme
p198
(dp199
g3
(lp200
S'this'
p201
aS'page'
p202
aS'finally'
p203
aS'reached'
p204
asg14
S'this page finally reached '
p205
sg16
S' 50 likes '
p206
sg18
Vfirst-day-on-the-internet-kid
p207
sg20
(lp208
g201
ag202
ag203
ag204
aS'50'
p209
aS'likes'
p210
asg37
(lp211
g209
ag210
asba(iMeme
Meme
p212
(dp213
g3
(lp214
S'Sitting'
p215
aS'on'
p216
ag7
aS'0.09'
p217
aS'on'
p218
aS'outbound'
p219
asg14
S'Sitting on a 0.09 on outbound '
p220
sg16
S'  '
p221
sg18
Vfirst-day-on-the-internet-kid
p222
sg20
(lp223
g215
ag216
ag7
ag217
ag218
ag219
asg37
(lp224
sba(iMeme
Meme
p225
(dp226
g3
(lp227
S'Gets'
p228
aS'on'
p229
aS'Deadfrontier'
p230
asg14
S'Gets on Deadfrontier '
p231
sg16
S' Better than spending time with girlfriend '
p232
sg18
Vfirst-day-on-the-internet-kid
p233
sg20
(lp234
g228
ag229
ag230
aS'Better'
p235
aS'than'
p236
aS'spending'
p237
aS'time'
p238
aS'with'
p239
aS'girlfriend'
p240
asg37
(lp241
g235
ag236
ag237
ag238
ag239
ag240
asba(iMeme
Meme
p242
(dp243
g3
(lp244
S'Yes'
p245
ag36
ag36
ag36
ag36
ag36
asg14
S'Yes!!!!! '
p246
sg16
S" Dad isn't gonna rape me tonight "
p247
sg18
Vfirst-day-on-the-internet-kid
p248
sg20
(lp249
g245
ag36
ag36
ag36
ag36
ag36
aS'Dad'
p250
aS'is'
p251
aS"n't"
p252
aS'gon'
p253
aS'na'
p254
aS'rape'
p255
aS'me'
p256
aS'tonight'
p257
asg37
(lp258
g250
ag251
ag252
ag253
ag254
ag255
ag256
ag257
asba(iMeme
Meme
p259
(dp260
g3
(lp261
S'finally'
p262
aS'unfriended'
p263
asg14
S'finally unfriended '
p264
sg16
S' jordan holding '
p265
sg18
Vfirst-day-on-the-internet-kid
p266
sg20
(lp267
g262
ag263
aS'jordan'
p268
aS'holding'
p269
asg37
(lp270
g268
ag269
asba(iMeme
Meme
p271
(dp272
g3
(lp273
S'finally'
p274
asg14
S'finally '
p275
sg16
S' deleted keenan of my frinds list '
p276
sg18
Vfirst-day-on-the-internet-kid
p277
sg20
(lp278
g274
aS'deleted'
p279
aS'keenan'
p280
aS'of'
p281
aS'my'
p282
aS'frinds'
p283
aS'list'
p284
asg37
(lp285
g279
ag280
ag281
ag282
ag283
ag284
asba(iMeme
Meme
p286
(dp287
g3
(lp288
S'reached'
p289
aS'level'
p290
aS'40'
p291
aS'on'
p292
aS'candy'
p293
aS'crush'
p294
asg14
S'reached level 40 on candy crush '
p295
sg16
S' VICTORY!!! '
p296
sg18
Vfirst-day-on-the-internet-kid
p297
sg20
(lp298
g289
ag290
ag291
ag292
ag293
ag294
aS'VICTORY'
p299
ag36
ag36
ag36
asg37
(lp300
g299
ag36
ag36
ag36
asba(iMeme
Meme
p301
(dp302
g3
(lp303
g22
aS'raped'
p304
aS'my'
p305
aS'mom'
p306
aS'with'
p307
ag7
aS'knife'
p308
asg14
S'I raped my mom with a knife '
p309
sg16
S' now to post it on the interwebs  '
p310
sg18
Vfirst-day-on-the-internet-kid
p311
sg20
(lp312
g22
ag304
ag305
ag306
ag307
ag7
ag308
aS'now'
p313
aS'to'
p314
aS'post'
p315
aS'it'
p316
aS'on'
p317
aS'the'
p318
aS'interwebs'
p319
asg37
(lp320
g313
ag314
ag315
ag316
ag317
ag318
ag319
asba(iMeme
Meme
p321
(dp322
g3
(lp323
S'people'
p324
aS'wished'
p325
aS'me'
p326
aS'happy'
p327
aS'birthday'
p328
aS'on'
p329
aS'facebook'
p330
asg14
S'people wished me happy birthday on facebook '
p331
sg16
S' now its official! '
p332
sg18
Vfirst-day-on-the-internet-kid
p333
sg20
(lp334
g324
ag325
ag326
ag327
ag328
ag329
ag330
aS'now'
p335
aS'its'
p336
aS'official'
p337
ag36
asg37
(lp338
g335
ag336
ag337
ag36
asba(iMeme
Meme
p339
(dp340
g3
(lp341
g22
aS'found'
p342
aS'an'
p343
aS'awesome'
p344
aS'thing'
p345
aS'on'
p346
aS'Reddit'
p347
asg14
S'I found an awesome thing on Reddit '
p348
sg16
S' I better share it with Reddit '
p349
sg18
Vfirst-day-on-the-internet-kid
p350
sg20
(lp351
g22
ag342
ag343
ag344
ag345
ag346
ag347
ag22
aS'better'
p352
aS'share'
p353
aS'it'
p354
aS'with'
p355
aS'Reddit'
p356
asg37
(lp357
g22
ag352
ag353
ag354
ag355
ag356
asba(iMeme
Meme
p358
(dp359
g3
(lp360
S'Nerds'
p361
aS'be'
p362
aS'like'
p363
aS'...'
p364
asg14
S'Nerds be like... '
p365
sg16
S' Made a girlfriend on nos ! '
p366
sg18
Vfirst-day-on-the-internet-kid
p367
sg20
(lp368
g361
ag362
ag363
ag364
aS'Made'
p369
ag7
aS'girlfriend'
p370
aS'on'
p371
aS'nos'
p372
ag36
asg37
(lp373
g369
ag7
ag370
ag371
ag372
ag36
asba(iMeme
Meme
p374
(dp375
g3
(lp376
S'Watch'
p377
aS'my'
p378
aS'first'
p379
aS'porn'
p380
aS'vid'
p381
asg14
S'Watch my first porn vid '
p382
sg16
S' #SoHorny '
p383
sg18
Vfirst-day-on-the-internet-kid
p384
sg20
(lp385
g377
ag378
ag379
ag380
ag381
aS'#'
p386
aS'SoHorny'
p387
asg37
(lp388
g386
ag387
asba(iMeme
Meme
p389
(dp390
g3
(lp391
g22
aS'can'
p392
aS'crop'
p393
ag7
aS'picture'
p394
aS'onto'
p395
aS'another'
p396
asg14
S'I can crop a picture onto another '
p397
sg16
S' I must be a computer genius! '
p398
sg18
Vfirst-day-on-the-internet-kid
p399
sg20
(lp400
g22
ag392
ag393
ag7
ag394
ag395
ag396
ag22
aS'must'
p401
aS'be'
p402
ag7
aS'computer'
p403
aS'genius'
p404
ag36
asg37
(lp405
g22
ag401
ag402
ag7
ag403
ag404
ag36
asba(iMeme
Meme
p406
(dp407
g3
(lp408
S'damn'
p409
asg14
S'damn '
p410
sg16
S' i have weird feet '
p411
sg18
Vfirst-day-on-the-internet-kid
p412
sg20
(lp413
g409
aS'i'
p414
aS'have'
p415
aS'weird'
p416
aS'feet'
p417
asg37
(lp418
g414
ag415
ag416
ag417
asba.