(lp0
(iMeme
Meme
p1
(dp2
S'top_text'
p3
(lp4
S'You'
p5
aS'put'
p6
aS'so'
p7
aS'much'
p8
aS'oil'
p9
aS'on'
p10
aS'this'
p11
aS'plate'
p12
asS'top_text_raw'
p13
S'You put so much oil on this plate '
p14
sS'bottom_text_raw'
p15
S' that the u.s wanted to incade the plate '
p16
sS'meme_type'
p17
Vgordon-ramsay
p18
sS'all_text'
p19
(lp20
g5
ag6
ag7
ag8
ag9
ag10
ag11
ag12
aS'that'
p21
aS'the'
p22
aS'u.s'
p23
aS'wanted'
p24
aS'to'
p25
aS'incade'
p26
aS'the'
p27
aS'plate'
p28
asS'bottom_text'
p29
(lp30
g21
ag22
ag23
ag24
ag25
ag26
ag27
ag28
asba(iMeme
Meme
p31
(dp32
g3
(lp33
S'for'
p34
aS'real'
p35
aS'.'
p36
asg13
S'for real. '
p37
sg15
S' shut the fuck up '
p38
sg17
Vgordon-ramsay
p39
sg19
(lp40
g34
ag35
ag36
aS'shut'
p41
aS'the'
p42
aS'fuck'
p43
aS'up'
p44
asg29
(lp45
g41
ag42
ag43
ag44
asba(iMeme
Meme
p46
(dp47
g3
(lp48
S'If'
p49
aS'at'
p50
aS'first'
p51
aS'you'
p52
aS'do'
p53
aS"n't"
p54
aS'succeed'
p55
asg13
S"If at first you don't succeed "
p56
sg15
S' follow the fucking procedure! '
p57
sg17
Vgordon-ramsay
p58
sg19
(lp59
g49
ag50
ag51
ag52
ag53
ag54
ag55
aS'follow'
p60
aS'the'
p61
aS'fucking'
p62
aS'procedure'
p63
aS'!'
p64
asg29
(lp65
g60
ag61
ag62
ag63
ag64
asba(iMeme
Meme
p66
(dp67
g3
(lp68
S'Can'
p69
aS'you'
p70
aS'believe'
p71
aS'this'
p72
aS'shit'
p73
ag64
asg13
S'Can you believe this shit! '
p74
sg15
S' Cherie filleted her finger with my knife! '
p75
sg17
Vgordon-ramsay
p76
sg19
(lp77
g69
ag70
ag71
ag72
ag73
ag64
aS'Cherie'
p78
aS'filleted'
p79
aS'her'
p80
aS'finger'
p81
aS'with'
p82
aS'my'
p83
aS'knife'
p84
ag64
asg29
(lp85
g78
ag79
ag80
ag81
ag82
ag83
ag84
ag64
asba(iMeme
Meme
p86
(dp87
g3
(lp88
S'This'
p89
aS'fish'
p90
aS'is'
p91
aS'so'
p92
aS'raw'
p93
asg13
S'This fish is so raw '
p94
sg15
S' It smells like you mommas pussy '
p95
sg17
Vgordon-ramsay
p96
sg19
(lp97
g89
ag90
ag91
ag92
ag93
aS'It'
p98
aS'smells'
p99
aS'like'
p100
aS'you'
p101
aS'mommas'
p102
aS'pussy'
p103
asg29
(lp104
g98
ag99
ag100
ag101
ag102
ag103
asba(iMeme
Meme
p105
(dp106
g3
(lp107
S'Why'
p108
aS'did'
p109
aS"n't"
p110
aS'you'
p111
aS'tell'
p112
aS'me'
p113
aS'Kickstart'
p114
aS'was'
p115
aS'on'
p116
aS'the'
p117
aS'8tH'
p118
aS'June'
p119
aS'2013'
p120
aS'?'
p121
ag121
asg13
S"Why didn't you tell me Kickstart was on the 8tH June 2013?? "
p122
sg15
S" It's the 9th and I have just missed Great teaching and fellowship! "
p123
sg17
Vgordon-ramsay
p124
sg19
(lp125
g108
ag109
ag110
ag111
ag112
ag113
ag114
ag115
ag116
ag117
ag118
ag119
ag120
ag121
ag121
aS'It'
p126
aS"'s"
p127
aS'the'
p128
aS'9th'
p129
aS'and'
p130
aS'I'
p131
aS'have'
p132
aS'just'
p133
aS'missed'
p134
aS'Great'
p135
aS'teaching'
p136
aS'and'
p137
aS'fellowship'
p138
ag64
asg29
(lp139
g126
ag127
ag128
ag129
ag130
ag131
ag132
ag133
ag134
ag135
ag136
ag137
ag138
ag64
asba(iMeme
Meme
p140
(dp141
g3
(lp142
S'You'
p143
aS'bought'
p144
aS'an'
p145
aS'astra'
p146
aS'vxr'
p147
asg13
S'You bought an astra vxr '
p148
sg15
S' Your a fUcking idiot!!!! '
p149
sg17
Vgordon-ramsay
p150
sg19
(lp151
g143
ag144
ag145
ag146
ag147
aS'Your'
p152
aS'a'
p153
aS'fUcking'
p154
aS'idiot'
p155
ag64
ag64
ag64
ag64
asg29
(lp156
g152
ag153
ag154
ag155
ag64
ag64
ag64
ag64
asba(iMeme
Meme
p157
(dp158
g3
(lp159
S'you'
p160
aS'cook'
p161
aS'so'
p162
aS'bad'
p163
asg13
S'you cook so bad '
p164
sg15
S' the chicken ran away '
p165
sg17
Vgordon-ramsay
p166
sg19
(lp167
g160
ag161
ag162
ag163
aS'the'
p168
aS'chicken'
p169
aS'ran'
p170
aS'away'
p171
asg29
(lp172
g168
ag169
ag170
ag171
asba(iMeme
Meme
p173
(dp174
g3
(lp175
S'Are'
p176
aS'you'
p177
aS'blind'
p178
ag121
ag64
ag121
ag64
asg13
S'Are you blind?!?! '
p179
sg15
S' The dodgers are still in last place!! '
p180
sg17
Vgordon-ramsay
p181
sg19
(lp182
g176
ag177
ag178
ag121
ag64
ag121
ag64
aS'The'
p183
aS'dodgers'
p184
aS'are'
p185
aS'still'
p186
aS'in'
p187
aS'last'
p188
aS'place'
p189
ag64
ag64
asg29
(lp190
g183
ag184
ag185
ag186
ag187
ag188
ag189
ag64
ag64
asba(iMeme
Meme
p191
(dp192
g3
(lp193
S'are'
p194
aS'you'
p195
aS'stupid'
p196
asg13
S'are you stupid '
p197
sg15
S' you fucken chink '
p198
sg17
Vgordon-ramsay
p199
sg19
(lp200
g194
ag195
ag196
aS'you'
p201
aS'fucken'
p202
aS'chink'
p203
asg29
(lp204
g201
ag202
ag203
asba(iMeme
Meme
p205
(dp206
g3
(lp207
S'If'
p208
aS'you'
p209
aS'want'
p210
aS'to'
p211
aS'give'
p212
aS'up'
p213
aS'your'
p214
aS'gun'
p215
aS'rights'
p216
aS'move'
p217
aS'to'
p218
aS'chicago'
p219
asg13
S'If you want to give up your gun rights move to chicago '
p220
sg15
S' They have the strictest gun laws and no gun crime! '
p221
sg17
Vgordon-ramsay
p222
sg19
(lp223
g208
ag209
ag210
ag211
ag212
ag213
ag214
ag215
ag216
ag217
ag218
ag219
aS'They'
p224
aS'have'
p225
aS'the'
p226
aS'strictest'
p227
aS'gun'
p228
aS'laws'
p229
aS'and'
p230
aS'no'
p231
aS'gun'
p232
aS'crime'
p233
ag64
asg29
(lp234
g224
ag225
ag226
ag227
ag228
ag229
ag230
ag231
ag232
ag233
ag64
asba(iMeme
Meme
p235
(dp236
g3
(lp237
S'This'
p238
aS'fish'
p239
aS'is'
p240
aS'so'
p241
aS'raw'
p242
asg13
S'This fish is so raw '
p243
sg15
S' Its still muttering about landdwellers '
p244
sg17
Vgordon-ramsay
p245
sg19
(lp246
g238
ag239
ag240
ag241
ag242
aS'Its'
p247
aS'still'
p248
aS'muttering'
p249
aS'about'
p250
aS'landdwellers'
p251
asg29
(lp252
g247
ag248
ag249
ag250
ag251
asba(iMeme
Meme
p253
(dp254
g3
(lp255
S'did'
p256
aS'wilbur'
p257
aS'won'
p258
ag121
asg13
S'did wilbur won? '
p259
sg15
S' and not my juicy pig? '
p260
sg17
Vgordon-ramsay
p261
sg19
(lp262
g256
ag257
ag258
ag121
aS'and'
p263
aS'not'
p264
aS'my'
p265
aS'juicy'
p266
aS'pig'
p267
ag121
asg29
(lp268
g263
ag264
ag265
ag266
ag267
ag121
asba(iMeme
Meme
p269
(dp270
g3
(lp271
S'That'
p272
aS'cat'
p273
aS'was'
p274
aS'over'
p275
aS'cooked'
p276
ag64
ag64
ag64
asg13
S'That cat was over cooked!!! '
p277
sg15
S' Chef Cuken would even allow you clean her toilets '
p278
sg17
Vgordon-ramsay
p279
sg19
(lp280
g272
ag273
ag274
ag275
ag276
ag64
ag64
ag64
aS'Chef'
p281
aS'Cuken'
p282
aS'would'
p283
aS'even'
p284
aS'allow'
p285
aS'you'
p286
aS'clean'
p287
aS'her'
p288
aS'toilets'
p289
asg29
(lp290
g281
ag282
ag283
ag284
ag285
ag286
ag287
ag288
ag289
asba(iMeme
Meme
p291
(dp292
g3
(lp293
S'oh'
p294
aS'you'
p295
aS'no'
p296
aS'speaky'
p297
asg13
S'oh you no speaky '
p298
sg15
S' F**KING ENGLISH '
p299
sg17
Vgordon-ramsay
p300
sg19
(lp301
g294
ag295
ag296
ag297
aS'F**KING'
p302
aS'ENGLISH'
p303
asg29
(lp304
g302
ag303
asba(iMeme
Meme
p305
(dp306
g3
(lp307
S'go'
p308
aS'back'
p309
aS'to'
p310
aS'your'
p311
aS'chippy'
p312
asg13
S'go back to your chippy '
p313
sg15
S'  '
p314
sg17
Vgordon-ramsay
p315
sg19
(lp316
g308
ag309
ag310
ag311
ag312
asg29
(lp317
sba(iMeme
Meme
p318
(dp319
g3
(lp320
S'Rob'
p321
aS'there'
p322
aS'are'
p323
aS'so'
p324
aS'many'
p325
aS'potatoes'
p326
aS'roasting'
p327
aS'in'
p328
aS'the'
p329
aS'oven'
p330
asg13
S'Rob there are so many potatoes roasting in the oven '
p331
sg15
S' that you could wipe out hunger in africa '
p332
sg17
Vgordon-ramsay
p333
sg19
(lp334
g321
ag322
ag323
ag324
ag325
ag326
ag327
ag328
ag329
ag330
aS'that'
p335
aS'you'
p336
aS'could'
p337
aS'wipe'
p338
aS'out'
p339
aS'hunger'
p340
aS'in'
p341
aS'africa'
p342
asg29
(lp343
g335
ag336
ag337
ag338
ag339
ag340
ag341
ag342
asba(iMeme
Meme
p344
(dp345
g3
(lp346
S'Quit'
p347
aS'talking'
p348
aS'about'
p349
aS'the'
p350
aS'sweep'
p351
ag36
asg13
S'Quit  talking  about  the   sweep. '
p352
sg15
S' Your team is still in last place! '
p353
sg17
Vgordon-ramsay
p354
sg19
(lp355
g347
ag348
ag349
ag350
ag351
ag36
aS'Your'
p356
aS'team'
p357
aS'is'
p358
aS'still'
p359
aS'in'
p360
aS'last'
p361
aS'place'
p362
ag64
asg29
(lp363
g356
ag357
ag358
ag359
ag360
ag361
ag362
ag64
asba(iMeme
Meme
p364
(dp365
g3
(lp366
S'Quit'
p367
aS'talking'
p368
aS'about'
p369
aS'the'
p370
aS'sweep'
p371
ag36
asg13
S'Quit talking about the   sweep. '
p372
sg15
S' Your team is still in last place! '
p373
sg17
Vgordon-ramsay
p374
sg19
(lp375
g367
ag368
ag369
ag370
ag371
ag36
aS'Your'
p376
aS'team'
p377
aS'is'
p378
aS'still'
p379
aS'in'
p380
aS'last'
p381
aS'place'
p382
ag64
asg29
(lp383
g376
ag377
ag378
ag379
ag380
ag381
ag382
ag64
asba(iMeme
Meme
p384
(dp385
g3
(lp386
S'Quit'
p387
aS'talking'
p388
aS'about'
p389
aS'the'
p390
aS'sweep'
p391
ag36
asg13
S'Quit talking about the    sweep. '
p392
sg15
S' Your team is still in last place! '
p393
sg17
Vgordon-ramsay
p394
sg19
(lp395
g387
ag388
ag389
ag390
ag391
ag36
aS'Your'
p396
aS'team'
p397
aS'is'
p398
aS'still'
p399
aS'in'
p400
aS'last'
p401
aS'place'
p402
ag64
asg29
(lp403
g396
ag397
ag398
ag399
ag400
ag401
ag402
ag64
asba(iMeme
Meme
p404
(dp405
g3
(lp406
S'This'
p407
aS'chicken'
p408
aS'is'
p409
aS'so'
p410
aS'fucking'
p411
aS'undercooked'
p412
asg13
S'This chicken is so fucking undercooked '
p413
sg15
S' CONSERVATIVES want a law to protect it '
p414
sg17
Vgordon-ramsay
p415
sg19
(lp416
g407
ag408
ag409
ag410
ag411
ag412
aS'CONSERVATIVES'
p417
aS'want'
p418
ag153
aS'law'
p419
aS'to'
p420
aS'protect'
p421
aS'it'
p422
asg29
(lp423
g417
ag418
ag153
ag419
ag420
ag421
ag422
asba(iMeme
Meme
p424
(dp425
g3
(lp426
S'Quit'
p427
aS'talking'
p428
aS'about'
p429
aS'the'
p430
aS'sweep'
p431
ag36
asg13
S'Quit talking about the  sweep. '
p432
sg15
S' Your team is still in last place! '
p433
sg17
Vgordon-ramsay
p434
sg19
(lp435
g427
ag428
ag429
ag430
ag431
ag36
aS'Your'
p436
aS'team'
p437
aS'is'
p438
aS'still'
p439
aS'in'
p440
aS'last'
p441
aS'place'
p442
ag64
asg29
(lp443
g436
ag437
ag438
ag439
ag440
ag441
ag442
ag64
asba(iMeme
Meme
p444
(dp445
g3
(lp446
S'This'
p447
aS'beef'
p448
aS'is'
p449
aS'so'
p450
aS'rare'
p451
asg13
S'This beef is so rare '
p452
sg15
S' the museum is paying a million for it '
p453
sg17
Vgordon-ramsay
p454
sg19
(lp455
g447
ag448
ag449
ag450
ag451
aS'the'
p456
aS'museum'
p457
aS'is'
p458
aS'paying'
p459
ag153
aS'million'
p460
aS'for'
p461
aS'it'
p462
asg29
(lp463
g456
ag457
ag458
ag459
ag153
ag460
ag461
ag462
asba(iMeme
Meme
p464
(dp465
g3
(lp466
S'What'
p467
aS'do'
p468
aS'you'
p469
aS'mean'
p470
asg13
S'What do you mean '
p471
sg15
S" Wolverines or Irish? You didn't go to either school!!! "
p472
sg17
Vgordon-ramsay
p473
sg19
(lp474
g467
ag468
ag469
ag470
aS'Wolverines'
p475
aS'or'
p476
aS'Irish'
p477
ag121
aS'You'
p478
aS'did'
p479
aS"n't"
p480
aS'go'
p481
aS'to'
p482
aS'either'
p483
aS'school'
p484
ag64
ag64
ag64
asg29
(lp485
g475
ag476
ag477
ag121
ag478
ag479
ag480
ag481
ag482
ag483
ag484
ag64
ag64
ag64
asba(iMeme
Meme
p486
(dp487
g3
(lp488
S'Shut'
p489
aS'your'
p490
aS'fucking'
p491
aS'mouth'
p492
aS'up'
p493
asg13
S'Shut your fucking mouth up '
p494
sg15
S' and give me my waffle. '
p495
sg17
Vgordon-ramsay
p496
sg19
(lp497
g489
ag490
ag491
ag492
ag493
aS'and'
p498
aS'give'
p499
aS'me'
p500
aS'my'
p501
aS'waffle'
p502
ag36
asg29
(lp503
g498
ag499
ag500
ag501
ag502
ag36
asba(iMeme
Meme
p504
(dp505
g3
(lp506
S'this'
p507
aS'mallard'
p508
aS'is'
p509
aS'so'
p510
aS'raw'
p511
asg13
S'this mallard is so raw '
p512
sg15
S" it's giving the internet actual advice. "
p513
sg17
Vgordon-ramsay
p514
sg19
(lp515
g507
ag508
ag509
ag510
ag511
aS'it'
p516
aS"'s"
p517
aS'giving'
p518
aS'the'
p519
aS'internet'
p520
aS'actual'
p521
aS'advice'
p522
ag36
asg29
(lp523
g516
ag517
ag518
ag519
ag520
ag521
ag522
ag36
asba(iMeme
Meme
p524
(dp525
g3
(lp526
S'This'
p527
aS'Magikarp'
p528
aS'is'
p529
aS'so'
p530
aS'undercooked'
p531
asg13
S'This Magikarp is so undercooked '
p532
sg15
S' Its still using splash '
p533
sg17
Vgordon-ramsay
p534
sg19
(lp535
g527
ag528
ag529
ag530
ag531
aS'Its'
p536
aS'still'
p537
aS'using'
p538
aS'splash'
p539
asg29
(lp540
g536
ag537
ag538
ag539
asba(iMeme
Meme
p541
(dp542
g3
(lp543
S'What'
p544
aS'the'
p545
aS'f***'
p546
aS'are'
p547
aS'you'
p548
aS'doing'
p549
asg13
S'What the f*** are you doing '
p550
sg15
S'  '
p551
sg17
Vgordon-ramsay
p552
sg19
(lp553
g544
ag545
ag546
ag547
ag548
ag549
asg29
(lp554
sba(iMeme
Meme
p555
(dp556
g3
(lp557
S'the'
p558
aS'language'
p559
aS'is'
p560
aS'so'
p561
aS'raw'
p562
asg13
S'the language is so raw '
p563
sg15
S' reading it gave me indigestion '
p564
sg17
Vgordon-ramsay
p565
sg19
(lp566
g558
ag559
ag560
ag561
ag562
aS'reading'
p567
aS'it'
p568
aS'gave'
p569
aS'me'
p570
aS'indigestion'
p571
asg29
(lp572
g567
ag568
ag569
ag570
ag571
asba(iMeme
Meme
p573
(dp574
g3
(lp575
g131
aS'burned'
p576
aS'my'
p577
aS'nuts'
p578
aS'...'
p579
asg13
S'I burned my nuts... '
p580
sg15
S' put butter on them! '
p581
sg17
Vgordon-ramsay
p582
sg19
(lp583
g131
ag576
ag577
ag578
ag579
aS'put'
p584
aS'butter'
p585
aS'on'
p586
aS'them'
p587
ag64
asg29
(lp588
g584
ag585
ag586
ag587
ag64
asba(iMeme
Meme
p589
(dp590
g3
(lp591
S'Quit'
p592
aS'talking'
p593
aS'abOut'
p594
aS'the'
p595
aS'sweep'
p596
ag36
asg13
S'Quit talking abOut the sweep. '
p597
sg15
S' Your team is still in last place! '
p598
sg17
Vgordon-ramsay
p599
sg19
(lp600
g592
ag593
ag594
ag595
ag596
ag36
aS'Your'
p601
aS'team'
p602
aS'is'
p603
aS'still'
p604
aS'in'
p605
aS'last'
p606
aS'place'
p607
ag64
asg29
(lp608
g601
ag602
ag603
ag604
ag605
ag606
ag607
ag64
asba(iMeme
Meme
p609
(dp610
g3
(lp611
S'Listen'
p612
aS'here'
p613
aS'punk'
p614
asg13
S'Listen here punk '
p615
sg15
S' I enjoy shouting '
p616
sg17
Vgordon-ramsay
p617
sg19
(lp618
g612
ag613
ag614
ag131
aS'enjoy'
p619
aS'shouting'
p620
asg29
(lp621
g131
ag619
ag620
asba(iMeme
Meme
p622
(dp623
g3
(lp624
S'Quit'
p625
aS'talking'
p626
aS'about'
p627
aS'the'
p628
aS'sweep'
p629
ag36
asg13
S'Quit talking about the sweep. '
p630
sg15
S' Your team is still in last place! '
p631
sg17
Vgordon-ramsay
p632
sg19
(lp633
g625
ag626
ag627
ag628
ag629
ag36
aS'Your'
p634
aS'team'
p635
aS'is'
p636
aS'still'
p637
aS'in'
p638
aS'last'
p639
aS'place'
p640
ag64
asg29
(lp641
g634
ag635
ag636
ag637
ag638
ag639
ag640
ag64
asba(iMeme
Meme
p642
(dp643
g3
(lp644
S'Quit'
p645
aS'talking'
p646
aS'about'
p647
aS'the'
p648
aS'sweep'
p649
ag36
asg13
S'Quit talking about the      sweep. '
p650
sg15
S' Your team is still in last place! '
p651
sg17
Vgordon-ramsay
p652
sg19
(lp653
g645
ag646
ag647
ag648
ag649
ag36
aS'Your'
p654
aS'team'
p655
aS'is'
p656
aS'still'
p657
aS'in'
p658
aS'last'
p659
aS'place'
p660
ag64
asg29
(lp661
g654
ag655
ag656
ag657
ag658
ag659
ag660
ag64
asba(iMeme
Meme
p662
(dp663
g3
(lp664
S'That'
p665
aS'bus'
p666
aS'ride'
p667
aS'is'
p668
aS'so'
p669
aS'bad'
p670
asg13
S'That bus ride is so bad '
p671
sg15
S' i thought i was in the flintstones! '
p672
sg17
Vgordon-ramsay
p673
sg19
(lp674
g665
ag666
ag667
ag668
ag669
ag670
aS'i'
p675
aS'thought'
p676
ag675
aS'was'
p677
aS'in'
p678
aS'the'
p679
aS'flintstones'
p680
ag64
asg29
(lp681
g675
ag676
ag675
ag677
ag678
ag679
ag680
ag64
asba(iMeme
Meme
p682
(dp683
g3
(lp684
S'this'
p685
aS'piss'
p686
aS'is'
p687
aS'so'
p688
aS'salty'
p689
asg13
S'this piss is so salty '
p690
sg15
S' i love it  '
p691
sg17
Vgordon-ramsay
p692
sg19
(lp693
g685
ag686
ag687
ag688
ag689
ag675
aS'love'
p694
aS'it'
p695
asg29
(lp696
g675
ag694
ag695
asba(iMeme
Meme
p697
(dp698
g3
(lp699
S'the'
p700
aS'fucking'
p701
aS'ice'
p702
asg13
S'the fucking ice  '
p703
sg15
S' creames going cold '
p704
sg17
Vgordon-ramsay
p705
sg19
(lp706
g700
ag701
ag702
aS'creames'
p707
aS'going'
p708
aS'cold'
p709
asg29
(lp710
g707
ag708
ag709
asba(iMeme
Meme
p711
(dp712
g3
(lp713
S'You'
p714
aS"'re"
p715
aS'lucky'
p716
aS'it'
p717
aS'was'
p718
aS'me'
p719
aS'tasting'
p720
aS'that'
p721
aS'cat'
p722
ag64
ag64
asg13
S"You're lucky it was me tasting that cat!! "
p723
sg15
S' If it was chef cuken she would slap you stupid! '
p724
sg17
Vgordon-ramsay
p725
sg19
(lp726
g714
ag715
ag716
ag717
ag718
ag719
ag720
ag721
ag722
ag64
ag64
aS'If'
p727
aS'it'
p728
aS'was'
p729
aS'chef'
p730
aS'cuken'
p731
aS'she'
p732
aS'would'
p733
aS'slap'
p734
aS'you'
p735
aS'stupid'
p736
ag64
asg29
(lp737
g727
ag728
ag729
ag730
ag731
ag732
ag733
ag734
ag735
ag736
ag64
asba(iMeme
Meme
p738
(dp739
g3
(lp740
sg13
S' '
p741
sg15
S' PTher than making half of the worlds cRap '
p742
sg17
Vgordon-ramsay
p743
sg19
(lp744
S'PTher'
p745
aS'than'
p746
aS'making'
p747
aS'half'
p748
aS'of'
p749
aS'the'
p750
aS'worlds'
p751
aS'cRap'
p752
asg29
(lp753
g745
ag746
ag747
ag748
ag749
ag750
ag751
ag752
asba(iMeme
Meme
p754
(dp755
g3
(lp756
S'this'
p757
aS'mallard'
p758
aS'is'
p759
aS'so'
p760
aS'raw'
p761
asg13
S'this mallard is so raw '
p762
sg15
S" it's giving me actual advice. "
p763
sg17
Vgordon-ramsay
p764
sg19
(lp765
g757
ag758
ag759
ag760
ag761
aS'it'
p766
aS"'s"
p767
aS'giving'
p768
aS'me'
p769
aS'actual'
p770
aS'advice'
p771
ag36
asg29
(lp772
g766
ag767
ag768
ag769
ag770
ag771
ag36
asba(iMeme
Meme
p773
(dp774
g3
(lp775
S'women'
p776
aS'like'
p777
aS'you'
p778
aS'are'
p779
aS'the'
p780
aS'reason'
p781
aS'men'
p782
aS'are'
p783
aS'staying'
p784
aS'single'
p785
asg13
S'women like you are the reason men are staying single '
p786
sg15
S' because you think microwaving frozen dinners counts as cooking a meal '
p787
sg17
Vgordon-ramsay
p788
sg19
(lp789
g776
ag777
ag778
ag779
ag780
ag781
ag782
ag783
ag784
ag785
aS'because'
p790
aS'you'
p791
aS'think'
p792
aS'microwaving'
p793
aS'frozen'
p794
aS'dinners'
p795
aS'counts'
p796
aS'as'
p797
aS'cooking'
p798
ag153
aS'meal'
p799
asg29
(lp800
g790
ag791
ag792
ag793
ag794
ag795
ag796
ag797
ag798
ag153
ag799
asba(iMeme
Meme
p801
(dp802
g3
(lp803
S'When'
p804
ag131
aS'stop'
p805
aS'to'
p806
aS'let'
p807
aS'you'
p808
aS'cross'
p809
aS'the'
p810
aS'road'
p811
asg13
S'When I stop to let you cross the road '
p812
sg15
S' You had better fucking sprint! '
p813
sg17
Vgordon-ramsay
p814
sg19
(lp815
g804
ag131
ag805
ag806
ag807
ag808
ag809
ag810
ag811
aS'You'
p816
aS'had'
p817
aS'better'
p818
aS'fucking'
p819
aS'sprint'
p820
ag64
asg29
(lp821
g816
ag817
ag818
ag819
ag820
ag64
asba(iMeme
Meme
p822
(dp823
g3
(lp824
S'This'
p825
aS'beef'
p826
aS"'s"
p827
aS'so'
p828
aS'fucking'
p829
aS'disgusting'
p830
asg13
S"This beef's so fucking disgusting  "
p831
sg15
S' Robin Thickie is trying to dry hump it '
p832
sg17
Vgordon-ramsay
p833
sg19
(lp834
g825
ag826
ag827
ag828
ag829
ag830
aS'Robin'
p835
aS'Thickie'
p836
aS'is'
p837
aS'trying'
p838
aS'to'
p839
aS'dry'
p840
aS'hump'
p841
aS'it'
p842
asg29
(lp843
g835
ag836
ag837
ag838
ag839
ag840
ag841
ag842
asba(iMeme
Meme
p844
(dp845
g3
(lp846
S'this'
p847
aS'pasta'
p848
aS'has'
p849
aS'so'
p850
aS'much'
p851
aS'ginger'
p852
aS'in'
p853
aS'it'
p854
asg13
S'this pasta has so much ginger in it '
p855
sg15
S" it's astro "
p856
sg17
Vgordon-ramsay
p857
sg19
(lp858
g847
ag848
ag849
ag850
ag851
ag852
ag853
ag854
aS'it'
p859
aS"'s"
p860
aS'astro'
p861
asg29
(lp862
g859
ag860
ag861
asba(iMeme
Meme
p863
(dp864
g3
(lp865
S'This'
p866
aS'food'
p867
aS'is'
p868
aS'so'
p869
aS'gay'
p870
asg13
S'This food is so gay '
p871
sg15
S' Just jan would eat from there '
p872
sg17
Vgordon-ramsay
p873
sg19
(lp874
g866
ag867
ag868
ag869
ag870
aS'Just'
p875
aS'jan'
p876
aS'would'
p877
aS'eat'
p878
aS'from'
p879
aS'there'
p880
asg29
(lp881
g875
ag876
ag877
ag878
ag879
ag880
asba(iMeme
Meme
p882
(dp883
g3
(lp884
sg13
S' '
p885
sg15
S' Where is my fucking pencil!!! '
p886
sg17
Vgordon-ramsay
p887
sg19
(lp888
S'Where'
p889
aS'is'
p890
aS'my'
p891
aS'fucking'
p892
aS'pencil'
p893
ag64
ag64
ag64
asg29
(lp894
g889
ag890
ag891
ag892
ag893
ag64
ag64
ag64
asba(iMeme
Meme
p895
(dp896
g3
(lp897
S'This'
p898
aS'frog'
p899
aS'is'
p900
aS'so'
p901
aS'raw'
p902
asg13
S'This frog is so raw '
p903
sg15
S" It's still trying to teach me the Rasengan! "
p904
sg17
Vgordon-ramsay
p905
sg19
(lp906
g898
ag899
ag900
ag901
ag902
aS'It'
p907
aS"'s"
p908
aS'still'
p909
aS'trying'
p910
aS'to'
p911
aS'teach'
p912
aS'me'
p913
aS'the'
p914
aS'Rasengan'
p915
ag64
asg29
(lp916
g907
ag908
ag909
ag910
ag911
ag912
ag913
ag914
ag915
ag64
asba(iMeme
Meme
p917
(dp918
g3
(lp919
S'girrrrr'
p920
aS'...'
p921
ag36
asg13
S'girrrrr.... '
p922
sg15
S' i would love to throw some hot grease on you '
p923
sg17
Vgordon-ramsay
p924
sg19
(lp925
g920
ag921
ag36
ag675
aS'would'
p926
aS'love'
p927
aS'to'
p928
aS'throw'
p929
aS'some'
p930
aS'hot'
p931
aS'grease'
p932
aS'on'
p933
aS'you'
p934
asg29
(lp935
g675
ag926
ag927
ag928
ag929
ag930
ag931
ag932
ag933
ag934
asba(iMeme
Meme
p936
(dp937
g3
(lp938
S'If'
p939
aS'drago'
p940
aS'was'
p941
aS'any'
p942
aS'uglier'
p943
asg13
S'If drago was any uglier '
p944
sg15
S' He would look like that excuse for food you just made! '
p945
sg17
Vgordon-ramsay
p946
sg19
(lp947
g939
ag940
ag941
ag942
ag943
aS'He'
p948
aS'would'
p949
aS'look'
p950
aS'like'
p951
aS'that'
p952
aS'excuse'
p953
aS'for'
p954
aS'food'
p955
aS'you'
p956
aS'just'
p957
aS'made'
p958
ag64
asg29
(lp959
g948
ag949
ag950
ag951
ag952
ag953
ag954
ag955
ag956
ag957
ag958
ag64
asba(iMeme
Meme
p960
(dp961
g3
(lp962
S'This'
p963
aS'food'
p964
aS'is'
p965
aS'so'
p966
aS'raw'
p967
asg13
S'This food is so raw '
p968
sg15
S' James Labrie would blame his crap voice on it '
p969
sg17
Vgordon-ramsay
p970
sg19
(lp971
g963
ag964
ag965
ag966
ag967
aS'James'
p972
aS'Labrie'
p973
aS'would'
p974
aS'blame'
p975
aS'his'
p976
aS'crap'
p977
aS'voice'
p978
aS'on'
p979
aS'it'
p980
asg29
(lp981
g972
ag973
ag974
ag975
ag976
ag977
ag978
ag979
ag980
asba(iMeme
Meme
p982
(dp983
g3
(lp984
S'And'
p985
aS'you'
p986
aS'mean'
p987
aS'to'
p988
aS'tell'
p989
aS'me'
p990
aS'...'
p991
asg13
S'And you mean to tell me... '
p992
sg15
S' A'
p993
sg17
Vgordon-ramsay
p994
sg19
(lp995
g985
ag986
ag987
ag988
ag989
ag990
ag991
aS'A'
p996
asg29
(lp997
g996
asba(iMeme
Meme
p998
(dp999
g3
(lp1000
S'The'
p1001
aS'mirror'
p1002
aS'on'
p1003
aS'the'
p1004
aS'wall'
p1005
aS'to'
p1006
aS'your'
p1007
aS'left'
p1008
asg13
S'The mirror on the wall to your left '
p1009
sg15
S' Doubles the amount of shit I have to look at you cook! '
p1010
sg17
Vgordon-ramsay
p1011
sg19
(lp1012
g1001
ag1002
ag1003
ag1004
ag1005
ag1006
ag1007
ag1008
aS'Doubles'
p1013
aS'the'
p1014
aS'amount'
p1015
aS'of'
p1016
aS'shit'
p1017
ag131
aS'have'
p1018
aS'to'
p1019
aS'look'
p1020
aS'at'
p1021
aS'you'
p1022
aS'cook'
p1023
ag64
asg29
(lp1024
g1013
ag1014
ag1015
ag1016
ag1017
ag131
ag1018
ag1019
ag1020
ag1021
ag1022
ag1023
ag64
asba(iMeme
Meme
p1025
(dp1026
g3
(lp1027
S'This'
p1028
aS'soup'
p1029
aS'is'
p1030
aS'so'
p1031
aS'salty'
p1032
asg13
S'This soup is so salty '
p1033
sg15
S' Did Gwo phalanx killed your fleet again '
p1034
sg17
Vgordon-ramsay
p1035
sg19
(lp1036
g1028
ag1029
ag1030
ag1031
ag1032
aS'Did'
p1037
aS'Gwo'
p1038
aS'phalanx'
p1039
aS'killed'
p1040
aS'your'
p1041
aS'fleet'
p1042
aS'again'
p1043
asg29
(lp1044
g1037
ag1038
ag1039
ag1040
ag1041
ag1042
ag1043
asba(iMeme
Meme
p1045
(dp1046
g3
(lp1047
S'this'
p1048
aS'dinner'
p1049
aS'was'
p1050
aS'supposed'
p1051
aS'to'
p1052
aS'be'
p1053
aS'ready'
p1054
aS'at'
p1055
aS'23:00'
p1056
ag64
asg13
S'this dinner was supposed to be ready at 23:00! '
p1057
sg15
S' Not later. '
p1058
sg17
Vgordon-ramsay
p1059
sg19
(lp1060
g1048
ag1049
ag1050
ag1051
ag1052
ag1053
ag1054
ag1055
ag1056
ag64
aS'Not'
p1061
aS'later'
p1062
ag36
asg29
(lp1063
g1061
ag1062
ag36
asba(iMeme
Meme
p1064
(dp1065
g3
(lp1066
S'this'
p1067
aS'meet'
p1068
aS'is'
p1069
aS'so'
p1070
aS'raw'
p1071
asg13
S'this meet is so raw '
p1072
sg15
S' that not even suarez will bite it '
p1073
sg17
Vgordon-ramsay
p1074
sg19
(lp1075
g1067
ag1068
ag1069
ag1070
ag1071
aS'that'
p1076
aS'not'
p1077
aS'even'
p1078
aS'suarez'
p1079
aS'will'
p1080
aS'bite'
p1081
aS'it'
p1082
asg29
(lp1083
g1076
ag1077
ag1078
ag1079
ag1080
ag1081
ag1082
asba(iMeme
Meme
p1084
(dp1085
g3
(lp1086
S'Rob'
p1087
aS'there'
p1088
aS'are'
p1089
aS'sooo'
p1090
aS'many'
p1091
aS'potatoes'
p1092
aS'roasting'
p1093
aS'in'
p1094
aS'the'
p1095
aS'oven'
p1096
asg13
S'Rob there are sooo many potatoes roasting in the oven '
p1097
sg15
S' that you could wipe out hunger in Africa '
p1098
sg17
Vgordon-ramsay
p1099
sg19
(lp1100
g1087
ag1088
ag1089
ag1090
ag1091
ag1092
ag1093
ag1094
ag1095
ag1096
aS'that'
p1101
aS'you'
p1102
aS'could'
p1103
aS'wipe'
p1104
aS'out'
p1105
aS'hunger'
p1106
aS'in'
p1107
aS'Africa'
p1108
asg29
(lp1109
g1101
ag1102
ag1103
ag1104
ag1105
ag1106
ag1107
ag1108
asba(iMeme
Meme
p1110
(dp1111
g3
(lp1112
S'the'
p1113
aS'food'
p1114
aS'is'
p1115
aS'so'
p1116
aS'hard'
p1117
ag64
asg13
S'the food is so hard! '
p1118
sg15
S' that only chuck norris can break it! '
p1119
sg17
Vgordon-ramsay
p1120
sg19
(lp1121
g1113
ag1114
ag1115
ag1116
ag1117
ag64
aS'that'
p1122
aS'only'
p1123
aS'chuck'
p1124
aS'norris'
p1125
aS'can'
p1126
aS'break'
p1127
aS'it'
p1128
ag64
asg29
(lp1129
g1122
ag1123
ag1124
ag1125
ag1126
ag1127
ag1128
ag64
asba(iMeme
Meme
p1130
(dp1131
g3
(lp1132
S'The'
p1133
aS'food'
p1134
aS'is'
p1135
aS'so'
p1136
aS'bad'
p1137
ag64
asg13
S'The food is so bad! '
p1138
sg15
S' That only chuck norris can break it! '
p1139
sg17
Vgordon-ramsay
p1140
sg19
(lp1141
g1133
ag1134
ag1135
ag1136
ag1137
ag64
aS'That'
p1142
aS'only'
p1143
aS'chuck'
p1144
aS'norris'
p1145
aS'can'
p1146
aS'break'
p1147
aS'it'
p1148
ag64
asg29
(lp1149
g1142
ag1143
ag1144
ag1145
ag1146
ag1147
ag1148
ag64
asba(iMeme
Meme
p1150
(dp1151
g3
(lp1152
S'the'
p1153
aS'food'
p1154
aS'is'
p1155
aS'so'
p1156
aS'bad'
p1157
ag64
asg13
S'the food is so bad! '
p1158
sg15
S' That hell it self not want it! '
p1159
sg17
Vgordon-ramsay
p1160
sg19
(lp1161
g1153
ag1154
ag1155
ag1156
ag1157
ag64
aS'That'
p1162
aS'hell'
p1163
aS'it'
p1164
aS'self'
p1165
aS'not'
p1166
aS'want'
p1167
aS'it'
p1168
ag64
asg29
(lp1169
g1162
ag1163
ag1164
ag1165
ag1166
ag1167
ag1168
ag64
asba(iMeme
Meme
p1170
(dp1171
g3
(lp1172
S'This'
p1173
aS'lamb'
p1174
aS'is'
p1175
aS'so'
p1176
aS'fucking'
p1177
aS'rough'
p1178
aS'and'
p1179
aS'oiley'
p1180
asg13
S'This lamb is so fucking rough and oiley '
p1181
sg15
S" it probably tastes like john boehner's face "
p1182
sg17
Vgordon-ramsay
p1183
sg19
(lp1184
g1173
ag1174
ag1175
ag1176
ag1177
ag1178
ag1179
ag1180
aS'it'
p1185
aS'probably'
p1186
aS'tastes'
p1187
aS'like'
p1188
aS'john'
p1189
aS'boehner'
p1190
aS"'s"
p1191
aS'face'
p1192
asg29
(lp1193
g1185
ag1186
ag1187
ag1188
ag1189
ag1190
ag1191
ag1192
asba(iMeme
Meme
p1194
(dp1195
g3
(lp1196
S'this'
p1197
aS'is'
p1198
aS'so'
p1199
aS'rubbery'
p1200
asg13
S'this is so rubbery '
p1201
sg15
S' it still has tread left '
p1202
sg17
Vgordon-ramsay
p1203
sg19
(lp1204
g1197
ag1198
ag1199
ag1200
aS'it'
p1205
aS'still'
p1206
aS'has'
p1207
aS'tread'
p1208
aS'left'
p1209
asg29
(lp1210
g1205
ag1206
ag1207
ag1208
ag1209
asba(iMeme
Meme
p1211
(dp1212
g3
(lp1213
S'Jeremy'
p1214
aS'mekael'
p1215
aS'is'
p1216
aS'such'
p1217
ag153
aS'faggot'
p1218
asg13
S'Jeremy mekael is such a faggot '
p1219
sg15
S' he makes elton john look straight '
p1220
sg17
Vgordon-ramsay
p1221
sg19
(lp1222
g1214
ag1215
ag1216
ag1217
ag153
ag1218
aS'he'
p1223
aS'makes'
p1224
aS'elton'
p1225
aS'john'
p1226
aS'look'
p1227
aS'straight'
p1228
asg29
(lp1229
g1223
ag1224
ag1225
ag1226
ag1227
ag1228
asba(iMeme
Meme
p1230
(dp1231
g3
(lp1232
S'Why'
p1233
aS'did'
p1234
aS"n't"
p1235
aS'you'
p1236
aS'tell'
p1237
aS'me'
p1238
aS'Kickstart'
p1239
aS'was'
p1240
aS'on'
p1241
aS'the'
p1242
aS'8tH'
p1243
aS'June'
p1244
aS'2013'
p1245
ag121
ag121
asg13
S"Why didn't you tell me Kickstart was on the 8tH June 2013?? "
p1246
sg15
S' Its the 9th and I have just missed it!!! '
p1247
sg17
Vgordon-ramsay
p1248
sg19
(lp1249
g1233
ag1234
ag1235
ag1236
ag1237
ag1238
ag1239
ag1240
ag1241
ag1242
ag1243
ag1244
ag1245
ag121
ag121
aS'Its'
p1250
aS'the'
p1251
aS'9th'
p1252
aS'and'
p1253
ag131
aS'have'
p1254
aS'just'
p1255
aS'missed'
p1256
aS'it'
p1257
ag64
ag64
ag64
asg29
(lp1258
g1250
ag1251
ag1252
ag1253
ag131
ag1254
ag1255
ag1256
ag1257
ag64
ag64
ag64
asba(iMeme
Meme
p1259
(dp1260
g3
(lp1261
S'this'
p1262
aS'ice'
p1263
asg13
S'this ice '
p1264
sg15
S' is warm '
p1265
sg17
Vgordon-ramsay
p1266
sg19
(lp1267
g1262
ag1263
aS'is'
p1268
aS'warm'
p1269
asg29
(lp1270
g1268
ag1269
asba(iMeme
Meme
p1271
(dp1272
g3
(lp1273
S'this'
p1274
aS'is'
p1275
aS'so'
p1276
aS'rubbery'
p1277
asg13
S'this is so rubbery '
p1278
sg15
S'  '
p1279
sg17
Vgordon-ramsay
p1280
sg19
(lp1281
g1274
ag1275
ag1276
ag1277
asg29
(lp1282
sba(iMeme
Meme
p1283
(dp1284
g3
(lp1285
S'heyy'
p1286
ag64
asg13
S'heyy! '
p1287
sg15
S' stop cooking by brain '
p1288
sg17
Vgordon-ramsay
p1289
sg19
(lp1290
g1286
ag64
aS'stop'
p1291
aS'cooking'
p1292
aS'by'
p1293
aS'brain'
p1294
asg29
(lp1295
g1291
ag1292
ag1293
ag1294
asba(iMeme
Meme
p1296
(dp1297
g3
(lp1298
S'This'
p1299
aS'is'
p1300
aS'so'
p1301
aS'rubbery'
p1302
asg13
S'This is so rubbery '
p1303
sg15
S'  '
p1304
sg17
Vgordon-ramsay
p1305
sg19
(lp1306
g1299
ag1300
ag1301
ag1302
asg29
(lp1307
sba(iMeme
Meme
p1308
(dp1309
g3
(lp1310
S'the'
p1311
aS'only'
p1312
aS'person'
p1313
ag675
aS'dont'
p1314
aS'yell'
p1315
aS'at'
p1316
asg13
S'the only person i dont yell at '
p1317
sg15
S' is sTm '
p1318
sg17
Vgordon-ramsay
p1319
sg19
(lp1320
g1311
ag1312
ag1313
ag675
ag1314
ag1315
ag1316
aS'is'
p1321
aS'sTm'
p1322
asg29
(lp1323
g1321
ag1322
asba(iMeme
Meme
p1324
(dp1325
g3
(lp1326
sg13
S' '
p1327
sg15
S' it still has tread on it '
p1328
sg17
Vgordon-ramsay
p1329
sg19
(lp1330
S'it'
p1331
aS'still'
p1332
aS'has'
p1333
aS'tread'
p1334
aS'on'
p1335
aS'it'
p1336
asg29
(lp1337
g1331
ag1332
ag1333
ag1334
ag1335
ag1336
asba(iMeme
Meme
p1338
(dp1339
g3
(lp1340
S'Why'
p1341
aS'did'
p1342
aS'the'
p1343
aS'chicken'
p1344
aS'cross'
p1345
aS'the'
p1346
aS'road'
p1347
ag121
asg13
S'Why did the chicken cross the road? '
p1348
sg15
S" Because you didn't fucking cook it! "
p1349
sg17
Vgordon-ramsay
p1350
sg19
(lp1351
g1341
ag1342
ag1343
ag1344
ag1345
ag1346
ag1347
ag121
aS'Because'
p1352
aS'you'
p1353
aS'did'
p1354
aS"n't"
p1355
aS'fucking'
p1356
aS'cook'
p1357
aS'it'
p1358
ag64
asg29
(lp1359
g1352
ag1353
ag1354
ag1355
ag1356
ag1357
ag1358
ag64
asba(iMeme
Meme
p1360
(dp1361
g3
(lp1362
g675
aS'do'
p1363
aS"n't"
p1364
aS'know'
p1365
aS'which'
p1366
aS'cooking'
p1367
aS'classes'
p1368
aS'you'
p1369
aS'have'
p1370
aS'taken'
p1371
aS'before'
p1372
asg13
S"i don't know which cooking classes you have taken before "
p1373
sg15
S' but pasta cooking 101 with Potter is not a good place to start! '
p1374
sg17
Vgordon-ramsay
p1375
sg19
(lp1376
g675
ag1363
ag1364
ag1365
ag1366
ag1367
ag1368
ag1369
ag1370
ag1371
ag1372
aS'but'
p1377
aS'pasta'
p1378
aS'cooking'
p1379
aS'101'
p1380
aS'with'
p1381
aS'Potter'
p1382
aS'is'
p1383
aS'not'
p1384
ag153
aS'good'
p1385
aS'place'
p1386
aS'to'
p1387
aS'start'
p1388
ag64
asg29
(lp1389
g1377
ag1378
ag1379
ag1380
ag1381
ag1382
ag1383
ag1384
ag153
ag1385
ag1386
ag1387
ag1388
ag64
asba(iMeme
Meme
p1390
(dp1391
g3
(lp1392
S'Where'
p1393
aS'is'
p1394
aS'my'
p1395
aS'fucking'
p1396
aS'pencil'
p1397
ag64
ag64
ag64
ag64
ag64
asg13
S'Where is my fucking pencil!!!!! '
p1398
sg15
S'  '
p1399
sg17
Vgordon-ramsay
p1400
sg19
(lp1401
g1393
ag1394
ag1395
ag1396
ag1397
ag64
ag64
ag64
ag64
ag64
asg29
(lp1402
sba(iMeme
Meme
p1403
(dp1404
g3
(lp1405
S'There'
p1406
aS"'s"
p1407
aS'so'
p1408
aS'much'
p1409
aS'ginger'
p1410
aS'in'
p1411
aS'this'
p1412
asg13
S"There's so much ginger in this "
p1413
sg15
S" It's name should be Allisa Daniels "
p1414
sg17
Vgordon-ramsay
p1415
sg19
(lp1416
g1406
ag1407
ag1408
ag1409
ag1410
ag1411
ag1412
aS'It'
p1417
aS"'s"
p1418
aS'name'
p1419
aS'should'
p1420
aS'be'
p1421
aS'Allisa'
p1422
aS'Daniels'
p1423
asg29
(lp1424
g1417
ag1418
ag1419
ag1420
ag1421
ag1422
ag1423
asba(iMeme
Meme
p1425
(dp1426
g3
(lp1427
S'where'
p1428
aS'the'
p1429
aS'fuck'
p1430
aS'is'
p1431
aS'my'
p1432
aS'pencil'
p1433
asg13
S'where the fuck is my pencil '
p1434
sg15
S'  '
p1435
sg17
Vgordon-ramsay
p1436
sg19
(lp1437
g1428
ag1429
ag1430
ag1431
ag1432
ag1433
asg29
(lp1438
sba(iMeme
Meme
p1439
(dp1440
g3
(lp1441
S'your'
p1442
aS'wife'
p1443
aS'is'
p1444
aS'so'
p1445
aS'poor'
p1446
asg13
S'your wife is so poor '
p1447
sg15
S' that people talk her in russian '
p1448
sg17
Vgordon-ramsay
p1449
sg19
(lp1450
g1442
ag1443
ag1444
ag1445
ag1446
aS'that'
p1451
aS'people'
p1452
aS'talk'
p1453
aS'her'
p1454
aS'in'
p1455
aS'russian'
p1456
asg29
(lp1457
g1451
ag1452
ag1453
ag1454
ag1455
ag1456
asba(iMeme
Meme
p1458
(dp1459
g3
(lp1460
S'See'
p1461
aS'all'
p1462
aS'these'
p1463
aS'breaches'
p1464
aS'in'
p1465
aS'da'
p1466
aS'kitchen'
p1467
ag121
asg13
S'See all these breaches in da kitchen? '
p1468
sg15
S" and you still don't take it! "
p1469
sg17
Vgordon-ramsay
p1470
sg19
(lp1471
g1461
ag1462
ag1463
ag1464
ag1465
ag1466
ag1467
ag121
aS'and'
p1472
aS'you'
p1473
aS'still'
p1474
aS'do'
p1475
aS"n't"
p1476
aS'take'
p1477
aS'it'
p1478
ag64
asg29
(lp1479
g1472
ag1473
ag1474
ag1475
ag1476
ag1477
ag1478
ag64
asba(iMeme
Meme
p1480
(dp1481
g3
(lp1482
S'This'
p1483
aS'ice'
p1484
asg13
S'This ice '
p1485
sg15
S' is frozen!! '
p1486
sg17
Vgordon-ramsay
p1487
sg19
(lp1488
g1483
ag1484
aS'is'
p1489
aS'frozen'
p1490
ag64
ag64
asg29
(lp1491
g1489
ag1490
ag64
ag64
asba(iMeme
Meme
p1492
(dp1493
g3
(lp1494
S'you'
p1495
aS'call'
p1496
aS'this'
p1497
aS'food'
p1498
ag121
ag64
ag121
asg13
S'you call this food?!? '
p1499
sg15
S" this shit isn't fit to be served at taybarns! "
p1500
sg17
Vgordon-ramsay
p1501
sg19
(lp1502
g1495
ag1496
ag1497
ag1498
ag121
ag64
ag121
aS'this'
p1503
aS'shit'
p1504
aS'is'
p1505
aS"n't"
p1506
aS'fit'
p1507
aS'to'
p1508
aS'be'
p1509
aS'served'
p1510
aS'at'
p1511
aS'taybarns'
p1512
ag64
asg29
(lp1513
g1503
ag1504
ag1505
ag1506
ag1507
ag1508
ag1509
ag1510
ag1511
ag1512
ag64
asba(iMeme
Meme
p1514
(dp1515
g3
(lp1516
S'Fuck'
p1517
aS'You'
p1518
asg13
S'Fuck You '
p1519
sg15
S' Make me some food not poison bitch '
p1520
sg17
Vgordon-ramsay
p1521
sg19
(lp1522
g1517
ag1518
aS'Make'
p1523
aS'me'
p1524
aS'some'
p1525
aS'food'
p1526
aS'not'
p1527
aS'poison'
p1528
aS'bitch'
p1529
asg29
(lp1530
g1523
ag1524
ag1525
ag1526
ag1527
ag1528
ag1529
asba(iMeme
Meme
p1531
(dp1532
g3
(lp1533
S'you'
p1534
aS'are'
p1535
aS'so'
p1536
aS'annoying'
p1537
asg13
S'you are so annoying '
p1538
sg15
S' even artuur does not like you '
p1539
sg17
Vgordon-ramsay
p1540
sg19
(lp1541
g1534
ag1535
ag1536
ag1537
aS'even'
p1542
aS'artuur'
p1543
aS'does'
p1544
aS'not'
p1545
aS'like'
p1546
aS'you'
p1547
asg29
(lp1548
g1542
ag1543
ag1544
ag1545
ag1546
ag1547
asba(iMeme
Meme
p1549
(dp1550
g3
(lp1551
S'Your'
p1552
ag153
aS'woman'
p1553
asg13
S'Your a woman '
p1554
sg15
S' This is your kitcheN '
p1555
sg17
Vgordon-ramsay
p1556
sg19
(lp1557
g1552
ag153
ag1553
aS'This'
p1558
aS'is'
p1559
aS'your'
p1560
aS'kitcheN'
p1561
asg29
(lp1562
g1558
ag1559
ag1560
ag1561
asba(iMeme
Meme
p1563
(dp1564
g3
(lp1565
S'why'
p1566
aS'the'
p1567
aS'fuck'
p1568
asg13
S'why the fuck '
p1569
sg15
S' is there an asian in my kitchen!!!! '
p1570
sg17
Vgordon-ramsay
p1571
sg19
(lp1572
g1566
ag1567
ag1568
aS'is'
p1573
aS'there'
p1574
aS'an'
p1575
aS'asian'
p1576
aS'in'
p1577
aS'my'
p1578
aS'kitchen'
p1579
ag64
ag64
ag64
ag64
asg29
(lp1580
g1573
ag1574
ag1575
ag1576
ag1577
ag1578
ag1579
ag64
ag64
ag64
ag64
asba(iMeme
Meme
p1581
(dp1582
g3
(lp1583
S'Why'
p1584
aS'did'
p1585
aS"n't"
p1586
aS'you'
p1587
aS'tell'
p1588
aS'me'
p1589
aS'Kickstart'
p1590
aS'was'
p1591
aS'on'
p1592
aS'the'
p1593
aS'8tH'
p1594
aS'June'
p1595
aS'2013'
p1596
ag121
ag121
asg13
S"Why didn't you tell me Kickstart was on the 8tH June 2013?? "
p1597
sg15
S" It's the 9th and I have just missed it!!! "
p1598
sg17
Vgordon-ramsay
p1599
sg19
(lp1600
g1584
ag1585
ag1586
ag1587
ag1588
ag1589
ag1590
ag1591
ag1592
ag1593
ag1594
ag1595
ag1596
ag121
ag121
aS'It'
p1601
aS"'s"
p1602
aS'the'
p1603
aS'9th'
p1604
aS'and'
p1605
ag131
aS'have'
p1606
aS'just'
p1607
aS'missed'
p1608
aS'it'
p1609
ag64
ag64
ag64
asg29
(lp1610
g1601
ag1602
ag1603
ag1604
ag1605
ag131
ag1606
ag1607
ag1608
ag1609
ag64
ag64
ag64
asba(iMeme
Meme
p1611
(dp1612
g3
(lp1613
S'My'
p1614
aS'knives'
p1615
aS'are'
p1616
aS'dull'
p1617
aS','
p1618
aS'you'
p1619
aS'say'
p1620
ag121
ag64
ag121
asg13
S'My knives are dull, you say?!? '
p1621
sg15
S' Cherie fucking fortino filleted her finger with my knife! '
p1622
sg17
Vgordon-ramsay
p1623
sg19
(lp1624
g1614
ag1615
ag1616
ag1617
ag1618
ag1619
ag1620
ag121
ag64
ag121
aS'Cherie'
p1625
aS'fucking'
p1626
aS'fortino'
p1627
aS'filleted'
p1628
aS'her'
p1629
aS'finger'
p1630
aS'with'
p1631
aS'my'
p1632
aS'knife'
p1633
ag64
asg29
(lp1634
g1625
ag1626
ag1627
ag1628
ag1629
ag1630
ag1631
ag1632
ag1633
ag64
asba(iMeme
Meme
p1635
(dp1636
g3
(lp1637
S'abusing'
p1638
aS'the'
p1639
aS'little'
p1640
aS'people'
p1641
asg13
S'abusing the little people '
p1642
sg15
S' makes me millions '
p1643
sg17
Vgordon-ramsay
p1644
sg19
(lp1645
g1638
ag1639
ag1640
ag1641
aS'makes'
p1646
aS'me'
p1647
aS'millions'
p1648
asg29
(lp1649
g1646
ag1647
ag1648
asba(iMeme
Meme
p1650
(dp1651
g3
(lp1652
S'this'
p1653
aS'sauce'
p1654
aS'is'
p1655
aS'so'
p1656
aS'dense'
p1657
asg13
S'this sauce is so dense '
p1658
sg15
S' an essex girl would float on it '
p1659
sg17
Vgordon-ramsay
p1660
sg19
(lp1661
g1653
ag1654
ag1655
ag1656
ag1657
aS'an'
p1662
aS'essex'
p1663
aS'girl'
p1664
aS'would'
p1665
aS'float'
p1666
aS'on'
p1667
aS'it'
p1668
asg29
(lp1669
g1662
ag1663
ag1664
ag1665
ag1666
ag1667
ag1668
asba(iMeme
Meme
p1670
(dp1671
g3
(lp1672
S'You'
p1673
aS'have'
p1674
aS'it'
p1675
aS'wrong'
p1676
ag1618
ag675
aS'said'
p1677
aS'cook'
p1678
aS'the'
p1679
aS'fucking'
p1680
aS'chicken'
p1681
ag36
aS'Not'
p1682
aS'dress'
p1683
aS'it'
p1684
aS'up'
p1685
aS'like'
p1686
aS'Miley'
p1687
aS"'s"
p1688
aS'ass'
p1689
aS'...'
p1690
asg13
S"You have it wrong, i said cook the fucking chicken. Not dress it up like Miley's ass... "
p1691
sg15
S'  '
p1692
sg17
Vgordon-ramsay
p1693
sg19
(lp1694
g1673
ag1674
ag1675
ag1676
ag1618
ag675
ag1677
ag1678
ag1679
ag1680
ag1681
ag36
ag1682
ag1683
ag1684
ag1685
ag1686
ag1687
ag1688
ag1689
ag1690
asg29
(lp1695
sba(iMeme
Meme
p1696
(dp1697
g3
(lp1698
S'This'
p1699
aS'food'
p1700
aS'is'
p1701
aS'so'
p1702
aS'horrid'
p1703
ag1618
aS'that'
p1704
asg13
S'This food is so horrid, that  '
p1705
sg15
S"  even Americans wouldn't eat it! "
p1706
sg17
Vgordon-ramsay
p1707
sg19
(lp1708
g1699
ag1700
ag1701
ag1702
ag1703
ag1618
ag1704
aS'even'
p1709
aS'Americans'
p1710
aS'would'
p1711
aS"n't"
p1712
aS'eat'
p1713
aS'it'
p1714
ag64
asg29
(lp1715
g1709
ag1710
ag1711
ag1712
ag1713
ag1714
ag64
asba(iMeme
Meme
p1716
(dp1717
g3
(lp1718
S'you'
p1719
aS'use'
p1720
aS'tongues'
p1721
aS'to'
p1722
aS'flip'
p1723
aS'burgers'
p1724
asg13
S'you use tongues to flip burgers '
p1725
sg15
S' did you even go to burger college? '
p1726
sg17
Vgordon-ramsay
p1727
sg19
(lp1728
g1719
ag1720
ag1721
ag1722
ag1723
ag1724
aS'did'
p1729
aS'you'
p1730
aS'even'
p1731
aS'go'
p1732
aS'to'
p1733
aS'burger'
p1734
aS'college'
p1735
ag121
asg29
(lp1736
g1729
ag1730
ag1731
ag1732
ag1733
ag1734
ag1735
ag121
asba(iMeme
Meme
p1737
(dp1738
g3
(lp1739
S'This'
p1740
aS'meat'
p1741
aS'is'
p1742
aS'so'
p1743
aS'rare'
p1744
asg13
S'This meat is so rare '
p1745
sg15
S' I threw a masterball at it '
p1746
sg17
Vgordon-ramsay
p1747
sg19
(lp1748
g1740
ag1741
ag1742
ag1743
ag1744
ag131
aS'threw'
p1749
ag153
aS'masterball'
p1750
aS'at'
p1751
aS'it'
p1752
asg29
(lp1753
g131
ag1749
ag153
ag1750
ag1751
ag1752
asba(iMeme
Meme
p1754
(dp1755
g3
(lp1756
S'Erica'
p1757
ag64
aS'Quit'
p1758
aS'calling'
p1759
aS'yourself'
p1760
aS'Tater'
p1761
asg13
S'Erica! Quit calling yourself Tater '
p1762
sg15
S' And make a damn smoothie already '
p1763
sg17
Vgordon-ramsay
p1764
sg19
(lp1765
g1757
ag64
ag1758
ag1759
ag1760
ag1761
aS'And'
p1766
aS'make'
p1767
ag153
aS'damn'
p1768
aS'smoothie'
p1769
aS'already'
p1770
asg29
(lp1771
g1766
ag1767
ag153
ag1768
ag1769
ag1770
asba(iMeme
Meme
p1772
(dp1773
g3
(lp1774
S'This'
p1775
aS'beef'
p1776
aS'is'
p1777
aS'so'
p1778
aS'disgusting'
p1779
asg13
S'This beef is so disgusting  '
p1780
sg15
S" Robin Thicke's trying to dry hump it "
p1781
sg17
Vgordon-ramsay
p1782
sg19
(lp1783
g1775
ag1776
ag1777
ag1778
ag1779
aS'Robin'
p1784
aS'Thicke'
p1785
aS"'s"
p1786
aS'trying'
p1787
aS'to'
p1788
aS'dry'
p1789
aS'hump'
p1790
aS'it'
p1791
asg29
(lp1792
g1784
ag1785
ag1786
ag1787
ag1788
ag1789
ag1790
ag1791
asba(iMeme
Meme
p1793
(dp1794
g3
(lp1795
g131
aS'swear'
p1796
aS'to'
p1797
aS'god'
p1798
asg13
S'I swear to god '
p1799
sg15
S' Stop deleting the background '
p1800
sg17
Vgordon-ramsay
p1801
sg19
(lp1802
g131
ag1796
ag1797
ag1798
aS'Stop'
p1803
aS'deleting'
p1804
aS'the'
p1805
aS'background'
p1806
asg29
(lp1807
g1803
ag1804
ag1805
ag1806
asba(iMeme
Meme
p1808
(dp1809
g3
(lp1810
S'This'
p1811
aS'dish'
p1812
aS'is'
p1813
aS'so'
p1814
aS'awful'
p1815
asg13
S'This dish is so awful '
p1816
sg15
S' SyFy is turning it into a movie  '
p1817
sg17
Vgordon-ramsay
p1818
sg19
(lp1819
g1811
ag1812
ag1813
ag1814
ag1815
aS'SyFy'
p1820
aS'is'
p1821
aS'turning'
p1822
aS'it'
p1823
aS'into'
p1824
ag153
aS'movie'
p1825
asg29
(lp1826
g1820
ag1821
ag1822
ag1823
ag1824
ag153
ag1825
asba(iMeme
Meme
p1827
(dp1828
g3
(lp1829
S'These'
p1830
aS'memes'
p1831
aS'are'
p1832
aS'so'
p1833
aS'cold'
p1834
ag1618
asg13
S'These memes are so cold, '
p1835
sg15
S' I can chill grapes in them! '
p1836
sg17
Vgordon-ramsay
p1837
sg19
(lp1838
g1830
ag1831
ag1832
ag1833
ag1834
ag1618
ag131
aS'can'
p1839
aS'chill'
p1840
aS'grapes'
p1841
aS'in'
p1842
aS'them'
p1843
ag64
asg29
(lp1844
g131
ag1839
ag1840
ag1841
ag1842
ag1843
ag64
asba(iMeme
Meme
p1845
(dp1846
g3
(lp1847
S'the'
p1848
aS'fish'
p1849
aS'is'
p1850
aS'so'
p1851
aS'raw'
p1852
asg13
S'the fish is so raw '
p1853
sg15
S" that is still swimming around looking for it's father! "
p1854
sg17
Vgordon-ramsay
p1855
sg19
(lp1856
g1848
ag1849
ag1850
ag1851
ag1852
aS'that'
p1857
aS'is'
p1858
aS'still'
p1859
aS'swimming'
p1860
aS'around'
p1861
aS'looking'
p1862
aS'for'
p1863
aS'it'
p1864
aS"'s"
p1865
aS'father'
p1866
ag64
asg29
(lp1867
g1857
ag1858
ag1859
ag1860
ag1861
ag1862
ag1863
ag1864
ag1865
ag1866
ag64
asba(iMeme
Meme
p1868
(dp1869
g3
(lp1870
S'There'
p1871
aS"'s"
p1872
aS'so'
p1873
aS'much'
p1874
aS'ginger'
p1875
aS'in'
p1876
aS'this'
p1877
aS'bread'
p1878
asg13
S"There's so much ginger in this bread "
p1879
sg15
S' it has no f*cking soul '
p1880
sg17
Vgordon-ramsay
p1881
sg19
(lp1882
g1871
ag1872
ag1873
ag1874
ag1875
ag1876
ag1877
ag1878
aS'it'
p1883
aS'has'
p1884
aS'no'
p1885
aS'f*cking'
p1886
aS'soul'
p1887
asg29
(lp1888
g1883
ag1884
ag1885
ag1886
ag1887
asba(iMeme
Meme
p1889
(dp1890
g3
(lp1891
S'make'
p1892
aS'yourself'
p1893
aS'useful'
p1894
asg13
S'make yourself useful '
p1895
sg15
S' donate to the  wikileaks party '
p1896
sg17
Vgordon-ramsay
p1897
sg19
(lp1898
g1892
ag1893
ag1894
aS'donate'
p1899
aS'to'
p1900
aS'the'
p1901
aS'wikileaks'
p1902
aS'party'
p1903
asg29
(lp1904
g1899
ag1900
ag1901
ag1902
ag1903
asba(iMeme
Meme
p1905
(dp1906
g3
(lp1907
S'you'
p1908
aS'kill'
p1909
aS'it'
p1910
asg13
S'you kill it '
p1911
sg15
S' we grill it '
p1912
sg17
Vgordon-ramsay
p1913
sg19
(lp1914
g1908
ag1909
ag1910
aS'we'
p1915
aS'grill'
p1916
aS'it'
p1917
asg29
(lp1918
g1915
ag1916
ag1917
asba(iMeme
Meme
p1919
(dp1920
g3
(lp1921
S'This'
p1922
aS'chicken'
p1923
aS'is'
p1924
aS'so'
p1925
aS'fucking'
p1926
aS'black'
p1927
asg13
S'This chicken is so fucking black '
p1928
sg15
S' republicans want to suppress its vote! '
p1929
sg17
Vgordon-ramsay
p1930
sg19
(lp1931
g1922
ag1923
ag1924
ag1925
ag1926
ag1927
aS'republicans'
p1932
aS'want'
p1933
aS'to'
p1934
aS'suppress'
p1935
aS'its'
p1936
aS'vote'
p1937
ag64
asg29
(lp1938
g1932
ag1933
ag1934
ag1935
ag1936
ag1937
ag64
asba(iMeme
Meme
p1939
(dp1940
g3
(lp1941
S'yOur'
p1942
aS'deck'
p1943
aS'is'
p1944
aS'so'
p1945
aS'bad'
p1946
asg13
S'yOur deck is so bad '
p1947
sg15
S'  '
p1948
sg17
Vgordon-ramsay
p1949
sg19
(lp1950
g1942
ag1943
ag1944
ag1945
ag1946
asg29
(lp1951
sba(iMeme
Meme
p1952
(dp1953
g3
(lp1954
S'this'
p1955
aS'soup'
p1956
aS'is'
p1957
aS'so'
p1958
aS'fucking'
p1959
aS'devoid'
p1960
aS'of'
p1961
aS'skill'
p1962
aS'and'
p1963
aS'good'
p1964
aS'taste'
p1965
asg13
S'this soup is so fucking devoid of skill and good taste '
p1966
sg15
S' it should sign a contract with usher '
p1967
sg17
Vgordon-ramsay
p1968
sg19
(lp1969
g1955
ag1956
ag1957
ag1958
ag1959
ag1960
ag1961
ag1962
ag1963
ag1964
ag1965
aS'it'
p1970
aS'should'
p1971
aS'sign'
p1972
ag153
aS'contract'
p1973
aS'with'
p1974
aS'usher'
p1975
asg29
(lp1976
g1970
ag1971
ag1972
ag153
ag1973
ag1974
ag1975
asba(iMeme
Meme
p1977
(dp1978
g3
(lp1979
S'the'
p1980
aS'food'
p1981
aS'is'
p1982
aS'so'
p1983
aS'bad'
p1984
ag64
asg13
S'the food is so bad! '
p1985
sg15
S' that even hell wants it! '
p1986
sg17
Vgordon-ramsay
p1987
sg19
(lp1988
g1980
ag1981
ag1982
ag1983
ag1984
ag64
aS'that'
p1989
aS'even'
p1990
aS'hell'
p1991
aS'wants'
p1992
aS'it'
p1993
ag64
asg29
(lp1994
g1989
ag1990
ag1991
ag1992
ag1993
ag64
asba(iMeme
Meme
p1995
(dp1996
g3
(lp1997
S'the'
p1998
aS'food'
p1999
aS'is'
p2000
aS'so'
p2001
aS'bad'
p2002
ag64
asg13
S'the food is so bad! '
p2003
sg15
S' that my grandmother do it better and she  is dead! '
p2004
sg17
Vgordon-ramsay
p2005
sg19
(lp2006
g1998
ag1999
ag2000
ag2001
ag2002
ag64
aS'that'
p2007
aS'my'
p2008
aS'grandmother'
p2009
aS'do'
p2010
aS'it'
p2011
aS'better'
p2012
aS'and'
p2013
aS'she'
p2014
aS'is'
p2015
aS'dead'
p2016
ag64
asg29
(lp2017
g2007
ag2008
ag2009
ag2010
ag2011
ag2012
ag2013
ag2014
ag2015
ag2016
ag64
asba(iMeme
Meme
p2018
(dp2019
g3
(lp2020
S'Miku'
p2021
ag121
ag64
aS'what'
p2022
aS'fuck'
p2023
aS'you'
p2024
aS'doing'
p2025
aS'here'
p2026
ag121
ag64
asg13
S'Miku?! what fuck you doing here?! '
p2027
sg15
S' your food is so bad not even chuck norris wants it! '
p2028
sg17
Vgordon-ramsay
p2029
sg19
(lp2030
g2021
ag121
ag64
ag2022
ag2023
ag2024
ag2025
ag2026
ag121
ag64
aS'your'
p2031
aS'food'
p2032
aS'is'
p2033
aS'so'
p2034
aS'bad'
p2035
aS'not'
p2036
aS'even'
p2037
aS'chuck'
p2038
aS'norris'
p2039
aS'wants'
p2040
aS'it'
p2041
ag64
asg29
(lp2042
g2031
ag2032
ag2033
ag2034
ag2035
ag2036
ag2037
ag2038
ag2039
ag2040
ag2041
ag64
asba(iMeme
Meme
p2043
(dp2044
g3
(lp2045
S'this'
p2046
aS'dessert'
p2047
aS'is'
p2048
aS'so'
p2049
aS'sweet'
p2050
asg13
S'this dessert is so sweet '
p2051
sg15
S' they used it for evidence in the zimmerman trial '
p2052
sg17
Vgordon-ramsay
p2053
sg19
(lp2054
g2046
ag2047
ag2048
ag2049
ag2050
aS'they'
p2055
aS'used'
p2056
aS'it'
p2057
aS'for'
p2058
aS'evidence'
p2059
aS'in'
p2060
aS'the'
p2061
aS'zimmerman'
p2062
aS'trial'
p2063
asg29
(lp2064
g2055
ag2056
ag2057
ag2058
ag2059
ag2060
ag2061
ag2062
ag2063
asba(iMeme
Meme
p2065
(dp2066
g3
(lp2067
S'This'
p2068
aS'meat'
p2069
aS'is'
p2070
aS'so'
p2071
aS'rare'
p2072
asg13
S'This meat is  so rare '
p2073
sg15
S' the police are about to shoot it because we are filming it '
p2074
sg17
Vgordon-ramsay
p2075
sg19
(lp2076
g2068
ag2069
ag2070
ag2071
ag2072
aS'the'
p2077
aS'police'
p2078
aS'are'
p2079
aS'about'
p2080
aS'to'
p2081
aS'shoot'
p2082
aS'it'
p2083
aS'because'
p2084
aS'we'
p2085
aS'are'
p2086
aS'filming'
p2087
aS'it'
p2088
asg29
(lp2089
g2077
ag2078
ag2079
ag2080
ag2081
ag2082
ag2083
ag2084
ag2085
ag2086
ag2087
ag2088
asba(iMeme
Meme
p2090
(dp2091
g3
(lp2092
S'you'
p2093
aS'bitch'
p2094
asg13
S'you bitch '
p2095
sg15
S' i said cheese not pees! '
p2096
sg17
Vgordon-ramsay
p2097
sg19
(lp2098
g2093
ag2094
ag675
aS'said'
p2099
aS'cheese'
p2100
aS'not'
p2101
aS'pees'
p2102
ag64
asg29
(lp2103
g675
ag2099
ag2100
ag2101
ag2102
ag64
asba(iMeme
Meme
p2104
(dp2105
g3
(lp2106
S'ThiS'
p2107
aS'Custard'
p2108
aS'is'
p2109
aS'so'
p2110
aS'thick'
p2111
asg13
S'ThiS Custard is so thick '
p2112
sg15
S" I'm calling it angela "
p2113
sg17
Vgordon-ramsay
p2114
sg19
(lp2115
g2107
ag2108
ag2109
ag2110
ag2111
ag131
aS"'m"
p2116
aS'calling'
p2117
aS'it'
p2118
aS'angela'
p2119
asg29
(lp2120
g131
ag2116
ag2117
ag2118
ag2119
asba(iMeme
Meme
p2121
(dp2122
g3
(lp2123
S'who'
p2124
aS'the'
p2125
aS'hell'
p2126
aS'is'
p2127
asg13
S'who the hell is  '
p2128
sg15
S' graham hughes '
p2129
sg17
Vgordon-ramsay
p2130
sg19
(lp2131
g2124
ag2125
ag2126
ag2127
aS'graham'
p2132
aS'hughes'
p2133
asg29
(lp2134
g2132
ag2133
asba(iMeme
Meme
p2135
(dp2136
g3
(lp2137
S'that'
p2138
aS'maymee'
p2139
aS'was'
p2140
aS'so'
p2141
aS'old'
p2142
asg13
S'that maymee was so old '
p2143
sg15
S' i fucked it and dust came out '
p2144
sg17
Vgordon-ramsay
p2145
sg19
(lp2146
g2138
ag2139
ag2140
ag2141
ag2142
ag675
aS'fucked'
p2147
aS'it'
p2148
aS'and'
p2149
aS'dust'
p2150
aS'came'
p2151
aS'out'
p2152
asg29
(lp2153
g675
ag2147
ag2148
ag2149
ag2150
ag2151
ag2152
asba(iMeme
Meme
p2154
(dp2155
g3
(lp2156
S'And'
p2157
aS'you'
p2158
aS'mean'
p2159
aS'to'
p2160
aS'tell'
p2161
aS'me..'
p2162
asg13
S'And you mean to tell me.. '
p2163
sg15
S' A'
p2164
sg17
Vgordon-ramsay
p2165
sg19
(lp2166
g2157
ag2158
ag2159
ag2160
ag2161
ag2162
ag996
asg29
(lp2167
g996
asba(iMeme
Meme
p2168
(dp2169
g3
(lp2170
S'you'
p2171
aS'were'
p2172
aS'making'
p2173
aS'fatty'
p2174
aS'carbs'
p2175
aS'for'
p2176
aS'bob'
p2177
aS'cubbin'
p2178
ag121
asg13
S'you were making fatty carbs for bob cubbin? '
p2179
sg15
S' shut it down! '
p2180
sg17
Vgordon-ramsay
p2181
sg19
(lp2182
g2171
ag2172
ag2173
ag2174
ag2175
ag2176
ag2177
ag2178
ag121
aS'shut'
p2183
aS'it'
p2184
aS'down'
p2185
ag64
asg29
(lp2186
g2183
ag2184
ag2185
ag64
asba(iMeme
Meme
p2187
(dp2188
g3
(lp2189
S'this'
p2190
aS'pig'
p2191
aS'is'
p2192
aS'so'
p2193
aS'fucking'
p2194
aS'undercooked'
p2195
asg13
S'this pig is so fucking undercooked '
p2196
sg15
S' i can still hear it calling ned to its office '
p2197
sg17
Vgordon-ramsay
p2198
sg19
(lp2199
g2190
ag2191
ag2192
ag2193
ag2194
ag2195
ag675
aS'can'
p2200
aS'still'
p2201
aS'hear'
p2202
aS'it'
p2203
aS'calling'
p2204
aS'ned'
p2205
aS'to'
p2206
aS'its'
p2207
aS'office'
p2208
asg29
(lp2209
g675
ag2200
ag2201
ag2202
ag2203
ag2204
ag2205
ag2206
ag2207
ag2208
asba(iMeme
Meme
p2210
(dp2211
g3
(lp2212
S'the'
p2213
aS'soup'
p2214
aS'is'
p2215
aS'dry'
p2216
asg13
S'the soup is dry '
p2217
sg15
S' and wicker brother is playing this saturday night '
p2218
sg17
Vgordon-ramsay
p2219
sg19
(lp2220
g2213
ag2214
ag2215
ag2216
aS'and'
p2221
aS'wicker'
p2222
aS'brother'
p2223
aS'is'
p2224
aS'playing'
p2225
aS'this'
p2226
aS'saturday'
p2227
aS'night'
p2228
asg29
(lp2229
g2221
ag2222
ag2223
ag2224
ag2225
ag2226
ag2227
ag2228
asba(iMeme
Meme
p2230
(dp2231
g3
(lp2232
S'Fuck'
p2233
aS'you'
p2234
asg13
S'Fuck you '
p2235
sg15
S' You cook like you drive '
p2236
sg17
Vgordon-ramsay
p2237
sg19
(lp2238
g2233
ag2234
aS'You'
p2239
aS'cook'
p2240
aS'like'
p2241
aS'you'
p2242
aS'drive'
p2243
asg29
(lp2244
g2239
ag2240
ag2241
ag2242
ag2243
asba(iMeme
Meme
p2245
(dp2246
g3
(lp2247
S'This'
p2248
aS'steak'
p2249
aS'is'
p2250
aS'so'
p2251
aS'black'
p2252
asg13
S'This steak is so black '
p2253
sg15
S' Zimmerman tooka shot at it '
p2254
sg17
Vgordon-ramsay
p2255
sg19
(lp2256
g2248
ag2249
ag2250
ag2251
ag2252
aS'Zimmerman'
p2257
aS'tooka'
p2258
aS'shot'
p2259
aS'at'
p2260
aS'it'
p2261
asg29
(lp2262
g2257
ag2258
ag2259
ag2260
ag2261
asba(iMeme
Meme
p2263
(dp2264
g3
(lp2265
S'Quit'
p2266
aS'bragging'
p2267
asg13
S'Quit bragging '
p2268
sg15
S' DOdgers are still in last place!!!! '
p2269
sg17
Vgordon-ramsay
p2270
sg19
(lp2271
g2266
ag2267
aS'DOdgers'
p2272
aS'are'
p2273
aS'still'
p2274
aS'in'
p2275
aS'last'
p2276
aS'place'
p2277
ag64
ag64
ag64
ag64
asg29
(lp2278
g2272
ag2273
ag2274
ag2275
ag2276
ag2277
ag64
ag64
ag64
ag64
asba(iMeme
Meme
p2279
(dp2280
g3
(lp2281
S'this'
p2282
aS'Squirrel'
p2283
aS'is'
p2284
aS'still'
p2285
aS'fucking'
p2286
aS'raw'
p2287
asg13
S'this Squirrel is still fucking raw '
p2288
sg15
S' How in the Hell Can I serve it to daryl dixon? '
p2289
sg17
Vgordon-ramsay
p2290
sg19
(lp2291
g2282
ag2283
ag2284
ag2285
ag2286
ag2287
aS'How'
p2292
aS'in'
p2293
aS'the'
p2294
aS'Hell'
p2295
aS'Can'
p2296
ag131
aS'serve'
p2297
aS'it'
p2298
aS'to'
p2299
aS'daryl'
p2300
aS'dixon'
p2301
ag121
asg29
(lp2302
g2292
ag2293
ag2294
ag2295
ag2296
ag131
ag2297
ag2298
ag2299
ag2300
ag2301
ag121
asba(iMeme
Meme
p2303
(dp2304
g3
(lp2305
S'get'
p2306
aS'your'
p2307
aS'shit'
p2308
aS'together'
p2309
aS'your'
p2310
aS'work'
p2311
aS'area'
p2312
aS'is'
p2313
ag153
aS'disastea'
p2314
ag64
ag64
asg13
S'get your shit together your work area is a disastea!! '
p2315
sg15
S' and the steak you prepared is raw, absalutely raw! [throws pots across the room] get out of my kitchen!! '
p2316
sg17
Vgordon-ramsay
p2317
sg19
(lp2318
g2306
ag2307
ag2308
ag2309
ag2310
ag2311
ag2312
ag2313
ag153
ag2314
ag64
ag64
aS'and'
p2319
aS'the'
p2320
aS'steak'
p2321
aS'you'
p2322
aS'prepared'
p2323
aS'is'
p2324
aS'raw'
p2325
ag1618
aS'absalutely'
p2326
aS'raw'
p2327
ag64
aS'['
p2328
aS'throws'
p2329
aS'pots'
p2330
aS'across'
p2331
aS'the'
p2332
aS'room'
p2333
aS']'
p2334
aS'get'
p2335
aS'out'
p2336
aS'of'
p2337
aS'my'
p2338
aS'kitchen'
p2339
ag64
ag64
asg29
(lp2340
g2319
ag2320
ag2321
ag2322
ag2323
ag2324
ag2325
ag1618
ag2326
ag2327
ag64
ag2328
ag2329
ag2330
ag2331
ag2332
ag2333
ag2334
ag2335
ag2336
ag2337
ag2338
ag2339
ag64
ag64
asba(iMeme
Meme
p2341
(dp2342
g3
(lp2343
S'What'
p2344
aS'the'
p2345
aS'fuck'
p2346
aS'are'
p2347
aS'you'
p2348
aS'doing'
p2349
ag121
ag64
asg13
S'What the fuck are you doing?! '
p2350
sg15
S" You're food taste like motherfucking shit "
p2351
sg17
Vgordon-ramsay
p2352
sg19
(lp2353
g2344
ag2345
ag2346
ag2347
ag2348
ag2349
ag121
ag64
aS'You'
p2354
aS"'re"
p2355
aS'food'
p2356
aS'taste'
p2357
aS'like'
p2358
aS'motherfucking'
p2359
aS'shit'
p2360
asg29
(lp2361
g2354
ag2355
ag2356
ag2357
ag2358
ag2359
ag2360
asba(iMeme
Meme
p2362
(dp2363
g3
(lp2364
S'do'
p2365
aS"n't"
p2366
aS'you'
p2367
aS'fucking'
p2368
aS'mess'
p2369
aS'up'
p2370
aS'again'
p2371
asg13
S"don't you fucking mess up again "
p2372
sg15
S' or ill cook your son. comprende? '
p2373
sg17
Vgordon-ramsay
p2374
sg19
(lp2375
g2365
ag2366
ag2367
ag2368
ag2369
ag2370
ag2371
aS'or'
p2376
aS'ill'
p2377
aS'cook'
p2378
aS'your'
p2379
aS'son'
p2380
ag36
aS'comprende'
p2381
ag121
asg29
(lp2382
g2376
ag2377
ag2378
ag2379
ag2380
ag36
ag2381
ag121
asba(iMeme
Meme
p2383
(dp2384
g3
(lp2385
S'your'
p2386
aS'update'
p2387
aS'is'
p2388
aS'so'
p2389
aS'bad'
p2390
asg13
S'your update is so bad '
p2391
sg15
S" even furrax doesn't like it "
p2392
sg17
Vgordon-ramsay
p2393
sg19
(lp2394
g2386
ag2387
ag2388
ag2389
ag2390
aS'even'
p2395
aS'furrax'
p2396
aS'does'
p2397
aS"n't"
p2398
aS'like'
p2399
aS'it'
p2400
asg29
(lp2401
g2395
ag2396
ag2397
ag2398
ag2399
ag2400
asba(iMeme
Meme
p2402
(dp2403
g3
(lp2404
S'You'
p2405
aS'burnt'
p2406
aS'the'
p2407
aS'food'
p2408
aS'so'
p2409
aS'much'
p2410
asg13
S'You burnt the food so much '
p2411
sg15
S' That it stole my car! '
p2412
sg17
Vgordon-ramsay
p2413
sg19
(lp2414
g2405
ag2406
ag2407
ag2408
ag2409
ag2410
aS'That'
p2415
aS'it'
p2416
aS'stole'
p2417
aS'my'
p2418
aS'car'
p2419
ag64
asg29
(lp2420
g2415
ag2416
ag2417
ag2418
ag2419
ag64
asba(iMeme
Meme
p2421
(dp2422
g3
(lp2423
S'o'
p2424
aS'anaaaaaaa'
p2425
asg13
S'o anaaaaaaa '
p2426
sg15
S' un me gesin kaput o goc . kaput a more vesh ! '
p2427
sg17
Vgordon-ramsay
p2428
sg19
(lp2429
g2424
ag2425
aS'un'
p2430
aS'me'
p2431
aS'gesin'
p2432
aS'kaput'
p2433
ag2424
aS'goc'
p2434
ag36
aS'kaput'
p2435
ag153
aS'more'
p2436
aS'vesh'
p2437
ag64
asg29
(lp2438
g2430
ag2431
ag2432
ag2433
ag2424
ag2434
ag36
ag2435
ag153
ag2436
ag2437
ag64
asba(iMeme
Meme
p2439
(dp2440
g3
(lp2441
S'This'
p2442
aS'soup'
p2443
aS'is'
p2444
aS'such'
p2445
ag153
aS'massive'
p2446
aS'abomination'
p2447
asg13
S'This soup is such a massive abomination '
p2448
sg15
S' it should run for congress '
p2449
sg17
Vgordon-ramsay
p2450
sg19
(lp2451
g2442
ag2443
ag2444
ag2445
ag153
ag2446
ag2447
aS'it'
p2452
aS'should'
p2453
aS'run'
p2454
aS'for'
p2455
aS'congress'
p2456
asg29
(lp2457
g2452
ag2453
ag2454
ag2455
ag2456
asba(iMeme
Meme
p2458
(dp2459
g3
(lp2460
S'WHY'
p2461
aS'THE'
p2462
aS'COW'
p2463
asg13
S'WHY THE COW '
p2464
sg15
S' would you put the spinicah in the marmlade??? '
p2465
sg17
Vgordon-ramsay
p2466
sg19
(lp2467
g2461
ag2462
ag2463
aS'would'
p2468
aS'you'
p2469
aS'put'
p2470
aS'the'
p2471
aS'spinicah'
p2472
aS'in'
p2473
aS'the'
p2474
aS'marmlade'
p2475
ag121
ag121
ag121
asg29
(lp2476
g2468
ag2469
ag2470
ag2471
ag2472
ag2473
ag2474
ag2475
ag121
ag121
ag121
asba(iMeme
Meme
p2477
(dp2478
g3
(lp2479
S'two'
p2480
aS'tomatoes'
p2481
asg13
S'two tomatoes '
p2482
sg15
S' bread or rice, not both '
p2483
sg17
Vgordon-ramsay
p2484
sg19
(lp2485
g2480
ag2481
aS'bread'
p2486
aS'or'
p2487
aS'rice'
p2488
ag1618
aS'not'
p2489
aS'both'
p2490
asg29
(lp2491
g2486
ag2487
ag2488
ag1618
ag2489
ag2490
asba(iMeme
Meme
p2492
(dp2493
g3
(lp2494
S'This'
p2495
aS'duck'
p2496
aS'is'
p2497
aS'so'
p2498
aS'uncooked'
p2499
asg13
S'This duck is so uncooked '
p2500
sg15
S' i can still hear it "quack"'
p2501
sg17
Vgordon-ramsay
p2502
sg19
(lp2503
g2495
ag2496
ag2497
ag2498
ag2499
ag675
aS'can'
p2504
aS'still'
p2505
aS'hear'
p2506
aS'it'
p2507
aS'``'
p2508
aS'quack'
p2509
aS"''"
p2510
asg29
(lp2511
g675
ag2504
ag2505
ag2506
ag2507
ag2508
ag2509
ag2510
asba(iMeme
Meme
p2512
(dp2513
g3
(lp2514
S'The'
p2515
aS'food'
p2516
aS'so'
p2517
aS'bad'
p2518
ag64
asg13
S'The food so bad! '
p2519
sg15
S' That only chuck norris can break it! '
p2520
sg17
Vgordon-ramsay
p2521
sg19
(lp2522
g2515
ag2516
ag2517
ag2518
ag64
aS'That'
p2523
aS'only'
p2524
aS'chuck'
p2525
aS'norris'
p2526
aS'can'
p2527
aS'break'
p2528
aS'it'
p2529
ag64
asg29
(lp2530
g2523
ag2524
ag2525
ag2526
ag2527
ag2528
ag2529
ag64
asba(iMeme
Meme
p2531
(dp2532
g3
(lp2533
S'YOu'
p2534
aS'are'
p2535
aS"n't"
p2536
aS'voting'
p2537
aS'for'
p2538
aS'andrea'
p2539
asg13
S"YOu aren't voting for andrea "
p2540
sg15
S'  '
p2541
sg17
Vgordon-ramsay
p2542
sg19
(lp2543
g2534
ag2535
ag2536
ag2537
ag2538
ag2539
asg29
(lp2544
sba(iMeme
Meme
p2545
(dp2546
g3
(lp2547
S'yolo'
p2548
aS'is'
p2549
aS'the'
p2550
aS'dumbest'
p2551
aS'thing'
p2552
aS'ever'
p2553
aS'invented'
p2554
asg13
S'yolo is the dumbest thing ever invented '
p2555
sg15
S' so stop spreading that fucking disesse '
p2556
sg17
Vgordon-ramsay
p2557
sg19
(lp2558
g2548
ag2549
ag2550
ag2551
ag2552
ag2553
ag2554
aS'so'
p2559
aS'stop'
p2560
aS'spreading'
p2561
aS'that'
p2562
aS'fucking'
p2563
aS'disesse'
p2564
asg29
(lp2565
g2559
ag2560
ag2561
ag2562
ag2563
ag2564
asba(iMeme
Meme
p2566
(dp2567
g3
(lp2568
S'This'
p2569
aS'Magikarp'
p2570
aS'is'
p2571
aS'so'
p2572
aS'undercooked'
p2573
asg13
S'This Magikarp is so undercooked '
p2574
sg15
S' Its still using splash '
p2575
sg17
Vgordon-ramsay
p2576
sg19
(lp2577
g2569
ag2570
ag2571
ag2572
ag2573
aS'Its'
p2578
aS'still'
p2579
aS'using'
p2580
aS'splash'
p2581
asg29
(lp2582
g2578
ag2579
ag2580
ag2581
asba(iMeme
Meme
p2583
(dp2584
g3
(lp2585
S'This'
p2586
aS'chicken'
p2587
aS'is'
p2588
aS'rubbery'
p2589
ag64
asg13
S'This chicken is rubbery! '
p2590
sg15
S' awww fank you velly much gorlan '
p2591
sg17
Vgordon-ramsay
p2592
sg19
(lp2593
g2586
ag2587
ag2588
ag2589
ag64
aS'awww'
p2594
aS'fank'
p2595
aS'you'
p2596
aS'velly'
p2597
aS'much'
p2598
aS'gorlan'
p2599
asg29
(lp2600
g2594
ag2595
ag2596
ag2597
ag2598
ag2599
asba(iMeme
Meme
p2601
(dp2602
g3
(lp2603
S'bring'
p2604
aS'your'
p2605
aS'food'
p2606
asg13
S'bring your food '
p2607
sg15
S' or eat nothing '
p2608
sg17
Vgordon-ramsay
p2609
sg19
(lp2610
g2604
ag2605
ag2606
aS'or'
p2611
aS'eat'
p2612
aS'nothing'
p2613
asg29
(lp2614
g2611
ag2612
ag2613
asba(iMeme
Meme
p2615
(dp2616
g3
(lp2617
S'This'
p2618
aS'meal'
p2619
aS'is'
p2620
aS'so'
p2621
aS'unfinished'
p2622
aS'...'
p2623
asg13
S'This meal is so unfinished... '
p2624
sg15
S' naughtydog tried to publish it '
p2625
sg17
Vgordon-ramsay
p2626
sg19
(lp2627
g2618
ag2619
ag2620
ag2621
ag2622
ag2623
aS'naughtydog'
p2628
aS'tried'
p2629
aS'to'
p2630
aS'publish'
p2631
aS'it'
p2632
asg29
(lp2633
g2628
ag2629
ag2630
ag2631
ag2632
asba(iMeme
Meme
p2634
(dp2635
g3
(lp2636
S'zara'
p2637
aS'your'
p2638
aS'too'
p2639
aS'fucking'
p2640
aS'young'
p2641
aS'to'
p2642
aS'be'
p2643
aS'gs'
p2644
aS'with'
p2645
aS'tiarnan'
p2646
asg13
S'zara your too fucking young to be gs with tiarnan '
p2647
sg15
S' sorry daddy '
p2648
sg17
Vgordon-ramsay
p2649
sg19
(lp2650
g2637
ag2638
ag2639
ag2640
ag2641
ag2642
ag2643
ag2644
ag2645
ag2646
aS'sorry'
p2651
aS'daddy'
p2652
asg29
(lp2653
g2651
ag2652
asba(iMeme
Meme
p2654
(dp2655
g3
(lp2656
S'that'
p2657
aS'ice'
p2658
aS'cream'
p2659
asg13
S'that ice cream '
p2660
sg15
S' is too burnt '
p2661
sg17
Vgordon-ramsay
p2662
sg19
(lp2663
g2657
ag2658
ag2659
aS'is'
p2664
aS'too'
p2665
aS'burnt'
p2666
asg29
(lp2667
g2664
ag2665
ag2666
asba(iMeme
Meme
p2668
(dp2669
g3
(lp2670
S'This'
p2671
aS'sauce'
p2672
aS'is'
p2673
aS'so'
p2674
aS'fucking'
p2675
aS'thick'
p2676
asg13
S'This sauce is so fucking thick '
p2677
sg15
S' I will name it angela '
p2678
sg17
Vgordon-ramsay
p2679
sg19
(lp2680
g2671
ag2672
ag2673
ag2674
ag2675
ag2676
ag131
aS'will'
p2681
aS'name'
p2682
aS'it'
p2683
aS'angela'
p2684
asg29
(lp2685
g131
ag2681
ag2682
ag2683
ag2684
asba(iMeme
Meme
p2686
(dp2687
g3
(lp2688
S'dumbo'
p2689
asg13
S'dumbo '
p2690
sg15
S" didn't i tell u 2 bake the cake and not burn it r u that stupid try listening  "
p2691
sg17
Vgordon-ramsay
p2692
sg19
(lp2693
g2689
aS'did'
p2694
aS"n't"
p2695
ag675
aS'tell'
p2696
aS'u'
p2697
aS'2'
p2698
aS'bake'
p2699
aS'the'
p2700
aS'cake'
p2701
aS'and'
p2702
aS'not'
p2703
aS'burn'
p2704
aS'it'
p2705
aS'r'
p2706
ag2697
aS'that'
p2707
aS'stupid'
p2708
aS'try'
p2709
aS'listening'
p2710
asg29
(lp2711
g2694
ag2695
ag675
ag2696
ag2697
ag2698
ag2699
ag2700
ag2701
ag2702
ag2703
ag2704
ag2705
ag2706
ag2697
ag2707
ag2708
ag2709
ag2710
asba(iMeme
Meme
p2712
(dp2713
g3
(lp2714
S'hey'
p2715
aS'fuckhead'
p2716
asg13
S'hey fuckhead '
p2717
sg15
S' how did you burn the water?... '
p2718
sg17
Vgordon-ramsay
p2719
sg19
(lp2720
g2715
ag2716
aS'how'
p2721
aS'did'
p2722
aS'you'
p2723
aS'burn'
p2724
aS'the'
p2725
aS'water'
p2726
ag121
aS'...'
p2727
asg29
(lp2728
g2721
ag2722
ag2723
ag2724
ag2725
ag2726
ag121
ag2727
asba(iMeme
Meme
p2729
(dp2730
g3
(lp2731
S'This'
p2732
aS'chicken'
p2733
aS'is'
p2734
aS'so'
p2735
aS'fucking'
p2736
aS'black'
p2737
asg13
S'This chicken is so fucking black '
p2738
sg15
S' republicans want to supress its vote '
p2739
sg17
Vgordon-ramsay
p2740
sg19
(lp2741
g2732
ag2733
ag2734
ag2735
ag2736
ag2737
aS'republicans'
p2742
aS'want'
p2743
aS'to'
p2744
aS'supress'
p2745
aS'its'
p2746
aS'vote'
p2747
asg29
(lp2748
g2742
ag2743
ag2744
ag2745
ag2746
ag2747
asba(iMeme
Meme
p2749
(dp2750
g3
(lp2751
S'You'
p2752
aS'put'
p2753
aS'in'
p2754
aS'so'
p2755
aS'much'
p2756
aS'cinnamon'
p2757
asg13
S'You put in so much cinnamon '
p2758
sg15
S' Glozell refuses to eat it '
p2759
sg17
Vgordon-ramsay
p2760
sg19
(lp2761
g2752
ag2753
ag2754
ag2755
ag2756
ag2757
aS'Glozell'
p2762
aS'refuses'
p2763
aS'to'
p2764
aS'eat'
p2765
aS'it'
p2766
asg29
(lp2767
g2762
ag2763
ag2764
ag2765
ag2766
asba(iMeme
Meme
p2768
(dp2769
g3
(lp2770
S'what'
p2771
aS'is'
p2772
aS'that'
p2773
asg13
S'what is that '
p2774
sg15
S' a circle '
p2775
sg17
Vgordon-ramsay
p2776
sg19
(lp2777
g2771
ag2772
ag2773
ag153
aS'circle'
p2778
asg29
(lp2779
g153
ag2778
asba(iMeme
Meme
p2780
(dp2781
g3
(lp2782
S'this'
p2783
aS'custard'
p2784
aS'is'
p2785
aS'so'
p2786
aS'thick'
p2787
asg13
S'this custard is so thick '
p2788
sg15
S" i've renamed it angela "
p2789
sg17
Vgordon-ramsay
p2790
sg19
(lp2791
g2783
ag2784
ag2785
ag2786
ag2787
ag675
aS"'ve"
p2792
aS'renamed'
p2793
aS'it'
p2794
aS'angela'
p2795
asg29
(lp2796
g675
ag2792
ag2793
ag2794
ag2795
asba(iMeme
Meme
p2797
(dp2798
g3
(lp2799
S'Listen'
p2800
ag64
ag64
ag64
ag64
ag64
ag64
ag64
ag64
ag64
ag64
ag64
ag64
ag64
asg13
S'Listen!!!!!!!!!!!!! '
p2801
sg15
S' It needs more Dic!!!!!!!!!!! '
p2802
sg17
Vgordon-ramsay
p2803
sg19
(lp2804
g2800
ag64
ag64
ag64
ag64
ag64
ag64
ag64
ag64
ag64
ag64
ag64
ag64
ag64
aS'It'
p2805
aS'needs'
p2806
aS'more'
p2807
aS'Dic'
p2808
ag64
ag64
ag64
ag64
ag64
ag64
ag64
ag64
ag64
ag64
ag64
asg29
(lp2809
g2805
ag2806
ag2807
ag2808
ag64
ag64
ag64
ag64
ag64
ag64
ag64
ag64
ag64
ag64
ag64
asba(iMeme
Meme
p2810
(dp2811
g3
(lp2812
S'Your'
p2813
aS'going'
p2814
asg13
S'Your going '
p2815
sg15
S' To kill somebody '
p2816
sg17
Vgordon-ramsay
p2817
sg19
(lp2818
g2813
ag2814
aS'To'
p2819
aS'kill'
p2820
aS'somebody'
p2821
asg29
(lp2822
g2819
ag2820
ag2821
asba(iMeme
Meme
p2823
(dp2824
g3
(lp2825
S'get'
p2826
aS'over'
p2827
aS'here'
p2828
asg13
S'get over here '
p2829
sg15
S' to nikau '
p2830
sg17
Vgordon-ramsay
p2831
sg19
(lp2832
g2826
ag2827
ag2828
aS'to'
p2833
aS'nikau'
p2834
asg29
(lp2835
g2833
ag2834
asba(iMeme
Meme
p2836
(dp2837
g3
(lp2838
S'Kiana'
p2839
aS"'s"
p2840
aS'memes'
p2841
aS'are'
p2842
aS'made'
p2843
aS'so'
p2844
aS'badly'
p2845
asg13
S"Kiana's memes are made so badly "
p2846
sg15
S' even humbertos are looking good! '
p2847
sg17
Vgordon-ramsay
p2848
sg19
(lp2849
g2839
ag2840
ag2841
ag2842
ag2843
ag2844
ag2845
aS'even'
p2850
aS'humbertos'
p2851
aS'are'
p2852
aS'looking'
p2853
aS'good'
p2854
ag64
asg29
(lp2855
g2850
ag2851
ag2852
ag2853
ag2854
ag64
asba(iMeme
Meme
p2856
(dp2857
g3
(lp2858
S'this'
p2859
aS'chicken'
p2860
aS'is'
p2861
aS'so'
p2862
aS'fucking'
p2863
aS'fried'
p2864
asg13
S'this chicken is so fucking fried '
p2865
sg15
S' hippies want to trip on it '
p2866
sg17
Vgordon-ramsay
p2867
sg19
(lp2868
g2859
ag2860
ag2861
ag2862
ag2863
ag2864
aS'hippies'
p2869
aS'want'
p2870
aS'to'
p2871
aS'trip'
p2872
aS'on'
p2873
aS'it'
p2874
asg29
(lp2875
g2869
ag2870
ag2871
ag2872
ag2873
ag2874
asba(iMeme
Meme
p2876
(dp2877
g3
(lp2878
sg13
S' '
p2879
sg15
S" You're food taste like motherfucking shit "
p2880
sg17
Vgordon-ramsay
p2881
sg19
(lp2882
S'You'
p2883
aS"'re"
p2884
aS'food'
p2885
aS'taste'
p2886
aS'like'
p2887
aS'motherfucking'
p2888
aS'shit'
p2889
asg29
(lp2890
g2883
ag2884
ag2885
ag2886
ag2887
ag2888
ag2889
asba(iMeme
Meme
p2891
(dp2892
g3
(lp2893
S'christinith'
p2894
ag64
asg13
S'christinith! '
p2895
sg15
S' her name is christinith!! '
p2896
sg17
Vgordon-ramsay
p2897
sg19
(lp2898
g2894
ag64
aS'her'
p2899
aS'name'
p2900
aS'is'
p2901
aS'christinith'
p2902
ag64
ag64
asg29
(lp2903
g2899
ag2900
ag2901
ag2902
ag64
ag64
asba(iMeme
Meme
p2904
(dp2905
g3
(lp2906
S'Roddy'
p2907
aS'you'
p2908
aS'couldnt'
p2909
aS'cook'
p2910
aS'toast'
p2911
aS'you'
p2912
aS'fucking'
p2913
aS'spastic'
p2914
asg13
S'Roddy you couldnt cook toast you fucking spastic '
p2915
sg15
S' #Die '
p2916
sg17
Vgordon-ramsay
p2917
sg19
(lp2918
g2907
ag2908
ag2909
ag2910
ag2911
ag2912
ag2913
ag2914
aS'#'
p2919
aS'Die'
p2920
asg29
(lp2921
g2919
ag2920
asba(iMeme
Meme
p2922
(dp2923
g3
(lp2924
S'Jeremy'
p2925
aS'mekhael'
p2926
aS'is'
p2927
aS'such'
p2928
ag153
aS'faggot'
p2929
asg13
S'Jeremy mekhael is such a faggot '
p2930
sg15
S' he makes elton john look straight '
p2931
sg17
Vgordon-ramsay
p2932
sg19
(lp2933
g2925
ag2926
ag2927
ag2928
ag153
ag2929
aS'he'
p2934
aS'makes'
p2935
aS'elton'
p2936
aS'john'
p2937
aS'look'
p2938
aS'straight'
p2939
asg29
(lp2940
g2934
ag2935
ag2936
ag2937
ag2938
ag2939
asba(iMeme
Meme
p2941
(dp2942
g3
(lp2943
S'this'
p2944
aS'chicken'
p2945
aS'is'
p2946
aS'burnt'
p2947
aS'so'
p2948
aS'black'
p2949
asg13
S'this chicken is burnt so black '
p2950
sg15
S' it started eating other chickens '
p2951
sg17
Vgordon-ramsay
p2952
sg19
(lp2953
g2944
ag2945
ag2946
ag2947
ag2948
ag2949
aS'it'
p2954
aS'started'
p2955
aS'eating'
p2956
aS'other'
p2957
aS'chickens'
p2958
asg29
(lp2959
g2954
ag2955
ag2956
ag2957
ag2958
asba(iMeme
Meme
p2960
(dp2961
g3
(lp2962
S'This'
p2963
aS'roll'
p2964
aS'is'
p2965
aS'so'
p2966
aS'bad'
p2967
asg13
S'This roll is so bad '
p2968
sg15
S' even Nichlas Cage turned it down '
p2969
sg17
Vgordon-ramsay
p2970
sg19
(lp2971
g2963
ag2964
ag2965
ag2966
ag2967
aS'even'
p2972
aS'Nichlas'
p2973
aS'Cage'
p2974
aS'turned'
p2975
aS'it'
p2976
aS'down'
p2977
asg29
(lp2978
g2972
ag2973
ag2974
ag2975
ag2976
ag2977
asba(iMeme
Meme
p2979
(dp2980
g3
(lp2981
S'This'
p2982
aS'Chicken'
p2983
aS'is'
p2984
aS'so'
p2985
aS'blaCk'
p2986
asg13
S'This Chicken is so blaCk '
p2987
sg15
S' Paula dEen called it a nigGer '
p2988
sg17
Vgordon-ramsay
p2989
sg19
(lp2990
g2982
ag2983
ag2984
ag2985
ag2986
aS'Paula'
p2991
aS'dEen'
p2992
aS'called'
p2993
aS'it'
p2994
ag153
aS'nigGer'
p2995
asg29
(lp2996
g2991
ag2992
ag2993
ag2994
ag153
ag2995
asba(iMeme
Meme
p2997
(dp2998
g3
(lp2999
S'Hey'
p3000
aS'guess'
p3001
aS'what'
p3002
asg13
S'Hey guess what '
p3003
sg15
S' Suck my dick bitch '
p3004
sg17
Vgordon-ramsay
p3005
sg19
(lp3006
g3000
ag3001
ag3002
aS'Suck'
p3007
aS'my'
p3008
aS'dick'
p3009
aS'bitch'
p3010
asg29
(lp3011
g3007
ag3008
ag3009
ag3010
asba(iMeme
Meme
p3012
(dp3013
g3
(lp3014
S'This'
p3015
aS'squid'
p3016
aS'is'
p3017
aS'so'
p3018
aS'raw'
p3019
asg13
S'This squid is so raw '
p3020
sg15
S" It's still trying to play the fucking clarinet "
p3021
sg17
Vgordon-ramsay
p3022
sg19
(lp3023
g3015
ag3016
ag3017
ag3018
ag3019
aS'It'
p3024
aS"'s"
p3025
aS'still'
p3026
aS'trying'
p3027
aS'to'
p3028
aS'play'
p3029
aS'the'
p3030
aS'fucking'
p3031
aS'clarinet'
p3032
asg29
(lp3033
g3024
ag3025
ag3026
ag3027
ag3028
ag3029
ag3030
ag3031
ag3032
asba(iMeme
Meme
p3034
(dp3035
g3
(lp3036
S'Customers'
p3037
aS'screaming'
p3038
aS'for'
p3039
aS'brochures'
p3040
ag121
asg13
S'Customers screaming for brochures? '
p3041
sg15
S' let me know what i need to send you! '
p3042
sg17
Vgordon-ramsay
p3043
sg19
(lp3044
g3037
ag3038
ag3039
ag3040
ag121
aS'let'
p3045
aS'me'
p3046
aS'know'
p3047
aS'what'
p3048
ag675
aS'need'
p3049
aS'to'
p3050
aS'send'
p3051
aS'you'
p3052
ag64
asg29
(lp3053
g3045
ag3046
ag3047
ag3048
ag675
ag3049
ag3050
ag3051
ag3052
ag64
asba(iMeme
Meme
p3054
(dp3055
g3
(lp3056
S'This'
p3057
aS'Lamb'
p3058
aS'is'
p3059
aS'so'
p3060
aS'undercooked'
p3061
asg13
S'This Lamb is so undercooked '
p3062
sg15
S' theirs still a welsh persons dick up its ass '
p3063
sg17
Vgordon-ramsay
p3064
sg19
(lp3065
g3057
ag3058
ag3059
ag3060
ag3061
aS'theirs'
p3066
aS'still'
p3067
ag153
aS'welsh'
p3068
aS'persons'
p3069
aS'dick'
p3070
aS'up'
p3071
aS'its'
p3072
aS'ass'
p3073
asg29
(lp3074
g3066
ag3067
ag153
ag3068
ag3069
ag3070
ag3071
ag3072
ag3073
asba(iMeme
Meme
p3075
(dp3076
g3
(lp3077
S'this'
p3078
aS'salt'
p3079
asg13
S'this salt '
p3080
sg15
S' is too sweet '
p3081
sg17
Vgordon-ramsay
p3082
sg19
(lp3083
g3078
ag3079
aS'is'
p3084
aS'too'
p3085
aS'sweet'
p3086
asg29
(lp3087
g3084
ag3085
ag3086
asba(iMeme
Meme
p3088
(dp3089
g3
(lp3090
S'this'
p3091
aS'lamb'
p3092
aS'is'
p3093
aS'so'
p3094
aS'undercooked'
p3095
asg13
S'this lamb is so undercooked '
p3096
sg15
S' theirs still a welsh persons dick up its aa '
p3097
sg17
Vgordon-ramsay
p3098
sg19
(lp3099
g3091
ag3092
ag3093
ag3094
ag3095
aS'theirs'
p3100
aS'still'
p3101
ag153
aS'welsh'
p3102
aS'persons'
p3103
aS'dick'
p3104
aS'up'
p3105
aS'its'
p3106
aS'aa'
p3107
asg29
(lp3108
g3100
ag3101
ag153
ag3102
ag3103
ag3104
ag3105
ag3106
ag3107
asba(iMeme
Meme
p3109
(dp3110
g3
(lp3111
S'this'
p3112
aS'dish'
p3113
aS'is'
p3114
aS'so'
p3115
aS'oily'
p3116
asg13
S'this dish is so oily '
p3117
sg15
S' america is trying to invade it '
p3118
sg17
Vgordon-ramsay
p3119
sg19
(lp3120
g3112
ag3113
ag3114
ag3115
ag3116
aS'america'
p3121
aS'is'
p3122
aS'trying'
p3123
aS'to'
p3124
aS'invade'
p3125
aS'it'
p3126
asg29
(lp3127
g3121
ag3122
ag3123
ag3124
ag3125
ag3126
asba(iMeme
Meme
p3128
(dp3129
g3
(lp3130
S'your'
p3131
aS'update'
p3132
aS'is'
p3133
aS'so'
p3134
aS'bad'
p3135
asg13
S'your update is so bad '
p3136
sg15
S" even furrax doesn't like it "
p3137
sg17
Vgordon-ramsay
p3138
sg19
(lp3139
g3131
ag3132
ag3133
ag3134
ag3135
aS'even'
p3140
aS'furrax'
p3141
aS'does'
p3142
aS"n't"
p3143
aS'like'
p3144
aS'it'
p3145
asg29
(lp3146
g3140
ag3141
ag3142
ag3143
ag3144
ag3145
asba(iMeme
Meme
p3147
(dp3148
g3
(lp3149
S'This'
p3150
aS'steak'
p3151
aS'is'
p3152
aS'so'
p3153
aS'black'
p3154
asg13
S'This steak is so black '
p3155
sg15
S' Zimmerman took a shot at it '
p3156
sg17
Vgordon-ramsay
p3157
sg19
(lp3158
g3150
ag3151
ag3152
ag3153
ag3154
aS'Zimmerman'
p3159
aS'took'
p3160
ag153
aS'shot'
p3161
aS'at'
p3162
aS'it'
p3163
asg29
(lp3164
g3159
ag3160
ag153
ag3161
ag3162
ag3163
asba(iMeme
Meme
p3165
(dp3166
g3
(lp3167
sg13
S' '
p3168
sg15
S' you put too much protein in the skim powder!!! '
p3169
sg17
Vgordon-ramsay
p3170
sg19
(lp3171
S'you'
p3172
aS'put'
p3173
aS'too'
p3174
aS'much'
p3175
aS'protein'
p3176
aS'in'
p3177
aS'the'
p3178
aS'skim'
p3179
aS'powder'
p3180
ag64
ag64
ag64
asg29
(lp3181
g3172
ag3173
ag3174
ag3175
ag3176
ag3177
ag3178
ag3179
ag3180
ag64
ag64
ag64
asba(iMeme
Meme
p3182
(dp3183
g3
(lp3184
S'this'
p3185
aS'ice'
p3186
aS'cream'
p3187
asg13
S'this ice cream '
p3188
sg15
S' IS BURNT '
p3189
sg17
Vgordon-ramsay
p3190
sg19
(lp3191
g3185
ag3186
ag3187
aS'IS'
p3192
aS'BURNT'
p3193
asg29
(lp3194
g3192
ag3193
asba(iMeme
Meme
p3195
(dp3196
g3
(lp3197
S'you'
p3198
aS'get'
p3199
aS'nothing'
p3200
aS'for'
p3201
aS'nothing'
p3202
aS'if'
p3203
aS'thats'
p3204
aS'what'
p3205
aS'you'
p3206
aS'choose'
p3207
asg13
S'you get nothing for nothing if thats what you choose '
p3208
sg15
S' turn around bitch i gotta use for you besides you got nothing better to do and im bored '
p3209
sg17
Vgordon-ramsay
p3210
sg19
(lp3211
g3198
ag3199
ag3200
ag3201
ag3202
ag3203
ag3204
ag3205
ag3206
ag3207
aS'turn'
p3212
aS'around'
p3213
aS'bitch'
p3214
ag675
aS'got'
p3215
aS'ta'
p3216
aS'use'
p3217
aS'for'
p3218
aS'you'
p3219
aS'besides'
p3220
aS'you'
p3221
aS'got'
p3222
aS'nothing'
p3223
aS'better'
p3224
aS'to'
p3225
aS'do'
p3226
aS'and'
p3227
aS'im'
p3228
aS'bored'
p3229
asg29
(lp3230
g3212
ag3213
ag3214
ag675
ag3215
ag3216
ag3217
ag3218
ag3219
ag3220
ag3221
ag3222
ag3223
ag3224
ag3225
ag3226
ag3227
ag3228
ag3229
asba(iMeme
Meme
p3231
(dp3232
g3
(lp3233
S'U'
p3234
aS'Suck'
p3235
asg13
S'U Suck '
p3236
sg15
S' Go die in a hole '
p3237
sg17
Vgordon-ramsay
p3238
sg19
(lp3239
g3234
ag3235
aS'Go'
p3240
aS'die'
p3241
aS'in'
p3242
ag153
aS'hole'
p3243
asg29
(lp3244
g3240
ag3241
ag3242
ag153
ag3243
asba(iMeme
Meme
p3245
(dp3246
g3
(lp3247
S'Hey'
p3248
aS'josh'
p3249
asg13
S'Hey josh '
p3250
sg15
S' shat the fack up '
p3251
sg17
Vgordon-ramsay
p3252
sg19
(lp3253
g3248
ag3249
aS'shat'
p3254
aS'the'
p3255
aS'fack'
p3256
aS'up'
p3257
asg29
(lp3258
g3254
ag3255
ag3256
ag3257
asba.