(lp0
(iMeme
Meme
p1
(dp2
S'top_text'
p3
(lp4
S'Niall'
p5
aS'Horan'
p6
aS'hugging'
p7
aS'a'
p8
aS'girl'
p9
asS'top_text_raw'
p10
S'Niall Horan hugging a girl '
p11
sS'bottom_text_raw'
p12
S' everyone loses their minds '
p13
sS'meme_type'
p14
Vjoker
p15
sS'all_text'
p16
(lp17
g5
ag6
ag7
ag8
ag9
aS'everyone'
p18
aS'loses'
p19
aS'their'
p20
aS'minds'
p21
asS'bottom_text'
p22
(lp23
g18
ag19
ag20
ag21
asba(iMeme
Meme
p24
(dp25
g3
(lp26
S'Spells'
p27
aS'one'
p28
aS'thing'
p29
aS'wroung'
p30
asg10
S'Spells one thing wroung '
p31
sg12
S' and everybody loses their minds '
p32
sg14
Vjoker
p33
sg16
(lp34
g27
ag28
ag29
ag30
aS'and'
p35
aS'everybody'
p36
aS'loses'
p37
aS'their'
p38
aS'minds'
p39
asg22
(lp40
g35
ag36
ag37
ag38
ag39
asba(iMeme
Meme
p41
(dp42
g3
(lp43
S'Thousands'
p44
aS'of'
p45
aS'people'
p46
aS'get'
p47
aS'brutally'
p48
aS'killed'
p49
aS'in'
p50
aS'the'
p51
aS'middle'
p52
aS'east'
p53
aS'and'
p54
aS'no'
p55
aS'one'
p56
aS'bats'
p57
aS'an'
p58
aS'eye'
p59
asg10
S'Thousands of people get brutally killed in the middle east and no one bats an eye '
p60
sg12
S' Couple of americans die due a casuality and everyone loses their fucking minds '
p61
sg14
Vjoker
p62
sg16
(lp63
g44
ag45
ag46
ag47
ag48
ag49
ag50
ag51
ag52
ag53
ag54
ag55
ag56
ag57
ag58
ag59
aS'Couple'
p64
aS'of'
p65
aS'americans'
p66
aS'die'
p67
aS'due'
p68
ag8
aS'casuality'
p69
aS'and'
p70
aS'everyone'
p71
aS'loses'
p72
aS'their'
p73
aS'fucking'
p74
aS'minds'
p75
asg22
(lp76
g64
ag65
ag66
ag67
ag68
ag8
ag69
ag70
ag71
ag72
ag73
ag74
ag75
asba(iMeme
Meme
p77
(dp78
g3
(lp79
S'Then'
p80
aS'Craig'
p81
aS'enters'
p82
aS'as'
p83
aS'Iago'
p84
asg10
S'Then Craig enters as Iago '
p85
sg12
S' And everyone loses their minds '
p86
sg14
Vjoker
p87
sg16
(lp88
g80
ag81
ag82
ag83
ag84
aS'And'
p89
aS'everyone'
p90
aS'loses'
p91
aS'their'
p92
aS'minds'
p93
asg22
(lp94
g89
ag90
ag91
ag92
ag93
asba(iMeme
Meme
p95
(dp96
g3
(lp97
S'insult'
p98
aS'christianity'
p99
aS'no'
p100
aS'one'
p101
aS'bats'
p102
aS'an'
p103
aS'eyes'
p104
asg10
S'insult christianity no one bats an eyes '
p105
sg12
S' insult islam and everyone loses their minds '
p106
sg14
Vjoker
p107
sg16
(lp108
g98
ag99
ag100
ag101
ag102
ag103
ag104
aS'insult'
p109
aS'islam'
p110
aS'and'
p111
aS'everyone'
p112
aS'loses'
p113
aS'their'
p114
aS'minds'
p115
asg22
(lp116
g109
ag110
ag111
ag112
ag113
ag114
ag115
asba(iMeme
Meme
p117
(dp118
g3
(lp119
S'uite'
p120
aS'atata'
p121
asg10
S'uite atata '
p122
sg12
S' iti intra pula in cur  '
p123
sg14
Vjoker
p124
sg16
(lp125
g120
ag121
aS'iti'
p126
aS'intra'
p127
aS'pula'
p128
aS'in'
p129
aS'cur'
p130
asg22
(lp131
g126
ag127
ag128
ag129
ag130
asba(iMeme
Meme
p132
(dp133
g3
(lp134
S'you'
p135
aS'cast'
p136
aS'one'
p137
aS'little'
p138
aS'ben'
p139
aS'affleck'
p140
aS'as'
p141
aS'batman'
p142
asg10
S'you cast one little ben affleck as batman '
p143
sg12
S' and everyone loses their minds '
p144
sg14
Vjoker
p145
sg16
(lp146
g135
ag136
ag137
ag138
ag139
ag140
ag141
ag142
aS'and'
p147
aS'everyone'
p148
aS'loses'
p149
aS'their'
p150
aS'minds'
p151
asg22
(lp152
g147
ag148
ag149
ag150
ag151
asba(iMeme
Meme
p153
(dp154
g3
(lp155
S'Callum'
p156
aS'saying'
p157
aS'he'
p158
aS'is'
p159
aS'the'
p160
aS'king'
p161
aS'of'
p162
aS'memes'
p163
asg10
S'Callum saying he is the king of memes '
p164
sg12
S' You sit on a throne of lies '
p165
sg14
Vjoker
p166
sg16
(lp167
g156
ag157
ag158
ag159
ag160
ag161
ag162
ag163
aS'You'
p168
aS'sit'
p169
aS'on'
p170
ag8
aS'throne'
p171
aS'of'
p172
aS'lies'
p173
asg22
(lp174
g168
ag169
ag170
ag8
ag171
ag172
ag173
asba(iMeme
Meme
p175
(dp176
g3
(lp177
S'Lay'
p178
aS'in'
p179
aS'bed'
p180
aS'reading'
p181
ag8
aS'book'
p182
aS'and'
p183
aS'my'
p184
aS'wife'
p185
aS'does'
p186
aS"n't"
p187
aS'bat'
p188
aS'an'
p189
aS'eye'
p190
asg10
S"Lay in bed reading a book and my wife doesn't bat an eye "
p191
sg12
S' lay in bed surfing reddit and she loses her mind '
p192
sg14
Vjoker
p193
sg16
(lp194
g178
ag179
ag180
ag181
ag8
ag182
ag183
ag184
ag185
ag186
ag187
ag188
ag189
ag190
aS'lay'
p195
aS'in'
p196
aS'bed'
p197
aS'surfing'
p198
aS'reddit'
p199
aS'and'
p200
aS'she'
p201
aS'loses'
p202
aS'her'
p203
aS'mind'
p204
asg22
(lp205
g195
ag196
ag197
ag198
ag199
ag200
ag201
ag202
ag203
ag204
asba(iMeme
Meme
p206
(dp207
g3
(lp208
S'Put'
p209
aS'cream'
p210
aS'in'
p211
aS'hot'
p212
aS'coffee'
p213
aS','
p214
aS'iced'
p215
aS'coffee'
p216
aS'or'
p217
aS'hot'
p218
aS'tea'
p219
aS'and'
p220
aS'no'
p221
aS'one'
p222
aS'bats'
p223
aS'an'
p224
aS'eye'
p225
aS'.'
p226
asg10
S'Put cream in hot coffee, iced coffee or hot tea and no one bats an eye. '
p227
sg12
S' Put cream iced tea and everyone loses their minds. '
p228
sg14
Vjoker
p229
sg16
(lp230
g209
ag210
ag211
ag212
ag213
ag214
ag215
ag216
ag217
ag218
ag219
ag220
ag221
ag222
ag223
ag224
ag225
ag226
aS'Put'
p231
aS'cream'
p232
aS'iced'
p233
aS'tea'
p234
aS'and'
p235
aS'everyone'
p236
aS'loses'
p237
aS'their'
p238
aS'minds'
p239
ag226
asg22
(lp240
g231
ag232
ag233
ag234
ag235
ag236
ag237
ag238
ag239
ag226
asba(iMeme
Meme
p241
(dp242
g3
(lp243
S'scarf'
p244
aS'mac'
p245
aS'n'
p246
aS'cheese'
p247
aS'as'
p248
ag8
aS'kid'
p249
aS'nobody'
p250
aS'bats'
p251
aS'an'
p252
aS'eye'
p253
asg10
S'scarf mac n cheese as a kid nobody bats an eye '
p254
sg12
S' scarf mac n cheese with a glass of red wine everyone loses their minds '
p255
sg14
Vjoker
p256
sg16
(lp257
g244
ag245
ag246
ag247
ag248
ag8
ag249
ag250
ag251
ag252
ag253
aS'scarf'
p258
aS'mac'
p259
ag246
aS'cheese'
p260
aS'with'
p261
ag8
aS'glass'
p262
aS'of'
p263
aS'red'
p264
aS'wine'
p265
aS'everyone'
p266
aS'loses'
p267
aS'their'
p268
aS'minds'
p269
asg22
(lp270
g258
ag259
ag246
ag260
ag261
ag8
ag262
ag263
ag264
ag265
ag266
ag267
ag268
ag269
asba(iMeme
Meme
p271
(dp272
g3
(lp273
S'Someone'
p274
aS'said'
p275
aS':'
p276
aS'I'
p277
aS'got'
p278
ag8
aS'key'
p279
asg10
S'Someone said: I got a key '
p280
sg12
S' Everyone loses their minds '
p281
sg14
Vjoker
p282
sg16
(lp283
g274
ag275
ag276
ag277
ag278
ag8
ag279
aS'Everyone'
p284
aS'loses'
p285
aS'their'
p286
aS'minds'
p287
asg22
(lp288
g284
ag285
ag286
ag287
asba(iMeme
Meme
p289
(dp290
g3
(lp291
S'Major'
p292
aS'and'
p293
aS'Mario'
p294
aS'quit'
p295
aS'and'
p296
aS'no'
p297
aS'one'
p298
aS'bats'
p299
aS'an'
p300
aS'eye'
p301
asg10
S'Major and Mario quit and no one bats an eye '
p302
sg12
S' But when Schimmel leaves everyone loses their minds! '
p303
sg14
Vjoker
p304
sg16
(lp305
g292
ag293
ag294
ag295
ag296
ag297
ag298
ag299
ag300
ag301
aS'But'
p306
aS'when'
p307
aS'Schimmel'
p308
aS'leaves'
p309
aS'everyone'
p310
aS'loses'
p311
aS'their'
p312
aS'minds'
p313
aS'!'
p314
asg22
(lp315
g306
ag307
ag308
ag309
ag310
ag311
ag312
ag313
ag314
asba(iMeme
Meme
p316
(dp317
g3
(lp318
S'Ask'
p319
aS'Reddit'
p320
aS'about'
p321
aS'career'
p322
aS'paths'
p323
aS'not'
p324
aS'to'
p325
aS'pursue'
p326
asg10
S'Ask Reddit about career paths not to pursue '
p327
sg12
S' And college students start losing their minds '
p328
sg14
Vjoker
p329
sg16
(lp330
g319
ag320
ag321
ag322
ag323
ag324
ag325
ag326
aS'And'
p331
aS'college'
p332
aS'students'
p333
aS'start'
p334
aS'losing'
p335
aS'their'
p336
aS'minds'
p337
asg22
(lp338
g331
ag332
ag333
ag334
ag335
ag336
ag337
asba(iMeme
Meme
p339
(dp340
g3
(lp341
S'Tell'
p342
aS'people'
p343
aS'you'
p344
aS'have'
p345
aS'amnesia'
p346
aS'and'
p347
aS'nobody'
p348
aS'bats'
p349
aS'an'
p350
aS'eye'
p351
asg10
S'Tell people you have amnesia and nobody bats an eye '
p352
sg12
S' Tell people you have amnesia and nobody bats an eye '
p353
sg14
Vjoker
p354
sg16
(lp355
g342
ag343
ag344
ag345
ag346
ag347
ag348
ag349
ag350
ag351
aS'Tell'
p356
aS'people'
p357
aS'you'
p358
aS'have'
p359
aS'amnesia'
p360
aS'and'
p361
aS'nobody'
p362
aS'bats'
p363
aS'an'
p364
aS'eye'
p365
asg22
(lp366
g356
ag357
ag358
ag359
ag360
ag361
ag362
ag363
ag364
ag365
asba(iMeme
Meme
p367
(dp368
g3
(lp369
S'Women'
p370
aS'wear'
p371
aS'Bermuda'
p372
aS'shorts'
p373
aS'and'
p374
aS't'
p375
asg10
S'Women wear Bermuda shorts and t'
p376
sg12
S'shirts to work and no one bats an eye '
p377
sg14
Vjoker
p378
sg16
(lp379
g370
ag371
ag372
ag373
ag374
ag375
aS'shirts'
p380
aS'to'
p381
aS'work'
p382
aS'and'
p383
aS'no'
p384
aS'one'
p385
aS'bats'
p386
aS'an'
p387
aS'eye'
p388
asg22
(lp389
g380
ag381
ag382
ag383
ag384
ag385
ag386
ag387
ag388
asba(iMeme
Meme
p390
(dp391
g3
(lp392
S'Play'
p393
aS'pingpong'
p394
aS'at'
p395
aS'7.15'
p396
aS'no'
p397
aS'one'
p398
aS'bats'
p399
aS'an'
p400
aS'eye'
p401
asg10
S'Play pingpong at 7.15 no one bats an eye '
p402
sg12
S' Go back at 7.15 and everybody loses their mind!! '
p403
sg14
Vjoker
p404
sg16
(lp405
g393
ag394
ag395
ag396
ag397
ag398
ag399
ag400
ag401
aS'Go'
p406
aS'back'
p407
aS'at'
p408
aS'7.15'
p409
aS'and'
p410
aS'everybody'
p411
aS'loses'
p412
aS'their'
p413
aS'mind'
p414
ag314
ag314
asg22
(lp415
g406
ag407
ag408
ag409
ag410
ag411
ag412
ag413
ag414
ag314
ag314
asba(iMeme
Meme
p416
(dp417
g3
(lp418
S'Say'
p419
aS'you'
p420
aS'like'
p421
aS'kids'
p422
aS'and'
p423
aS'nobody'
p424
aS'bats'
p425
aS'an'
p426
aS'eye'
p427
asg10
S'Say you like kids and nobody bats an eye '
p428
sg12
S' Say you really like 11 year olds and everyone loses their minds '
p429
sg14
Vjoker
p430
sg16
(lp431
g419
ag420
ag421
ag422
ag423
ag424
ag425
ag426
ag427
aS'Say'
p432
aS'you'
p433
aS'really'
p434
aS'like'
p435
aS'11'
p436
aS'year'
p437
aS'olds'
p438
aS'and'
p439
aS'everyone'
p440
aS'loses'
p441
aS'their'
p442
aS'minds'
p443
asg22
(lp444
g432
ag433
ag434
ag435
ag436
ag437
ag438
ag439
ag440
ag441
ag442
ag443
asba(iMeme
Meme
p445
(dp446
g3
(lp447
S'Post'
p448
aS'anything'
p449
aS'about'
p450
ag8
aS'mustang'
p451
asg10
S'Post anything about a mustang  '
p452
sg12
S' And suddenly everyone looses their mind '
p453
sg14
Vjoker
p454
sg16
(lp455
g448
ag449
ag450
ag8
ag451
aS'And'
p456
aS'suddenly'
p457
aS'everyone'
p458
aS'looses'
p459
aS'their'
p460
aS'mind'
p461
asg22
(lp462
g456
ag457
ag458
ag459
ag460
ag461
asba(iMeme
Meme
p463
(dp464
g3
(lp465
S'welcome'
p466
aS'to'
p467
aS"'Stop"
p468
aS'Being'
p469
aS'A'
p470
aS'Cunt'
p471
aS'part'
p472
aS'deux'
p473
aS"'"
p474
asg10
S"welcome to 'Stop Being A Cunt part deux' "
p475
sg12
S" if you like our stuff well done you've gat a fucking sense of humor, if not get to fuck!!! "
p476
sg14
Vjoker
p477
sg16
(lp478
g466
ag467
ag468
ag469
ag470
ag471
ag472
ag473
ag474
aS'if'
p479
aS'you'
p480
aS'like'
p481
aS'our'
p482
aS'stuff'
p483
aS'well'
p484
aS'done'
p485
aS'you'
p486
aS"'ve"
p487
aS'gat'
p488
ag8
aS'fucking'
p489
aS'sense'
p490
aS'of'
p491
aS'humor'
p492
ag214
aS'if'
p493
aS'not'
p494
aS'get'
p495
aS'to'
p496
aS'fuck'
p497
ag314
ag314
ag314
asg22
(lp498
g479
ag480
ag481
ag482
ag483
ag484
ag485
ag486
ag487
ag488
ag8
ag489
ag490
ag491
ag492
ag214
ag493
ag494
ag495
ag496
ag497
ag314
ag314
ag314
asba(iMeme
Meme
p499
(dp500
g3
(lp501
S'spend'
p502
aS'every'
p503
aS'penny'
p504
aS'providing'
p505
aS'for'
p506
aS'your'
p507
aS'family'
p508
aS'and'
p509
aS'nobody'
p510
aS'bats'
p511
aS'an'
p512
aS'eye'
p513
asg10
S'spend every penny providing for your family and nobody bats an eye '
p514
sg12
S' a single guy buys his girlfriend some jewelry and everyone loses their mind '
p515
sg14
Vjoker
p516
sg16
(lp517
g502
ag503
ag504
ag505
ag506
ag507
ag508
ag509
ag510
ag511
ag512
ag513
ag8
aS'single'
p518
aS'guy'
p519
aS'buys'
p520
aS'his'
p521
aS'girlfriend'
p522
aS'some'
p523
aS'jewelry'
p524
aS'and'
p525
aS'everyone'
p526
aS'loses'
p527
aS'their'
p528
aS'mind'
p529
asg22
(lp530
g8
ag518
ag519
ag520
ag521
ag522
ag523
ag524
ag525
ag526
ag527
ag528
ag529
asba(iMeme
Meme
p531
(dp532
g3
(lp533
S'Board'
p534
aS'shuts'
p535
aS'down'
p536
aS'for'
p537
ag8
aS'few'
p538
aS'hours'
p539
asg10
S'Board shuts down for a few hours '
p540
sg12
S' and everyone looses their minds. '
p541
sg14
Vjoker
p542
sg16
(lp543
g534
ag535
ag536
ag537
ag8
ag538
ag539
aS'and'
p544
aS'everyone'
p545
aS'looses'
p546
aS'their'
p547
aS'minds'
p548
ag226
asg22
(lp549
g544
ag545
ag546
ag547
ag548
ag226
asba(iMeme
Meme
p550
(dp551
g3
(lp552
g470
aS'normal'
p553
aS'customer'
p554
aS'is'
p555
aS'waiting'
p556
aS'500'
p557
aS'seconds'
p558
aS'and'
p559
aS'no'
p560
aS'one'
p561
aS'cares'
p562
asg10
S'A normal customer is waiting 500 seconds and no one cares  '
p563
sg12
S' A gap buster is waiting 60 seconds and everyone loses their minds '
p564
sg14
Vjoker
p565
sg16
(lp566
g470
ag553
ag554
ag555
ag556
ag557
ag558
ag559
ag560
ag561
ag562
ag470
aS'gap'
p567
aS'buster'
p568
aS'is'
p569
aS'waiting'
p570
aS'60'
p571
aS'seconds'
p572
aS'and'
p573
aS'everyone'
p574
aS'loses'
p575
aS'their'
p576
aS'minds'
p577
asg22
(lp578
g470
ag567
ag568
ag569
ag570
ag571
ag572
ag573
ag574
ag575
ag576
ag577
asba(iMeme
Meme
p579
(dp580
g3
(lp581
g470
aS'black'
p582
aS'guy'
p583
aS'says'
p584
aS'cracker'
p585
aS'and'
p586
aS'no'
p587
aS'bats'
p588
aS'an'
p589
aS'eyelash'
p590
asg10
S'A black guy says cracker and no bats an eyelash '
p591
sg12
S' but when a white guy says nigga everyone loses their fucking mind '
p592
sg14
Vjoker
p593
sg16
(lp594
g470
ag582
ag583
ag584
ag585
ag586
ag587
ag588
ag589
ag590
aS'but'
p595
aS'when'
p596
ag8
aS'white'
p597
aS'guy'
p598
aS'says'
p599
aS'nigga'
p600
aS'everyone'
p601
aS'loses'
p602
aS'their'
p603
aS'fucking'
p604
aS'mind'
p605
asg22
(lp606
g595
ag596
ag8
ag597
ag598
ag599
ag600
ag601
ag602
ag603
ag604
ag605
asba(iMeme
Meme
p607
(dp608
g3
(lp609
S'People'
p610
aS'post'
p611
aS'gaming'
p612
aS'news'
p613
aS'on'
p614
aS'Facebook'
p615
ag214
aS'no'
p616
aS'one'
p617
aS'bats'
p618
aS'an'
p619
aS'eye'
p620
ag226
asg10
S'People post gaming news on Facebook , no one bats an eye. '
p621
sg12
S' But one little spoiled girl posts something about a beauty pagent , and everyone just loses their minds. '
p622
sg14
Vjoker
p623
sg16
(lp624
g610
ag611
ag612
ag613
ag614
ag615
ag214
ag616
ag617
ag618
ag619
ag620
ag226
aS'But'
p625
aS'one'
p626
aS'little'
p627
aS'spoiled'
p628
aS'girl'
p629
aS'posts'
p630
aS'something'
p631
aS'about'
p632
ag8
aS'beauty'
p633
aS'pagent'
p634
ag214
aS'and'
p635
aS'everyone'
p636
aS'just'
p637
aS'loses'
p638
aS'their'
p639
aS'minds'
p640
ag226
asg22
(lp641
g625
ag626
ag627
ag628
ag629
ag630
ag631
ag632
ag8
ag633
ag634
ag214
ag635
ag636
ag637
ag638
ag639
ag640
ag226
asba(iMeme
Meme
p642
(dp643
g3
(lp644
S'people'
p645
aS'overdose'
p646
aS'from'
p647
ag8
aS'drug'
p648
aS'and'
p649
aS'nobody'
p650
aS'panics'
p651
asg10
S'people overdose from a drug and nobody panics '
p652
sg12
S' close a night club down and everybody looses their mind '
p653
sg14
Vjoker
p654
sg16
(lp655
g645
ag646
ag647
ag8
ag648
ag649
ag650
ag651
aS'close'
p656
ag8
aS'night'
p657
aS'club'
p658
aS'down'
p659
aS'and'
p660
aS'everybody'
p661
aS'looses'
p662
aS'their'
p663
aS'mind'
p664
asg22
(lp665
g656
ag8
ag657
ag658
ag659
ag660
ag661
ag662
ag663
ag664
asba(iMeme
Meme
p666
(dp667
g3
(lp668
S'Say'
p669
aS'there'
p670
aS"'s"
p671
aS'an'
p672
aS'anatomy'
p673
aS'presentation'
p674
asg10
S"Say there's an anatomy presentation "
p675
sg12
S' And everyone loses their minds '
p676
sg14
Vjoker
p677
sg16
(lp678
g669
ag670
ag671
ag672
ag673
ag674
aS'And'
p679
aS'everyone'
p680
aS'loses'
p681
aS'their'
p682
aS'minds'
p683
asg22
(lp684
g679
ag680
ag681
ag682
ag683
asba(iMeme
Meme
p685
(dp686
g3
(lp687
S'Get'
p688
aS'to'
p689
aS'the'
p690
aS'office'
p691
aS'at'
p692
aS'6:00a'
p693
aS'and'
p694
aS'nobody'
p695
aS'panics'
p696
asg10
S'Get to the office at 6:00a and nobody panics '
p697
sg12
S' Leave 9.5 hours later at 3:30p, and everyone loses their minds '
p698
sg14
Vjoker
p699
sg16
(lp700
g688
ag689
ag690
ag691
ag692
ag693
ag694
ag695
ag696
aS'Leave'
p701
aS'9.5'
p702
aS'hours'
p703
aS'later'
p704
aS'at'
p705
aS'3:30p'
p706
ag214
aS'and'
p707
aS'everyone'
p708
aS'loses'
p709
aS'their'
p710
aS'minds'
p711
asg22
(lp712
g701
ag702
ag703
ag704
ag705
ag706
ag214
ag707
ag708
ag709
ag710
ag711
asba(iMeme
Meme
p713
(dp714
g3
(lp715
S'If'
p716
aS'tomorrow'
p717
ag277
aS'tell'
p718
aS'the'
p719
aS'students'
p720
aS'that'
p721
aS'they'
p722
aS'have'
p723
ag8
aS'heavy'
p724
aS'homework'
p725
aS'or'
p726
ag8
aS'project'
p727
aS'nobody'
p728
aS'panics'
p729
ag214
aS'because'
p730
aS'it'
p731
aS"'s"
p732
aS'all'
p733
aS'part'
p734
aS'of'
p735
aS'the'
p736
aS'plan'
p737
ag226
asg10
S"If tomorrow I tell the students that they have a heavy homework or a project nobody panics, because it's all part of the plan. "
p738
sg12
S' but when i say they have one, one little exam, THEN EVERYONE LOSES THEIR MINDS..!  '
p739
sg14
Vjoker
p740
sg16
(lp741
g716
ag717
ag277
ag718
ag719
ag720
ag721
ag722
ag723
ag8
ag724
ag725
ag726
ag8
ag727
ag728
ag729
ag214
ag730
ag731
ag732
ag733
ag734
ag735
ag736
ag737
ag226
aS'but'
p742
aS'when'
p743
aS'i'
p744
aS'say'
p745
aS'they'
p746
aS'have'
p747
aS'one'
p748
ag214
aS'one'
p749
aS'little'
p750
aS'exam'
p751
ag214
aS'THEN'
p752
aS'EVERYONE'
p753
aS'LOSES'
p754
aS'THEIR'
p755
aS'MINDS..'
p756
ag314
asg22
(lp757
g742
ag743
ag744
ag745
ag746
ag747
ag748
ag214
ag749
ag750
ag751
ag214
ag752
ag753
ag754
ag755
ag756
ag314
asba(iMeme
Meme
p758
(dp759
g3
(lp760
S'Work'
p761
aS'15'
p762
aS'hours'
p763
aS'straight'
p764
aS'and'
p765
aS'nobody'
p766
aS'bats'
p767
aS'an'
p768
aS'eye'
p769
asg10
S'Work 15 hours straight and nobody bats an eye '
p770
sg12
S' Ask to leave early and everyone loses their minds '
p771
sg14
Vjoker
p772
sg16
(lp773
g761
ag762
ag763
ag764
ag765
ag766
ag767
ag768
ag769
aS'Ask'
p774
aS'to'
p775
aS'leave'
p776
aS'early'
p777
aS'and'
p778
aS'everyone'
p779
aS'loses'
p780
aS'their'
p781
aS'minds'
p782
asg22
(lp783
g774
ag775
ag776
ag777
ag778
ag779
ag780
ag781
ag782
asba(iMeme
Meme
p784
(dp785
g3
(lp786
g470
aS'black'
p787
aS'guy'
p788
aS'says'
p789
aS'cracker'
p790
aS'and'
p791
aS'no'
p792
aS'bats'
p793
aS'an'
p794
aS'eyelash'
p795
asg10
S'A black guy says cracker and no bats an eyelash '
p796
sg12
S' but when a white guy says nigga everyone loses their fucking mind '
p797
sg14
Vjoker
p798
sg16
(lp799
g470
ag787
ag788
ag789
ag790
ag791
ag792
ag793
ag794
ag795
aS'but'
p800
aS'when'
p801
ag8
aS'white'
p802
aS'guy'
p803
aS'says'
p804
aS'nigga'
p805
aS'everyone'
p806
aS'loses'
p807
aS'their'
p808
aS'fucking'
p809
aS'mind'
p810
asg22
(lp811
g800
ag801
ag8
ag802
ag803
ag804
ag805
ag806
ag807
ag808
ag809
ag810
asba(iMeme
Meme
p812
(dp813
g3
(lp814
S'we'
p815
aS'release'
p816
aS'new'
p817
aS'guidance'
p818
asg10
S'we release new guidance '
p819
sg12
S' and everyone loses their minds '
p820
sg14
Vjoker
p821
sg16
(lp822
g815
ag816
ag817
ag818
aS'and'
p823
aS'everyone'
p824
aS'loses'
p825
aS'their'
p826
aS'minds'
p827
asg22
(lp828
g823
ag824
ag825
ag826
ag827
asba(iMeme
Meme
p829
(dp830
g3
(lp831
g470
aS'girl'
p832
aS'says'
p833
aS'``'
p834
aS'you'
p835
aS'are'
p836
aS'beautiful'
p837
aS"''"
p838
aS'to'
p839
aS'another'
p840
aS'girl'
p841
aS'and'
p842
aS'nobody'
p843
aS'bats'
p844
aS'an'
p845
aS'eye'
p846
asg10
S'A girl says "you are beautiful" to another girl and nobody bats an eye '
p847
sg12
S' a guy says "you are beautiful" to another guy and everybody loses their minds   '
p848
sg14
Vjoker
p849
sg16
(lp850
g470
ag832
ag833
ag834
ag835
ag836
ag837
ag838
ag839
ag840
ag841
ag842
ag843
ag844
ag845
ag846
ag8
aS'guy'
p851
aS'says'
p852
aS'``'
p853
aS'you'
p854
aS'are'
p855
aS'beautiful'
p856
aS"''"
p857
aS'to'
p858
aS'another'
p859
aS'guy'
p860
aS'and'
p861
aS'everybody'
p862
aS'loses'
p863
aS'their'
p864
aS'minds'
p865
asg22
(lp866
g8
ag851
ag852
ag853
ag854
ag855
ag856
ag857
ag858
ag859
ag860
ag861
ag862
ag863
ag864
ag865
asba(iMeme
Meme
p867
(dp868
g3
(lp869
S'yea'
p870
aS'bitches'
p871
asg10
S'yea bitches  '
p872
sg12
S' smoke it '
p873
sg14
Vjoker
p874
sg16
(lp875
g870
ag871
aS'smoke'
p876
aS'it'
p877
asg22
(lp878
g876
ag877
asba(iMeme
Meme
p879
(dp880
g3
(lp881
S'Bunch'
p882
aS'of'
p883
aS'guys'
p884
aS'chatting'
p885
aS'each'
p886
aS'other'
p887
aS'up'
p888
aS'and'
p889
aS'nobody'
p890
aS'bats'
p891
aS'an'
p892
aS'eye'
p893
asg10
S'Bunch of guys chatting each other up and nobody bats an eye '
p894
sg12
S' One person declares she is a girl and everybody loses their mind! '
p895
sg14
Vjoker
p896
sg16
(lp897
g882
ag883
ag884
ag885
ag886
ag887
ag888
ag889
ag890
ag891
ag892
ag893
aS'One'
p898
aS'person'
p899
aS'declares'
p900
aS'she'
p901
aS'is'
p902
ag8
aS'girl'
p903
aS'and'
p904
aS'everybody'
p905
aS'loses'
p906
aS'their'
p907
aS'mind'
p908
ag314
asg22
(lp909
g898
ag899
ag900
ag901
ag902
ag8
ag903
ag904
ag905
ag906
ag907
ag908
ag314
asba(iMeme
Meme
p910
(dp911
g3
(lp912
S'did'
p913
aS'something'
p914
aS'good'
p915
aS'many'
p916
aS'times'
p917
aS'nobody'
p918
aS'bats'
p919
aS'an'
p920
aS'eye'
p921
asg10
S'did something good many times nobody bats an eye '
p922
sg12
S' did something wrong once and everybody loses their minds '
p923
sg14
Vjoker
p924
sg16
(lp925
g913
ag914
ag915
ag916
ag917
ag918
ag919
ag920
ag921
aS'did'
p926
aS'something'
p927
aS'wrong'
p928
aS'once'
p929
aS'and'
p930
aS'everybody'
p931
aS'loses'
p932
aS'their'
p933
aS'minds'
p934
asg22
(lp935
g926
ag927
ag928
ag929
ag930
ag931
ag932
ag933
ag934
asba(iMeme
Meme
p936
(dp937
g3
(lp938
g8
aS'skinny'
p939
aS'person'
p940
aS'gets'
p941
aS'seconds'
p942
aS'and'
p943
aS'no'
p944
aS'one'
p945
aS'bats'
p946
aS'an'
p947
aS'eye'
p948
asg10
S'a skinny person gets seconds and no one bats an eye '
p949
sg12
S' a fat person gets more food and everyone loses their fucking minds '
p950
sg14
Vjoker
p951
sg16
(lp952
g8
ag939
ag940
ag941
ag942
ag943
ag944
ag945
ag946
ag947
ag948
ag8
aS'fat'
p953
aS'person'
p954
aS'gets'
p955
aS'more'
p956
aS'food'
p957
aS'and'
p958
aS'everyone'
p959
aS'loses'
p960
aS'their'
p961
aS'fucking'
p962
aS'minds'
p963
asg22
(lp964
g8
ag953
ag954
ag955
ag956
ag957
ag958
ag959
ag960
ag961
ag962
ag963
asba(iMeme
Meme
p965
(dp966
g3
(lp967
S'Play'
p968
ag8
aS'game'
p969
aS'on'
p970
aS'your'
p971
aS'phone'
p972
aS'and'
p973
aS'nobody'
p974
aS'bats'
p975
aS'an'
p976
aS'eye'
p977
asg10
S'Play a game on your phone and nobody bats an eye '
p978
sg12
S' play a game on your old Game Boy color and everybody loses their minds! '
p979
sg14
Vjoker
p980
sg16
(lp981
g968
ag8
ag969
ag970
ag971
ag972
ag973
ag974
ag975
ag976
ag977
aS'play'
p982
ag8
aS'game'
p983
aS'on'
p984
aS'your'
p985
aS'old'
p986
aS'Game'
p987
aS'Boy'
p988
aS'color'
p989
aS'and'
p990
aS'everybody'
p991
aS'loses'
p992
aS'their'
p993
aS'minds'
p994
ag314
asg22
(lp995
g982
ag8
ag983
ag984
ag985
ag986
ag987
ag988
ag989
ag990
ag991
ag992
ag993
ag994
ag314
asba(iMeme
Meme
p996
(dp997
g3
(lp998
g8
aS'man'
p999
aS'writes'
p1000
ag8
aS'list'
p1001
aS'of'
p1002
aS'male'
p1003
aS'web'
p1004
aS'designers'
p1005
aS'and'
p1006
aS'people'
p1007
aS'ask'
p1008
aS'where'
p1009
aS'are'
p1010
aS'the'
p1011
aS'women'
p1012
asg10
S'a man writes a list of male web designers and people ask where are the women '
p1013
sg12
S' a woman writes a list of female web designers, everyone loses their minds '
p1014
sg14
Vjoker
p1015
sg16
(lp1016
g8
ag999
ag1000
ag8
ag1001
ag1002
ag1003
ag1004
ag1005
ag1006
ag1007
ag1008
ag1009
ag1010
ag1011
ag1012
ag8
aS'woman'
p1017
aS'writes'
p1018
ag8
aS'list'
p1019
aS'of'
p1020
aS'female'
p1021
aS'web'
p1022
aS'designers'
p1023
ag214
aS'everyone'
p1024
aS'loses'
p1025
aS'their'
p1026
aS'minds'
p1027
asg22
(lp1028
g8
ag1017
ag1018
ag8
ag1019
ag1020
ag1021
ag1022
ag1023
ag214
ag1024
ag1025
ag1026
ag1027
asba(iMeme
Meme
p1029
(dp1030
g3
(lp1031
S'gue'
p1032
aS'ikutan'
p1033
aS'nyanyi'
p1034
asg10
S'gue ikutan nyanyi '
p1035
sg12
S' and everyone loses their minds '
p1036
sg14
Vjoker
p1037
sg16
(lp1038
g1032
ag1033
ag1034
aS'and'
p1039
aS'everyone'
p1040
aS'loses'
p1041
aS'their'
p1042
aS'minds'
p1043
asg22
(lp1044
g1039
ag1040
ag1041
ag1042
ag1043
asba(iMeme
Meme
p1045
(dp1046
g3
(lp1047
S'down'
p1048
ag8
aS'bowl'
p1049
aS'of'
p1050
aS'mac'
p1051
ag246
aS'cheese'
p1052
aS'as'
p1053
ag8
aS'kid'
p1054
aS'nobody'
p1055
aS'bats'
p1056
aS'an'
p1057
aS'eye'
p1058
asg10
S'down a bowl of mac n cheese as a kid nobody bats an eye '
p1059
sg12
S' down a bowl of mac n cheese with a glass of wine as an adult everyone loses their minds '
p1060
sg14
Vjoker
p1061
sg16
(lp1062
g1048
ag8
ag1049
ag1050
ag1051
ag246
ag1052
ag1053
ag8
ag1054
ag1055
ag1056
ag1057
ag1058
aS'down'
p1063
ag8
aS'bowl'
p1064
aS'of'
p1065
aS'mac'
p1066
ag246
aS'cheese'
p1067
aS'with'
p1068
ag8
aS'glass'
p1069
aS'of'
p1070
aS'wine'
p1071
aS'as'
p1072
aS'an'
p1073
aS'adult'
p1074
aS'everyone'
p1075
aS'loses'
p1076
aS'their'
p1077
aS'minds'
p1078
asg22
(lp1079
g1063
ag8
ag1064
ag1065
ag1066
ag246
ag1067
ag1068
ag8
ag1069
ag1070
ag1071
ag1072
ag1073
ag1074
ag1075
ag1076
ag1077
ag1078
asba(iMeme
Meme
p1080
(dp1081
g3
(lp1082
S'Tell'
p1083
ag8
aS'bunch'
p1084
aS'of'
p1085
aS'girls'
p1086
aS'you'
p1087
aS'are'
p1088
aS'straight'
p1089
aS'and'
p1090
aS'none'
p1091
aS'of'
p1092
aS'them'
p1093
aS'will'
p1094
aS'bat'
p1095
aS'an'
p1096
aS'eye'
p1097
ag226
asg10
S'Tell a bunch of girls you are straight and none of them will bat an eye. '
p1098
sg12
S' Tell them you are gay and they begin to loose their minds. '
p1099
sg14
Vjoker
p1100
sg16
(lp1101
g1083
ag8
ag1084
ag1085
ag1086
ag1087
ag1088
ag1089
ag1090
ag1091
ag1092
ag1093
ag1094
ag1095
ag1096
ag1097
ag226
aS'Tell'
p1102
aS'them'
p1103
aS'you'
p1104
aS'are'
p1105
aS'gay'
p1106
aS'and'
p1107
aS'they'
p1108
aS'begin'
p1109
aS'to'
p1110
aS'loose'
p1111
aS'their'
p1112
aS'minds'
p1113
ag226
asg22
(lp1114
g1102
ag1103
ag1104
ag1105
ag1106
ag1107
ag1108
ag1109
ag1110
ag1111
ag1112
ag1113
ag226
asba(iMeme
Meme
p1115
(dp1116
g3
(lp1117
S'Find'
p1118
aS'out'
p1119
aS'Danny'
p1120
aS'Haden'
p1121
aS'is'
p1122
aS'in'
p1123
aS'the'
p1124
aS'Lion'
p1125
aS'Suit'
p1126
aS'everything'
p1127
aS'is'
p1128
aS'fine'
p1129
asg10
S'Find out Danny Haden is in the Lion Suit everything is fine '
p1130
sg12
S" Find out it's someone else and everyone just loses their minds "
p1131
sg14
Vjoker
p1132
sg16
(lp1133
g1118
ag1119
ag1120
ag1121
ag1122
ag1123
ag1124
ag1125
ag1126
ag1127
ag1128
ag1129
aS'Find'
p1134
aS'out'
p1135
aS'it'
p1136
aS"'s"
p1137
aS'someone'
p1138
aS'else'
p1139
aS'and'
p1140
aS'everyone'
p1141
aS'just'
p1142
aS'loses'
p1143
aS'their'
p1144
aS'minds'
p1145
asg22
(lp1146
g1134
ag1135
ag1136
ag1137
ag1138
ag1139
ag1140
ag1141
ag1142
ag1143
ag1144
ag1145
asba(iMeme
Meme
p1147
(dp1148
g3
(lp1149
S'Date'
p1150
ag8
aS'skinny'
p1151
aS'girl'
p1152
ag214
aS'and'
p1153
aS'nobody'
p1154
aS'cares'
p1155
ag226
asg10
S'Date a skinny girl, and nobody cares. '
p1156
sg12
S' Date a fat woman, and everybody loses their minds! '
p1157
sg14
Vjoker
p1158
sg16
(lp1159
g1150
ag8
ag1151
ag1152
ag214
ag1153
ag1154
ag1155
ag226
aS'Date'
p1160
ag8
aS'fat'
p1161
aS'woman'
p1162
ag214
aS'and'
p1163
aS'everybody'
p1164
aS'loses'
p1165
aS'their'
p1166
aS'minds'
p1167
ag314
asg22
(lp1168
g1160
ag8
ag1161
ag1162
ag214
ag1163
ag1164
ag1165
ag1166
ag1167
ag314
asba(iMeme
Meme
p1169
(dp1170
g3
(lp1171
S'Axl'
p1172
aS'posts'
p1173
ag8
aS'nude'
p1174
aS'girl'
p1175
aS'and'
p1176
aS'no'
p1177
aS'one'
p1178
aS'bats'
p1179
aS'an'
p1180
aS'eye'
p1181
asg10
S'Axl posts a nude girl and no one bats an eye '
p1182
sg12
S' I post a cosplayer and everyone loses their minds '
p1183
sg14
Vjoker
p1184
sg16
(lp1185
g1172
ag1173
ag8
ag1174
ag1175
ag1176
ag1177
ag1178
ag1179
ag1180
ag1181
ag277
aS'post'
p1186
ag8
aS'cosplayer'
p1187
aS'and'
p1188
aS'everyone'
p1189
aS'loses'
p1190
aS'their'
p1191
aS'minds'
p1192
asg22
(lp1193
g277
ag1186
ag8
ag1187
ag1188
ag1189
ag1190
ag1191
ag1192
asba(iMeme
Meme
p1194
(dp1195
g3
(lp1196
S'``'
p1197
aS'Outside'
p1198
aS"''"
p1199
aS'cats'
p1200
aS'deficate'
p1201
aS'in'
p1202
aS'my'
p1203
aS'yard'
p1204
aS'daily'
p1205
ag214
aS'no'
p1206
aS'one'
p1207
aS'bat'
p1208
aS"'s"
p1209
aS'an'
p1210
aS'eye'
p1211
asg10
S'"Outside" cats deficate in my yard daily, no one bat\'s an eye '
p1212
sg12
S' I forget a plastic bag once walking the dog, everyone loses their minds '
p1213
sg14
Vjoker
p1214
sg16
(lp1215
g1197
ag1198
ag1199
ag1200
ag1201
ag1202
ag1203
ag1204
ag1205
ag214
ag1206
ag1207
ag1208
ag1209
ag1210
ag1211
ag277
aS'forget'
p1216
ag8
aS'plastic'
p1217
aS'bag'
p1218
aS'once'
p1219
aS'walking'
p1220
aS'the'
p1221
aS'dog'
p1222
ag214
aS'everyone'
p1223
aS'loses'
p1224
aS'their'
p1225
aS'minds'
p1226
asg22
(lp1227
g277
ag1216
ag8
ag1217
ag1218
ag1219
ag1220
ag1221
ag1222
ag214
ag1223
ag1224
ag1225
ag1226
asba(iMeme
Meme
p1228
(dp1229
g3
(lp1230
S'youth'
p1231
aS'slander'
p1232
aS'in'
p1233
aS'the'
p1234
aS'masjid'
p1235
ag214
aS'no'
p1236
aS'one'
p1237
aS'bats'
p1238
aS'an'
p1239
aS'eye'
p1240
asg10
S'youth slander in the masjid, no one bats an eye '
p1241
sg12
S' Kids run around being kids, and everyone loses their minds '
p1242
sg14
Vjoker
p1243
sg16
(lp1244
g1231
ag1232
ag1233
ag1234
ag1235
ag214
ag1236
ag1237
ag1238
ag1239
ag1240
aS'Kids'
p1245
aS'run'
p1246
aS'around'
p1247
aS'being'
p1248
aS'kids'
p1249
ag214
aS'and'
p1250
aS'everyone'
p1251
aS'loses'
p1252
aS'their'
p1253
aS'minds'
p1254
asg22
(lp1255
g1245
ag1246
ag1247
ag1248
ag1249
ag214
ag1250
ag1251
ag1252
ag1253
ag1254
asba(iMeme
Meme
p1256
(dp1257
g3
(lp1258
S'One'
p1259
aS'post'
p1260
aS'that'
p1261
aS'does'
p1262
aS"n't"
p1263
aS'involve'
p1264
aS'memes'
p1265
asg10
S"One post that doesn't involve memes "
p1266
sg12
S' and everyone loses their minds! '
p1267
sg14
Vjoker
p1268
sg16
(lp1269
g1259
ag1260
ag1261
ag1262
ag1263
ag1264
ag1265
aS'and'
p1270
aS'everyone'
p1271
aS'loses'
p1272
aS'their'
p1273
aS'minds'
p1274
ag314
asg22
(lp1275
g1270
ag1271
ag1272
ag1273
ag1274
ag314
asba(iMeme
Meme
p1276
(dp1277
g3
(lp1278
S'Come'
p1279
aS'home'
p1280
aS'drunk'
p1281
aS'and'
p1282
aS'no'
p1283
aS'one'
p1284
aS'bats'
p1285
aS'an'
p1286
aS'eye'
p1287
ag226
asg10
S'Come home drunk and no one bats an eye. '
p1288
sg12
S' Come home stoned and everybody loses their minds '
p1289
sg14
Vjoker
p1290
sg16
(lp1291
g1279
ag1280
ag1281
ag1282
ag1283
ag1284
ag1285
ag1286
ag1287
ag226
aS'Come'
p1292
aS'home'
p1293
aS'stoned'
p1294
aS'and'
p1295
aS'everybody'
p1296
aS'loses'
p1297
aS'their'
p1298
aS'minds'
p1299
asg22
(lp1300
g1292
ag1293
ag1294
ag1295
ag1296
ag1297
ag1298
ag1299
asba(iMeme
Meme
p1301
(dp1302
g3
(lp1303
S'Kid'
p1304
aS'throws'
p1305
aS'tantrum'
p1306
aS'at'
p1307
aS'the'
p1308
aS'zoo'
p1309
aS'nobody'
p1310
aS'bats'
p1311
aS'an'
p1312
aS'eye'
p1313
asg10
S'Kid throws tantrum at the zoo nobody bats an eye '
p1314
sg12
S' Handicap sister yells out in excitement everyone looses their minds and stares  '
p1315
sg14
Vjoker
p1316
sg16
(lp1317
g1304
ag1305
ag1306
ag1307
ag1308
ag1309
ag1310
ag1311
ag1312
ag1313
aS'Handicap'
p1318
aS'sister'
p1319
aS'yells'
p1320
aS'out'
p1321
aS'in'
p1322
aS'excitement'
p1323
aS'everyone'
p1324
aS'looses'
p1325
aS'their'
p1326
aS'minds'
p1327
aS'and'
p1328
aS'stares'
p1329
asg22
(lp1330
g1318
ag1319
ag1320
ag1321
ag1322
ag1323
ag1324
ag1325
ag1326
ag1327
ag1328
ag1329
asba(iMeme
Meme
p1331
(dp1332
g3
(lp1333
S'Quote'
p1334
aS'this'
p1335
aS'meme'
p1336
aS'incorrectly'
p1337
aS'and'
p1338
aS'no'
p1339
aS'one'
p1340
aS'bats'
p1341
aS'an'
p1342
aS'eye'
p1343
asg10
S'Quote this meme incorrectly and no one bats an eye '
p1344
sg12
S' Call someone out on it actually being nobody panics and everyone loses their minds '
p1345
sg14
Vjoker
p1346
sg16
(lp1347
g1334
ag1335
ag1336
ag1337
ag1338
ag1339
ag1340
ag1341
ag1342
ag1343
aS'Call'
p1348
aS'someone'
p1349
aS'out'
p1350
aS'on'
p1351
aS'it'
p1352
aS'actually'
p1353
aS'being'
p1354
aS'nobody'
p1355
aS'panics'
p1356
aS'and'
p1357
aS'everyone'
p1358
aS'loses'
p1359
aS'their'
p1360
aS'minds'
p1361
asg22
(lp1362
g1348
ag1349
ag1350
ag1351
ag1352
ag1353
ag1354
ag1355
ag1356
ag1357
ag1358
ag1359
ag1360
ag1361
asba(iMeme
Meme
p1363
(dp1364
g3
(lp1365
g8
aS'submarine'
p1366
aS'full'
p1367
aS'of'
p1368
aS'soldiers'
p1369
aS'will'
p1370
aS'be'
p1371
aS'blowing'
p1372
aS'up'
p1373
aS'...'
p1374
aS'nobody'
p1375
aS'panicks'
p1376
aS'...'
p1377
asg10
S'a submarine full of soldiers will be blowing up... nobody panicks... '
p1378
sg12
S" Because it's all part of the plan "
p1379
sg14
Vjoker
p1380
sg16
(lp1381
g8
ag1366
ag1367
ag1368
ag1369
ag1370
ag1371
ag1372
ag1373
ag1374
ag1375
ag1376
ag1377
aS'Because'
p1382
aS'it'
p1383
aS"'s"
p1384
aS'all'
p1385
aS'part'
p1386
aS'of'
p1387
aS'the'
p1388
aS'plan'
p1389
asg22
(lp1390
g1382
ag1383
ag1384
ag1385
ag1386
ag1387
ag1388
ag1389
asba(iMeme
Meme
p1391
(dp1392
g3
(lp1393
S'se'
p1394
aS'gustan'
p1395
aS'entre'
p1396
aS'si'
p1397
asg10
S'se gustan entre si '
p1398
sg12
S' pero no le pides el cuadre '
p1399
sg14
Vjoker
p1400
sg16
(lp1401
g1394
ag1395
ag1396
ag1397
aS'pero'
p1402
aS'no'
p1403
aS'le'
p1404
aS'pides'
p1405
aS'el'
p1406
aS'cuadre'
p1407
asg22
(lp1408
g1402
ag1403
ag1404
ag1405
ag1406
ag1407
asba(iMeme
Meme
p1409
(dp1410
g3
(lp1411
S'Tell'
p1412
aS'Aioros'
p1413
aS'stop'
p1414
aS'or'
p1415
aS'you'
p1416
aS"'ll"
p1417
aS'remove'
p1418
aS'him'
p1419
aS'and'
p1420
aS'it'
p1421
aS"'s"
p1422
aS'fine'
p1423
asg10
S"Tell Aioros stop or you'll remove him and it's fine "
p1424
sg12
S' Actually remove him and everyone loses their fucking mind '
p1425
sg14
Vjoker
p1426
sg16
(lp1427
g1412
ag1413
ag1414
ag1415
ag1416
ag1417
ag1418
ag1419
ag1420
ag1421
ag1422
ag1423
aS'Actually'
p1428
aS'remove'
p1429
aS'him'
p1430
aS'and'
p1431
aS'everyone'
p1432
aS'loses'
p1433
aS'their'
p1434
aS'fucking'
p1435
aS'mind'
p1436
asg22
(lp1437
g1428
ag1429
ag1430
ag1431
ag1432
ag1433
ag1434
ag1435
ag1436
asba(iMeme
Meme
p1438
(dp1439
g3
(lp1440
S'im'
p1441
aS'the'
p1442
aS'joker'
p1443
asg10
S'im the joker  '
p1444
sg12
S' and im coming to getcha '
p1445
sg14
Vjoker
p1446
sg16
(lp1447
g1441
ag1442
ag1443
aS'and'
p1448
aS'im'
p1449
aS'coming'
p1450
aS'to'
p1451
aS'getcha'
p1452
asg22
(lp1453
g1448
ag1449
ag1450
ag1451
ag1452
asba(iMeme
Meme
p1454
(dp1455
g3
(lp1456
S'girls'
p1457
aS'date'
p1458
aS'guys'
p1459
aS'that'
p1460
aS'are'
p1461
aS'older'
p1462
aS'and'
p1463
aS'no'
p1464
aS'one'
p1465
aS'bats'
p1466
aS'an'
p1467
aS'eye'
p1468
asg10
S'girls date guys that are older and no one bats an eye '
p1469
sg12
S" a guy dates a girl that's older and everyone loses their minds "
p1470
sg14
Vjoker
p1471
sg16
(lp1472
g1457
ag1458
ag1459
ag1460
ag1461
ag1462
ag1463
ag1464
ag1465
ag1466
ag1467
ag1468
ag8
aS'guy'
p1473
aS'dates'
p1474
ag8
aS'girl'
p1475
aS'that'
p1476
aS"'s"
p1477
aS'older'
p1478
aS'and'
p1479
aS'everyone'
p1480
aS'loses'
p1481
aS'their'
p1482
aS'minds'
p1483
asg22
(lp1484
g8
ag1473
ag1474
ag8
ag1475
ag1476
ag1477
ag1478
ag1479
ag1480
ag1481
ag1482
ag1483
asba(iMeme
Meme
p1485
(dp1486
g3
(lp1487
g744
aS'swear'
p1488
aS'the'
p1489
aS'poop'
p1490
aS'was'
p1491
aS'this'
p1492
aS'big'
p1493
asg10
S'i swear the poop was this big '
p1494
sg12
S' Batman '
p1495
sg14
Vjoker
p1496
sg16
(lp1497
g744
ag1488
ag1489
ag1490
ag1491
ag1492
ag1493
aS'Batman'
p1498
asg22
(lp1499
g1498
asba(iMeme
Meme
p1500
(dp1501
g3
(lp1502
S'WhatsApp'
p1503
aS'gets'
p1504
ag8
aS'BBM'
p1505
aS'feature'
p1506
asg10
S' WhatsApp gets a BBM feature '
p1507
sg12
S' and everybody loses their minds '
p1508
sg14
Vjoker
p1509
sg16
(lp1510
g1503
ag1504
ag8
ag1505
ag1506
aS'and'
p1511
aS'everybody'
p1512
aS'loses'
p1513
aS'their'
p1514
aS'minds'
p1515
asg22
(lp1516
g1511
ag1512
ag1513
ag1514
ag1515
asba(iMeme
Meme
p1517
(dp1518
g3
(lp1519
S'Roberto'
p1520
aS'loves'
p1521
aS'you'
p1522
asg10
S'Roberto loves you '
p1523
sg12
S' naviyah get it threw your head '
p1524
sg14
Vjoker
p1525
sg16
(lp1526
g1520
ag1521
ag1522
aS'naviyah'
p1527
aS'get'
p1528
aS'it'
p1529
aS'threw'
p1530
aS'your'
p1531
aS'head'
p1532
asg22
(lp1533
g1527
ag1528
ag1529
ag1530
ag1531
ag1532
asba(iMeme
Meme
p1534
(dp1535
g3
(lp1536
S'Notre'
p1537
aS'Dame'
p1538
aS'loses'
p1539
aS'and'
p1540
aS'nobody'
p1541
aS'bats'
p1542
aS'an'
p1543
aS'eye'
p1544
aS'but'
p1545
asg10
S'Notre Dame loses and nobody bats an eye but '
p1546
sg12
S' Longhorns lose just one college football game and everyone loses their mind '
p1547
sg14
Vjoker
p1548
sg16
(lp1549
g1537
ag1538
ag1539
ag1540
ag1541
ag1542
ag1543
ag1544
ag1545
aS'Longhorns'
p1550
aS'lose'
p1551
aS'just'
p1552
aS'one'
p1553
aS'college'
p1554
aS'football'
p1555
aS'game'
p1556
aS'and'
p1557
aS'everyone'
p1558
aS'loses'
p1559
aS'their'
p1560
aS'mind'
p1561
asg22
(lp1562
g1550
ag1551
ag1552
ag1553
ag1554
ag1555
ag1556
ag1557
ag1558
ag1559
ag1560
ag1561
asba(iMeme
Meme
p1563
(dp1564
g3
(lp1565
S'samsung'
p1566
aS'releases'
p1567
aS'note'
p1568
aS'3'
p1569
ag214
aS'no'
p1570
aS'one'
p1571
aS'cares'
p1572
asg10
S'samsung releases note 3 , no one cares '
p1573
sg12
S' apple releases no iphone covers and everyone loses theirs minds '
p1574
sg14
Vjoker
p1575
sg16
(lp1576
g1566
ag1567
ag1568
ag1569
ag214
ag1570
ag1571
ag1572
aS'apple'
p1577
aS'releases'
p1578
aS'no'
p1579
aS'iphone'
p1580
aS'covers'
p1581
aS'and'
p1582
aS'everyone'
p1583
aS'loses'
p1584
aS'theirs'
p1585
aS'minds'
p1586
asg22
(lp1587
g1577
ag1578
ag1579
ag1580
ag1581
ag1582
ag1583
ag1584
ag1585
ag1586
asba(iMeme
Meme
p1588
(dp1589
g3
(lp1590
S'Throw'
p1591
ag8
aS'banana'
p1592
aS'at'
p1593
ag8
aS'white'
p1594
aS'man'
p1595
aS'and'
p1596
aS'nobody'
p1597
aS'bats'
p1598
aS'an'
p1599
aS'eye'
p1600
asg10
S'Throw a banana at a white man and nobody bats an eye '
p1601
sg12
S' Throw a banana at a black man and everyone loses their minds '
p1602
sg14
Vjoker
p1603
sg16
(lp1604
g1591
ag8
ag1592
ag1593
ag8
ag1594
ag1595
ag1596
ag1597
ag1598
ag1599
ag1600
aS'Throw'
p1605
ag8
aS'banana'
p1606
aS'at'
p1607
ag8
aS'black'
p1608
aS'man'
p1609
aS'and'
p1610
aS'everyone'
p1611
aS'loses'
p1612
aS'their'
p1613
aS'minds'
p1614
asg22
(lp1615
g1605
ag8
ag1606
ag1607
ag8
ag1608
ag1609
ag1610
ag1611
ag1612
ag1613
ag1614
asba(iMeme
Meme
p1616
(dp1617
g3
(lp1618
S'samsung'
p1619
aS'releases'
p1620
aS'note'
p1621
ag1569
ag214
aS'no'
p1622
aS'one'
p1623
aS'cares'
p1624
asg10
S'samsung releases note 3 , no one cares '
p1625
sg12
S' apple releases iphone covers and everyone loses theirs minds '
p1626
sg14
Vjoker
p1627
sg16
(lp1628
g1619
ag1620
ag1621
ag1569
ag214
ag1622
ag1623
ag1624
aS'apple'
p1629
aS'releases'
p1630
aS'iphone'
p1631
aS'covers'
p1632
aS'and'
p1633
aS'everyone'
p1634
aS'loses'
p1635
aS'theirs'
p1636
aS'minds'
p1637
asg22
(lp1638
g1629
ag1630
ag1631
ag1632
ag1633
ag1634
ag1635
ag1636
ag1637
asba(iMeme
Meme
p1639
(dp1640
g3
(lp1641
S'share'
p1642
ag8
aS'pic'
p1643
aS'or'
p1644
aS'status'
p1645
aS'and'
p1646
aS'nobody'
p1647
aS'panics'
p1648
asg10
S'share a pic or status and nobody panics '
p1649
sg12
S' copy paste the same and everyone loses their minds '
p1650
sg14
Vjoker
p1651
sg16
(lp1652
g1642
ag8
ag1643
ag1644
ag1645
ag1646
ag1647
ag1648
aS'copy'
p1653
aS'paste'
p1654
aS'the'
p1655
aS'same'
p1656
aS'and'
p1657
aS'everyone'
p1658
aS'loses'
p1659
aS'their'
p1660
aS'minds'
p1661
asg22
(lp1662
g1653
ag1654
ag1655
ag1656
ag1657
ag1658
ag1659
ag1660
ag1661
asba(iMeme
Meme
p1663
(dp1664
g3
(lp1665
S'Call'
p1666
ag8
aS'homosexual'
p1667
aS'female'
p1668
aS'gay'
p1669
aS'and'
p1670
aS'nobody'
p1671
aS'bats'
p1672
aS'an'
p1673
aS'eye'
p1674
asg10
S'Call a homosexual female gay and nobody bats an eye '
p1675
sg12
S' Call a homosexual male a lesbian and everybody loses their minds '
p1676
sg14
Vjoker
p1677
sg16
(lp1678
g1666
ag8
ag1667
ag1668
ag1669
ag1670
ag1671
ag1672
ag1673
ag1674
aS'Call'
p1679
ag8
aS'homosexual'
p1680
aS'male'
p1681
ag8
aS'lesbian'
p1682
aS'and'
p1683
aS'everybody'
p1684
aS'loses'
p1685
aS'their'
p1686
aS'minds'
p1687
asg22
(lp1688
g1679
ag8
ag1680
ag1681
ag8
ag1682
ag1683
ag1684
ag1685
ag1686
ag1687
asba(iMeme
Meme
p1689
(dp1690
g3
(lp1691
S'Por'
p1692
aS'que'
p1693
aS'me'
p1694
aS'vienes'
p1695
aS'con'
p1696
aS'...'
p1697
asg10
S'Por que me vienes con... '
p1698
sg12
S' Pendejadas '
p1699
sg14
Vjoker
p1700
sg16
(lp1701
g1692
ag1693
ag1694
ag1695
ag1696
ag1697
aS'Pendejadas'
p1702
asg22
(lp1703
g1702
asba(iMeme
Meme
p1704
(dp1705
g3
(lp1706
S'Chemical'
p1707
aS'attacks'
p1708
aS'kill'
p1709
aS'100'
p1710
aS"'s"
p1711
aS'and'
p1712
aS'no'
p1713
aS'one'
p1714
aS'bats'
p1715
aS'an'
p1716
aS'eye'
p1717
asg10
S"Chemical attacks kill 100's and no one bats an eye "
p1718
sg12
S' Arsenal sign Ozil and everyone loses their mind '
p1719
sg14
Vjoker
p1720
sg16
(lp1721
g1707
ag1708
ag1709
ag1710
ag1711
ag1712
ag1713
ag1714
ag1715
ag1716
ag1717
aS'Arsenal'
p1722
aS'sign'
p1723
aS'Ozil'
p1724
aS'and'
p1725
aS'everyone'
p1726
aS'loses'
p1727
aS'their'
p1728
aS'mind'
p1729
asg22
(lp1730
g1722
ag1723
ag1724
ag1725
ag1726
ag1727
ag1728
ag1729
asba(iMeme
Meme
p1731
(dp1732
g3
(lp1733
S'and'
p1734
aS'no'
p1735
aS'bats'
p1736
aS'an'
p1737
aS'eye'
p1738
asg10
S'and no bats an eye '
p1739
sg12
S' and everyone  '
p1740
sg14
Vjoker
p1741
sg16
(lp1742
g1734
ag1735
ag1736
ag1737
ag1738
aS'and'
p1743
aS'everyone'
p1744
asg22
(lp1745
g1743
ag1744
asba(iMeme
Meme
p1746
(dp1747
g3
(lp1748
S'Aokiji'
p1749
aS'has'
p1750
aS'connections'
p1751
aS'with'
p1752
aS'BB'
p1753
aS'and'
p1754
aS'no'
p1755
aS'one'
p1756
aS'bats'
p1757
aS'an'
p1758
aS'eye'
p1759
asg10
S'Aokiji has connections with BB and no one bats an eye '
p1760
sg12
S' Barto turns out to be Luffy fanboy and everybody loses their minds '
p1761
sg14
Vjoker
p1762
sg16
(lp1763
g1749
ag1750
ag1751
ag1752
ag1753
ag1754
ag1755
ag1756
ag1757
ag1758
ag1759
aS'Barto'
p1764
aS'turns'
p1765
aS'out'
p1766
aS'to'
p1767
aS'be'
p1768
aS'Luffy'
p1769
aS'fanboy'
p1770
aS'and'
p1771
aS'everybody'
p1772
aS'loses'
p1773
aS'their'
p1774
aS'minds'
p1775
asg22
(lp1776
g1764
ag1765
ag1766
ag1767
ag1768
ag1769
ag1770
ag1771
ag1772
ag1773
ag1774
ag1775
asba(iMeme
Meme
p1777
(dp1778
g3
(lp1779
S'When'
p1780
aS'scan'
p1781
aS'fails'
p1782
aS'nobody'
p1783
aS'cares'
p1784
ag214
aS'because'
p1785
aS'it'
p1786
aS"'s"
p1787
aS'part'
p1788
aS'of'
p1789
aS'the'
p1790
aS'plan'
p1791
asg10
S"When scan fails nobody cares, because it's part of the plan "
p1792
sg12
S' But put a mod limit and everyone loses their minds! '
p1793
sg14
Vjoker
p1794
sg16
(lp1795
g1780
ag1781
ag1782
ag1783
ag1784
ag214
ag1785
ag1786
ag1787
ag1788
ag1789
ag1790
ag1791
aS'But'
p1796
aS'put'
p1797
ag8
aS'mod'
p1798
aS'limit'
p1799
aS'and'
p1800
aS'everyone'
p1801
aS'loses'
p1802
aS'their'
p1803
aS'minds'
p1804
ag314
asg22
(lp1805
g1796
ag1797
ag8
ag1798
ag1799
ag1800
ag1801
ag1802
ag1803
ag1804
ag314
asba(iMeme
Meme
p1806
(dp1807
g3
(lp1808
S'Transfer'
p1809
aS'window'
p1810
aS'starts'
p1811
aS'and'
p1812
aS'runs'
p1813
aS'for'
p1814
aS'2'
p1815
aS'months'
p1816
ag214
aS'nobody'
p1817
aS'gives'
p1818
ag8
aS'shit'
p1819
asg10
S'Transfer window starts and runs for 2 months, nobody gives a shit '
p1820
sg12
S' Transfer deadline day arrives and everyone loses their minds!! '
p1821
sg14
Vjoker
p1822
sg16
(lp1823
g1809
ag1810
ag1811
ag1812
ag1813
ag1814
ag1815
ag1816
ag214
ag1817
ag1818
ag8
ag1819
aS'Transfer'
p1824
aS'deadline'
p1825
aS'day'
p1826
aS'arrives'
p1827
aS'and'
p1828
aS'everyone'
p1829
aS'loses'
p1830
aS'their'
p1831
aS'minds'
p1832
ag314
ag314
asg22
(lp1833
g1824
ag1825
ag1826
ag1827
ag1828
ag1829
ag1830
ag1831
ag1832
ag314
ag314
asba(iMeme
Meme
p1834
(dp1835
g3
(lp1836
S'Take'
p1837
aS'optional'
p1838
aS'one'
p1839
aS'way'
p1840
aS'trip'
p1841
aS'to'
p1842
aS'mars'
p1843
aS'and'
p1844
aS'no'
p1845
aS'one'
p1846
aS'bats'
p1847
aS'an'
p1848
aS'eye'
p1849
asg10
S'Take optional one way trip to mars and no one bats an eye '
p1850
sg12
S' mention assisted suicide and everybody loses their minds '
p1851
sg14
Vjoker
p1852
sg16
(lp1853
g1837
ag1838
ag1839
ag1840
ag1841
ag1842
ag1843
ag1844
ag1845
ag1846
ag1847
ag1848
ag1849
aS'mention'
p1854
aS'assisted'
p1855
aS'suicide'
p1856
aS'and'
p1857
aS'everybody'
p1858
aS'loses'
p1859
aS'their'
p1860
aS'minds'
p1861
asg22
(lp1862
g1854
ag1855
ag1856
ag1857
ag1858
ag1859
ag1860
ag1861
asba(iMeme
Meme
p1863
(dp1864
g3
(lp1865
g470
aS'girl'
p1866
aS'can'
p1867
aS'adjust'
p1868
aS'her'
p1869
aS'bra'
p1870
aS'whenever'
p1871
aS'she'
p1872
aS'wants'
p1873
aS'and'
p1874
aS'no'
p1875
aS'one'
p1876
aS'bats'
p1877
aS'an'
p1878
aS'eye'
p1879
ag226
asg10
S'A girl can adjust her bra whenever she wants and no one bats an eye. '
p1880
sg12
S' I adjust my balls for one second AND EVERYONE JUST LOSES THEIR MINDS. '
p1881
sg14
Vjoker
p1882
sg16
(lp1883
g470
ag1866
ag1867
ag1868
ag1869
ag1870
ag1871
ag1872
ag1873
ag1874
ag1875
ag1876
ag1877
ag1878
ag1879
ag226
ag277
aS'adjust'
p1884
aS'my'
p1885
aS'balls'
p1886
aS'for'
p1887
aS'one'
p1888
aS'second'
p1889
aS'AND'
p1890
aS'EVERYONE'
p1891
aS'JUST'
p1892
aS'LOSES'
p1893
aS'THEIR'
p1894
aS'MINDS'
p1895
ag226
asg22
(lp1896
g277
ag1884
ag1885
ag1886
ag1887
ag1888
ag1889
ag1890
ag1891
ag1892
ag1893
ag1894
ag1895
ag226
asba(iMeme
Meme
p1897
(dp1898
g3
(lp1899
S'mom'
p1900
aS'points'
p1901
aS'out'
p1902
aS'how'
p1903
aS'bad'
p1904
aS'we'
p1905
aS'clean'
p1906
ag214
aS'nobody'
p1907
aS'bats'
p1908
aS'an'
p1909
aS'eye'
p1910
asg10
S'mom points out how bad we clean, nobody bats an eye '
p1911
sg12
S' we point out how bad she cleans, and everybody loses their minds '
p1912
sg14
Vjoker
p1913
sg16
(lp1914
g1900
ag1901
ag1902
ag1903
ag1904
ag1905
ag1906
ag214
ag1907
ag1908
ag1909
ag1910
aS'we'
p1915
aS'point'
p1916
aS'out'
p1917
aS'how'
p1918
aS'bad'
p1919
aS'she'
p1920
aS'cleans'
p1921
ag214
aS'and'
p1922
aS'everybody'
p1923
aS'loses'
p1924
aS'their'
p1925
aS'minds'
p1926
asg22
(lp1927
g1915
ag1916
ag1917
ag1918
ag1919
ag1920
ag1921
ag214
ag1922
ag1923
ag1924
ag1925
ag1926
asba(iMeme
Meme
p1928
(dp1929
g3
(lp1930
S'Justin'
p1931
aS'Timberlake'
p1932
aS'wants'
p1933
aS'to'
p1934
aS'play'
p1935
aS'the'
p1936
aS'Riddler'
p1937
ag214
aS'no'
p1938
aS'one'
p1939
aS'cares'
p1940
asg10
S'Justin Timberlake wants to play the Riddler, no one cares '
p1941
sg12
S' But Ben Affleck signs on for Batman and everyone loses their minds '
p1942
sg14
Vjoker
p1943
sg16
(lp1944
g1931
ag1932
ag1933
ag1934
ag1935
ag1936
ag1937
ag214
ag1938
ag1939
ag1940
aS'But'
p1945
aS'Ben'
p1946
aS'Affleck'
p1947
aS'signs'
p1948
aS'on'
p1949
aS'for'
p1950
aS'Batman'
p1951
aS'and'
p1952
aS'everyone'
p1953
aS'loses'
p1954
aS'their'
p1955
aS'minds'
p1956
asg22
(lp1957
g1945
ag1946
ag1947
ag1948
ag1949
ag1950
ag1951
ag1952
ag1953
ag1954
ag1955
ag1956
asba(iMeme
Meme
p1958
(dp1959
g3
(lp1960
S'Tell'
p1961
aS'people'
p1962
aS'you'
p1963
aS'speak'
p1964
aS'English'
p1965
aS'and'
p1966
aS'nobody'
p1967
aS'cares'
p1968
asg10
S'Tell people you speak English and nobody cares '
p1969
sg12
S" Tell people you're actually half French, speak it as a first language and live in Paris and everybody loses their mind "
p1970
sg14
Vjoker
p1971
sg16
(lp1972
g1961
ag1962
ag1963
ag1964
ag1965
ag1966
ag1967
ag1968
aS'Tell'
p1973
aS'people'
p1974
aS'you'
p1975
aS"'re"
p1976
aS'actually'
p1977
aS'half'
p1978
aS'French'
p1979
ag214
aS'speak'
p1980
aS'it'
p1981
aS'as'
p1982
ag8
aS'first'
p1983
aS'language'
p1984
aS'and'
p1985
aS'live'
p1986
aS'in'
p1987
aS'Paris'
p1988
aS'and'
p1989
aS'everybody'
p1990
aS'loses'
p1991
aS'their'
p1992
aS'mind'
p1993
asg22
(lp1994
g1973
ag1974
ag1975
ag1976
ag1977
ag1978
ag1979
ag214
ag1980
ag1981
ag1982
ag8
ag1983
ag1984
ag1985
ag1986
ag1987
ag1988
ag1989
ag1990
ag1991
ag1992
ag1993
asba(iMeme
Meme
p1995
(dp1996
g3
(lp1997
S'Kill'
p1998
aS'500,000'
p1999
aS'Tutsi'
p2000
aS'with'
p2001
aS'machetes'
p2002
aS'in'
p2003
aS'Rwanda'
p2004
ag214
aS'and'
p2005
aS'nobody'
p2006
aS'cares'
p2007
aS'...'
p2008
asg10
S'Kill 500,000 Tutsi with machetes in Rwanda, and nobody cares... '
p2009
sg12
S' But kill 1000 Syrians with chemical weapons, and everyone LOSES THEIR MINDS! '
p2010
sg14
Vjoker
p2011
sg16
(lp2012
g1998
ag1999
ag2000
ag2001
ag2002
ag2003
ag2004
ag214
ag2005
ag2006
ag2007
ag2008
aS'But'
p2013
aS'kill'
p2014
aS'1000'
p2015
aS'Syrians'
p2016
aS'with'
p2017
aS'chemical'
p2018
aS'weapons'
p2019
ag214
aS'and'
p2020
aS'everyone'
p2021
aS'LOSES'
p2022
aS'THEIR'
p2023
aS'MINDS'
p2024
ag314
asg22
(lp2025
g2013
ag2014
ag2015
ag2016
ag2017
ag2018
ag2019
ag214
ag2020
ag2021
ag2022
ag2023
ag2024
ag314
asba(iMeme
Meme
p2026
(dp2027
g3
(lp2028
S'Make'
p2029
aS'jokes'
p2030
aS'about'
p2031
aS'christianity'
p2032
aS'and'
p2033
ag8
aS'few'
p2034
aS'whine'
p2035
asg10
S'Make jokes about christianity and a few whine '
p2036
sg12
S' But crack one joke about islam and everyone loses their minds '
p2037
sg14
Vjoker
p2038
sg16
(lp2039
g2029
ag2030
ag2031
ag2032
ag2033
ag8
ag2034
ag2035
aS'But'
p2040
aS'crack'
p2041
aS'one'
p2042
aS'joke'
p2043
aS'about'
p2044
aS'islam'
p2045
aS'and'
p2046
aS'everyone'
p2047
aS'loses'
p2048
aS'their'
p2049
aS'minds'
p2050
asg22
(lp2051
g2040
ag2041
ag2042
ag2043
ag2044
ag2045
ag2046
ag2047
ag2048
ag2049
ag2050
asba(iMeme
Meme
p2052
(dp2053
g3
(lp2054
g470
aS'dog'
p2055
aS'licks'
p2056
ag8
aS'human'
p2057
aS'and'
p2058
aS'no'
p2059
aS'one'
p2060
aS'bats'
p2061
aS'an'
p2062
aS'eye'
p2063
asg10
S'A dog licks a human and no one bats an eye '
p2064
sg12
S' A human licks a dog and everybody loses their minds '
p2065
sg14
Vjoker
p2066
sg16
(lp2067
g470
ag2055
ag2056
ag8
ag2057
ag2058
ag2059
ag2060
ag2061
ag2062
ag2063
ag470
aS'human'
p2068
aS'licks'
p2069
ag8
aS'dog'
p2070
aS'and'
p2071
aS'everybody'
p2072
aS'loses'
p2073
aS'their'
p2074
aS'minds'
p2075
asg22
(lp2076
g470
ag2068
ag2069
ag8
ag2070
ag2071
ag2072
ag2073
ag2074
ag2075
asba(iMeme
Meme
p2077
(dp2078
g3
(lp2079
S'Upload'
p2080
ag8
aS'funny'
p2081
aS'pic'
p2082
aS'on'
p2083
aS'9gag'
p2084
aS'and'
p2085
aS'no'
p2086
aS'one'
p2087
aS'bats'
p2088
aS'an'
p2089
aS'eye'
p2090
asg10
S'Upload a funny pic on 9gag and no one bats an eye '
p2091
sg12
S' upload a hot chick with a fucking cat on her boobs and everyone loses their minds '
p2092
sg14
Vjoker
p2093
sg16
(lp2094
g2080
ag8
ag2081
ag2082
ag2083
ag2084
ag2085
ag2086
ag2087
ag2088
ag2089
ag2090
aS'upload'
p2095
ag8
aS'hot'
p2096
aS'chick'
p2097
aS'with'
p2098
ag8
aS'fucking'
p2099
aS'cat'
p2100
aS'on'
p2101
aS'her'
p2102
aS'boobs'
p2103
aS'and'
p2104
aS'everyone'
p2105
aS'loses'
p2106
aS'their'
p2107
aS'minds'
p2108
asg22
(lp2109
g2095
ag8
ag2096
ag2097
ag2098
ag8
ag2099
ag2100
ag2101
ag2102
ag2103
ag2104
ag2105
ag2106
ag2107
ag2108
asba(iMeme
Meme
p2110
(dp2111
g3
(lp2112
S'your'
p2113
aS'kids'
p2114
aS'are'
p2115
aS'in'
p2116
aS'thier'
p2117
aS'20s'
p2118
asg10
S'your kids are in thier 20s  '
p2119
sg12
S' that aint your "baby" mama no more AND THEY SAY IM CRAZY '
p2120
sg14
Vjoker
p2121
sg16
(lp2122
g2113
ag2114
ag2115
ag2116
ag2117
ag2118
aS'that'
p2123
aS'aint'
p2124
aS'your'
p2125
aS'``'
p2126
aS'baby'
p2127
aS"''"
p2128
aS'mama'
p2129
aS'no'
p2130
aS'more'
p2131
aS'AND'
p2132
aS'THEY'
p2133
aS'SAY'
p2134
aS'IM'
p2135
aS'CRAZY'
p2136
asg22
(lp2137
g2123
ag2124
ag2125
ag2126
ag2127
ag2128
ag2129
ag2130
ag2131
ag2132
ag2133
ag2134
ag2135
ag2136
asba(iMeme
Meme
p2138
(dp2139
g3
(lp2140
S'Just'
p2141
aS'shut'
p2142
aS'the'
p2143
asg10
S'Just shut the '
p2144
sg12
S' fuck up '
p2145
sg14
Vjoker
p2146
sg16
(lp2147
g2141
ag2142
ag2143
aS'fuck'
p2148
aS'up'
p2149
asg22
(lp2150
g2148
ag2149
asba(iMeme
Meme
p2151
(dp2152
g3
(lp2153
S'everybody'
p2154
aS'thinks'
p2155
aS'the'
p2156
aS'economy'
p2157
aS'is'
p2158
aS'stalled'
p2159
aS'because'
p2160
aS'people'
p2161
aS'do'
p2162
aS"n't"
p2163
aS'have'
p2164
aS'enough'
p2165
aS'green'
p2166
aS'pieces'
p2167
aS'of'
p2168
aS'paper'
p2169
aS'in'
p2170
aS'their'
p2171
aS'hands'
p2172
asg10
S"everybody thinks the economy is stalled because people don't have enough green pieces of paper in their hands "
p2173
sg12
S" why don't they just google the austrian business cycle theory "
p2174
sg14
Vjoker
p2175
sg16
(lp2176
g2154
ag2155
ag2156
ag2157
ag2158
ag2159
ag2160
ag2161
ag2162
ag2163
ag2164
ag2165
ag2166
ag2167
ag2168
ag2169
ag2170
ag2171
ag2172
aS'why'
p2177
aS'do'
p2178
aS"n't"
p2179
aS'they'
p2180
aS'just'
p2181
aS'google'
p2182
aS'the'
p2183
aS'austrian'
p2184
aS'business'
p2185
aS'cycle'
p2186
aS'theory'
p2187
asg22
(lp2188
g2177
ag2178
ag2179
ag2180
ag2181
ag2182
ag2183
ag2184
ag2185
ag2186
ag2187
asba(iMeme
Meme
p2189
(dp2190
g3
(lp2191
S'Work'
p2192
aS'7'
p2193
aS'days'
p2194
ag8
aS'week'
p2195
ag214
aS'do'
p2196
ag1569
aS'people'
p2197
aS"'s"
p2198
aS'jobs'
p2199
aS'...'
p2200
asg10
S"Work 7 days a week, do 3 people's jobs... "
p2201
sg12
S' Ask for a raise and everyone loses their minds!!! '
p2202
sg14
Vjoker
p2203
sg16
(lp2204
g2192
ag2193
ag2194
ag8
ag2195
ag214
ag2196
ag1569
ag2197
ag2198
ag2199
ag2200
aS'Ask'
p2205
aS'for'
p2206
ag8
aS'raise'
p2207
aS'and'
p2208
aS'everyone'
p2209
aS'loses'
p2210
aS'their'
p2211
aS'minds'
p2212
ag314
ag314
ag314
asg22
(lp2213
g2205
ag2206
ag8
ag2207
ag2208
ag2209
ag2210
ag2211
ag2212
ag314
ag314
ag314
asba(iMeme
Meme
p2214
(dp2215
g3
(lp2216
S'the'
p2217
aS'Roostar'
p2218
aS'incorporated'
p2219
asg10
S'the Roostar incorporated '
p2220
sg12
S' is this big!!!! '
p2221
sg14
Vjoker
p2222
sg16
(lp2223
g2217
ag2218
ag2219
aS'is'
p2224
aS'this'
p2225
aS'big'
p2226
ag314
ag314
ag314
ag314
asg22
(lp2227
g2224
ag2225
ag2226
ag314
ag314
ag314
ag314
asba(iMeme
Meme
p2228
(dp2229
g3
(lp2230
S'why'
p2231
aS'so'
p2232
aS'serious'
p2233
aS'?'
p2234
asg10
S'why so serious? '
p2235
sg12
S' just found out there is no such thing as an interim service '
p2236
sg14
Vjoker
p2237
sg16
(lp2238
g2231
ag2232
ag2233
ag2234
aS'just'
p2239
aS'found'
p2240
aS'out'
p2241
aS'there'
p2242
aS'is'
p2243
aS'no'
p2244
aS'such'
p2245
aS'thing'
p2246
aS'as'
p2247
aS'an'
p2248
aS'interim'
p2249
aS'service'
p2250
asg22
(lp2251
g2239
ag2240
ag2241
ag2242
ag2243
ag2244
ag2245
ag2246
ag2247
ag2248
ag2249
ag2250
asba(iMeme
Meme
p2252
(dp2253
g3
(lp2254
S'Not'
p2255
aS'thinking'
p2256
aS'about'
p2257
aS'Hajer'
p2258
asg10
S'Not thinking about Hajer '
p2259
sg12
S' Is impossible '
p2260
sg14
Vjoker
p2261
sg16
(lp2262
g2255
ag2256
ag2257
ag2258
aS'Is'
p2263
aS'impossible'
p2264
asg22
(lp2265
g2263
ag2264
asba(iMeme
Meme
p2266
(dp2267
g3
(lp2268
S'Throw'
p2269
aS'the'
p2270
aS'ball'
p2271
aS'so'
p2272
aS'my'
p2273
aS'attacker'
p2274
aS'can'
p2275
aS'receive'
p2276
aS'the'
p2277
aS'ball'
p2278
aS'and'
p2279
aS'turn'
p2280
aS'quickly'
p2281
ag214
aS'no'
p2282
aS'one'
p2283
aS'bats'
p2284
aS'an'
p2285
aS'eyelid'
p2286
asg10
S'Throw the ball so my attacker can receive the ball and turn quickly, no one bats an eyelid '
p2287
sg12
S' Punt the ball so it barely gets to an opposing player at midfiled and all the parents lose their minds (with glee) '
p2288
sg14
Vjoker
p2289
sg16
(lp2290
g2269
ag2270
ag2271
ag2272
ag2273
ag2274
ag2275
ag2276
ag2277
ag2278
ag2279
ag2280
ag2281
ag214
ag2282
ag2283
ag2284
ag2285
ag2286
aS'Punt'
p2291
aS'the'
p2292
aS'ball'
p2293
aS'so'
p2294
aS'it'
p2295
aS'barely'
p2296
aS'gets'
p2297
aS'to'
p2298
aS'an'
p2299
aS'opposing'
p2300
aS'player'
p2301
aS'at'
p2302
aS'midfiled'
p2303
aS'and'
p2304
aS'all'
p2305
aS'the'
p2306
aS'parents'
p2307
aS'lose'
p2308
aS'their'
p2309
aS'minds'
p2310
aS'('
p2311
aS'with'
p2312
aS'glee'
p2313
aS')'
p2314
asg22
(lp2315
g2291
ag2292
ag2293
ag2294
ag2295
ag2296
ag2297
ag2298
ag2299
ag2300
ag2301
ag2302
ag2303
ag2304
ag2305
ag2306
ag2307
ag2308
ag2309
ag2310
ag2311
ag2312
ag2313
ag2314
asba(iMeme
Meme
p2316
(dp2317
g3
(lp2318
S'come'
p2319
aS'to'
p2320
aS'work'
p2321
aS'hungover'
p2322
aS'as'
p2323
aS'hell'
p2324
aS'and'
p2325
aS'still'
p2326
aS'probably'
p2327
aS'tipsy'
p2328
aS'and'
p2329
aS'no'
p2330
aS'one'
p2331
aS'bats'
p2332
aS'an'
p2333
aS'eye'
p2334
asg10
S'come to work hungover as hell and still probably tipsy and no one bats an eye '
p2335
sg12
S" call in sick because you don't feel good and everyone loses their mind "
p2336
sg14
Vjoker
p2337
sg16
(lp2338
g2319
ag2320
ag2321
ag2322
ag2323
ag2324
ag2325
ag2326
ag2327
ag2328
ag2329
ag2330
ag2331
ag2332
ag2333
ag2334
aS'call'
p2339
aS'in'
p2340
aS'sick'
p2341
aS'because'
p2342
aS'you'
p2343
aS'do'
p2344
aS"n't"
p2345
aS'feel'
p2346
aS'good'
p2347
aS'and'
p2348
aS'everyone'
p2349
aS'loses'
p2350
aS'their'
p2351
aS'mind'
p2352
asg22
(lp2353
g2339
ag2340
ag2341
ag2342
ag2343
ag2344
ag2345
ag2346
ag2347
ag2348
ag2349
ag2350
ag2351
ag2352
asba(iMeme
Meme
p2354
(dp2355
g3
(lp2356
S'Mothers'
p2357
aS'changing'
p2358
aS'diapers'
p2359
aS'everywhere'
p2360
asg10
S'Mothers changing diapers everywhere '
p2361
sg12
S' Let your son pee on a tree and everyone loses their minds '
p2362
sg14
Vjoker
p2363
sg16
(lp2364
g2357
ag2358
ag2359
ag2360
aS'Let'
p2365
aS'your'
p2366
aS'son'
p2367
aS'pee'
p2368
aS'on'
p2369
ag8
aS'tree'
p2370
aS'and'
p2371
aS'everyone'
p2372
aS'loses'
p2373
aS'their'
p2374
aS'minds'
p2375
asg22
(lp2376
g2365
ag2366
ag2367
ag2368
ag2369
ag8
ag2370
ag2371
ag2372
ag2373
ag2374
ag2375
asba(iMeme
Meme
p2377
(dp2378
g3
(lp2379
g744
aS'told'
p2380
aS'you'
p2381
aS'the'
p2382
aS'chocolate'
p2383
aS'chip'
p2384
aS'cookies'
p2385
aS'were'
p2386
aS'my'
p2387
aS'favorite'
p2388
asg10
S'i told you the chocolate chip cookies were my favorite  '
p2389
sg12
S' TWEET @BrashMontague '
p2390
sg14
Vjoker
p2391
sg16
(lp2392
g744
ag2380
ag2381
ag2382
ag2383
ag2384
ag2385
ag2386
ag2387
ag2388
aS'TWEET'
p2393
aS'@'
p2394
aS'BrashMontague'
p2395
asg22
(lp2396
g2393
ag2394
ag2395
asba(iMeme
Meme
p2397
(dp2398
g3
(lp2399
S'Add'
p2400
aS'politics'
p2401
aS'into'
p2402
aS'GW2'
p2403
asg10
S'Add politics into GW2 '
p2404
sg12
S' And everyone loses their minds '
p2405
sg14
Vjoker
p2406
sg16
(lp2407
g2400
ag2401
ag2402
ag2403
aS'And'
p2408
aS'everyone'
p2409
aS'loses'
p2410
aS'their'
p2411
aS'minds'
p2412
asg22
(lp2413
g2408
ag2409
ag2410
ag2411
ag2412
asba(iMeme
Meme
p2414
(dp2415
g3
(lp2416
S'One'
p2417
aS'person'
p2418
aS'declares'
p2419
aS'she'
p2420
aS'is'
p2421
ag8
aS'girl'
p2422
aS'and'
p2423
aS'everybody'
p2424
aS'loses'
p2425
aS'their'
p2426
aS'mind'
p2427
ag314
asg10
S'One person declares she is a girl and everybody loses their mind! '
p2428
sg12
S' One person declares she is a girl and everybody loses their mind! '
p2429
sg14
Vjoker
p2430
sg16
(lp2431
g2417
ag2418
ag2419
ag2420
ag2421
ag8
ag2422
ag2423
ag2424
ag2425
ag2426
ag2427
ag314
aS'One'
p2432
aS'person'
p2433
aS'declares'
p2434
aS'she'
p2435
aS'is'
p2436
ag8
aS'girl'
p2437
aS'and'
p2438
aS'everybody'
p2439
aS'loses'
p2440
aS'their'
p2441
aS'mind'
p2442
ag314
asg22
(lp2443
g2432
ag2433
ag2434
ag2435
ag2436
ag8
ag2437
ag2438
ag2439
ag2440
ag2441
ag2442
ag314
asba(iMeme
Meme
p2444
(dp2445
g3
(lp2446
g277
aS"'m"
p2447
aS'not'
p2448
aS'saying'
p2449
ag744
aS'hate'
p2450
aS'all'
p2451
aS'people'
p2452
asg10
S"I'm not saying i hate all people "
p2453
sg12
S" just the one's that are breathing "
p2454
sg14
Vjoker
p2455
sg16
(lp2456
g277
ag2447
ag2448
ag2449
ag744
ag2450
ag2451
ag2452
aS'just'
p2457
aS'the'
p2458
aS'one'
p2459
aS"'s"
p2460
aS'that'
p2461
aS'are'
p2462
aS'breathing'
p2463
asg22
(lp2464
g2457
ag2458
ag2459
ag2460
ag2461
ag2462
ag2463
asba(iMeme
Meme
p2465
(dp2466
g3
(lp2467
g277
aS"'m"
p2468
aS'online'
p2469
aS'for'
p2470
aS'weeks'
p2471
aS'and'
p2472
aS'nobody'
p2473
aS'bats'
p2474
aS'an'
p2475
aS'eye'
p2476
asg10
S"I'm online for weeks and nobody bats an eye "
p2477
sg12
S" I'm offline for a day and everyone loses their minds! "
p2478
sg14
Vjoker
p2479
sg16
(lp2480
g277
ag2468
ag2469
ag2470
ag2471
ag2472
ag2473
ag2474
ag2475
ag2476
ag277
aS"'m"
p2481
aS'offline'
p2482
aS'for'
p2483
ag8
aS'day'
p2484
aS'and'
p2485
aS'everyone'
p2486
aS'loses'
p2487
aS'their'
p2488
aS'minds'
p2489
ag314
asg22
(lp2490
g277
ag2481
ag2482
ag2483
ag8
ag2484
ag2485
ag2486
ag2487
ag2488
ag2489
ag314
asba(iMeme
Meme
p2491
(dp2492
g3
(lp2493
S'Get'
p2494
aS'asked'
p2495
aS'to'
p2496
aS'hook'
p2497
aS'lift'
p2498
aS'an'
p2499
aS'80kg'
p2500
aS'patient'
p2501
aS'and'
p2502
aS'no'
p2503
aS'one'
p2504
aS'bats'
p2505
aS'an'
p2506
aS'eye'
p2507
asg10
S'Get asked to hook lift an 80kg patient and no one bats an eye '
p2508
sg12
S' Carry a 6kg sling winch to the gantry without a trolley and everyone loses their minds '
p2509
sg14
Vjoker
p2510
sg16
(lp2511
g2494
ag2495
ag2496
ag2497
ag2498
ag2499
ag2500
ag2501
ag2502
ag2503
ag2504
ag2505
ag2506
ag2507
aS'Carry'
p2512
ag8
aS'6kg'
p2513
aS'sling'
p2514
aS'winch'
p2515
aS'to'
p2516
aS'the'
p2517
aS'gantry'
p2518
aS'without'
p2519
ag8
aS'trolley'
p2520
aS'and'
p2521
aS'everyone'
p2522
aS'loses'
p2523
aS'their'
p2524
aS'minds'
p2525
asg22
(lp2526
g2512
ag8
ag2513
ag2514
ag2515
ag2516
ag2517
ag2518
ag2519
ag8
ag2520
ag2521
ag2522
ag2523
ag2524
ag2525
asba(iMeme
Meme
p2527
(dp2528
g3
(lp2529
S'Kristine'
p2530
ag314
asg10
S'Kristine!  '
p2531
sg12
S" The bank didn't make a mistake!  Just admit you're broke bitch!  "
p2532
sg14
Vjoker
p2533
sg16
(lp2534
g2530
ag314
aS'The'
p2535
aS'bank'
p2536
aS'did'
p2537
aS"n't"
p2538
aS'make'
p2539
ag8
aS'mistake'
p2540
ag314
aS'Just'
p2541
aS'admit'
p2542
aS'you'
p2543
aS"'re"
p2544
aS'broke'
p2545
aS'bitch'
p2546
ag314
asg22
(lp2547
g2535
ag2536
ag2537
ag2538
ag2539
ag8
ag2540
ag314
ag2541
ag2542
ag2543
ag2544
ag2545
ag2546
ag314
asba(iMeme
Meme
p2548
(dp2549
g3
(lp2550
S'jaren'
p2551
asg10
S'jaren  '
p2552
sg12
S' why you so gay '
p2553
sg14
Vjoker
p2554
sg16
(lp2555
g2551
aS'why'
p2556
aS'you'
p2557
aS'so'
p2558
aS'gay'
p2559
asg22
(lp2560
g2556
ag2557
ag2558
ag2559
asba(iMeme
Meme
p2561
(dp2562
g3
(lp2563
S'Kristine'
p2564
ag314
asg10
S'Kristine!  '
p2565
sg12
S" The bank didn't lose your money.  You're broke bitch! "
p2566
sg14
Vjoker
p2567
sg16
(lp2568
g2564
ag314
aS'The'
p2569
aS'bank'
p2570
aS'did'
p2571
aS"n't"
p2572
aS'lose'
p2573
aS'your'
p2574
aS'money'
p2575
ag226
aS'You'
p2576
aS"'re"
p2577
aS'broke'
p2578
aS'bitch'
p2579
ag314
asg22
(lp2580
g2569
ag2570
ag2571
ag2572
ag2573
ag2574
ag2575
ag226
ag2576
ag2577
ag2578
ag2579
ag314
asba(iMeme
Meme
p2581
(dp2582
g3
(lp2583
S'No'
p2584
aS'water'
p2585
aS'for'
p2586
aS'few'
p2587
aS'days'
p2588
aS'and'
p2589
aS'nobody'
p2590
aS'cares'
p2591
asg10
S'No water for few days and nobody cares '
p2592
sg12
S' Fuel prices increase by 20sen and everyone lost their mind '
p2593
sg14
Vjoker
p2594
sg16
(lp2595
g2584
ag2585
ag2586
ag2587
ag2588
ag2589
ag2590
ag2591
aS'Fuel'
p2596
aS'prices'
p2597
aS'increase'
p2598
aS'by'
p2599
aS'20sen'
p2600
aS'and'
p2601
aS'everyone'
p2602
aS'lost'
p2603
aS'their'
p2604
aS'mind'
p2605
asg22
(lp2606
g2596
ag2597
ag2598
ag2599
ag2600
ag2601
ag2602
ag2603
ag2604
ag2605
asba(iMeme
Meme
p2607
(dp2608
g3
(lp2609
S'Many'
p2610
aS'people'
p2611
aS'got'
p2612
aS'shoot'
p2613
aS'dead'
p2614
aS'recently'
p2615
aS'and'
p2616
aS'nobody'
p2617
aS'cares'
p2618
asg10
S'Many people got shoot dead recently and nobody cares '
p2619
sg12
S' Fuel rise by RM0.20 and everybody loses their minds '
p2620
sg14
Vjoker
p2621
sg16
(lp2622
g2610
ag2611
ag2612
ag2613
ag2614
ag2615
ag2616
ag2617
ag2618
aS'Fuel'
p2623
aS'rise'
p2624
aS'by'
p2625
aS'RM0.20'
p2626
aS'and'
p2627
aS'everybody'
p2628
aS'loses'
p2629
aS'their'
p2630
aS'minds'
p2631
asg22
(lp2632
g2623
ag2624
ag2625
ag2626
ag2627
ag2628
ag2629
ag2630
ag2631
asba(iMeme
Meme
p2633
(dp2634
g3
(lp2635
S'Hi'
p2636
ag277
aS'am'
p2637
aS'the'
p2638
aS'joker'
p2639
asg10
S'Hi I am the joker '
p2640
sg12
S'  '
p2641
sg14
Vjoker
p2642
sg16
(lp2643
g2636
ag277
ag2637
ag2638
ag2639
asg22
(lp2644
sba(iMeme
Meme
p2645
(dp2646
g3
(lp2647
S'Kiefer'
p2648
aS'flops'
p2649
aS'and'
p2650
aS'dives'
p2651
aS'the'
p2652
aS'entire'
p2653
aS'season'
p2654
aS'and'
p2655
aS'nobody'
p2656
aS'cares'
p2657
asg10
S'Kiefer flops and dives the entire season and nobody cares '
p2658
sg12
S' Goodie player flops in just one of the 14 games and everyone loses their minds '
p2659
sg14
Vjoker
p2660
sg16
(lp2661
g2648
ag2649
ag2650
ag2651
ag2652
ag2653
ag2654
ag2655
ag2656
ag2657
aS'Goodie'
p2662
aS'player'
p2663
aS'flops'
p2664
aS'in'
p2665
aS'just'
p2666
aS'one'
p2667
aS'of'
p2668
aS'the'
p2669
aS'14'
p2670
aS'games'
p2671
aS'and'
p2672
aS'everyone'
p2673
aS'loses'
p2674
aS'their'
p2675
aS'minds'
p2676
asg22
(lp2677
g2662
ag2663
ag2664
ag2665
ag2666
ag2667
ag2668
ag2669
ag2670
ag2671
ag2672
ag2673
ag2674
ag2675
ag2676
asba(iMeme
Meme
p2678
(dp2679
g3
(lp2680
S'mention'
p2681
aS'the'
p2682
aS'horrors'
p2683
aS'of'
p2684
aS'slavery'
p2685
aS'and'
p2686
aS'the'
p2687
aS'civil'
p2688
aS'rights'
p2689
aS'movement'
p2690
aS'and'
p2691
aS'nobody'
p2692
aS'bats'
p2693
aS'an'
p2694
aS'eye'
p2695
asg10
S'mention the horrors of slavery and the civil rights movement and nobody bats an eye '
p2696
sg12
S' mention "BET" and everyone loses their minds '
p2697
sg14
Vjoker
p2698
sg16
(lp2699
g2681
ag2682
ag2683
ag2684
ag2685
ag2686
ag2687
ag2688
ag2689
ag2690
ag2691
ag2692
ag2693
ag2694
ag2695
aS'mention'
p2700
aS'``'
p2701
aS'BET'
p2702
aS"''"
p2703
aS'and'
p2704
aS'everyone'
p2705
aS'loses'
p2706
aS'their'
p2707
aS'minds'
p2708
asg22
(lp2709
g2700
ag2701
ag2702
ag2703
ag2704
ag2705
ag2706
ag2707
ag2708
asba(iMeme
Meme
p2710
(dp2711
g3
(lp2712
S'people'
p2713
aS"'s"
p2714
aS'favorite'
p2715
aS'football'
p2716
aS'team'
p2717
aS'loses'
p2718
aS'and'
p2719
aS'they'
p2720
aS'start'
p2721
aS'to'
p2722
aS'lose'
p2723
aS'their'
p2724
aS'minds'
p2725
asg10
S"people's favorite football team loses and they start to lose their minds "
p2726
sg12
S" the president announces plans to bomb a sovereign country that didn't attack us and nobody bats an eye lash "
p2727
sg14
Vjoker
p2728
sg16
(lp2729
g2713
ag2714
ag2715
ag2716
ag2717
ag2718
ag2719
ag2720
ag2721
ag2722
ag2723
ag2724
ag2725
aS'the'
p2730
aS'president'
p2731
aS'announces'
p2732
aS'plans'
p2733
aS'to'
p2734
aS'bomb'
p2735
ag8
aS'sovereign'
p2736
aS'country'
p2737
aS'that'
p2738
aS'did'
p2739
aS"n't"
p2740
aS'attack'
p2741
aS'us'
p2742
aS'and'
p2743
aS'nobody'
p2744
aS'bats'
p2745
aS'an'
p2746
aS'eye'
p2747
aS'lash'
p2748
asg22
(lp2749
g2730
ag2731
ag2732
ag2733
ag2734
ag2735
ag8
ag2736
ag2737
ag2738
ag2739
ag2740
ag2741
ag2742
ag2743
ag2744
ag2745
ag2746
ag2747
ag2748
asba(iMeme
Meme
p2750
(dp2751
g3
(lp2752
S'tell'
p2753
ag8
aS'joke'
p2754
aS'and'
p2755
aS'nobody'
p2756
aS'bats'
p2757
aS'an'
p2758
aS'eye'
p2759
asg10
S'tell a joke and nobody bats an eye '
p2760
sg12
S' put it in a meme and they loose theyre f*cking mind '
p2761
sg14
Vjoker
p2762
sg16
(lp2763
g2753
ag8
ag2754
ag2755
ag2756
ag2757
ag2758
ag2759
aS'put'
p2764
aS'it'
p2765
aS'in'
p2766
ag8
aS'meme'
p2767
aS'and'
p2768
aS'they'
p2769
aS'loose'
p2770
aS'theyre'
p2771
aS'f*cking'
p2772
aS'mind'
p2773
asg22
(lp2774
g2764
ag2765
ag2766
ag8
ag2767
ag2768
ag2769
ag2770
ag2771
ag2772
ag2773
asba(iMeme
Meme
p2775
(dp2776
g3
(lp2777
S'How'
p2778
aS'many'
p2779
aS'times'
p2780
aS'to'
p2781
aS'tell'
p2782
aS'you'
p2783
asg10
S'How many times to tell you '
p2784
sg12
S' i am heath ledger not joker. '
p2785
sg14
Vjoker
p2786
sg16
(lp2787
g2778
ag2779
ag2780
ag2781
ag2782
ag2783
ag744
aS'am'
p2788
aS'heath'
p2789
aS'ledger'
p2790
aS'not'
p2791
aS'joker'
p2792
ag226
asg22
(lp2793
g744
ag2788
ag2789
ag2790
ag2791
ag2792
ag226
asba(iMeme
Meme
p2794
(dp2795
g3
(lp2796
S'100000'
p2797
aS'people'
p2798
aS'die'
p2799
aS'in'
p2800
aS'Syria'
p2801
aS'civil'
p2802
aS'war'
p2803
ag214
aS'no'
p2804
aS'one'
p2805
aS'gives'
p2806
ag8
aS'shit'
p2807
asg10
S'100000 people die in Syria civil war, no one gives a shit '
p2808
sg12
S' Obama talks about one strike and suddenly everyone loses their minds '
p2809
sg14
Vjoker
p2810
sg16
(lp2811
g2797
ag2798
ag2799
ag2800
ag2801
ag2802
ag2803
ag214
ag2804
ag2805
ag2806
ag8
ag2807
aS'Obama'
p2812
aS'talks'
p2813
aS'about'
p2814
aS'one'
p2815
aS'strike'
p2816
aS'and'
p2817
aS'suddenly'
p2818
aS'everyone'
p2819
aS'loses'
p2820
aS'their'
p2821
aS'minds'
p2822
asg22
(lp2823
g2812
ag2813
ag2814
ag2815
ag2816
ag2817
ag2818
ag2819
ag2820
ag2821
ag2822
asba(iMeme
Meme
p2824
(dp2825
g3
(lp2826
S'Reboot'
p2827
aS'the'
p2828
aS'franchise'
p2829
aS'five'
p2830
aS'years'
p2831
aS'after'
p2832
ag277
aS'die'
p2833
aS'and'
p2834
aS'no'
p2835
aS'one'
p2836
aS'bats'
p2837
aS'an'
p2838
aS'eye'
p2839
asg10
S'Reboot the franchise five years after I die and no one bats an eye '
p2840
sg12
S' cast ben affleck as bruce wayne and everyone looses their minds '
p2841
sg14
Vjoker
p2842
sg16
(lp2843
g2827
ag2828
ag2829
ag2830
ag2831
ag2832
ag277
ag2833
ag2834
ag2835
ag2836
ag2837
ag2838
ag2839
aS'cast'
p2844
aS'ben'
p2845
aS'affleck'
p2846
aS'as'
p2847
aS'bruce'
p2848
aS'wayne'
p2849
aS'and'
p2850
aS'everyone'
p2851
aS'looses'
p2852
aS'their'
p2853
aS'minds'
p2854
asg22
(lp2855
g2844
ag2845
ag2846
ag2847
ag2848
ag2849
ag2850
ag2851
ag2852
ag2853
ag2854
asba(iMeme
Meme
p2856
(dp2857
g3
(lp2858
S'Play'
p2859
aS'football'
p2860
aS'every'
p2861
aS'monday'
p2862
aS'and'
p2863
aS'nobody'
p2864
aS'cares'
p2865
asg10
S'Play football every monday and nobody cares '
p2866
sg12
S' suggest playing on tuesday an everyone loses their minds '
p2867
sg14
Vjoker
p2868
sg16
(lp2869
g2859
ag2860
ag2861
ag2862
ag2863
ag2864
ag2865
aS'suggest'
p2870
aS'playing'
p2871
aS'on'
p2872
aS'tuesday'
p2873
aS'an'
p2874
aS'everyone'
p2875
aS'loses'
p2876
aS'their'
p2877
aS'minds'
p2878
asg22
(lp2879
g2870
ag2871
ag2872
ag2873
ag2874
ag2875
ag2876
ag2877
ag2878
asba(iMeme
Meme
p2880
(dp2881
g3
(lp2882
S'Blame'
p2883
aS'video'
p2884
aS'games'
p2885
aS'on'
p2886
aS'violence'
p2887
aS'and'
p2888
aS'no'
p2889
aS'one'
p2890
aS'bats'
p2891
aS'an'
p2892
aS'eye'
p2893
asg10
S'Blame video games on violence and no one bats an eye '
p2894
sg12
S' blame problems of African'
p2895
sg14
Vjoker
p2896
sg16
(lp2897
g2883
ag2884
ag2885
ag2886
ag2887
ag2888
ag2889
ag2890
ag2891
ag2892
ag2893
aS'blame'
p2898
aS'problems'
p2899
aS'of'
p2900
aS'African'
p2901
asg22
(lp2902
g2898
ag2899
ag2900
ag2901
asba(iMeme
Meme
p2903
(dp2904
g3
(lp2905
g470
aS'person'
p2906
aS'who'
p2907
aS'has'
p2908
aS'been'
p2909
aS'skinny'
p2910
aS'all'
p2911
aS'their'
p2912
aS'life'
p2913
aS'gains'
p2914
aS'weight'
p2915
aS'and'
p2916
aS'nobody'
p2917
aS'bats'
p2918
aS'an'
p2919
aS'eye'
p2920
asg10
S'A person who has been skinny all their life gains weight and nobody bats an eye '
p2921
sg12
S' A fat person who lost a significant amount of weight starts to regain it back and everybody loses their mind '
p2922
sg14
Vjoker
p2923
sg16
(lp2924
g470
ag2906
ag2907
ag2908
ag2909
ag2910
ag2911
ag2912
ag2913
ag2914
ag2915
ag2916
ag2917
ag2918
ag2919
ag2920
ag470
aS'fat'
p2925
aS'person'
p2926
aS'who'
p2927
aS'lost'
p2928
ag8
aS'significant'
p2929
aS'amount'
p2930
aS'of'
p2931
aS'weight'
p2932
aS'starts'
p2933
aS'to'
p2934
aS'regain'
p2935
aS'it'
p2936
aS'back'
p2937
aS'and'
p2938
aS'everybody'
p2939
aS'loses'
p2940
aS'their'
p2941
aS'mind'
p2942
asg22
(lp2943
g470
ag2925
ag2926
ag2927
ag2928
ag8
ag2929
ag2930
ag2931
ag2932
ag2933
ag2934
ag2935
ag2936
ag2937
ag2938
ag2939
ag2940
ag2941
ag2942
asba(iMeme
Meme
p2944
(dp2945
g3
(lp2946
S'Upload'
p2947
ag8
aS'funny'
p2948
aS'pic'
p2949
aS'on'
p2950
aS'9gag'
p2951
aS'and'
p2952
aS'no'
p2953
aS'one'
p2954
aS'bats'
p2955
aS'an'
p2956
aS'eye'
p2957
asg10
S'Upload a funny pic on 9gag and no one bats an eye '
p2958
sg12
S' upload a hot chick with a boob this big and everyone loses their minds '
p2959
sg14
Vjoker
p2960
sg16
(lp2961
g2947
ag8
ag2948
ag2949
ag2950
ag2951
ag2952
ag2953
ag2954
ag2955
ag2956
ag2957
aS'upload'
p2962
ag8
aS'hot'
p2963
aS'chick'
p2964
aS'with'
p2965
ag8
aS'boob'
p2966
aS'this'
p2967
aS'big'
p2968
aS'and'
p2969
aS'everyone'
p2970
aS'loses'
p2971
aS'their'
p2972
aS'minds'
p2973
asg22
(lp2974
g2962
ag8
ag2963
ag2964
ag2965
ag8
ag2966
ag2967
ag2968
ag2969
ag2970
ag2971
ag2972
ag2973
asba(iMeme
Meme
p2975
(dp2976
g3
(lp2977
S'Thousands'
p2978
aS'die'
p2979
aS'in'
p2980
aS'Syria'
p2981
aS'and'
p2982
aS'no'
p2983
aS'one'
p2984
aS'cares'
p2985
asg10
S'Thousands die in Syria and no one cares '
p2986
sg12
S' Miley Cyrus starts twerking and everyone loses their minds '
p2987
sg14
Vjoker
p2988
sg16
(lp2989
g2978
ag2979
ag2980
ag2981
ag2982
ag2983
ag2984
ag2985
aS'Miley'
p2990
aS'Cyrus'
p2991
aS'starts'
p2992
aS'twerking'
p2993
aS'and'
p2994
aS'everyone'
p2995
aS'loses'
p2996
aS'their'
p2997
aS'minds'
p2998
asg22
(lp2999
g2990
ag2991
ag2992
ag2993
ag2994
ag2995
ag2996
ag2997
ag2998
asba(iMeme
Meme
p3000
(dp3001
g3
(lp3002
S'Keep'
p3003
aS'an'
p3004
aS'old'
p3005
aS'and'
p3006
aS'broken'
p3007
aS'system'
p3008
aS'and'
p3009
aS'nobody'
p3010
aS'cares'
p3011
asg10
S'Keep an old and broken system and nobody cares '
p3012
sg12
S' introduce a new system a piece at a time and everybody loses their minds '
p3013
sg14
Vjoker
p3014
sg16
(lp3015
g3003
ag3004
ag3005
ag3006
ag3007
ag3008
ag3009
ag3010
ag3011
aS'introduce'
p3016
ag8
aS'new'
p3017
aS'system'
p3018
ag8
aS'piece'
p3019
aS'at'
p3020
ag8
aS'time'
p3021
aS'and'
p3022
aS'everybody'
p3023
aS'loses'
p3024
aS'their'
p3025
aS'minds'
p3026
asg22
(lp3027
g3016
ag8
ag3017
ag3018
ag8
ag3019
ag3020
ag8
ag3021
ag3022
ag3023
ag3024
ag3025
ag3026
asba(iMeme
Meme
p3028
(dp3029
g3
(lp3030
S'Hundreds'
p3031
aS'of'
p3032
aS'Bison'
p3033
aS'Updates'
p3034
aS'for'
p3035
aS'the'
p3036
aS'next'
p3037
ag1569
aS'months'
p3038
asg10
S'Hundreds of Bison Updates for the next 3 months '
p3039
sg12
S' Change profile pic to K'
p3040
sg14
Vjoker
p3041
sg16
(lp3042
g3031
ag3032
ag3033
ag3034
ag3035
ag3036
ag3037
ag1569
ag3038
aS'Change'
p3043
aS'profile'
p3044
aS'pic'
p3045
aS'to'
p3046
aS'K'
p3047
asg22
(lp3048
g3043
ag3044
ag3045
ag3046
ag3047
asba(iMeme
Meme
p3049
(dp3050
g3
(lp3051
S'Upload'
p3052
ag8
aS'funny'
p3053
aS'meme'
p3054
aS'on'
p3055
aS'9gag'
p3056
aS'and'
p3057
aS'no'
p3058
aS'one'
p3059
aS'bats'
p3060
aS'an'
p3061
aS'eye'
p3062
asg10
S'Upload a funny meme on 9gag and no one bats an eye '
p3063
sg12
S' upload a hot chick with a boob this long and everyone loses their minds '
p3064
sg14
Vjoker
p3065
sg16
(lp3066
g3052
ag8
ag3053
ag3054
ag3055
ag3056
ag3057
ag3058
ag3059
ag3060
ag3061
ag3062
aS'upload'
p3067
ag8
aS'hot'
p3068
aS'chick'
p3069
aS'with'
p3070
ag8
aS'boob'
p3071
aS'this'
p3072
aS'long'
p3073
aS'and'
p3074
aS'everyone'
p3075
aS'loses'
p3076
aS'their'
p3077
aS'minds'
p3078
asg22
(lp3079
g3067
ag8
ag3068
ag3069
ag3070
ag8
ag3071
ag3072
ag3073
ag3074
ag3075
ag3076
ag3077
ag3078
asba(iMeme
Meme
p3080
(dp3081
g3
(lp3082
S'If'
p3083
aS'Tomorrow'
p3084
aS'Nicki'
p3085
aS'Minaj'
p3086
aS'gives'
p3087
aS'sombody'
p3088
ag8
aS'Lap'
p3089
aS'Dance'
p3090
aS'Nobody'
p3091
aS'Panics'
p3092
asg10
S'If Tomorrow Nicki Minaj gives sombody a Lap Dance Nobody Panics '
p3093
sg12
S" But if Miley Cyrus gives one little ol' grind, then everyone loses their minds "
p3094
sg14
Vjoker
p3095
sg16
(lp3096
g3083
ag3084
ag3085
ag3086
ag3087
ag3088
ag8
ag3089
ag3090
ag3091
ag3092
aS'But'
p3097
aS'if'
p3098
aS'Miley'
p3099
aS'Cyrus'
p3100
aS'gives'
p3101
aS'one'
p3102
aS'little'
p3103
aS'ol'
p3104
ag474
aS'grind'
p3105
ag214
aS'then'
p3106
aS'everyone'
p3107
aS'loses'
p3108
aS'their'
p3109
aS'minds'
p3110
asg22
(lp3111
g3097
ag3098
ag3099
ag3100
ag3101
ag3102
ag3103
ag3104
ag474
ag3105
ag214
ag3106
ag3107
ag3108
ag3109
ag3110
asba(iMeme
Meme
p3112
(dp3113
g3
(lp3114
S'your'
p3115
aS'kids'
p3116
aS'are'
p3117
aS'in'
p3118
aS'thier'
p3119
aS'20s'
p3120
asg10
S'your kids are in thier 20s '
p3121
sg12
S' you aint the "baby" mama no more... AND THEY SAY IM CRAZY '
p3122
sg14
Vjoker
p3123
sg16
(lp3124
g3115
ag3116
ag3117
ag3118
ag3119
ag3120
aS'you'
p3125
aS'aint'
p3126
aS'the'
p3127
aS'``'
p3128
aS'baby'
p3129
aS"''"
p3130
aS'mama'
p3131
aS'no'
p3132
aS'more'
p3133
aS'...'
p3134
aS'AND'
p3135
aS'THEY'
p3136
aS'SAY'
p3137
aS'IM'
p3138
aS'CRAZY'
p3139
asg22
(lp3140
g3125
ag3126
ag3127
ag3128
ag3129
ag3130
ag3131
ag3132
ag3133
ag3134
ag3135
ag3136
ag3137
ag3138
ag3139
asba(iMeme
Meme
p3141
(dp3142
g3
(lp3143
S'People'
p3144
aS'watch'
p3145
aS'TV'
p3146
aS'for'
p3147
aS'5'
p3148
aS'hours'
p3149
aS'and'
p3150
aS'nobody'
p3151
aS'blinks'
p3152
aS'an'
p3153
aS'eye'
p3154
asg10
S'People watch TV for 5 hours and nobody blinks an eye '
p3155
sg12
S' We went on PC for 30 min and everybody lose their minds. '
p3156
sg14
Vjoker
p3157
sg16
(lp3158
g3144
ag3145
ag3146
ag3147
ag3148
ag3149
ag3150
ag3151
ag3152
ag3153
ag3154
aS'We'
p3159
aS'went'
p3160
aS'on'
p3161
aS'PC'
p3162
aS'for'
p3163
aS'30'
p3164
aS'min'
p3165
aS'and'
p3166
aS'everybody'
p3167
aS'lose'
p3168
aS'their'
p3169
aS'minds'
p3170
ag226
asg22
(lp3171
g3159
ag3160
ag3161
ag3162
ag3163
ag3164
ag3165
ag3166
ag3167
ag3168
ag3169
ag3170
ag226
asba(iMeme
Meme
p3172
(dp3173
g3
(lp3174
S'People'
p3175
aS'view'
p3176
aS'pokemon'
p3177
aS'R34'
p3178
aS'And'
p3179
aS'no'
p3180
aS'one'
p3181
aS'bats'
p3182
aS'an'
p3183
aS'eye'
p3184
ag226
asg10
S'People view pokemon R34 And no one bats an eye. '
p3185
sg12
S' People view MLP R34 And everyone lose their minds. '
p3186
sg14
Vjoker
p3187
sg16
(lp3188
g3175
ag3176
ag3177
ag3178
ag3179
ag3180
ag3181
ag3182
ag3183
ag3184
ag226
aS'People'
p3189
aS'view'
p3190
aS'MLP'
p3191
aS'R34'
p3192
aS'And'
p3193
aS'everyone'
p3194
aS'lose'
p3195
aS'their'
p3196
aS'minds'
p3197
ag226
asg22
(lp3198
g3189
ag3190
ag3191
ag3192
ag3193
ag3194
ag3195
ag3196
ag3197
ag226
asba(iMeme
Meme
p3199
(dp3200
g3
(lp3201
S'Thousands'
p3202
aS'lose'
p3203
aS'their'
p3204
aS'lives'
p3205
aS'due'
p3206
aS'to'
p3207
aS'chemical'
p3208
aS'attacks'
p3209
aS'in'
p3210
aS'Syria'
p3211
aS'and'
p3212
aS'no'
p3213
aS'one'
p3214
aS'bats'
p3215
aS'an'
p3216
aS'eye'
p3217
ag226
asg10
S'Thousands lose their lives due to chemical attacks in Syria and no one bats an eye. '
p3218
sg12
S' Miley Cyrus dances provocatively on the VMA awards and Everyone Loses Their Minds '
p3219
sg14
Vjoker
p3220
sg16
(lp3221
g3202
ag3203
ag3204
ag3205
ag3206
ag3207
ag3208
ag3209
ag3210
ag3211
ag3212
ag3213
ag3214
ag3215
ag3216
ag3217
ag226
aS'Miley'
p3222
aS'Cyrus'
p3223
aS'dances'
p3224
aS'provocatively'
p3225
aS'on'
p3226
aS'the'
p3227
aS'VMA'
p3228
aS'awards'
p3229
aS'and'
p3230
aS'Everyone'
p3231
aS'Loses'
p3232
aS'Their'
p3233
aS'Minds'
p3234
asg22
(lp3235
g3222
ag3223
ag3224
ag3225
ag3226
ag3227
ag3228
ag3229
ag3230
ag3231
ag3232
ag3233
ag3234
asba(iMeme
Meme
p3236
(dp3237
g3
(lp3238
S'Nicki'
p3239
aS'Minaj'
p3240
aS'and'
p3241
aS'Rihanna'
p3242
aS'shake'
p3243
aS'their'
p3244
aS'ass'
p3245
aS'and'
p3246
aS'stick'
p3247
aS'their'
p3248
aS'tongue'
p3249
aS'out'
p3250
ag214
aS'and'
p3251
aS'no'
p3252
aS'one'
p3253
aS'bats'
p3254
aS'an'
p3255
aS'eye'
p3256
asg10
S'Nicki Minaj and Rihanna shake their ass and stick their tongue out, and no one bats an eye  '
p3257
sg12
S' Miley Cyrus does it, and everyone looses their mind '
p3258
sg14
Vjoker
p3259
sg16
(lp3260
g3239
ag3240
ag3241
ag3242
ag3243
ag3244
ag3245
ag3246
ag3247
ag3248
ag3249
ag3250
ag214
ag3251
ag3252
ag3253
ag3254
ag3255
ag3256
aS'Miley'
p3261
aS'Cyrus'
p3262
aS'does'
p3263
aS'it'
p3264
ag214
aS'and'
p3265
aS'everyone'
p3266
aS'looses'
p3267
aS'their'
p3268
aS'mind'
p3269
asg22
(lp3270
g3261
ag3262
ag3263
ag3264
ag214
ag3265
ag3266
ag3267
ag3268
ag3269
asba(iMeme
Meme
p3271
(dp3272
g3
(lp3273
S'Do'
p3274
aS"n't"
p3275
aS'like'
p3276
aS'the'
p3277
aS'idea'
p3278
aS'of'
p3279
aS'Ben'
p3280
aS'Affleck'
p3281
aS'as'
p3282
aS'Batman'
p3283
ag2234
asg10
S"Don't like the idea of Ben Affleck as Batman? "
p3284
sg12
S" Don't watch the fucking movie! "
p3285
sg14
Vjoker
p3286
sg16
(lp3287
g3274
ag3275
ag3276
ag3277
ag3278
ag3279
ag3280
ag3281
ag3282
ag3283
ag2234
aS'Do'
p3288
aS"n't"
p3289
aS'watch'
p3290
aS'the'
p3291
aS'fucking'
p3292
aS'movie'
p3293
ag314
asg22
(lp3294
g3288
ag3289
ag3290
ag3291
ag3292
ag3293
ag314
asba(iMeme
Meme
p3295
(dp3296
g3
(lp3297
S'People'
p3298
aS'do'
p3299
aS"n't"
p3300
aS'me'
p3301
aS'ask'
p3302
aS'questions'
p3303
asg10
S"People don't me ask questions "
p3304
sg12
S' Then everyone loses their minds  '
p3305
sg14
Vjoker
p3306
sg16
(lp3307
g3298
ag3299
ag3300
ag3301
ag3302
ag3303
aS'Then'
p3308
aS'everyone'
p3309
aS'loses'
p3310
aS'their'
p3311
aS'minds'
p3312
asg22
(lp3313
g3308
ag3309
ag3310
ag3311
ag3312
asba(iMeme
Meme
p3314
(dp3315
g3
(lp3316
S'Start'
p3317
aS'the'
p3318
aS'class'
p3319
aS'and'
p3320
aS'noboby'
p3321
aS'bats'
p3322
aS'an'
p3323
aS'eye'
p3324
asg10
S'Start the class and noboby bats an eye '
p3325
sg12
S' Keep the class 5 mintues after its supposed to be over and everyone loses their minds '
p3326
sg14
Vjoker
p3327
sg16
(lp3328
g3317
ag3318
ag3319
ag3320
ag3321
ag3322
ag3323
ag3324
aS'Keep'
p3329
aS'the'
p3330
aS'class'
p3331
ag3148
aS'mintues'
p3332
aS'after'
p3333
aS'its'
p3334
aS'supposed'
p3335
aS'to'
p3336
aS'be'
p3337
aS'over'
p3338
aS'and'
p3339
aS'everyone'
p3340
aS'loses'
p3341
aS'their'
p3342
aS'minds'
p3343
asg22
(lp3344
g3329
ag3330
ag3331
ag3148
ag3332
ag3333
ag3334
ag3335
ag3336
ag3337
ag3338
ag3339
ag3340
ag3341
ag3342
ag3343
asba(iMeme
Meme
p3345
(dp3346
g3
(lp3347
S'Start'
p3348
aS'the'
p3349
aS'class'
p3350
aS'and'
p3351
aS'noboby'
p3352
aS'bats'
p3353
aS'an'
p3354
aS'eye'
p3355
asg10
S'Start the class and noboby bats an eye '
p3356
sg12
S' Keep the class 5 mintues after its supposed to be over and everyone loses their minds '
p3357
sg14
Vjoker
p3358
sg16
(lp3359
g3348
ag3349
ag3350
ag3351
ag3352
ag3353
ag3354
ag3355
aS'Keep'
p3360
aS'the'
p3361
aS'class'
p3362
ag3148
aS'mintues'
p3363
aS'after'
p3364
aS'its'
p3365
aS'supposed'
p3366
aS'to'
p3367
aS'be'
p3368
aS'over'
p3369
aS'and'
p3370
aS'everyone'
p3371
aS'loses'
p3372
aS'their'
p3373
aS'minds'
p3374
asg22
(lp3375
g3360
ag3361
ag3362
ag3148
ag3363
ag3364
ag3365
ag3366
ag3367
ag3368
ag3369
ag3370
ag3371
ag3372
ag3373
ag3374
asba(iMeme
Meme
p3376
(dp3377
g3
(lp3378
S'use'
p3379
aS'this'
p3380
aS'meme'
p3381
aS'saying'
p3382
aS'``'
p3383
aS'nobody'
p3384
aS'bats'
p3385
aS'an'
p3386
aS'eye'
p3387
aS"''"
p3388
ag214
aS'nobody'
p3389
aS'bats'
p3390
aS'an'
p3391
aS'eye'
p3392
asg10
S'use this meme saying "nobody bats an eye", nobody bats an eye '
p3393
sg12
S' tell someone that this scene says "nobody panics" and everyone loses their minds '
p3394
sg14
Vjoker
p3395
sg16
(lp3396
g3379
ag3380
ag3381
ag3382
ag3383
ag3384
ag3385
ag3386
ag3387
ag3388
ag214
ag3389
ag3390
ag3391
ag3392
aS'tell'
p3397
aS'someone'
p3398
aS'that'
p3399
aS'this'
p3400
aS'scene'
p3401
aS'says'
p3402
aS'``'
p3403
aS'nobody'
p3404
aS'panics'
p3405
aS"''"
p3406
aS'and'
p3407
aS'everyone'
p3408
aS'loses'
p3409
aS'their'
p3410
aS'minds'
p3411
asg22
(lp3412
g3397
ag3398
ag3399
ag3400
ag3401
ag3402
ag3403
ag3404
ag3405
ag3406
ag3407
ag3408
ag3409
ag3410
ag3411
asba(iMeme
Meme
p3413
(dp3414
g3
(lp3415
S'Kid'
p3416
aS'throws'
p3417
aS'tantrum'
p3418
aS'at'
p3419
aS'the'
p3420
aS'zoo'
p3421
aS'nobody'
p3422
aS'bats'
p3423
aS'an'
p3424
aS'eye'
p3425
asg10
S'Kid throws tantrum at the zoo nobody bats an eye '
p3426
sg12
S' Handicap sister yells out in excitement everyone looses their minds and stares at her in disgust  '
p3427
sg14
Vjoker
p3428
sg16
(lp3429
g3416
ag3417
ag3418
ag3419
ag3420
ag3421
ag3422
ag3423
ag3424
ag3425
aS'Handicap'
p3430
aS'sister'
p3431
aS'yells'
p3432
aS'out'
p3433
aS'in'
p3434
aS'excitement'
p3435
aS'everyone'
p3436
aS'looses'
p3437
aS'their'
p3438
aS'minds'
p3439
aS'and'
p3440
aS'stares'
p3441
aS'at'
p3442
aS'her'
p3443
aS'in'
p3444
aS'disgust'
p3445
asg22
(lp3446
g3430
ag3431
ag3432
ag3433
ag3434
ag3435
ag3436
ag3437
ag3438
ag3439
ag3440
ag3441
ag3442
ag3443
ag3444
ag3445
asba(iMeme
Meme
p3447
(dp3448
g3
(lp3449
S'Why'
p3450
aS'does'
p3451
ag8
aS'gamer'
p3452
aS'get'
p3453
aS'so'
p3454
aS'pissy'
p3455
asg10
S'Why does a gamer get so pissy '
p3456
sg12
S' When I use the term "silencer" '
p3457
sg14
Vjoker
p3458
sg16
(lp3459
g3450
ag3451
ag8
ag3452
ag3453
ag3454
ag3455
aS'When'
p3460
ag277
aS'use'
p3461
aS'the'
p3462
aS'term'
p3463
aS'``'
p3464
aS'silencer'
p3465
aS"''"
p3466
asg22
(lp3467
g3460
ag277
ag3461
ag3462
ag3463
ag3464
ag3465
ag3466
asba(iMeme
Meme
p3468
(dp3469
g3
(lp3470
S'Make'
p3471
ag8
aS'decent'
p3472
aS'post'
p3473
aS'and'
p3474
aS'nobody'
p3475
aS'upvotes'
p3476
asg10
S'Make a decent post and nobody upvotes '
p3477
sg12
S" Mention it's your cakeday and they upvote like crazy "
p3478
sg14
Vjoker
p3479
sg16
(lp3480
g3471
ag8
ag3472
ag3473
ag3474
ag3475
ag3476
aS'Mention'
p3481
aS'it'
p3482
aS"'s"
p3483
aS'your'
p3484
aS'cakeday'
p3485
aS'and'
p3486
aS'they'
p3487
aS'upvote'
p3488
aS'like'
p3489
aS'crazy'
p3490
asg22
(lp3491
g3481
ag3482
ag3483
ag3484
ag3485
ag3486
ag3487
ag3488
ag3489
ag3490
asba(iMeme
Meme
p3492
(dp3493
g3
(lp3494
S'Announce'
p3495
ag8
aS'new'
p3496
aS'Batman'
p3497
aS'movie'
p3498
aS'and'
p3499
aS'no'
p3500
aS'one'
p3501
aS'bats'
p3502
aS'an'
p3503
aS'eye'
p3504
asg10
S'Announce a new Batman movie and no one bats an eye '
p3505
sg12
S' Announce Ben Affleck as the new Batman and everyone loses their mind '
p3506
sg14
Vjoker
p3507
sg16
(lp3508
g3495
ag8
ag3496
ag3497
ag3498
ag3499
ag3500
ag3501
ag3502
ag3503
ag3504
aS'Announce'
p3509
aS'Ben'
p3510
aS'Affleck'
p3511
aS'as'
p3512
aS'the'
p3513
aS'new'
p3514
aS'Batman'
p3515
aS'and'
p3516
aS'everyone'
p3517
aS'loses'
p3518
aS'their'
p3519
aS'mind'
p3520
asg22
(lp3521
g3509
ag3510
ag3511
ag3512
ag3513
ag3514
ag3515
ag3516
ag3517
ag3518
ag3519
ag3520
asba(iMeme
Meme
p3522
(dp3523
g3
(lp3524
S'Mention'
p3525
aS'Clooney'
p3526
aS'as'
p3527
aS'Batman'
p3528
ag226
aS'he'
p3529
aS'is'
p3530
aS'the'
p3531
aS'worst'
p3532
aS'batman'
p3533
aS'ever'
p3534
ag314
asg10
S'Mention Clooney as Batman. he is the worst batman ever! '
p3535
sg12
S' Announce Affleck as Batman everyone loses their freaking minds!! '
p3536
sg14
Vjoker
p3537
sg16
(lp3538
g3525
ag3526
ag3527
ag3528
ag226
ag3529
ag3530
ag3531
ag3532
ag3533
ag3534
ag314
aS'Announce'
p3539
aS'Affleck'
p3540
aS'as'
p3541
aS'Batman'
p3542
aS'everyone'
p3543
aS'loses'
p3544
aS'their'
p3545
aS'freaking'
p3546
aS'minds'
p3547
ag314
ag314
asg22
(lp3548
g3539
ag3540
ag3541
ag3542
ag3543
ag3544
ag3545
ag3546
ag3547
ag314
ag314
asba(iMeme
Meme
p3549
(dp3550
g3
(lp3551
S'Make'
p3552
ag8
aS'poor'
p3553
aS'Superman'
p3554
aS'movie'
p3555
aS'and'
p3556
aS'people'
p3557
aS'get'
p3558
ag8
aS'little'
p3559
aS'upset'
p3560
asg10
S'Make a poor Superman movie and people get a little upset '
p3561
sg12
S' But cast Ben Affleck as Batman and everyone loses their minds! '
p3562
sg14
Vjoker
p3563
sg16
(lp3564
g3552
ag8
ag3553
ag3554
ag3555
ag3556
ag3557
ag3558
ag8
ag3559
ag3560
aS'But'
p3565
aS'cast'
p3566
aS'Ben'
p3567
aS'Affleck'
p3568
aS'as'
p3569
aS'Batman'
p3570
aS'and'
p3571
aS'everyone'
p3572
aS'loses'
p3573
aS'their'
p3574
aS'minds'
p3575
ag314
asg22
(lp3576
g3565
ag3566
ag3567
ag3568
ag3569
ag3570
ag3571
ag3572
ag3573
ag3574
ag3575
ag314
asba(iMeme
Meme
p3577
(dp3578
g3
(lp3579
S'Make'
p3580
ag8
aS'new'
p3581
aS'sandwich'
p3582
aS'and'
p3583
aS'nobody'
p3584
aS'bats'
p3585
aS'an'
p3586
aS'eye'
p3587
asg10
S'Make a new sandwich and nobody bats an eye '
p3588
sg12
S' Rerelease the McRib and everyone loses their minds! '
p3589
sg14
Vjoker
p3590
sg16
(lp3591
g3580
ag8
ag3581
ag3582
ag3583
ag3584
ag3585
ag3586
ag3587
aS'Rerelease'
p3592
aS'the'
p3593
aS'McRib'
p3594
aS'and'
p3595
aS'everyone'
p3596
aS'loses'
p3597
aS'their'
p3598
aS'minds'
p3599
ag314
asg22
(lp3600
g3592
ag3593
ag3594
ag3595
ag3596
ag3597
ag3598
ag3599
ag314
asba(iMeme
Meme
p3601
(dp3602
g3
(lp3603
S'Incorrectly'
p3604
aS'quote'
p3605
ag8
aS'movie'
p3606
aS'but'
p3607
aS'make'
p3608
ag8
aS'funny'
p3609
aS'meme'
p3610
ag214
aS'and'
p3611
aS'*nobody'
p3612
aS'panics*'
p3613
asg10
S'Incorrectly quote a movie but make a funny meme, and *nobody panics* '
p3614
sg12
S' Make the internet believe the line is "Nobody bats an eye", and every ocd person loses their minds '
p3615
sg14
Vjoker
p3616
sg16
(lp3617
g3604
ag3605
ag8
ag3606
ag3607
ag3608
ag8
ag3609
ag3610
ag214
ag3611
ag3612
ag3613
aS'Make'
p3618
aS'the'
p3619
aS'internet'
p3620
aS'believe'
p3621
aS'the'
p3622
aS'line'
p3623
aS'is'
p3624
aS'``'
p3625
aS'Nobody'
p3626
aS'bats'
p3627
aS'an'
p3628
aS'eye'
p3629
aS"''"
p3630
ag214
aS'and'
p3631
aS'every'
p3632
aS'ocd'
p3633
aS'person'
p3634
aS'loses'
p3635
aS'their'
p3636
aS'minds'
p3637
asg22
(lp3638
g3618
ag3619
ag3620
ag3621
ag3622
ag3623
ag3624
ag3625
ag3626
ag3627
ag3628
ag3629
ag3630
ag214
ag3631
ag3632
ag3633
ag3634
ag3635
ag3636
ag3637
asba(iMeme
Meme
p3639
(dp3640
g3
(lp3641
S'Love'
p3642
aS'makes'
p3643
aS'people'
p3644
aS'do'
p3645
aS'psychotic'
p3646
aS'things'
p3647
asg10
S'Love makes people do psychotic things '
p3648
sg12
S" It doesn't make one a psycho "
p3649
sg14
Vjoker
p3650
sg16
(lp3651
g3642
ag3643
ag3644
ag3645
ag3646
ag3647
aS'It'
p3652
aS'does'
p3653
aS"n't"
p3654
aS'make'
p3655
aS'one'
p3656
ag8
aS'psycho'
p3657
asg22
(lp3658
g3652
ag3653
ag3654
ag3655
ag3656
ag8
ag3657
asba(iMeme
Meme
p3659
(dp3660
g3
(lp3661
S'Put'
p3662
aS'cream'
p3663
aS'in'
p3664
aS'hot'
p3665
aS'coffee'
p3666
ag214
aS'iced'
p3667
aS'coffee'
p3668
aS'or'
p3669
aS'hot'
p3670
aS'tea'
p3671
aS'and'
p3672
aS'no'
p3673
aS'one'
p3674
aS'bats'
p3675
aS'an'
p3676
aS'eye'
p3677
ag226
asg10
S'Put cream in hot coffee, iced coffee or hot tea and no one bats an eye. '
p3678
sg12
S' Put cream in iced tea and everyone loses their minds. '
p3679
sg14
Vjoker
p3680
sg16
(lp3681
g3662
ag3663
ag3664
ag3665
ag3666
ag214
ag3667
ag3668
ag3669
ag3670
ag3671
ag3672
ag3673
ag3674
ag3675
ag3676
ag3677
ag226
aS'Put'
p3682
aS'cream'
p3683
aS'in'
p3684
aS'iced'
p3685
aS'tea'
p3686
aS'and'
p3687
aS'everyone'
p3688
aS'loses'
p3689
aS'their'
p3690
aS'minds'
p3691
ag226
asg22
(lp3692
g3682
ag3683
ag3684
ag3685
ag3686
ag3687
ag3688
ag3689
ag3690
ag3691
ag226
asba(iMeme
Meme
p3693
(dp3694
g3
(lp3695
S'Feed'
p3696
aS'and'
p3697
aS'raise'
p3698
aS'livestock'
p3699
aS'just'
p3700
aS'to'
p3701
aS'be'
p3702
aS'slaughtered'
p3703
aS'and'
p3704
aS'nobody'
p3705
aS'bats'
p3706
aS'an'
p3707
aS'eye'
p3708
asg10
S'Feed and raise livestock just to be slaughtered and nobody bats an eye '
p3709
sg12
S' start to have sex with it and everybody loses their minds '
p3710
sg14
Vjoker
p3711
sg16
(lp3712
g3696
ag3697
ag3698
ag3699
ag3700
ag3701
ag3702
ag3703
ag3704
ag3705
ag3706
ag3707
ag3708
aS'start'
p3713
aS'to'
p3714
aS'have'
p3715
aS'sex'
p3716
aS'with'
p3717
aS'it'
p3718
aS'and'
p3719
aS'everybody'
p3720
aS'loses'
p3721
aS'their'
p3722
aS'minds'
p3723
asg22
(lp3724
g3713
ag3714
ag3715
ag3716
ag3717
ag3718
ag3719
ag3720
ag3721
ag3722
ag3723
asba(iMeme
Meme
p3725
(dp3726
g3
(lp3727
S'Moms'
p3728
aS'in'
p3729
aS'the'
p3730
aS'grocery'
p3731
aS'store'
p3732
aS'be'
p3733
aS'like'
p3734
asg10
S'Moms in the grocery store be like '
p3735
sg12
S' Where are you? Stop running! & If you touch one more thing...!!!! '
p3736
sg14
Vjoker
p3737
sg16
(lp3738
g3728
ag3729
ag3730
ag3731
ag3732
ag3733
ag3734
aS'Where'
p3739
aS'are'
p3740
aS'you'
p3741
ag2234
aS'Stop'
p3742
aS'running'
p3743
ag314
aS'&'
p3744
aS'If'
p3745
aS'you'
p3746
aS'touch'
p3747
aS'one'
p3748
aS'more'
p3749
aS'thing'
p3750
aS'...'
p3751
ag314
ag314
ag314
ag314
asg22
(lp3752
g3739
ag3740
ag3741
ag2234
ag3742
ag3743
ag314
ag3744
ag3745
ag3746
ag3747
ag3748
ag3749
ag3750
ag3751
ag314
ag314
ag314
ag314
asba(iMeme
Meme
p3753
(dp3754
g3
(lp3755
S'Ask'
p3756
aS'Reddit'
p3757
aS'about'
p3758
aS'career'
p3759
aS'paths'
p3760
aS'not'
p3761
aS'to'
p3762
aS'pursue'
p3763
asg10
S'Ask Reddit about career paths not to pursue '
p3764
sg12
S' And college students are losing their minds '
p3765
sg14
Vjoker
p3766
sg16
(lp3767
g3756
ag3757
ag3758
ag3759
ag3760
ag3761
ag3762
ag3763
aS'And'
p3768
aS'college'
p3769
aS'students'
p3770
aS'are'
p3771
aS'losing'
p3772
aS'their'
p3773
aS'minds'
p3774
asg22
(lp3775
g3768
ag3769
ag3770
ag3771
ag3772
ag3773
ag3774
asba(iMeme
Meme
p3776
(dp3777
g3
(lp3778
S'CMS'
p3779
aS'gets'
p3780
aS'held'
p3781
aS'up'
p3782
aS'for'
p3783
aS'two'
p3784
aS'weeks'
p3785
aS'and'
p3786
aS'no'
p3787
aS'one'
p3788
aS'bats'
p3789
aS'an'
p3790
aS'eye'
p3791
asg10
S'CMS gets held up for two weeks and no one bats an eye '
p3792
sg12
S' Designer misspells a word in a YouTube post and everybody loses their minds '
p3793
sg14
Vjoker
p3794
sg16
(lp3795
g3779
ag3780
ag3781
ag3782
ag3783
ag3784
ag3785
ag3786
ag3787
ag3788
ag3789
ag3790
ag3791
aS'Designer'
p3796
aS'misspells'
p3797
ag8
aS'word'
p3798
aS'in'
p3799
ag8
aS'YouTube'
p3800
aS'post'
p3801
aS'and'
p3802
aS'everybody'
p3803
aS'loses'
p3804
aS'their'
p3805
aS'minds'
p3806
asg22
(lp3807
g3796
ag3797
ag8
ag3798
ag3799
ag8
ag3800
ag3801
ag3802
ag3803
ag3804
ag3805
ag3806
asba(iMeme
Meme
p3808
(dp3809
g3
(lp3810
S'Joker'
p3811
ag276
aS'Bitch'
p3812
aS'you'
p3813
aS'wan'
p3814
aS'na'
p3815
aS'work'
p3816
aS'with'
p3817
aS'me'
p3818
aS'or'
p3819
aS'not'
p3820
asg10
S'Joker: Bitch you wanna work with me or not '
p3821
sg12
S' Guy: Get a better face then we will talk '
p3822
sg14
Vjoker
p3823
sg16
(lp3824
g3811
ag276
ag3812
ag3813
ag3814
ag3815
ag3816
ag3817
ag3818
ag3819
ag3820
aS'Guy'
p3825
ag276
aS'Get'
p3826
ag8
aS'better'
p3827
aS'face'
p3828
aS'then'
p3829
aS'we'
p3830
aS'will'
p3831
aS'talk'
p3832
asg22
(lp3833
g3825
ag276
ag3826
ag8
ag3827
ag3828
ag3829
ag3830
ag3831
ag3832
asba(iMeme
Meme
p3834
(dp3835
g3
(lp3836
S'raise'
p3837
aS'mandatory'
p3838
aS'fees'
p3839
aS'by'
p3840
aS'$'
p3841
aS'50'
p3842
aS'and'
p3843
aS'no'
p3844
aS'one'
p3845
aS'bats'
p3846
aS'an'
p3847
aS'eye'
p3848
asg10
S'raise mandatory fees by $50 and no one bats an eye '
p3849
sg12
S' raise tuition by $250 and everybody loses their mind '
p3850
sg14
Vjoker
p3851
sg16
(lp3852
g3837
ag3838
ag3839
ag3840
ag3841
ag3842
ag3843
ag3844
ag3845
ag3846
ag3847
ag3848
aS'raise'
p3853
aS'tuition'
p3854
aS'by'
p3855
ag3841
aS'250'
p3856
aS'and'
p3857
aS'everybody'
p3858
aS'loses'
p3859
aS'their'
p3860
aS'mind'
p3861
asg22
(lp3862
g3853
ag3854
ag3855
ag3841
ag3856
ag3857
ag3858
ag3859
ag3860
ag3861
asba(iMeme
Meme
p3863
(dp3864
g3
(lp3865
S'CMS'
p3866
aS'gets'
p3867
aS'held'
p3868
aS'up'
p3869
aS'for'
p3870
aS'two'
p3871
aS'weeks'
p3872
aS'and'
p3873
aS'no'
p3874
aS'one'
p3875
aS'bats'
p3876
aS'and'
p3877
aS'eye'
p3878
asg10
S'CMS gets held up for two weeks and no one bats and eye '
p3879
sg12
S' Designer misspells a word in a YouTube post and everybody loses their minds '
p3880
sg14
Vjoker
p3881
sg16
(lp3882
g3866
ag3867
ag3868
ag3869
ag3870
ag3871
ag3872
ag3873
ag3874
ag3875
ag3876
ag3877
ag3878
aS'Designer'
p3883
aS'misspells'
p3884
ag8
aS'word'
p3885
aS'in'
p3886
ag8
aS'YouTube'
p3887
aS'post'
p3888
aS'and'
p3889
aS'everybody'
p3890
aS'loses'
p3891
aS'their'
p3892
aS'minds'
p3893
asg22
(lp3894
g3883
ag3884
ag8
ag3885
ag3886
ag8
ag3887
ag3888
ag3889
ag3890
ag3891
ag3892
ag3893
asba(iMeme
Meme
p3895
(dp3896
g3
(lp3897
S'have'
p3898
aS'anal'
p3899
aS'sex'
p3900
aS'and'
p3901
aS'nobody'
p3902
aS'bats'
p3903
aS'an'
p3904
aS'eye'
p3905
asg10
S'have anal sex and nobody bats an eye '
p3906
sg12
S' bang a girl on her period and everybody loses their minds '
p3907
sg14
Vjoker
p3908
sg16
(lp3909
g3898
ag3899
ag3900
ag3901
ag3902
ag3903
ag3904
ag3905
aS'bang'
p3910
ag8
aS'girl'
p3911
aS'on'
p3912
aS'her'
p3913
aS'period'
p3914
aS'and'
p3915
aS'everybody'
p3916
aS'loses'
p3917
aS'their'
p3918
aS'minds'
p3919
asg22
(lp3920
g3910
ag8
ag3911
ag3912
ag3913
ag3914
ag3915
ag3916
ag3917
ag3918
ag3919
asba(iMeme
Meme
p3921
(dp3922
g3
(lp3923
S'Screw'
p3924
aS'up'
p3925
aS'your'
p3926
aS'grammar'
p3927
aS'in'
p3928
aS'real'
p3929
aS'life'
p3930
aS'and'
p3931
aS'nobody'
p3932
aS'cares'
p3933
asg10
S'Screw up your grammar in real life and nobody cares '
p3934
sg12
S' Make one small mistake on social media and everyone loses their minds! '
p3935
sg14
Vjoker
p3936
sg16
(lp3937
g3924
ag3925
ag3926
ag3927
ag3928
ag3929
ag3930
ag3931
ag3932
ag3933
aS'Make'
p3938
aS'one'
p3939
aS'small'
p3940
aS'mistake'
p3941
aS'on'
p3942
aS'social'
p3943
aS'media'
p3944
aS'and'
p3945
aS'everyone'
p3946
aS'loses'
p3947
aS'their'
p3948
aS'minds'
p3949
ag314
asg22
(lp3950
g3938
ag3939
ag3940
ag3941
ag3942
ag3943
ag3944
ag3945
ag3946
ag3947
ag3948
ag3949
ag314
asba(iMeme
Meme
p3951
(dp3952
g3
(lp3953
S'Cibai'
p3954
aS'Tant'
p3955
asg10
S'Cibai Tant '
p3956
sg12
S'  can buy rm1250 phone cannot afford rm10 phone cover izzit? '
p3957
sg14
Vjoker
p3958
sg16
(lp3959
g3954
ag3955
aS'can'
p3960
aS'buy'
p3961
aS'rm1250'
p3962
aS'phone'
p3963
aS'can'
p3964
aS'not'
p3965
aS'afford'
p3966
aS'rm10'
p3967
aS'phone'
p3968
aS'cover'
p3969
aS'izzit'
p3970
ag2234
asg22
(lp3971
g3960
ag3961
ag3962
ag3963
ag3964
ag3965
ag3966
ag3967
ag3968
ag3969
ag3970
ag2234
asba(iMeme
Meme
p3972
(dp3973
g3
(lp3974
g470
aS'woman'
p3975
aS'dates'
p3976
ag8
aS'younger'
p3977
aS'man'
p3978
aS'and'
p3979
aS'no'
p3980
aS'one'
p3981
aS'bats'
p3982
aS'an'
p3983
aS'eye'
p3984
ag226
asg10
S'A woman dates a younger man and no one bats an eye. '
p3985
sg12
S' When a man dates a younger woman everyone loses their minds. '
p3986
sg14
Vjoker
p3987
sg16
(lp3988
g470
ag3975
ag3976
ag8
ag3977
ag3978
ag3979
ag3980
ag3981
ag3982
ag3983
ag3984
ag226
aS'When'
p3989
ag8
aS'man'
p3990
aS'dates'
p3991
ag8
aS'younger'
p3992
aS'woman'
p3993
aS'everyone'
p3994
aS'loses'
p3995
aS'their'
p3996
aS'minds'
p3997
ag226
asg22
(lp3998
g3989
ag8
ag3990
ag3991
ag8
ag3992
ag3993
ag3994
ag3995
ag3996
ag3997
ag226
asba(iMeme
Meme
p3999
(dp4000
g3
(lp4001
S'Maryland'
p4002
aS'drivers'
p4003
ag276
aS'The'
p4004
aS'Sun'
p4005
aS'is'
p4006
aS'out'
p4007
aS'and'
p4008
aS'no'
p4009
aS'one'
p4010
aS'bats'
p4011
aS'an'
p4012
aS'eye'
p4013
asg10
S'Maryland drivers: The Sun is out and no one bats an eye '
p4014
sg12
S' A couple of raindrops and everyone loses their minds '
p4015
sg14
Vjoker
p4016
sg16
(lp4017
g4002
ag4003
ag276
ag4004
ag4005
ag4006
ag4007
ag4008
ag4009
ag4010
ag4011
ag4012
ag4013
ag470
aS'couple'
p4018
aS'of'
p4019
aS'raindrops'
p4020
aS'and'
p4021
aS'everyone'
p4022
aS'loses'
p4023
aS'their'
p4024
aS'minds'
p4025
asg22
(lp4026
g470
ag4018
ag4019
ag4020
ag4021
ag4022
ag4023
ag4024
ag4025
asba(iMeme
Meme
p4027
(dp4028
g3
(lp4029
S'chem'
p4030
aS'is'
p4031
aS'due'
p4032
aS'in'
p4033
ag8
aS'few'
p4034
aS'weeks'
p4035
aS'and'
p4036
aS'no'
p4037
aS'one'
p4038
aS'bats'
p4039
aS'an'
p4040
aS'eye'
p4041
asg10
S'chem is due in a few weeks and no one bats an eye '
p4042
sg12
S' its the weekend before monday and everyone loses their minds '
p4043
sg14
Vjoker
p4044
sg16
(lp4045
g4030
ag4031
ag4032
ag4033
ag8
ag4034
ag4035
ag4036
ag4037
ag4038
ag4039
ag4040
ag4041
aS'its'
p4046
aS'the'
p4047
aS'weekend'
p4048
aS'before'
p4049
aS'monday'
p4050
aS'and'
p4051
aS'everyone'
p4052
aS'loses'
p4053
aS'their'
p4054
aS'minds'
p4055
asg22
(lp4056
g4046
ag4047
ag4048
ag4049
ag4050
ag4051
ag4052
ag4053
ag4054
ag4055
asba(iMeme
Meme
p4057
(dp4058
g3
(lp4059
S'Join'
p4060
aS'the'
p4061
aS'men'
p4062
aS"'s"
p4063
aS'basketball'
p4064
aS'team'
p4065
aS'and'
p4066
aS'no'
p4067
aS'one'
p4068
aS'bats'
p4069
aS'an'
p4070
aS'eye'
p4071
asg10
S"Join the men's basketball team and no one bats an eye "
p4072
sg12
S' join the dance sports competition and everyone loses their minds '
p4073
sg14
Vjoker
p4074
sg16
(lp4075
g4060
ag4061
ag4062
ag4063
ag4064
ag4065
ag4066
ag4067
ag4068
ag4069
ag4070
ag4071
aS'join'
p4076
aS'the'
p4077
aS'dance'
p4078
aS'sports'
p4079
aS'competition'
p4080
aS'and'
p4081
aS'everyone'
p4082
aS'loses'
p4083
aS'their'
p4084
aS'minds'
p4085
asg22
(lp4086
g4076
ag4077
ag4078
ag4079
ag4080
ag4081
ag4082
ag4083
ag4084
ag4085
asba(iMeme
Meme
p4087
(dp4088
g3
(lp4089
S'You'
p4090
aS'think'
p4091
aS'you'
p4092
aS'can'
p4093
aS'do'
p4094
aS'better'
p4095
ag2234
asg10
S'You think you can do better? '
p4096
sg12
S' okay den. go and fucking try. '
p4097
sg14
Vjoker
p4098
sg16
(lp4099
g4090
ag4091
ag4092
ag4093
ag4094
ag4095
ag2234
aS'okay'
p4100
aS'den'
p4101
ag226
aS'go'
p4102
aS'and'
p4103
aS'fucking'
p4104
aS'try'
p4105
ag226
asg22
(lp4106
g4100
ag4101
ag226
ag4102
ag4103
ag4104
ag4105
ag226
asba(iMeme
Meme
p4107
(dp4108
g3
(lp4109
sg10
S' '
p4110
sg12
S' is that my business? '
p4111
sg14
Vjoker
p4112
sg16
(lp4113
S'is'
p4114
aS'that'
p4115
aS'my'
p4116
aS'business'
p4117
ag2234
asg22
(lp4118
g4114
ag4115
ag4116
ag4117
ag2234
asba(iMeme
Meme
p4119
(dp4120
g3
(lp4121
S'You'
p4122
aS'challange'
p4123
aS'to'
p4124
aS'do'
p4125
aS'something'
p4126
asg10
S'You challange to do something '
p4127
sg12
S' and EVERYONE LOSES THEIR MIND '
p4128
sg14
Vjoker
p4129
sg16
(lp4130
g4122
ag4123
ag4124
ag4125
ag4126
aS'and'
p4131
aS'EVERYONE'
p4132
aS'LOSES'
p4133
aS'THEIR'
p4134
aS'MIND'
p4135
asg22
(lp4136
g4131
ag4132
ag4133
ag4134
ag4135
asba(iMeme
Meme
p4137
(dp4138
g3
(lp4139
S'Instructor'
p4140
aS"'s"
p4141
aS'phone'
p4142
aS'rings'
p4143
aS'all'
p4144
aS'day'
p4145
aS'noone'
p4146
aS'bats'
p4147
aS'an'
p4148
aS'eye'
p4149
asg10
S"Instructor's phone rings all day noone bats an eye "
p4150
sg12
S" Recruit's phone goes off once everyone loses their minds "
p4151
sg14
Vjoker
p4152
sg16
(lp4153
g4140
ag4141
ag4142
ag4143
ag4144
ag4145
ag4146
ag4147
ag4148
ag4149
aS'Recruit'
p4154
aS"'s"
p4155
aS'phone'
p4156
aS'goes'
p4157
aS'off'
p4158
aS'once'
p4159
aS'everyone'
p4160
aS'loses'
p4161
aS'their'
p4162
aS'minds'
p4163
asg22
(lp4164
g4154
ag4155
ag4156
ag4157
ag4158
ag4159
ag4160
ag4161
ag4162
ag4163
asba(iMeme
Meme
p4165
(dp4166
g3
(lp4167
S'Other'
p4168
aS'people'
p4169
aS'are'
p4170
aS'away'
p4171
aS'for'
p4172
aS'days'
p4173
aS'and'
p4174
aS'no'
p4175
aS'one'
p4176
aS'bats'
p4177
aS'an'
p4178
aS'eye'
p4179
asg10
S'Other people are away for days and no one bats an eye '
p4180
sg12
S' I am away for 2 lessons and everybody loses their minds! '
p4181
sg14
Vjoker
p4182
sg16
(lp4183
g4168
ag4169
ag4170
ag4171
ag4172
ag4173
ag4174
ag4175
ag4176
ag4177
ag4178
ag4179
ag277
aS'am'
p4184
aS'away'
p4185
aS'for'
p4186
ag1815
aS'lessons'
p4187
aS'and'
p4188
aS'everybody'
p4189
aS'loses'
p4190
aS'their'
p4191
aS'minds'
p4192
ag314
asg22
(lp4193
g277
ag4184
ag4185
ag4186
ag1815
ag4187
ag4188
ag4189
ag4190
ag4191
ag4192
ag314
asba(iMeme
Meme
p4194
(dp4195
g3
(lp4196
S'Say'
p4197
aS'you'
p4198
aS'have'
p4199
ag8
aS'fast'
p4200
aS'metabolism'
p4201
aS'and'
p4202
aS'nobody'
p4203
aS'panics'
p4204
asg10
S'Say you have a fast metabolism and nobody panics '
p4205
sg12
S' But say you have a slow metabolism and everybody loses their mind '
p4206
sg14
Vjoker
p4207
sg16
(lp4208
g4197
ag4198
ag4199
ag8
ag4200
ag4201
ag4202
ag4203
ag4204
aS'But'
p4209
aS'say'
p4210
aS'you'
p4211
aS'have'
p4212
ag8
aS'slow'
p4213
aS'metabolism'
p4214
aS'and'
p4215
aS'everybody'
p4216
aS'loses'
p4217
aS'their'
p4218
aS'mind'
p4219
asg22
(lp4220
g4209
ag4210
ag4211
ag4212
ag8
ag4213
ag4214
ag4215
ag4216
ag4217
ag4218
ag4219
asba(iMeme
Meme
p4221
(dp4222
g3
(lp4223
S'Over'
p4224
ag8
aS'hundred'
p4225
aS'people'
p4226
aS'die'
p4227
aS'from'
p4228
aS'Chemical'
p4229
aS'Attacks'
p4230
aS'in'
p4231
aS'Syria'
p4232
aS'and'
p4233
aS'nobody'
p4234
aS'panics'
p4235
ag226
asg10
S'Over a hundred people die from Chemical Attacks in Syria and nobody panics.        '
p4236
sg12
S' Miley Cyrus dances provocatively and Everyone Loses Their Minds        '
p4237
sg14
Vjoker
p4238
sg16
(lp4239
g4224
ag8
ag4225
ag4226
ag4227
ag4228
ag4229
ag4230
ag4231
ag4232
ag4233
ag4234
ag4235
ag226
aS'Miley'
p4240
aS'Cyrus'
p4241
aS'dances'
p4242
aS'provocatively'
p4243
aS'and'
p4244
aS'Everyone'
p4245
aS'Loses'
p4246
aS'Their'
p4247
aS'Minds'
p4248
asg22
(lp4249
g4240
ag4241
ag4242
ag4243
ag4244
ag4245
ag4246
ag4247
ag4248
asba(iMeme
Meme
p4250
(dp4251
g3
(lp4252
g470
aS'child'
p4253
aS'likes'
p4254
aS'grand'
p4255
aS'theft'
p4256
aS'auto'
p4257
aS'and'
p4258
aS'nobody'
p4259
aS'bats'
p4260
aS'an'
p4261
aS'eye'
p4262
asg10
S'A child likes grand theft auto and nobody bats an eye '
p4263
sg12
S' A grown man likes my little pony and everybody loses their mind '
p4264
sg14
Vjoker
p4265
sg16
(lp4266
g470
ag4253
ag4254
ag4255
ag4256
ag4257
ag4258
ag4259
ag4260
ag4261
ag4262
ag470
aS'grown'
p4267
aS'man'
p4268
aS'likes'
p4269
aS'my'
p4270
aS'little'
p4271
aS'pony'
p4272
aS'and'
p4273
aS'everybody'
p4274
aS'loses'
p4275
aS'their'
p4276
aS'mind'
p4277
asg22
(lp4278
g470
ag4267
ag4268
ag4269
ag4270
ag4271
ag4272
ag4273
ag4274
ag4275
ag4276
ag4277
asba(iMeme
Meme
p4279
(dp4280
g3
(lp4281
S'Like'
p4282
ag8
aS'girl'
p4283
aS'born'
p4284
aS'in'
p4285
aS'December'
p4286
aS'and'
p4287
aS'everything'
p4288
aS'is'
p4289
aS'fine'
p4290
ag226
asg10
S'Like a girl born in December and everything is fine. '
p4291
sg12
S' Like a girl born a month later and everyone loses their minds. '
p4292
sg14
Vjoker
p4293
sg16
(lp4294
g4282
ag8
ag4283
ag4284
ag4285
ag4286
ag4287
ag4288
ag4289
ag4290
ag226
aS'Like'
p4295
ag8
aS'girl'
p4296
aS'born'
p4297
ag8
aS'month'
p4298
aS'later'
p4299
aS'and'
p4300
aS'everyone'
p4301
aS'loses'
p4302
aS'their'
p4303
aS'minds'
p4304
ag226
asg22
(lp4305
g4295
ag8
ag4296
ag4297
ag8
ag4298
ag4299
ag4300
ag4301
ag4302
ag4303
ag4304
ag226
asba(iMeme
Meme
p4306
(dp4307
g3
(lp4308
S'Post'
p4309
aS'something'
p4310
aS'inspirational'
p4311
aS'on'
p4312
aS'Facebook'
p4313
aS'and'
p4314
aS'no'
p4315
aS'one'
p4316
aS'bats'
p4317
aS'an'
p4318
aS'eye'
p4319
asg10
S'Post something inspirational on Facebook and no one bats an eye '
p4320
sg12
S' Post something stupid and everyone loses their minds '
p4321
sg14
Vjoker
p4322
sg16
(lp4323
g4309
ag4310
ag4311
ag4312
ag4313
ag4314
ag4315
ag4316
ag4317
ag4318
ag4319
aS'Post'
p4324
aS'something'
p4325
aS'stupid'
p4326
aS'and'
p4327
aS'everyone'
p4328
aS'loses'
p4329
aS'their'
p4330
aS'minds'
p4331
asg22
(lp4332
g4324
ag4325
ag4326
ag4327
ag4328
ag4329
ag4330
ag4331
asba(iMeme
Meme
p4333
(dp4334
g3
(lp4335
S'Eight'
p4336
aS'year'
p4337
aS'old'
p4338
aS'shots'
p4339
aS'his'
p4340
aS'Grandma'
p4341
aS'over'
p4342
ag8
aS'game'
p4343
aS'no'
p4344
aS'one'
p4345
aS'bats'
p4346
aS'an'
p4347
aS'eye'
p4348
asg10
S'Eight year old shots his Grandma over a game no one bats an eye '
p4349
sg12
S' An adult twerks and sticks out her tongue on mtv and america looses its mind '
p4350
sg14
Vjoker
p4351
sg16
(lp4352
g4336
ag4337
ag4338
ag4339
ag4340
ag4341
ag4342
ag8
ag4343
ag4344
ag4345
ag4346
ag4347
ag4348
aS'An'
p4353
aS'adult'
p4354
aS'twerks'
p4355
aS'and'
p4356
aS'sticks'
p4357
aS'out'
p4358
aS'her'
p4359
aS'tongue'
p4360
aS'on'
p4361
aS'mtv'
p4362
aS'and'
p4363
aS'america'
p4364
aS'looses'
p4365
aS'its'
p4366
aS'mind'
p4367
asg22
(lp4368
g4353
ag4354
ag4355
ag4356
ag4357
ag4358
ag4359
ag4360
ag4361
ag4362
ag4363
ag4364
ag4365
ag4366
ag4367
asba(iMeme
Meme
p4369
(dp4370
g3
(lp4371
S'Make'
p4372
ag8
aS'well'
p4373
aS'reasoned'
p4374
aS'political'
p4375
aS'argument'
p4376
aS'and'
p4377
aS'nobody'
p4378
aS'bats'
p4379
aS'an'
p4380
aS'eye'
p4381
ag226
asg10
S'Make a well reasoned political argument and nobody bats an eye. '
p4382
sg12
S' Ask a question about Daft Punk and everybody loses their mind. '
p4383
sg14
Vjoker
p4384
sg16
(lp4385
g4372
ag8
ag4373
ag4374
ag4375
ag4376
ag4377
ag4378
ag4379
ag4380
ag4381
ag226
aS'Ask'
p4386
ag8
aS'question'
p4387
aS'about'
p4388
aS'Daft'
p4389
aS'Punk'
p4390
aS'and'
p4391
aS'everybody'
p4392
aS'loses'
p4393
aS'their'
p4394
aS'mind'
p4395
ag226
asg22
(lp4396
g4386
ag8
ag4387
ag4388
ag4389
ag4390
ag4391
ag4392
ag4393
ag4394
ag4395
ag226
asba(iMeme
Meme
p4397
(dp4398
g3
(lp4399
S'Everyone'
p4400
aS'pisses'
p4401
aS'in'
p4402
aS'the'
p4403
aS'pool'
p4404
aS'and'
p4405
aS'no'
p4406
aS'one'
p4407
aS'bats'
p4408
aS'an'
p4409
aS'eye'
p4410
asg10
S'Everyone pisses in the pool and no one bats an eye '
p4411
sg12
S' Take a shit in the pool and everyone loses their minds '
p4412
sg14
Vjoker
p4413
sg16
(lp4414
g4400
ag4401
ag4402
ag4403
ag4404
ag4405
ag4406
ag4407
ag4408
ag4409
ag4410
aS'Take'
p4415
ag8
aS'shit'
p4416
aS'in'
p4417
aS'the'
p4418
aS'pool'
p4419
aS'and'
p4420
aS'everyone'
p4421
aS'loses'
p4422
aS'their'
p4423
aS'minds'
p4424
asg22
(lp4425
g4415
ag8
ag4416
ag4417
ag4418
ag4419
ag4420
ag4421
ag4422
ag4423
ag4424
asba(iMeme
Meme
p4426
(dp4427
g3
(lp4428
S'Show'
p4429
aS'as'
p4430
aS'much'
p4431
aS'violence'
p4432
aS'as'
p4433
aS'you'
p4434
aS'want'
p4435
ag226
aS'Show'
p4436
ag8
aS'boob'
p4437
ag276
asg10
S'Show as much violence as you want. Show a boob: '
p4438
sg12
S' Everyone loses their minds '
p4439
sg14
Vjoker
p4440
sg16
(lp4441
g4429
ag4430
ag4431
ag4432
ag4433
ag4434
ag4435
ag226
ag4436
ag8
ag4437
ag276
aS'Everyone'
p4442
aS'loses'
p4443
aS'their'
p4444
aS'minds'
p4445
asg22
(lp4446
g4442
ag4443
ag4444
ag4445
asba(iMeme
Meme
p4447
(dp4448
g3
(lp4449
S'the'
p4450
aS'government'
p4451
aS'spies'
p4452
aS'on'
p4453
aS'your'
p4454
aS'phone'
p4455
aS'calls'
p4456
aS'and'
p4457
aS'emails'
p4458
aS'and'
p4459
aS'starts'
p4460
aS'another'
p4461
aS'war'
p4462
aS'in'
p4463
aS'the'
p4464
aS'middle'
p4465
aS'east'
p4466
aS'and'
p4467
aS'no'
p4468
aS'one'
p4469
aS'bats'
p4470
aS'an'
p4471
aS'eye'
p4472
asg10
S'the government spies on your phone calls and emails and starts another war in the middle east and no one bats an eye '
p4473
sg12
S' miley cyrus dances in a bikini and everyone loses their fucking minds '
p4474
sg14
Vjoker
p4475
sg16
(lp4476
g4450
ag4451
ag4452
ag4453
ag4454
ag4455
ag4456
ag4457
ag4458
ag4459
ag4460
ag4461
ag4462
ag4463
ag4464
ag4465
ag4466
ag4467
ag4468
ag4469
ag4470
ag4471
ag4472
aS'miley'
p4477
aS'cyrus'
p4478
aS'dances'
p4479
aS'in'
p4480
ag8
aS'bikini'
p4481
aS'and'
p4482
aS'everyone'
p4483
aS'loses'
p4484
aS'their'
p4485
aS'fucking'
p4486
aS'minds'
p4487
asg22
(lp4488
g4477
ag4478
ag4479
ag4480
ag8
ag4481
ag4482
ag4483
ag4484
ag4485
ag4486
ag4487
asba(iMeme
Meme
p4489
(dp4490
g3
(lp4491
g470
aS'8'
p4492
aS'yr'
p4493
aS'old'
p4494
aS'having'
p4495
aS'access'
p4496
aS'to'
p4497
aS'firearm'
p4498
ag214
aS'nobody'
p4499
aS'panics'
p4500
asg10
S'A 8 yr old having access to firearm, nobody panics '
p4501
sg12
S' but when he played a video game, then everyone loses their minds '
p4502
sg14
Vjoker
p4503
sg16
(lp4504
g470
ag4492
ag4493
ag4494
ag4495
ag4496
ag4497
ag4498
ag214
ag4499
ag4500
aS'but'
p4505
aS'when'
p4506
aS'he'
p4507
aS'played'
p4508
ag8
aS'video'
p4509
aS'game'
p4510
ag214
aS'then'
p4511
aS'everyone'
p4512
aS'loses'
p4513
aS'their'
p4514
aS'minds'
p4515
asg22
(lp4516
g4505
ag4506
ag4507
ag4508
ag8
ag4509
ag4510
ag214
ag4511
ag4512
ag4513
ag4514
ag4515
asba(iMeme
Meme
p4517
(dp4518
g3
(lp4519
S'Use'
p4520
aS'the'
p4521
aS'incorrect'
p4522
aS'term'
p4523
aS'``'
p4524
aS'suppressor'
p4525
aS"''"
p4526
aS'and'
p4527
aS'everyone'
p4528
aS'is'
p4529
aS'ok'
p4530
ag226
asg10
S'Use the incorrect term "suppressor" and everyone is ok. '
p4531
sg12
S' Use the correct term "silencer" and everyone looses their minds! '
p4532
sg14
Vjoker
p4533
sg16
(lp4534
g4520
ag4521
ag4522
ag4523
ag4524
ag4525
ag4526
ag4527
ag4528
ag4529
ag4530
ag226
aS'Use'
p4535
aS'the'
p4536
aS'correct'
p4537
aS'term'
p4538
aS'``'
p4539
aS'silencer'
p4540
aS"''"
p4541
aS'and'
p4542
aS'everyone'
p4543
aS'looses'
p4544
aS'their'
p4545
aS'minds'
p4546
ag314
asg22
(lp4547
g4535
ag4536
ag4537
ag4538
ag4539
ag4540
ag4541
ag4542
ag4543
ag4544
ag4545
ag4546
ag314
asba(iMeme
Meme
p4548
(dp4549
g3
(lp4550
S'Drive'
p4551
aS'on'
p4552
ag8
aS'clear'
p4553
aS'and'
p4554
aS'sunny'
p4555
aS'day'
p4556
aS'and'
p4557
aS'no'
p4558
aS'one'
p4559
aS'bats'
p4560
aS'an'
p4561
aS'eye'
p4562
asg10
S'Drive on a clear and sunny day and no one bats an eye '
p4563
sg12
S' Drive in any inclement weather and everyone loses their minds '
p4564
sg14
Vjoker
p4565
sg16
(lp4566
g4551
ag4552
ag8
ag4553
ag4554
ag4555
ag4556
ag4557
ag4558
ag4559
ag4560
ag4561
ag4562
aS'Drive'
p4567
aS'in'
p4568
aS'any'
p4569
aS'inclement'
p4570
aS'weather'
p4571
aS'and'
p4572
aS'everyone'
p4573
aS'loses'
p4574
aS'their'
p4575
aS'minds'
p4576
asg22
(lp4577
g4567
ag4568
ag4569
ag4570
ag4571
ag4572
ag4573
ag4574
ag4575
ag4576
asba(iMeme
Meme
p4578
(dp4579
g3
(lp4580
S'Syrian'
p4581
aS'regime'
p4582
aS'gases'
p4583
aS'their'
p4584
aS'own'
p4585
aS'people'
p4586
aS'and'
p4587
aS'nobody'
p4588
aS'bats'
p4589
aS'an'
p4590
aS'eye'
p4591
asg10
S'Syrian regime gases their own people and nobody bats an eye '
p4592
sg12
S' Miley Cyrus twerks on stage and everyone loses their mind '
p4593
sg14
Vjoker
p4594
sg16
(lp4595
g4581
ag4582
ag4583
ag4584
ag4585
ag4586
ag4587
ag4588
ag4589
ag4590
ag4591
aS'Miley'
p4596
aS'Cyrus'
p4597
aS'twerks'
p4598
aS'on'
p4599
aS'stage'
p4600
aS'and'
p4601
aS'everyone'
p4602
aS'loses'
p4603
aS'their'
p4604
aS'mind'
p4605
asg22
(lp4606
g4596
ag4597
ag4598
ag4599
ag4600
ag4601
ag4602
ag4603
ag4604
ag4605
asba(iMeme
Meme
p4607
(dp4608
g3
(lp4609
S'Sing'
p4610
aS'about'
p4611
aS'sex'
p4612
ag214
aS'drugs'
p4613
ag214
aS'and'
p4614
aS'alcohol'
p4615
aS'in'
p4616
ag8
aS'country'
p4617
aS'song'
p4618
aS'and'
p4619
aS'nobody'
p4620
aS'bats'
p4621
aS'an'
p4622
aS'eye'
p4623
aS'...'
p4624
asg10
S'Sing about sex, drugs, and alcohol in a country song and nobody bats an eye... '
p4625
sg12
S' Sing about it in a rock or rap song and everybody loses their minds! '
p4626
sg14
Vjoker
p4627
sg16
(lp4628
g4610
ag4611
ag4612
ag214
ag4613
ag214
ag4614
ag4615
ag4616
ag8
ag4617
ag4618
ag4619
ag4620
ag4621
ag4622
ag4623
ag4624
aS'Sing'
p4629
aS'about'
p4630
aS'it'
p4631
aS'in'
p4632
ag8
aS'rock'
p4633
aS'or'
p4634
aS'rap'
p4635
aS'song'
p4636
aS'and'
p4637
aS'everybody'
p4638
aS'loses'
p4639
aS'their'
p4640
aS'minds'
p4641
ag314
asg22
(lp4642
g4629
ag4630
ag4631
ag4632
ag8
ag4633
ag4634
ag4635
ag4636
ag4637
ag4638
ag4639
ag4640
ag4641
ag314
asba(iMeme
Meme
p4643
(dp4644
g3
(lp4645
S'Start'
p4646
aS'the'
p4647
aS'class'
p4648
aS'late'
p4649
aS'and'
p4650
aS'nobody'
p4651
aS'bats'
p4652
aS'an'
p4653
aS'eye'
p4654
asg10
S'Start the class late and nobody bats an eye '
p4655
sg12
S' Keep the class going 5 minutes after its supposed to be over and everyone loses their minds '
p4656
sg14
Vjoker
p4657
sg16
(lp4658
g4646
ag4647
ag4648
ag4649
ag4650
ag4651
ag4652
ag4653
ag4654
aS'Keep'
p4659
aS'the'
p4660
aS'class'
p4661
aS'going'
p4662
ag3148
aS'minutes'
p4663
aS'after'
p4664
aS'its'
p4665
aS'supposed'
p4666
aS'to'
p4667
aS'be'
p4668
aS'over'
p4669
aS'and'
p4670
aS'everyone'
p4671
aS'loses'
p4672
aS'their'
p4673
aS'minds'
p4674
asg22
(lp4675
g4659
ag4660
ag4661
ag4662
ag3148
ag4663
ag4664
ag4665
ag4666
ag4667
ag4668
ag4669
ag4670
ag4671
ag4672
ag4673
ag4674
asba(iMeme
Meme
p4676
(dp4677
g3
(lp4678
S'Say'
p4679
aS'black'
p4680
aS'people'
p4681
aS'are'
p4682
aS'more'
p4683
aS'athletic'
p4684
aS'than'
p4685
aS'other'
p4686
aS'races'
p4687
aS'and'
p4688
aS'no'
p4689
aS'one'
p4690
aS'bats'
p4691
aS'an'
p4692
aS'eye'
p4693
asg10
S'Say black people are more athletic than other races and no one bats an eye '
p4694
sg12
S' say other races are smarter than black people and everyone loses their minds '
p4695
sg14
Vjoker
p4696
sg16
(lp4697
g4679
ag4680
ag4681
ag4682
ag4683
ag4684
ag4685
ag4686
ag4687
ag4688
ag4689
ag4690
ag4691
ag4692
ag4693
aS'say'
p4698
aS'other'
p4699
aS'races'
p4700
aS'are'
p4701
aS'smarter'
p4702
aS'than'
p4703
aS'black'
p4704
aS'people'
p4705
aS'and'
p4706
aS'everyone'
p4707
aS'loses'
p4708
aS'their'
p4709
aS'minds'
p4710
asg22
(lp4711
g4698
ag4699
ag4700
ag4701
ag4702
ag4703
ag4704
ag4705
ag4706
ag4707
ag4708
ag4709
ag4710
asba(iMeme
Meme
p4712
(dp4713
g3
(lp4714
S'Curfew'
p4715
aS'starts'
p4716
aS'at'
p4717
ag2193
aS'PM'
p4718
asg10
S'Curfew starts at 7 PM '
p4719
sg12
S' And everyone loses their minds '
p4720
sg14
Vjoker
p4721
sg16
(lp4722
g4715
ag4716
ag4717
ag2193
ag4718
aS'And'
p4723
aS'everyone'
p4724
aS'loses'
p4725
aS'their'
p4726
aS'minds'
p4727
asg22
(lp4728
g4723
ag4724
ag4725
ag4726
ag4727
asba(iMeme
Meme
p4729
(dp4730
g3
(lp4731
S'when'
p4732
aS'Ryan'
p4733
aS'do'
p4734
aS'the'
p4735
aS'job'
p4736
aS'and'
p4737
aS'no'
p4738
aS'one'
p4739
aS'bats'
p4740
aS'an'
p4741
aS'eye'
p4742
asg10
S'when Ryan do the job and no one bats an eye '
p4743
sg12
S' kevin do same shit everyone loses their mids '
p4744
sg14
Vjoker
p4745
sg16
(lp4746
g4732
ag4733
ag4734
ag4735
ag4736
ag4737
ag4738
ag4739
ag4740
ag4741
ag4742
aS'kevin'
p4747
aS'do'
p4748
aS'same'
p4749
aS'shit'
p4750
aS'everyone'
p4751
aS'loses'
p4752
aS'their'
p4753
aS'mids'
p4754
asg22
(lp4755
g4747
ag4748
ag4749
ag4750
ag4751
ag4752
ag4753
ag4754
asba(iMeme
Meme
p4756
(dp4757
g3
(lp4758
S'send'
p4759
aS'up'
p4760
aS'every'
p4761
aS'sandwich'
p4762
aS'in'
p4763
ag8
aS'timely'
p4764
aS'fashion'
p4765
aS'and'
p4766
aS'no'
p4767
aS'one'
p4768
aS'bats'
p4769
aS'an'
p4770
aS'eye'
p4771
asg10
S'send up every sandwich in a timely fashion and no one bats an eye '
p4772
sg12
S' forget to make one thing and everyone loses their minds '
p4773
sg14
Vjoker
p4774
sg16
(lp4775
g4759
ag4760
ag4761
ag4762
ag4763
ag8
ag4764
ag4765
ag4766
ag4767
ag4768
ag4769
ag4770
ag4771
aS'forget'
p4776
aS'to'
p4777
aS'make'
p4778
aS'one'
p4779
aS'thing'
p4780
aS'and'
p4781
aS'everyone'
p4782
aS'loses'
p4783
aS'their'
p4784
aS'minds'
p4785
asg22
(lp4786
g4776
ag4777
ag4778
ag4779
ag4780
ag4781
ag4782
ag4783
ag4784
ag4785
asba(iMeme
Meme
p4787
(dp4788
g3
(lp4789
S'As'
p4790
ag8
aS'girl'
p4791
ag214
aS'tell'
p4792
ag8
aS'guy'
p4793
aS'that'
p4794
aS'you'
p4795
aS'have'
p4796
ag8
aS'nipple'
p4797
aS'pierced'
p4798
asg10
S'As a girl, tell a guy that you have a nipple pierced '
p4799
sg12
S' And everyone loses their minds '
p4800
sg14
Vjoker
p4801
sg16
(lp4802
g4790
ag8
ag4791
ag214
ag4792
ag8
ag4793
ag4794
ag4795
ag4796
ag8
ag4797
ag4798
aS'And'
p4803
aS'everyone'
p4804
aS'loses'
p4805
aS'their'
p4806
aS'minds'
p4807
asg22
(lp4808
g4803
ag4804
ag4805
ag4806
ag4807
asba(iMeme
Meme
p4809
(dp4810
g3
(lp4811
S'Guy'
p4812
aS'wearing'
p4813
aS'tight'
p4814
aS'sports'
p4815
aS'gear'
p4816
aS'and'
p4817
aS'nobody'
p4818
aS'bats'
p4819
aS'an'
p4820
aS'eye'
p4821
asg10
S'Guy wearing tight sports gear and nobody bats an eye '
p4822
sg12
S' Girl wearing sports gear and everyone loses their minds '
p4823
sg14
Vjoker
p4824
sg16
(lp4825
g4812
ag4813
ag4814
ag4815
ag4816
ag4817
ag4818
ag4819
ag4820
ag4821
aS'Girl'
p4826
aS'wearing'
p4827
aS'sports'
p4828
aS'gear'
p4829
aS'and'
p4830
aS'everyone'
p4831
aS'loses'
p4832
aS'their'
p4833
aS'minds'
p4834
asg22
(lp4835
g4826
ag4827
ag4828
ag4829
ag4830
ag4831
ag4832
ag4833
ag4834
asba(iMeme
Meme
p4836
(dp4837
g3
(lp4838
S'bitches'
p4839
aS'be'
p4840
aS'like'
p4841
asg10
S'bitches be like '
p4842
sg12
S' is my make up alright? '
p4843
sg14
Vjoker
p4844
sg16
(lp4845
g4839
ag4840
ag4841
aS'is'
p4846
aS'my'
p4847
aS'make'
p4848
aS'up'
p4849
aS'alright'
p4850
ag2234
asg22
(lp4851
g4846
ag4847
ag4848
ag4849
ag4850
ag2234
asba(iMeme
Meme
p4852
(dp4853
g3
(lp4854
g8
aS'million'
p4855
aS'kids'
p4856
aS'in'
p4857
aS'africa'
p4858
aS'dies'
p4859
aS'nobody'
p4860
aS'cares'
p4861
asg10
S'a million kids in africa dies nobody cares '
p4862
sg12
S' one kids dies everybody likes and shares '
p4863
sg14
Vjoker
p4864
sg16
(lp4865
g8
ag4855
ag4856
ag4857
ag4858
ag4859
ag4860
ag4861
aS'one'
p4866
aS'kids'
p4867
aS'dies'
p4868
aS'everybody'
p4869
aS'likes'
p4870
aS'and'
p4871
aS'shares'
p4872
asg22
(lp4873
g4866
ag4867
ag4868
ag4869
ag4870
ag4871
ag4872
asba(iMeme
Meme
p4874
(dp4875
g3
(lp4876
S'You'
p4877
aS'think'
p4878
aS'you'
p4879
aS'can'
p4880
aS'do'
p4881
aS'better'
p4882
ag2234
asg10
S'You think you can do better? '
p4883
sg12
S' okay den. go and fucking try. '
p4884
sg14
Vjoker
p4885
sg16
(lp4886
g4877
ag4878
ag4879
ag4880
ag4881
ag4882
ag2234
aS'okay'
p4887
aS'den'
p4888
ag226
aS'go'
p4889
aS'and'
p4890
aS'fucking'
p4891
aS'try'
p4892
ag226
asg22
(lp4893
g4887
ag4888
ag226
ag4889
ag4890
ag4891
ag4892
ag226
asba(iMeme
Meme
p4894
(dp4895
g3
(lp4896
S'still'
p4897
aS'no'
p4898
aS'carpet'
p4899
aS'cleaning'
p4900
aS'arrangment'
p4901
ag2234
asg10
S'still no carpet cleaning arrangment? '
p4902
sg12
S' you people got me going crazyyyy '
p4903
sg14
Vjoker
p4904
sg16
(lp4905
g4897
ag4898
ag4899
ag4900
ag4901
ag2234
aS'you'
p4906
aS'people'
p4907
aS'got'
p4908
aS'me'
p4909
aS'going'
p4910
aS'crazyyyy'
p4911
asg22
(lp4912
g4906
ag4907
ag4908
ag4909
ag4910
ag4911
asba(iMeme
Meme
p4913
(dp4914
g3
(lp4915
S'Mention'
p4916
aS'drago'
p4917
asg10
S'Mention drago '
p4918
sg12
S' And everyone loses their minds! '
p4919
sg14
Vjoker
p4920
sg16
(lp4921
g4916
ag4917
aS'And'
p4922
aS'everyone'
p4923
aS'loses'
p4924
aS'their'
p4925
aS'minds'
p4926
ag314
asg22
(lp4927
g4922
ag4923
ag4924
ag4925
ag4926
ag314
asba(iMeme
Meme
p4928
(dp4929
g3
(lp4930
S'When'
p4931
aS'someone'
p4932
aS'say'
p4933
aS'``'
p4934
aS'do'
p4935
aS"n't"
p4936
aS'do'
p4937
aS'drugs'
p4938
aS"''"
p4939
aS'no'
p4940
aS'one'
p4941
aS'bats'
p4942
aS'an'
p4943
aS'eye'
p4944
asg10
S'When someone say "don\'t do drugs" no one bats an eye '
p4945
sg12
S' but say "no new friends" and everyone loses their minds '
p4946
sg14
Vjoker
p4947
sg16
(lp4948
g4931
ag4932
ag4933
ag4934
ag4935
ag4936
ag4937
ag4938
ag4939
ag4940
ag4941
ag4942
ag4943
ag4944
aS'but'
p4949
aS'say'
p4950
aS'``'
p4951
aS'no'
p4952
aS'new'
p4953
aS'friends'
p4954
aS"''"
p4955
aS'and'
p4956
aS'everyone'
p4957
aS'loses'
p4958
aS'their'
p4959
aS'minds'
p4960
asg22
(lp4961
g4949
ag4950
ag4951
ag4952
ag4953
ag4954
ag4955
ag4956
ag4957
ag4958
ag4959
ag4960
asba(iMeme
Meme
p4962
(dp4963
g3
(lp4964
S'Frape'
p4965
aS'``'
p4966
ag277
aS"'m"
p4967
aS'coming'
p4968
aS'out'
p4969
ag226
ag277
aS"'m"
p4970
aS'gay'
p4971
ag226
aS"''"
p4972
aS'Nobody'
p4973
aS'cares'
p4974
asg10
S'Frape "I\'m coming out. I\'m gay." Nobody cares '
p4975
sg12
S' Frape involves false pregnancy, and everyone loses their minds '
p4976
sg14
Vjoker
p4977
sg16
(lp4978
g4965
ag4966
ag277
ag4967
ag4968
ag4969
ag226
ag277
ag4970
ag4971
ag226
ag4972
ag4973
ag4974
aS'Frape'
p4979
aS'involves'
p4980
aS'false'
p4981
aS'pregnancy'
p4982
ag214
aS'and'
p4983
aS'everyone'
p4984
aS'loses'
p4985
aS'their'
p4986
aS'minds'
p4987
asg22
(lp4988
g4979
ag4980
ag4981
ag4982
ag214
ag4983
ag4984
ag4985
ag4986
ag4987
asba(iMeme
Meme
p4989
(dp4990
g3
(lp4991
S'Course'
p4992
aS'registration'
p4993
aS'does'
p4994
aS"n't"
p4995
aS'start'
p4996
aS'at'
p4997
aS'10AM'
p4998
aS'sharp'
p4999
asg10
S"Course registration doesn't start at 10AM sharp "
p5000
sg12
S' Everyone loses their minds '
p5001
sg14
Vjoker
p5002
sg16
(lp5003
g4992
ag4993
ag4994
ag4995
ag4996
ag4997
ag4998
ag4999
aS'Everyone'
p5004
aS'loses'
p5005
aS'their'
p5006
aS'minds'
p5007
asg22
(lp5008
g5004
ag5005
ag5006
ag5007
asba(iMeme
Meme
p5009
(dp5010
g3
(lp5011
S'Us'
p5012
aS'Wahabies'
p5013
asg10
S'Us Wahabies '
p5014
sg12
S' we done lost our damn minds '
p5015
sg14
Vjoker
p5016
sg16
(lp5017
g5012
ag5013
aS'we'
p5018
aS'done'
p5019
aS'lost'
p5020
aS'our'
p5021
aS'damn'
p5022
aS'minds'
p5023
asg22
(lp5024
g5018
ag5019
ag5020
ag5021
ag5022
ag5023
asba(iMeme
Meme
p5025
(dp5026
g3
(lp5027
S'Cum'
p5028
aS'in'
p5029
aS'your'
p5030
aS'girlfriend'
p5031
aS"'s"
p5032
aS'mouth'
p5033
aS'and'
p5034
aS'no'
p5035
aS'one'
p5036
aS'bats'
p5037
aS'an'
p5038
aS'eye'
p5039
ag226
asg10
S"Cum in your girlfriend's mouth and no one bats an eye. "
p5040
sg12
S" Don't wash your hands and everyone loses their minds. "
p5041
sg14
Vjoker
p5042
sg16
(lp5043
g5028
ag5029
ag5030
ag5031
ag5032
ag5033
ag5034
ag5035
ag5036
ag5037
ag5038
ag5039
ag226
aS'Do'
p5044
aS"n't"
p5045
aS'wash'
p5046
aS'your'
p5047
aS'hands'
p5048
aS'and'
p5049
aS'everyone'
p5050
aS'loses'
p5051
aS'their'
p5052
aS'minds'
p5053
ag226
asg22
(lp5054
g5044
ag5045
ag5046
ag5047
ag5048
ag5049
ag5050
ag5051
ag5052
ag5053
ag226
asba(iMeme
Meme
p5055
(dp5056
g3
(lp5057
S'Bite'
p5058
aS'your'
p5059
aS'fingernails'
p5060
aS'while'
p5061
aS'they'
p5062
aS'are'
p5063
aS'attached'
p5064
aS'to'
p5065
aS'your'
p5066
aS'fingers'
p5067
ag214
aS'and'
p5068
aS'no'
p5069
aS'one'
p5070
aS'bats'
p5071
aS'an'
p5072
aS'eye'
p5073
ag226
asg10
S'Bite your fingernails while they are attached to your fingers, and no one bats an eye. '
p5074
sg12
S' Chew your fingernails after you clip them and everyone loses their minds '
p5075
sg14
Vjoker
p5076
sg16
(lp5077
g5058
ag5059
ag5060
ag5061
ag5062
ag5063
ag5064
ag5065
ag5066
ag5067
ag214
ag5068
ag5069
ag5070
ag5071
ag5072
ag5073
ag226
aS'Chew'
p5078
aS'your'
p5079
aS'fingernails'
p5080
aS'after'
p5081
aS'you'
p5082
aS'clip'
p5083
aS'them'
p5084
aS'and'
p5085
aS'everyone'
p5086
aS'loses'
p5087
aS'their'
p5088
aS'minds'
p5089
asg22
(lp5090
g5078
ag5079
ag5080
ag5081
ag5082
ag5083
ag5084
ag5085
ag5086
ag5087
ag5088
ag5089
asba(iMeme
Meme
p5091
(dp5092
g3
(lp5093
S'Pull'
p5094
aS'out'
p5095
ag8
aS'ballpoint'
p5096
aS'pen'
p5097
ag214
aS'no'
p5098
aS'one'
p5099
aS'bats'
p5100
aS'an'
p5101
aS'eye'
p5102
asg10
S'Pull out a ballpoint pen, no one bats an eye '
p5103
sg12
S' Pull out an expo marker and everyone loses their minds '
p5104
sg14
Vjoker
p5105
sg16
(lp5106
g5094
ag5095
ag8
ag5096
ag5097
ag214
ag5098
ag5099
ag5100
ag5101
ag5102
aS'Pull'
p5107
aS'out'
p5108
aS'an'
p5109
aS'expo'
p5110
aS'marker'
p5111
aS'and'
p5112
aS'everyone'
p5113
aS'loses'
p5114
aS'their'
p5115
aS'minds'
p5116
asg22
(lp5117
g5107
ag5108
ag5109
ag5110
ag5111
ag5112
ag5113
ag5114
ag5115
ag5116
asba(iMeme
Meme
p5118
(dp5119
g3
(lp5120
S'My'
p5121
aS'GF'
p5122
aS'wastes'
p5123
aS'time'
p5124
aS'getting'
p5125
aS'dressed'
p5126
aS'up'
p5127
aS'every'
p5128
aS'weekend'
p5129
aS'and'
p5130
aS'no'
p5131
aS'one'
p5132
aS'bats'
p5133
aS'an'
p5134
aS'eye'
p5135
asg10
S'My GF wastes time getting dressed up every weekend and no one bats an eye '
p5136
sg12
S' I get dressed up late once and everybody loses their mind '
p5137
sg14
Vjoker
p5138
sg16
(lp5139
g5121
ag5122
ag5123
ag5124
ag5125
ag5126
ag5127
ag5128
ag5129
ag5130
ag5131
ag5132
ag5133
ag5134
ag5135
ag277
aS'get'
p5140
aS'dressed'
p5141
aS'up'
p5142
aS'late'
p5143
aS'once'
p5144
aS'and'
p5145
aS'everybody'
p5146
aS'loses'
p5147
aS'their'
p5148
aS'mind'
p5149
asg22
(lp5150
g277
ag5140
ag5141
ag5142
ag5143
ag5144
ag5145
ag5146
ag5147
ag5148
ag5149
asba(iMeme
Meme
p5151
(dp5152
g3
(lp5153
S'Some'
p5154
aS'people'
p5155
aS'just'
p5156
aS'want'
p5157
aS'to'
p5158
asg10
S'Some people just want to  '
p5159
sg12
S' see Shadowdale burn! '
p5160
sg14
Vjoker
p5161
sg16
(lp5162
g5154
ag5155
ag5156
ag5157
ag5158
aS'see'
p5163
aS'Shadowdale'
p5164
aS'burn'
p5165
ag314
asg22
(lp5166
g5163
ag5164
ag5165
ag314
asba(iMeme
Meme
p5167
(dp5168
g3
(lp5169
S'Just'
p5170
aS'take'
p5171
aS'Rebecca'
p5172
aS'Black'
p5173
aS'as'
p5174
aS'profile'
p5175
aS'picture'
p5176
asg10
S'Just take Rebecca Black as profile picture '
p5177
sg12
S' and everyone loses their minds '
p5178
sg14
Vjoker
p5179
sg16
(lp5180
g5170
ag5171
ag5172
ag5173
ag5174
ag5175
ag5176
aS'and'
p5181
aS'everyone'
p5182
aS'loses'
p5183
aS'their'
p5184
aS'minds'
p5185
asg22
(lp5186
g5181
ag5182
ag5183
ag5184
ag5185
asba(iMeme
Meme
p5187
(dp5188
g3
(lp5189
S'Everyone'
p5190
aS'is'
p5191
aS'insane'
p5192
ag226
asg10
S'Everyone is insane. '
p5193
sg12
S' BUT ME '
p5194
sg14
Vjoker
p5195
sg16
(lp5196
g5190
ag5191
ag5192
ag226
aS'BUT'
p5197
aS'ME'
p5198
asg22
(lp5199
g5197
ag5198
asba(iMeme
Meme
p5200
(dp5201
g3
(lp5202
S'dices'
p5203
aS'que'
p5204
aS'no'
p5205
aS'conoces'
p5206
aS'excel'
p5207
aS'basico'
p5208
asg10
S'dices que no conoces excel basico '
p5209
sg12
S' y todos pierden la cabeza! '
p5210
sg14
Vjoker
p5211
sg16
(lp5212
g5203
ag5204
ag5205
ag5206
ag5207
ag5208
aS'y'
p5213
aS'todos'
p5214
aS'pierden'
p5215
aS'la'
p5216
aS'cabeza'
p5217
ag314
asg22
(lp5218
g5213
ag5214
ag5215
ag5216
ag5217
ag314
asba(iMeme
Meme
p5219
(dp5220
g3
(lp5221
S'Stylis'
p5222
aS'Uroosa'
p5223
asg10
S'Stylis Uroosa '
p5224
sg12
S" Why you don't sto posting "
p5225
sg14
Vjoker
p5226
sg16
(lp5227
g5222
ag5223
aS'Why'
p5228
aS'you'
p5229
aS'do'
p5230
aS"n't"
p5231
aS'sto'
p5232
aS'posting'
p5233
asg22
(lp5234
g5228
ag5229
ag5230
ag5231
ag5232
ag5233
asba(iMeme
Meme
p5235
(dp5236
g3
(lp5237
S'get'
p5238
ag8
aS'multikill'
p5239
aS'and'
p5240
aS'no'
p5241
aS'one'
p5242
aS'bats'
p5243
aS'an'
p5244
aS'eye'
p5245
asg10
S'get a multikill and no one bats an eye '
p5246
sg12
S' get untouchable and a few betrayals and win the game and everyone losses their minds '
p5247
sg14
Vjoker
p5248
sg16
(lp5249
g5238
ag8
ag5239
ag5240
ag5241
ag5242
ag5243
ag5244
ag5245
aS'get'
p5250
aS'untouchable'
p5251
aS'and'
p5252
ag8
aS'few'
p5253
aS'betrayals'
p5254
aS'and'
p5255
aS'win'
p5256
aS'the'
p5257
aS'game'
p5258
aS'and'
p5259
aS'everyone'
p5260
aS'losses'
p5261
aS'their'
p5262
aS'minds'
p5263
asg22
(lp5264
g5250
ag5251
ag5252
ag8
ag5253
ag5254
ag5255
ag5256
ag5257
ag5258
ag5259
ag5260
ag5261
ag5262
ag5263
asba(iMeme
Meme
p5265
(dp5266
g3
(lp5267
S'Metal'
p5268
aS'Injection'
p5269
aS'posts'
p5270
aS'about'
p5271
aS'thrash'
p5272
aS'and'
p5273
aS'death'
p5274
aS'metal'
p5275
ag214
aS'nobody'
p5276
aS'panics'
p5277
ag226
asg10
S'Metal Injection posts about thrash and death metal, nobody panics. '
p5278
sg12
S' But one post about a band like Korn and Slipknot and everyone loses their minds. '
p5279
sg14
Vjoker
p5280
sg16
(lp5281
g5268
ag5269
ag5270
ag5271
ag5272
ag5273
ag5274
ag5275
ag214
ag5276
ag5277
ag226
aS'But'
p5282
aS'one'
p5283
aS'post'
p5284
aS'about'
p5285
ag8
aS'band'
p5286
aS'like'
p5287
aS'Korn'
p5288
aS'and'
p5289
aS'Slipknot'
p5290
aS'and'
p5291
aS'everyone'
p5292
aS'loses'
p5293
aS'their'
p5294
aS'minds'
p5295
ag226
asg22
(lp5296
g5282
ag5283
ag5284
ag5285
ag8
ag5286
ag5287
ag5288
ag5289
ag5290
ag5291
ag5292
ag5293
ag5294
ag5295
ag226
asba(iMeme
Meme
p5297
(dp5298
g3
(lp5299
S'Guy'
p5300
aS'who'
p5301
aS'plays'
p5302
aS'well'
p5303
aS'continues'
p5304
aS'to'
p5305
aS'play'
p5306
aS'well'
p5307
asg10
S'Guy who plays well continues to play well '
p5308
sg12
S' and everybody loses their minds '
p5309
sg14
Vjoker
p5310
sg16
(lp5311
g5300
ag5301
ag5302
ag5303
ag5304
ag5305
ag5306
ag5307
aS'and'
p5312
aS'everybody'
p5313
aS'loses'
p5314
aS'their'
p5315
aS'minds'
p5316
asg22
(lp5317
g5312
ag5313
ag5314
ag5315
ag5316
asba(iMeme
Meme
p5318
(dp5319
g3
(lp5320
S'This'
p5321
aS'is'
p5322
aS'how'
p5323
aS'long'
p5324
asg10
S'This is how long '
p5325
sg12
S' jans penis is NOT '
p5326
sg14
Vjoker
p5327
sg16
(lp5328
g5321
ag5322
ag5323
ag5324
aS'jans'
p5329
aS'penis'
p5330
aS'is'
p5331
aS'NOT'
p5332
asg22
(lp5333
g5329
ag5330
ag5331
ag5332
asba(iMeme
Meme
p5334
(dp5335
g3
(lp5336
S'everyone'
p5337
aS'is'
p5338
aS'so'
p5339
aS'busy'
p5340
aS'with'
p5341
aS'our'
p5342
aS'CLASS'
p5343
aS'TEST'
p5344
ag214
aS'that'
p5345
asg10
S'everyone is so busy with our CLASS TEST, that '
p5346
sg12
S' nobody has noticed we have completed a YEAR in P.R.M.I.T.R '
p5347
sg14
Vjoker
p5348
sg16
(lp5349
g5337
ag5338
ag5339
ag5340
ag5341
ag5342
ag5343
ag5344
ag214
ag5345
aS'nobody'
p5350
aS'has'
p5351
aS'noticed'
p5352
aS'we'
p5353
aS'have'
p5354
aS'completed'
p5355
ag8
aS'YEAR'
p5356
aS'in'
p5357
aS'P.R.M.I.T.R'
p5358
asg22
(lp5359
g5350
ag5351
ag5352
ag5353
ag5354
ag5355
ag8
ag5356
ag5357
ag5358
asba(iMeme
Meme
p5360
(dp5361
g3
(lp5362
S'What'
p5363
aS'the'
p5364
aS'fuck'
p5365
aS'is'
p5366
aS'this'
p5367
aS'shit'
p5368
aS'they'
p5369
aS'that'
p5370
aS'call'
p5371
aS'music'
p5372
aS'now'
p5373
ag8
aS'days'
p5374
asg10
S'What the fuck is this shit they that call music now a days '
p5375
sg12
S'  '
p5376
sg14
Vjoker
p5377
sg16
(lp5378
g5363
ag5364
ag5365
ag5366
ag5367
ag5368
ag5369
ag5370
ag5371
ag5372
ag5373
ag8
ag5374
asg22
(lp5379
sba(iMeme
Meme
p5380
(dp5381
g3
(lp5382
S'~120,000'
p5383
aS'people'
p5384
aS'killed'
p5385
aS'in'
p5386
aS'Syria'
p5387
aS'by'
p5388
aS'conventional'
p5389
aS'weapons'
p5390
aS'and'
p5391
aS'no'
p5392
aS'one'
p5393
aS'bats'
p5394
aS'an'
p5395
aS'eye'
p5396
aS'for'
p5397
aS'the'
p5398
aS'past'
p5399
ag1815
aS'years'
p5400
asg10
S'~120,000 people killed in Syria by conventional weapons and no one bats an eye for the past 2 years '
p5401
sg12
S' 1,300 people die in one chemical attack and everonye looses their mind '
p5402
sg14
Vjoker
p5403
sg16
(lp5404
g5383
ag5384
ag5385
ag5386
ag5387
ag5388
ag5389
ag5390
ag5391
ag5392
ag5393
ag5394
ag5395
ag5396
ag5397
ag5398
ag5399
ag1815
ag5400
aS'1,300'
p5405
aS'people'
p5406
aS'die'
p5407
aS'in'
p5408
aS'one'
p5409
aS'chemical'
p5410
aS'attack'
p5411
aS'and'
p5412
aS'everonye'
p5413
aS'looses'
p5414
aS'their'
p5415
aS'mind'
p5416
asg22
(lp5417
g5405
ag5406
ag5407
ag5408
ag5409
ag5410
ag5411
ag5412
ag5413
ag5414
ag5415
ag5416
asba(iMeme
Meme
p5418
(dp5419
g3
(lp5420
S'Line/Ryan/Malene'
p5421
aS'are'
p5422
aS'away'
p5423
aS'for'
p5424
aS'days'
p5425
aS'and'
p5426
aS'no'
p5427
aS'one'
p5428
aS'bats'
p5429
aS'an'
p5430
aS'eye'
p5431
asg10
S'Line/Ryan/Malene are away for days and no one bats an eye '
p5432
sg12
S' I am away for 2 lessons and everybody loses their minds! '
p5433
sg14
Vjoker
p5434
sg16
(lp5435
g5421
ag5422
ag5423
ag5424
ag5425
ag5426
ag5427
ag5428
ag5429
ag5430
ag5431
ag277
aS'am'
p5436
aS'away'
p5437
aS'for'
p5438
ag1815
aS'lessons'
p5439
aS'and'
p5440
aS'everybody'
p5441
aS'loses'
p5442
aS'their'
p5443
aS'minds'
p5444
ag314
asg22
(lp5445
g277
ag5436
ag5437
ag5438
ag1815
ag5439
ag5440
ag5441
ag5442
ag5443
ag5444
ag314
asba(iMeme
Meme
p5446
(dp5447
g3
(lp5448
S'JKSC'
p5449
aS'gives'
p5450
ag8
aS'few'
p5451
aS'days'
p5452
aS'off'
p5453
asg10
S'JKSC gives a few days off '
p5454
sg12
S' and every student loses his mind!!! '
p5455
sg14
Vjoker
p5456
sg16
(lp5457
g5449
ag5450
ag8
ag5451
ag5452
ag5453
aS'and'
p5458
aS'every'
p5459
aS'student'
p5460
aS'loses'
p5461
aS'his'
p5462
aS'mind'
p5463
ag314
ag314
ag314
asg22
(lp5464
g5458
ag5459
ag5460
ag5461
ag5462
ag5463
ag314
ag314
ag314
asba(iMeme
Meme
p5465
(dp5466
g3
(lp5467
S'Get'
p5468
aS'our'
p5469
aS'regions'
p5470
aS'back'
p5471
ag214
aS'nobody'
p5472
aS'noticed'
p5473
asg10
S'Get our regions back, nobody noticed '
p5474
sg12
S' Forget the supplies for a day and everyone loses their mind '
p5475
sg14
Vjoker
p5476
sg16
(lp5477
g5468
ag5469
ag5470
ag5471
ag214
ag5472
ag5473
aS'Forget'
p5478
aS'the'
p5479
aS'supplies'
p5480
aS'for'
p5481
ag8
aS'day'
p5482
aS'and'
p5483
aS'everyone'
p5484
aS'loses'
p5485
aS'their'
p5486
aS'mind'
p5487
asg22
(lp5488
g5478
ag5479
ag5480
ag5481
ag8
ag5482
ag5483
ag5484
ag5485
ag5486
ag5487
asba(iMeme
Meme
p5489
(dp5490
g3
(lp5491
S'atheists'
p5492
aS'start'
p5493
aS'talking'
p5494
aS'about'
p5495
aS'their'
p5496
aS'allah'
p5497
asg10
S'atheists start talking about their allah '
p5498
sg12
S' and moeslems lose their mind '
p5499
sg14
Vjoker
p5500
sg16
(lp5501
g5492
ag5493
ag5494
ag5495
ag5496
ag5497
aS'and'
p5502
aS'moeslems'
p5503
aS'lose'
p5504
aS'their'
p5505
aS'mind'
p5506
asg22
(lp5507
g5502
ag5503
ag5504
ag5505
ag5506
asba(iMeme
Meme
p5508
(dp5509
g3
(lp5510
S'Hasidic'
p5511
aS'Jews'
p5512
aS'with'
p5513
aS'6'
p5514
aS'kids'
p5515
aS'get'
p5516
aS'on'
p5517
aS'the'
p5518
aS'train'
p5519
aS'and'
p5520
aS'nobody'
p5521
aS'bats'
p5522
aS'an'
p5523
aS'eye'
p5524
asg10
S'Hasidic Jews with 6 kids get on the train and nobody bats an eye '
p5525
sg12
S' a mexican family does it and everybody loses their minds!! '
p5526
sg14
Vjoker
p5527
sg16
(lp5528
g5511
ag5512
ag5513
ag5514
ag5515
ag5516
ag5517
ag5518
ag5519
ag5520
ag5521
ag5522
ag5523
ag5524
ag8
aS'mexican'
p5529
aS'family'
p5530
aS'does'
p5531
aS'it'
p5532
aS'and'
p5533
aS'everybody'
p5534
aS'loses'
p5535
aS'their'
p5536
aS'minds'
p5537
ag314
ag314
asg22
(lp5538
g8
ag5529
ag5530
ag5531
ag5532
ag5533
ag5534
ag5535
ag5536
ag5537
ag314
ag314
asba(iMeme
Meme
p5539
(dp5540
g3
(lp5541
S'Make'
p5542
ag8
aS'gay'
p5543
aS'pass'
p5544
aS'sober'
p5545
aS'and'
p5546
aS'no'
p5547
aS'one'
p5548
aS'bats'
p5549
aS'an'
p5550
aS'eye'
p5551
asg10
S'Make a gay pass sober and no one bats an eye '
p5552
sg12
S' But do it drunk with your pants off and everyone loses their minds '
p5553
sg14
Vjoker
p5554
sg16
(lp5555
g5542
ag8
ag5543
ag5544
ag5545
ag5546
ag5547
ag5548
ag5549
ag5550
ag5551
aS'But'
p5556
aS'do'
p5557
aS'it'
p5558
aS'drunk'
p5559
aS'with'
p5560
aS'your'
p5561
aS'pants'
p5562
aS'off'
p5563
aS'and'
p5564
aS'everyone'
p5565
aS'loses'
p5566
aS'their'
p5567
aS'minds'
p5568
asg22
(lp5569
g5556
ag5557
ag5558
ag5559
ag5560
ag5561
ag5562
ag5563
ag5564
ag5565
ag5566
ag5567
ag5568
asba(iMeme
Meme
p5570
(dp5571
g3
(lp5572
g277
aS'almost'
p5573
aS'went'
p5574
aS'to'
p5575
aS'the'
p5576
aS'dark'
p5577
aS'side'
p5578
aS'and'
p5579
asg10
S'I almost went to the dark side and '
p5580
sg12
S' bought a Camaro '
p5581
sg14
Vjoker
p5582
sg16
(lp5583
g277
ag5573
ag5574
ag5575
ag5576
ag5577
ag5578
ag5579
aS'bought'
p5584
ag8
aS'Camaro'
p5585
asg22
(lp5586
g5584
ag8
ag5585
asba(iMeme
Meme
p5587
(dp5588
g3
(lp5589
S'Patients'
p5590
aS'call'
p5591
aS'in'
p5592
aS'refills'
p5593
aS'but'
p5594
aS'do'
p5595
aS"n't"
p5596
aS'pick'
p5597
aS'them'
p5598
aS'up'
p5599
aS'for'
p5600
aS'12'
p5601
aS'days'
p5602
aS'and'
p5603
aS'no'
p5604
aS'one'
p5605
aS'says'
p5606
ag8
aS'word'
p5607
asg10
S"Patients call in refills but don't pick them up for 12 days and no one says a word "
p5608
sg12
S' But if you ask them for next day pick up everyone loses their minds '
p5609
sg14
Vjoker
p5610
sg16
(lp5611
g5590
ag5591
ag5592
ag5593
ag5594
ag5595
ag5596
ag5597
ag5598
ag5599
ag5600
ag5601
ag5602
ag5603
ag5604
ag5605
ag5606
ag8
ag5607
aS'But'
p5612
aS'if'
p5613
aS'you'
p5614
aS'ask'
p5615
aS'them'
p5616
aS'for'
p5617
aS'next'
p5618
aS'day'
p5619
aS'pick'
p5620
aS'up'
p5621
aS'everyone'
p5622
aS'loses'
p5623
aS'their'
p5624
aS'minds'
p5625
asg22
(lp5626
g5612
ag5613
ag5614
ag5615
ag5616
ag5617
ag5618
ag5619
ag5620
ag5621
ag5622
ag5623
ag5624
ag5625
asba(iMeme
Meme
p5627
(dp5628
g3
(lp5629
S'Driving'
p5630
aS'on'
p5631
ag8
aS'clear'
p5632
aS'and'
p5633
aS'sunny'
p5634
aS'day'
p5635
aS'no'
p5636
aS'one'
p5637
aS'bats'
p5638
aS'an'
p5639
aS'eye'
p5640
asg10
S'Driving on a clear and sunny day no one bats an eye '
p5641
sg12
S' Any inclement weather and everyone loses their minds '
p5642
sg14
Vjoker
p5643
sg16
(lp5644
g5630
ag5631
ag8
ag5632
ag5633
ag5634
ag5635
ag5636
ag5637
ag5638
ag5639
ag5640
aS'Any'
p5645
aS'inclement'
p5646
aS'weather'
p5647
aS'and'
p5648
aS'everyone'
p5649
aS'loses'
p5650
aS'their'
p5651
aS'minds'
p5652
asg22
(lp5653
g5645
ag5646
ag5647
ag5648
ag5649
ag5650
ag5651
ag5652
asba(iMeme
Meme
p5654
(dp5655
g3
(lp5656
S'Tony'
p5657
aS'Romo'
p5658
aS'Completes'
p5659
aS'Four'
p5660
aS'passes'
p5661
aS'for'
p5662
ag8
aS'Touchdown'
p5663
aS'No'
p5664
aS'one'
p5665
aS'bats'
p5666
aS'an'
p5667
aS'eye'
p5668
asg10
S'Tony Romo Completes Four passes for a Touchdown No one bats an eye '
p5669
sg12
S' But when he throws one interception everyone loses their minds '
p5670
sg14
Vjoker
p5671
sg16
(lp5672
g5657
ag5658
ag5659
ag5660
ag5661
ag5662
ag8
ag5663
ag5664
ag5665
ag5666
ag5667
ag5668
aS'But'
p5673
aS'when'
p5674
aS'he'
p5675
aS'throws'
p5676
aS'one'
p5677
aS'interception'
p5678
aS'everyone'
p5679
aS'loses'
p5680
aS'their'
p5681
aS'minds'
p5682
asg22
(lp5683
g5673
ag5674
ag5675
ag5676
ag5677
ag5678
ag5679
ag5680
ag5681
ag5682
asba(iMeme
Meme
p5684
(dp5685
g3
(lp5686
S'Get'
p5687
ag8
aS'360'
p5688
aS'silent'
p5689
aS'kill'
p5690
asg10
S'Get a 360 silent kill   '
p5691
sg12
S' And everyone loses their minds  '
p5692
sg14
Vjoker
p5693
sg16
(lp5694
g5687
ag8
ag5688
ag5689
ag5690
aS'And'
p5695
aS'everyone'
p5696
aS'loses'
p5697
aS'their'
p5698
aS'minds'
p5699
asg22
(lp5700
g5695
ag5696
ag5697
ag5698
ag5699
asba(iMeme
Meme
p5701
(dp5702
g3
(lp5703
S'lick'
p5704
aS'my'
p5705
aS'dick'
p5706
asg10
S'lick my dick  '
p5707
sg12
S' till it turns to jelly '
p5708
sg14
Vjoker
p5709
sg16
(lp5710
g5704
ag5705
ag5706
aS'till'
p5711
aS'it'
p5712
aS'turns'
p5713
aS'to'
p5714
aS'jelly'
p5715
asg22
(lp5716
g5711
ag5712
ag5713
ag5714
ag5715
asba(iMeme
Meme
p5717
(dp5718
g3
(lp5719
S'roger'
p5720
aS'tumagan'
p5721
aS'ths'
p5722
aS'is'
p5723
aS'why'
p5724
aS'u'
p5725
aS'should'
p5726
asg10
S'roger tumagan ths is why u should '
p5727
sg12
S' never get too damn high u crazy m***********r!!! '
p5728
sg14
Vjoker
p5729
sg16
(lp5730
g5720
ag5721
ag5722
ag5723
ag5724
ag5725
ag5726
aS'never'
p5731
aS'get'
p5732
aS'too'
p5733
aS'damn'
p5734
aS'high'
p5735
ag5725
aS'crazy'
p5736
aS'm***********r'
p5737
ag314
ag314
ag314
asg22
(lp5738
g5731
ag5732
ag5733
ag5734
ag5735
ag5725
ag5736
ag5737
ag314
ag314
ag314
asba(iMeme
Meme
p5739
(dp5740
g3
(lp5741
g8
aS'thousand'
p5742
aS'people'
p5743
aS'die'
p5744
aS'in'
p5745
aS'syria'
p5746
ag214
aS'nobody'
p5747
aS'panics'
p5748
asg10
S'a thousand people die in syria, nobody panics '
p5749
sg12
S' ben affleck becomes batman, everyone loses their minds! '
p5750
sg14
Vjoker
p5751
sg16
(lp5752
g8
ag5742
ag5743
ag5744
ag5745
ag5746
ag214
ag5747
ag5748
aS'ben'
p5753
aS'affleck'
p5754
aS'becomes'
p5755
aS'batman'
p5756
ag214
aS'everyone'
p5757
aS'loses'
p5758
aS'their'
p5759
aS'minds'
p5760
ag314
asg22
(lp5761
g5753
ag5754
ag5755
ag5756
ag214
ag5757
ag5758
ag5759
ag5760
ag314
asba(iMeme
Meme
p5762
(dp5763
g3
(lp5764
S'Show'
p5765
aS'graphic'
p5766
aS'violence'
p5767
aS'and'
p5768
aS'crime'
p5769
aS'on'
p5770
aS'TV'
p5771
aS'and'
p5772
aS'nobody'
p5773
aS'bats'
p5774
aS'an'
p5775
aS'eye'
p5776
asg10
S'Show graphic violence and crime on TV and nobody bats an eye '
p5777
sg12
S' Show a boob or crotch grab and everyone loses their minds '
p5778
sg14
Vjoker
p5779
sg16
(lp5780
g5765
ag5766
ag5767
ag5768
ag5769
ag5770
ag5771
ag5772
ag5773
ag5774
ag5775
ag5776
aS'Show'
p5781
ag8
aS'boob'
p5782
aS'or'
p5783
aS'crotch'
p5784
aS'grab'
p5785
aS'and'
p5786
aS'everyone'
p5787
aS'loses'
p5788
aS'their'
p5789
aS'minds'
p5790
asg22
(lp5791
g5781
ag8
ag5782
ag5783
ag5784
ag5785
ag5786
ag5787
ag5788
ag5789
ag5790
asba(iMeme
Meme
p5792
(dp5793
g3
(lp5794
S'Say'
p5795
aS'``'
p5796
ag277
aS"'m"
p5797
aS'not'
p5798
aS'religious'
p5799
aS"''"
p5800
aS'and'
p5801
aS'nobody'
p5802
aS'panics'
p5803
asg10
S'Say "I\'m not religious" and nobody panics '
p5804
sg12
S' Say "I\'m an atheist" and everyone loses their minds '
p5805
sg14
Vjoker
p5806
sg16
(lp5807
g5795
ag5796
ag277
ag5797
ag5798
ag5799
ag5800
ag5801
ag5802
ag5803
aS'Say'
p5808
aS'``'
p5809
ag277
aS"'m"
p5810
aS'an'
p5811
aS'atheist'
p5812
aS"''"
p5813
aS'and'
p5814
aS'everyone'
p5815
aS'loses'
p5816
aS'their'
p5817
aS'minds'
p5818
asg22
(lp5819
g5808
ag5809
ag277
ag5810
ag5811
ag5812
ag5813
ag5814
ag5815
ag5816
ag5817
ag5818
asba(iMeme
Meme
p5820
(dp5821
g3
(lp5822
S'it'
p5823
aS'was'
p5824
aS'this'
p5825
aS'big'
p5826
aS'...'
p5827
asg10
S'it was this big... '
p5828
sg12
S' and thats what happened to my mouth '
p5829
sg14
Vjoker
p5830
sg16
(lp5831
g5823
ag5824
ag5825
ag5826
ag5827
aS'and'
p5832
aS'thats'
p5833
aS'what'
p5834
aS'happened'
p5835
aS'to'
p5836
aS'my'
p5837
aS'mouth'
p5838
asg22
(lp5839
g5832
ag5833
ag5834
ag5835
ag5836
ag5837
ag5838
asba(iMeme
Meme
p5840
(dp5841
g3
(lp5842
g470
aS'guy'
p5843
aS'scratches'
p5844
aS'their'
p5845
aS'balls'
p5846
aS'in'
p5847
aS'public'
p5848
aS'and'
p5849
aS'no'
p5850
aS'one'
p5851
aS'bats'
p5852
aS'an'
p5853
aS'eye'
p5854
asg10
S'A guy scratches their balls in public and no one bats an eye '
p5855
sg12
S' A woman scratches their vaginas in public and everyone loses their minds '
p5856
sg14
Vjoker
p5857
sg16
(lp5858
g470
ag5843
ag5844
ag5845
ag5846
ag5847
ag5848
ag5849
ag5850
ag5851
ag5852
ag5853
ag5854
ag470
aS'woman'
p5859
aS'scratches'
p5860
aS'their'
p5861
aS'vaginas'
p5862
aS'in'
p5863
aS'public'
p5864
aS'and'
p5865
aS'everyone'
p5866
aS'loses'
p5867
aS'their'
p5868
aS'minds'
p5869
asg22
(lp5870
g470
ag5859
ag5860
ag5861
ag5862
ag5863
ag5864
ag5865
ag5866
ag5867
ag5868
ag5869
asba(iMeme
Meme
p5871
(dp5872
g3
(lp5873
S'But'
p5874
ag277
aS'put'
p5875
aS'on'
p5876
aS'an'
p5877
aS'Obama'
p5878
aS'mask'
p5879
asg10
S'But I put on an Obama mask '
p5880
sg12
S' And everyone loses their minds. '
p5881
sg14
Vjoker
p5882
sg16
(lp5883
g5874
ag277
ag5875
ag5876
ag5877
ag5878
ag5879
aS'And'
p5884
aS'everyone'
p5885
aS'loses'
p5886
aS'their'
p5887
aS'minds'
p5888
ag226
asg22
(lp5889
g5884
ag5885
ag5886
ag5887
ag5888
ag226
asba(iMeme
Meme
p5890
(dp5891
g3
(lp5892
S'kanye'
p5893
aS'and'
p5894
aS'kim'
p5895
aS'have'
p5896
ag8
aS'babie'
p5897
aS'and'
p5898
aS'no'
p5899
aS'one'
p5900
aS'bats'
p5901
aS'an'
p5902
aS'eye'
p5903
asg10
S'kanye and kim have a babie and no one bats an eye '
p5904
sg12
S' have a royal babie and everyone losses their minds '
p5905
sg14
Vjoker
p5906
sg16
(lp5907
g5893
ag5894
ag5895
ag5896
ag8
ag5897
ag5898
ag5899
ag5900
ag5901
ag5902
ag5903
aS'have'
p5908
ag8
aS'royal'
p5909
aS'babie'
p5910
aS'and'
p5911
aS'everyone'
p5912
aS'losses'
p5913
aS'their'
p5914
aS'minds'
p5915
asg22
(lp5916
g5908
ag8
ag5909
ag5910
ag5911
ag5912
ag5913
ag5914
ag5915
asba(iMeme
Meme
p5917
(dp5918
g3
(lp5919
S'according'
p5920
aS'to'
p5921
aS'my'
p5922
aS'calculations'
p5923
asg10
S'according to my calculations '
p5924
sg12
S' we can make you smile this wide '
p5925
sg14
Vjoker
p5926
sg16
(lp5927
g5920
ag5921
ag5922
ag5923
aS'we'
p5928
aS'can'
p5929
aS'make'
p5930
aS'you'
p5931
aS'smile'
p5932
aS'this'
p5933
aS'wide'
p5934
asg22
(lp5935
g5928
ag5929
ag5930
ag5931
ag5932
ag5933
ag5934
asba(iMeme
Meme
p5936
(dp5937
g3
(lp5938
S'Your'
p5939
aS'rent'
p5940
aS'is'
p5941
ag3841
aS'200'
p5942
aS'please'
p5943
asg10
S'Your rent is $200 please '
p5944
sg12
S" Don't say Turn up "
p5945
sg14
Vjoker
p5946
sg16
(lp5947
g5939
ag5940
ag5941
ag3841
ag5942
ag5943
aS'Do'
p5948
aS"n't"
p5949
aS'say'
p5950
aS'Turn'
p5951
aS'up'
p5952
asg22
(lp5953
g5948
ag5949
ag5950
ag5951
ag5952
asba(iMeme
Meme
p5954
(dp5955
g3
(lp5956
S'tell'
p5957
aS'people'
p5958
aS'you'
p5959
aS'belive'
p5960
aS'in'
p5961
aS'god'
p5962
ag2311
aS's'
p5963
ag2314
aS'and'
p5964
aS'no'
p5965
aS'one'
p5966
aS'bats'
p5967
aS'an'
p5968
aS'eye'
p5969
asg10
S'tell people you belive in god(s) and no one bats an eye '
p5970
sg12
S' tell then you belive in alians and everyone loses their mind '
p5971
sg14
Vjoker
p5972
sg16
(lp5973
g5957
ag5958
ag5959
ag5960
ag5961
ag5962
ag2311
ag5963
ag2314
ag5964
ag5965
ag5966
ag5967
ag5968
ag5969
aS'tell'
p5974
aS'then'
p5975
aS'you'
p5976
aS'belive'
p5977
aS'in'
p5978
aS'alians'
p5979
aS'and'
p5980
aS'everyone'
p5981
aS'loses'
p5982
aS'their'
p5983
aS'mind'
p5984
asg22
(lp5985
g5974
ag5975
ag5976
ag5977
ag5978
ag5979
ag5980
ag5981
ag5982
ag5983
ag5984
asba(iMeme
Meme
p5986
(dp5987
g3
(lp5988
S'Many'
p5989
aS'people'
p5990
aS'were'
p5991
aS'shot'
p5992
aS'dead'
p5993
aS'recently'
p5994
aS'and'
p5995
aS'no'
p5996
aS'one'
p5997
aS'cares'
p5998
asg10
S'Many people were shot dead recently and no one cares '
p5999
sg12
S' Fuel rise by RM0.20 and everybody loses their minds '
p6000
sg14
Vjoker
p6001
sg16
(lp6002
g5989
ag5990
ag5991
ag5992
ag5993
ag5994
ag5995
ag5996
ag5997
ag5998
aS'Fuel'
p6003
aS'rise'
p6004
aS'by'
p6005
aS'RM0.20'
p6006
aS'and'
p6007
aS'everybody'
p6008
aS'loses'
p6009
aS'their'
p6010
aS'minds'
p6011
asg22
(lp6012
g6003
ag6004
ag6005
ag6006
ag6007
ag6008
ag6009
ag6010
ag6011
asba(iMeme
Meme
p6013
(dp6014
g3
(lp6015
S'talk'
p6016
aS'about'
p6017
aS'sharknado'
p6018
aS'and'
p6019
aS'no'
p6020
aS'one'
p6021
aS'bats'
p6022
aS'an'
p6023
aS'eye'
p6024
asg10
S'talk about sharknado and no one bats an eye '
p6025
sg12
S' talk about the royal baby and everyone losses their mind '
p6026
sg14
Vjoker
p6027
sg16
(lp6028
g6016
ag6017
ag6018
ag6019
ag6020
ag6021
ag6022
ag6023
ag6024
aS'talk'
p6029
aS'about'
p6030
aS'the'
p6031
aS'royal'
p6032
aS'baby'
p6033
aS'and'
p6034
aS'everyone'
p6035
aS'losses'
p6036
aS'their'
p6037
aS'mind'
p6038
asg22
(lp6039
g6029
ag6030
ag6031
ag6032
ag6033
ag6034
ag6035
ag6036
ag6037
ag6038
asba(iMeme
Meme
p6040
(dp6041
g3
(lp6042
S'Call'
p6043
ag8
aS'girl'
p6044
aS'beautiful'
p6045
ag8
aS'thousand'
p6046
aS'times'
p6047
aS'and'
p6048
aS'she'
p6049
aS'wont'
p6050
aS'believe'
p6051
aS'you'
p6052
asg10
S'Call a girl beautiful a thousand times and she wont believe you '
p6053
sg12
S' call her fat once and everybody loses there mind '
p6054
sg14
Vjoker
p6055
sg16
(lp6056
g6043
ag8
ag6044
ag6045
ag8
ag6046
ag6047
ag6048
ag6049
ag6050
ag6051
ag6052
aS'call'
p6057
aS'her'
p6058
aS'fat'
p6059
aS'once'
p6060
aS'and'
p6061
aS'everybody'
p6062
aS'loses'
p6063
aS'there'
p6064
aS'mind'
p6065
asg22
(lp6066
g6057
ag6058
ag6059
ag6060
ag6061
ag6062
ag6063
ag6064
ag6065
asba(iMeme
Meme
p6067
(dp6068
g3
(lp6069
S'Black'
p6070
aS'guy'
p6071
aS'says'
p6072
aS'``'
p6073
aS'gay'
p6074
aS'butt'
p6075
aS'fogtag'
p6076
aS"''"
p6077
aS'and'
p6078
aS'no'
p6079
aS'one'
p6080
aS'cares'
p6081
ag214
aS'white'
p6082
aS'guy'
p6083
aS'drops'
p6084
aS'N'
p6085
aS'bomb'
p6086
asg10
S'Black guy says "gay butt fogtag" and no one cares, white guy drops N bomb '
p6087
sg12
S' And everyne loses their mind '
p6088
sg14
Vjoker
p6089
sg16
(lp6090
g6070
ag6071
ag6072
ag6073
ag6074
ag6075
ag6076
ag6077
ag6078
ag6079
ag6080
ag6081
ag214
ag6082
ag6083
ag6084
ag6085
ag6086
aS'And'
p6091
aS'everyne'
p6092
aS'loses'
p6093
aS'their'
p6094
aS'mind'
p6095
asg22
(lp6096
g6091
ag6092
ag6093
ag6094
ag6095
asba(iMeme
Meme
p6097
(dp6098
g3
(lp6099
S'Cough'
p6100
aS'or'
p6101
aS'sneeze'
p6102
aS'in'
p6103
aS'public'
p6104
aS'and'
p6105
aS'nobody'
p6106
aS'bats'
p6107
aS'an'
p6108
aS'eye'
p6109
asg10
S'Cough or sneeze in public and nobody bats an eye '
p6110
sg12
S' Fart or burp in public and everybody loses their minds '
p6111
sg14
Vjoker
p6112
sg16
(lp6113
g6100
ag6101
ag6102
ag6103
ag6104
ag6105
ag6106
ag6107
ag6108
ag6109
aS'Fart'
p6114
aS'or'
p6115
aS'burp'
p6116
aS'in'
p6117
aS'public'
p6118
aS'and'
p6119
aS'everybody'
p6120
aS'loses'
p6121
aS'their'
p6122
aS'minds'
p6123
asg22
(lp6124
g6114
ag6115
ag6116
ag6117
ag6118
ag6119
ag6120
ag6121
ag6122
ag6123
asba(iMeme
Meme
p6125
(dp6126
g3
(lp6127
S'set'
p6128
aS'your'
p6129
aS'monitor'
p6130
aS'brighter'
p6131
aS'than'
p6132
aS'the'
p6133
aS'sun'
p6134
aS'and'
p6135
aS'noboby'
p6136
aS'bats'
p6137
aS'an'
p6138
aS'eye'
p6139
asg10
S'set your monitor brighter than the sun and noboby bats an eye '
p6140
sg12
S' sit in a windowed office with no lights on and everyone loses their minds '
p6141
sg14
Vjoker
p6142
sg16
(lp6143
g6128
ag6129
ag6130
ag6131
ag6132
ag6133
ag6134
ag6135
ag6136
ag6137
ag6138
ag6139
aS'sit'
p6144
aS'in'
p6145
ag8
aS'windowed'
p6146
aS'office'
p6147
aS'with'
p6148
aS'no'
p6149
aS'lights'
p6150
aS'on'
p6151
aS'and'
p6152
aS'everyone'
p6153
aS'loses'
p6154
aS'their'
p6155
aS'minds'
p6156
asg22
(lp6157
g6144
ag6145
ag8
ag6146
ag6147
ag6148
ag6149
ag6150
ag6151
ag6152
ag6153
ag6154
ag6155
ag6156
asba(iMeme
Meme
p6158
(dp6159
g3
(lp6160
S'Desean'
p6161
aS'calls'
p6162
ag8
aS'fan'
p6163
aS'``'
p6164
aS'gay'
p6165
aS'ass'
p6166
aS'faggot'
p6167
aS"''"
p6168
aS'and'
p6169
aS'no'
p6170
aS'one'
p6171
aS'cares'
p6172
ag214
aS'Cooper'
p6173
aS'drops'
p6174
aS'the'
p6175
ag6085
aS'bomb'
p6176
asg10
S'Desean calls a fan "gay ass faggot" and no one cares, Cooper drops the N bomb '
p6177
sg12
S' And everyone loses their mind '
p6178
sg14
Vjoker
p6179
sg16
(lp6180
g6161
ag6162
ag8
ag6163
ag6164
ag6165
ag6166
ag6167
ag6168
ag6169
ag6170
ag6171
ag6172
ag214
ag6173
ag6174
ag6175
ag6085
ag6176
aS'And'
p6181
aS'everyone'
p6182
aS'loses'
p6183
aS'their'
p6184
aS'mind'
p6185
asg22
(lp6186
g6181
ag6182
ag6183
ag6184
ag6185
asba(iMeme
Meme
p6187
(dp6188
g3
(lp6189
S'raise'
p6190
aS'mandatory'
p6191
aS'fees'
p6192
aS'by'
p6193
ag3841
aS'50'
p6194
aS'and'
p6195
aS'no'
p6196
aS'one'
p6197
aS'bats'
p6198
aS'an'
p6199
aS'eye'
p6200
asg10
S'raise mandatory fees by $50 and no one bats an eye '
p6201
sg12
S' raise tuition by $250 and everybody loses their minds '
p6202
sg14
Vjoker
p6203
sg16
(lp6204
g6190
ag6191
ag6192
ag6193
ag3841
ag6194
ag6195
ag6196
ag6197
ag6198
ag6199
ag6200
aS'raise'
p6205
aS'tuition'
p6206
aS'by'
p6207
ag3841
aS'250'
p6208
aS'and'
p6209
aS'everybody'
p6210
aS'loses'
p6211
aS'their'
p6212
aS'minds'
p6213
asg22
(lp6214
g6205
ag6206
ag6207
ag3841
ag6208
ag6209
ag6210
ag6211
ag6212
ag6213
asba(iMeme
Meme
p6215
(dp6216
g3
(lp6217
S'charge'
p6218
ag8
aS'customer'
p6219
aS'full'
p6220
aS'price'
p6221
aS'and'
p6222
aS'nobody'
p6223
aS'cares'
p6224
asg10
S'charge a customer full price and nobody cares '
p6225
sg12
S' use a coupon and pocket the difference and everyone loses their minds '
p6226
sg14
Vjoker
p6227
sg16
(lp6228
g6218
ag8
ag6219
ag6220
ag6221
ag6222
ag6223
ag6224
aS'use'
p6229
ag8
aS'coupon'
p6230
aS'and'
p6231
aS'pocket'
p6232
aS'the'
p6233
aS'difference'
p6234
aS'and'
p6235
aS'everyone'
p6236
aS'loses'
p6237
aS'their'
p6238
aS'minds'
p6239
asg22
(lp6240
g6229
ag8
ag6230
ag6231
ag6232
ag6233
ag6234
ag6235
ag6236
ag6237
ag6238
ag6239
asba(iMeme
Meme
p6241
(dp6242
g3
(lp6243
S'use'
p6244
aS'the'
p6245
aS'imperial'
p6246
aS'system'
p6247
asg10
S'use the imperial system '
p6248
sg12
S' and everybody loses their minds '
p6249
sg14
Vjoker
p6250
sg16
(lp6251
g6244
ag6245
ag6246
ag6247
aS'and'
p6252
aS'everybody'
p6253
aS'loses'
p6254
aS'their'
p6255
aS'minds'
p6256
asg22
(lp6257
g6252
ag6253
ag6254
ag6255
ag6256
asba(iMeme
Meme
p6258
(dp6259
g3
(lp6260
S'mothers'
p6261
aS'happily'
p6262
aS'changing'
p6263
aS'dirty'
p6264
aS'diapers'
p6265
aS'at'
p6266
aS'the'
p6267
aS'park'
p6268
aS'today'
p6269
asg10
S'mothers happily changing dirty diapers at the park today '
p6270
sg12
S' Let your kid pee on a tree and every loses their minds '
p6271
sg14
Vjoker
p6272
sg16
(lp6273
g6261
ag6262
ag6263
ag6264
ag6265
ag6266
ag6267
ag6268
ag6269
aS'Let'
p6274
aS'your'
p6275
aS'kid'
p6276
aS'pee'
p6277
aS'on'
p6278
ag8
aS'tree'
p6279
aS'and'
p6280
aS'every'
p6281
aS'loses'
p6282
aS'their'
p6283
aS'minds'
p6284
asg22
(lp6285
g6274
ag6275
ag6276
ag6277
ag6278
ag8
ag6279
ag6280
ag6281
ag6282
ag6283
ag6284
asba.