(lp0
(iMeme
Meme
p1
(dp2
S'top_text'
p3
(lp4
S'want'
p5
aS'to'
p6
aS'prove'
p7
aS'you'
p8
aS"'re"
p9
aS'an'
p10
aS'expert'
p11
aS'on'
p12
aS'something'
p13
aS'?'
p14
asS'top_text_raw'
p15
S"want to prove you're an expert on something? "
p16
sS'bottom_text_raw'
p17
S'  '
p18
sS'meme_type'
p19
Vmalicious-advice-mallard
p20
sS'all_text'
p21
(lp22
g5
ag6
ag7
ag8
ag9
ag10
ag11
ag12
ag13
ag14
asS'bottom_text'
p23
(lp24
sba(iMeme
Meme
p25
(dp26
g3
(lp27
S'Want'
p28
aS'to'
p29
aS'be'
p30
aS'Popular'
p31
aS'on'
p32
aS'Reddit'
p33
ag14
asg15
S'Want to be Popular on Reddit? '
p34
sg17
S' Post pictures of dead kittens. Redditors hate cats '
p35
sg19
Vmalicious-advice-mallard
p36
sg21
(lp37
g28
ag29
ag30
ag31
ag32
ag33
ag14
aS'Post'
p38
aS'pictures'
p39
aS'of'
p40
aS'dead'
p41
aS'kittens'
p42
aS'.'
p43
aS'Redditors'
p44
aS'hate'
p45
aS'cats'
p46
asg23
(lp47
g38
ag39
ag40
ag41
ag42
ag43
ag44
ag45
ag46
asba(iMeme
Meme
p48
(dp49
g3
(lp50
S'True'
p51
aS'fact'
p52
aS':'
p53
asg15
S'True fact: '
p54
sg17
S' MOre gullible people are born on February 31 than any other date '
p55
sg19
Vmalicious-advice-mallard
p56
sg21
(lp57
g51
ag52
ag53
aS'MOre'
p58
aS'gullible'
p59
aS'people'
p60
aS'are'
p61
aS'born'
p62
aS'on'
p63
aS'February'
p64
aS'31'
p65
aS'than'
p66
aS'any'
p67
aS'other'
p68
aS'date'
p69
asg23
(lp70
g58
ag59
ag60
ag61
ag62
ag63
ag64
ag65
ag66
ag67
ag68
ag69
asba(iMeme
Meme
p71
(dp72
g3
(lp73
S'Awkward'
p74
aS'Situation'
p75
aS'with'
p76
aS'Ex'
p77
aS'and'
p78
aS'new'
p79
aS'Girlfriend'
p80
ag14
asg15
S'Awkward Situation with Ex and new Girlfriend? '
p81
sg17
S' Suggest Threesome, your GF will totally loose her doubts '
p82
sg19
Vmalicious-advice-mallard
p83
sg21
(lp84
g74
ag75
ag76
ag77
ag78
ag79
ag80
ag14
aS'Suggest'
p85
aS'Threesome'
p86
aS','
p87
aS'your'
p88
aS'GF'
p89
aS'will'
p90
aS'totally'
p91
aS'loose'
p92
aS'her'
p93
aS'doubts'
p94
asg23
(lp95
g85
ag86
ag87
ag88
ag89
ag90
ag91
ag92
ag93
ag94
asba(iMeme
Meme
p96
(dp97
g3
(lp98
S'when'
p99
aS'you'
p100
aS'are'
p101
aS'in'
p102
aS'an'
p103
aS'airport'
p104
ag87
aS'try'
p105
aS'to'
p106
aS'be'
p107
aS'as'
p108
aS'truthful'
p109
aS'as'
p110
aS'possible'
p111
aS'about'
p112
aS'what'
p113
aS'is'
p114
aS'in'
p115
aS'your'
p116
aS'suitcase'
p117
aS'and'
p118
aS'who'
p119
aS'it'
p120
aS"'s"
p121
aS'for'
p122
asg15
S"when you are in an airport, try to be as truthful as possible about what is in your suitcase and who it's for "
p123
sg17
S' the security officers will appreciate your honesty and trust you enough to not make you go through all of the security barriers '
p124
sg19
Vmalicious-advice-mallard
p125
sg21
(lp126
g99
ag100
ag101
ag102
ag103
ag104
ag87
ag105
ag106
ag107
ag108
ag109
ag110
ag111
ag112
ag113
ag114
ag115
ag116
ag117
ag118
ag119
ag120
ag121
ag122
aS'the'
p127
aS'security'
p128
aS'officers'
p129
aS'will'
p130
aS'appreciate'
p131
aS'your'
p132
aS'honesty'
p133
aS'and'
p134
aS'trust'
p135
aS'you'
p136
aS'enough'
p137
aS'to'
p138
aS'not'
p139
aS'make'
p140
aS'you'
p141
aS'go'
p142
aS'through'
p143
aS'all'
p144
aS'of'
p145
aS'the'
p146
aS'security'
p147
aS'barriers'
p148
asg23
(lp149
g127
ag128
ag129
ag130
ag131
ag132
ag133
ag134
ag135
ag136
ag137
ag138
ag139
ag140
ag141
ag142
ag143
ag144
ag145
ag146
ag147
ag148
asba(iMeme
Meme
p150
(dp151
g3
(lp152
S'the'
p153
aS'best'
p154
aS'april'
p155
aS'fool'
p156
aS"'s"
p157
aS'joke'
p158
aS'is'
p159
asg15
S"the best april fool's joke is "
p160
sg17
S' tell everyone that you and your so broke up '
p161
sg19
Vmalicious-advice-mallard
p162
sg21
(lp163
g153
ag154
ag155
ag156
ag157
ag158
ag159
aS'tell'
p164
aS'everyone'
p165
aS'that'
p166
aS'you'
p167
aS'and'
p168
aS'your'
p169
aS'so'
p170
aS'broke'
p171
aS'up'
p172
asg23
(lp173
g164
ag165
ag166
ag167
ag168
ag169
ag170
ag171
ag172
asba(iMeme
Meme
p174
(dp175
g3
(lp176
S'If'
p177
aS'you'
p178
aS'fart'
p179
aS'in'
p180
aS'public'
p181
asg15
S'If you fart in public '
p182
sg17
S' tell people they will understand it is a natural thing '
p183
sg19
Vmalicious-advice-mallard
p184
sg21
(lp185
g177
ag178
ag179
ag180
ag181
aS'tell'
p186
aS'people'
p187
aS'they'
p188
aS'will'
p189
aS'understand'
p190
aS'it'
p191
aS'is'
p192
aS'a'
p193
aS'natural'
p194
aS'thing'
p195
asg23
(lp196
g186
ag187
ag188
ag189
ag190
ag191
ag192
ag193
ag194
ag195
asba(iMeme
Meme
p197
(dp198
g3
(lp199
S'put'
p200
aS'all'
p201
aS'your'
p202
aS'money'
p203
asg15
S'put all your money '
p204
sg17
S' In blockbuster stock '
p205
sg19
Vmalicious-advice-mallard
p206
sg21
(lp207
g200
ag201
ag202
ag203
aS'In'
p208
aS'blockbuster'
p209
aS'stock'
p210
asg23
(lp211
g208
ag209
ag210
asba(iMeme
Meme
p212
(dp213
g3
(lp214
S'The'
p215
aS'best'
p216
aS'april'
p217
aS'Fool'
p218
aS"'s"
p219
aS'joke'
p220
aS'is'
p221
asg15
S"The best april Fool's joke is  "
p222
sg17
S' to tell everyone that you and your so broke up '
p223
sg19
Vmalicious-advice-mallard
p224
sg21
(lp225
g215
ag216
ag217
ag218
ag219
ag220
ag221
aS'to'
p226
aS'tell'
p227
aS'everyone'
p228
aS'that'
p229
aS'you'
p230
aS'and'
p231
aS'your'
p232
aS'so'
p233
aS'broke'
p234
aS'up'
p235
asg23
(lp236
g226
ag227
ag228
ag229
ag230
ag231
ag232
ag233
ag234
ag235
asba(iMeme
Meme
p237
(dp238
g3
(lp239
S'reviewing'
p240
aS'your'
p241
aS'past'
p242
aS'exam'
p243
aS'papers'
p244
aS'only'
p245
asg15
S'reviewing your past exam papers only '
p246
sg17
S' is more than enough to past and get a high mark '
p247
sg19
Vmalicious-advice-mallard
p248
sg21
(lp249
g240
ag241
ag242
ag243
ag244
ag245
aS'is'
p250
aS'more'
p251
aS'than'
p252
aS'enough'
p253
aS'to'
p254
aS'past'
p255
aS'and'
p256
aS'get'
p257
ag193
aS'high'
p258
aS'mark'
p259
asg23
(lp260
g250
ag251
ag252
ag253
ag254
ag255
ag256
ag257
ag193
ag258
ag259
asba(iMeme
Meme
p261
(dp262
g3
(lp263
S'because'
p264
aS'TOMORROW'
p265
aS'is'
p266
aS'april'
p267
aS'1st'
p268
asg15
S'because TOMORROW is april 1st '
p269
sg17
S'  '
p270
sg19
Vmalicious-advice-mallard
p271
sg21
(lp272
g264
ag265
ag266
ag267
ag268
asg23
(lp273
sba(iMeme
Meme
p274
(dp275
g3
(lp276
S'things'
p277
aS'already'
p278
aS'complicated'
p279
ag14
asg15
S'things already complicated? '
p280
sg17
S' you should kiss. that will make things easier '
p281
sg19
Vmalicious-advice-mallard
p282
sg21
(lp283
g277
ag278
ag279
ag14
aS'you'
p284
aS'should'
p285
aS'kiss'
p286
ag43
aS'that'
p287
aS'will'
p288
aS'make'
p289
aS'things'
p290
aS'easier'
p291
asg23
(lp292
g284
ag285
ag286
ag43
ag287
ag288
ag289
ag290
ag291
asba(iMeme
Meme
p293
(dp294
g3
(lp295
S'Do'
p296
aS"n't"
p297
aS'use'
p298
aS'your'
p299
aS'turn'
p300
aS'signal'
p301
ag87
aS'ever'
p302
ag43
asg15
S"Don't use your turn signal, ever. "
p303
sg17
S' it makes it easier for criminals to follow you. '
p304
sg19
Vmalicious-advice-mallard
p305
sg21
(lp306
g296
ag297
ag298
ag299
ag300
ag301
ag87
ag302
ag43
aS'it'
p307
aS'makes'
p308
aS'it'
p309
aS'easier'
p310
aS'for'
p311
aS'criminals'
p312
aS'to'
p313
aS'follow'
p314
aS'you'
p315
ag43
asg23
(lp316
g307
ag308
ag309
ag310
ag311
ag312
ag313
ag314
ag315
ag43
asba(iMeme
Meme
p317
(dp318
g3
(lp319
S'because'
p320
aS'tomorrow'
p321
aS'is'
p322
aS'april'
p323
aS'1st'
p324
asg15
S'because tomorrow is april 1st '
p325
sg17
S' you should listen to everything i tell you '
p326
sg19
Vmalicious-advice-mallard
p327
sg21
(lp328
g320
ag321
ag322
ag323
ag324
aS'you'
p329
aS'should'
p330
aS'listen'
p331
aS'to'
p332
aS'everything'
p333
aS'i'
p334
aS'tell'
p335
aS'you'
p336
asg23
(lp337
g329
ag330
ag331
ag332
ag333
ag334
ag335
ag336
asba(iMeme
Meme
p338
(dp339
g3
(lp340
S'Chrome'
p341
aS'freezes'
p342
aS'and'
p343
aS'you'
p344
aS'ca'
p345
aS"n't"
p346
aS'close'
p347
ag193
aS'tab'
p348
ag14
asg15
S"Chrome freezes and you can't close a tab? "
p349
sg17
S' Leave it alone and use internet explorer instead '
p350
sg19
Vmalicious-advice-mallard
p351
sg21
(lp352
g341
ag342
ag343
ag344
ag345
ag346
ag347
ag193
ag348
ag14
aS'Leave'
p353
aS'it'
p354
aS'alone'
p355
aS'and'
p356
aS'use'
p357
aS'internet'
p358
aS'explorer'
p359
aS'instead'
p360
asg23
(lp361
g353
ag354
ag355
ag356
ag357
ag358
ag359
ag360
asba(iMeme
Meme
p362
(dp363
g3
(lp364
S'Instead'
p365
aS'of'
p366
aS'buying'
p367
aS'two'
p368
aS'leashes'
p369
aS'to'
p370
aS'walk'
p371
aS'your'
p372
aS'dogs'
p373
aS'with'
p374
asg15
S'Instead of buying two leashes to walk your dogs with '
p375
sg17
S' just tie their tails together '
p376
sg19
Vmalicious-advice-mallard
p377
sg21
(lp378
g365
ag366
ag367
ag368
ag369
ag370
ag371
ag372
ag373
ag374
aS'just'
p379
aS'tie'
p380
aS'their'
p381
aS'tails'
p382
aS'together'
p383
asg23
(lp384
g379
ag380
ag381
ag382
ag383
asba(iMeme
Meme
p385
(dp386
g3
(lp387
S'Want'
p388
aS'to'
p389
aS'do'
p390
aS'something'
p391
aS'against'
p392
aS'the'
p393
aS'nsa'
p394
aS'spying'
p395
ag14
asg15
S'Want to do something against the nsa spying? '
p396
sg17
S'  '
p397
sg19
Vmalicious-advice-mallard
p398
sg21
(lp399
g388
ag389
ag390
ag391
ag392
ag393
ag394
ag395
ag14
asg23
(lp400
sba(iMeme
Meme
p401
(dp402
g3
(lp403
S'Put'
p404
aS"'gem"
p405
aS"'"
p406
aS'in'
p407
aS'your'
p408
aS'title'
p409
asg15
S"Put 'gem' in your title "
p410
sg17
S' Bitches love gems '
p411
sg19
Vmalicious-advice-mallard
p412
sg21
(lp413
g404
ag405
ag406
ag407
ag408
ag409
aS'Bitches'
p414
aS'love'
p415
aS'gems'
p416
asg23
(lp417
g414
ag415
ag416
asba(iMeme
Meme
p418
(dp419
g3
(lp420
S'Be'
p421
aS'the'
p422
aS'person'
p423
asg15
S'Be the person '
p424
sg17
S' your cat thinks you are '
p425
sg19
Vmalicious-advice-mallard
p426
sg21
(lp427
g421
ag422
ag423
aS'your'
p428
aS'cat'
p429
aS'thinks'
p430
aS'you'
p431
aS'are'
p432
asg23
(lp433
g428
ag429
ag430
ag431
ag432
asba(iMeme
Meme
p434
(dp435
g3
(lp436
S'I'
p437
aS'dug'
p438
aS'up'
p439
aS'this'
p440
aS'pipe'
p441
asg15
S'I dug up this pipe '
p442
sg17
S' and here i am.! '
p443
sg19
Vmalicious-advice-mallard
p444
sg21
(lp445
g437
ag438
ag439
ag440
ag441
aS'and'
p446
aS'here'
p447
ag334
aS'am'
p448
ag43
aS'!'
p449
asg23
(lp450
g446
ag447
ag334
ag448
ag43
ag449
asba(iMeme
Meme
p451
(dp452
g3
(lp453
S'If'
p454
aS'you'
p455
aS'think'
p456
aS'someone'
p457
aS'is'
p458
aS'more'
p459
aS'attractive'
p460
aS'then'
p461
aS'your'
p462
aS'SO'
p463
aS'you'
p464
aS'should'
p465
aS'let'
p466
aS'your'
p467
aS'SO'
p468
aS'know'
p469
asg15
S'If you think someone is more attractive then your SO you should let your SO know '
p470
sg17
S' Your honesty will be refreshing and helpful to the relationship '
p471
sg19
Vmalicious-advice-mallard
p472
sg21
(lp473
g454
ag455
ag456
ag457
ag458
ag459
ag460
ag461
ag462
ag463
ag464
ag465
ag466
ag467
ag468
ag469
aS'Your'
p474
aS'honesty'
p475
aS'will'
p476
aS'be'
p477
aS'refreshing'
p478
aS'and'
p479
aS'helpful'
p480
aS'to'
p481
aS'the'
p482
aS'relationship'
p483
asg23
(lp484
g474
ag475
ag476
ag477
ag478
ag479
ag480
ag481
ag482
ag483
asba(iMeme
Meme
p485
(dp486
g3
(lp487
S'You'
p488
aS'want'
p489
aS'to'
p490
aS'reach'
p491
aS'out'
p492
aS'to'
p493
aS'other'
p494
aS'demographics'
p495
ag14
asg15
S'You want to reach out to other demographics? '
p496
sg17
S' you should probably start a war on women, continue opposing gay marriage, and increase border security. '
p497
sg19
Vmalicious-advice-mallard
p498
sg21
(lp499
g488
ag489
ag490
ag491
ag492
ag493
ag494
ag495
ag14
aS'you'
p500
aS'should'
p501
aS'probably'
p502
aS'start'
p503
ag193
aS'war'
p504
aS'on'
p505
aS'women'
p506
ag87
aS'continue'
p507
aS'opposing'
p508
aS'gay'
p509
aS'marriage'
p510
ag87
aS'and'
p511
aS'increase'
p512
aS'border'
p513
aS'security'
p514
ag43
asg23
(lp515
g500
ag501
ag502
ag503
ag193
ag504
ag505
ag506
ag87
ag507
ag508
ag509
ag510
ag87
ag511
ag512
ag513
ag514
ag43
asba(iMeme
Meme
p516
(dp517
g3
(lp518
S'if'
p519
aS'you'
p520
aS'want'
p521
ag193
aS'free'
p522
aS'pizza'
p523
asg15
S'if you want a free pizza '
p524
sg17
S' threaten to jump off a bridge '
p525
sg19
Vmalicious-advice-mallard
p526
sg21
(lp527
g519
ag520
ag521
ag193
ag522
ag523
aS'threaten'
p528
aS'to'
p529
aS'jump'
p530
aS'off'
p531
ag193
aS'bridge'
p532
asg23
(lp533
g528
ag529
ag530
ag531
ag193
ag532
asba(iMeme
Meme
p534
(dp535
g3
(lp536
S'when'
p537
aS'you'
p538
aS'are'
p539
aS'in'
p540
aS'an'
p541
aS'airport'
p542
ag87
aS'try'
p543
aS'to'
p544
aS'be'
p545
aS'as'
p546
aS'truthful'
p547
aS'as'
p548
aS'possible'
p549
aS'with'
p550
aS'the'
p551
aS'security'
p552
aS'staff'
p553
aS'about'
p554
aS'what'
p555
aS"'s"
p556
aS'in'
p557
aS'your'
p558
aS'suitcase'
p559
aS'and'
p560
aS'where'
p561
aS'it'
p562
aS"'s"
p563
aS'from'
p564
asg15
S"when you are in an airport, try to be as truthful as possible with the security staff about what's in your suitcase and where it's from "
p565
sg17
S' the security officers will appreciate your honesty and trust you enough to let you skip through the security checkpoints. '
p566
sg19
Vmalicious-advice-mallard
p567
sg21
(lp568
g537
ag538
ag539
ag540
ag541
ag542
ag87
ag543
ag544
ag545
ag546
ag547
ag548
ag549
ag550
ag551
ag552
ag553
ag554
ag555
ag556
ag557
ag558
ag559
ag560
ag561
ag562
ag563
ag564
aS'the'
p569
aS'security'
p570
aS'officers'
p571
aS'will'
p572
aS'appreciate'
p573
aS'your'
p574
aS'honesty'
p575
aS'and'
p576
aS'trust'
p577
aS'you'
p578
aS'enough'
p579
aS'to'
p580
aS'let'
p581
aS'you'
p582
aS'skip'
p583
aS'through'
p584
aS'the'
p585
aS'security'
p586
aS'checkpoints'
p587
ag43
asg23
(lp588
g569
ag570
ag571
ag572
ag573
ag574
ag575
ag576
ag577
ag578
ag579
ag580
ag581
ag582
ag583
ag584
ag585
ag586
ag587
ag43
asba(iMeme
Meme
p589
(dp590
g3
(lp591
S'Bitch'
p592
aS'im'
p593
aS'red'
p594
asg15
S'Bitch im red '
p595
sg17
S' deal wiv it '
p596
sg19
Vmalicious-advice-mallard
p597
sg21
(lp598
g592
ag593
ag594
aS'deal'
p599
aS'wiv'
p600
aS'it'
p601
asg23
(lp602
g599
ag600
ag601
asba(iMeme
Meme
p603
(dp604
g3
(lp605
S'fall'
p606
aS'in'
p607
aS'love'
p608
aS'with'
p609
aS'your'
p610
aS'hot'
p611
ag87
aS'kind'
p612
aS'and'
p613
aS'sweet'
p614
aS'professor'
p615
aS'at'
p616
aS'university'
p617
asg15
S'fall in love with your hot, kind and sweet professor at university '
p618
sg17
S' he will leave his gf and career to love you back '
p619
sg19
Vmalicious-advice-mallard
p620
sg21
(lp621
g606
ag607
ag608
ag609
ag610
ag611
ag87
ag612
ag613
ag614
ag615
ag616
ag617
aS'he'
p622
aS'will'
p623
aS'leave'
p624
aS'his'
p625
aS'gf'
p626
aS'and'
p627
aS'career'
p628
aS'to'
p629
aS'love'
p630
aS'you'
p631
aS'back'
p632
asg23
(lp633
g622
ag623
ag624
ag625
ag626
ag627
ag628
ag629
ag630
ag631
ag632
asba(iMeme
Meme
p634
(dp635
g3
(lp636
S'Looking'
p637
aS'for'
p638
aS'money'
p639
ag14
asg15
S'Looking for money? '
p640
sg17
S' Sell meth to kids '
p641
sg19
Vmalicious-advice-mallard
p642
sg21
(lp643
g637
ag638
ag639
ag14
aS'Sell'
p644
aS'meth'
p645
aS'to'
p646
aS'kids'
p647
asg23
(lp648
g644
ag645
ag646
ag647
asba(iMeme
Meme
p649
(dp650
g3
(lp651
S'going'
p652
aS'to'
p653
ag193
aS'country'
p654
aS'that'
p655
aS'drives'
p656
aS'on'
p657
aS'the'
p658
aS'other'
p659
aS'side'
p660
ag14
asg15
S'going to a country that drives on the other side? '
p661
sg17
S" practice at home. It's a great way to make sure you are safe abroad "
p662
sg19
Vmalicious-advice-mallard
p663
sg21
(lp664
g652
ag653
ag193
ag654
ag655
ag656
ag657
ag658
ag659
ag660
ag14
aS'practice'
p665
aS'at'
p666
aS'home'
p667
ag43
aS'It'
p668
aS"'s"
p669
ag193
aS'great'
p670
aS'way'
p671
aS'to'
p672
aS'make'
p673
aS'sure'
p674
aS'you'
p675
aS'are'
p676
aS'safe'
p677
aS'abroad'
p678
asg23
(lp679
g665
ag666
ag667
ag43
ag668
ag669
ag193
ag670
ag671
ag672
ag673
ag674
ag675
ag676
ag677
ag678
asba(iMeme
Meme
p680
(dp681
g3
(lp682
S'fall'
p683
aS'for'
p684
aS'your'
p685
aS'young'
p686
ag87
aS'sweet'
p687
aS'and'
p688
aS'goodlooking'
p689
aS'prof'
p690
aS'at'
p691
aS'uni'
p692
asg15
S'fall  for your young,sweet and goodlooking prof at uni '
p693
sg17
S' he will leave his girlfriend and career to love you back '
p694
sg19
Vmalicious-advice-mallard
p695
sg21
(lp696
g683
ag684
ag685
ag686
ag87
ag687
ag688
ag689
ag690
ag691
ag692
aS'he'
p697
aS'will'
p698
aS'leave'
p699
aS'his'
p700
aS'girlfriend'
p701
aS'and'
p702
aS'career'
p703
aS'to'
p704
aS'love'
p705
aS'you'
p706
aS'back'
p707
asg23
(lp708
g697
ag698
ag699
ag700
ag701
ag702
ag703
ag704
ag705
ag706
ag707
asba(iMeme
Meme
p709
(dp710
g3
(lp711
S'Reviewing'
p712
aS'the'
p713
aS'past'
p714
aS'exam'
p715
aS'papers'
p716
aS'only'
p717
asg15
S'Reviewing the past exam papers only '
p718
sg17
S' is more than enough to pass with a high mark '
p719
sg19
Vmalicious-advice-mallard
p720
sg21
(lp721
g712
ag713
ag714
ag715
ag716
ag717
aS'is'
p722
aS'more'
p723
aS'than'
p724
aS'enough'
p725
aS'to'
p726
aS'pass'
p727
aS'with'
p728
ag193
aS'high'
p729
aS'mark'
p730
asg23
(lp731
g722
ag723
ag724
ag725
ag726
ag727
ag728
ag193
ag729
ag730
asba(iMeme
Meme
p732
(dp733
g3
(lp734
S'You'
p735
aS'do'
p736
aS"n't"
p737
aS'need'
p738
aS'to'
p739
aS'learn'
p740
asg15
S"You don't need to learn "
p741
sg17
S' you will succeed on your exams '
p742
sg19
Vmalicious-advice-mallard
p743
sg21
(lp744
g735
ag736
ag737
ag738
ag739
ag740
aS'you'
p745
aS'will'
p746
aS'succeed'
p747
aS'on'
p748
aS'your'
p749
aS'exams'
p750
asg23
(lp751
g745
ag746
ag747
ag748
ag749
ag750
asba(iMeme
Meme
p752
(dp753
g3
(lp754
S'when'
p755
aS'applying'
p756
aS'for'
p757
ag193
aS'job'
p758
asg15
S'when applying for a job '
p759
sg17
S' wear a suit or dress nice. dont wear streetcloths. '
p760
sg19
Vmalicious-advice-mallard
p761
sg21
(lp762
g755
ag756
ag757
ag193
ag758
aS'wear'
p763
ag193
aS'suit'
p764
aS'or'
p765
aS'dress'
p766
aS'nice'
p767
ag43
aS'dont'
p768
aS'wear'
p769
aS'streetcloths'
p770
ag43
asg23
(lp771
g763
ag193
ag764
ag765
ag766
ag767
ag43
ag768
ag769
ag770
ag43
asba(iMeme
Meme
p772
(dp773
g3
(lp774
S'You'
p775
aS'work'
p776
aS'in'
p777
aS'gay'
p778
aS'porn'
p779
aS'and'
p780
aS'your'
p781
aS'family'
p782
aS'does'
p783
aS"n't"
p784
aS'know'
p785
asg15
S"You work in gay porn and your family doesn't know "
p786
sg17
S' do an AMA, they will understand '
p787
sg19
Vmalicious-advice-mallard
p788
sg21
(lp789
g775
ag776
ag777
ag778
ag779
ag780
ag781
ag782
ag783
ag784
ag785
aS'do'
p790
aS'an'
p791
aS'AMA'
p792
ag87
aS'they'
p793
aS'will'
p794
aS'understand'
p795
asg23
(lp796
g790
ag791
ag792
ag87
ag793
ag794
ag795
asba(iMeme
Meme
p797
(dp798
g3
(lp799
S'if'
p800
aS'one'
p801
aS'question'
p802
aS'baffles'
p803
aS'you'
p804
asg15
S'if one question baffles you '
p805
sg17
S' you are absolutely failing. get out of the hall '
p806
sg19
Vmalicious-advice-mallard
p807
sg21
(lp808
g800
ag801
ag802
ag803
ag804
aS'you'
p809
aS'are'
p810
aS'absolutely'
p811
aS'failing'
p812
ag43
aS'get'
p813
aS'out'
p814
aS'of'
p815
aS'the'
p816
aS'hall'
p817
asg23
(lp818
g809
ag810
ag811
ag812
ag43
ag813
ag814
ag815
ag816
ag817
asba(iMeme
Meme
p819
(dp820
g3
(lp821
S'See'
p822
ag193
aS'little'
p823
aS'girl'
p824
aS'get'
p825
aS'kidnapped'
p826
ag14
asg15
S'See a little girl get kidnapped? '
p827
sg17
S' Just stand there and masturbate '
p828
sg19
Vmalicious-advice-mallard
p829
sg21
(lp830
g822
ag193
ag823
ag824
ag825
ag826
ag14
aS'Just'
p831
aS'stand'
p832
aS'there'
p833
aS'and'
p834
aS'masturbate'
p835
asg23
(lp836
g831
ag832
ag833
ag834
ag835
asba(iMeme
Meme
p837
(dp838
g3
(lp839
S'Ignore'
p840
aS'the'
p841
aS'other'
p842
aS'replies'
p843
ag87
ag193
aS'router'
p844
asg15
S'Ignore the other replies, a router '
p845
sg17
S" is perfectly fine for use.  Just don't password lock it. "
p846
sg19
Vmalicious-advice-mallard
p847
sg21
(lp848
g840
ag841
ag842
ag843
ag87
ag193
ag844
aS'is'
p849
aS'perfectly'
p850
aS'fine'
p851
aS'for'
p852
aS'use'
p853
ag43
aS'Just'
p854
aS'do'
p855
aS"n't"
p856
aS'password'
p857
aS'lock'
p858
aS'it'
p859
ag43
asg23
(lp860
g849
ag850
ag851
ag852
ag853
ag43
ag854
ag855
ag856
ag857
ag858
ag859
ag43
asba(iMeme
Meme
p861
(dp862
g3
(lp863
S'Want'
p864
aS'to'
p865
aS'be'
p866
aS'at'
p867
aS'work'
p868
aS'early'
p869
aS'in'
p870
aS'the'
p871
aS'morning'
p872
ag14
asg15
S'Want to be at work early in the morning? '
p873
sg17
S' Go to El Hefe the night before  '
p874
sg19
Vmalicious-advice-mallard
p875
sg21
(lp876
g864
ag865
ag866
ag867
ag868
ag869
ag870
ag871
ag872
ag14
aS'Go'
p877
aS'to'
p878
aS'El'
p879
aS'Hefe'
p880
aS'the'
p881
aS'night'
p882
aS'before'
p883
asg23
(lp884
g877
ag878
ag879
ag880
ag881
ag882
ag883
asba(iMeme
Meme
p885
(dp886
g3
(lp887
sg15
S' '
p888
sg17
S' stop calling me woody!!! '
p889
sg19
Vmalicious-advice-mallard
p890
sg21
(lp891
S'stop'
p892
aS'calling'
p893
aS'me'
p894
aS'woody'
p895
ag449
ag449
ag449
asg23
(lp896
g892
ag893
ag894
ag895
ag449
ag449
ag449
asba(iMeme
Meme
p897
(dp898
g3
(lp899
S'If'
p900
aS'you'
p901
aS"'re"
p902
ag193
aS'cross'
p903
aS'country'
p904
aS'truck'
p905
aS'driver'
p906
asg15
S"If you're a cross country truck driver "
p907
sg17
S' Do meth it will keep you awake for days so you can make more deliveries '
p908
sg19
Vmalicious-advice-mallard
p909
sg21
(lp910
g900
ag901
ag902
ag193
ag903
ag904
ag905
ag906
aS'Do'
p911
aS'meth'
p912
aS'it'
p913
aS'will'
p914
aS'keep'
p915
aS'you'
p916
aS'awake'
p917
aS'for'
p918
aS'days'
p919
aS'so'
p920
aS'you'
p921
aS'can'
p922
aS'make'
p923
aS'more'
p924
aS'deliveries'
p925
asg23
(lp926
g911
ag912
ag913
ag914
ag915
ag916
ag917
ag918
ag919
ag920
ag921
ag922
ag923
ag924
ag925
asba(iMeme
Meme
p927
(dp928
g3
(lp929
S'as'
p930
aS'you'
p931
aS"'re"
p932
aS'leaving'
p933
ag193
aS'retail'
p934
aS'store'
p935
aS'on'
p936
aS'labor'
p937
aS'day'
p938
ag87
aS'say'
p939
ag53
asg15
S"as you're leaving a retail store on labor day, say: "
p940
sg17
S' have a nice holiday! '
p941
sg19
Vmalicious-advice-mallard
p942
sg21
(lp943
g930
ag931
ag932
ag933
ag193
ag934
ag935
ag936
ag937
ag938
ag87
ag939
ag53
aS'have'
p944
ag193
aS'nice'
p945
aS'holiday'
p946
ag449
asg23
(lp947
g944
ag193
ag945
ag946
ag449
asba(iMeme
Meme
p948
(dp949
g3
(lp950
S'Want'
p951
aS'to'
p952
aS'save'
p953
aS'on'
p954
aS'toilet'
p955
aS'paper'
p956
ag14
asg15
S'Want to save on toilet paper? '
p957
sg17
S' Use your boxers  '
p958
sg19
Vmalicious-advice-mallard
p959
sg21
(lp960
g951
ag952
ag953
ag954
ag955
ag956
ag14
aS'Use'
p961
aS'your'
p962
aS'boxers'
p963
asg23
(lp964
g961
ag962
ag963
asba(iMeme
Meme
p965
(dp966
g3
(lp967
S'Want'
p968
aS'good'
p969
aS'service'
p970
ag14
asg15
S'Want good service?  '
p971
sg17
S' Colocrossing '
p972
sg19
Vmalicious-advice-mallard
p973
sg21
(lp974
g968
ag969
ag970
ag14
aS'Colocrossing'
p975
asg23
(lp976
g975
asba(iMeme
Meme
p977
(dp978
g3
(lp979
S'If'
p980
aS'you'
p981
aS'know'
p982
aS'you'
p983
aS"'re"
p984
aS'going'
p985
aS'to'
p986
aS'get'
p987
aS'pepper'
p988
aS'sprayed'
p989
aS'or'
p990
aS'maced'
p991
ag43
asg15
S"If you know you're going to get pepper sprayed or maced. "
p992
sg17
S' Shave you face and balls to make recovering easier. '
p993
sg19
Vmalicious-advice-mallard
p994
sg21
(lp995
g980
ag981
ag982
ag983
ag984
ag985
ag986
ag987
ag988
ag989
ag990
ag991
ag43
aS'Shave'
p996
aS'you'
p997
aS'face'
p998
aS'and'
p999
aS'balls'
p1000
aS'to'
p1001
aS'make'
p1002
aS'recovering'
p1003
aS'easier'
p1004
ag43
asg23
(lp1005
g996
ag997
ag998
ag999
ag1000
ag1001
ag1002
ag1003
ag1004
ag43
asba(iMeme
Meme
p1006
(dp1007
g3
(lp1008
S'if'
p1009
aS'Ms'
p1010
ag43
aS'stevens'
p1011
aS'said'
p1012
aS'something'
p1013
aS'incorrect'
p1014
asg15
S'if Ms. stevens said something incorrect '
p1015
sg17
S" Go ahead and tell her she's wrong. She'll understand. "
p1016
sg19
Vmalicious-advice-mallard
p1017
sg21
(lp1018
g1009
ag1010
ag43
ag1011
ag1012
ag1013
ag1014
aS'Go'
p1019
aS'ahead'
p1020
aS'and'
p1021
aS'tell'
p1022
aS'her'
p1023
aS'she'
p1024
aS"'s"
p1025
aS'wrong'
p1026
ag43
aS'She'
p1027
aS"'ll"
p1028
aS'understand'
p1029
ag43
asg23
(lp1030
g1019
ag1020
ag1021
ag1022
ag1023
ag1024
ag1025
ag1026
ag43
ag1027
ag1028
ag1029
ag43
asba(iMeme
Meme
p1031
(dp1032
g3
(lp1033
S'If'
p1034
aS'you'
p1035
aS'want'
p1036
aS'to'
p1037
aS'get'
p1038
aS'out'
p1039
aS'of'
p1040
aS'work'
p1041
asg15
S'If you want to get out of work '
p1042
sg17
S" Fake a bomb scare with a cheap phone from Walmart and a Darth Vader voice changer.  The FBI won't care. "
p1043
sg19
Vmalicious-advice-mallard
p1044
sg21
(lp1045
g1034
ag1035
ag1036
ag1037
ag1038
ag1039
ag1040
ag1041
aS'Fake'
p1046
ag193
aS'bomb'
p1047
aS'scare'
p1048
aS'with'
p1049
ag193
aS'cheap'
p1050
aS'phone'
p1051
aS'from'
p1052
aS'Walmart'
p1053
aS'and'
p1054
ag193
aS'Darth'
p1055
aS'Vader'
p1056
aS'voice'
p1057
aS'changer'
p1058
ag43
aS'The'
p1059
aS'FBI'
p1060
aS'wo'
p1061
aS"n't"
p1062
aS'care'
p1063
ag43
asg23
(lp1064
g1046
ag193
ag1047
ag1048
ag1049
ag193
ag1050
ag1051
ag1052
ag1053
ag1054
ag193
ag1055
ag1056
ag1057
ag1058
ag43
ag1059
ag1060
ag1061
ag1062
ag1063
ag43
asba(iMeme
Meme
p1065
(dp1066
g3
(lp1067
S'When'
p1068
aS'reporting'
p1069
aS'to'
p1070
aS'your'
p1071
aS'unit'
p1072
aS'from'
p1073
aS'boot'
p1074
aS'camp'
p1075
asg15
S'When reporting to your unit from boot camp '
p1076
sg17
S' act like you know everything already. thats what seamanship class was for '
p1077
sg19
Vmalicious-advice-mallard
p1078
sg21
(lp1079
g1068
ag1069
ag1070
ag1071
ag1072
ag1073
ag1074
ag1075
aS'act'
p1080
aS'like'
p1081
aS'you'
p1082
aS'know'
p1083
aS'everything'
p1084
aS'already'
p1085
ag43
aS'thats'
p1086
aS'what'
p1087
aS'seamanship'
p1088
aS'class'
p1089
aS'was'
p1090
aS'for'
p1091
asg23
(lp1092
g1080
ag1081
ag1082
ag1083
ag1084
ag1085
ag43
ag1086
ag1087
ag1088
ag1089
ag1090
ag1091
asba(iMeme
Meme
p1093
(dp1094
g3
(lp1095
S'Want'
p1096
aS'to'
p1097
aS'be'
p1098
aS'more'
p1099
aS'talkative'
p1100
ag87
aS'outgoing'
p1101
ag87
aS'and'
p1102
aS'provide'
p1103
aS'better'
p1104
aS'customer'
p1105
aS'service'
p1106
aS'at'
p1107
aS'work'
p1108
ag14
asg15
S'Want to be more talkative, outgoing, and provide better customer service at work? '
p1109
sg17
S' Get a good buzz or high before work to be a winner! '
p1110
sg19
Vmalicious-advice-mallard
p1111
sg21
(lp1112
g1096
ag1097
ag1098
ag1099
ag1100
ag87
ag1101
ag87
ag1102
ag1103
ag1104
ag1105
ag1106
ag1107
ag1108
ag14
aS'Get'
p1113
ag193
aS'good'
p1114
aS'buzz'
p1115
aS'or'
p1116
aS'high'
p1117
aS'before'
p1118
aS'work'
p1119
aS'to'
p1120
aS'be'
p1121
ag193
aS'winner'
p1122
ag449
asg23
(lp1123
g1113
ag193
ag1114
ag1115
ag1116
ag1117
ag1118
ag1119
ag1120
ag1121
ag193
ag1122
ag449
asba(iMeme
Meme
p1124
(dp1125
g3
(lp1126
S'If'
p1127
aS'you'
p1128
aS'want'
p1129
aS'to'
p1130
aS'be'
p1131
aS'Taken'
p1132
aS'seriOusly'
p1133
asg15
S'If you want to be Taken seriOusly '
p1134
sg17
S' Use comic sans '
p1135
sg19
Vmalicious-advice-mallard
p1136
sg21
(lp1137
g1127
ag1128
ag1129
ag1130
ag1131
ag1132
ag1133
aS'Use'
p1138
aS'comic'
p1139
aS'sans'
p1140
asg23
(lp1141
g1138
ag1139
ag1140
asba(iMeme
Meme
p1142
(dp1143
g3
(lp1144
S'want'
p1145
aS'you'
p1146
aS'boyfriend'
p1147
aS'to'
p1148
aS'love'
p1149
aS'you'
p1150
ag14
asg15
S'want you boyfriend to love you? '
p1151
sg17
S' get so drunk you vomit and start dancing with other man in front of him  '
p1152
sg19
Vmalicious-advice-mallard
p1153
sg21
(lp1154
g1145
ag1146
ag1147
ag1148
ag1149
ag1150
ag14
aS'get'
p1155
aS'so'
p1156
aS'drunk'
p1157
aS'you'
p1158
aS'vomit'
p1159
aS'and'
p1160
aS'start'
p1161
aS'dancing'
p1162
aS'with'
p1163
aS'other'
p1164
aS'man'
p1165
aS'in'
p1166
aS'front'
p1167
aS'of'
p1168
aS'him'
p1169
asg23
(lp1170
g1155
ag1156
ag1157
ag1158
ag1159
ag1160
ag1161
ag1162
ag1163
ag1164
ag1165
ag1166
ag1167
ag1168
ag1169
asba(iMeme
Meme
p1171
(dp1172
g3
(lp1173
S'violence'
p1174
aS'is'
p1175
aS"n't"
p1176
aS'the'
p1177
aS'answer'
p1178
ag14
asg15
S"violence isn't the answer? "
p1179
sg17
S' i say use nukes '
p1180
sg19
Vmalicious-advice-mallard
p1181
sg21
(lp1182
g1174
ag1175
ag1176
ag1177
ag1178
ag14
ag334
aS'say'
p1183
aS'use'
p1184
aS'nukes'
p1185
asg23
(lp1186
g334
ag1183
ag1184
ag1185
asba(iMeme
Meme
p1187
(dp1188
g3
(lp1189
S'Do'
p1190
aS"n't"
p1191
aS'like'
p1192
aS'the'
p1193
aS'taste'
p1194
aS'of'
p1195
aS'water'
p1196
ag14
asg15
S"Don't like the taste of water? "
p1197
sg17
S' Get stoned '
p1198
sg19
Vmalicious-advice-mallard
p1199
sg21
(lp1200
g1190
ag1191
ag1192
ag1193
ag1194
ag1195
ag1196
ag14
aS'Get'
p1201
aS'stoned'
p1202
asg23
(lp1203
g1201
ag1202
asba(iMeme
Meme
p1204
(dp1205
g3
(lp1206
S'wnat'
p1207
aS'to'
p1208
aS'fix'
p1209
aS'things'
p1210
aS'with'
p1211
aS'your'
p1212
aS'crush'
p1213
ag14
asg15
S'wnat to fix things with your crush? '
p1214
sg17
S' call him angry and drunk '
p1215
sg19
Vmalicious-advice-mallard
p1216
sg21
(lp1217
g1207
ag1208
ag1209
ag1210
ag1211
ag1212
ag1213
ag14
aS'call'
p1218
aS'him'
p1219
aS'angry'
p1220
aS'and'
p1221
aS'drunk'
p1222
asg23
(lp1223
g1218
ag1219
ag1220
ag1221
ag1222
asba(iMeme
Meme
p1224
(dp1225
g3
(lp1226
S'DO'
p1227
aS"n't"
p1228
aS'wan'
p1229
aS'na'
p1230
aS'get'
p1231
aS'pregnant'
p1232
ag14
asg15
S"DOn't wanna get pregnant? "
p1233
sg17
S'  '
p1234
sg19
Vmalicious-advice-mallard
p1235
sg21
(lp1236
g1227
ag1228
ag1229
ag1230
ag1231
ag1232
ag14
asg23
(lp1237
sba(iMeme
Meme
p1238
(dp1239
g3
(lp1240
S'If'
p1241
aS'you'
p1242
aS'want'
p1243
aS'your'
p1244
aS'parents'
p1245
aS'to'
p1246
aS'like'
p1247
aS'you'
p1248
aS'more'
p1249
asg15
S'If you want your parents to like you more '
p1250
sg17
S' say "i know" alot '
p1251
sg19
Vmalicious-advice-mallard
p1252
sg21
(lp1253
g1241
ag1242
ag1243
ag1244
ag1245
ag1246
ag1247
ag1248
ag1249
aS'say'
p1254
aS'``'
p1255
ag334
aS'know'
p1256
aS"''"
p1257
aS'alot'
p1258
asg23
(lp1259
g1254
ag1255
ag334
ag1256
ag1257
ag1258
asba(iMeme
Meme
p1260
(dp1261
g3
(lp1262
S'Whatever'
p1263
aS'you'
p1264
aS'do'
p1265
asg15
S'Whatever you do '
p1266
sg17
S" Don't Trust this advice "
p1267
sg19
Vmalicious-advice-mallard
p1268
sg21
(lp1269
g1263
ag1264
ag1265
aS'Do'
p1270
aS"n't"
p1271
aS'Trust'
p1272
aS'this'
p1273
aS'advice'
p1274
asg23
(lp1275
g1270
ag1271
ag1272
ag1273
ag1274
asba(iMeme
Meme
p1276
(dp1277
g3
(lp1278
S'Reviewing'
p1279
aS'your'
p1280
aS'past'
p1281
aS'papers'
p1282
aS'for'
p1283
aS'your'
p1284
aS'exam'
p1285
asg15
S'Reviewing your past papers for your exam '
p1286
sg17
S' is good enough to get high mark '
p1287
sg19
Vmalicious-advice-mallard
p1288
sg21
(lp1289
g1279
ag1280
ag1281
ag1282
ag1283
ag1284
ag1285
aS'is'
p1290
aS'good'
p1291
aS'enough'
p1292
aS'to'
p1293
aS'get'
p1294
aS'high'
p1295
aS'mark'
p1296
asg23
(lp1297
g1290
ag1291
ag1292
ag1293
ag1294
ag1295
ag1296
asba(iMeme
Meme
p1298
(dp1299
g3
(lp1300
S'Want'
p1301
aS'the'
p1302
aS'US'
p1303
aS'to'
p1304
aS'succeed'
p1305
ag14
asg15
S'Want the US to succeed? '
p1306
sg17
S' vote republican! '
p1307
sg19
Vmalicious-advice-mallard
p1308
sg21
(lp1309
g1301
ag1302
ag1303
ag1304
ag1305
ag14
aS'vote'
p1310
aS'republican'
p1311
ag449
asg23
(lp1312
g1310
ag1311
ag449
asba(iMeme
Meme
p1313
(dp1314
g3
(lp1315
S'If'
p1316
aS'You'
p1317
aS'want'
p1318
aS'your'
p1319
aS'parents'
p1320
aS'to'
p1321
aS'like'
p1322
aS'you'
p1323
asg15
S'If You want your parents to like you '
p1324
sg17
S' say " '
p1325
sg19
Vmalicious-advice-mallard
p1326
sg21
(lp1327
g1316
ag1317
ag1318
ag1319
ag1320
ag1321
ag1322
ag1323
aS'say'
p1328
aS'``'
p1329
asg23
(lp1330
g1328
ag1329
asba(iMeme
Meme
p1331
(dp1332
g3
(lp1333
S'You'
p1334
aS'are'
p1335
aS'new'
p1336
aS'and'
p1337
aS'want'
p1338
aS'link'
p1339
aS'karma'
p1340
ag14
asg15
S'You are new and want link karma? '
p1341
sg17
S' Use hashtags in your titles  '
p1342
sg19
Vmalicious-advice-mallard
p1343
sg21
(lp1344
g1334
ag1335
ag1336
ag1337
ag1338
ag1339
ag1340
ag14
aS'Use'
p1345
aS'hashtags'
p1346
aS'in'
p1347
aS'your'
p1348
aS'titles'
p1349
asg23
(lp1350
g1345
ag1346
ag1347
ag1348
ag1349
asba(iMeme
Meme
p1351
(dp1352
g3
(lp1353
S'Leave'
p1354
aS'it'
p1355
aS'until'
p1356
aS'the'
p1357
aS'last'
p1358
aS'minute'
p1359
asg15
S'Leave it until the last minute '
p1360
sg17
S' it will only take a minute to get done '
p1361
sg19
Vmalicious-advice-mallard
p1362
sg21
(lp1363
g1354
ag1355
ag1356
ag1357
ag1358
ag1359
aS'it'
p1364
aS'will'
p1365
aS'only'
p1366
aS'take'
p1367
ag193
aS'minute'
p1368
aS'to'
p1369
aS'get'
p1370
aS'done'
p1371
asg23
(lp1372
g1364
ag1365
ag1366
ag1367
ag193
ag1368
ag1369
ag1370
ag1371
asba(iMeme
Meme
p1373
(dp1374
g3
(lp1375
S'``'
p1376
aS'Do'
p1377
aS'you'
p1378
aS'know'
p1379
aS'why'
p1380
ag437
aS'pulled'
p1381
aS'you'
p1382
aS'over'
p1383
ag14
aS"''"
p1384
aS'Is'
p1385
aS'cop'
p1386
asg15
S'"Do you know why I pulled you over?" Is cop'
p1387
sg17
S'code for "Are you in law enforcement as well?" '
p1388
sg19
Vmalicious-advice-mallard
p1389
sg21
(lp1390
g1376
ag1377
ag1378
ag1379
ag1380
ag437
ag1381
ag1382
ag1383
ag14
ag1384
ag1385
ag1386
aS'code'
p1391
aS'for'
p1392
aS'``'
p1393
aS'Are'
p1394
aS'you'
p1395
aS'in'
p1396
aS'law'
p1397
aS'enforcement'
p1398
aS'as'
p1399
aS'well'
p1400
ag14
aS"''"
p1401
asg23
(lp1402
g1391
ag1392
ag1393
ag1394
ag1395
ag1396
ag1397
ag1398
ag1399
ag1400
ag14
ag1401
asba(iMeme
Meme
p1403
(dp1404
g3
(lp1405
S'Give'
p1406
aS'your'
p1407
aS'opinion'
p1408
aS'on'
p1409
aS'every'
p1410
aS'statement'
p1411
aS'or'
p1412
aS'rhetorical'
p1413
aS'question'
p1414
aS'posed'
p1415
aS'by'
p1416
aS'your'
p1417
aS'professors'
p1418
ag43
asg15
S'Give your opinion on every statement or rhetorical question posed by your professors. '
p1419
sg17
S' Everyone should know that you are the smartest in the class. '
p1420
sg19
Vmalicious-advice-mallard
p1421
sg21
(lp1422
g1406
ag1407
ag1408
ag1409
ag1410
ag1411
ag1412
ag1413
ag1414
ag1415
ag1416
ag1417
ag1418
ag43
aS'Everyone'
p1423
aS'should'
p1424
aS'know'
p1425
aS'that'
p1426
aS'you'
p1427
aS'are'
p1428
aS'the'
p1429
aS'smartest'
p1430
aS'in'
p1431
aS'the'
p1432
aS'class'
p1433
ag43
asg23
(lp1434
g1423
ag1424
ag1425
ag1426
ag1427
ag1428
ag1429
ag1430
ag1431
ag1432
ag1433
ag43
asba(iMeme
Meme
p1435
(dp1436
g3
(lp1437
S'Surround'
p1438
aS'yourself'
p1439
aS'by'
p1440
aS'ugly'
p1441
aS'people'
p1442
asg15
S'Surround yourself by ugly people '
p1443
sg17
S' That will ensure you to be the pretty one '
p1444
sg19
Vmalicious-advice-mallard
p1445
sg21
(lp1446
g1438
ag1439
ag1440
ag1441
ag1442
aS'That'
p1447
aS'will'
p1448
aS'ensure'
p1449
aS'you'
p1450
aS'to'
p1451
aS'be'
p1452
aS'the'
p1453
aS'pretty'
p1454
aS'one'
p1455
asg23
(lp1456
g1447
ag1448
ag1449
ag1450
ag1451
ag1452
ag1453
ag1454
ag1455
asba(iMeme
Meme
p1457
(dp1458
g3
(lp1459
S'Dry'
p1460
aS'lips'
p1461
ag14
asg15
S'Dry lips? '
p1462
sg17
S' lick them periodically '
p1463
sg19
Vmalicious-advice-mallard
p1464
sg21
(lp1465
g1460
ag1461
ag14
aS'lick'
p1466
aS'them'
p1467
aS'periodically'
p1468
asg23
(lp1469
g1466
ag1467
ag1468
asba(iMeme
Meme
p1470
(dp1471
g3
(lp1472
S'Want'
p1473
aS'to'
p1474
aS'be'
p1475
aS'more'
p1476
aS'social'
p1477
aS'and'
p1478
aS'meet'
p1479
aS'new'
p1480
aS'people'
p1481
ag14
asg15
S'Want to be more social and meet new people? '
p1482
sg17
S" Take up smoking so you can ask to borrow people's lighters. "
p1483
sg19
Vmalicious-advice-mallard
p1484
sg21
(lp1485
g1473
ag1474
ag1475
ag1476
ag1477
ag1478
ag1479
ag1480
ag1481
ag14
aS'Take'
p1486
aS'up'
p1487
aS'smoking'
p1488
aS'so'
p1489
aS'you'
p1490
aS'can'
p1491
aS'ask'
p1492
aS'to'
p1493
aS'borrow'
p1494
aS'people'
p1495
aS"'s"
p1496
aS'lighters'
p1497
ag43
asg23
(lp1498
g1486
ag1487
ag1488
ag1489
ag1490
ag1491
ag1492
ag1493
ag1494
ag1495
ag1496
ag1497
ag43
asba(iMeme
Meme
p1499
(dp1500
g3
(lp1501
S'Rape'
p1502
aS'her'
p1503
aS'so'
p1504
aS'hard'
p1505
asg15
S'Rape her so hard '
p1506
sg17
S' Her vagina evolves '
p1507
sg19
Vmalicious-advice-mallard
p1508
sg21
(lp1509
g1502
ag1503
ag1504
ag1505
aS'Her'
p1510
aS'vagina'
p1511
aS'evolves'
p1512
asg23
(lp1513
g1510
ag1511
ag1512
asba(iMeme
Meme
p1514
(dp1515
g3
(lp1516
S'plaster'
p1517
aS'USA'
p1518
aS'flags'
p1519
aS'all'
p1520
aS'over'
p1521
aS'your'
p1522
aS'luggage'
p1523
asg15
S'plaster USA flags all over your luggage '
p1524
sg17
S' foreigners will see you as powerful, and give you more respect '
p1525
sg19
Vmalicious-advice-mallard
p1526
sg21
(lp1527
g1517
ag1518
ag1519
ag1520
ag1521
ag1522
ag1523
aS'foreigners'
p1528
aS'will'
p1529
aS'see'
p1530
aS'you'
p1531
aS'as'
p1532
aS'powerful'
p1533
ag87
aS'and'
p1534
aS'give'
p1535
aS'you'
p1536
aS'more'
p1537
aS'respect'
p1538
asg23
(lp1539
g1528
ag1529
ag1530
ag1531
ag1532
ag1533
ag87
ag1534
ag1535
ag1536
ag1537
ag1538
asba(iMeme
Meme
p1540
(dp1541
g3
(lp1542
S'Want'
p1543
aS'to'
p1544
aS'be'
p1545
ag193
aS'squadron'
p1546
aS'commander'
p1547
ag14
asg15
S'Want to be a squadron commander? '
p1548
sg17
S' It will help if you are white and male '
p1549
sg19
Vmalicious-advice-mallard
p1550
sg21
(lp1551
g1543
ag1544
ag1545
ag193
ag1546
ag1547
ag14
aS'It'
p1552
aS'will'
p1553
aS'help'
p1554
aS'if'
p1555
aS'you'
p1556
aS'are'
p1557
aS'white'
p1558
aS'and'
p1559
aS'male'
p1560
asg23
(lp1561
g1552
ag1553
ag1554
ag1555
ag1556
ag1557
ag1558
ag1559
ag1560
asba(iMeme
Meme
p1562
(dp1563
g3
(lp1564
S'Want'
p1565
aS'to'
p1566
aS'lose'
p1567
aS'weight'
p1568
aS'fast'
p1569
ag14
asg15
S'Want to lose weight fast? '
p1570
sg17
S' Give as much blood as you can '
p1571
sg19
Vmalicious-advice-mallard
p1572
sg21
(lp1573
g1565
ag1566
ag1567
ag1568
ag1569
ag14
aS'Give'
p1574
aS'as'
p1575
aS'much'
p1576
aS'blood'
p1577
aS'as'
p1578
aS'you'
p1579
aS'can'
p1580
asg23
(lp1581
g1574
ag1575
ag1576
ag1577
ag1578
ag1579
ag1580
asba(iMeme
Meme
p1582
(dp1583
g3
(lp1584
S'When'
p1585
aS'cooking'
p1586
aS'with'
p1587
aS'rhubarb'
p1588
ag87
aS'do'
p1589
aS"n't"
p1590
aS'waste'
p1591
aS'parts'
p1592
aS'of'
p1593
aS'the'
p1594
aS'plant'
p1595
asg15
S"When cooking with rhubarb, don't waste parts of the plant "
p1596
sg17
S' The leaves make a healthy and tasty salad '
p1597
sg19
Vmalicious-advice-mallard
p1598
sg21
(lp1599
g1585
ag1586
ag1587
ag1588
ag87
ag1589
ag1590
ag1591
ag1592
ag1593
ag1594
ag1595
aS'The'
p1600
aS'leaves'
p1601
aS'make'
p1602
ag193
aS'healthy'
p1603
aS'and'
p1604
aS'tasty'
p1605
aS'salad'
p1606
asg23
(lp1607
g1600
ag1601
ag1602
ag193
ag1603
ag1604
ag1605
ag1606
asba(iMeme
Meme
p1608
(dp1609
g3
(lp1610
S'Beer'
p1611
aS'is'
p1612
aS'cheaper'
p1613
aS'than'
p1614
aS'therapy'
p1615
asg15
S'Beer is cheaper than therapy '
p1616
sg17
S' If you still remember your problems, increase the dosage and the frequency of the sessions. '
p1617
sg19
Vmalicious-advice-mallard
p1618
sg21
(lp1619
g1611
ag1612
ag1613
ag1614
ag1615
aS'If'
p1620
aS'you'
p1621
aS'still'
p1622
aS'remember'
p1623
aS'your'
p1624
aS'problems'
p1625
ag87
aS'increase'
p1626
aS'the'
p1627
aS'dosage'
p1628
aS'and'
p1629
aS'the'
p1630
aS'frequency'
p1631
aS'of'
p1632
aS'the'
p1633
aS'sessions'
p1634
ag43
asg23
(lp1635
g1620
ag1621
ag1622
ag1623
ag1624
ag1625
ag87
ag1626
ag1627
ag1628
ag1629
ag1630
ag1631
ag1632
ag1633
ag1634
ag43
asba(iMeme
Meme
p1636
(dp1637
g3
(lp1638
S'what'
p1639
ag14
asg15
S'what? '
p1640
sg17
S' never seen a red duck? '
p1641
sg19
Vmalicious-advice-mallard
p1642
sg21
(lp1643
g1639
ag14
aS'never'
p1644
aS'seen'
p1645
ag193
aS'red'
p1646
aS'duck'
p1647
ag14
asg23
(lp1648
g1644
ag1645
ag193
ag1646
ag1647
ag14
asba(iMeme
Meme
p1649
(dp1650
g3
(lp1651
S'pregnant'
p1652
ag14
asg15
S'pregnant? '
p1653
sg17
S' poppy seed bagels are delicious and nutritious! '
p1654
sg19
Vmalicious-advice-mallard
p1655
sg21
(lp1656
g1652
ag14
aS'poppy'
p1657
aS'seed'
p1658
aS'bagels'
p1659
aS'are'
p1660
aS'delicious'
p1661
aS'and'
p1662
aS'nutritious'
p1663
ag449
asg23
(lp1664
g1657
ag1658
ag1659
ag1660
ag1661
ag1662
ag1663
ag449
asba(iMeme
Meme
p1665
(dp1666
g3
(lp1667
S'if'
p1668
aS'you'
p1669
aS'want'
p1670
aS'to'
p1671
aS'enjoy'
p1672
aS'your'
p1673
aS'college'
p1674
aS'career'
p1675
asg15
S'if you want to enjoy your college career '
p1676
sg17
S' dont go to class and party all the time '
p1677
sg19
Vmalicious-advice-mallard
p1678
sg21
(lp1679
g1668
ag1669
ag1670
ag1671
ag1672
ag1673
ag1674
ag1675
aS'dont'
p1680
aS'go'
p1681
aS'to'
p1682
aS'class'
p1683
aS'and'
p1684
aS'party'
p1685
aS'all'
p1686
aS'the'
p1687
aS'time'
p1688
asg23
(lp1689
g1680
ag1681
ag1682
ag1683
ag1684
ag1685
ag1686
ag1687
ag1688
asba(iMeme
Meme
p1690
(dp1691
g3
(lp1692
S'tension'
p1693
aS'with'
p1694
aS'the'
p1695
aS'in'
p1696
asg15
S'tension with the in'
p1697
sg17
S'laws? '
p1698
sg19
Vmalicious-advice-mallard
p1699
sg21
(lp1700
g1693
ag1694
ag1695
ag1696
aS'laws'
p1701
ag14
asg23
(lp1702
g1701
ag14
asba(iMeme
Meme
p1703
(dp1704
g3
(lp1705
S'People'
p1706
aS'love'
p1707
aS'reposts'
p1708
asg15
S'People love reposts '
p1709
sg17
S' Find something funny from a couple of months ago and post it again '
p1710
sg19
Vmalicious-advice-mallard
p1711
sg21
(lp1712
g1706
ag1707
ag1708
aS'Find'
p1713
aS'something'
p1714
aS'funny'
p1715
aS'from'
p1716
ag193
aS'couple'
p1717
aS'of'
p1718
aS'months'
p1719
aS'ago'
p1720
aS'and'
p1721
aS'post'
p1722
aS'it'
p1723
aS'again'
p1724
asg23
(lp1725
g1713
ag1714
ag1715
ag1716
ag193
ag1717
ag1718
ag1719
ag1720
ag1721
ag1722
ag1723
ag1724
asba(iMeme
Meme
p1726
(dp1727
g3
(lp1728
S'Before'
p1729
aS'training'
p1730
ag87
aS'smoke'
p1731
aS'shisha'
p1732
asg15
S'Before training, smoke shisha '
p1733
sg17
S' it will give you superhuman strength '
p1734
sg19
Vmalicious-advice-mallard
p1735
sg21
(lp1736
g1729
ag1730
ag87
ag1731
ag1732
aS'it'
p1737
aS'will'
p1738
aS'give'
p1739
aS'you'
p1740
aS'superhuman'
p1741
aS'strength'
p1742
asg23
(lp1743
g1737
ag1738
ag1739
ag1740
ag1741
ag1742
asba(iMeme
Meme
p1744
(dp1745
g3
(lp1746
sg15
S' '
p1747
sg17
S' call him drunk and angry '
p1748
sg19
Vmalicious-advice-mallard
p1749
sg21
(lp1750
S'call'
p1751
aS'him'
p1752
aS'drunk'
p1753
aS'and'
p1754
aS'angry'
p1755
asg23
(lp1756
g1751
ag1752
ag1753
ag1754
ag1755
asba(iMeme
Meme
p1757
(dp1758
g3
(lp1759
S'The'
p1760
aS'problem'
p1761
aS'is'
p1762
aS'we'
p1763
aS'are'
p1764
aS'too'
p1765
aS'moderate'
p1766
asg15
S'The problem is we are too moderate '
p1767
sg17
S' elect someone more radical '
p1768
sg19
Vmalicious-advice-mallard
p1769
sg21
(lp1770
g1760
ag1761
ag1762
ag1763
ag1764
ag1765
ag1766
aS'elect'
p1771
aS'someone'
p1772
aS'more'
p1773
aS'radical'
p1774
asg23
(lp1775
g1771
ag1772
ag1773
ag1774
asba(iMeme
Meme
p1776
(dp1777
g3
(lp1778
S'be'
p1779
aS'sure'
p1780
aS'to'
p1781
aS'include'
p1782
ag193
aS'lot'
p1783
aS'plot'
p1784
aS'in'
p1785
aS'your'
p1786
aS'essay'
p1787
asg15
S'be sure to include a lot plot in your essay '
p1788
sg17
S' the graders will see that you are trying to help them figure out the story and grade you higher '
p1789
sg19
Vmalicious-advice-mallard
p1790
sg21
(lp1791
g1779
ag1780
ag1781
ag1782
ag193
ag1783
ag1784
ag1785
ag1786
ag1787
aS'the'
p1792
aS'graders'
p1793
aS'will'
p1794
aS'see'
p1795
aS'that'
p1796
aS'you'
p1797
aS'are'
p1798
aS'trying'
p1799
aS'to'
p1800
aS'help'
p1801
aS'them'
p1802
aS'figure'
p1803
aS'out'
p1804
aS'the'
p1805
aS'story'
p1806
aS'and'
p1807
aS'grade'
p1808
aS'you'
p1809
aS'higher'
p1810
asg23
(lp1811
g1792
ag1793
ag1794
ag1795
ag1796
ag1797
ag1798
ag1799
ag1800
ag1801
ag1802
ag1803
ag1804
ag1805
ag1806
ag1807
ag1808
ag1809
ag1810
asba(iMeme
Meme
p1812
(dp1813
g3
(lp1814
S'Just'
p1815
aS'reviewing'
p1816
aS'your'
p1817
aS'pas'
p1818
aS'exam'
p1819
aS'papers'
p1820
asg15
S'Just reviewing your pas exam papers '
p1821
sg17
S' is more than enough to get high marks '
p1822
sg19
Vmalicious-advice-mallard
p1823
sg21
(lp1824
g1815
ag1816
ag1817
ag1818
ag1819
ag1820
aS'is'
p1825
aS'more'
p1826
aS'than'
p1827
aS'enough'
p1828
aS'to'
p1829
aS'get'
p1830
aS'high'
p1831
aS'marks'
p1832
asg23
(lp1833
g1825
ag1826
ag1827
ag1828
ag1829
ag1830
ag1831
ag1832
asba(iMeme
Meme
p1834
(dp1835
g3
(lp1836
S'If'
p1837
aS'you'
p1838
aS'drink'
p1839
ag193
aS'beer'
p1840
aS'at'
p1841
aS'work'
p1842
asg15
S'If you drink a beer at work '
p1843
sg17
S' you will never work at saturdays again '
p1844
sg19
Vmalicious-advice-mallard
p1845
sg21
(lp1846
g1837
ag1838
ag1839
ag193
ag1840
ag1841
ag1842
aS'you'
p1847
aS'will'
p1848
aS'never'
p1849
aS'work'
p1850
aS'at'
p1851
aS'saturdays'
p1852
aS'again'
p1853
asg23
(lp1854
g1847
ag1848
ag1849
ag1850
ag1851
ag1852
ag1853
asba(iMeme
Meme
p1855
(dp1856
g3
(lp1857
S'Im'
p1858
ag193
aS'red'
p1859
aS'head'
p1860
asg15
S'Im a red head '
p1861
sg17
S'  '
p1862
sg19
Vmalicious-advice-mallard
p1863
sg21
(lp1864
g1858
ag193
ag1859
ag1860
asg23
(lp1865
sba(iMeme
Meme
p1866
(dp1867
g3
(lp1868
S'fall'
p1869
aS'in'
p1870
aS'love'
p1871
aS'with'
p1872
aS'your'
p1873
aS'young'
p1874
ag87
aS'goodlooking'
p1875
aS'and'
p1876
aS'sweet'
p1877
aS'prof'
p1878
aS'at'
p1879
aS'university'
p1880
asg15
S'fall in love with your young, goodlooking and sweet prof at university '
p1881
sg17
S'  '
p1882
sg19
Vmalicious-advice-mallard
p1883
sg21
(lp1884
g1869
ag1870
ag1871
ag1872
ag1873
ag1874
ag87
ag1875
ag1876
ag1877
ag1878
ag1879
ag1880
asg23
(lp1885
sba(iMeme
Meme
p1886
(dp1887
g3
(lp1888
S'Remember'
p1889
aS'to'
p1890
aS'add'
p1891
aS'bleach'
p1892
aS'to'
p1893
aS'every'
p1894
aS'wash'
p1895
asg15
S'Remember to add bleach to every wash '
p1896
sg17
S" It's the best way to keep clothes clean "
p1897
sg19
Vmalicious-advice-mallard
p1898
sg21
(lp1899
g1889
ag1890
ag1891
ag1892
ag1893
ag1894
ag1895
aS'It'
p1900
aS"'s"
p1901
aS'the'
p1902
aS'best'
p1903
aS'way'
p1904
aS'to'
p1905
aS'keep'
p1906
aS'clothes'
p1907
aS'clean'
p1908
asg23
(lp1909
g1900
ag1901
ag1902
ag1903
ag1904
ag1905
ag1906
ag1907
ag1908
asba(iMeme
Meme
p1910
(dp1911
g3
(lp1912
S'franklin'
p1913
aS'dies'
p1914
aS'at'
p1915
aS'the'
p1916
aS'docks'
p1917
aS'while'
p1918
aS'trying'
p1919
aS'to'
p1920
aS'save'
p1921
aS'his'
p1922
aS'dog'
p1923
ag87
aS'chop'
p1924
asg15
S'franklin dies at the docks while trying to save his dog, chop '
p1925
sg17
S' Michael fakes his death and his family dies. You can choose to kill him. '
p1926
sg19
Vmalicious-advice-mallard
p1927
sg21
(lp1928
g1913
ag1914
ag1915
ag1916
ag1917
ag1918
ag1919
ag1920
ag1921
ag1922
ag1923
ag87
ag1924
aS'Michael'
p1929
aS'fakes'
p1930
aS'his'
p1931
aS'death'
p1932
aS'and'
p1933
aS'his'
p1934
aS'family'
p1935
aS'dies'
p1936
ag43
aS'You'
p1937
aS'can'
p1938
aS'choose'
p1939
aS'to'
p1940
aS'kill'
p1941
aS'him'
p1942
ag43
asg23
(lp1943
g1929
ag1930
ag1931
ag1932
ag1933
ag1934
ag1935
ag1936
ag43
ag1937
ag1938
ag1939
ag1940
ag1941
ag1942
ag43
asba(iMeme
Meme
p1944
(dp1945
g3
(lp1946
S'When'
p1947
aS'cooking'
p1948
aS'with'
p1949
aS'rhubarb'
p1950
ag87
aS'do'
p1951
aS"n't"
p1952
aS'waste'
p1953
aS'parts'
p1954
aS'of'
p1955
aS'the'
p1956
aS'plant'
p1957
ag43
asg15
S"When cooking with rhubarb, don't waste parts of the plant. "
p1958
sg17
S' The leaves make a healthy and tasty salad. '
p1959
sg19
Vmalicious-advice-mallard
p1960
sg21
(lp1961
g1947
ag1948
ag1949
ag1950
ag87
ag1951
ag1952
ag1953
ag1954
ag1955
ag1956
ag1957
ag43
aS'The'
p1962
aS'leaves'
p1963
aS'make'
p1964
ag193
aS'healthy'
p1965
aS'and'
p1966
aS'tasty'
p1967
aS'salad'
p1968
ag43
asg23
(lp1969
g1962
ag1963
ag1964
ag193
ag1965
ag1966
ag1967
ag1968
ag43
asba(iMeme
Meme
p1970
(dp1971
g3
(lp1972
S'Mocking'
p1973
aS'students'
p1974
aS'and'
p1975
aS'insulting'
p1976
aS'their'
p1977
aS'work'
p1978
asg15
S'Mocking students and insulting their work '
p1979
sg17
S' Will totally motivate them to work harder '
p1980
sg19
Vmalicious-advice-mallard
p1981
sg21
(lp1982
g1973
ag1974
ag1975
ag1976
ag1977
ag1978
aS'Will'
p1983
aS'totally'
p1984
aS'motivate'
p1985
aS'them'
p1986
aS'to'
p1987
aS'work'
p1988
aS'harder'
p1989
asg23
(lp1990
g1983
ag1984
ag1985
ag1986
ag1987
ag1988
ag1989
asba(iMeme
Meme
p1991
(dp1992
g3
(lp1993
S'If'
p1994
aS'``'
p1995
aS'foreigners'
p1996
aS"''"
p1997
aS'ca'
p1998
aS"n't"
p1999
aS'understand'
p2000
aS'you'
p2001
asg15
S'If "foreigners" can\'t understand you '
p2002
sg17
S' talk really loud and slow, and make dramatic hand gestures! '
p2003
sg19
Vmalicious-advice-mallard
p2004
sg21
(lp2005
g1994
ag1995
ag1996
ag1997
ag1998
ag1999
ag2000
ag2001
aS'talk'
p2006
aS'really'
p2007
aS'loud'
p2008
aS'and'
p2009
aS'slow'
p2010
ag87
aS'and'
p2011
aS'make'
p2012
aS'dramatic'
p2013
aS'hand'
p2014
aS'gestures'
p2015
ag449
asg23
(lp2016
g2006
ag2007
ag2008
ag2009
ag2010
ag87
ag2011
ag2012
ag2013
ag2014
ag2015
ag449
asba(iMeme
Meme
p2017
(dp2018
g3
(lp2019
S'if'
p2020
aS'you'
p2021
aS'are'
p2022
aS'anxious'
p2023
aS'when'
p2024
aS'meeeting'
p2025
aS'your'
p2026
aS'gf'
p2027
aS'parents'
p2028
asg15
S'if you are anxious when meeeting your gf parents  '
p2029
sg17
S' tell the aristocrats  joke , it will break the ice  '
p2030
sg19
Vmalicious-advice-mallard
p2031
sg21
(lp2032
g2020
ag2021
ag2022
ag2023
ag2024
ag2025
ag2026
ag2027
ag2028
aS'tell'
p2033
aS'the'
p2034
aS'aristocrats'
p2035
aS'joke'
p2036
ag87
aS'it'
p2037
aS'will'
p2038
aS'break'
p2039
aS'the'
p2040
aS'ice'
p2041
asg23
(lp2042
g2033
ag2034
ag2035
ag2036
ag87
ag2037
ag2038
ag2039
ag2040
ag2041
asba(iMeme
Meme
p2043
(dp2044
g3
(lp2045
S'If'
p2046
aS'Ben'
p2047
asg15
S'If Ben '
p2048
sg17
S' Was a duck '
p2049
sg19
Vmalicious-advice-mallard
p2050
sg21
(lp2051
g2046
ag2047
aS'Was'
p2052
ag193
aS'duck'
p2053
asg23
(lp2054
g2052
ag193
ag2053
asba(iMeme
Meme
p2055
(dp2056
g3
(lp2057
S'tension'
p2058
aS'with'
p2059
aS'the'
p2060
aS'in'
p2061
asg15
S'tension with the in'
p2062
sg17
S'laws? '
p2063
sg19
Vmalicious-advice-mallard
p2064
sg21
(lp2065
g2058
ag2059
ag2060
ag2061
aS'laws'
p2066
ag14
asg23
(lp2067
g2066
ag14
asba(iMeme
Meme
p2068
(dp2069
g3
(lp2070
S'if'
p2071
aS'you'
p2072
aS'are'
p2073
aS'25'
p2074
aS'wanting'
p2075
aS'to'
p2076
aS'date'
p2077
aS'teenagers'
p2078
asg15
S'if you are 25 wanting to date teenagers '
p2079
sg17
S' Look up your local age of consent laws '
p2080
sg19
Vmalicious-advice-mallard
p2081
sg21
(lp2082
g2071
ag2072
ag2073
ag2074
ag2075
ag2076
ag2077
ag2078
aS'Look'
p2083
aS'up'
p2084
aS'your'
p2085
aS'local'
p2086
aS'age'
p2087
aS'of'
p2088
aS'consent'
p2089
aS'laws'
p2090
asg23
(lp2091
g2083
ag2084
ag2085
ag2086
ag2087
ag2088
ag2089
ag2090
asba(iMeme
Meme
p2092
(dp2093
g3
(lp2094
S'Pregnant'
p2095
ag14
asg15
S'Pregnant? '
p2096
sg17
S' You can eat poppy seed bagels. no problem. '
p2097
sg19
Vmalicious-advice-mallard
p2098
sg21
(lp2099
g2095
ag14
aS'You'
p2100
aS'can'
p2101
aS'eat'
p2102
aS'poppy'
p2103
aS'seed'
p2104
aS'bagels'
p2105
ag43
aS'no'
p2106
aS'problem'
p2107
ag43
asg23
(lp2108
g2100
ag2101
ag2102
ag2103
ag2104
ag2105
ag43
ag2106
ag2107
ag43
asba(iMeme
Meme
p2109
(dp2110
g3
(lp2111
S'do'
p2112
aS"n't"
p2113
aS'worry'
p2114
aS'about'
p2115
aS'the'
p2116
aS'nsa'
p2117
aS'spying'
p2118
asg15
S"don't worry about the nsa spying "
p2119
sg17
S" when has your government ever mistreated one of it's citizens? "
p2120
sg19
Vmalicious-advice-mallard
p2121
sg21
(lp2122
g2112
ag2113
ag2114
ag2115
ag2116
ag2117
ag2118
aS'when'
p2123
aS'has'
p2124
aS'your'
p2125
aS'government'
p2126
aS'ever'
p2127
aS'mistreated'
p2128
aS'one'
p2129
aS'of'
p2130
aS'it'
p2131
aS"'s"
p2132
aS'citizens'
p2133
ag14
asg23
(lp2134
g2123
ag2124
ag2125
ag2126
ag2127
ag2128
ag2129
ag2130
ag2131
ag2132
ag2133
ag14
asba(iMeme
Meme
p2135
(dp2136
g3
(lp2137
S'seed'
p2138
aS'your'
p2139
aS'lawn'
p2140
aS'with'
p2141
aS'aqua'
p2142
aS'beads'
p2143
asg15
S'seed your lawn with aqua beads '
p2144
sg17
S' The constant moisture will keep it green '
p2145
sg19
Vmalicious-advice-mallard
p2146
sg21
(lp2147
g2138
ag2139
ag2140
ag2141
ag2142
ag2143
aS'The'
p2148
aS'constant'
p2149
aS'moisture'
p2150
aS'will'
p2151
aS'keep'
p2152
aS'it'
p2153
aS'green'
p2154
asg23
(lp2155
g2148
ag2149
ag2150
ag2151
ag2152
ag2153
ag2154
asba(iMeme
Meme
p2156
(dp2157
g3
(lp2158
S'If'
p2159
aS'you'
p2160
aS"'re"
p2161
aS'not'
p2162
aS'sure'
p2163
aS'what'
p2164
aS'you'
p2165
aS'want'
p2166
aS'to'
p2167
aS'be'
p2168
aS'after'
p2169
aS'school'
p2170
asg15
S"If you're not sure what you want to be after school "
p2171
sg17
S' Do an Arts degree '
p2172
sg19
Vmalicious-advice-mallard
p2173
sg21
(lp2174
g2159
ag2160
ag2161
ag2162
ag2163
ag2164
ag2165
ag2166
ag2167
ag2168
ag2169
ag2170
aS'Do'
p2175
aS'an'
p2176
aS'Arts'
p2177
aS'degree'
p2178
asg23
(lp2179
g2175
ag2176
ag2177
ag2178
asba(iMeme
Meme
p2180
(dp2181
g3
(lp2182
S'if'
p2183
aS'you'
p2184
aS'want'
p2185
ag193
aS'free'
p2186
aS'pizza'
p2187
asg15
S'if you want a free pizza '
p2188
sg17
S' just threaten to jump off a bridge '
p2189
sg19
Vmalicious-advice-mallard
p2190
sg21
(lp2191
g2183
ag2184
ag2185
ag193
ag2186
ag2187
aS'just'
p2192
aS'threaten'
p2193
aS'to'
p2194
aS'jump'
p2195
aS'off'
p2196
ag193
aS'bridge'
p2197
asg23
(lp2198
g2192
ag2193
ag2194
ag2195
ag2196
ag193
ag2197
asba(iMeme
Meme
p2199
(dp2200
g3
(lp2201
S'If'
p2202
aS'you'
p2203
aS'mix'
p2204
aS'bleach'
p2205
aS'and'
p2206
aS'ammonia'
p2207
asg15
S'If you mix bleach and ammonia '
p2208
sg17
S' it makes a great cleaning product '
p2209
sg19
Vmalicious-advice-mallard
p2210
sg21
(lp2211
g2202
ag2203
ag2204
ag2205
ag2206
ag2207
aS'it'
p2212
aS'makes'
p2213
ag193
aS'great'
p2214
aS'cleaning'
p2215
aS'product'
p2216
asg23
(lp2217
g2212
ag2213
ag193
ag2214
ag2215
ag2216
asba(iMeme
Meme
p2218
(dp2219
g3
(lp2220
S'going'
p2221
aS'to'
p2222
ag193
aS'country'
p2223
aS'that'
p2224
aS'drives'
p2225
aS'on'
p2226
aS'the'
p2227
aS'other'
p2228
aS'side'
p2229
ag14
asg15
S'going to a country that drives on the other side? '
p2230
sg17
S" practice  at home. It's a great way to make sure you are safe abroad "
p2231
sg19
Vmalicious-advice-mallard
p2232
sg21
(lp2233
g2221
ag2222
ag193
ag2223
ag2224
ag2225
ag2226
ag2227
ag2228
ag2229
ag14
aS'practice'
p2234
aS'at'
p2235
aS'home'
p2236
ag43
aS'It'
p2237
aS"'s"
p2238
ag193
aS'great'
p2239
aS'way'
p2240
aS'to'
p2241
aS'make'
p2242
aS'sure'
p2243
aS'you'
p2244
aS'are'
p2245
aS'safe'
p2246
aS'abroad'
p2247
asg23
(lp2248
g2234
ag2235
ag2236
ag43
ag2237
ag2238
ag193
ag2239
ag2240
ag2241
ag2242
ag2243
ag2244
ag2245
ag2246
ag2247
asba(iMeme
Meme
p2249
(dp2250
g3
(lp2251
S'Just'
p2252
aS'leave'
p2253
asg15
S'Just leave '
p2254
sg17
S' without paying '
p2255
sg19
Vmalicious-advice-mallard
p2256
sg21
(lp2257
g2252
ag2253
aS'without'
p2258
aS'paying'
p2259
asg23
(lp2260
g2258
ag2259
asba(iMeme
Meme
p2261
(dp2262
g3
(lp2263
S'Do'
p2264
aS"n't"
p2265
aS'hAve'
p2266
aS'any'
p2267
aS'condoms'
p2268
ag14
asg15
S"Don't hAve any condoms? "
p2269
sg17
S" She Can't get pregnAnt if she's on tOp "
p2270
sg19
Vmalicious-advice-mallard
p2271
sg21
(lp2272
g2264
ag2265
ag2266
ag2267
ag2268
ag14
aS'She'
p2273
aS'Ca'
p2274
aS"n't"
p2275
aS'get'
p2276
aS'pregnAnt'
p2277
aS'if'
p2278
aS'she'
p2279
aS"'s"
p2280
aS'on'
p2281
aS'tOp'
p2282
asg23
(lp2283
g2273
ag2274
ag2275
ag2276
ag2277
ag2278
ag2279
ag2280
ag2281
ag2282
asba(iMeme
Meme
p2284
(dp2285
g3
(lp2286
S'Iif'
p2287
ag193
aS'techear'
p2288
aS'sees'
p2289
aS'you'
p2290
aS'browsing'
p2291
aS'porn'
p2292
aS'in'
p2293
aS'class'
p2294
asg15
S'Iif a techear sees you browsing porn in class '
p2295
sg17
S' continue fapping to put her in the mood '
p2296
sg19
Vmalicious-advice-mallard
p2297
sg21
(lp2298
g2287
ag193
ag2288
ag2289
ag2290
ag2291
ag2292
ag2293
ag2294
aS'continue'
p2299
aS'fapping'
p2300
aS'to'
p2301
aS'put'
p2302
aS'her'
p2303
aS'in'
p2304
aS'the'
p2305
aS'mood'
p2306
asg23
(lp2307
g2299
ag2300
ag2301
ag2302
ag2303
ag2304
ag2305
ag2306
asba(iMeme
Meme
p2308
(dp2309
g3
(lp2310
S'green'
p2311
aS'sucks'
p2312
ag87
aS'ok'
p2313
ag14
asg15
S'green sucks, ok? '
p2314
sg17
S' you should get rid of it via painting the entire town red!  '
p2315
sg19
Vmalicious-advice-mallard
p2316
sg21
(lp2317
g2311
ag2312
ag87
ag2313
ag14
aS'you'
p2318
aS'should'
p2319
aS'get'
p2320
aS'rid'
p2321
aS'of'
p2322
aS'it'
p2323
aS'via'
p2324
aS'painting'
p2325
aS'the'
p2326
aS'entire'
p2327
aS'town'
p2328
aS'red'
p2329
ag449
asg23
(lp2330
g2318
ag2319
ag2320
ag2321
ag2322
ag2323
ag2324
ag2325
ag2326
ag2327
ag2328
ag2329
ag449
asba(iMeme
Meme
p2331
(dp2332
g3
(lp2333
S'want'
p2334
aS'to'
p2335
aS'fix'
p2336
aS'things'
p2337
aS'with'
p2338
aS'your'
p2339
aS'crush'
p2340
ag14
asg15
S'want to fix things with your crush? '
p2341
sg17
S' call him drunk  '
p2342
sg19
Vmalicious-advice-mallard
p2343
sg21
(lp2344
g2334
ag2335
ag2336
ag2337
ag2338
ag2339
ag2340
ag14
aS'call'
p2345
aS'him'
p2346
aS'drunk'
p2347
asg23
(lp2348
g2345
ag2346
ag2347
asba(iMeme
Meme
p2349
(dp2350
g3
(lp2351
S'listen'
p2352
aS'to'
p2353
aS'jigglypuff'
p2354
aS"'s"
p2355
aS'song'
p2356
asg15
S"listen to jigglypuff's song "
p2357
sg17
S" that'll put you to sleep "
p2358
sg19
Vmalicious-advice-mallard
p2359
sg21
(lp2360
g2352
ag2353
ag2354
ag2355
ag2356
aS'that'
p2361
aS"'ll"
p2362
aS'put'
p2363
aS'you'
p2364
aS'to'
p2365
aS'sleep'
p2366
asg23
(lp2367
g2361
ag2362
ag2363
ag2364
ag2365
ag2366
asba(iMeme
Meme
p2368
(dp2369
g3
(lp2370
S'Put'
p2371
aS'blowup'
p2372
aS'dolls'
p2373
aS'in'
p2374
aS'the'
p2375
aS'passenger'
p2376
aS'seats'
p2377
asg15
S'Put blowup dolls in the passenger seats '
p2378
sg17
S' and fill them with gasoline '
p2379
sg19
Vmalicious-advice-mallard
p2380
sg21
(lp2381
g2371
ag2372
ag2373
ag2374
ag2375
ag2376
ag2377
aS'and'
p2382
aS'fill'
p2383
aS'them'
p2384
aS'with'
p2385
aS'gasoline'
p2386
asg23
(lp2387
g2382
ag2383
ag2384
ag2385
ag2386
asba(iMeme
Meme
p2388
(dp2389
g3
(lp2390
S'If'
p2391
aS'she'
p2392
aS'says'
p2393
aS'she'
p2394
aS"'s"
p2395
ag193
aS'model'
p2396
asg15
S"If she says she's a model "
p2397
sg17
S' Ask her which fetish site she models for '
p2398
sg19
Vmalicious-advice-mallard
p2399
sg21
(lp2400
g2391
ag2392
ag2393
ag2394
ag2395
ag193
ag2396
aS'Ask'
p2401
aS'her'
p2402
aS'which'
p2403
aS'fetish'
p2404
aS'site'
p2405
aS'she'
p2406
aS'models'
p2407
aS'for'
p2408
asg23
(lp2409
g2401
ag2402
ag2403
ag2404
ag2405
ag2406
ag2407
ag2408
asba(iMeme
Meme
p2410
(dp2411
g3
(lp2412
S'what'
p2413
ag14
asg15
S'what? '
p2414
sg17
S' never seen a red duck? '
p2415
sg19
Vmalicious-advice-mallard
p2416
sg21
(lp2417
g2413
ag14
aS'never'
p2418
aS'seen'
p2419
ag193
aS'red'
p2420
aS'duck'
p2421
ag14
asg23
(lp2422
g2418
ag2419
ag193
ag2420
ag2421
ag14
asba(iMeme
Meme
p2423
(dp2424
g3
(lp2425
S'Do'
p2426
aS"n't"
p2427
aS'drink'
p2428
aS'and'
p2429
aS'drive'
p2430
asg15
S"Don't drink and drive "
p2431
sg17
S' Drink *then* drive '
p2432
sg19
Vmalicious-advice-mallard
p2433
sg21
(lp2434
g2426
ag2427
ag2428
ag2429
ag2430
aS'Drink'
p2435
aS'*then*'
p2436
aS'drive'
p2437
asg23
(lp2438
g2435
ag2436
ag2437
asba(iMeme
Meme
p2439
(dp2440
g3
(lp2441
S'want'
p2442
aS'you'
p2443
aS'boyfriend'
p2444
aS'to'
p2445
aS'love'
p2446
aS'you'
p2447
ag14
asg15
S'want you boyfriend to love you? '
p2448
sg17
S' get so drunk you vomit and start dancing with other man in front of him  '
p2449
sg19
Vmalicious-advice-mallard
p2450
sg21
(lp2451
g2442
ag2443
ag2444
ag2445
ag2446
ag2447
ag14
aS'get'
p2452
aS'so'
p2453
aS'drunk'
p2454
aS'you'
p2455
aS'vomit'
p2456
aS'and'
p2457
aS'start'
p2458
aS'dancing'
p2459
aS'with'
p2460
aS'other'
p2461
aS'man'
p2462
aS'in'
p2463
aS'front'
p2464
aS'of'
p2465
aS'him'
p2466
asg23
(lp2467
g2452
ag2453
ag2454
ag2455
ag2456
ag2457
ag2458
ag2459
ag2460
ag2461
ag2462
ag2463
ag2464
ag2465
ag2466
asba(iMeme
Meme
p2468
(dp2469
g3
(lp2470
S'DO'
p2471
aS"n't"
p2472
aS'wan'
p2473
aS'na'
p2474
aS'get'
p2475
aS'pregnant'
p2476
ag14
asg15
S"DOn't wanna get pregnant? "
p2477
sg17
S' Just get aneroxic '
p2478
sg19
Vmalicious-advice-mallard
p2479
sg21
(lp2480
g2471
ag2472
ag2473
ag2474
ag2475
ag2476
ag14
aS'Just'
p2481
aS'get'
p2482
aS'aneroxic'
p2483
asg23
(lp2484
g2481
ag2482
ag2483
asba(iMeme
Meme
p2485
(dp2486
g3
(lp2487
S'Want'
p2488
ag193
aS'good'
p2489
ag87
aS'fun'
p2490
ag87
aS'movie'
p2491
aS'for'
p2492
aS'the'
p2493
aS'whole'
p2494
aS'family'
p2495
ag14
asg15
S'Want a good, fun, movie for the whole family? '
p2496
sg17
S" Watch Oldboy, it's on netflix right now! "
p2497
sg19
Vmalicious-advice-mallard
p2498
sg21
(lp2499
g2488
ag193
ag2489
ag87
ag2490
ag87
ag2491
ag2492
ag2493
ag2494
ag2495
ag14
aS'Watch'
p2500
aS'Oldboy'
p2501
ag87
aS'it'
p2502
aS"'s"
p2503
aS'on'
p2504
aS'netflix'
p2505
aS'right'
p2506
aS'now'
p2507
ag449
asg23
(lp2508
g2500
ag2501
ag87
ag2502
ag2503
ag2504
ag2505
ag2506
ag2507
ag449
asba(iMeme
Meme
p2509
(dp2510
g3
(lp2511
S'If'
p2512
aS'you'
p2513
aS'want'
p2514
aS'to'
p2515
aS'eat'
p2516
aS'something'
p2517
aS'after'
p2518
aS'burshing'
p2519
aS'your'
p2520
aS'teeth'
p2521
asg15
S'If you want to eat something after burshing your teeth '
p2522
sg17
S' rinse with hot water. you wont be able to taste anything '
p2523
sg19
Vmalicious-advice-mallard
p2524
sg21
(lp2525
g2512
ag2513
ag2514
ag2515
ag2516
ag2517
ag2518
ag2519
ag2520
ag2521
aS'rinse'
p2526
aS'with'
p2527
aS'hot'
p2528
aS'water'
p2529
ag43
aS'you'
p2530
aS'wont'
p2531
aS'be'
p2532
aS'able'
p2533
aS'to'
p2534
aS'taste'
p2535
aS'anything'
p2536
asg23
(lp2537
g2526
ag2527
ag2528
ag2529
ag43
ag2530
ag2531
ag2532
ag2533
ag2534
ag2535
ag2536
asba(iMeme
Meme
p2538
(dp2539
g3
(lp2540
S'Need'
p2541
aS'to'
p2542
aS'make'
p2543
ag193
aS'good'
p2544
aS'rage'
p2545
aS'comic'
p2546
ag14
asg15
S'Need to make a good rage comic? '
p2547
sg17
S" Simmply add an extra panel, they'll love it! "
p2548
sg19
Vmalicious-advice-mallard
p2549
sg21
(lp2550
g2541
ag2542
ag2543
ag193
ag2544
ag2545
ag2546
ag14
aS'Simmply'
p2551
aS'add'
p2552
aS'an'
p2553
aS'extra'
p2554
aS'panel'
p2555
ag87
aS'they'
p2556
aS"'ll"
p2557
aS'love'
p2558
aS'it'
p2559
ag449
asg23
(lp2560
g2551
ag2552
ag2553
ag2554
ag2555
ag87
ag2556
ag2557
ag2558
ag2559
ag449
asba(iMeme
Meme
p2561
(dp2562
g3
(lp2563
S'going'
p2564
aS'to'
p2565
ag193
aS'country'
p2566
aS'that'
p2567
aS'drives'
p2568
aS'on'
p2569
aS'the'
p2570
aS'other'
p2571
aS'side'
p2572
ag14
asg15
S'going to a country that drives on the other side? '
p2573
sg17
S" practice at home. It's a great way to make sure you are safe abroad "
p2574
sg19
Vmalicious-advice-mallard
p2575
sg21
(lp2576
g2564
ag2565
ag193
ag2566
ag2567
ag2568
ag2569
ag2570
ag2571
ag2572
ag14
aS'practice'
p2577
aS'at'
p2578
aS'home'
p2579
ag43
aS'It'
p2580
aS"'s"
p2581
ag193
aS'great'
p2582
aS'way'
p2583
aS'to'
p2584
aS'make'
p2585
aS'sure'
p2586
aS'you'
p2587
aS'are'
p2588
aS'safe'
p2589
aS'abroad'
p2590
asg23
(lp2591
g2577
ag2578
ag2579
ag43
ag2580
ag2581
ag193
ag2582
ag2583
ag2584
ag2585
ag2586
ag2587
ag2588
ag2589
ag2590
asba(iMeme
Meme
p2592
(dp2593
g3
(lp2594
S'stick'
p2595
aS'your'
p2596
aS'dick'
p2597
aS'in'
p2598
ag193
aS'toaster'
p2599
asg15
S'stick your dick in a toaster '
p2600
sg17
S" it won't hurt "
p2601
sg19
Vmalicious-advice-mallard
p2602
sg21
(lp2603
g2595
ag2596
ag2597
ag2598
ag193
ag2599
aS'it'
p2604
aS'wo'
p2605
aS"n't"
p2606
aS'hurt'
p2607
asg23
(lp2608
g2604
ag2605
ag2606
ag2607
asba(iMeme
Meme
p2609
(dp2610
g3
(lp2611
S'Pants'
p2612
aS'too'
p2613
aS'loose'
p2614
ag14
asg15
S'Pants too loose? '
p2615
sg17
S' Get a boner to hold them up! '
p2616
sg19
Vmalicious-advice-mallard
p2617
sg21
(lp2618
g2612
ag2613
ag2614
ag14
aS'Get'
p2619
ag193
aS'boner'
p2620
aS'to'
p2621
aS'hold'
p2622
aS'them'
p2623
aS'up'
p2624
ag449
asg23
(lp2625
g2619
ag193
ag2620
ag2621
ag2622
ag2623
ag2624
ag449
asba(iMeme
Meme
p2626
(dp2627
g3
(lp2628
S'want'
p2629
aS'to'
p2630
aS'prove'
p2631
aS'you'
p2632
aS"'re"
p2633
aS'and'
p2634
aS'expert'
p2635
aS'on'
p2636
aS'something'
p2637
ag14
asg15
S"want to prove you're and expert on something? "
p2638
sg17
S' "I wrote a paper on this last semester" '
p2639
sg19
Vmalicious-advice-mallard
p2640
sg21
(lp2641
g2629
ag2630
ag2631
ag2632
ag2633
ag2634
ag2635
ag2636
ag2637
ag14
aS'``'
p2642
ag437
aS'wrote'
p2643
ag193
aS'paper'
p2644
aS'on'
p2645
aS'this'
p2646
aS'last'
p2647
aS'semester'
p2648
aS"''"
p2649
asg23
(lp2650
g2642
ag437
ag2643
ag193
ag2644
ag2645
ag2646
ag2647
ag2648
ag2649
asba(iMeme
Meme
p2651
(dp2652
g3
(lp2653
S'Get'
p2654
aS'your'
p2655
aS'wife'
p2656
aS'or'
p2657
aS'girlfriend'
p2658
aS'to'
p2659
aS'buy'
p2660
aS'that'
p2661
aS'EMBARRASSING'
p2662
aS'purchase'
p2663
asg15
S'Get your wife or girlfriend to buy that EMBARRASSING purchase '
p2664
sg17
S' They will think you are manly. '
p2665
sg19
Vmalicious-advice-mallard
p2666
sg21
(lp2667
g2654
ag2655
ag2656
ag2657
ag2658
ag2659
ag2660
ag2661
ag2662
ag2663
aS'They'
p2668
aS'will'
p2669
aS'think'
p2670
aS'you'
p2671
aS'are'
p2672
aS'manly'
p2673
ag43
asg23
(lp2674
g2668
ag2669
ag2670
ag2671
ag2672
ag2673
ag43
asba(iMeme
Meme
p2675
(dp2676
g3
(lp2677
S'want'
p2678
aS'to'
p2679
aS'make'
p2680
aS'front'
p2681
aS'page'
p2682
aS'of'
p2683
aS'ASK'
p2684
aS'REddit'
p2685
asg15
S'want to make front page of ASK REddit '
p2686
sg17
S' change one word from current top post of ask reddit '
p2687
sg19
Vmalicious-advice-mallard
p2688
sg21
(lp2689
g2678
ag2679
ag2680
ag2681
ag2682
ag2683
ag2684
ag2685
aS'change'
p2690
aS'one'
p2691
aS'word'
p2692
aS'from'
p2693
aS'current'
p2694
aS'top'
p2695
aS'post'
p2696
aS'of'
p2697
aS'ask'
p2698
aS'reddit'
p2699
asg23
(lp2700
g2690
ag2691
ag2692
ag2693
ag2694
ag2695
ag2696
ag2697
ag2698
ag2699
asba(iMeme
Meme
p2701
(dp2702
g3
(lp2703
S'Want'
p2704
aS'to'
p2705
aS'be'
p2706
aS'popular'
p2707
aS'on'
p2708
aS'reddit'
p2709
ag14
asg15
S'Want to be popular on reddit? '
p2710
sg17
S' Post pictures of dead kittens. redditors hate cats. '
p2711
sg19
Vmalicious-advice-mallard
p2712
sg21
(lp2713
g2704
ag2705
ag2706
ag2707
ag2708
ag2709
ag14
aS'Post'
p2714
aS'pictures'
p2715
aS'of'
p2716
aS'dead'
p2717
aS'kittens'
p2718
ag43
aS'redditors'
p2719
aS'hate'
p2720
aS'cats'
p2721
ag43
asg23
(lp2722
g2714
ag2715
ag2716
ag2717
ag2718
ag43
ag2719
ag2720
ag2721
ag43
asba(iMeme
Meme
p2723
(dp2724
g3
(lp2725
S'In'
p2726
aS'the'
p2727
aS'mood'
p2728
aS'for'
p2729
aS'some'
p2730
aS'popcorn'
p2731
ag14
asg15
S'In the mood for some popcorn? '
p2732
sg17
S' Just press the popcorn button on your microwave '
p2733
sg19
Vmalicious-advice-mallard
p2734
sg21
(lp2735
g2726
ag2727
ag2728
ag2729
ag2730
ag2731
ag14
aS'Just'
p2736
aS'press'
p2737
aS'the'
p2738
aS'popcorn'
p2739
aS'button'
p2740
aS'on'
p2741
aS'your'
p2742
aS'microwave'
p2743
asg23
(lp2744
g2736
ag2737
ag2738
ag2739
ag2740
ag2741
ag2742
ag2743
asba(iMeme
Meme
p2745
(dp2746
g3
(lp2747
S'in'
p2748
aS'the'
p2749
aS'mood'
p2750
aS'for'
p2751
aS'some'
p2752
aS'microwave'
p2753
aS'popcorn'
p2754
ag14
asg15
S'in the mood for some microwave popcorn? '
p2755
sg17
S' just press the popcorn button '
p2756
sg19
Vmalicious-advice-mallard
p2757
sg21
(lp2758
g2748
ag2749
ag2750
ag2751
ag2752
ag2753
ag2754
ag14
aS'just'
p2759
aS'press'
p2760
aS'the'
p2761
aS'popcorn'
p2762
aS'button'
p2763
asg23
(lp2764
g2759
ag2760
ag2761
ag2762
ag2763
asba(iMeme
Meme
p2765
(dp2766
g3
(lp2767
S'they'
p2768
aS'didnt'
p2769
aS'reply'
p2770
aS'to'
p2771
aS'your'
p2772
aS'text'
p2773
ag14
asg15
S'they didnt reply to your text? '
p2774
sg17
S' send it again they probably didnt get it '
p2775
sg19
Vmalicious-advice-mallard
p2776
sg21
(lp2777
g2768
ag2769
ag2770
ag2771
ag2772
ag2773
ag14
aS'send'
p2778
aS'it'
p2779
aS'again'
p2780
aS'they'
p2781
aS'probably'
p2782
aS'didnt'
p2783
aS'get'
p2784
aS'it'
p2785
asg23
(lp2786
g2778
ag2779
ag2780
ag2781
ag2782
ag2783
ag2784
ag2785
asba(iMeme
Meme
p2787
(dp2788
g3
(lp2789
g437
aS'am'
p2790
aS'gay'
p2791
asg15
S'I am gay  '
p2792
sg17
S' Not like Marg  '
p2793
sg19
Vmalicious-advice-mallard
p2794
sg21
(lp2795
g437
ag2790
ag2791
aS'Not'
p2796
aS'like'
p2797
aS'Marg'
p2798
asg23
(lp2799
g2796
ag2797
ag2798
asba(iMeme
Meme
p2800
(dp2801
g3
(lp2802
S'got'
p2803
ag193
aS'sunburn'
p2804
ag14
asg15
S'got a sunburn? '
p2805
sg17
S" take a nice hot shower you'll feel better. "
p2806
sg19
Vmalicious-advice-mallard
p2807
sg21
(lp2808
g2803
ag193
ag2804
ag14
aS'take'
p2809
ag193
aS'nice'
p2810
aS'hot'
p2811
aS'shower'
p2812
aS'you'
p2813
aS"'ll"
p2814
aS'feel'
p2815
aS'better'
p2816
ag43
asg23
(lp2817
g2809
ag193
ag2810
ag2811
ag2812
ag2813
ag2814
ag2815
ag2816
ag43
asba(iMeme
Meme
p2818
(dp2819
g3
(lp2820
S'After'
p2821
aS'your'
p2822
aS'finish'
p2823
aS'portal'
p2824
asg15
S'After your finish portal '
p2825
sg17
S' you should try out world of warcraft '
p2826
sg19
Vmalicious-advice-mallard
p2827
sg21
(lp2828
g2821
ag2822
ag2823
ag2824
aS'you'
p2829
aS'should'
p2830
aS'try'
p2831
aS'out'
p2832
aS'world'
p2833
aS'of'
p2834
aS'warcraft'
p2835
asg23
(lp2836
g2829
ag2830
ag2831
ag2832
ag2833
ag2834
ag2835
asba(iMeme
Meme
p2837
(dp2838
g3
(lp2839
S'Hanging'
p2840
aS'out'
p2841
aS'with'
p2842
aS'marco'
p2843
aS'can'
p2844
aS'only'
p2845
aS'lead'
p2846
aS'to'
p2847
aS'good'
p2848
aS'things'
p2849
asg15
S'Hanging out with marco can only lead to good things '
p2850
sg17
S' trust me '
p2851
sg19
Vmalicious-advice-mallard
p2852
sg21
(lp2853
g2840
ag2841
ag2842
ag2843
ag2844
ag2845
ag2846
ag2847
ag2848
ag2849
aS'trust'
p2854
aS'me'
p2855
asg23
(lp2856
g2854
ag2855
asba(iMeme
Meme
p2857
(dp2858
g3
(lp2859
S'If'
p2860
aS'you'
p2861
aS'carry'
p2862
ag193
aS'pistol'
p2863
aS'in'
p2864
aS'your'
p2865
aS'waistband'
p2866
aS'without'
p2867
ag193
aS'hoLstsER'
p2868
asg15
S'If you carry a pistol in your waistband without a hoLstsER '
p2869
sg17
S' File off the triggeR guard to make it fit secureLy '
p2870
sg19
Vmalicious-advice-mallard
p2871
sg21
(lp2872
g2860
ag2861
ag2862
ag193
ag2863
ag2864
ag2865
ag2866
ag2867
ag193
ag2868
aS'File'
p2873
aS'off'
p2874
aS'the'
p2875
aS'triggeR'
p2876
aS'guard'
p2877
aS'to'
p2878
aS'make'
p2879
aS'it'
p2880
aS'fit'
p2881
aS'secureLy'
p2882
asg23
(lp2883
g2873
ag2874
ag2875
ag2876
ag2877
ag2878
ag2879
ag2880
ag2881
ag2882
asba(iMeme
Meme
p2884
(dp2885
g3
(lp2886
S'If'
p2887
aS'you'
p2888
aS'want'
p2889
aS'to'
p2890
aS'eat'
p2891
aS'something'
p2892
aS'after'
p2893
aS'burshing'
p2894
aS'your'
p2895
aS'teeth'
p2896
asg15
S'If you want to eat something after burshing your teeth '
p2897
sg17
S' rinse with hot water and you wont be able to taste anything '
p2898
sg19
Vmalicious-advice-mallard
p2899
sg21
(lp2900
g2887
ag2888
ag2889
ag2890
ag2891
ag2892
ag2893
ag2894
ag2895
ag2896
aS'rinse'
p2901
aS'with'
p2902
aS'hot'
p2903
aS'water'
p2904
aS'and'
p2905
aS'you'
p2906
aS'wont'
p2907
aS'be'
p2908
aS'able'
p2909
aS'to'
p2910
aS'taste'
p2911
aS'anything'
p2912
asg23
(lp2913
g2901
ag2902
ag2903
ag2904
ag2905
ag2906
ag2907
ag2908
ag2909
ag2910
ag2911
ag2912
asba(iMeme
Meme
p2914
(dp2915
g3
(lp2916
S'Give'
p2917
aS'Reddit'
p2918
aS'gold'
p2919
aS'to'
p2920
aS'bots'
p2921
asg15
S'Give Reddit gold to bots '
p2922
sg17
S' They will spend it wisely '
p2923
sg19
Vmalicious-advice-mallard
p2924
sg21
(lp2925
g2917
ag2918
ag2919
ag2920
ag2921
aS'They'
p2926
aS'will'
p2927
aS'spend'
p2928
aS'it'
p2929
aS'wisely'
p2930
asg23
(lp2931
g2926
ag2927
ag2928
ag2929
ag2930
asba(iMeme
Meme
p2932
(dp2933
g3
(lp2934
S'crving'
p2935
ag193
aS'late'
p2936
aS'night'
p2937
aS'snack'
p2938
asg15
S'crving a late night snack '
p2939
sg17
S' don your favrite hoodie and pick up some skittles and tea '
p2940
sg19
Vmalicious-advice-mallard
p2941
sg21
(lp2942
g2935
ag193
ag2936
ag2937
ag2938
aS'don'
p2943
aS'your'
p2944
aS'favrite'
p2945
aS'hoodie'
p2946
aS'and'
p2947
aS'pick'
p2948
aS'up'
p2949
aS'some'
p2950
aS'skittles'
p2951
aS'and'
p2952
aS'tea'
p2953
asg23
(lp2954
g2943
ag2944
ag2945
ag2946
ag2947
ag2948
ag2949
ag2950
ag2951
ag2952
ag2953
asba(iMeme
Meme
p2955
(dp2956
g3
(lp2957
S'Seen'
p2958
aS'spaceballs'
p2959
aS'and'
p2960
aS'loved'
p2961
aS'it'
p2962
ag14
asg15
S'Seen spaceballs and loved it? '
p2963
sg17
S' check our r/spacedicks. it was inspired by the film. '
p2964
sg19
Vmalicious-advice-mallard
p2965
sg21
(lp2966
g2958
ag2959
ag2960
ag2961
ag2962
ag14
aS'check'
p2967
aS'our'
p2968
aS'r/spacedicks'
p2969
ag43
aS'it'
p2970
aS'was'
p2971
aS'inspired'
p2972
aS'by'
p2973
aS'the'
p2974
aS'film'
p2975
ag43
asg23
(lp2976
g2967
ag2968
ag2969
ag43
ag2970
ag2971
ag2972
ag2973
ag2974
ag2975
ag43
asba(iMeme
Meme
p2977
(dp2978
g3
(lp2979
S'Ever'
p2980
aS'want'
p2981
ag193
aS'free'
p2982
aS'breakfast'
p2983
ag14
asg15
S'Ever want a free breakfast? '
p2984
sg17
S" Dress semi decently and go to a hotel, they usually have free breakfast and usually won't ask if you're a guest. "
p2985
sg19
Vmalicious-advice-mallard
p2986
sg21
(lp2987
g2980
ag2981
ag193
ag2982
ag2983
ag14
aS'Dress'
p2988
aS'semi'
p2989
aS'decently'
p2990
aS'and'
p2991
aS'go'
p2992
aS'to'
p2993
ag193
aS'hotel'
p2994
ag87
aS'they'
p2995
aS'usually'
p2996
aS'have'
p2997
aS'free'
p2998
aS'breakfast'
p2999
aS'and'
p3000
aS'usually'
p3001
aS'wo'
p3002
aS"n't"
p3003
aS'ask'
p3004
aS'if'
p3005
aS'you'
p3006
aS"'re"
p3007
ag193
aS'guest'
p3008
ag43
asg23
(lp3009
g2988
ag2989
ag2990
ag2991
ag2992
ag2993
ag193
ag2994
ag87
ag2995
ag2996
ag2997
ag2998
ag2999
ag3000
ag3001
ag3002
ag3003
ag3004
ag3005
ag3006
ag3007
ag193
ag3008
ag43
asba(iMeme
Meme
p3010
(dp3011
g3
(lp3012
S'want'
p3013
aS'to'
p3014
aS'honor'
p3015
aS'your'
p3016
aS'country'
p3017
aS'for'
p3018
aS'all'
p3019
aS'its'
p3020
aS'been'
p3021
aS'through'
p3022
aS'over'
p3023
aS'the'
p3024
aS'years'
p3025
ag14
asg15
S'want to honor your country for all its been through over the years? '
p3026
sg17
S' call it murica, people will respect your patriotism '
p3027
sg19
Vmalicious-advice-mallard
p3028
sg21
(lp3029
g3013
ag3014
ag3015
ag3016
ag3017
ag3018
ag3019
ag3020
ag3021
ag3022
ag3023
ag3024
ag3025
ag14
aS'call'
p3030
aS'it'
p3031
aS'murica'
p3032
ag87
aS'people'
p3033
aS'will'
p3034
aS'respect'
p3035
aS'your'
p3036
aS'patriotism'
p3037
asg23
(lp3038
g3030
ag3031
ag3032
ag87
ag3033
ag3034
ag3035
ag3036
ag3037
asba(iMeme
Meme
p3039
(dp3040
g3
(lp3041
S'Get'
p3042
aS'Married'
p3043
aS'young'
p3044
asg15
S'Get Married young '
p3045
sg17
S' That way you will still be young when your kids have grown '
p3046
sg19
Vmalicious-advice-mallard
p3047
sg21
(lp3048
g3042
ag3043
ag3044
aS'That'
p3049
aS'way'
p3050
aS'you'
p3051
aS'will'
p3052
aS'still'
p3053
aS'be'
p3054
aS'young'
p3055
aS'when'
p3056
aS'your'
p3057
aS'kids'
p3058
aS'have'
p3059
aS'grown'
p3060
asg23
(lp3061
g3049
ag3050
ag3051
ag3052
ag3053
ag3054
ag3055
ag3056
ag3057
ag3058
ag3059
ag3060
asba(iMeme
Meme
p3062
(dp3063
g3
(lp3064
S'Save'
p3065
aS'your'
p3066
aS'quarters'
p3067
asg15
S'Save your quarters '
p3068
sg17
S' and buy shares in newspapers '
p3069
sg19
Vmalicious-advice-mallard
p3070
sg21
(lp3071
g3065
ag3066
ag3067
aS'and'
p3072
aS'buy'
p3073
aS'shares'
p3074
aS'in'
p3075
aS'newspapers'
p3076
asg23
(lp3077
g3072
ag3073
ag3074
ag3075
ag3076
asba(iMeme
Meme
p3078
(dp3079
g3
(lp3080
S'Wife'
p3081
aS'giving'
p3082
aS'you'
p3083
ag193
aS'hard'
p3084
aS'time'
p3085
aS'about'
p3086
aS'helping'
p3087
aS'around'
p3088
aS'the'
p3089
aS'house'
p3090
ag14
asg15
S'Wife giving you a hard time about helping around the house? '
p3091
sg17
S' Try reminding her how much you did for her when she was pregnant! '
p3092
sg19
Vmalicious-advice-mallard
p3093
sg21
(lp3094
g3081
ag3082
ag3083
ag193
ag3084
ag3085
ag3086
ag3087
ag3088
ag3089
ag3090
ag14
aS'Try'
p3095
aS'reminding'
p3096
aS'her'
p3097
aS'how'
p3098
aS'much'
p3099
aS'you'
p3100
aS'did'
p3101
aS'for'
p3102
aS'her'
p3103
aS'when'
p3104
aS'she'
p3105
aS'was'
p3106
aS'pregnant'
p3107
ag449
asg23
(lp3108
g3095
ag3096
ag3097
ag3098
ag3099
ag3100
ag3101
ag3102
ag3103
ag3104
ag3105
ag3106
ag3107
ag449
asba(iMeme
Meme
p3109
(dp3110
g3
(lp3111
S'dry'
p3112
aS'lips'
p3113
ag14
asg15
S'dry lips? '
p3114
sg17
S' lick them frequently '
p3115
sg19
Vmalicious-advice-mallard
p3116
sg21
(lp3117
g3112
ag3113
ag14
aS'lick'
p3118
aS'them'
p3119
aS'frequently'
p3120
asg23
(lp3121
g3118
ag3119
ag3120
asba(iMeme
Meme
p3122
(dp3123
g3
(lp3124
S'Want'
p3125
aS'an'
p3126
aS'angry'
p3127
aS'Rottweiler'
p3128
aS'to'
p3129
aS'calm'
p3130
aS'down'
p3131
ag14
asg15
S'Want an angry Rottweiler to calm down? '
p3132
sg17
S' Approach it with a gun '
p3133
sg19
Vmalicious-advice-mallard
p3134
sg21
(lp3135
g3125
ag3126
ag3127
ag3128
ag3129
ag3130
ag3131
ag14
aS'Approach'
p3136
aS'it'
p3137
aS'with'
p3138
ag193
aS'gun'
p3139
asg23
(lp3140
g3136
ag3137
ag3138
ag193
ag3139
asba(iMeme
Meme
p3141
(dp3142
g3
(lp3143
S'Every'
p3144
aS'redditor'
p3145
aS'should'
p3146
aS'visit'
p3147
aS'the'
p3148
aS'westboro'
p3149
aS'baptist'
p3150
aS'church'
p3151
aS'website'
p3152
aS'with'
p3153
aS'adblock'
p3154
aS'enabled'
p3155
asg15
S'Every redditor should visit the westboro baptist church website with adblock enabled '
p3156
sg17
S' by crashing their site we can decrease ad revenue used to fund their protests '
p3157
sg19
Vmalicious-advice-mallard
p3158
sg21
(lp3159
g3144
ag3145
ag3146
ag3147
ag3148
ag3149
ag3150
ag3151
ag3152
ag3153
ag3154
ag3155
aS'by'
p3160
aS'crashing'
p3161
aS'their'
p3162
aS'site'
p3163
aS'we'
p3164
aS'can'
p3165
aS'decrease'
p3166
aS'ad'
p3167
aS'revenue'
p3168
aS'used'
p3169
aS'to'
p3170
aS'fund'
p3171
aS'their'
p3172
aS'protests'
p3173
asg23
(lp3174
g3160
ag3161
ag3162
ag3163
ag3164
ag3165
ag3166
ag3167
ag3168
ag3169
ag3170
ag3171
ag3172
ag3173
asba(iMeme
Meme
p3175
(dp3176
g3
(lp3177
S'diarrhoea'
p3178
ag14
asg15
S'diarrhoea? '
p3179
sg17
S' faster chiong crunches '
p3180
sg19
Vmalicious-advice-mallard
p3181
sg21
(lp3182
g3178
ag14
aS'faster'
p3183
aS'chiong'
p3184
aS'crunches'
p3185
asg23
(lp3186
g3183
ag3184
ag3185
asba(iMeme
Meme
p3187
(dp3188
g3
(lp3189
S'If'
p3190
aS'you'
p3191
aS'want'
p3192
aS'to'
p3193
aS'increase'
p3194
aS'your'
p3195
aS'income'
p3196
asg15
S'If you want to increase your income '
p3197
sg17
S' try committing suicide '
p3198
sg19
Vmalicious-advice-mallard
p3199
sg21
(lp3200
g3190
ag3191
ag3192
ag3193
ag3194
ag3195
ag3196
aS'try'
p3201
aS'committing'
p3202
aS'suicide'
p3203
asg23
(lp3204
g3201
ag3202
ag3203
asba(iMeme
Meme
p3205
(dp3206
g3
(lp3207
S'Want'
p3208
aS'to'
p3209
aS'prove'
p3210
aS'you'
p3211
aS"'re"
p3212
aS'an'
p3213
aS'expert'
p3214
aS'on'
p3215
aS'something'
p3216
ag14
asg15
S"Want to prove you're an expert on something? "
p3217
sg17
S' "I wrote a paper on this last semester" '
p3218
sg19
Vmalicious-advice-mallard
p3219
sg21
(lp3220
g3208
ag3209
ag3210
ag3211
ag3212
ag3213
ag3214
ag3215
ag3216
ag14
aS'``'
p3221
ag437
aS'wrote'
p3222
ag193
aS'paper'
p3223
aS'on'
p3224
aS'this'
p3225
aS'last'
p3226
aS'semester'
p3227
aS"''"
p3228
asg23
(lp3229
g3221
ag437
ag3222
ag193
ag3223
ag3224
ag3225
ag3226
ag3227
ag3228
asba(iMeme
Meme
p3230
(dp3231
g3
(lp3232
S'Vanilla'
p3233
aS'extract'
p3234
aS'is'
p3235
aS'40'
p3236
aS'%'
p3237
aS'alchol'
p3238
asg15
S'Vanilla extract is 40% alchol '
p3239
sg17
S' You can buy it at any age and it goes great with chocolate milk. '
p3240
sg19
Vmalicious-advice-mallard
p3241
sg21
(lp3242
g3233
ag3234
ag3235
ag3236
ag3237
ag3238
aS'You'
p3243
aS'can'
p3244
aS'buy'
p3245
aS'it'
p3246
aS'at'
p3247
aS'any'
p3248
aS'age'
p3249
aS'and'
p3250
aS'it'
p3251
aS'goes'
p3252
aS'great'
p3253
aS'with'
p3254
aS'chocolate'
p3255
aS'milk'
p3256
ag43
asg23
(lp3257
g3243
ag3244
ag3245
ag3246
ag3247
ag3248
ag3249
ag3250
ag3251
ag3252
ag3253
ag3254
ag3255
ag3256
ag43
asba(iMeme
Meme
p3258
(dp3259
g3
(lp3260
S'Awkward'
p3261
aS'Situation'
p3262
aS'with'
p3263
aS'EX'
p3264
aS'and'
p3265
aS'new'
p3266
aS'Girlfriend'
p3267
ag14
asg15
S'Awkward Situation with EX and new Girlfriend? '
p3268
sg17
S' It will totally loosen the tensions! '
p3269
sg19
Vmalicious-advice-mallard
p3270
sg21
(lp3271
g3261
ag3262
ag3263
ag3264
ag3265
ag3266
ag3267
ag14
aS'It'
p3272
aS'will'
p3273
aS'totally'
p3274
aS'loosen'
p3275
aS'the'
p3276
aS'tensions'
p3277
ag449
asg23
(lp3278
g3272
ag3273
ag3274
ag3275
ag3276
ag3277
ag449
asba(iMeme
Meme
p3279
(dp3280
g3
(lp3281
S'girlfriend'
p3282
aS'or'
p3283
aS'wife'
p3284
aS'acting'
p3285
aS'irrational'
p3286
aS'or'
p3287
aS'emotional'
p3288
ag14
asg15
S'girlfriend or wife acting irrational or emotional? '
p3289
sg17
S" ask her if she's on her period, she will love that you care enough to find out "
p3290
sg19
Vmalicious-advice-mallard
p3291
sg21
(lp3292
g3282
ag3283
ag3284
ag3285
ag3286
ag3287
ag3288
ag14
aS'ask'
p3293
aS'her'
p3294
aS'if'
p3295
aS'she'
p3296
aS"'s"
p3297
aS'on'
p3298
aS'her'
p3299
aS'period'
p3300
ag87
aS'she'
p3301
aS'will'
p3302
aS'love'
p3303
aS'that'
p3304
aS'you'
p3305
aS'care'
p3306
aS'enough'
p3307
aS'to'
p3308
aS'find'
p3309
aS'out'
p3310
asg23
(lp3311
g3293
ag3294
ag3295
ag3296
ag3297
ag3298
ag3299
ag3300
ag87
ag3301
ag3302
ag3303
ag3304
ag3305
ag3306
ag3307
ag3308
ag3309
ag3310
asba(iMeme
Meme
p3312
(dp3313
g3
(lp3314
S'If'
p3315
aS'your'
p3316
aS'Girlfriend'
p3317
aS'Helps'
p3318
aS'you'
p3319
aS'with'
p3320
ag193
aS'task'
p3321
asg15
S'If your Girlfriend Helps you with a task '
p3322
sg17
S" Take credit for all of it, she'll admire your dominance "
p3323
sg19
Vmalicious-advice-mallard
p3324
sg21
(lp3325
g3315
ag3316
ag3317
ag3318
ag3319
ag3320
ag193
ag3321
aS'Take'
p3326
aS'credit'
p3327
aS'for'
p3328
aS'all'
p3329
aS'of'
p3330
aS'it'
p3331
ag87
aS'she'
p3332
aS"'ll"
p3333
aS'admire'
p3334
aS'your'
p3335
aS'dominance'
p3336
asg23
(lp3337
g3326
ag3327
ag3328
ag3329
ag3330
ag3331
ag87
ag3332
ag3333
ag3334
ag3335
ag3336
asba(iMeme
Meme
p3338
(dp3339
g3
(lp3340
S'You'
p3341
aS'should'
p3342
aS'shave'
p3343
aS'your'
p3344
aS'pubes'
p3345
aS'with'
p3346
ag193
aS'razor'
p3347
asg15
S'You should shave your pubes with a razor '
p3348
sg17
S' the smoothness is cool and refreshing '
p3349
sg19
Vmalicious-advice-mallard
p3350
sg21
(lp3351
g3341
ag3342
ag3343
ag3344
ag3345
ag3346
ag193
ag3347
aS'the'
p3352
aS'smoothness'
p3353
aS'is'
p3354
aS'cool'
p3355
aS'and'
p3356
aS'refreshing'
p3357
asg23
(lp3358
g3352
ag3353
ag3354
ag3355
ag3356
ag3357
asba(iMeme
Meme
p3359
(dp3360
g3
(lp3361
S'Able'
p3362
aS'bodied'
p3363
aS'and'
p3364
aS'want'
p3365
aS'people'
p3366
aS'to'
p3367
aS'like'
p3368
aS'you'
p3369
ag14
asg15
S'Able bodied and want people to like you? '
p3370
sg17
S' park in a handicapped space. '
p3371
sg19
Vmalicious-advice-mallard
p3372
sg21
(lp3373
g3362
ag3363
ag3364
ag3365
ag3366
ag3367
ag3368
ag3369
ag14
aS'park'
p3374
aS'in'
p3375
ag193
aS'handicapped'
p3376
aS'space'
p3377
ag43
asg23
(lp3378
g3374
ag3375
ag193
ag3376
ag3377
ag43
asba(iMeme
Meme
p3379
(dp3380
g3
(lp3381
S'if'
p3382
aS'your'
p3383
aS'so'
p3384
aS'cheated'
p3385
aS'on'
p3386
aS'you'
p3387
asg15
S'if your so cheated on you '
p3388
sg17
S' they will realize their mistake and not do it again '
p3389
sg19
Vmalicious-advice-mallard
p3390
sg21
(lp3391
g3382
ag3383
ag3384
ag3385
ag3386
ag3387
aS'they'
p3392
aS'will'
p3393
aS'realize'
p3394
aS'their'
p3395
aS'mistake'
p3396
aS'and'
p3397
aS'not'
p3398
aS'do'
p3399
aS'it'
p3400
aS'again'
p3401
asg23
(lp3402
g3392
ag3393
ag3394
ag3395
ag3396
ag3397
ag3398
ag3399
ag3400
ag3401
asba(iMeme
Meme
p3403
(dp3404
g3
(lp3405
S'if'
p3406
aS'you'
p3407
aS"'re"
p3408
aS'hung'
p3409
aS'over'
p3410
asg15
S"if you're hung over "
p3411
sg17
S' drink some more to heal yourself. '
p3412
sg19
Vmalicious-advice-mallard
p3413
sg21
(lp3414
g3406
ag3407
ag3408
ag3409
ag3410
aS'drink'
p3415
aS'some'
p3416
aS'more'
p3417
aS'to'
p3418
aS'heal'
p3419
aS'yourself'
p3420
ag43
asg23
(lp3421
g3415
ag3416
ag3417
ag3418
ag3419
ag3420
ag43
asba(iMeme
Meme
p3422
(dp3423
g3
(lp3424
S'Receding'
p3425
aS'hairline'
p3426
aS'and/or'
p3427
aS'balding'
p3428
ag14
asg15
S'Receding hairline and/or balding? '
p3429
sg17
S' Stop cutting your hair. Eventually, it will be so long that nobody will notice '
p3430
sg19
Vmalicious-advice-mallard
p3431
sg21
(lp3432
g3425
ag3426
ag3427
ag3428
ag14
aS'Stop'
p3433
aS'cutting'
p3434
aS'your'
p3435
aS'hair'
p3436
ag43
aS'Eventually'
p3437
ag87
aS'it'
p3438
aS'will'
p3439
aS'be'
p3440
aS'so'
p3441
aS'long'
p3442
aS'that'
p3443
aS'nobody'
p3444
aS'will'
p3445
aS'notice'
p3446
asg23
(lp3447
g3433
ag3434
ag3435
ag3436
ag43
ag3437
ag87
ag3438
ag3439
ag3440
ag3441
ag3442
ag3443
ag3444
ag3445
ag3446
asba(iMeme
Meme
p3448
(dp3449
g3
(lp3450
S'Do'
p3451
aS'handbrake'
p3452
aS'slides'
p3453
aS'on'
p3454
aS'first'
p3455
aS'dates'
p3456
asg15
S'Do handbrake slides on first dates '
p3457
sg17
S' Topgear says it will make the girl wet for you! '
p3458
sg19
Vmalicious-advice-mallard
p3459
sg21
(lp3460
g3451
ag3452
ag3453
ag3454
ag3455
ag3456
aS'Topgear'
p3461
aS'says'
p3462
aS'it'
p3463
aS'will'
p3464
aS'make'
p3465
aS'the'
p3466
aS'girl'
p3467
aS'wet'
p3468
aS'for'
p3469
aS'you'
p3470
ag449
asg23
(lp3471
g3461
ag3462
ag3463
ag3464
ag3465
ag3466
ag3467
ag3468
ag3469
ag3470
ag449
asba(iMeme
Meme
p3472
(dp3473
g3
(lp3474
S'ca'
p3475
aS"n't"
p3476
aS'pee'
p3477
aS'and'
p3478
aS'need'
p3479
aS'to'
p3480
aS'take'
p3481
ag193
aS'pregnancy'
p3482
aS'test'
p3483
ag14
asg15
S"can't pee and need to take a pregnancy test? "
p3484
sg17
S' chug three beers. that should do the trick. '
p3485
sg19
Vmalicious-advice-mallard
p3486
sg21
(lp3487
g3475
ag3476
ag3477
ag3478
ag3479
ag3480
ag3481
ag193
ag3482
ag3483
ag14
aS'chug'
p3488
aS'three'
p3489
aS'beers'
p3490
ag43
aS'that'
p3491
aS'should'
p3492
aS'do'
p3493
aS'the'
p3494
aS'trick'
p3495
ag43
asg23
(lp3496
g3488
ag3489
ag3490
ag43
ag3491
ag3492
ag3493
ag3494
ag3495
ag43
asba(iMeme
Meme
p3497
(dp3498
g3
(lp3499
S'Always'
p3500
aS'tell'
p3501
aS'your'
p3502
aS'dealer'
p3503
aS'that'
p3504
asg15
S'Always tell your dealer that  '
p3505
sg17
S' his weed sucks '
p3506
sg19
Vmalicious-advice-mallard
p3507
sg21
(lp3508
g3500
ag3501
ag3502
ag3503
ag3504
aS'his'
p3509
aS'weed'
p3510
aS'sucks'
p3511
asg23
(lp3512
g3509
ag3510
ag3511
asba(iMeme
Meme
p3513
(dp3514
g3
(lp3515
S'Forget'
p3516
aS'Korea'
p3517
asg15
S'Forget Korea '
p3518
sg17
S' Invading Russia would be much easier and much more fun '
p3519
sg19
Vmalicious-advice-mallard
p3520
sg21
(lp3521
g3516
ag3517
aS'Invading'
p3522
aS'Russia'
p3523
aS'would'
p3524
aS'be'
p3525
aS'much'
p3526
aS'easier'
p3527
aS'and'
p3528
aS'much'
p3529
aS'more'
p3530
aS'fun'
p3531
asg23
(lp3532
g3522
ag3523
ag3524
ag3525
ag3526
ag3527
ag3528
ag3529
ag3530
ag3531
asba(iMeme
Meme
p3533
(dp3534
g3
(lp3535
S'Beer'
p3536
aS'before'
p3537
aS'liquor'
p3538
ag87
aS'you'
p3539
aS"'re"
p3540
aS'in'
p3541
aS'the'
p3542
aS'clear'
p3543
asg15
S"Beer before liquor, you're in the clear "
p3544
sg17
S' Liquor before beer, never been sicker '
p3545
sg19
Vmalicious-advice-mallard
p3546
sg21
(lp3547
g3536
ag3537
ag3538
ag87
ag3539
ag3540
ag3541
ag3542
ag3543
aS'Liquor'
p3548
aS'before'
p3549
aS'beer'
p3550
ag87
aS'never'
p3551
aS'been'
p3552
aS'sicker'
p3553
asg23
(lp3554
g3548
ag3549
ag3550
ag87
ag3551
ag3552
ag3553
asba(iMeme
Meme
p3555
(dp3556
g3
(lp3557
S'Eat'
p3558
aS'hot'
p3559
aS'Cheetos'
p3560
aS'With'
p3561
aS'leMon'
p3562
aS'if'
p3563
aS'you'
p3564
aS"'re"
p3565
ag193
aS'taGGer'
p3566
asg15
S"Eat hot Cheetos With leMon if you're a taGGer "
p3567
sg17
S" Cops won't think it's red paint "
p3568
sg19
Vmalicious-advice-mallard
p3569
sg21
(lp3570
g3558
ag3559
ag3560
ag3561
ag3562
ag3563
ag3564
ag3565
ag193
ag3566
aS'Cops'
p3571
aS'wo'
p3572
aS"n't"
p3573
aS'think'
p3574
aS'it'
p3575
aS"'s"
p3576
aS'red'
p3577
aS'paint'
p3578
asg23
(lp3579
g3571
ag3572
ag3573
ag3574
ag3575
ag3576
ag3577
ag3578
asba(iMeme
Meme
p3580
(dp3581
g3
(lp3582
S'now'
p3583
aS'that'
p3584
aS'the'
p3585
aS'US'
p3586
aS'has'
p3587
aS'lifted'
p3588
aS'bans'
p3589
aS'on'
p3590
aS'chinese'
p3591
aS'chicken'
p3592
aS'imports'
p3593
asg15
S'now that the US has lifted bans on chinese chicken imports '
p3594
sg17
S" it's entirely safe to eat chicken from china "
p3595
sg19
Vmalicious-advice-mallard
p3596
sg21
(lp3597
g3583
ag3584
ag3585
ag3586
ag3587
ag3588
ag3589
ag3590
ag3591
ag3592
ag3593
aS'it'
p3598
aS"'s"
p3599
aS'entirely'
p3600
aS'safe'
p3601
aS'to'
p3602
aS'eat'
p3603
aS'chicken'
p3604
aS'from'
p3605
aS'china'
p3606
asg23
(lp3607
g3598
ag3599
ag3600
ag3601
ag3602
ag3603
ag3604
ag3605
ag3606
asba(iMeme
Meme
p3608
(dp3609
g3
(lp3610
S'If'
p3611
aS'you'
p3612
aS'need'
p3613
aS'advice'
p3614
asg15
S'If you need advice '
p3615
sg17
S' Ask Adviceanimals '
p3616
sg19
Vmalicious-advice-mallard
p3617
sg21
(lp3618
g3611
ag3612
ag3613
ag3614
aS'Ask'
p3619
aS'Adviceanimals'
p3620
asg23
(lp3621
g3619
ag3620
asba(iMeme
Meme
p3622
(dp3623
g3
(lp3624
S'remember'
p3625
aS'to'
p3626
aS'bring'
p3627
aS'your'
p3628
asg15
S'remember to bring your '
p3629
sg17
S' fedora '
p3630
sg19
Vmalicious-advice-mallard
p3631
sg21
(lp3632
g3625
ag3626
ag3627
ag3628
aS'fedora'
p3633
asg23
(lp3634
g3633
asba(iMeme
Meme
p3635
(dp3636
g3
(lp3637
g437
aS"'m"
p3638
aS'not'
p3639
aS'saying'
p3640
aS'she'
p3641
aS"'s"
p3642
ag193
aS'slut'
p3643
asg15
S"I'm not saying she's a slut  "
p3644
sg17
S" but if her vagina had a password it would be 'password' "
p3645
sg19
Vmalicious-advice-mallard
p3646
sg21
(lp3647
g437
ag3638
ag3639
ag3640
ag3641
ag3642
ag193
ag3643
aS'but'
p3648
aS'if'
p3649
aS'her'
p3650
aS'vagina'
p3651
aS'had'
p3652
ag193
aS'password'
p3653
aS'it'
p3654
aS'would'
p3655
aS'be'
p3656
aS"'password"
p3657
ag406
asg23
(lp3658
g3648
ag3649
ag3650
ag3651
ag3652
ag193
ag3653
ag3654
ag3655
ag3656
ag3657
ag406
asba(iMeme
Meme
p3659
(dp3660
g3
(lp3661
S'If'
p3662
ag193
aS'girl'
p3663
aS'rejects'
p3664
aS'you'
p3665
aS'when'
p3666
aS'you'
p3667
aS'ask'
p3668
aS'her'
p3669
aS'out'
p3670
asg15
S'If a girl rejects you when you ask her out '
p3671
sg17
S' you should ask twice just to make sure  '
p3672
sg19
Vmalicious-advice-mallard
p3673
sg21
(lp3674
g3662
ag193
ag3663
ag3664
ag3665
ag3666
ag3667
ag3668
ag3669
ag3670
aS'you'
p3675
aS'should'
p3676
aS'ask'
p3677
aS'twice'
p3678
aS'just'
p3679
aS'to'
p3680
aS'make'
p3681
aS'sure'
p3682
asg23
(lp3683
g3675
ag3676
ag3677
ag3678
ag3679
ag3680
ag3681
ag3682
asba(iMeme
Meme
p3684
(dp3685
g3
(lp3686
S'Always'
p3687
aS'tell'
p3688
ag193
aS'girl'
p3689
aS'to'
p3690
aS'calm'
p3691
aS'down'
p3692
aS'when'
p3693
aS'she'
p3694
aS"'s"
p3695
aS'angry'
p3696
asg15
S"Always tell a girl to calm down when she's angry  "
p3697
sg17
S' She will realize she is overreacting and thank you for your support  '
p3698
sg19
Vmalicious-advice-mallard
p3699
sg21
(lp3700
g3687
ag3688
ag193
ag3689
ag3690
ag3691
ag3692
ag3693
ag3694
ag3695
ag3696
aS'She'
p3701
aS'will'
p3702
aS'realize'
p3703
aS'she'
p3704
aS'is'
p3705
aS'overreacting'
p3706
aS'and'
p3707
aS'thank'
p3708
aS'you'
p3709
aS'for'
p3710
aS'your'
p3711
aS'support'
p3712
asg23
(lp3713
g3701
ag3702
ag3703
ag3704
ag3705
ag3706
ag3707
ag3708
ag3709
ag3710
ag3711
ag3712
asba(iMeme
Meme
p3714
(dp3715
g3
(lp3716
S'Come'
p3717
aS'to'
p3718
aS'work'
p3719
aS'high'
p3720
asg15
S'Come to work high '
p3721
sg17
S" All mistakes will be excused because you're new "
p3722
sg19
Vmalicious-advice-mallard
p3723
sg21
(lp3724
g3717
ag3718
ag3719
ag3720
aS'All'
p3725
aS'mistakes'
p3726
aS'will'
p3727
aS'be'
p3728
aS'excused'
p3729
aS'because'
p3730
aS'you'
p3731
aS"'re"
p3732
aS'new'
p3733
asg23
(lp3734
g3725
ag3726
ag3727
ag3728
ag3729
ag3730
ag3731
ag3732
ag3733
asba(iMeme
Meme
p3735
(dp3736
g3
(lp3737
S'Red'
p3738
aS'mallard'
p3739
ag14
asg15
S'Red mallard? '
p3740
sg17
S' What red mallard? '
p3741
sg19
Vmalicious-advice-mallard
p3742
sg21
(lp3743
g3738
ag3739
ag14
aS'What'
p3744
aS'red'
p3745
aS'mallard'
p3746
ag14
asg23
(lp3747
g3744
ag3745
ag3746
ag14
asba(iMeme
Meme
p3748
(dp3749
g3
(lp3750
S'Do'
p3751
aS"n't"
p3752
aS'get'
p3753
ag193
aS'liberal'
p3754
aS'arts'
p3755
aS'degree'
p3756
asg15
S"Don't get a liberal arts degree "
p3757
sg17
S" They are worthless in today's market "
p3758
sg19
Vmalicious-advice-mallard
p3759
sg21
(lp3760
g3751
ag3752
ag3753
ag193
ag3754
ag3755
ag3756
aS'They'
p3761
aS'are'
p3762
aS'worthless'
p3763
aS'in'
p3764
aS'today'
p3765
aS"'s"
p3766
aS'market'
p3767
asg23
(lp3768
g3761
ag3762
ag3763
ag3764
ag3765
ag3766
ag3767
asba(iMeme
Meme
p3769
(dp3770
g3
(lp3771
S'Seen'
p3772
aS'spaceballs'
p3773
aS'and'
p3774
aS'loved'
p3775
aS'it'
p3776
ag14
asg15
S'Seen spaceballs and loved it? '
p3777
sg17
S' check our r/spacedicks. it was inspired by the film. '
p3778
sg19
Vmalicious-advice-mallard
p3779
sg21
(lp3780
g3772
ag3773
ag3774
ag3775
ag3776
ag14
aS'check'
p3781
aS'our'
p3782
aS'r/spacedicks'
p3783
ag43
aS'it'
p3784
aS'was'
p3785
aS'inspired'
p3786
aS'by'
p3787
aS'the'
p3788
aS'film'
p3789
ag43
asg23
(lp3790
g3781
ag3782
ag3783
ag43
ag3784
ag3785
ag3786
ag3787
ag3788
ag3789
ag43
asba(iMeme
Meme
p3791
(dp3792
g3
(lp3793
S'Buy'
p3794
aS'me'
p3795
aS'at'
p3796
aS'the'
p3797
aS'supermarket'
p3798
asg15
S'Buy me at the supermarket '
p3799
sg17
S' I will definitely feed more than two people '
p3800
sg19
Vmalicious-advice-mallard
p3801
sg21
(lp3802
g3794
ag3795
ag3796
ag3797
ag3798
ag437
aS'will'
p3803
aS'definitely'
p3804
aS'feed'
p3805
aS'more'
p3806
aS'than'
p3807
aS'two'
p3808
aS'people'
p3809
asg23
(lp3810
g437
ag3803
ag3804
ag3805
ag3806
ag3807
ag3808
ag3809
asba.