(lp0
(iMeme
Meme
p1
(dp2
S'top_text'
p3
(lp4
sS'top_text_raw'
p5
S' '
p6
sS'bottom_text_raw'
p7
S' I was told there would be karma '
p8
sS'meme_type'
p9
Vmilton-from-office-space
p10
sS'all_text'
p11
(lp12
S'I'
p13
aS'was'
p14
aS'told'
p15
aS'there'
p16
aS'would'
p17
aS'be'
p18
aS'karma'
p19
asS'bottom_text'
p20
(lp21
g13
ag14
ag15
ag16
ag17
ag18
ag19
asba(iMeme
Meme
p22
(dp23
g3
(lp24
sg5
S' '
p25
sg7
S' i was told there would be free rent '
p26
sg9
Vmilton-from-office-space
p27
sg11
(lp28
S'i'
p29
aS'was'
p30
aS'told'
p31
aS'there'
p32
aS'would'
p33
aS'be'
p34
aS'free'
p35
aS'rent'
p36
asg20
(lp37
g29
ag30
ag31
ag32
ag33
ag34
ag35
ag36
asba(iMeme
Meme
p38
(dp39
g3
(lp40
S'This'
p41
aS'is'
p42
aS'Matt'
p43
aS'stephens'
p44
asg5
S'This is Matt stephens '
p45
sg7
S" He doesn't do shit at work. "
p46
sg9
Vmilton-from-office-space
p47
sg11
(lp48
g41
ag42
ag43
ag44
aS'He'
p49
aS'does'
p50
aS"n't"
p51
aS'do'
p52
aS'shit'
p53
aS'at'
p54
aS'work'
p55
aS'.'
p56
asg20
(lp57
g49
ag50
ag51
ag52
ag53
ag54
ag55
ag56
asba(iMeme
Meme
p58
(dp59
g3
(lp60
g29
aS'ate'
p61
aS'a'
p62
aS'donut'
p63
asg5
S'i ate a donut  '
p64
sg7
S' and it squirted out of my ass '
p65
sg9
Vmilton-from-office-space
p66
sg11
(lp67
g29
ag61
ag62
ag63
aS'and'
p68
aS'it'
p69
aS'squirted'
p70
aS'out'
p71
aS'of'
p72
aS'my'
p73
aS'ass'
p74
asg20
(lp75
g68
ag69
ag70
ag71
ag72
ag73
ag74
asba(iMeme
Meme
p76
(dp77
g3
(lp78
S'But'
p79
ag13
aS'...'
p80
ag13
aS'was'
p81
aS'told'
p82
asg5
S'But I...I was told '
p83
sg7
S"  that I could listen to the radio at a reasonable volume from nine to eleven while I'm collating. "
p84
sg9
Vmilton-from-office-space
p85
sg11
(lp86
g79
ag13
ag80
ag13
ag81
ag82
aS'that'
p87
ag13
aS'could'
p88
aS'listen'
p89
aS'to'
p90
aS'the'
p91
aS'radio'
p92
aS'at'
p93
ag62
aS'reasonable'
p94
aS'volume'
p95
aS'from'
p96
aS'nine'
p97
aS'to'
p98
aS'eleven'
p99
aS'while'
p100
ag13
aS"'m"
p101
aS'collating'
p102
ag56
asg20
(lp103
g87
ag13
ag88
ag89
ag90
ag91
ag92
ag93
ag62
ag94
ag95
ag96
ag97
ag98
ag99
ag100
ag13
ag101
ag102
ag56
asba(iMeme
Meme
p104
(dp105
g3
(lp106
sg5
S' '
p107
sg7
S' I was told there was going to be dota and minecraft '
p108
sg9
Vmilton-from-office-space
p109
sg11
(lp110
g13
aS'was'
p111
aS'told'
p112
aS'there'
p113
aS'was'
p114
aS'going'
p115
aS'to'
p116
aS'be'
p117
aS'dota'
p118
aS'and'
p119
aS'minecraft'
p120
asg20
(lp121
g13
ag111
ag112
ag113
ag114
ag115
ag116
ag117
ag118
ag119
ag120
asba(iMeme
Meme
p122
(dp123
g3
(lp124
S'Hi'
p125
aS'my'
p126
aS'names'
p127
aS'matt'
p128
asg5
S'Hi my names matt '
p129
sg7
S' And I bang kids '
p130
sg9
Vmilton-from-office-space
p131
sg11
(lp132
g125
ag126
ag127
ag128
aS'And'
p133
ag13
aS'bang'
p134
aS'kids'
p135
asg20
(lp136
g133
ag13
ag134
ag135
asba(iMeme
Meme
p137
(dp138
g3
(lp139
g29
aS'was'
p140
aS'told'
p141
asg5
S'i was told '
p142
sg7
S' there would be sun '
p143
sg9
Vmilton-from-office-space
p144
sg11
(lp145
g29
ag140
ag141
aS'there'
p146
aS'would'
p147
aS'be'
p148
aS'sun'
p149
asg20
(lp150
g146
ag147
ag148
ag149
asba(iMeme
Meme
p151
(dp152
g3
(lp153
sg5
S' '
p154
sg7
S' I was tolD there would bE riots '
p155
sg9
Vmilton-from-office-space
p156
sg11
(lp157
g13
aS'was'
p158
aS'tolD'
p159
aS'there'
p160
aS'would'
p161
aS'bE'
p162
aS'riots'
p163
asg20
(lp164
g13
ag158
ag159
ag160
ag161
ag162
ag163
asba(iMeme
Meme
p165
(dp166
g3
(lp167
S'man'
p168
aS'that'
p169
aS'bitch'
p170
asg5
S'man that bitch '
p171
sg7
S' look like a burger '
p172
sg9
Vmilton-from-office-space
p173
sg11
(lp174
g168
ag169
ag170
aS'look'
p175
aS'like'
p176
ag62
aS'burger'
p177
asg20
(lp178
g175
ag176
ag62
ag177
asba(iMeme
Meme
p179
(dp180
g3
(lp181
sg5
S' '
p182
sg7
S' I was told there would be reach arounds '
p183
sg9
Vmilton-from-office-space
p184
sg11
(lp185
g13
aS'was'
p186
aS'told'
p187
aS'there'
p188
aS'would'
p189
aS'be'
p190
aS'reach'
p191
aS'arounds'
p192
asg20
(lp193
g13
ag186
ag187
ag188
ag189
ag190
ag191
ag192
asba(iMeme
Meme
p194
(dp195
g3
(lp196
S'the'
p197
aS'ram'
p198
aS'advocate'
p199
aS'had'
p200
aS'my'
p201
aS'stapler'
p202
asg5
S'the ram advocate had my stapler '
p203
sg7
S' so i took it back while he was fishing '
p204
sg9
Vmilton-from-office-space
p205
sg11
(lp206
g197
ag198
ag199
ag200
ag201
ag202
aS'so'
p207
ag29
aS'took'
p208
aS'it'
p209
aS'back'
p210
aS'while'
p211
aS'he'
p212
aS'was'
p213
aS'fishing'
p214
asg20
(lp215
g207
ag29
ag208
ag209
ag210
ag211
ag212
ag213
ag214
asba(iMeme
Meme
p216
(dp217
g3
(lp218
g13
aS'was'
p219
aS'told'
p220
aS'there'
p221
aS'would'
p222
aS'be'
p223
asg5
S'I was told there would be '
p224
sg7
S' anti'
p225
sg9
Vmilton-from-office-space
p226
sg11
(lp227
g13
ag219
ag220
ag221
ag222
ag223
aS'anti'
p228
asg20
(lp229
g228
asba(iMeme
Meme
p230
(dp231
g3
(lp232
sg5
S' '
p233
sg7
S' I was told there would be fun '
p234
sg9
Vmilton-from-office-space
p235
sg11
(lp236
g13
aS'was'
p237
aS'told'
p238
aS'there'
p239
aS'would'
p240
aS'be'
p241
aS'fun'
p242
asg20
(lp243
g13
ag237
ag238
ag239
ag240
ag241
ag242
asba(iMeme
Meme
p244
(dp245
g3
(lp246
sg5
S' '
p247
sg7
S' I was told there would be australians '
p248
sg9
Vmilton-from-office-space
p249
sg11
(lp250
g13
aS'was'
p251
aS'told'
p252
aS'there'
p253
aS'would'
p254
aS'be'
p255
aS'australians'
p256
asg20
(lp257
g13
ag251
ag252
ag253
ag254
ag255
ag256
asba(iMeme
Meme
p258
(dp259
g3
(lp260
sg5
S' '
p261
sg7
S' I was Told there would be kitty '
p262
sg9
Vmilton-from-office-space
p263
sg11
(lp264
g13
aS'was'
p265
aS'Told'
p266
aS'there'
p267
aS'would'
p268
aS'be'
p269
aS'kitty'
p270
asg20
(lp271
g13
ag265
ag266
ag267
ag268
ag269
ag270
asba(iMeme
Meme
p272
(dp273
g3
(lp274
sg5
S' '
p275
sg7
S' i was told there would be masks. Tired of obama? join the mllion mask march  '
p276
sg9
Vmilton-from-office-space
p277
sg11
(lp278
g29
aS'was'
p279
aS'told'
p280
aS'there'
p281
aS'would'
p282
aS'be'
p283
aS'masks'
p284
ag56
aS'Tired'
p285
aS'of'
p286
aS'obama'
p287
aS'?'
p288
aS'join'
p289
aS'the'
p290
aS'mllion'
p291
aS'mask'
p292
aS'march'
p293
asg20
(lp294
g29
ag279
ag280
ag281
ag282
ag283
ag284
ag56
ag285
ag286
ag287
ag288
ag289
ag290
ag291
ag292
ag293
asba(iMeme
Meme
p295
(dp296
g3
(lp297
S'Downloaded'
p298
aS'snapchat'
p299
asg5
S'Downloaded snapchat '
p300
sg7
S' I was told there would be seXts '
p301
sg9
Vmilton-from-office-space
p302
sg11
(lp303
g298
ag299
ag13
aS'was'
p304
aS'told'
p305
aS'there'
p306
aS'would'
p307
aS'be'
p308
aS'seXts'
p309
asg20
(lp310
g13
ag304
ag305
ag306
ag307
ag308
ag309
asba(iMeme
Meme
p311
(dp312
g3
(lp313
S'how'
p314
ag29
aS'feel'
p315
asg5
S'how i feel  '
p316
sg7
S' when patients ring the bell '
p317
sg9
Vmilton-from-office-space
p318
sg11
(lp319
g314
ag29
ag315
aS'when'
p320
aS'patients'
p321
aS'ring'
p322
aS'the'
p323
aS'bell'
p324
asg20
(lp325
g320
ag321
ag322
ag323
ag324
asba(iMeme
Meme
p326
(dp327
g3
(lp328
g13
aS'was'
p329
aS'told'
p330
asg5
S'I was told '
p331
sg7
S" Andrew poleK's mom would be present "
p332
sg9
Vmilton-from-office-space
p333
sg11
(lp334
g13
ag329
ag330
aS'Andrew'
p335
aS'poleK'
p336
aS"'s"
p337
aS'mom'
p338
aS'would'
p339
aS'be'
p340
aS'present'
p341
asg20
(lp342
g335
ag336
ag337
ag338
ag339
ag340
ag341
asba(iMeme
Meme
p343
(dp344
g3
(lp345
sg5
S' '
p346
sg7
S' I was told there would be ada REFRACTORS and keys '
p347
sg9
Vmilton-from-office-space
p348
sg11
(lp349
g13
aS'was'
p350
aS'told'
p351
aS'there'
p352
aS'would'
p353
aS'be'
p354
aS'ada'
p355
aS'REFRACTORS'
p356
aS'and'
p357
aS'keys'
p358
asg20
(lp359
g13
ag350
ag351
ag352
ag353
ag354
ag355
ag356
ag357
ag358
asba(iMeme
Meme
p360
(dp361
g3
(lp362
sg5
S' '
p363
sg7
S' I was told there would be science and statistics at this hearing '
p364
sg9
Vmilton-from-office-space
p365
sg11
(lp366
g13
aS'was'
p367
aS'told'
p368
aS'there'
p369
aS'would'
p370
aS'be'
p371
aS'science'
p372
aS'and'
p373
aS'statistics'
p374
aS'at'
p375
aS'this'
p376
aS'hearing'
p377
asg20
(lp378
g13
ag367
ag368
ag369
ag370
ag371
ag372
ag373
ag374
ag375
ag376
ag377
asba(iMeme
Meme
p379
(dp380
g3
(lp381
sg5
S' '
p382
sg7
S' I was told there would be good games on sale '
p383
sg9
Vmilton-from-office-space
p384
sg11
(lp385
g13
aS'was'
p386
aS'told'
p387
aS'there'
p388
aS'would'
p389
aS'be'
p390
aS'good'
p391
aS'games'
p392
aS'on'
p393
aS'sale'
p394
asg20
(lp395
g13
ag386
ag387
ag388
ag389
ag390
ag391
ag392
ag393
ag394
asba(iMeme
Meme
p396
(dp397
g3
(lp398
g13
aS'was'
p399
aS'told'
p400
aS'there'
p401
aS'would'
p402
aS'be'
p403
asg5
S'I was told there would be '
p404
sg7
S' Ice Cream Cake '
p405
sg9
Vmilton-from-office-space
p406
sg11
(lp407
g13
ag399
ag400
ag401
ag402
ag403
aS'Ice'
p408
aS'Cream'
p409
aS'Cake'
p410
asg20
(lp411
g408
ag409
ag410
asba(iMeme
Meme
p412
(dp413
g3
(lp414
g13
aS'was'
p415
aS'told'
p416
asg5
S'I was told  '
p417
sg7
S' You were online '
p418
sg9
Vmilton-from-office-space
p419
sg11
(lp420
g13
ag415
ag416
aS'You'
p421
aS'were'
p422
aS'online'
p423
asg20
(lp424
g421
ag422
ag423
asba(iMeme
Meme
p425
(dp426
g3
(lp427
sg5
S' '
p428
sg7
S' I was told there would be hours '
p429
sg9
Vmilton-from-office-space
p430
sg11
(lp431
g13
aS'was'
p432
aS'told'
p433
aS'there'
p434
aS'would'
p435
aS'be'
p436
aS'hours'
p437
asg20
(lp438
g13
ag432
ag433
ag434
ag435
ag436
ag437
asba(iMeme
Meme
p439
(dp440
g3
(lp441
sg5
S' '
p442
sg7
S' I was told there would be a warning '
p443
sg9
Vmilton-from-office-space
p444
sg11
(lp445
g13
aS'was'
p446
aS'told'
p447
aS'there'
p448
aS'would'
p449
aS'be'
p450
ag62
aS'warning'
p451
asg20
(lp452
g13
ag446
ag447
ag448
ag449
ag450
ag62
ag451
asba(iMeme
Meme
p453
(dp454
g3
(lp455
S'they'
p456
aS'were'
p457
aS'mean'
p458
aS'to'
p459
aS'him'
p460
asg5
S'they were mean to him '
p461
sg7
S' burned the place down '
p462
sg9
Vmilton-from-office-space
p463
sg11
(lp464
g456
ag457
ag458
ag459
ag460
aS'burned'
p465
aS'the'
p466
aS'place'
p467
aS'down'
p468
asg20
(lp469
g465
ag466
ag467
ag468
asba(iMeme
Meme
p470
(dp471
g3
(lp472
sg5
S' '
p473
sg7
S' i was told there would also be united miles '
p474
sg9
Vmilton-from-office-space
p475
sg11
(lp476
g29
aS'was'
p477
aS'told'
p478
aS'there'
p479
aS'would'
p480
aS'also'
p481
aS'be'
p482
aS'united'
p483
aS'miles'
p484
asg20
(lp485
g29
ag477
ag478
ag479
ag480
ag481
ag482
ag483
ag484
asba(iMeme
Meme
p486
(dp487
g3
(lp488
sg5
S' '
p489
sg7
S" They said there'd be blow jobs "
p490
sg9
Vmilton-from-office-space
p491
sg11
(lp492
S'They'
p493
aS'said'
p494
aS'there'
p495
aS"'d"
p496
aS'be'
p497
aS'blow'
p498
aS'jobs'
p499
asg20
(lp500
g493
ag494
ag495
ag496
ag497
ag498
ag499
asba(iMeme
Meme
p501
(dp502
g3
(lp503
sg5
S' '
p504
sg7
S' I was told there would be friendly memes '
p505
sg9
Vmilton-from-office-space
p506
sg11
(lp507
g13
aS'was'
p508
aS'told'
p509
aS'there'
p510
aS'would'
p511
aS'be'
p512
aS'friendly'
p513
aS'memes'
p514
asg20
(lp515
g13
ag508
ag509
ag510
ag511
ag512
ag513
ag514
asba(iMeme
Meme
p516
(dp517
g3
(lp518
sg5
S' '
p519
sg7
S' I was told there would be giveaways '
p520
sg9
Vmilton-from-office-space
p521
sg11
(lp522
g13
aS'was'
p523
aS'told'
p524
aS'there'
p525
aS'would'
p526
aS'be'
p527
aS'giveaways'
p528
asg20
(lp529
g13
ag523
ag524
ag525
ag526
ag527
ag528
asba(iMeme
Meme
p530
(dp531
g3
(lp532
sg5
S' '
p533
sg7
S' I was told there would be Bimz '
p534
sg9
Vmilton-from-office-space
p535
sg11
(lp536
g13
aS'was'
p537
aS'told'
p538
aS'there'
p539
aS'would'
p540
aS'be'
p541
aS'Bimz'
p542
asg20
(lp543
g13
ag537
ag538
ag539
ag540
ag541
ag542
asba(iMeme
Meme
p544
(dp545
g3
(lp546
sg5
S' '
p547
sg7
S' I was told that there were perks to being a mom '
p548
sg9
Vmilton-from-office-space
p549
sg11
(lp550
g13
aS'was'
p551
aS'told'
p552
aS'that'
p553
aS'there'
p554
aS'were'
p555
aS'perks'
p556
aS'to'
p557
aS'being'
p558
ag62
aS'mom'
p559
asg20
(lp560
g13
ag551
ag552
ag553
ag554
ag555
ag556
ag557
ag558
ag62
ag559
asba(iMeme
Meme
p561
(dp562
g3
(lp563
sg5
S' '
p564
sg7
S' I was told there would be spying '
p565
sg9
Vmilton-from-office-space
p566
sg11
(lp567
g13
aS'was'
p568
aS'told'
p569
aS'there'
p570
aS'would'
p571
aS'be'
p572
aS'spying'
p573
asg20
(lp574
g13
ag568
ag569
ag570
ag571
ag572
ag573
asba(iMeme
Meme
p575
(dp576
g3
(lp577
sg5
S' '
p578
sg7
S' I was told there would be spam '
p579
sg9
Vmilton-from-office-space
p580
sg11
(lp581
g13
aS'was'
p582
aS'told'
p583
aS'there'
p584
aS'would'
p585
aS'be'
p586
aS'spam'
p587
asg20
(lp588
g13
ag582
ag583
ag584
ag585
ag586
ag587
asba(iMeme
Meme
p589
(dp590
g3
(lp591
sg5
S' '
p592
sg7
S' I was told there would be juice '
p593
sg9
Vmilton-from-office-space
p594
sg11
(lp595
g13
aS'was'
p596
aS'told'
p597
aS'there'
p598
aS'would'
p599
aS'be'
p600
aS'juice'
p601
asg20
(lp602
g13
ag596
ag597
ag598
ag599
ag600
ag601
asba(iMeme
Meme
p603
(dp604
g3
(lp605
sg5
S' '
p606
sg7
S" And I said, I don't care if they lay me off either, because I told, I told Bill that if they move my desk one more time, then, then I'm, I'm quitting, I'm going to quit. And, and I told Don too, because they've moved my desk four times already this year,  "
p607
sg9
Vmilton-from-office-space
p608
sg11
(lp609
S'And'
p610
ag13
aS'said'
p611
aS','
p612
ag13
aS'do'
p613
aS"n't"
p614
aS'care'
p615
aS'if'
p616
aS'they'
p617
aS'lay'
p618
aS'me'
p619
aS'off'
p620
aS'either'
p621
ag612
aS'because'
p622
ag13
aS'told'
p623
ag612
ag13
aS'told'
p624
aS'Bill'
p625
aS'that'
p626
aS'if'
p627
aS'they'
p628
aS'move'
p629
aS'my'
p630
aS'desk'
p631
aS'one'
p632
aS'more'
p633
aS'time'
p634
ag612
aS'then'
p635
ag612
aS'then'
p636
ag13
aS"'m"
p637
ag612
ag13
aS"'m"
p638
aS'quitting'
p639
ag612
ag13
aS"'m"
p640
aS'going'
p641
aS'to'
p642
aS'quit'
p643
ag56
aS'And'
p644
ag612
aS'and'
p645
ag13
aS'told'
p646
aS'Don'
p647
aS'too'
p648
ag612
aS'because'
p649
aS'they'
p650
aS"'ve"
p651
aS'moved'
p652
aS'my'
p653
aS'desk'
p654
aS'four'
p655
aS'times'
p656
aS'already'
p657
aS'this'
p658
aS'year'
p659
ag612
asg20
(lp660
g610
ag13
ag611
ag612
ag13
ag613
ag614
ag615
ag616
ag617
ag618
ag619
ag620
ag621
ag612
ag622
ag13
ag623
ag612
ag13
ag624
ag625
ag626
ag627
ag628
ag629
ag630
ag631
ag632
ag633
ag634
ag612
ag635
ag612
ag636
ag13
ag637
ag612
ag13
ag638
ag639
ag612
ag13
ag640
ag641
ag642
ag643
ag56
ag644
ag612
ag645
ag13
ag646
ag647
ag648
ag612
ag649
ag650
ag651
ag652
ag653
ag654
ag655
ag656
ag657
ag658
ag659
ag612
asba(iMeme
Meme
p661
(dp662
g3
(lp663
sg5
S' '
p664
sg7
S' I was told there would be vignettes '
p665
sg9
Vmilton-from-office-space
p666
sg11
(lp667
g13
aS'was'
p668
aS'told'
p669
aS'there'
p670
aS'would'
p671
aS'be'
p672
aS'vignettes'
p673
asg20
(lp674
g13
ag668
ag669
ag670
ag671
ag672
ag673
asba(iMeme
Meme
p675
(dp676
g3
(lp677
sg5
S' '
p678
sg7
S' I was told there would be open mindedness '
p679
sg9
Vmilton-from-office-space
p680
sg11
(lp681
g13
aS'was'
p682
aS'told'
p683
aS'there'
p684
aS'would'
p685
aS'be'
p686
aS'open'
p687
aS'mindedness'
p688
asg20
(lp689
g13
ag682
ag683
ag684
ag685
ag686
ag687
ag688
asba(iMeme
Meme
p690
(dp691
g3
(lp692
sg5
S' '
p693
sg7
S' I was told I would get a phone call with Lindsey '
p694
sg9
Vmilton-from-office-space
p695
sg11
(lp696
g13
aS'was'
p697
aS'told'
p698
ag13
aS'would'
p699
aS'get'
p700
ag62
aS'phone'
p701
aS'call'
p702
aS'with'
p703
aS'Lindsey'
p704
asg20
(lp705
g13
ag697
ag698
ag13
ag699
ag700
ag62
ag701
ag702
ag703
ag704
asba(iMeme
Meme
p706
(dp707
g3
(lp708
sg5
S' '
p709
sg7
S' i was told there would be a rave '
p710
sg9
Vmilton-from-office-space
p711
sg11
(lp712
g29
aS'was'
p713
aS'told'
p714
aS'there'
p715
aS'would'
p716
aS'be'
p717
ag62
aS'rave'
p718
asg20
(lp719
g29
ag713
ag714
ag715
ag716
ag717
ag62
ag718
asba(iMeme
Meme
p720
(dp721
g3
(lp722
sg5
S' '
p723
sg7
S' I was told there would be hangers '
p724
sg9
Vmilton-from-office-space
p725
sg11
(lp726
g13
aS'was'
p727
aS'told'
p728
aS'there'
p729
aS'would'
p730
aS'be'
p731
aS'hangers'
p732
asg20
(lp733
g13
ag727
ag728
ag729
ag730
ag731
ag732
asba(iMeme
Meme
p734
(dp735
g3
(lp736
sg5
S' '
p737
sg7
S' I was told I would be in Operations '
p738
sg9
Vmilton-from-office-space
p739
sg11
(lp740
g13
aS'was'
p741
aS'told'
p742
ag13
aS'would'
p743
aS'be'
p744
aS'in'
p745
aS'Operations'
p746
asg20
(lp747
g13
ag741
ag742
ag13
ag743
ag744
ag745
ag746
asba(iMeme
Meme
p748
(dp749
g3
(lp750
sg5
S' '
p751
sg7
S' I was told there would be spoilers '
p752
sg9
Vmilton-from-office-space
p753
sg11
(lp754
g13
aS'was'
p755
aS'told'
p756
aS'there'
p757
aS'would'
p758
aS'be'
p759
aS'spoilers'
p760
asg20
(lp761
g13
ag755
ag756
ag757
ag758
ag759
ag760
asba(iMeme
Meme
p762
(dp763
g3
(lp764
sg5
S' '
p765
sg7
S' i was told there would be an update '
p766
sg9
Vmilton-from-office-space
p767
sg11
(lp768
g29
aS'was'
p769
aS'told'
p770
aS'there'
p771
aS'would'
p772
aS'be'
p773
aS'an'
p774
aS'update'
p775
asg20
(lp776
g29
ag769
ag770
ag771
ag772
ag773
ag774
ag775
asba(iMeme
Meme
p777
(dp778
g3
(lp779
sg5
S' '
p780
sg7
S' I was told there was a meeting at 4 '
p781
sg9
Vmilton-from-office-space
p782
sg11
(lp783
g13
aS'was'
p784
aS'told'
p785
aS'there'
p786
aS'was'
p787
ag62
aS'meeting'
p788
aS'at'
p789
aS'4'
p790
asg20
(lp791
g13
ag784
ag785
ag786
ag787
ag62
ag788
ag789
ag790
asba(iMeme
Meme
p792
(dp793
g3
(lp794
sg5
S' '
p795
sg7
S' i was told there would be job opportunities anD FREEDOM  '
p796
sg9
Vmilton-from-office-space
p797
sg11
(lp798
g29
aS'was'
p799
aS'told'
p800
aS'there'
p801
aS'would'
p802
aS'be'
p803
aS'job'
p804
aS'opportunities'
p805
aS'anD'
p806
aS'FREEDOM'
p807
asg20
(lp808
g29
ag799
ag800
ag801
ag802
ag803
ag804
ag805
ag806
ag807
asba(iMeme
Meme
p809
(dp810
g3
(lp811
S'oh'
p812
ag56
aS'my'
p813
ag56
aS'goood'
p814
ag56
asg5
S'oh. my. goood. '
p815
sg7
S' look. at. that. ass. '
p816
sg9
Vmilton-from-office-space
p817
sg11
(lp818
g812
ag56
ag813
ag56
ag814
ag56
aS'look'
p819
ag56
aS'at'
p820
ag56
aS'that'
p821
ag56
aS'ass'
p822
ag56
asg20
(lp823
g819
ag56
ag820
ag56
ag821
ag56
ag822
ag56
asba(iMeme
Meme
p824
(dp825
g3
(lp826
S'Why'
p827
aS'is'
p828
aS'my'
p829
aS'cat'
p830
aS'on'
p831
aS'tv'
p832
asg5
S'Why is my cat on tv '
p833
sg7
S' For killing My Dog with a gun!? '
p834
sg9
Vmilton-from-office-space
p835
sg11
(lp836
g827
ag828
ag829
ag830
ag831
ag832
aS'For'
p837
aS'killing'
p838
aS'My'
p839
aS'Dog'
p840
aS'with'
p841
ag62
aS'gun'
p842
aS'!'
p843
ag288
asg20
(lp844
g837
ag838
ag839
ag840
ag841
ag62
ag842
ag843
ag288
asba(iMeme
Meme
p845
(dp846
g3
(lp847
sg5
S' '
p848
sg7
S' I was told there would be summer '
p849
sg9
Vmilton-from-office-space
p850
sg11
(lp851
g13
aS'was'
p852
aS'told'
p853
aS'there'
p854
aS'would'
p855
aS'be'
p856
aS'summer'
p857
asg20
(lp858
g13
ag852
ag853
ag854
ag855
ag856
ag857
asba(iMeme
Meme
p859
(dp860
g3
(lp861
sg5
S' '
p862
sg7
S' I Was told there would be qa claims '
p863
sg9
Vmilton-from-office-space
p864
sg11
(lp865
g13
aS'Was'
p866
aS'told'
p867
aS'there'
p868
aS'would'
p869
aS'be'
p870
aS'qa'
p871
aS'claims'
p872
asg20
(lp873
g13
ag866
ag867
ag868
ag869
ag870
ag871
ag872
asba(iMeme
Meme
p874
(dp875
g3
(lp876
sg5
S' '
p877
sg7
S' I was told there would be money. '
p878
sg9
Vmilton-from-office-space
p879
sg11
(lp880
g13
aS'was'
p881
aS'told'
p882
aS'there'
p883
aS'would'
p884
aS'be'
p885
aS'money'
p886
ag56
asg20
(lp887
g13
ag881
ag882
ag883
ag884
ag885
ag886
ag56
asba(iMeme
Meme
p888
(dp889
g3
(lp890
sg5
S' '
p891
sg7
S' I was told there would be a team picture '
p892
sg9
Vmilton-from-office-space
p893
sg11
(lp894
g13
aS'was'
p895
aS'told'
p896
aS'there'
p897
aS'would'
p898
aS'be'
p899
ag62
aS'team'
p900
aS'picture'
p901
asg20
(lp902
g13
ag895
ag896
ag897
ag898
ag899
ag62
ag900
ag901
asba(iMeme
Meme
p903
(dp904
g3
(lp905
sg5
S' '
p906
sg7
S' I was told there would be gnosis '
p907
sg9
Vmilton-from-office-space
p908
sg11
(lp909
g13
aS'was'
p910
aS'told'
p911
aS'there'
p912
aS'would'
p913
aS'be'
p914
aS'gnosis'
p915
asg20
(lp916
g13
ag910
ag911
ag912
ag913
ag914
ag915
asba(iMeme
Meme
p917
(dp918
g3
(lp919
S'Where'
p920
aS'is'
p921
aS'Sil'
p922
ag288
asg5
S'Where is Sil? '
p923
sg7
S' I was told there would be birthday pie '
p924
sg9
Vmilton-from-office-space
p925
sg11
(lp926
g920
ag921
ag922
ag288
ag13
aS'was'
p927
aS'told'
p928
aS'there'
p929
aS'would'
p930
aS'be'
p931
aS'birthday'
p932
aS'pie'
p933
asg20
(lp934
g13
ag927
ag928
ag929
ag930
ag931
ag932
ag933
asba(iMeme
Meme
p935
(dp936
g3
(lp937
sg5
S' '
p938
sg7
S' I was told there would be energy '
p939
sg9
Vmilton-from-office-space
p940
sg11
(lp941
g13
aS'was'
p942
aS'told'
p943
aS'there'
p944
aS'would'
p945
aS'be'
p946
aS'energy'
p947
asg20
(lp948
g13
ag942
ag943
ag944
ag945
ag946
ag947
asba(iMeme
Meme
p949
(dp950
g3
(lp951
sg5
S' '
p952
sg7
S' I was told there would be fun '
p953
sg9
Vmilton-from-office-space
p954
sg11
(lp955
g13
aS'was'
p956
aS'told'
p957
aS'there'
p958
aS'would'
p959
aS'be'
p960
aS'fun'
p961
asg20
(lp962
g13
ag956
ag957
ag958
ag959
ag960
ag961
asba(iMeme
Meme
p963
(dp964
g3
(lp965
sg5
S' '
p966
sg7
S' I was told we could send the ACE files in at 5:00 '
p967
sg9
Vmilton-from-office-space
p968
sg11
(lp969
g13
aS'was'
p970
aS'told'
p971
aS'we'
p972
aS'could'
p973
aS'send'
p974
aS'the'
p975
aS'ACE'
p976
aS'files'
p977
aS'in'
p978
aS'at'
p979
aS'5:00'
p980
asg20
(lp981
g13
ag970
ag971
ag972
ag973
ag974
ag975
ag976
ag977
ag978
ag979
ag980
asba(iMeme
Meme
p982
(dp983
g3
(lp984
sg5
S' '
p985
sg7
S' I was told there would be cake. '
p986
sg9
Vmilton-from-office-space
p987
sg11
(lp988
g13
aS'was'
p989
aS'told'
p990
aS'there'
p991
aS'would'
p992
aS'be'
p993
aS'cake'
p994
ag56
asg20
(lp995
g13
ag989
ag990
ag991
ag992
ag993
ag994
ag56
asba(iMeme
Meme
p996
(dp997
g3
(lp998
sg5
S' '
p999
sg7
S' I was told there would be spam '
p1000
sg9
Vmilton-from-office-space
p1001
sg11
(lp1002
g13
aS'was'
p1003
aS'told'
p1004
aS'there'
p1005
aS'would'
p1006
aS'be'
p1007
aS'spam'
p1008
asg20
(lp1009
g13
ag1003
ag1004
ag1005
ag1006
ag1007
ag1008
asba(iMeme
Meme
p1010
(dp1011
g3
(lp1012
g13
aS'like'
p1013
aS'you'
p1014
aS'bell'
p1015
ag612
asg5
S'I like you bell, '
p1016
sg7
S' I like you alot. '
p1017
sg9
Vmilton-from-office-space
p1018
sg11
(lp1019
g13
ag1013
ag1014
ag1015
ag612
ag13
aS'like'
p1020
aS'you'
p1021
aS'alot'
p1022
ag56
asg20
(lp1023
g13
ag1020
ag1021
ag1022
ag56
asba(iMeme
Meme
p1024
(dp1025
g3
(lp1026
sg5
S' '
p1027
sg7
S" I was told there wouldn't be acne "
p1028
sg9
Vmilton-from-office-space
p1029
sg11
(lp1030
g13
aS'was'
p1031
aS'told'
p1032
aS'there'
p1033
aS'would'
p1034
aS"n't"
p1035
aS'be'
p1036
aS'acne'
p1037
asg20
(lp1038
g13
ag1031
ag1032
ag1033
ag1034
ag1035
ag1036
ag1037
asba(iMeme
Meme
p1039
(dp1040
g3
(lp1041
S'where'
p1042
aS'is'
p1043
aS'the'
p1044
aS'beer'
p1045
ag288
asg5
S'where is the beer? '
p1046
sg7
S' I was told there was beer '
p1047
sg9
Vmilton-from-office-space
p1048
sg11
(lp1049
g1042
ag1043
ag1044
ag1045
ag288
ag13
aS'was'
p1050
aS'told'
p1051
aS'there'
p1052
aS'was'
p1053
aS'beer'
p1054
asg20
(lp1055
g13
ag1050
ag1051
ag1052
ag1053
ag1054
asba(iMeme
Meme
p1056
(dp1057
g3
(lp1058
S'What'
p1059
aS'you'
p1060
aS'thought'
p1061
aS'you'
p1062
aS'new'
p1063
aS'...'
p1064
asg5
S'What you thought you new... '
p1065
sg7
S' WAS ONLY THE BEGINNING '
p1066
sg9
Vmilton-from-office-space
p1067
sg11
(lp1068
g1059
ag1060
ag1061
ag1062
ag1063
ag1064
aS'WAS'
p1069
aS'ONLY'
p1070
aS'THE'
p1071
aS'BEGINNING'
p1072
asg20
(lp1073
g1069
ag1070
ag1071
ag1072
asba(iMeme
Meme
p1074
(dp1075
g3
(lp1076
sg5
S' '
p1077
sg7
S' I was told there would be emails. '
p1078
sg9
Vmilton-from-office-space
p1079
sg11
(lp1080
g13
aS'was'
p1081
aS'told'
p1082
aS'there'
p1083
aS'would'
p1084
aS'be'
p1085
aS'emails'
p1086
ag56
asg20
(lp1087
g13
ag1081
ag1082
ag1083
ag1084
ag1085
ag1086
ag56
asba(iMeme
Meme
p1088
(dp1089
g3
(lp1090
sg5
S' '
p1091
sg7
S' um, um, but I believe this is my stapler '
p1092
sg9
Vmilton-from-office-space
p1093
sg11
(lp1094
S'um'
p1095
ag612
aS'um'
p1096
ag612
aS'but'
p1097
ag13
aS'believe'
p1098
aS'this'
p1099
aS'is'
p1100
aS'my'
p1101
aS'stapler'
p1102
asg20
(lp1103
g1095
ag612
ag1096
ag612
ag1097
ag13
ag1098
ag1099
ag1100
ag1101
ag1102
asba(iMeme
Meme
p1104
(dp1105
g3
(lp1106
sg5
S' '
p1107
sg7
S' I was told there would be cheesy potatoes '
p1108
sg9
Vmilton-from-office-space
p1109
sg11
(lp1110
g13
aS'was'
p1111
aS'told'
p1112
aS'there'
p1113
aS'would'
p1114
aS'be'
p1115
aS'cheesy'
p1116
aS'potatoes'
p1117
asg20
(lp1118
g13
ag1111
ag1112
ag1113
ag1114
ag1115
ag1116
ag1117
asba(iMeme
Meme
p1119
(dp1120
g3
(lp1121
sg5
S' '
p1122
sg7
S' I was told there would be money '
p1123
sg9
Vmilton-from-office-space
p1124
sg11
(lp1125
g13
aS'was'
p1126
aS'told'
p1127
aS'there'
p1128
aS'would'
p1129
aS'be'
p1130
aS'money'
p1131
asg20
(lp1132
g13
ag1126
ag1127
ag1128
ag1129
ag1130
ag1131
asba(iMeme
Meme
p1133
(dp1134
g3
(lp1135
g13
aS'was'
p1136
aS'told'
p1137
aS'there'
p1138
aS'would'
p1139
aS'be'
p1140
asg5
S'I was told there would be '
p1141
sg7
S' peanut butter '
p1142
sg9
Vmilton-from-office-space
p1143
sg11
(lp1144
g13
ag1136
ag1137
ag1138
ag1139
ag1140
aS'peanut'
p1145
aS'butter'
p1146
asg20
(lp1147
g1145
ag1146
asba(iMeme
Meme
p1148
(dp1149
g3
(lp1150
g13
aS'was'
p1151
aS'told'
p1152
aS'the'
p1153
aS'Web'
p1154
aS'would'
p1155
aS'be'
p1156
asg5
S'I was told the Web would be '
p1157
sg7
S' World wide '
p1158
sg9
Vmilton-from-office-space
p1159
sg11
(lp1160
g13
ag1151
ag1152
ag1153
ag1154
ag1155
ag1156
aS'World'
p1161
aS'wide'
p1162
asg20
(lp1163
g1161
ag1162
asba(iMeme
Meme
p1164
(dp1165
g3
(lp1166
sg5
S' '
p1167
sg7
S' I was told there would be championships '
p1168
sg9
Vmilton-from-office-space
p1169
sg11
(lp1170
g13
aS'was'
p1171
aS'told'
p1172
aS'there'
p1173
aS'would'
p1174
aS'be'
p1175
aS'championships'
p1176
asg20
(lp1177
g13
ag1171
ag1172
ag1173
ag1174
ag1175
ag1176
asba(iMeme
Meme
p1178
(dp1179
g3
(lp1180
g29
aS'thought'
p1181
asg5
S'i thought '
p1182
sg7
S' that there would be cake '
p1183
sg9
Vmilton-from-office-space
p1184
sg11
(lp1185
g29
ag1181
aS'that'
p1186
aS'there'
p1187
aS'would'
p1188
aS'be'
p1189
aS'cake'
p1190
asg20
(lp1191
g1186
ag1187
ag1188
ag1189
ag1190
asba(iMeme
Meme
p1192
(dp1193
g3
(lp1194
sg5
S' '
p1195
sg7
S' I was told it sends enemies flying '
p1196
sg9
Vmilton-from-office-space
p1197
sg11
(lp1198
g13
aS'was'
p1199
aS'told'
p1200
aS'it'
p1201
aS'sends'
p1202
aS'enemies'
p1203
aS'flying'
p1204
asg20
(lp1205
g13
ag1199
ag1200
ag1201
ag1202
ag1203
ag1204
asba(iMeme
Meme
p1206
(dp1207
g3
(lp1208
S'Excuse'
p1209
aS'me'
p1210
aS'...'
p1211
asg5
S'Excuse me... '
p1212
sg7
S' but I believe you have stapler.  '
p1213
sg9
Vmilton-from-office-space
p1214
sg11
(lp1215
g1209
ag1210
ag1211
aS'but'
p1216
ag13
aS'believe'
p1217
aS'you'
p1218
aS'have'
p1219
aS'stapler'
p1220
ag56
asg20
(lp1221
g1216
ag13
ag1217
ag1218
ag1219
ag1220
ag56
asba(iMeme
Meme
p1222
(dp1223
g3
(lp1224
sg5
S' '
p1225
sg7
S' I was told there would be pumpkin spice! '
p1226
sg9
Vmilton-from-office-space
p1227
sg11
(lp1228
g13
aS'was'
p1229
aS'told'
p1230
aS'there'
p1231
aS'would'
p1232
aS'be'
p1233
aS'pumpkin'
p1234
aS'spice'
p1235
ag843
asg20
(lp1236
g13
ag1229
ag1230
ag1231
ag1232
ag1233
ag1234
ag1235
ag843
asba(iMeme
Meme
p1237
(dp1238
g3
(lp1239
sg5
S' '
p1240
sg7
S' I was told there would be pictures. '
p1241
sg9
Vmilton-from-office-space
p1242
sg11
(lp1243
g13
aS'was'
p1244
aS'told'
p1245
aS'there'
p1246
aS'would'
p1247
aS'be'
p1248
aS'pictures'
p1249
ag56
asg20
(lp1250
g13
ag1244
ag1245
ag1246
ag1247
ag1248
ag1249
ag56
asba(iMeme
Meme
p1251
(dp1252
g3
(lp1253
S'Where'
p1254
aS'is'
p1255
aS'my'
p1256
aS'coffee'
p1257
ag288
asg5
S'Where is my coffee? '
p1258
sg7
S' I was told there would be coffee '
p1259
sg9
Vmilton-from-office-space
p1260
sg11
(lp1261
g1254
ag1255
ag1256
ag1257
ag288
ag13
aS'was'
p1262
aS'told'
p1263
aS'there'
p1264
aS'would'
p1265
aS'be'
p1266
aS'coffee'
p1267
asg20
(lp1268
g13
ag1262
ag1263
ag1264
ag1265
ag1266
ag1267
asba(iMeme
Meme
p1269
(dp1270
g3
(lp1271
sg5
S' '
p1272
sg7
S" I was told there'd be air conditioning "
p1273
sg9
Vmilton-from-office-space
p1274
sg11
(lp1275
g13
aS'was'
p1276
aS'told'
p1277
aS'there'
p1278
aS"'d"
p1279
aS'be'
p1280
aS'air'
p1281
aS'conditioning'
p1282
asg20
(lp1283
g13
ag1276
ag1277
ag1278
ag1279
ag1280
ag1281
ag1282
asba(iMeme
Meme
p1284
(dp1285
g3
(lp1286
S'admit'
p1287
aS'it'
p1288
asg5
S'admit it '
p1289
sg7
S' i have a better ass then miley cyrus '
p1290
sg9
Vmilton-from-office-space
p1291
sg11
(lp1292
g1287
ag1288
ag29
aS'have'
p1293
ag62
aS'better'
p1294
aS'ass'
p1295
aS'then'
p1296
aS'miley'
p1297
aS'cyrus'
p1298
asg20
(lp1299
g29
ag1293
ag62
ag1294
ag1295
ag1296
ag1297
ag1298
asba(iMeme
Meme
p1300
(dp1301
g3
(lp1302
sg5
S' '
p1303
sg7
S' I was told there would be sex '
p1304
sg9
Vmilton-from-office-space
p1305
sg11
(lp1306
g13
aS'was'
p1307
aS'told'
p1308
aS'there'
p1309
aS'would'
p1310
aS'be'
p1311
aS'sex'
p1312
asg20
(lp1313
g13
ag1307
ag1308
ag1309
ag1310
ag1311
ag1312
asba(iMeme
Meme
p1314
(dp1315
g3
(lp1316
S'Andrea'
p1317
aS'Kress'
p1318
asg5
S'Andrea Kress  '
p1319
sg7
S' Happy birthday, sweets!  '
p1320
sg9
Vmilton-from-office-space
p1321
sg11
(lp1322
g1317
ag1318
aS'Happy'
p1323
aS'birthday'
p1324
ag612
aS'sweets'
p1325
ag843
asg20
(lp1326
g1323
ag1324
ag612
ag1325
ag843
asba(iMeme
Meme
p1327
(dp1328
g3
(lp1329
g13
aS'do'
p1330
aS"n't"
p1331
aS'run'
p1332
asg5
S"I don't run "
p1333
sg7
S' I have a bone bruise. '
p1334
sg9
Vmilton-from-office-space
p1335
sg11
(lp1336
g13
ag1330
ag1331
ag1332
ag13
aS'have'
p1337
ag62
aS'bone'
p1338
aS'bruise'
p1339
ag56
asg20
(lp1340
g13
ag1337
ag62
ag1338
ag1339
ag56
asba(iMeme
Meme
p1341
(dp1342
g3
(lp1343
sg5
S' '
p1344
sg7
S' i was told there would be overtime '
p1345
sg9
Vmilton-from-office-space
p1346
sg11
(lp1347
g29
aS'was'
p1348
aS'told'
p1349
aS'there'
p1350
aS'would'
p1351
aS'be'
p1352
aS'overtime'
p1353
asg20
(lp1354
g29
ag1348
ag1349
ag1350
ag1351
ag1352
ag1353
asba(iMeme
Meme
p1355
(dp1356
g3
(lp1357
sg5
S' '
p1358
sg7
S' I was told there would be pizza '
p1359
sg9
Vmilton-from-office-space
p1360
sg11
(lp1361
g13
aS'was'
p1362
aS'told'
p1363
aS'there'
p1364
aS'would'
p1365
aS'be'
p1366
aS'pizza'
p1367
asg20
(lp1368
g13
ag1362
ag1363
ag1364
ag1365
ag1366
ag1367
asba(iMeme
Meme
p1369
(dp1370
g3
(lp1371
sg5
S' '
p1372
sg7
S' I was told there would be salary... '
p1373
sg9
Vmilton-from-office-space
p1374
sg11
(lp1375
g13
aS'was'
p1376
aS'told'
p1377
aS'there'
p1378
aS'would'
p1379
aS'be'
p1380
aS'salary'
p1381
aS'...'
p1382
asg20
(lp1383
g13
ag1376
ag1377
ag1378
ag1379
ag1380
ag1381
ag1382
asba(iMeme
Meme
p1384
(dp1385
g3
(lp1386
sg5
S' '
p1387
sg7
S' I was told there would be sex. '
p1388
sg9
Vmilton-from-office-space
p1389
sg11
(lp1390
g13
aS'was'
p1391
aS'told'
p1392
aS'there'
p1393
aS'would'
p1394
aS'be'
p1395
aS'sex'
p1396
ag56
asg20
(lp1397
g13
ag1391
ag1392
ag1393
ag1394
ag1395
ag1396
ag56
asba(iMeme
Meme
p1398
(dp1399
g3
(lp1400
S'have'
p1401
aS'you'
p1402
aS'seen'
p1403
aS'my'
p1404
asg5
S'have you seen my '
p1405
sg7
S' Phone books? '
p1406
sg9
Vmilton-from-office-space
p1407
sg11
(lp1408
g1401
ag1402
ag1403
ag1404
aS'Phone'
p1409
aS'books'
p1410
ag288
asg20
(lp1411
g1409
ag1410
ag288
asba(iMeme
Meme
p1412
(dp1413
g3
(lp1414
sg5
S' '
p1415
sg7
S' I was told there would be helicopters '
p1416
sg9
Vmilton-from-office-space
p1417
sg11
(lp1418
g13
aS'was'
p1419
aS'told'
p1420
aS'there'
p1421
aS'would'
p1422
aS'be'
p1423
aS'helicopters'
p1424
asg20
(lp1425
g13
ag1419
ag1420
ag1421
ag1422
ag1423
ag1424
asba(iMeme
Meme
p1426
(dp1427
g3
(lp1428
sg5
S' '
p1429
sg7
S' I was told there would be science '
p1430
sg9
Vmilton-from-office-space
p1431
sg11
(lp1432
g13
aS'was'
p1433
aS'told'
p1434
aS'there'
p1435
aS'would'
p1436
aS'be'
p1437
aS'science'
p1438
asg20
(lp1439
g13
ag1433
ag1434
ag1435
ag1436
ag1437
ag1438
asba(iMeme
Meme
p1440
(dp1441
g3
(lp1442
S'hey'
p1443
aS'iam'
p1444
aS'not'
p1445
aS'gross'
p1446
ag29
aS'am'
p1447
aS'fresh'
p1448
asg5
S'hey iam not gross i am fresh '
p1449
sg7
S'  '
p1450
sg9
Vmilton-from-office-space
p1451
sg11
(lp1452
g1443
ag1444
ag1445
ag1446
ag29
ag1447
ag1448
asg20
(lp1453
sba(iMeme
Meme
p1454
(dp1455
g3
(lp1456
S'Ignore'
p1457
aS'me'
p1458
asg5
S'Ignore me  '
p1459
sg7
S' to make me go away '
p1460
sg9
Vmilton-from-office-space
p1461
sg11
(lp1462
g1457
ag1458
aS'to'
p1463
aS'make'
p1464
aS'me'
p1465
aS'go'
p1466
aS'away'
p1467
asg20
(lp1468
g1463
ag1464
ag1465
ag1466
ag1467
asba(iMeme
Meme
p1469
(dp1470
g3
(lp1471
sg5
S' '
p1472
sg7
S' i was told there would be 25,000 united miles '
p1473
sg9
Vmilton-from-office-space
p1474
sg11
(lp1475
g29
aS'was'
p1476
aS'told'
p1477
aS'there'
p1478
aS'would'
p1479
aS'be'
p1480
aS'25,000'
p1481
aS'united'
p1482
aS'miles'
p1483
asg20
(lp1484
g29
ag1476
ag1477
ag1478
ag1479
ag1480
ag1481
ag1482
ag1483
asba(iMeme
Meme
p1485
(dp1486
g3
(lp1487
g13
aS'was'
p1488
aS'told'
p1489
asg5
S'I was told '
p1490
sg7
S' no deadlines... '
p1491
sg9
Vmilton-from-office-space
p1492
sg11
(lp1493
g13
ag1488
ag1489
aS'no'
p1494
aS'deadlines'
p1495
aS'...'
p1496
asg20
(lp1497
g1494
ag1495
ag1496
asba(iMeme
Meme
p1498
(dp1499
g3
(lp1500
g13
aS'was'
p1501
aS'told'
p1502
aS'there'
p1503
aS'would'
p1504
aS'be'
p1505
asg5
S'I was told there would be '
p1506
sg7
S' australians '
p1507
sg9
Vmilton-from-office-space
p1508
sg11
(lp1509
g13
ag1501
ag1502
ag1503
ag1504
ag1505
aS'australians'
p1510
asg20
(lp1511
g1510
asba(iMeme
Meme
p1512
(dp1513
g3
(lp1514
g13
aS'was'
p1515
aS'told'
p1516
aS'there'
p1517
aS'would'
p1518
aS'be'
p1519
aS'Argentinians'
p1520
asg5
S'I was told there would be Argentinians '
p1521
sg7
S'  '
p1522
sg9
Vmilton-from-office-space
p1523
sg11
(lp1524
g13
ag1515
ag1516
ag1517
ag1518
ag1519
ag1520
asg20
(lp1525
sba(iMeme
Meme
p1526
(dp1527
g3
(lp1528
sg5
S' '
p1529
sg7
S' I was told there would be karma '
p1530
sg9
Vmilton-from-office-space
p1531
sg11
(lp1532
g13
aS'was'
p1533
aS'told'
p1534
aS'there'
p1535
aS'would'
p1536
aS'be'
p1537
aS'karma'
p1538
asg20
(lp1539
g13
ag1533
ag1534
ag1535
ag1536
ag1537
ag1538
asba(iMeme
Meme
p1540
(dp1541
g3
(lp1542
S'bitches'
p1543
aS'be'
p1544
aS'like'
p1545
aS'...'
p1546
asg5
S'bitches be like... '
p1547
sg7
S' just herd that new hood killa beat. '
p1548
sg9
Vmilton-from-office-space
p1549
sg11
(lp1550
g1543
ag1544
ag1545
ag1546
aS'just'
p1551
aS'herd'
p1552
aS'that'
p1553
aS'new'
p1554
aS'hood'
p1555
aS'killa'
p1556
aS'beat'
p1557
ag56
asg20
(lp1558
g1551
ag1552
ag1553
ag1554
ag1555
ag1556
ag1557
ag56
asba(iMeme
Meme
p1559
(dp1560
g3
(lp1561
sg5
S' '
p1562
sg7
S' I was told there is an eruv in this city '
p1563
sg9
Vmilton-from-office-space
p1564
sg11
(lp1565
g13
aS'was'
p1566
aS'told'
p1567
aS'there'
p1568
aS'is'
p1569
aS'an'
p1570
aS'eruv'
p1571
aS'in'
p1572
aS'this'
p1573
aS'city'
p1574
asg20
(lp1575
g13
ag1566
ag1567
ag1568
ag1569
ag1570
ag1571
ag1572
ag1573
ag1574
asba(iMeme
Meme
p1576
(dp1577
g3
(lp1578
sg5
S' '
p1579
sg7
S' I was told I would get tipped with sex '
p1580
sg9
Vmilton-from-office-space
p1581
sg11
(lp1582
g13
aS'was'
p1583
aS'told'
p1584
ag13
aS'would'
p1585
aS'get'
p1586
aS'tipped'
p1587
aS'with'
p1588
aS'sex'
p1589
asg20
(lp1590
g13
ag1583
ag1584
ag13
ag1585
ag1586
ag1587
ag1588
ag1589
asba(iMeme
Meme
p1591
(dp1592
g3
(lp1593
sg5
S' '
p1594
sg7
S' I was told there would be a sausage sizzle '
p1595
sg9
Vmilton-from-office-space
p1596
sg11
(lp1597
g13
aS'was'
p1598
aS'told'
p1599
aS'there'
p1600
aS'would'
p1601
aS'be'
p1602
ag62
aS'sausage'
p1603
aS'sizzle'
p1604
asg20
(lp1605
g13
ag1598
ag1599
ag1600
ag1601
ag1602
ag62
ag1603
ag1604
asba(iMeme
Meme
p1606
(dp1607
g3
(lp1608
S'missed'
p1609
aS'the'
p1610
aS'joke'
p1611
asg5
S'missed the joke '
p1612
sg7
S' now feel like this guy '
p1613
sg9
Vmilton-from-office-space
p1614
sg11
(lp1615
g1609
ag1610
ag1611
aS'now'
p1616
aS'feel'
p1617
aS'like'
p1618
aS'this'
p1619
aS'guy'
p1620
asg20
(lp1621
g1616
ag1617
ag1618
ag1619
ag1620
asba(iMeme
Meme
p1622
(dp1623
g3
(lp1624
sg5
S' '
p1625
sg7
S' i was told there would be an update '
p1626
sg9
Vmilton-from-office-space
p1627
sg11
(lp1628
g29
aS'was'
p1629
aS'told'
p1630
aS'there'
p1631
aS'would'
p1632
aS'be'
p1633
aS'an'
p1634
aS'update'
p1635
asg20
(lp1636
g29
ag1629
ag1630
ag1631
ag1632
ag1633
ag1634
ag1635
asba(iMeme
Meme
p1637
(dp1638
g3
(lp1639
S'Excuse'
p1640
aS'Me'
p1641
ag288
ag13
aS'believe'
p1642
aS'you'
p1643
aS'have'
p1644
aS'my'
p1645
asg5
S'Excuse Me? I believe you have my '
p1646
sg7
S' Ed Rush & Optical tickets '
p1647
sg9
Vmilton-from-office-space
p1648
sg11
(lp1649
g1640
ag1641
ag288
ag13
ag1642
ag1643
ag1644
ag1645
aS'Ed'
p1650
aS'Rush'
p1651
aS'&'
p1652
aS'Optical'
p1653
aS'tickets'
p1654
asg20
(lp1655
g1650
ag1651
ag1652
ag1653
ag1654
asba(iMeme
Meme
p1656
(dp1657
g3
(lp1658
g13
aS'was'
p1659
aS'told'
p1660
aS'there'
p1661
aS"'d"
p1662
aS'be'
p1663
asg5
S"I was told there'd be "
p1664
sg7
S' an email for me in the morning '
p1665
sg9
Vmilton-from-office-space
p1666
sg11
(lp1667
g13
ag1659
ag1660
ag1661
ag1662
ag1663
aS'an'
p1668
aS'email'
p1669
aS'for'
p1670
aS'me'
p1671
aS'in'
p1672
aS'the'
p1673
aS'morning'
p1674
asg20
(lp1675
g1668
ag1669
ag1670
ag1671
ag1672
ag1673
ag1674
asba(iMeme
Meme
p1676
(dp1677
g3
(lp1678
sg5
S' '
p1679
sg7
S' i was told there would be entertainment '
p1680
sg9
Vmilton-from-office-space
p1681
sg11
(lp1682
g29
aS'was'
p1683
aS'told'
p1684
aS'there'
p1685
aS'would'
p1686
aS'be'
p1687
aS'entertainment'
p1688
asg20
(lp1689
g29
ag1683
ag1684
ag1685
ag1686
ag1687
ag1688
asba(iMeme
Meme
p1690
(dp1691
g3
(lp1692
S'Hi'
p1693
aS'there'
p1694
asg5
S'Hi there  '
p1695
sg7
S' I was told there would be cuddles '
p1696
sg9
Vmilton-from-office-space
p1697
sg11
(lp1698
g1693
ag1694
ag13
aS'was'
p1699
aS'told'
p1700
aS'there'
p1701
aS'would'
p1702
aS'be'
p1703
aS'cuddles'
p1704
asg20
(lp1705
g13
ag1699
ag1700
ag1701
ag1702
ag1703
ag1704
asba(iMeme
Meme
p1706
(dp1707
g3
(lp1708
sg5
S' '
p1709
sg7
S' i was told THERe would be food '
p1710
sg9
Vmilton-from-office-space
p1711
sg11
(lp1712
g29
aS'was'
p1713
aS'told'
p1714
aS'THERe'
p1715
aS'would'
p1716
aS'be'
p1717
aS'food'
p1718
asg20
(lp1719
g29
ag1713
ag1714
ag1715
ag1716
ag1717
ag1718
asba(iMeme
Meme
p1720
(dp1721
g3
(lp1722
sg5
S' '
p1723
sg7
S' I was told there would be silence '
p1724
sg9
Vmilton-from-office-space
p1725
sg11
(lp1726
g13
aS'was'
p1727
aS'told'
p1728
aS'there'
p1729
aS'would'
p1730
aS'be'
p1731
aS'silence'
p1732
asg20
(lp1733
g13
ag1727
ag1728
ag1729
ag1730
ag1731
ag1732
asba(iMeme
Meme
p1734
(dp1735
g3
(lp1736
g13
aS"'m"
p1737
ag62
aS'gay'
p1738
aS'homosexual'
p1739
aS'which'
p1740
aS'likes'
p1741
aS'it'
p1742
aS'aNal'
p1743
asg5
S"I'm a gay homosexual which likes it aNal "
p1744
sg7
S" So come and Rape me till I'm filled :) "
p1745
sg9
Vmilton-from-office-space
p1746
sg11
(lp1747
g13
ag1737
ag62
ag1738
ag1739
ag1740
ag1741
ag1742
ag1743
aS'So'
p1748
aS'come'
p1749
aS'and'
p1750
aS'Rape'
p1751
aS'me'
p1752
aS'till'
p1753
ag13
aS"'m"
p1754
aS'filled'
p1755
aS':'
p1756
aS')'
p1757
asg20
(lp1758
g1748
ag1749
ag1750
ag1751
ag1752
ag1753
ag13
ag1754
ag1755
ag1756
ag1757
asba(iMeme
Meme
p1759
(dp1760
g3
(lp1761
sg5
S' '
p1762
sg7
S' I was told there would be features '
p1763
sg9
Vmilton-from-office-space
p1764
sg11
(lp1765
g13
aS'was'
p1766
aS'told'
p1767
aS'there'
p1768
aS'would'
p1769
aS'be'
p1770
aS'features'
p1771
asg20
(lp1772
g13
ag1766
ag1767
ag1768
ag1769
ag1770
ag1771
asba(iMeme
Meme
p1773
(dp1774
g3
(lp1775
sg5
S' '
p1776
sg7
S' I was told there would be laughs '
p1777
sg9
Vmilton-from-office-space
p1778
sg11
(lp1779
g13
aS'was'
p1780
aS'told'
p1781
aS'there'
p1782
aS'would'
p1783
aS'be'
p1784
aS'laughs'
p1785
asg20
(lp1786
g13
ag1780
ag1781
ag1782
ag1783
ag1784
ag1785
asba(iMeme
Meme
p1787
(dp1788
g3
(lp1789
sg5
S' '
p1790
sg7
S' I was told there would be a joke '
p1791
sg9
Vmilton-from-office-space
p1792
sg11
(lp1793
g13
aS'was'
p1794
aS'told'
p1795
aS'there'
p1796
aS'would'
p1797
aS'be'
p1798
ag62
aS'joke'
p1799
asg20
(lp1800
g13
ag1794
ag1795
ag1796
ag1797
ag1798
ag62
ag1799
asba(iMeme
Meme
p1801
(dp1802
g3
(lp1803
g13
aS'was'
p1804
aS'told'
p1805
aS'we'
p1806
aS'would'
p1807
aS'get'
p1808
aS'paid'
p1809
asg5
S'I was told we would get paid '
p1810
sg7
S'  '
p1811
sg9
Vmilton-from-office-space
p1812
sg11
(lp1813
g13
ag1804
ag1805
ag1806
ag1807
ag1808
ag1809
asg20
(lp1814
sba(iMeme
Meme
p1815
(dp1816
g3
(lp1817
g29
aS'was'
p1818
aS'told'
p1819
aS'there'
p1820
aS'would'
p1821
aS'be'
p1822
asg5
S'i was told there would be '
p1823
sg7
S' upvotes '
p1824
sg9
Vmilton-from-office-space
p1825
sg11
(lp1826
g29
ag1818
ag1819
ag1820
ag1821
ag1822
aS'upvotes'
p1827
asg20
(lp1828
g1827
asba(iMeme
Meme
p1829
(dp1830
g3
(lp1831
sg5
S' '
p1832
sg7
S' I was told there would be pizza '
p1833
sg9
Vmilton-from-office-space
p1834
sg11
(lp1835
g13
aS'was'
p1836
aS'told'
p1837
aS'there'
p1838
aS'would'
p1839
aS'be'
p1840
aS'pizza'
p1841
asg20
(lp1842
g13
ag1836
ag1837
ag1838
ag1839
ag1840
ag1841
asba(iMeme
Meme
p1843
(dp1844
g3
(lp1845
g13
aS'was'
p1846
aS'told'
p1847
asg5
S'I was told '
p1848
sg7
S' college would be fun '
p1849
sg9
Vmilton-from-office-space
p1850
sg11
(lp1851
g13
ag1846
ag1847
aS'college'
p1852
aS'would'
p1853
aS'be'
p1854
aS'fun'
p1855
asg20
(lp1856
g1852
ag1853
ag1854
ag1855
asba(iMeme
Meme
p1857
(dp1858
g3
(lp1859
S'You'
p1860
aS'did'
p1861
aS'WHAT'
p1862
ag288
asg5
S'You did WHAT? '
p1863
sg7
S' You voted for district 3 over union j? '
p1864
sg9
Vmilton-from-office-space
p1865
sg11
(lp1866
g1860
ag1861
ag1862
ag288
aS'You'
p1867
aS'voted'
p1868
aS'for'
p1869
aS'district'
p1870
aS'3'
p1871
aS'over'
p1872
aS'union'
p1873
aS'j'
p1874
ag288
asg20
(lp1875
g1867
ag1868
ag1869
ag1870
ag1871
ag1872
ag1873
ag1874
ag288
asba(iMeme
Meme
p1876
(dp1877
g3
(lp1878
g29
aS'was'
p1879
aS'told'
p1880
asg5
S'i was told '
p1881
sg7
S" there would be working api's "
p1882
sg9
Vmilton-from-office-space
p1883
sg11
(lp1884
g29
ag1879
ag1880
aS'there'
p1885
aS'would'
p1886
aS'be'
p1887
aS'working'
p1888
aS'api'
p1889
aS"'s"
p1890
asg20
(lp1891
g1885
ag1886
ag1887
ag1888
ag1889
ag1890
asba(iMeme
Meme
p1892
(dp1893
g3
(lp1894
S'They'
p1895
aS'said'
p1896
ag13
aS'could'
p1897
aS'listen'
p1898
aS'to'
p1899
aS'the'
p1900
aS'radio'
p1901
aS'at'
p1902
ag62
aS'reasonable'
p1903
aS'volume'
p1904
aS'from'
p1905
aS'nine'
p1906
aS'to'
p1907
aS'eleven'
p1908
asg5
S'They said I could listen to the radio at a reasonable volume from   nine to eleven '
p1909
sg7
S"  I, I told Bill that if Sandra's going to listen to her headphones while   she' working, I can listen to the radio while I'm collating "
p1910
sg9
Vmilton-from-office-space
p1911
sg11
(lp1912
g1895
ag1896
ag13
ag1897
ag1898
ag1899
ag1900
ag1901
ag1902
ag62
ag1903
ag1904
ag1905
ag1906
ag1907
ag1908
ag13
ag612
ag13
aS'told'
p1913
aS'Bill'
p1914
aS'that'
p1915
aS'if'
p1916
aS'Sandra'
p1917
aS"'s"
p1918
aS'going'
p1919
aS'to'
p1920
aS'listen'
p1921
aS'to'
p1922
aS'her'
p1923
aS'headphones'
p1924
aS'while'
p1925
aS'she'
p1926
aS"'"
p1927
aS'working'
p1928
ag612
ag13
aS'can'
p1929
aS'listen'
p1930
aS'to'
p1931
aS'the'
p1932
aS'radio'
p1933
aS'while'
p1934
ag13
aS"'m"
p1935
aS'collating'
p1936
asg20
(lp1937
g13
ag612
ag13
ag1913
ag1914
ag1915
ag1916
ag1917
ag1918
ag1919
ag1920
ag1921
ag1922
ag1923
ag1924
ag1925
ag1926
ag1927
ag1928
ag612
ag13
ag1929
ag1930
ag1931
ag1932
ag1933
ag1934
ag13
ag1935
ag1936
asba(iMeme
Meme
p1938
(dp1939
g3
(lp1940
g13
aS'take'
p1941
aS'the'
p1942
aS'entry'
p1943
aS'fees'
p1944
aS'from'
p1945
aS'the'
p1946
aS'national'
p1947
aS'competitors'
p1948
asg5
S'I take the entry fees from the national competitors '
p1949
sg7
S' and give it to the regional teams '
p1950
sg9
Vmilton-from-office-space
p1951
sg11
(lp1952
g13
ag1941
ag1942
ag1943
ag1944
ag1945
ag1946
ag1947
ag1948
aS'and'
p1953
aS'give'
p1954
aS'it'
p1955
aS'to'
p1956
aS'the'
p1957
aS'regional'
p1958
aS'teams'
p1959
asg20
(lp1960
g1953
ag1954
ag1955
ag1956
ag1957
ag1958
ag1959
asba(iMeme
Meme
p1961
(dp1962
g3
(lp1963
S'If'
p1964
aS'you'
p1965
aS'could'
p1966
aS'give'
p1967
aS'me'
p1968
aS'my'
p1969
aS'COE'
p1970
asg5
S'If you could give me my COE  '
p1971
sg7
S' That would be GREAT '
p1972
sg9
Vmilton-from-office-space
p1973
sg11
(lp1974
g1964
ag1965
ag1966
ag1967
ag1968
ag1969
ag1970
aS'That'
p1975
aS'would'
p1976
aS'be'
p1977
aS'GREAT'
p1978
asg20
(lp1979
g1975
ag1976
ag1977
ag1978
asba(iMeme
Meme
p1980
(dp1981
g3
(lp1982
sg5
S' '
p1983
sg7
S' I was told that there was perks to being a mom '
p1984
sg9
Vmilton-from-office-space
p1985
sg11
(lp1986
g13
aS'was'
p1987
aS'told'
p1988
aS'that'
p1989
aS'there'
p1990
aS'was'
p1991
aS'perks'
p1992
aS'to'
p1993
aS'being'
p1994
ag62
aS'mom'
p1995
asg20
(lp1996
g13
ag1987
ag1988
ag1989
ag1990
ag1991
ag1992
ag1993
ag1994
ag62
ag1995
asba(iMeme
Meme
p1997
(dp1998
g3
(lp1999
S'Excuse'
p2000
aS'me'
p2001
ag612
aS'internet'
p2002
aS'...'
p2003
asg5
S'Excuse me, internet... '
p2004
sg7
S' I believe you have my home.html file? '
p2005
sg9
Vmilton-from-office-space
p2006
sg11
(lp2007
g2000
ag2001
ag612
ag2002
ag2003
ag13
aS'believe'
p2008
aS'you'
p2009
aS'have'
p2010
aS'my'
p2011
aS'home.html'
p2012
aS'file'
p2013
ag288
asg20
(lp2014
g13
ag2008
ag2009
ag2010
ag2011
ag2012
ag2013
ag288
asba(iMeme
Meme
p2015
(dp2016
g3
(lp2017
sg5
S' '
p2018
sg7
S" I was told there wouldn't be acne "
p2019
sg9
Vmilton-from-office-space
p2020
sg11
(lp2021
g13
aS'was'
p2022
aS'told'
p2023
aS'there'
p2024
aS'would'
p2025
aS"n't"
p2026
aS'be'
p2027
aS'acne'
p2028
asg20
(lp2029
g13
ag2022
ag2023
ag2024
ag2025
ag2026
ag2027
ag2028
asba(iMeme
Meme
p2030
(dp2031
g3
(lp2032
g13
aS'was'
p2033
aS'told'
p2034
asg5
S'I was told '
p2035
sg7
S' There would be dragons '
p2036
sg9
Vmilton-from-office-space
p2037
sg11
(lp2038
g13
ag2033
ag2034
aS'There'
p2039
aS'would'
p2040
aS'be'
p2041
aS'dragons'
p2042
asg20
(lp2043
g2039
ag2040
ag2041
ag2042
asba(iMeme
Meme
p2044
(dp2045
g3
(lp2046
sg5
S' '
p2047
sg7
S" I was told there'd be pancakes "
p2048
sg9
Vmilton-from-office-space
p2049
sg11
(lp2050
g13
aS'was'
p2051
aS'told'
p2052
aS'there'
p2053
aS"'d"
p2054
aS'be'
p2055
aS'pancakes'
p2056
asg20
(lp2057
g13
ag2051
ag2052
ag2053
ag2054
ag2055
ag2056
asba(iMeme
Meme
p2058
(dp2059
g3
(lp2060
sg5
S' '
p2061
sg7
S' I was told there would be an eruv in this city '
p2062
sg9
Vmilton-from-office-space
p2063
sg11
(lp2064
g13
aS'was'
p2065
aS'told'
p2066
aS'there'
p2067
aS'would'
p2068
aS'be'
p2069
aS'an'
p2070
aS'eruv'
p2071
aS'in'
p2072
aS'this'
p2073
aS'city'
p2074
asg20
(lp2075
g13
ag2065
ag2066
ag2067
ag2068
ag2069
ag2070
ag2071
ag2072
ag2073
ag2074
asba(iMeme
Meme
p2076
(dp2077
g3
(lp2078
sg5
S' '
p2079
sg7
S' I was told there would be skateramps '
p2080
sg9
Vmilton-from-office-space
p2081
sg11
(lp2082
g13
aS'was'
p2083
aS'told'
p2084
aS'there'
p2085
aS'would'
p2086
aS'be'
p2087
aS'skateramps'
p2088
asg20
(lp2089
g13
ag2083
ag2084
ag2085
ag2086
ag2087
ag2088
asba(iMeme
Meme
p2090
(dp2091
g3
(lp2092
g13
aS'love'
p2093
aS'call'
p2094
aS'of'
p2095
aS'duty'
p2096
asg5
S'I love call of duty  '
p2097
sg7
S' And playing with myself  '
p2098
sg9
Vmilton-from-office-space
p2099
sg11
(lp2100
g13
ag2093
ag2094
ag2095
ag2096
aS'And'
p2101
aS'playing'
p2102
aS'with'
p2103
aS'myself'
p2104
asg20
(lp2105
g2101
ag2102
ag2103
ag2104
asba(iMeme
Meme
p2106
(dp2107
g3
(lp2108
S'Rushed'
p2109
aS'home'
p2110
aS'from'
p2111
aS'work'
p2112
asg5
S'Rushed home from work '
p2113
sg7
S' I was told there would be cuddles '
p2114
sg9
Vmilton-from-office-space
p2115
sg11
(lp2116
g2109
ag2110
ag2111
ag2112
ag13
aS'was'
p2117
aS'told'
p2118
aS'there'
p2119
aS'would'
p2120
aS'be'
p2121
aS'cuddles'
p2122
asg20
(lp2123
g13
ag2117
ag2118
ag2119
ag2120
ag2121
ag2122
asba(iMeme
Meme
p2124
(dp2125
g3
(lp2126
g13
aS'will'
p2127
aS'burn'
p2128
aS'this'
p2129
aS'place'
p2130
aS'to'
p2131
aS'the'
p2132
aS'ground'
p2133
asg5
S'I will burn this place to the ground '
p2134
sg7
S' If I have to wait 6 months for my report to be created '
p2135
sg9
Vmilton-from-office-space
p2136
sg11
(lp2137
g13
ag2127
ag2128
ag2129
ag2130
ag2131
ag2132
ag2133
aS'If'
p2138
ag13
aS'have'
p2139
aS'to'
p2140
aS'wait'
p2141
aS'6'
p2142
aS'months'
p2143
aS'for'
p2144
aS'my'
p2145
aS'report'
p2146
aS'to'
p2147
aS'be'
p2148
aS'created'
p2149
asg20
(lp2150
g2138
ag13
ag2139
ag2140
ag2141
ag2142
ag2143
ag2144
ag2145
ag2146
ag2147
ag2148
ag2149
asba(iMeme
Meme
p2151
(dp2152
g3
(lp2153
sg5
S' '
p2154
sg7
S" I was told I'm getting a new computer "
p2155
sg9
Vmilton-from-office-space
p2156
sg11
(lp2157
g13
aS'was'
p2158
aS'told'
p2159
ag13
aS"'m"
p2160
aS'getting'
p2161
ag62
aS'new'
p2162
aS'computer'
p2163
asg20
(lp2164
g13
ag2158
ag2159
ag13
ag2160
ag2161
ag62
ag2162
ag2163
asba(iMeme
Meme
p2165
(dp2166
g3
(lp2167
sg5
S' '
p2168
sg7
S' I was told there would be an AC mix '
p2169
sg9
Vmilton-from-office-space
p2170
sg11
(lp2171
g13
aS'was'
p2172
aS'told'
p2173
aS'there'
p2174
aS'would'
p2175
aS'be'
p2176
aS'an'
p2177
aS'AC'
p2178
aS'mix'
p2179
asg20
(lp2180
g13
ag2172
ag2173
ag2174
ag2175
ag2176
ag2177
ag2178
ag2179
asba(iMeme
Meme
p2181
(dp2182
g3
(lp2183
g13
aS'was'
p2184
aS'told'
p2185
aS'this'
p2186
aS'...'
p2187
aS'yet'
p2188
aS'she'
p2189
aS'set'
p2190
aS'it'
p2191
aS'up'
p2192
aS'when'
p2193
ag13
aS'arrived'
p2194
ag56
asg5
S'I was told this...yet she set it up when I arrived. '
p2195
sg7
S' It was a good walk. '
p2196
sg9
Vmilton-from-office-space
p2197
sg11
(lp2198
g13
ag2184
ag2185
ag2186
ag2187
ag2188
ag2189
ag2190
ag2191
ag2192
ag2193
ag13
ag2194
ag56
aS'It'
p2199
aS'was'
p2200
ag62
aS'good'
p2201
aS'walk'
p2202
ag56
asg20
(lp2203
g2199
ag2200
ag62
ag2201
ag2202
ag56
asba(iMeme
Meme
p2204
(dp2205
g3
(lp2206
sg5
S' '
p2207
sg7
S' I was told that there would be LOTS OF BEER!! '
p2208
sg9
Vmilton-from-office-space
p2209
sg11
(lp2210
g13
aS'was'
p2211
aS'told'
p2212
aS'that'
p2213
aS'there'
p2214
aS'would'
p2215
aS'be'
p2216
aS'LOTS'
p2217
aS'OF'
p2218
aS'BEER'
p2219
ag843
ag843
asg20
(lp2220
g13
ag2211
ag2212
ag2213
ag2214
ag2215
ag2216
ag2217
ag2218
ag2219
ag843
ag843
asba(iMeme
Meme
p2221
(dp2222
g3
(lp2223
g29
aS'was'
p2224
aS'just'
p2225
aS'making'
p2226
ag62
aS'joke'
p2227
asg5
S'i was just making a joke '
p2228
sg7
S' about butt sex '
p2229
sg9
Vmilton-from-office-space
p2230
sg11
(lp2231
g29
ag2224
ag2225
ag2226
ag62
ag2227
aS'about'
p2232
aS'butt'
p2233
aS'sex'
p2234
asg20
(lp2235
g2232
ag2233
ag2234
asba(iMeme
Meme
p2236
(dp2237
g3
(lp2238
S'Artorias'
p2239
asg5
S'Artorias '
p2240
sg7
S' "how do i put it in windowed mode? '
p2241
sg9
Vmilton-from-office-space
p2242
sg11
(lp2243
g2239
aS'``'
p2244
aS'how'
p2245
aS'do'
p2246
ag29
aS'put'
p2247
aS'it'
p2248
aS'in'
p2249
aS'windowed'
p2250
aS'mode'
p2251
ag288
asg20
(lp2252
g2244
ag2245
ag2246
ag29
ag2247
ag2248
ag2249
ag2250
ag2251
ag288
asba(iMeme
Meme
p2253
(dp2254
g3
(lp2255
sg5
S' '
p2256
sg7
S' I was told there would be Argentinians '
p2257
sg9
Vmilton-from-office-space
p2258
sg11
(lp2259
g13
aS'was'
p2260
aS'told'
p2261
aS'there'
p2262
aS'would'
p2263
aS'be'
p2264
aS'Argentinians'
p2265
asg20
(lp2266
g13
ag2260
ag2261
ag2262
ag2263
ag2264
ag2265
asba(iMeme
Meme
p2267
(dp2268
g3
(lp2269
g13
aS'was'
p2270
aS'told'
p2271
aS'there'
p2272
aS'would'
p2273
aS'be'
p2274
aS'cookies'
p2275
aS'at'
p2276
aS'this'
p2277
aS'party'
p2278
asg5
S'I was told there would be cookies at this party '
p2279
sg7
S'  '
p2280
sg9
Vmilton-from-office-space
p2281
sg11
(lp2282
g13
ag2270
ag2271
ag2272
ag2273
ag2274
ag2275
ag2276
ag2277
ag2278
asg20
(lp2283
sba(iMeme
Meme
p2284
(dp2285
g3
(lp2286
S'what'
p2287
ag288
ag843
ag288
ag843
asg5
S'what?!?! '
p2288
sg7
S" there's not dounuts in the break room "
p2289
sg9
Vmilton-from-office-space
p2290
sg11
(lp2291
g2287
ag288
ag843
ag288
ag843
aS'there'
p2292
aS"'s"
p2293
aS'not'
p2294
aS'dounuts'
p2295
aS'in'
p2296
aS'the'
p2297
aS'break'
p2298
aS'room'
p2299
asg20
(lp2300
g2292
ag2293
ag2294
ag2295
ag2296
ag2297
ag2298
ag2299
asba(iMeme
Meme
p2301
(dp2302
g3
(lp2303
S'When'
p2304
aS'will'
p2305
aS'the'
p2306
aS'weekend'
p2307
aS'get'
p2308
aS'here'
p2309
asg5
S'When will the weekend get here  '
p2310
sg7
S' So I can go to GLMF '
p2311
sg9
Vmilton-from-office-space
p2312
sg11
(lp2313
g2304
ag2305
ag2306
ag2307
ag2308
ag2309
aS'So'
p2314
ag13
aS'can'
p2315
aS'go'
p2316
aS'to'
p2317
aS'GLMF'
p2318
asg20
(lp2319
g2314
ag13
ag2315
ag2316
ag2317
ag2318
asba(iMeme
Meme
p2320
(dp2321
g3
(lp2322
sg5
S' '
p2323
sg7
S' I was told there would be upvotes '
p2324
sg9
Vmilton-from-office-space
p2325
sg11
(lp2326
g13
aS'was'
p2327
aS'told'
p2328
aS'there'
p2329
aS'would'
p2330
aS'be'
p2331
aS'upvotes'
p2332
asg20
(lp2333
g13
ag2327
ag2328
ag2329
ag2330
ag2331
ag2332
asba(iMeme
Meme
p2334
(dp2335
g3
(lp2336
sg5
S' '
p2337
sg7
S' I was told there would be cookies... '
p2338
sg9
Vmilton-from-office-space
p2339
sg11
(lp2340
g13
aS'was'
p2341
aS'told'
p2342
aS'there'
p2343
aS'would'
p2344
aS'be'
p2345
aS'cookies'
p2346
aS'...'
p2347
asg20
(lp2348
g13
ag2341
ag2342
ag2343
ag2344
ag2345
ag2346
ag2347
asba(iMeme
Meme
p2349
(dp2350
g3
(lp2351
sg5
S' '
p2352
sg7
S' I was told there would be karma '
p2353
sg9
Vmilton-from-office-space
p2354
sg11
(lp2355
g13
aS'was'
p2356
aS'told'
p2357
aS'there'
p2358
aS'would'
p2359
aS'be'
p2360
aS'karma'
p2361
asg20
(lp2362
g13
ag2356
ag2357
ag2358
ag2359
ag2360
ag2361
asba(iMeme
Meme
p2363
(dp2364
g3
(lp2365
g13
aS'believe'
p2366
aS'you'
p2367
aS'have'
p2368
asg5
S'I believe you have '
p2369
sg7
S' My turbos '
p2370
sg9
Vmilton-from-office-space
p2371
sg11
(lp2372
g13
ag2366
ag2367
ag2368
aS'My'
p2373
aS'turbos'
p2374
asg20
(lp2375
g2373
ag2374
asba(iMeme
Meme
p2376
(dp2377
g3
(lp2378
sg5
S' '
p2379
sg7
S' I was told there would be sun '
p2380
sg9
Vmilton-from-office-space
p2381
sg11
(lp2382
g13
aS'was'
p2383
aS'told'
p2384
aS'there'
p2385
aS'would'
p2386
aS'be'
p2387
aS'sun'
p2388
asg20
(lp2389
g13
ag2383
ag2384
ag2385
ag2386
ag2387
ag2388
asba(iMeme
Meme
p2390
(dp2391
g3
(lp2392
sg5
S' '
p2393
sg7
S' I was told there would be upvotes '
p2394
sg9
Vmilton-from-office-space
p2395
sg11
(lp2396
g13
aS'was'
p2397
aS'told'
p2398
aS'there'
p2399
aS'would'
p2400
aS'be'
p2401
aS'upvotes'
p2402
asg20
(lp2403
g13
ag2397
ag2398
ag2399
ag2400
ag2401
ag2402
asba(iMeme
Meme
p2404
(dp2405
g3
(lp2406
S'yeah'
p2407
aS'ok'
p2408
asg5
S'yeah ok '
p2409
sg7
S" i'll boost with you "
p2410
sg9
Vmilton-from-office-space
p2411
sg11
(lp2412
g2407
ag2408
ag29
aS"'ll"
p2413
aS'boost'
p2414
aS'with'
p2415
aS'you'
p2416
asg20
(lp2417
g29
ag2413
ag2414
ag2415
ag2416
asba(iMeme
Meme
p2418
(dp2419
g3
(lp2420
g13
aS'was'
p2421
aS'told'
p2422
asg5
S'I was told '
p2423
sg7
S" There'd be back "
p2424
sg9
Vmilton-from-office-space
p2425
sg11
(lp2426
g13
ag2421
ag2422
aS'There'
p2427
aS"'d"
p2428
aS'be'
p2429
aS'back'
p2430
asg20
(lp2431
g2427
ag2428
ag2429
ag2430
asba(iMeme
Meme
p2432
(dp2433
g3
(lp2434
sg5
S' '
p2435
sg7
S' I was told there would be nice weather '
p2436
sg9
Vmilton-from-office-space
p2437
sg11
(lp2438
g13
aS'was'
p2439
aS'told'
p2440
aS'there'
p2441
aS'would'
p2442
aS'be'
p2443
aS'nice'
p2444
aS'weather'
p2445
asg20
(lp2446
g13
ag2439
ag2440
ag2441
ag2442
ag2443
ag2444
ag2445
asba(iMeme
Meme
p2447
(dp2448
g3
(lp2449
S'give'
p2450
aS'me'
p2451
aS'my'
p2452
asg5
S'give me my '
p2453
sg7
S' sandwiches '
p2454
sg9
Vmilton-from-office-space
p2455
sg11
(lp2456
g2450
ag2451
ag2452
aS'sandwiches'
p2457
asg20
(lp2458
g2457
asba(iMeme
Meme
p2459
(dp2460
g3
(lp2461
S'hi'
p2462
aS'my'
p2463
aS'names'
p2464
aS'ciaran'
p2465
asg5
S'hi my names ciaran '
p2466
sg7
S' safety '
p2467
sg9
Vmilton-from-office-space
p2468
sg11
(lp2469
g2462
ag2463
ag2464
ag2465
aS'safety'
p2470
asg20
(lp2471
g2470
asba(iMeme
Meme
p2472
(dp2473
g3
(lp2474
S'ready'
p2475
aS'to'
p2476
aS'take'
p2477
aS'michaela'
p2478
aS'in'
p2479
aS'for'
p2480
aS'begin'
p2481
aS'to'
p2482
aS'wide'
p2483
asg5
S'ready to take michaela in for begin to wide '
p2484
sg7
S'  '
p2485
sg9
Vmilton-from-office-space
p2486
sg11
(lp2487
g2475
ag2476
ag2477
ag2478
ag2479
ag2480
ag2481
ag2482
ag2483
asg20
(lp2488
sba(iMeme
Meme
p2489
(dp2490
g3
(lp2491
S'hi'
p2492
aS'im'
p2493
aS'stepehen'
p2494
aS'lynch'
p2495
asg5
S'hi im stepehen lynch  '
p2496
sg7
S' and im a farmer '
p2497
sg9
Vmilton-from-office-space
p2498
sg11
(lp2499
g2492
ag2493
ag2494
ag2495
aS'and'
p2500
aS'im'
p2501
ag62
aS'farmer'
p2502
asg20
(lp2503
g2500
ag2501
ag62
ag2502
asba(iMeme
Meme
p2504
(dp2505
g3
(lp2506
g29
aS'never'
p2507
aS'seen'
p2508
aS'tits'
p2509
asg5
S'i never seen tits  '
p2510
sg7
S' like dose before '
p2511
sg9
Vmilton-from-office-space
p2512
sg11
(lp2513
g29
ag2507
ag2508
ag2509
aS'like'
p2514
aS'dose'
p2515
aS'before'
p2516
asg20
(lp2517
g2514
ag2515
ag2516
asba(iMeme
Meme
p2518
(dp2519
g3
(lp2520
sg5
S' '
p2521
sg7
S' I was told there would be a test '
p2522
sg9
Vmilton-from-office-space
p2523
sg11
(lp2524
g13
aS'was'
p2525
aS'told'
p2526
aS'there'
p2527
aS'would'
p2528
aS'be'
p2529
ag62
aS'test'
p2530
asg20
(lp2531
g13
ag2525
ag2526
ag2527
ag2528
ag2529
ag62
ag2530
asba(iMeme
Meme
p2532
(dp2533
g3
(lp2534
S'Why'
p2535
aS'is'
p2536
aS'it'
p2537
aS'so'
p2538
aS'fat'
p2539
ag843
ag288
asg5
S'Why is it so fat!? '
p2540
sg7
S' Why!?!?!?!?!?! '
p2541
sg9
Vmilton-from-office-space
p2542
sg11
(lp2543
g2535
ag2536
ag2537
ag2538
ag2539
ag843
ag288
aS'Why'
p2544
ag843
ag288
ag843
ag288
ag843
ag288
ag843
ag288
ag843
ag288
ag843
asg20
(lp2545
g2544
ag843
ag288
ag843
ag288
ag843
ag288
ag843
ag288
ag843
ag288
ag843
asba(iMeme
Meme
p2546
(dp2547
g3
(lp2548
sg5
S' '
p2549
sg7
S' i was told there would be a joke '
p2550
sg9
Vmilton-from-office-space
p2551
sg11
(lp2552
g29
aS'was'
p2553
aS'told'
p2554
aS'there'
p2555
aS'would'
p2556
aS'be'
p2557
ag62
aS'joke'
p2558
asg20
(lp2559
g29
ag2553
ag2554
ag2555
ag2556
ag2557
ag62
ag2558
asba(iMeme
Meme
p2560
(dp2561
g3
(lp2562
S'Ram'
p2563
aS'Advocate'
p2564
aS'stole'
p2565
aS'my'
p2566
aS'stapler'
p2567
asg5
S'Ram Advocate stole my stapler '
p2568
sg7
S' So i stole it back when he was fishing '
p2569
sg9
Vmilton-from-office-space
p2570
sg11
(lp2571
g2563
ag2564
ag2565
ag2566
ag2567
aS'So'
p2572
ag29
aS'stole'
p2573
aS'it'
p2574
aS'back'
p2575
aS'when'
p2576
aS'he'
p2577
aS'was'
p2578
aS'fishing'
p2579
asg20
(lp2580
g2572
ag29
ag2573
ag2574
ag2575
ag2576
ag2577
ag2578
ag2579
asba(iMeme
Meme
p2581
(dp2582
g3
(lp2583
S'EllO'
p2584
ag612
aS'da'
p2585
aS'name'
p2586
aS"'s"
p2587
aS'Luke'
p2588
asg5
S"EllO, da name's Luke  "
p2589
sg7
S' I eat my oWn poop AnD kill chIpmunks '
p2590
sg9
Vmilton-from-office-space
p2591
sg11
(lp2592
g2584
ag612
ag2585
ag2586
ag2587
ag2588
ag13
aS'eat'
p2593
aS'my'
p2594
aS'oWn'
p2595
aS'poop'
p2596
aS'AnD'
p2597
aS'kill'
p2598
aS'chIpmunks'
p2599
asg20
(lp2600
g13
ag2593
ag2594
ag2595
ag2596
ag2597
ag2598
ag2599
asba(iMeme
Meme
p2601
(dp2602
g3
(lp2603
sg5
S' '
p2604
sg7
S' I was told there would be peanuts '
p2605
sg9
Vmilton-from-office-space
p2606
sg11
(lp2607
g13
aS'was'
p2608
aS'told'
p2609
aS'there'
p2610
aS'would'
p2611
aS'be'
p2612
aS'peanuts'
p2613
asg20
(lp2614
g13
ag2608
ag2609
ag2610
ag2611
ag2612
ag2613
asba(iMeme
Meme
p2615
(dp2616
g3
(lp2617
sg5
S' '
p2618
sg7
S' I was told the ees would be taken seriously '
p2619
sg9
Vmilton-from-office-space
p2620
sg11
(lp2621
g13
aS'was'
p2622
aS'told'
p2623
aS'the'
p2624
aS'ees'
p2625
aS'would'
p2626
aS'be'
p2627
aS'taken'
p2628
aS'seriously'
p2629
asg20
(lp2630
g13
ag2622
ag2623
ag2624
ag2625
ag2626
ag2627
ag2628
ag2629
asba(iMeme
Meme
p2631
(dp2632
g3
(lp2633
S'But'
p2634
aS'...'
p2635
aS'but'
p2636
aS'...'
p2637
aS'but'
p2638
asg5
S'But...but...but '
p2639
sg7
S" I don't have a support pin "
p2640
sg9
Vmilton-from-office-space
p2641
sg11
(lp2642
g2634
ag2635
ag2636
ag2637
ag2638
ag13
aS'do'
p2643
aS"n't"
p2644
aS'have'
p2645
ag62
aS'support'
p2646
aS'pin'
p2647
asg20
(lp2648
g13
ag2643
ag2644
ag2645
ag62
ag2646
ag2647
asba(iMeme
Meme
p2649
(dp2650
g3
(lp2651
sg5
S' '
p2652
sg7
S' I was told there would be bagels... '
p2653
sg9
Vmilton-from-office-space
p2654
sg11
(lp2655
g13
aS'was'
p2656
aS'told'
p2657
aS'there'
p2658
aS'would'
p2659
aS'be'
p2660
aS'bagels'
p2661
aS'...'
p2662
asg20
(lp2663
g13
ag2656
ag2657
ag2658
ag2659
ag2660
ag2661
ag2662
asba(iMeme
Meme
p2664
(dp2665
g3
(lp2666
sg5
S' '
p2667
sg7
S' I was told there would be cupcakes '
p2668
sg9
Vmilton-from-office-space
p2669
sg11
(lp2670
g13
aS'was'
p2671
aS'told'
p2672
aS'there'
p2673
aS'would'
p2674
aS'be'
p2675
aS'cupcakes'
p2676
asg20
(lp2677
g13
ag2671
ag2672
ag2673
ag2674
ag2675
ag2676
asba(iMeme
Meme
p2678
(dp2679
g3
(lp2680
S'If'
p2681
aS'Mitch'
p2682
aS'says'
p2683
aS'its'
p2684
aS'my'
p2685
aS'problem'
p2686
asg5
S'If Mitch says its my problem '
p2687
sg7
S" I'll set this whole building on fire "
p2688
sg9
Vmilton-from-office-space
p2689
sg11
(lp2690
g2681
ag2682
ag2683
ag2684
ag2685
ag2686
ag13
aS"'ll"
p2691
aS'set'
p2692
aS'this'
p2693
aS'whole'
p2694
aS'building'
p2695
aS'on'
p2696
aS'fire'
p2697
asg20
(lp2698
g13
ag2691
ag2692
ag2693
ag2694
ag2695
ag2696
ag2697
asba(iMeme
Meme
p2699
(dp2700
g3
(lp2701
S'Uh'
p2702
ag612
aS'they'
p2703
aS'said'
p2704
ag13
aS'could'
p2705
aS'listen'
p2706
aS'to'
p2707
aS'the'
p2708
aS'radio'
p2709
aS'at'
p2710
ag62
aS'reasonable'
p2711
aS'volume'
p2712
aS'from'
p2713
aS'nine'
p2714
aS'to'
p2715
aS'eleven'
p2716
aS'while'
p2717
ag13
aS"'m"
p2718
aS'collating'
p2719
ag56
asg5
S"Uh, they said I could listen to the radio at a reasonable volume from   nine to eleven while I'm collating. "
p2720
sg7
S"  I, I told Bill that if Sandra's going to listen to her headphones while   she' working, I can listen to the radio while I'm collating "
p2721
sg9
Vmilton-from-office-space
p2722
sg11
(lp2723
g2702
ag612
ag2703
ag2704
ag13
ag2705
ag2706
ag2707
ag2708
ag2709
ag2710
ag62
ag2711
ag2712
ag2713
ag2714
ag2715
ag2716
ag2717
ag13
ag2718
ag2719
ag56
ag13
ag612
ag13
aS'told'
p2724
aS'Bill'
p2725
aS'that'
p2726
aS'if'
p2727
aS'Sandra'
p2728
aS"'s"
p2729
aS'going'
p2730
aS'to'
p2731
aS'listen'
p2732
aS'to'
p2733
aS'her'
p2734
aS'headphones'
p2735
aS'while'
p2736
aS'she'
p2737
ag1927
aS'working'
p2738
ag612
ag13
aS'can'
p2739
aS'listen'
p2740
aS'to'
p2741
aS'the'
p2742
aS'radio'
p2743
aS'while'
p2744
ag13
aS"'m"
p2745
aS'collating'
p2746
asg20
(lp2747
g13
ag612
ag13
ag2724
ag2725
ag2726
ag2727
ag2728
ag2729
ag2730
ag2731
ag2732
ag2733
ag2734
ag2735
ag2736
ag2737
ag1927
ag2738
ag612
ag13
ag2739
ag2740
ag2741
ag2742
ag2743
ag2744
ag13
ag2745
ag2746
asba(iMeme
Meme
p2748
(dp2749
g3
(lp2750
S'Employee'
p2751
aS'Zone'
p2752
asg5
S'Employee Zone '
p2753
sg7
S' Exactly like the "Friend Zone", except done by your Boss. '
p2754
sg9
Vmilton-from-office-space
p2755
sg11
(lp2756
g2751
ag2752
aS'Exactly'
p2757
aS'like'
p2758
aS'the'
p2759
aS'``'
p2760
aS'Friend'
p2761
aS'Zone'
p2762
aS"''"
p2763
ag612
aS'except'
p2764
aS'done'
p2765
aS'by'
p2766
aS'your'
p2767
aS'Boss'
p2768
ag56
asg20
(lp2769
g2757
ag2758
ag2759
ag2760
ag2761
ag2762
ag2763
ag612
ag2764
ag2765
ag2766
ag2767
ag2768
ag56
asba(iMeme
Meme
p2770
(dp2771
g3
(lp2772
S'what'
p2773
aS'do'
p2774
aS'you'
p2775
aS'mean'
p2776
asg5
S'what do you mean '
p2777
sg7
S' the grocery store is out of eggs? '
p2778
sg9
Vmilton-from-office-space
p2779
sg11
(lp2780
g2773
ag2774
ag2775
ag2776
aS'the'
p2781
aS'grocery'
p2782
aS'store'
p2783
aS'is'
p2784
aS'out'
p2785
aS'of'
p2786
aS'eggs'
p2787
ag288
asg20
(lp2788
g2781
ag2782
ag2783
ag2784
ag2785
ag2786
ag2787
ag288
asba(iMeme
Meme
p2789
(dp2790
g3
(lp2791
sg5
S' '
p2792
sg7
S' I was told there would be orgasms '
p2793
sg9
Vmilton-from-office-space
p2794
sg11
(lp2795
g13
aS'was'
p2796
aS'told'
p2797
aS'there'
p2798
aS'would'
p2799
aS'be'
p2800
aS'orgasms'
p2801
asg20
(lp2802
g13
ag2796
ag2797
ag2798
ag2799
ag2800
ag2801
asba(iMeme
Meme
p2803
(dp2804
g3
(lp2805
sg5
S' '
p2806
sg7
S' I was told there would be warm weather '
p2807
sg9
Vmilton-from-office-space
p2808
sg11
(lp2809
g13
aS'was'
p2810
aS'told'
p2811
aS'there'
p2812
aS'would'
p2813
aS'be'
p2814
aS'warm'
p2815
aS'weather'
p2816
asg20
(lp2817
g13
ag2810
ag2811
ag2812
ag2813
ag2814
ag2815
ag2816
asba(iMeme
Meme
p2818
(dp2819
g3
(lp2820
sg5
S' '
p2821
sg7
S' I was told California would be warm '
p2822
sg9
Vmilton-from-office-space
p2823
sg11
(lp2824
g13
aS'was'
p2825
aS'told'
p2826
aS'California'
p2827
aS'would'
p2828
aS'be'
p2829
aS'warm'
p2830
asg20
(lp2831
g13
ag2825
ag2826
ag2827
ag2828
ag2829
ag2830
asba(iMeme
Meme
p2832
(dp2833
g3
(lp2834
g13
aS'was'
p2835
aS'told'
p2836
asg5
S'I was told '
p2837
sg7
S' that I could overnight my grant proposal. '
p2838
sg9
Vmilton-from-office-space
p2839
sg11
(lp2840
g13
ag2835
ag2836
aS'that'
p2841
ag13
aS'could'
p2842
aS'overnight'
p2843
aS'my'
p2844
aS'grant'
p2845
aS'proposal'
p2846
ag56
asg20
(lp2847
g2841
ag13
ag2842
ag2843
ag2844
ag2845
ag2846
ag56
asba(iMeme
Meme
p2848
(dp2849
g3
(lp2850
sg5
S' '
p2851
sg7
S' I was told there would be birthday pie '
p2852
sg9
Vmilton-from-office-space
p2853
sg11
(lp2854
g13
aS'was'
p2855
aS'told'
p2856
aS'there'
p2857
aS'would'
p2858
aS'be'
p2859
aS'birthday'
p2860
aS'pie'
p2861
asg20
(lp2862
g13
ag2855
ag2856
ag2857
ag2858
ag2859
ag2860
ag2861
asba(iMeme
Meme
p2863
(dp2864
g3
(lp2865
sg5
S' '
p2866
sg7
S' I was told there would be shooting stars '
p2867
sg9
Vmilton-from-office-space
p2868
sg11
(lp2869
g13
aS'was'
p2870
aS'told'
p2871
aS'there'
p2872
aS'would'
p2873
aS'be'
p2874
aS'shooting'
p2875
aS'stars'
p2876
asg20
(lp2877
g13
ag2870
ag2871
ag2872
ag2873
ag2874
ag2875
ag2876
asba(iMeme
Meme
p2878
(dp2879
g3
(lp2880
g13
aS'was'
p2881
aS'told'
p2882
asg5
S'I was told '
p2883
sg7
S' there would be hot fun '
p2884
sg9
Vmilton-from-office-space
p2885
sg11
(lp2886
g13
ag2881
ag2882
aS'there'
p2887
aS'would'
p2888
aS'be'
p2889
aS'hot'
p2890
aS'fun'
p2891
asg20
(lp2892
g2887
ag2888
ag2889
ag2890
ag2891
asba(iMeme
Meme
p2893
(dp2894
g3
(lp2895
sg5
S' '
p2896
sg7
S' I was told there would be Freedon '
p2897
sg9
Vmilton-from-office-space
p2898
sg11
(lp2899
g13
aS'was'
p2900
aS'told'
p2901
aS'there'
p2902
aS'would'
p2903
aS'be'
p2904
aS'Freedon'
p2905
asg20
(lp2906
g13
ag2900
ag2901
ag2902
ag2903
ag2904
ag2905
asba(iMeme
Meme
p2907
(dp2908
g3
(lp2909
sg5
S' '
p2910
sg7
S' I was told there would be Global Warming '
p2911
sg9
Vmilton-from-office-space
p2912
sg11
(lp2913
g13
aS'was'
p2914
aS'told'
p2915
aS'there'
p2916
aS'would'
p2917
aS'be'
p2918
aS'Global'
p2919
aS'Warming'
p2920
asg20
(lp2921
g13
ag2914
ag2915
ag2916
ag2917
ag2918
ag2919
ag2920
asba(iMeme
Meme
p2922
(dp2923
g3
(lp2924
g13
aS'was'
p2925
aS'told'
p2926
asg5
S'I was told '
p2927
sg7
S' we could win the division at 7'
p2928
sg9
Vmilton-from-office-space
p2929
sg11
(lp2930
g13
ag2925
ag2926
aS'we'
p2931
aS'could'
p2932
aS'win'
p2933
aS'the'
p2934
aS'division'
p2935
aS'at'
p2936
aS'7'
p2937
asg20
(lp2938
g2931
ag2932
ag2933
ag2934
ag2935
ag2936
ag2937
asba(iMeme
Meme
p2939
(dp2940
g3
(lp2941
g29
aS'was'
p2942
aS'told'
p2943
aS'there'
p2944
aS'would'
p2945
aS'be'
p2946
asg5
S'i was told there would be '
p2947
sg7
S' food '
p2948
sg9
Vmilton-from-office-space
p2949
sg11
(lp2950
g29
ag2942
ag2943
ag2944
ag2945
ag2946
aS'food'
p2951
asg20
(lp2952
g2951
asba(iMeme
Meme
p2953
(dp2954
g3
(lp2955
S'No'
p2956
aS'job'
p2957
aS'experience'
p2958
ag288
asg5
S'No job experience? '
p2959
sg7
S' Well do you know how to Twerk? '
p2960
sg9
Vmilton-from-office-space
p2961
sg11
(lp2962
g2956
ag2957
ag2958
ag288
aS'Well'
p2963
aS'do'
p2964
aS'you'
p2965
aS'know'
p2966
aS'how'
p2967
aS'to'
p2968
aS'Twerk'
p2969
ag288
asg20
(lp2970
g2963
ag2964
ag2965
ag2966
ag2967
ag2968
ag2969
ag288
asba(iMeme
Meme
p2971
(dp2972
g3
(lp2973
g29
aS'was'
p2974
aS'told'
p2975
aS'there'
p2976
aS'would'
p2977
aS'be'
p2978
asg5
S'i was told there would be '
p2979
sg7
S' food '
p2980
sg9
Vmilton-from-office-space
p2981
sg11
(lp2982
g29
ag2974
ag2975
ag2976
ag2977
ag2978
aS'food'
p2983
asg20
(lp2984
g2983
asba(iMeme
Meme
p2985
(dp2986
g3
(lp2987
S'So'
p2988
aS'your'
p2989
aS'saying'
p2990
aS'we'
p2991
aS'can'
p2992
aS'geed'
p2993
asg5
S'So your saying we can geed '
p2994
sg7
S' And play in a fort? '
p2995
sg9
Vmilton-from-office-space
p2996
sg11
(lp2997
g2988
ag2989
ag2990
ag2991
ag2992
ag2993
aS'And'
p2998
aS'play'
p2999
aS'in'
p3000
ag62
aS'fort'
p3001
ag288
asg20
(lp3002
g2998
ag2999
ag3000
ag62
ag3001
ag288
asba(iMeme
Meme
p3003
(dp3004
g3
(lp3005
S'Excuse'
p3006
aS'me'
p3007
asg5
S'Excuse me '
p3008
sg7
S' I thought there would be sex when we got back from your parents '
p3009
sg9
Vmilton-from-office-space
p3010
sg11
(lp3011
g3006
ag3007
ag13
aS'thought'
p3012
aS'there'
p3013
aS'would'
p3014
aS'be'
p3015
aS'sex'
p3016
aS'when'
p3017
aS'we'
p3018
aS'got'
p3019
aS'back'
p3020
aS'from'
p3021
aS'your'
p3022
aS'parents'
p3023
asg20
(lp3024
g13
ag3012
ag3013
ag3014
ag3015
ag3016
ag3017
ag3018
ag3019
ag3020
ag3021
ag3022
ag3023
asba(iMeme
Meme
p3025
(dp3026
g3
(lp3027
S'...'
p3028
aS'was'
p3029
aS'told'
p3030
asg5
S'...was told '
p3031
sg7
S' there would be pie '
p3032
sg9
Vmilton-from-office-space
p3033
sg11
(lp3034
g3028
ag3029
ag3030
aS'there'
p3035
aS'would'
p3036
aS'be'
p3037
aS'pie'
p3038
asg20
(lp3039
g3035
ag3036
ag3037
ag3038
asba(iMeme
Meme
p3040
(dp3041
g3
(lp3042
g29
aS'was'
p3043
aS'told'
p3044
aS'there'
p3045
aS'would'
p3046
aS'be'
p3047
asg5
S'i was told there would be '
p3048
sg7
S' a game of thrones theory '
p3049
sg9
Vmilton-from-office-space
p3050
sg11
(lp3051
g29
ag3043
ag3044
ag3045
ag3046
ag3047
ag62
aS'game'
p3052
aS'of'
p3053
aS'thrones'
p3054
aS'theory'
p3055
asg20
(lp3056
g62
ag3052
ag3053
ag3054
ag3055
asba(iMeme
Meme
p3057
(dp3058
g3
(lp3059
sg5
S' '
p3060
sg7
S' I was told there would be snacks '
p3061
sg9
Vmilton-from-office-space
p3062
sg11
(lp3063
g13
aS'was'
p3064
aS'told'
p3065
aS'there'
p3066
aS'would'
p3067
aS'be'
p3068
aS'snacks'
p3069
asg20
(lp3070
g13
ag3064
ag3065
ag3066
ag3067
ag3068
ag3069
asba(iMeme
Meme
p3071
(dp3072
g3
(lp3073
sg5
S' '
p3074
sg7
S' I was told There would Dates '
p3075
sg9
Vmilton-from-office-space
p3076
sg11
(lp3077
g13
aS'was'
p3078
aS'told'
p3079
aS'There'
p3080
aS'would'
p3081
aS'Dates'
p3082
asg20
(lp3083
g13
ag3078
ag3079
ag3080
ag3081
ag3082
asba(iMeme
Meme
p3084
(dp3085
g3
(lp3086
sg5
S' '
p3087
sg7
S' I was told iwas a full time employee '
p3088
sg9
Vmilton-from-office-space
p3089
sg11
(lp3090
g13
aS'was'
p3091
aS'told'
p3092
aS'iwas'
p3093
ag62
aS'full'
p3094
aS'time'
p3095
aS'employee'
p3096
asg20
(lp3097
g13
ag3091
ag3092
ag3093
ag62
ag3094
ag3095
ag3096
asba(iMeme
Meme
p3098
(dp3099
g3
(lp3100
g13
aS'cant'
p3101
aS'to'
p3102
aS'stop'
p3103
aS'thinking'
p3104
aS'about'
p3105
aS'cod'
p3106
asg5
S'I cant to stop thinking about cod  '
p3107
sg7
S' i gotta get a life somehow '
p3108
sg9
Vmilton-from-office-space
p3109
sg11
(lp3110
g13
ag3101
ag3102
ag3103
ag3104
ag3105
ag3106
ag29
aS'got'
p3111
aS'ta'
p3112
aS'get'
p3113
ag62
aS'life'
p3114
aS'somehow'
p3115
asg20
(lp3116
g29
ag3111
ag3112
ag3113
ag62
ag3114
ag3115
asba(iMeme
Meme
p3117
(dp3118
g3
(lp3119
S'excuse'
p3120
aS'me'
p3121
aS'matthew'
p3122
asg5
S'excuse me matthew '
p3123
sg7
S' i was told you would lose the life competition '
p3124
sg9
Vmilton-from-office-space
p3125
sg11
(lp3126
g3120
ag3121
ag3122
ag29
aS'was'
p3127
aS'told'
p3128
aS'you'
p3129
aS'would'
p3130
aS'lose'
p3131
aS'the'
p3132
aS'life'
p3133
aS'competition'
p3134
asg20
(lp3135
g29
ag3127
ag3128
ag3129
ag3130
ag3131
ag3132
ag3133
ag3134
asba(iMeme
Meme
p3136
(dp3137
g3
(lp3138
sg5
S' '
p3139
sg7
S" I was told there'd be dirty pics. "
p3140
sg9
Vmilton-from-office-space
p3141
sg11
(lp3142
g13
aS'was'
p3143
aS'told'
p3144
aS'there'
p3145
aS"'d"
p3146
aS'be'
p3147
aS'dirty'
p3148
aS'pics'
p3149
ag56
asg20
(lp3150
g13
ag3143
ag3144
ag3145
ag3146
ag3147
ag3148
ag3149
ag56
asba(iMeme
Meme
p3151
(dp3152
g3
(lp3153
S'steve'
p3154
aS'trying'
p3155
asg5
S'steve trying  '
p3156
sg7
S' to study '
p3157
sg9
Vmilton-from-office-space
p3158
sg11
(lp3159
g3154
ag3155
aS'to'
p3160
aS'study'
p3161
asg20
(lp3162
g3160
ag3161
asba(iMeme
Meme
p3163
(dp3164
g3
(lp3165
sg5
S' '
p3166
sg7
S' I was told there would be partying  '
p3167
sg9
Vmilton-from-office-space
p3168
sg11
(lp3169
g13
aS'was'
p3170
aS'told'
p3171
aS'there'
p3172
aS'would'
p3173
aS'be'
p3174
aS'partying'
p3175
asg20
(lp3176
g13
ag3170
ag3171
ag3172
ag3173
ag3174
ag3175
asba(iMeme
Meme
p3177
(dp3178
g3
(lp3179
S'My'
p3180
aS'name'
p3181
aS'is'
p3182
aS'indy'
p3183
aS'and'
p3184
ag29
aS'cant'
p3185
aS'stop'
p3186
aS'thinking'
p3187
aS'of'
p3188
aS'cod'
p3189
asg5
S'My name is indy and i cant stop thinking of cod '
p3190
sg7
S' and im 63 years old '
p3191
sg9
Vmilton-from-office-space
p3192
sg11
(lp3193
g3180
ag3181
ag3182
ag3183
ag3184
ag29
ag3185
ag3186
ag3187
ag3188
ag3189
aS'and'
p3194
aS'im'
p3195
aS'63'
p3196
aS'years'
p3197
aS'old'
p3198
asg20
(lp3199
g3194
ag3195
ag3196
ag3197
ag3198
asba(iMeme
Meme
p3200
(dp3201
g3
(lp3202
S'Yeah'
p3203
ag612
aS'this'
p3204
aS'is'
p3205
aS'Bruck'
p3206
asg5
S'Yeah, this is Bruck '
p3207
sg7
S' Put Me out sick '
p3208
sg9
Vmilton-from-office-space
p3209
sg11
(lp3210
g3203
ag612
ag3204
ag3205
ag3206
aS'Put'
p3211
aS'Me'
p3212
aS'out'
p3213
aS'sick'
p3214
asg20
(lp3215
g3211
ag3212
ag3213
ag3214
asba(iMeme
Meme
p3216
(dp3217
g3
(lp3218
S'Micheal'
p3219
asg5
S'Micheal  '
p3220
sg7
S' 20 years after high school '
p3221
sg9
Vmilton-from-office-space
p3222
sg11
(lp3223
g3219
aS'20'
p3224
aS'years'
p3225
aS'after'
p3226
aS'high'
p3227
aS'school'
p3228
asg20
(lp3229
g3224
ag3225
ag3226
ag3227
ag3228
asba(iMeme
Meme
p3230
(dp3231
g3
(lp3232
g13
aS'cant'
p3233
aS'to'
p3234
aS'stop'
p3235
aS'thinking'
p3236
aS'about'
p3237
aS'cod'
p3238
asg5
S'I cant to stop thinking about cod  '
p3239
sg7
S' i gotta get a life somehow '
p3240
sg9
Vmilton-from-office-space
p3241
sg11
(lp3242
g13
ag3233
ag3234
ag3235
ag3236
ag3237
ag3238
ag29
aS'got'
p3243
aS'ta'
p3244
aS'get'
p3245
ag62
aS'life'
p3246
aS'somehow'
p3247
asg20
(lp3248
g29
ag3243
ag3244
ag3245
ag62
ag3246
ag3247
asba(iMeme
Meme
p3249
(dp3250
g3
(lp3251
sg5
S' '
p3252
sg7
S' I was told there would be flushing '
p3253
sg9
Vmilton-from-office-space
p3254
sg11
(lp3255
g13
aS'was'
p3256
aS'told'
p3257
aS'there'
p3258
aS'would'
p3259
aS'be'
p3260
aS'flushing'
p3261
asg20
(lp3262
g13
ag3256
ag3257
ag3258
ag3259
ag3260
ag3261
asba(iMeme
Meme
p3263
(dp3264
g3
(lp3265
sg5
S' '
p3266
sg7
S' I was told there would be no repostS '
p3267
sg9
Vmilton-from-office-space
p3268
sg11
(lp3269
g13
aS'was'
p3270
aS'told'
p3271
aS'there'
p3272
aS'would'
p3273
aS'be'
p3274
aS'no'
p3275
aS'repostS'
p3276
asg20
(lp3277
g13
ag3270
ag3271
ag3272
ag3273
ag3274
ag3275
ag3276
asba(iMeme
Meme
p3278
(dp3279
g3
(lp3280
sg5
S' '
p3281
sg7
S' i was told that it would get bigger '
p3282
sg9
Vmilton-from-office-space
p3283
sg11
(lp3284
g29
aS'was'
p3285
aS'told'
p3286
aS'that'
p3287
aS'it'
p3288
aS'would'
p3289
aS'get'
p3290
aS'bigger'
p3291
asg20
(lp3292
g29
ag3285
ag3286
ag3287
ag3288
ag3289
ag3290
ag3291
asba(iMeme
Meme
p3293
(dp3294
g3
(lp3295
sg5
S' '
p3296
sg7
S' I was told there would be bunny milk '
p3297
sg9
Vmilton-from-office-space
p3298
sg11
(lp3299
g13
aS'was'
p3300
aS'told'
p3301
aS'there'
p3302
aS'would'
p3303
aS'be'
p3304
aS'bunny'
p3305
aS'milk'
p3306
asg20
(lp3307
g13
ag3300
ag3301
ag3302
ag3303
ag3304
ag3305
ag3306
asba(iMeme
Meme
p3308
(dp3309
g3
(lp3310
sg5
S' '
p3311
sg7
S' I was told there would be flushing '
p3312
sg9
Vmilton-from-office-space
p3313
sg11
(lp3314
g13
aS'was'
p3315
aS'told'
p3316
aS'there'
p3317
aS'would'
p3318
aS'be'
p3319
aS'flushing'
p3320
asg20
(lp3321
g13
ag3315
ag3316
ag3317
ag3318
ag3319
ag3320
asba(iMeme
Meme
p3322
(dp3323
g3
(lp3324
sg5
S' '
p3325
sg7
S' i was told there would be snacks '
p3326
sg9
Vmilton-from-office-space
p3327
sg11
(lp3328
g29
aS'was'
p3329
aS'told'
p3330
aS'there'
p3331
aS'would'
p3332
aS'be'
p3333
aS'snacks'
p3334
asg20
(lp3335
g29
ag3329
ag3330
ag3331
ag3332
ag3333
ag3334
asba(iMeme
Meme
p3336
(dp3337
g3
(lp3338
g13
aS'WAS'
p3339
aS'TOLD'
p3340
asg5
S'I WAS TOLD '
p3341
sg7
S" There'd be engineering involved "
p3342
sg9
Vmilton-from-office-space
p3343
sg11
(lp3344
g13
ag3339
ag3340
aS'There'
p3345
aS"'d"
p3346
aS'be'
p3347
aS'engineering'
p3348
aS'involved'
p3349
asg20
(lp3350
g3345
ag3346
ag3347
ag3348
ag3349
asba(iMeme
Meme
p3351
(dp3352
g3
(lp3353
sg5
S' '
p3354
sg7
S' Not feeling this at all!! '
p3355
sg9
Vmilton-from-office-space
p3356
sg11
(lp3357
S'Not'
p3358
aS'feeling'
p3359
aS'this'
p3360
aS'at'
p3361
aS'all'
p3362
ag843
ag843
asg20
(lp3363
g3358
ag3359
ag3360
ag3361
ag3362
ag843
ag843
asba(iMeme
Meme
p3364
(dp3365
g3
(lp3366
S'grummes'
p3367
aS'face'
p3368
asg5
S'grummes face '
p3369
sg7
S' After he saw our class photo '
p3370
sg9
Vmilton-from-office-space
p3371
sg11
(lp3372
g3367
ag3368
aS'After'
p3373
aS'he'
p3374
aS'saw'
p3375
aS'our'
p3376
aS'class'
p3377
aS'photo'
p3378
asg20
(lp3379
g3373
ag3374
ag3375
ag3376
ag3377
ag3378
asba(iMeme
Meme
p3380
(dp3381
g3
(lp3382
S'And'
p3383
aS'the'
p3384
aS'award'
p3385
aS'for'
p3386
aS'farther'
p3387
aS'of'
p3388
aS'the'
p3389
aS'year'
p3390
aS'goes'
p3391
aS'to'
p3392
aS'...'
p3393
asg5
S'And the award for farther of the year goes to... '
p3394
sg7
S'  '
p3395
sg9
Vmilton-from-office-space
p3396
sg11
(lp3397
g3383
ag3384
ag3385
ag3386
ag3387
ag3388
ag3389
ag3390
ag3391
ag3392
ag3393
asg20
(lp3398
sba(iMeme
Meme
p3399
(dp3400
g3
(lp3401
sg5
S' '
p3402
sg7
S' and not a single gram of f*ck was given that day '
p3403
sg9
Vmilton-from-office-space
p3404
sg11
(lp3405
S'and'
p3406
aS'not'
p3407
ag62
aS'single'
p3408
aS'gram'
p3409
aS'of'
p3410
aS'f*ck'
p3411
aS'was'
p3412
aS'given'
p3413
aS'that'
p3414
aS'day'
p3415
asg20
(lp3416
g3406
ag3407
ag62
ag3408
ag3409
ag3410
ag3411
ag3412
ag3413
ag3414
ag3415
asba(iMeme
Meme
p3417
(dp3418
g3
(lp3419
g13
aS'was'
p3420
aS'told'
p3421
asg5
S'I was told '
p3422
sg7
S' there would be sin.  '
p3423
sg9
Vmilton-from-office-space
p3424
sg11
(lp3425
g13
ag3420
ag3421
aS'there'
p3426
aS'would'
p3427
aS'be'
p3428
aS'sin'
p3429
ag56
asg20
(lp3430
g3426
ag3427
ag3428
ag3429
ag56
asba(iMeme
Meme
p3431
(dp3432
g3
(lp3433
sg5
S' '
p3434
sg7
S' I was told there would be delivery around 11 am '
p3435
sg9
Vmilton-from-office-space
p3436
sg11
(lp3437
g13
aS'was'
p3438
aS'told'
p3439
aS'there'
p3440
aS'would'
p3441
aS'be'
p3442
aS'delivery'
p3443
aS'around'
p3444
aS'11'
p3445
aS'am'
p3446
asg20
(lp3447
g13
ag3438
ag3439
ag3440
ag3441
ag3442
ag3443
ag3444
ag3445
ag3446
asba(iMeme
Meme
p3448
(dp3449
g3
(lp3450
sg5
S' '
p3451
sg7
S' I was told there would be snapchats '
p3452
sg9
Vmilton-from-office-space
p3453
sg11
(lp3454
g13
aS'was'
p3455
aS'told'
p3456
aS'there'
p3457
aS'would'
p3458
aS'be'
p3459
aS'snapchats'
p3460
asg20
(lp3461
g13
ag3455
ag3456
ag3457
ag3458
ag3459
ag3460
asba(iMeme
Meme
p3462
(dp3463
g3
(lp3464
S'Rob'
p3465
aS'at'
p3466
aS'work'
p3467
aS'...'
p3468
ag56
asg5
S'Rob at work....  '
p3469
sg7
S' Somebody moved my stapler!!!  '
p3470
sg9
Vmilton-from-office-space
p3471
sg11
(lp3472
g3465
ag3466
ag3467
ag3468
ag56
aS'Somebody'
p3473
aS'moved'
p3474
aS'my'
p3475
aS'stapler'
p3476
ag843
ag843
ag843
asg20
(lp3477
g3473
ag3474
ag3475
ag3476
ag843
ag843
ag843
asba(iMeme
Meme
p3478
(dp3479
g3
(lp3480
g13
aS'was'
p3481
aS'told'
p3482
aS'...'
p3483
asg5
S'I was told... '
p3484
sg7
S' The front page would get better once school started '
p3485
sg9
Vmilton-from-office-space
p3486
sg11
(lp3487
g13
ag3481
ag3482
ag3483
aS'The'
p3488
aS'front'
p3489
aS'page'
p3490
aS'would'
p3491
aS'get'
p3492
aS'better'
p3493
aS'once'
p3494
aS'school'
p3495
aS'started'
p3496
asg20
(lp3497
g3488
ag3489
ag3490
ag3491
ag3492
ag3493
ag3494
ag3495
ag3496
asba(iMeme
Meme
p3498
(dp3499
g3
(lp3500
sg5
S' '
p3501
sg7
S' I was told there would be a decent conversation '
p3502
sg9
Vmilton-from-office-space
p3503
sg11
(lp3504
g13
aS'was'
p3505
aS'told'
p3506
aS'there'
p3507
aS'would'
p3508
aS'be'
p3509
ag62
aS'decent'
p3510
aS'conversation'
p3511
asg20
(lp3512
g13
ag3505
ag3506
ag3507
ag3508
ag3509
ag62
ag3510
ag3511
asba(iMeme
Meme
p3513
(dp3514
g3
(lp3515
sg5
S' '
p3516
sg7
S' I was told there would be memes '
p3517
sg9
Vmilton-from-office-space
p3518
sg11
(lp3519
g13
aS'was'
p3520
aS'told'
p3521
aS'there'
p3522
aS'would'
p3523
aS'be'
p3524
aS'memes'
p3525
asg20
(lp3526
g13
ag3520
ag3521
ag3522
ag3523
ag3524
ag3525
asba(iMeme
Meme
p3527
(dp3528
g3
(lp3529
sg5
S' '
p3530
sg7
S' I was told there would be food '
p3531
sg9
Vmilton-from-office-space
p3532
sg11
(lp3533
g13
aS'was'
p3534
aS'told'
p3535
aS'there'
p3536
aS'would'
p3537
aS'be'
p3538
aS'food'
p3539
asg20
(lp3540
g13
ag3534
ag3535
ag3536
ag3537
ag3538
ag3539
asba(iMeme
Meme
p3541
(dp3542
g3
(lp3543
g13
aS'was'
p3544
aS'told'
p3545
aS'that'
p3546
asg5
S'I was told that  '
p3547
sg7
S' The Regional Crime Unit is for more serious and complicated cases '
p3548
sg9
Vmilton-from-office-space
p3549
sg11
(lp3550
g13
ag3544
ag3545
ag3546
aS'The'
p3551
aS'Regional'
p3552
aS'Crime'
p3553
aS'Unit'
p3554
aS'is'
p3555
aS'for'
p3556
aS'more'
p3557
aS'serious'
p3558
aS'and'
p3559
aS'complicated'
p3560
aS'cases'
p3561
asg20
(lp3562
g3551
ag3552
ag3553
ag3554
ag3555
ag3556
ag3557
ag3558
ag3559
ag3560
ag3561
asba(iMeme
Meme
p3563
(dp3564
g3
(lp3565
S'Why'
p3566
aS'am'
p3567
ag13
aS'cold'
p3568
ag288
asg5
S'Why am I cold? '
p3569
sg7
S' I was told there would be warmth '
p3570
sg9
Vmilton-from-office-space
p3571
sg11
(lp3572
g3566
ag3567
ag13
ag3568
ag288
ag13
aS'was'
p3573
aS'told'
p3574
aS'there'
p3575
aS'would'
p3576
aS'be'
p3577
aS'warmth'
p3578
asg20
(lp3579
g13
ag3573
ag3574
ag3575
ag3576
ag3577
ag3578
asba(iMeme
Meme
p3580
(dp3581
g3
(lp3582
g13
aS'was'
p3583
aS'told'
p3584
aS'there'
p3585
aS"'d"
p3586
aS'be'
p3587
asg5
S"I was told there'd be  "
p3588
sg7
S' drawing '
p3589
sg9
Vmilton-from-office-space
p3590
sg11
(lp3591
g13
ag3583
ag3584
ag3585
ag3586
ag3587
aS'drawing'
p3592
asg20
(lp3593
g3592
asba(iMeme
Meme
p3594
(dp3595
g3
(lp3596
sg5
S' '
p3597
sg7
S' I was told there would be Lacuni Prowlers... '
p3598
sg9
Vmilton-from-office-space
p3599
sg11
(lp3600
g13
aS'was'
p3601
aS'told'
p3602
aS'there'
p3603
aS'would'
p3604
aS'be'
p3605
aS'Lacuni'
p3606
aS'Prowlers'
p3607
aS'...'
p3608
asg20
(lp3609
g13
ag3601
ag3602
ag3603
ag3604
ag3605
ag3606
ag3607
ag3608
asba(iMeme
Meme
p3610
(dp3611
g3
(lp3612
g13
aS'was'
p3613
aS'told'
p3614
aS'...'
p3615
asg5
S'I was told... '
p3616
sg7
S' There would be battle room scenes '
p3617
sg9
Vmilton-from-office-space
p3618
sg11
(lp3619
g13
ag3613
ag3614
ag3615
aS'There'
p3620
aS'would'
p3621
aS'be'
p3622
aS'battle'
p3623
aS'room'
p3624
aS'scenes'
p3625
asg20
(lp3626
g3620
ag3621
ag3622
ag3623
ag3624
ag3625
asba(iMeme
Meme
p3627
(dp3628
g3
(lp3629
sg5
S' '
p3630
sg7
S' I was told there would be sunshine '
p3631
sg9
Vmilton-from-office-space
p3632
sg11
(lp3633
g13
aS'was'
p3634
aS'told'
p3635
aS'there'
p3636
aS'would'
p3637
aS'be'
p3638
aS'sunshine'
p3639
asg20
(lp3640
g13
ag3634
ag3635
ag3636
ag3637
ag3638
ag3639
asba(iMeme
Meme
p3641
(dp3642
g3
(lp3643
g29
aS'was'
p3644
aS'told'
p3645
asg5
S'i was told '
p3646
sg7
S' there would be booster packs '
p3647
sg9
Vmilton-from-office-space
p3648
sg11
(lp3649
g29
ag3644
ag3645
aS'there'
p3650
aS'would'
p3651
aS'be'
p3652
aS'booster'
p3653
aS'packs'
p3654
asg20
(lp3655
g3650
ag3651
ag3652
ag3653
ag3654
asba(iMeme
Meme
p3656
(dp3657
g3
(lp3658
sg5
S' '
p3659
sg7
S' I was told there would be sex '
p3660
sg9
Vmilton-from-office-space
p3661
sg11
(lp3662
g13
aS'was'
p3663
aS'told'
p3664
aS'there'
p3665
aS'would'
p3666
aS'be'
p3667
aS'sex'
p3668
asg20
(lp3669
g13
ag3663
ag3664
ag3665
ag3666
ag3667
ag3668
asba(iMeme
Meme
p3670
(dp3671
g3
(lp3672
sg5
S' '
p3673
sg7
S' Please dont ask me to stand up or turn on my monitor '
p3674
sg9
Vmilton-from-office-space
p3675
sg11
(lp3676
S'Please'
p3677
aS'dont'
p3678
aS'ask'
p3679
aS'me'
p3680
aS'to'
p3681
aS'stand'
p3682
aS'up'
p3683
aS'or'
p3684
aS'turn'
p3685
aS'on'
p3686
aS'my'
p3687
aS'monitor'
p3688
asg20
(lp3689
g3677
ag3678
ag3679
ag3680
ag3681
ag3682
ag3683
ag3684
ag3685
ag3686
ag3687
ag3688
asba(iMeme
Meme
p3690
(dp3691
g3
(lp3692
S'today'
p3693
aS'is'
p3694
aS'tuesday'
p3695
asg5
S'today is tuesday '
p3696
sg7
S' i was told there would be weeklies '
p3697
sg9
Vmilton-from-office-space
p3698
sg11
(lp3699
g3693
ag3694
ag3695
ag29
aS'was'
p3700
aS'told'
p3701
aS'there'
p3702
aS'would'
p3703
aS'be'
p3704
aS'weeklies'
p3705
asg20
(lp3706
g29
ag3700
ag3701
ag3702
ag3703
ag3704
ag3705
asba(iMeme
Meme
p3707
(dp3708
g3
(lp3709
sg5
S' '
p3710
sg7
S' I was told there would be honesty and accountability...  Thats the last straw... '
p3711
sg9
Vmilton-from-office-space
p3712
sg11
(lp3713
g13
aS'was'
p3714
aS'told'
p3715
aS'there'
p3716
aS'would'
p3717
aS'be'
p3718
aS'honesty'
p3719
aS'and'
p3720
aS'accountability'
p3721
aS'...'
p3722
aS'Thats'
p3723
aS'the'
p3724
aS'last'
p3725
aS'straw'
p3726
aS'...'
p3727
asg20
(lp3728
g13
ag3714
ag3715
ag3716
ag3717
ag3718
ag3719
ag3720
ag3721
ag3722
ag3723
ag3724
ag3725
ag3726
ag3727
asba(iMeme
Meme
p3729
(dp3730
g3
(lp3731
S'After'
p3732
ag2937
aS'interviews'
p3733
asg5
S'After 7 interviews '
p3734
sg7
S' i was told there would be employment '
p3735
sg9
Vmilton-from-office-space
p3736
sg11
(lp3737
g3732
ag2937
ag3733
ag29
aS'was'
p3738
aS'told'
p3739
aS'there'
p3740
aS'would'
p3741
aS'be'
p3742
aS'employment'
p3743
asg20
(lp3744
g29
ag3738
ag3739
ag3740
ag3741
ag3742
ag3743
asba(iMeme
Meme
p3745
(dp3746
g3
(lp3747
S'Stephanie'
p3748
aS'...'
p3749
ag13
aS'was'
p3750
aS'told'
p3751
aS'there'
p3752
aS'would'
p3753
aS'be'
p3754
asg5
S'Stephanie...I was told there would be '
p3755
sg7
S' Ice Cream Cake '
p3756
sg9
Vmilton-from-office-space
p3757
sg11
(lp3758
g3748
ag3749
ag13
ag3750
ag3751
ag3752
ag3753
ag3754
aS'Ice'
p3759
aS'Cream'
p3760
aS'Cake'
p3761
asg20
(lp3762
g3759
ag3760
ag3761
asba(iMeme
Meme
p3763
(dp3764
g3
(lp3765
sg5
S' '
p3766
sg7
S' I was told there would be off'
p3767
sg9
Vmilton-from-office-space
p3768
sg11
(lp3769
g13
aS'was'
p3770
aS'told'
p3771
aS'there'
p3772
aS'would'
p3773
aS'be'
p3774
aS'off'
p3775
asg20
(lp3776
g13
ag3770
ag3771
ag3772
ag3773
ag3774
ag3775
asba(iMeme
Meme
p3777
(dp3778
g3
(lp3779
S'You'
p3780
aS"'re"
p3781
aS'going'
p3782
aS'to'
p3783
aS'have'
p3784
aS'to'
p3785
aS'work'
p3786
aS'until'
p3787
ag2142
aS'on'
p3788
aS'Friday'
p3789
asg5
S"You're going to have to  work until 6 on Friday "
p3790
sg7
S' and start at the new office, 1700 miles away, at 9 on Monday '
p3791
sg9
Vmilton-from-office-space
p3792
sg11
(lp3793
g3780
ag3781
ag3782
ag3783
ag3784
ag3785
ag3786
ag3787
ag2142
ag3788
ag3789
aS'and'
p3794
aS'start'
p3795
aS'at'
p3796
aS'the'
p3797
aS'new'
p3798
aS'office'
p3799
ag612
aS'1700'
p3800
aS'miles'
p3801
aS'away'
p3802
ag612
aS'at'
p3803
aS'9'
p3804
aS'on'
p3805
aS'Monday'
p3806
asg20
(lp3807
g3794
ag3795
ag3796
ag3797
ag3798
ag3799
ag612
ag3800
ag3801
ag3802
ag612
ag3803
ag3804
ag3805
ag3806
asba(iMeme
Meme
p3808
(dp3809
g3
(lp3810
S'You'
p3811
aS'do'
p3812
aS"n't"
p3813
aS'have'
p3814
aS'job'
p3815
aS'eXperiNence'
p3816
ag288
asg5
S"You don't have job eXperiNence? "
p3817
sg7
S' Well do you know how to Twerk? '
p3818
sg9
Vmilton-from-office-space
p3819
sg11
(lp3820
g3811
ag3812
ag3813
ag3814
ag3815
ag3816
ag288
aS'Well'
p3821
aS'do'
p3822
aS'you'
p3823
aS'know'
p3824
aS'how'
p3825
aS'to'
p3826
aS'Twerk'
p3827
ag288
asg20
(lp3828
g3821
ag3822
ag3823
ag3824
ag3825
ag3826
ag3827
ag288
asba(iMeme
Meme
p3829
(dp3830
g3
(lp3831
S'mr'
p3832
aS'mustachio'
p3833
asg5
S'mr mustachio '
p3834
sg7
S' worker guy '
p3835
sg9
Vmilton-from-office-space
p3836
sg11
(lp3837
g3832
ag3833
aS'worker'
p3838
aS'guy'
p3839
asg20
(lp3840
g3838
ag3839
asba(iMeme
Meme
p3841
(dp3842
g3
(lp3843
g13
aS'went'
p3844
aS'to'
p3845
aS'this'
p3846
aS'website'
p3847
asg5
S'I went to this website '
p3848
sg7
S' I was told there would be memes '
p3849
sg9
Vmilton-from-office-space
p3850
sg11
(lp3851
g13
ag3844
ag3845
ag3846
ag3847
ag13
aS'was'
p3852
aS'told'
p3853
aS'there'
p3854
aS'would'
p3855
aS'be'
p3856
aS'memes'
p3857
asg20
(lp3858
g13
ag3852
ag3853
ag3854
ag3855
ag3856
ag3857
asba(iMeme
Meme
p3859
(dp3860
g3
(lp3861
S'That'
p3862
aS'lOok'
p3863
aS'you'
p3864
aS'give'
p3865
asg5
S'That lOok you give  '
p3866
sg7
S' When you find out theres homework. '
p3867
sg9
Vmilton-from-office-space
p3868
sg11
(lp3869
g3862
ag3863
ag3864
ag3865
aS'When'
p3870
aS'you'
p3871
aS'find'
p3872
aS'out'
p3873
aS'theres'
p3874
aS'homework'
p3875
ag56
asg20
(lp3876
g3870
ag3871
ag3872
ag3873
ag3874
ag3875
ag56
asba(iMeme
Meme
p3877
(dp3878
g3
(lp3879
sg5
S' '
p3880
sg7
S' I was told Your mom would be present '
p3881
sg9
Vmilton-from-office-space
p3882
sg11
(lp3883
g13
aS'was'
p3884
aS'told'
p3885
aS'Your'
p3886
aS'mom'
p3887
aS'would'
p3888
aS'be'
p3889
aS'present'
p3890
asg20
(lp3891
g13
ag3884
ag3885
ag3886
ag3887
ag3888
ag3889
ag3890
asba(iMeme
Meme
p3892
(dp3893
g3
(lp3894
sg5
S' '
p3895
sg7
S' I was told there would be karma '
p3896
sg9
Vmilton-from-office-space
p3897
sg11
(lp3898
g13
aS'was'
p3899
aS'told'
p3900
aS'there'
p3901
aS'would'
p3902
aS'be'
p3903
aS'karma'
p3904
asg20
(lp3905
g13
ag3899
ag3900
ag3901
ag3902
ag3903
ag3904
asba(iMeme
Meme
p3906
(dp3907
g3
(lp3908
g29
aS'just'
p3909
aS'got'
p3910
ag62
aS'front'
p3911
aS'desk'
p3912
aS'job'
p3913
asg5
S'i just got a front desk job '
p3914
sg7
S' not a front office job... '
p3915
sg9
Vmilton-from-office-space
p3916
sg11
(lp3917
g29
ag3909
ag3910
ag62
ag3911
ag3912
ag3913
aS'not'
p3918
ag62
aS'front'
p3919
aS'office'
p3920
aS'job'
p3921
aS'...'
p3922
asg20
(lp3923
g3918
ag62
ag3919
ag3920
ag3921
ag3922
asba(iMeme
Meme
p3924
(dp3925
g3
(lp3926
sg5
S' '
p3927
sg7
S' I was told there would be upvotes '
p3928
sg9
Vmilton-from-office-space
p3929
sg11
(lp3930
g13
aS'was'
p3931
aS'told'
p3932
aS'there'
p3933
aS'would'
p3934
aS'be'
p3935
aS'upvotes'
p3936
asg20
(lp3937
g13
ag3931
ag3932
ag3933
ag3934
ag3935
ag3936
asba(iMeme
Meme
p3938
(dp3939
g3
(lp3940
g13
aS'was'
p3941
aS'tOld'
p3942
asg5
S'I was tOld '
p3943
sg7
S' Nothing would change '
p3944
sg9
Vmilton-from-office-space
p3945
sg11
(lp3946
g13
ag3941
ag3942
aS'Nothing'
p3947
aS'would'
p3948
aS'change'
p3949
asg20
(lp3950
g3947
ag3948
ag3949
asba(iMeme
Meme
p3951
(dp3952
g3
(lp3953
sg5
S' '
p3954
sg7
S' I was told there would be karma '
p3955
sg9
Vmilton-from-office-space
p3956
sg11
(lp3957
g13
aS'was'
p3958
aS'told'
p3959
aS'there'
p3960
aS'would'
p3961
aS'be'
p3962
aS'karma'
p3963
asg20
(lp3964
g13
ag3958
ag3959
ag3960
ag3961
ag3962
ag3963
asba(iMeme
Meme
p3965
(dp3966
g3
(lp3967
sg5
S' '
p3968
sg7
S' i was told there would be australians '
p3969
sg9
Vmilton-from-office-space
p3970
sg11
(lp3971
g29
aS'was'
p3972
aS'told'
p3973
aS'there'
p3974
aS'would'
p3975
aS'be'
p3976
aS'australians'
p3977
asg20
(lp3978
g29
ag3972
ag3973
ag3974
ag3975
ag3976
ag3977
asba(iMeme
Meme
p3979
(dp3980
g3
(lp3981
sg5
S' '
p3982
sg7
S' I was told there would be pick slips. '
p3983
sg9
Vmilton-from-office-space
p3984
sg11
(lp3985
g13
aS'was'
p3986
aS'told'
p3987
aS'there'
p3988
aS'would'
p3989
aS'be'
p3990
aS'pick'
p3991
aS'slips'
p3992
ag56
asg20
(lp3993
g13
ag3986
ag3987
ag3988
ag3989
ag3990
ag3991
ag3992
ag56
asba(iMeme
Meme
p3994
(dp3995
g3
(lp3996
S'tempy'
p3997
aS'be'
p3998
aS'like'
p3999
asg5
S'tempy be like  '
p4000
sg7
S' Its the MONITOR  '
p4001
sg9
Vmilton-from-office-space
p4002
sg11
(lp4003
g3997
ag3998
ag3999
aS'Its'
p4004
aS'the'
p4005
aS'MONITOR'
p4006
asg20
(lp4007
g4004
ag4005
ag4006
asba(iMeme
Meme
p4008
(dp4009
g3
(lp4010
sg5
S' '
p4011
sg7
S" I was told there would be FCR's written "
p4012
sg9
Vmilton-from-office-space
p4013
sg11
(lp4014
g13
aS'was'
p4015
aS'told'
p4016
aS'there'
p4017
aS'would'
p4018
aS'be'
p4019
aS'FCR'
p4020
aS"'s"
p4021
aS'written'
p4022
asg20
(lp4023
g13
ag4015
ag4016
ag4017
ag4018
ag4019
ag4020
ag4021
ag4022
asba(iMeme
Meme
p4024
(dp4025
g3
(lp4026
S'Okay'
p4027
ag56
ag13
aS"'ll"
p4028
aS'set'
p4029
aS'the'
p4030
aS'building'
p4031
aS'on'
p4032
aS'fire'
p4033
ag56
asg5
S"Okay. I'll set the building on fire. "
p4034
sg7
S'  '
p4035
sg9
Vmilton-from-office-space
p4036
sg11
(lp4037
g4027
ag56
ag13
ag4028
ag4029
ag4030
ag4031
ag4032
ag4033
ag56
asg20
(lp4038
sba(iMeme
Meme
p4039
(dp4040
g3
(lp4041
sg5
S' '
p4042
sg7
S' I was told there would be barn dancing '
p4043
sg9
Vmilton-from-office-space
p4044
sg11
(lp4045
g13
aS'was'
p4046
aS'told'
p4047
aS'there'
p4048
aS'would'
p4049
aS'be'
p4050
aS'barn'
p4051
aS'dancing'
p4052
asg20
(lp4053
g13
ag4046
ag4047
ag4048
ag4049
ag4050
ag4051
ag4052
asba(iMeme
Meme
p4054
(dp4055
g3
(lp4056
g13
aS'was'
p4057
aS'told'
p4058
aS'when'
p4059
aS'AML'
p4060
aS'finished'
p4061
asg5
S'I was told when AML finished '
p4062
sg7
S' There would be less work '
p4063
sg9
Vmilton-from-office-space
p4064
sg11
(lp4065
g13
ag4057
ag4058
ag4059
ag4060
ag4061
aS'There'
p4066
aS'would'
p4067
aS'be'
p4068
aS'less'
p4069
aS'work'
p4070
asg20
(lp4071
g4066
ag4067
ag4068
ag4069
ag4070
asba(iMeme
Meme
p4072
(dp4073
g3
(lp4074
g29
aS'was'
p4075
aS'told'
p4076
asg5
S'i was told '
p4077
sg7
S" there'd be friends "
p4078
sg9
Vmilton-from-office-space
p4079
sg11
(lp4080
g29
ag4075
ag4076
aS'there'
p4081
aS"'d"
p4082
aS'be'
p4083
aS'friends'
p4084
asg20
(lp4085
g4081
ag4082
ag4083
ag4084
asba(iMeme
Meme
p4086
(dp4087
g3
(lp4088
S'what'
p4089
aS'is'
p4090
ag62
aS'...'
p4091
asg5
S'what is a... '
p4092
sg7
S' Marf?? '
p4093
sg9
Vmilton-from-office-space
p4094
sg11
(lp4095
g4089
ag4090
ag62
ag4091
aS'Marf'
p4096
ag288
ag288
asg20
(lp4097
g4096
ag288
ag288
asba(iMeme
Meme
p4098
(dp4099
g3
(lp4100
sg5
S' '
p4101
sg7
S' I was told there would be sunshine '
p4102
sg9
Vmilton-from-office-space
p4103
sg11
(lp4104
g13
aS'was'
p4105
aS'told'
p4106
aS'there'
p4107
aS'would'
p4108
aS'be'
p4109
aS'sunshine'
p4110
asg20
(lp4111
g13
ag4105
ag4106
ag4107
ag4108
ag4109
ag4110
asba(iMeme
Meme
p4112
(dp4113
g3
(lp4114
sg5
S' '
p4115
sg7
S' I was told we would make finals '
p4116
sg9
Vmilton-from-office-space
p4117
sg11
(lp4118
g13
aS'was'
p4119
aS'told'
p4120
aS'we'
p4121
aS'would'
p4122
aS'make'
p4123
aS'finals'
p4124
asg20
(lp4125
g13
ag4119
ag4120
ag4121
ag4122
ag4123
ag4124
asba(iMeme
Meme
p4126
(dp4127
g3
(lp4128
g29
aS"'m"
p4129
ag2142
ag1927
ag1871
aS"''"
p4130
asg5
S'i\'m 6\' 3" '
p4131
sg7
S' i was told there would be karma '
p4132
sg9
Vmilton-from-office-space
p4133
sg11
(lp4134
g29
ag4129
ag2142
ag1927
ag1871
ag4130
ag29
aS'was'
p4135
aS'told'
p4136
aS'there'
p4137
aS'would'
p4138
aS'be'
p4139
aS'karma'
p4140
asg20
(lp4141
g29
ag4135
ag4136
ag4137
ag4138
ag4139
ag4140
asba(iMeme
Meme
p4142
(dp4143
g3
(lp4144
sg5
S' '
p4145
sg7
S' i was told there would be saving lives '
p4146
sg9
Vmilton-from-office-space
p4147
sg11
(lp4148
g29
aS'was'
p4149
aS'told'
p4150
aS'there'
p4151
aS'would'
p4152
aS'be'
p4153
aS'saving'
p4154
aS'lives'
p4155
asg20
(lp4156
g29
ag4149
ag4150
ag4151
ag4152
ag4153
ag4154
ag4155
asba(iMeme
Meme
p4157
(dp4158
g3
(lp4159
sg5
S' '
p4160
sg7
S' I was told there would be friends and sex '
p4161
sg9
Vmilton-from-office-space
p4162
sg11
(lp4163
g13
aS'was'
p4164
aS'told'
p4165
aS'there'
p4166
aS'would'
p4167
aS'be'
p4168
aS'friends'
p4169
aS'and'
p4170
aS'sex'
p4171
asg20
(lp4172
g13
ag4164
ag4165
ag4166
ag4167
ag4168
ag4169
ag4170
ag4171
asba(iMeme
Meme
p4173
(dp4174
g3
(lp4175
sg5
S' '
p4176
sg7
S' i was told there would be pussy '
p4177
sg9
Vmilton-from-office-space
p4178
sg11
(lp4179
g29
aS'was'
p4180
aS'told'
p4181
aS'there'
p4182
aS'would'
p4183
aS'be'
p4184
aS'pussy'
p4185
asg20
(lp4186
g29
ag4180
ag4181
ag4182
ag4183
ag4184
ag4185
asba(iMeme
Meme
p4187
(dp4188
g3
(lp4189
g29
aS'didnt'
p4190
aS'choose'
p4191
aS'the'
p4192
aS'office'
p4193
aS'life'
p4194
asg5
S'i didnt choose the office life '
p4195
sg7
S' the office life chose me '
p4196
sg9
Vmilton-from-office-space
p4197
sg11
(lp4198
g29
ag4190
ag4191
ag4192
ag4193
ag4194
aS'the'
p4199
aS'office'
p4200
aS'life'
p4201
aS'chose'
p4202
aS'me'
p4203
asg20
(lp4204
g4199
ag4200
ag4201
ag4202
ag4203
asba(iMeme
Meme
p4205
(dp4206
g3
(lp4207
S'NASA'
p4208
aS'sent'
p4209
ag62
aS'deep'
p4210
aS'space'
p4211
aS'probe'
p4212
aS'to'
p4213
aS'the'
p4214
aS'planet'
p4215
aS'Giveafuckaboutyou'
p4216
asg5
S'NASA sent a deep space probe to the planet Giveafuckaboutyou  '
p4217
sg7
S' AND CONFIRMED THAT THE PLANET WAS UNINHABITED '
p4218
sg9
Vmilton-from-office-space
p4219
sg11
(lp4220
g4208
ag4209
ag62
ag4210
ag4211
ag4212
ag4213
ag4214
ag4215
ag4216
aS'AND'
p4221
aS'CONFIRMED'
p4222
aS'THAT'
p4223
aS'THE'
p4224
aS'PLANET'
p4225
aS'WAS'
p4226
aS'UNINHABITED'
p4227
asg20
(lp4228
g4221
ag4222
ag4223
ag4224
ag4225
ag4226
ag4227
asba(iMeme
Meme
p4229
(dp4230
g3
(lp4231
sg5
S' '
p4232
sg7
S' I was told there would be a gift basket '
p4233
sg9
Vmilton-from-office-space
p4234
sg11
(lp4235
g13
aS'was'
p4236
aS'told'
p4237
aS'there'
p4238
aS'would'
p4239
aS'be'
p4240
ag62
aS'gift'
p4241
aS'basket'
p4242
asg20
(lp4243
g13
ag4236
ag4237
ag4238
ag4239
ag4240
ag62
ag4241
ag4242
asba(iMeme
Meme
p4244
(dp4245
g3
(lp4246
S'NASA'
p4247
aS'sent'
p4248
ag62
aS'deep'
p4249
aS'space'
p4250
aS'probe'
p4251
aS'to'
p4252
aS'the'
p4253
aS'planet'
p4254
aS'Giveafuckaboutyou'
p4255
asg5
S'NASA sent a deep space probe to the planet Giveafuckaboutyou  '
p4256
sg7
S' AND CONFIRMED THAT I WASN&#8217;T THERE '
p4257
sg9
Vmilton-from-office-space
p4258
sg11
(lp4259
g4247
ag4248
ag62
ag4249
ag4250
ag4251
ag4252
ag4253
ag4254
ag4255
aS'AND'
p4260
aS'CONFIRMED'
p4261
aS'THAT'
p4262
ag13
aS'WASN'
p4263
ag1652
aS'#'
p4264
aS'8217'
p4265
aS';'
p4266
aS'T'
p4267
aS'THERE'
p4268
asg20
(lp4269
g4260
ag4261
ag4262
ag13
ag4263
ag1652
ag4264
ag4265
ag4266
ag4267
ag4268
asba(iMeme
Meme
p4270
(dp4271
g3
(lp4272
sg5
S' '
p4273
sg7
S' I was told there would be only one .vi '
p4274
sg9
Vmilton-from-office-space
p4275
sg11
(lp4276
g13
aS'was'
p4277
aS'told'
p4278
aS'there'
p4279
aS'would'
p4280
aS'be'
p4281
aS'only'
p4282
aS'one'
p4283
aS'.vi'
p4284
asg20
(lp4285
g13
ag4277
ag4278
ag4279
ag4280
ag4281
ag4282
ag4283
ag4284
asba(iMeme
Meme
p4286
(dp4287
g3
(lp4288
sg5
S' '
p4289
sg7
S" I was told there'd be laughter "
p4290
sg9
Vmilton-from-office-space
p4291
sg11
(lp4292
g13
aS'was'
p4293
aS'told'
p4294
aS'there'
p4295
aS"'d"
p4296
aS'be'
p4297
aS'laughter'
p4298
asg20
(lp4299
g13
ag4293
ag4294
ag4295
ag4296
ag4297
ag4298
asba(iMeme
Meme
p4300
(dp4301
g3
(lp4302
g13
aS'was'
p4303
aS'told'
p4304
asg5
S'I was told '
p4305
sg7
S" There'D be burgers. "
p4306
sg9
Vmilton-from-office-space
p4307
sg11
(lp4308
g13
ag4303
ag4304
aS'There'
p4309
aS"'D"
p4310
aS'be'
p4311
aS'burgers'
p4312
ag56
asg20
(lp4313
g4309
ag4310
ag4311
ag4312
ag56
asba(iMeme
Meme
p4314
(dp4315
g3
(lp4316
sg5
S' '
p4317
sg7
S' I was told there would be wine... '
p4318
sg9
Vmilton-from-office-space
p4319
sg11
(lp4320
g13
aS'was'
p4321
aS'told'
p4322
aS'there'
p4323
aS'would'
p4324
aS'be'
p4325
aS'wine'
p4326
aS'...'
p4327
asg20
(lp4328
g13
ag4321
ag4322
ag4323
ag4324
ag4325
ag4326
ag4327
asba(iMeme
Meme
p4329
(dp4330
g3
(lp4331
sg5
S' '
p4332
sg7
S' I was told there would be posts '
p4333
sg9
Vmilton-from-office-space
p4334
sg11
(lp4335
g13
aS'was'
p4336
aS'told'
p4337
aS'there'
p4338
aS'would'
p4339
aS'be'
p4340
aS'posts'
p4341
asg20
(lp4342
g13
ag4336
ag4337
ag4338
ag4339
ag4340
ag4341
asba(iMeme
Meme
p4343
(dp4344
g3
(lp4345
g13
aS'added'
p4346
ag62
aS'troll'
p4347
asg5
S'I added a troll '
p4348
sg7
S' and forgot to topkek '
p4349
sg9
Vmilton-from-office-space
p4350
sg11
(lp4351
g13
ag4346
ag62
ag4347
aS'and'
p4352
aS'forgot'
p4353
aS'to'
p4354
aS'topkek'
p4355
asg20
(lp4356
g4352
ag4353
ag4354
ag4355
asba(iMeme
Meme
p4357
(dp4358
g3
(lp4359
sg5
S' '
p4360
sg7
S' I was told there would be cupcakes '
p4361
sg9
Vmilton-from-office-space
p4362
sg11
(lp4363
g13
aS'was'
p4364
aS'told'
p4365
aS'there'
p4366
aS'would'
p4367
aS'be'
p4368
aS'cupcakes'
p4369
asg20
(lp4370
g13
ag4364
ag4365
ag4366
ag4367
ag4368
ag4369
asba(iMeme
Meme
p4371
(dp4372
g3
(lp4373
sg5
S' '
p4374
sg7
S' I was told there would be lulz '
p4375
sg9
Vmilton-from-office-space
p4376
sg11
(lp4377
g13
aS'was'
p4378
aS'told'
p4379
aS'there'
p4380
aS'would'
p4381
aS'be'
p4382
aS'lulz'
p4383
asg20
(lp4384
g13
ag4378
ag4379
ag4380
ag4381
ag4382
ag4383
asba(iMeme
Meme
p4385
(dp4386
g3
(lp4387
sg5
S' '
p4388
sg7
S' um, um, I believe you have my stapler '
p4389
sg9
Vmilton-from-office-space
p4390
sg11
(lp4391
S'um'
p4392
ag612
aS'um'
p4393
ag612
ag13
aS'believe'
p4394
aS'you'
p4395
aS'have'
p4396
aS'my'
p4397
aS'stapler'
p4398
asg20
(lp4399
g4392
ag612
ag4393
ag612
ag13
ag4394
ag4395
ag4396
ag4397
ag4398
asba(iMeme
Meme
p4400
(dp4401
g3
(lp4402
g13
aS'was'
p4403
aS'told'
p4404
asg5
S'I was told  '
p4405
sg7
S' I would receive mod '
p4406
sg9
Vmilton-from-office-space
p4407
sg11
(lp4408
g13
ag4403
ag4404
ag13
aS'would'
p4409
aS'receive'
p4410
aS'mod'
p4411
asg20
(lp4412
g13
ag4409
ag4410
ag4411
asba(iMeme
Meme
p4413
(dp4414
g3
(lp4415
S'Coach'
p4416
aS'Junior'
p4417
aS'said'
p4418
ag13
aS'do'
p4419
aS"n't"
p4420
aS'have'
p4421
aS'to'
p4422
aS'run'
p4423
ag612
asg5
S"Coach Junior said I don't have to run, "
p4424
sg7
S' Because I have a bone bruise! '
p4425
sg9
Vmilton-from-office-space
p4426
sg11
(lp4427
g4416
ag4417
ag4418
ag13
ag4419
ag4420
ag4421
ag4422
ag4423
ag612
aS'Because'
p4428
ag13
aS'have'
p4429
ag62
aS'bone'
p4430
aS'bruise'
p4431
ag843
asg20
(lp4432
g4428
ag13
ag4429
ag62
ag4430
ag4431
ag843
asba(iMeme
Meme
p4433
(dp4434
g3
(lp4435
sg5
S' '
p4436
sg7
S' I was told there would be beer cart girls... '
p4437
sg9
Vmilton-from-office-space
p4438
sg11
(lp4439
g13
aS'was'
p4440
aS'told'
p4441
aS'there'
p4442
aS'would'
p4443
aS'be'
p4444
aS'beer'
p4445
aS'cart'
p4446
aS'girls'
p4447
aS'...'
p4448
asg20
(lp4449
g13
ag4440
ag4441
ag4442
ag4443
ag4444
ag4445
ag4446
ag4447
ag4448
asba(iMeme
Meme
p4450
(dp4451
g3
(lp4452
S'Mailed'
p4453
aS'tax'
p4454
aS'stamp'
p4455
ag3804
aS'months'
p4456
aS'ago'
p4457
ag56
aS'Still'
p4458
aS'not'
p4459
aS'approved'
p4460
ag56
asg5
S'Mailed tax stamp 9 months ago. Still not approved. '
p4461
sg7
S" That's the last straw "
p4462
sg9
Vmilton-from-office-space
p4463
sg11
(lp4464
g4453
ag4454
ag4455
ag3804
ag4456
ag4457
ag56
ag4458
ag4459
ag4460
ag56
aS'That'
p4465
aS"'s"
p4466
aS'the'
p4467
aS'last'
p4468
aS'straw'
p4469
asg20
(lp4470
g4465
ag4466
ag4467
ag4468
ag4469
asba(iMeme
Meme
p4471
(dp4472
g3
(lp4473
S'So'
p4474
aS'your'
p4475
aS'sending'
p4476
aS'me'
p4477
aS'to'
p4478
asg5
S'So your sending me to '
p4479
sg7
S' Fucking Austria? '
p4480
sg9
Vmilton-from-office-space
p4481
sg11
(lp4482
g4474
ag4475
ag4476
ag4477
ag4478
aS'Fucking'
p4483
aS'Austria'
p4484
ag288
asg20
(lp4485
g4483
ag4484
ag288
asba(iMeme
Meme
p4486
(dp4487
g3
(lp4488
g13
aS'was'
p4489
aS'told'
p4490
aS'there'
p4491
aS'would'
p4492
aS'be'
p4493
asg5
S'I was told there would be '
p4494
sg7
S' Parking spots  '
p4495
sg9
Vmilton-from-office-space
p4496
sg11
(lp4497
g13
ag4489
ag4490
ag4491
ag4492
ag4493
aS'Parking'
p4498
aS'spots'
p4499
asg20
(lp4500
g4498
ag4499
asba(iMeme
Meme
p4501
(dp4502
g3
(lp4503
sg5
S' '
p4504
sg7
S' I was told to make a presentation about these SOPs. '
p4505
sg9
Vmilton-from-office-space
p4506
sg11
(lp4507
g13
aS'was'
p4508
aS'told'
p4509
aS'to'
p4510
aS'make'
p4511
ag62
aS'presentation'
p4512
aS'about'
p4513
aS'these'
p4514
aS'SOPs'
p4515
ag56
asg20
(lp4516
g13
ag4508
ag4509
ag4510
ag4511
ag62
ag4512
ag4513
ag4514
ag4515
ag56
asba(iMeme
Meme
p4517
(dp4518
g3
(lp4519
g13
aS'was'
p4520
aS'told'
p4521
asg5
S'I was told '
p4522
sg7
S' there would be xdebug '
p4523
sg9
Vmilton-from-office-space
p4524
sg11
(lp4525
g13
ag4520
ag4521
aS'there'
p4526
aS'would'
p4527
aS'be'
p4528
aS'xdebug'
p4529
asg20
(lp4530
g4526
ag4527
ag4528
ag4529
asba(iMeme
Meme
p4531
(dp4532
g3
(lp4533
sg5
S' '
p4534
sg7
S' I was told there would be a story  '
p4535
sg9
Vmilton-from-office-space
p4536
sg11
(lp4537
g13
aS'was'
p4538
aS'told'
p4539
aS'there'
p4540
aS'would'
p4541
aS'be'
p4542
ag62
aS'story'
p4543
asg20
(lp4544
g13
ag4538
ag4539
ag4540
ag4541
ag4542
ag62
ag4543
asba(iMeme
Meme
p4545
(dp4546
g3
(lp4547
g13
aS'was'
p4548
aS'told'
p4549
asg5
S'I was told '
p4550
sg7
S' there would be artists who would draw my picture '
p4551
sg9
Vmilton-from-office-space
p4552
sg11
(lp4553
g13
ag4548
ag4549
aS'there'
p4554
aS'would'
p4555
aS'be'
p4556
aS'artists'
p4557
aS'who'
p4558
aS'would'
p4559
aS'draw'
p4560
aS'my'
p4561
aS'picture'
p4562
asg20
(lp4563
g4554
ag4555
ag4556
ag4557
ag4558
ag4559
ag4560
ag4561
ag4562
asba(iMeme
Meme
p4564
(dp4565
g3
(lp4566
S'they'
p4567
aS'said'
p4568
aS'glasses'
p4569
asg5
S'they said glasses '
p4570
sg7
S' I brought glasses '
p4571
sg9
Vmilton-from-office-space
p4572
sg11
(lp4573
g4567
ag4568
ag4569
ag13
aS'brought'
p4574
aS'glasses'
p4575
asg20
(lp4576
g13
ag4574
ag4575
asba(iMeme
Meme
p4577
(dp4578
g3
(lp4579
S'Glasgow'
p4580
aS'needs'
p4581
aS'yoghurt'
p4582
asg5
S'Glasgow needs yoghurt '
p4583
sg7
S' I will not fail you Glasgow '
p4584
sg9
Vmilton-from-office-space
p4585
sg11
(lp4586
g4580
ag4581
ag4582
ag13
aS'will'
p4587
aS'not'
p4588
aS'fail'
p4589
aS'you'
p4590
aS'Glasgow'
p4591
asg20
(lp4592
g13
ag4587
ag4588
ag4589
ag4590
ag4591
asba(iMeme
Meme
p4593
(dp4594
g3
(lp4595
g13
aS'was'
p4596
aS'told'
p4597
asg5
S'I was told '
p4598
sg7
S' there were no corporate hours '
p4599
sg9
Vmilton-from-office-space
p4600
sg11
(lp4601
g13
ag4596
ag4597
aS'there'
p4602
aS'were'
p4603
aS'no'
p4604
aS'corporate'
p4605
aS'hours'
p4606
asg20
(lp4607
g4602
ag4603
ag4604
ag4605
ag4606
asba(iMeme
Meme
p4608
(dp4609
g3
(lp4610
sg5
S' '
p4611
sg7
S' I was told there would be alcohol '
p4612
sg9
Vmilton-from-office-space
p4613
sg11
(lp4614
g13
aS'was'
p4615
aS'told'
p4616
aS'there'
p4617
aS'would'
p4618
aS'be'
p4619
aS'alcohol'
p4620
asg20
(lp4621
g13
ag4615
ag4616
ag4617
ag4618
ag4619
ag4620
asba(iMeme
Meme
p4622
(dp4623
g3
(lp4624
sg5
S' '
p4625
sg7
S' I was told there would be upvotes '
p4626
sg9
Vmilton-from-office-space
p4627
sg11
(lp4628
g13
aS'was'
p4629
aS'told'
p4630
aS'there'
p4631
aS'would'
p4632
aS'be'
p4633
aS'upvotes'
p4634
asg20
(lp4635
g13
ag4629
ag4630
ag4631
ag4632
ag4633
ag4634
asba(iMeme
Meme
p4636
(dp4637
g3
(lp4638
sg5
S' '
p4639
sg7
S' I was told that bill gates would be here '
p4640
sg9
Vmilton-from-office-space
p4641
sg11
(lp4642
g13
aS'was'
p4643
aS'told'
p4644
aS'that'
p4645
aS'bill'
p4646
aS'gates'
p4647
aS'would'
p4648
aS'be'
p4649
aS'here'
p4650
asg20
(lp4651
g13
ag4643
ag4644
ag4645
ag4646
ag4647
ag4648
ag4649
ag4650
asba(iMeme
Meme
p4652
(dp4653
g3
(lp4654
sg5
S' '
p4655
sg7
S' i was told there would be brains '
p4656
sg9
Vmilton-from-office-space
p4657
sg11
(lp4658
g29
aS'was'
p4659
aS'told'
p4660
aS'there'
p4661
aS'would'
p4662
aS'be'
p4663
aS'brains'
p4664
asg20
(lp4665
g29
ag4659
ag4660
ag4661
ag4662
ag4663
ag4664
asba(iMeme
Meme
p4666
(dp4667
g3
(lp4668
sg5
S' '
p4669
sg7
S' I was told it was friday '
p4670
sg9
Vmilton-from-office-space
p4671
sg11
(lp4672
g13
aS'was'
p4673
aS'told'
p4674
aS'it'
p4675
aS'was'
p4676
aS'friday'
p4677
asg20
(lp4678
g13
ag4673
ag4674
ag4675
ag4676
ag4677
asba(iMeme
Meme
p4679
(dp4680
g3
(lp4681
sg5
S' '
p4682
sg7
S' i was told that training would be made available to us '
p4683
sg9
Vmilton-from-office-space
p4684
sg11
(lp4685
g29
aS'was'
p4686
aS'told'
p4687
aS'that'
p4688
aS'training'
p4689
aS'would'
p4690
aS'be'
p4691
aS'made'
p4692
aS'available'
p4693
aS'to'
p4694
aS'us'
p4695
asg20
(lp4696
g29
ag4686
ag4687
ag4688
ag4689
ag4690
ag4691
ag4692
ag4693
ag4694
ag4695
asba(iMeme
Meme
p4697
(dp4698
g3
(lp4699
sg5
S' '
p4700
sg7
S' i was told i was a full time employee '
p4701
sg9
Vmilton-from-office-space
p4702
sg11
(lp4703
g29
aS'was'
p4704
aS'told'
p4705
ag29
aS'was'
p4706
ag62
aS'full'
p4707
aS'time'
p4708
aS'employee'
p4709
asg20
(lp4710
g29
ag4704
ag4705
ag29
ag4706
ag62
ag4707
ag4708
ag4709
asba(iMeme
Meme
p4711
(dp4712
g3
(lp4713
sg5
S' '
p4714
sg7
S' where is my freaking ISM ticket? '
p4715
sg9
Vmilton-from-office-space
p4716
sg11
(lp4717
S'where'
p4718
aS'is'
p4719
aS'my'
p4720
aS'freaking'
p4721
aS'ISM'
p4722
aS'ticket'
p4723
ag288
asg20
(lp4724
g4718
ag4719
ag4720
ag4721
ag4722
ag4723
ag288
asba(iMeme
Meme
p4725
(dp4726
g3
(lp4727
S'but'
p4728
aS'but'
p4729
aS'but'
p4730
aS'but'
p4731
asg5
S'but but but but '
p4732
sg7
S' i like to watch videos '
p4733
sg9
Vmilton-from-office-space
p4734
sg11
(lp4735
g4728
ag4729
ag4730
ag4731
ag29
aS'like'
p4736
aS'to'
p4737
aS'watch'
p4738
aS'videos'
p4739
asg20
(lp4740
g29
ag4736
ag4737
ag4738
ag4739
asba(iMeme
Meme
p4741
(dp4742
g3
(lp4743
sg5
S' '
p4744
sg7
S' I was told i was getting a new computer '
p4745
sg9
Vmilton-from-office-space
p4746
sg11
(lp4747
g13
aS'was'
p4748
aS'told'
p4749
ag29
aS'was'
p4750
aS'getting'
p4751
ag62
aS'new'
p4752
aS'computer'
p4753
asg20
(lp4754
g13
ag4748
ag4749
ag29
ag4750
ag4751
ag62
ag4752
ag4753
asba(iMeme
Meme
p4755
(dp4756
g3
(lp4757
g13
aS'was'
p4758
aS'told'
p4759
asg5
S'I was told '
p4760
sg7
S' Nothing would change '
p4761
sg9
Vmilton-from-office-space
p4762
sg11
(lp4763
g13
ag4758
ag4759
aS'Nothing'
p4764
aS'would'
p4765
aS'change'
p4766
asg20
(lp4767
g4764
ag4765
ag4766
asba(iMeme
Meme
p4768
(dp4769
g3
(lp4770
sg5
S' '
p4771
sg7
S' I was told there would be weed '
p4772
sg9
Vmilton-from-office-space
p4773
sg11
(lp4774
g13
aS'was'
p4775
aS'told'
p4776
aS'there'
p4777
aS'would'
p4778
aS'be'
p4779
aS'weed'
p4780
asg20
(lp4781
g13
ag4775
ag4776
ag4777
ag4778
ag4779
ag4780
asba(iMeme
Meme
p4782
(dp4783
g3
(lp4784
sg5
S' '
p4785
sg7
S' I was told there would be thunderstorms '
p4786
sg9
Vmilton-from-office-space
p4787
sg11
(lp4788
g13
aS'was'
p4789
aS'told'
p4790
aS'there'
p4791
aS'would'
p4792
aS'be'
p4793
aS'thunderstorms'
p4794
asg20
(lp4795
g13
ag4789
ag4790
ag4791
ag4792
ag4793
ag4794
asba(iMeme
Meme
p4796
(dp4797
g3
(lp4798
sg5
S' '
p4799
sg7
S" I was told there would be FCR's Written "
p4800
sg9
Vmilton-from-office-space
p4801
sg11
(lp4802
g13
aS'was'
p4803
aS'told'
p4804
aS'there'
p4805
aS'would'
p4806
aS'be'
p4807
aS'FCR'
p4808
aS"'s"
p4809
aS'Written'
p4810
asg20
(lp4811
g13
ag4803
ag4804
ag4805
ag4806
ag4807
ag4808
ag4809
ag4810
asba(iMeme
Meme
p4812
(dp4813
g3
(lp4814
S'swaying'
p4815
aS'palm'
p4816
aS'trees'
p4817
aS'around'
p4818
ag62
aS'tropical'
p4819
aS'lagoon'
p4820
asg5
S'swaying palm trees around a tropical lagoon '
p4821
sg7
S' oh god...kill me '
p4822
sg9
Vmilton-from-office-space
p4823
sg11
(lp4824
g4815
ag4816
ag4817
ag4818
ag62
ag4819
ag4820
aS'oh'
p4825
aS'god'
p4826
aS'...'
p4827
aS'kill'
p4828
aS'me'
p4829
asg20
(lp4830
g4825
ag4826
ag4827
ag4828
ag4829
asba(iMeme
Meme
p4831
(dp4832
g3
(lp4833
sg5
S' '
p4834
sg7
S" Um, yes, jeremy, i was told there would be a bachelor party and you told me to talk to payroll and i did and then payroll told me to talk to you and if you don't have one i'm going to um i'm goin to burn this place to the ground. also i had specifically a "
p4835
sg9
Vmilton-from-office-space
p4836
sg11
(lp4837
S'Um'
p4838
ag612
aS'yes'
p4839
ag612
aS'jeremy'
p4840
ag612
ag29
aS'was'
p4841
aS'told'
p4842
aS'there'
p4843
aS'would'
p4844
aS'be'
p4845
ag62
aS'bachelor'
p4846
aS'party'
p4847
aS'and'
p4848
aS'you'
p4849
aS'told'
p4850
aS'me'
p4851
aS'to'
p4852
aS'talk'
p4853
aS'to'
p4854
aS'payroll'
p4855
aS'and'
p4856
ag29
aS'did'
p4857
aS'and'
p4858
aS'then'
p4859
aS'payroll'
p4860
aS'told'
p4861
aS'me'
p4862
aS'to'
p4863
aS'talk'
p4864
aS'to'
p4865
aS'you'
p4866
aS'and'
p4867
aS'if'
p4868
aS'you'
p4869
aS'do'
p4870
aS"n't"
p4871
aS'have'
p4872
aS'one'
p4873
ag29
aS"'m"
p4874
aS'going'
p4875
aS'to'
p4876
aS'um'
p4877
ag29
aS"'m"
p4878
aS'goin'
p4879
aS'to'
p4880
aS'burn'
p4881
aS'this'
p4882
aS'place'
p4883
aS'to'
p4884
aS'the'
p4885
aS'ground'
p4886
ag56
aS'also'
p4887
ag29
aS'had'
p4888
aS'specifically'
p4889
ag62
asg20
(lp4890
g4838
ag612
ag4839
ag612
ag4840
ag612
ag29
ag4841
ag4842
ag4843
ag4844
ag4845
ag62
ag4846
ag4847
ag4848
ag4849
ag4850
ag4851
ag4852
ag4853
ag4854
ag4855
ag4856
ag29
ag4857
ag4858
ag4859
ag4860
ag4861
ag4862
ag4863
ag4864
ag4865
ag4866
ag4867
ag4868
ag4869
ag4870
ag4871
ag4872
ag4873
ag29
ag4874
ag4875
ag4876
ag4877
ag29
ag4878
ag4879
ag4880
ag4881
ag4882
ag4883
ag4884
ag4885
ag4886
ag56
ag4887
ag29
ag4888
ag4889
ag62
asba(iMeme
Meme
p4891
(dp4892
g3
(lp4893
g13
aS'was'
p4894
aS'told'
p4895
asg5
S'I was told  '
p4896
sg7
S' There would be ice cream '
p4897
sg9
Vmilton-from-office-space
p4898
sg11
(lp4899
g13
ag4894
ag4895
aS'There'
p4900
aS'would'
p4901
aS'be'
p4902
aS'ice'
p4903
aS'cream'
p4904
asg20
(lp4905
g4900
ag4901
ag4902
ag4903
ag4904
asba(iMeme
Meme
p4906
(dp4907
g3
(lp4908
S'ok'
p4909
aS'so'
p4910
aS'here'
p4911
aS'is'
p4912
aS'the'
p4913
aS'deal'
p4914
aS'...'
p4915
aS'..'
p4916
asg5
S'ok so here is the deal..... '
p4917
sg7
S' wait u have donuts?!?!?!? your free to go! '
p4918
sg9
Vmilton-from-office-space
p4919
sg11
(lp4920
g4909
ag4910
ag4911
ag4912
ag4913
ag4914
ag4915
ag4916
aS'wait'
p4921
aS'u'
p4922
aS'have'
p4923
aS'donuts'
p4924
ag288
ag843
ag288
ag843
ag288
ag843
ag288
aS'your'
p4925
aS'free'
p4926
aS'to'
p4927
aS'go'
p4928
ag843
asg20
(lp4929
g4921
ag4922
ag4923
ag4924
ag288
ag843
ag288
ag843
ag288
ag843
ag288
ag4925
ag4926
ag4927
ag4928
ag843
asba(iMeme
Meme
p4930
(dp4931
g3
(lp4932
S'if'
p4933
aS'they'
p4934
aS'were'
p4935
aS'your'
p4936
aS'friends'
p4937
asg5
S'if they were your friends '
p4938
sg7
S" they'd hang out with you "
p4939
sg9
Vmilton-from-office-space
p4940
sg11
(lp4941
g4933
ag4934
ag4935
ag4936
ag4937
aS'they'
p4942
aS"'d"
p4943
aS'hang'
p4944
aS'out'
p4945
aS'with'
p4946
aS'you'
p4947
asg20
(lp4948
g4942
ag4943
ag4944
ag4945
ag4946
ag4947
asba(iMeme
Meme
p4949
(dp4950
g3
(lp4951
S'where'
p4952
aS'are'
p4953
aS'my'
p4954
aS'donuts'
p4955
asg5
S'where are my donuts '
p4956
sg7
S' did you eat them '
p4957
sg9
Vmilton-from-office-space
p4958
sg11
(lp4959
g4952
ag4953
ag4954
ag4955
aS'did'
p4960
aS'you'
p4961
aS'eat'
p4962
aS'them'
p4963
asg20
(lp4964
g4960
ag4961
ag4962
ag4963
asba(iMeme
Meme
p4965
(dp4966
g3
(lp4967
g13
aS'was'
p4968
aS'told'
p4969
asg5
S'I was told '
p4970
sg7
S' there would be no rules '
p4971
sg9
Vmilton-from-office-space
p4972
sg11
(lp4973
g13
ag4968
ag4969
aS'there'
p4974
aS'would'
p4975
aS'be'
p4976
aS'no'
p4977
aS'rules'
p4978
asg20
(lp4979
g4974
ag4975
ag4976
ag4977
ag4978
asba(iMeme
Meme
p4980
(dp4981
g3
(lp4982
S'Dudes'
p4983
aS'get'
p4984
aS'caught'
p4985
aS'and'
p4986
aS'be'
p4987
aS'like'
p4988
asg5
S'Dudes get caught and be like  '
p4989
sg7
S" WHAT? She text me first, I only save the number so I won't text her back "
p4990
sg9
Vmilton-from-office-space
p4991
sg11
(lp4992
g4983
ag4984
ag4985
ag4986
ag4987
ag4988
aS'WHAT'
p4993
ag288
aS'She'
p4994
aS'text'
p4995
aS'me'
p4996
aS'first'
p4997
ag612
ag13
aS'only'
p4998
aS'save'
p4999
aS'the'
p5000
aS'number'
p5001
aS'so'
p5002
ag13
aS'wo'
p5003
aS"n't"
p5004
aS'text'
p5005
aS'her'
p5006
aS'back'
p5007
asg20
(lp5008
g4993
ag288
ag4994
ag4995
ag4996
ag4997
ag612
ag13
ag4998
ag4999
ag5000
ag5001
ag5002
ag13
ag5003
ag5004
ag5005
ag5006
ag5007
asba(iMeme
Meme
p5009
(dp5010
g3
(lp5011
S'You'
p5012
aS'said'
p5013
aS'id'
p5014
aS'be'
p5015
aS'promised'
p5016
ag62
aS'date'
p5017
aS'if'
p5018
ag29
aS'bought'
p5019
aS'you'
p5020
aS'worlds'
p5021
aS'tickets'
p5022
ag56
asg5
S'You said id be promised a date if i bought you worlds tickets. '
p5023
sg7
S' Is that still an option since i read you are picking seats for 8 others? '
p5024
sg9
Vmilton-from-office-space
p5025
sg11
(lp5026
g5012
ag5013
ag5014
ag5015
ag5016
ag62
ag5017
ag5018
ag29
ag5019
ag5020
ag5021
ag5022
ag56
aS'Is'
p5027
aS'that'
p5028
aS'still'
p5029
aS'an'
p5030
aS'option'
p5031
aS'since'
p5032
ag29
aS'read'
p5033
aS'you'
p5034
aS'are'
p5035
aS'picking'
p5036
aS'seats'
p5037
aS'for'
p5038
aS'8'
p5039
aS'others'
p5040
ag288
asg20
(lp5041
g5027
ag5028
ag5029
ag5030
ag5031
ag5032
ag29
ag5033
ag5034
ag5035
ag5036
ag5037
ag5038
ag5039
ag5040
ag288
asba(iMeme
Meme
p5042
(dp5043
g3
(lp5044
g13
aS'was'
p5045
aS'told'
p5046
aS'there'
p5047
aS'would'
p5048
aS'be'
p5049
asg5
S'I was told there would be '
p5050
sg7
S' Ice Cream Cake '
p5051
sg9
Vmilton-from-office-space
p5052
sg11
(lp5053
g13
ag5045
ag5046
ag5047
ag5048
ag5049
aS'Ice'
p5054
aS'Cream'
p5055
aS'Cake'
p5056
asg20
(lp5057
g5054
ag5055
ag5056
asba(iMeme
Meme
p5058
(dp5059
g3
(lp5060
sg5
S' '
p5061
sg7
S' I was told that there would be karma '
p5062
sg9
Vmilton-from-office-space
p5063
sg11
(lp5064
g13
aS'was'
p5065
aS'told'
p5066
aS'that'
p5067
aS'there'
p5068
aS'would'
p5069
aS'be'
p5070
aS'karma'
p5071
asg20
(lp5072
g13
ag5065
ag5066
ag5067
ag5068
ag5069
ag5070
ag5071
asba(iMeme
Meme
p5073
(dp5074
g3
(lp5075
S'If'
p5076
ag29
aS'dont'
p5077
aS'get'
p5078
aS'autosynth'
p5079
aS'to'
p5080
aS'stop'
p5081
aS'running'
p5082
aS'...'
p5083
asg5
S'If i dont get autosynth to stop running... '
p5084
sg7
S' ...im going to burn the place down '
p5085
sg9
Vmilton-from-office-space
p5086
sg11
(lp5087
g5076
ag29
ag5077
ag5078
ag5079
ag5080
ag5081
ag5082
ag5083
aS'...'
p5088
aS'im'
p5089
aS'going'
p5090
aS'to'
p5091
aS'burn'
p5092
aS'the'
p5093
aS'place'
p5094
aS'down'
p5095
asg20
(lp5096
g5088
ag5089
ag5090
ag5091
ag5092
ag5093
ag5094
ag5095
asba(iMeme
Meme
p5097
(dp5098
g3
(lp5099
S'Do'
p5100
aS"n't"
p5101
aS'touch'
p5102
aS'my'
p5103
aS'red'
p5104
aS'stapler'
p5105
asg5
S"Don't touch my red stapler  "
p5106
sg7
S' Or I will kill you '
p5107
sg9
Vmilton-from-office-space
p5108
sg11
(lp5109
g5100
ag5101
ag5102
ag5103
ag5104
ag5105
aS'Or'
p5110
ag13
aS'will'
p5111
aS'kill'
p5112
aS'you'
p5113
asg20
(lp5114
g5110
ag13
ag5111
ag5112
ag5113
asba(iMeme
Meme
p5115
(dp5116
g3
(lp5117
sg5
S' '
p5118
sg7
S' I was told there would be Dungeons. '
p5119
sg9
Vmilton-from-office-space
p5120
sg11
(lp5121
g13
aS'was'
p5122
aS'told'
p5123
aS'there'
p5124
aS'would'
p5125
aS'be'
p5126
aS'Dungeons'
p5127
ag56
asg20
(lp5128
g13
ag5122
ag5123
ag5124
ag5125
ag5126
ag5127
ag56
asba(iMeme
Meme
p5129
(dp5130
g3
(lp5131
sg5
S' '
p5132
sg7
S" I was told there would be posts i wouldn't understand "
p5133
sg9
Vmilton-from-office-space
p5134
sg11
(lp5135
g13
aS'was'
p5136
aS'told'
p5137
aS'there'
p5138
aS'would'
p5139
aS'be'
p5140
aS'posts'
p5141
ag29
aS'would'
p5142
aS"n't"
p5143
aS'understand'
p5144
asg20
(lp5145
g13
ag5136
ag5137
ag5138
ag5139
ag5140
ag5141
ag29
ag5142
ag5143
ag5144
asba(iMeme
Meme
p5146
(dp5147
g3
(lp5148
S'That'
p5149
aS'kevin'
p5150
aS'james'
p5151
aS'guy'
p5152
aS'took'
p5153
aS'my'
p5154
aS'part'
p5155
ag843
asg5
S'That kevin james guy took my part! '
p5156
sg7
S' i am the real mall cop! '
p5157
sg9
Vmilton-from-office-space
p5158
sg11
(lp5159
g5149
ag5150
ag5151
ag5152
ag5153
ag5154
ag5155
ag843
ag29
aS'am'
p5160
aS'the'
p5161
aS'real'
p5162
aS'mall'
p5163
aS'cop'
p5164
ag843
asg20
(lp5165
g29
ag5160
ag5161
ag5162
ag5163
ag5164
ag843
asba(iMeme
Meme
p5166
(dp5167
g3
(lp5168
sg5
S' '
p5169
sg7
S' Me dijeron que en ORO no habra mas noobs o trolls '
p5170
sg9
Vmilton-from-office-space
p5171
sg11
(lp5172
S'Me'
p5173
aS'dijeron'
p5174
aS'que'
p5175
aS'en'
p5176
aS'ORO'
p5177
aS'no'
p5178
aS'habra'
p5179
aS'mas'
p5180
aS'noobs'
p5181
aS'o'
p5182
aS'trolls'
p5183
asg20
(lp5184
g5173
ag5174
ag5175
ag5176
ag5177
ag5178
ag5179
ag5180
ag5181
ag5182
ag5183
asba(iMeme
Meme
p5185
(dp5186
g3
(lp5187
sg5
S' '
p5188
sg7
S" I was told there would be posts i wouldn't understand "
p5189
sg9
Vmilton-from-office-space
p5190
sg11
(lp5191
g13
aS'was'
p5192
aS'told'
p5193
aS'there'
p5194
aS'would'
p5195
aS'be'
p5196
aS'posts'
p5197
ag29
aS'would'
p5198
aS"n't"
p5199
aS'understand'
p5200
asg20
(lp5201
g13
ag5192
ag5193
ag5194
ag5195
ag5196
ag5197
ag29
ag5198
ag5199
ag5200
asba(iMeme
Meme
p5202
(dp5203
g3
(lp5204
S'This'
p5205
aS'is'
p5206
aS'Matt'
p5207
aS'Stephens'
p5208
ag56
aS'He'
p5209
aS'thinks'
p5210
aS'he'
p5211
aS'works'
p5212
aS'at'
p5213
aS'Jackson'
p5214
aS'paper'
p5215
ag56
asg5
S'This is Matt Stephens. He thinks he works at Jackson paper. '
p5216
sg7
S" Actually he plays on Facebook and the interNet all day and doesn't get shit done. "
p5217
sg9
Vmilton-from-office-space
p5218
sg11
(lp5219
g5205
ag5206
ag5207
ag5208
ag56
ag5209
ag5210
ag5211
ag5212
ag5213
ag5214
ag5215
ag56
aS'Actually'
p5220
aS'he'
p5221
aS'plays'
p5222
aS'on'
p5223
aS'Facebook'
p5224
aS'and'
p5225
aS'the'
p5226
aS'interNet'
p5227
aS'all'
p5228
aS'day'
p5229
aS'and'
p5230
aS'does'
p5231
aS"n't"
p5232
aS'get'
p5233
aS'shit'
p5234
aS'done'
p5235
ag56
asg20
(lp5236
g5220
ag5221
ag5222
ag5223
ag5224
ag5225
ag5226
ag5227
ag5228
ag5229
ag5230
ag5231
ag5232
ag5233
ag5234
ag5235
ag56
asba(iMeme
Meme
p5237
(dp5238
g3
(lp5239
sg5
S' '
p5240
sg7
S' I was told this bubble would be different and perpetual? '
p5241
sg9
Vmilton-from-office-space
p5242
sg11
(lp5243
g13
aS'was'
p5244
aS'told'
p5245
aS'this'
p5246
aS'bubble'
p5247
aS'would'
p5248
aS'be'
p5249
aS'different'
p5250
aS'and'
p5251
aS'perpetual'
p5252
ag288
asg20
(lp5253
g13
ag5244
ag5245
ag5246
ag5247
ag5248
ag5249
ag5250
ag5251
ag5252
ag288
asba(iMeme
Meme
p5254
(dp5255
g3
(lp5256
S'What'
p5257
aS'do'
p5258
aS'you'
p5259
aS'mean'
p5260
aS'they'
p5261
aS'are'
p5262
aS'friendly'
p5263
ag288
asg5
S'What do you mean they are friendly? '
p5264
sg7
S' I was told I could make fun of overlord '
p5265
sg9
Vmilton-from-office-space
p5266
sg11
(lp5267
g5257
ag5258
ag5259
ag5260
ag5261
ag5262
ag5263
ag288
ag13
aS'was'
p5268
aS'told'
p5269
ag13
aS'could'
p5270
aS'make'
p5271
aS'fun'
p5272
aS'of'
p5273
aS'overlord'
p5274
asg20
(lp5275
g13
ag5268
ag5269
ag13
ag5270
ag5271
ag5272
ag5273
ag5274
asba(iMeme
Meme
p5276
(dp5277
g3
(lp5278
S'Excuse'
p5279
aS'me'
p5280
asg5
S'Excuse me '
p5281
sg7
S' I was told there would be tool paths '
p5282
sg9
Vmilton-from-office-space
p5283
sg11
(lp5284
g5279
ag5280
ag13
aS'was'
p5285
aS'told'
p5286
aS'there'
p5287
aS'would'
p5288
aS'be'
p5289
aS'tool'
p5290
aS'paths'
p5291
asg20
(lp5292
g13
ag5285
ag5286
ag5287
ag5288
ag5289
ag5290
ag5291
asba(iMeme
Meme
p5293
(dp5294
g3
(lp5295
sg5
S' '
p5296
sg7
S' i was told there would be vampires '
p5297
sg9
Vmilton-from-office-space
p5298
sg11
(lp5299
g29
aS'was'
p5300
aS'told'
p5301
aS'there'
p5302
aS'would'
p5303
aS'be'
p5304
aS'vampires'
p5305
asg20
(lp5306
g29
ag5300
ag5301
ag5302
ag5303
ag5304
ag5305
asba(iMeme
Meme
p5307
(dp5308
g3
(lp5309
S'Artorias'
p5310
aS'('
p5311
aS'tECH'
p5312
aS'mod'
p5313
ag1757
asg5
S'Artorias ( tECH mod ) '
p5314
sg7
S' "how do i put it in windowed mode? '
p5315
sg9
Vmilton-from-office-space
p5316
sg11
(lp5317
g5310
ag5311
ag5312
ag5313
ag1757
aS'``'
p5318
aS'how'
p5319
aS'do'
p5320
ag29
aS'put'
p5321
aS'it'
p5322
aS'in'
p5323
aS'windowed'
p5324
aS'mode'
p5325
ag288
asg20
(lp5326
g5318
ag5319
ag5320
ag29
ag5321
ag5322
ag5323
ag5324
ag5325
ag288
asba(iMeme
Meme
p5327
(dp5328
g3
(lp5329
g13
aS'was'
p5330
aS'Told'
p5331
asg5
S'I was Told '
p5332
sg7
S' There would be Karma '
p5333
sg9
Vmilton-from-office-space
p5334
sg11
(lp5335
g13
ag5330
ag5331
aS'There'
p5336
aS'would'
p5337
aS'be'
p5338
aS'Karma'
p5339
asg20
(lp5340
g5336
ag5337
ag5338
ag5339
asba(iMeme
Meme
p5341
(dp5342
g3
(lp5343
sg5
S' '
p5344
sg7
S' I was told there would be ada REFRACTORS '
p5345
sg9
Vmilton-from-office-space
p5346
sg11
(lp5347
g13
aS'was'
p5348
aS'told'
p5349
aS'there'
p5350
aS'would'
p5351
aS'be'
p5352
aS'ada'
p5353
aS'REFRACTORS'
p5354
asg20
(lp5355
g13
ag5348
ag5349
ag5350
ag5351
ag5352
ag5353
ag5354
asba(iMeme
Meme
p5356
(dp5357
g3
(lp5358
sg5
S' '
p5359
sg7
S' I was told there would be race riots '
p5360
sg9
Vmilton-from-office-space
p5361
sg11
(lp5362
g13
aS'was'
p5363
aS'told'
p5364
aS'there'
p5365
aS'would'
p5366
aS'be'
p5367
aS'race'
p5368
aS'riots'
p5369
asg20
(lp5370
g13
ag5363
ag5364
ag5365
ag5366
ag5367
ag5368
ag5369
asba(iMeme
Meme
p5371
(dp5372
g3
(lp5373
sg5
S' '
p5374
sg7
S'  i was told there would be CAPITALISM here. '
p5375
sg9
Vmilton-from-office-space
p5376
sg11
(lp5377
g29
aS'was'
p5378
aS'told'
p5379
aS'there'
p5380
aS'would'
p5381
aS'be'
p5382
aS'CAPITALISM'
p5383
aS'here'
p5384
ag56
asg20
(lp5385
g29
ag5378
ag5379
ag5380
ag5381
ag5382
ag5383
ag5384
ag56
asba(iMeme
Meme
p5386
(dp5387
g3
(lp5388
sg5
S' '
p5389
sg7
S' i was told there would be costumes '
p5390
sg9
Vmilton-from-office-space
p5391
sg11
(lp5392
g29
aS'was'
p5393
aS'told'
p5394
aS'there'
p5395
aS'would'
p5396
aS'be'
p5397
aS'costumes'
p5398
asg20
(lp5399
g29
ag5393
ag5394
ag5395
ag5396
ag5397
ag5398
asba(iMeme
Meme
p5400
(dp5401
g3
(lp5402
sg5
S' '
p5403
sg7
S' i was told there would be #moundball '
p5404
sg9
Vmilton-from-office-space
p5405
sg11
(lp5406
g29
aS'was'
p5407
aS'told'
p5408
aS'there'
p5409
aS'would'
p5410
aS'be'
p5411
ag4264
aS'moundball'
p5412
asg20
(lp5413
g29
ag5407
ag5408
ag5409
ag5410
ag5411
ag4264
ag5412
asba(iMeme
Meme
p5414
(dp5415
g3
(lp5416
sg5
S' '
p5417
sg7
S' I was told there would be comments '
p5418
sg9
Vmilton-from-office-space
p5419
sg11
(lp5420
g13
aS'was'
p5421
aS'told'
p5422
aS'there'
p5423
aS'would'
p5424
aS'be'
p5425
aS'comments'
p5426
asg20
(lp5427
g13
ag5421
ag5422
ag5423
ag5424
ag5425
ag5426
asba(iMeme
Meme
p5428
(dp5429
g3
(lp5430
sg5
S' '
p5431
sg7
S' I was told therE would be karma '
p5432
sg9
Vmilton-from-office-space
p5433
sg11
(lp5434
g13
aS'was'
p5435
aS'told'
p5436
aS'therE'
p5437
aS'would'
p5438
aS'be'
p5439
aS'karma'
p5440
asg20
(lp5441
g13
ag5435
ag5436
ag5437
ag5438
ag5439
ag5440
asba(iMeme
Meme
p5442
(dp5443
g3
(lp5444
S'Um'
p5445
aS'Excuse'
p5446
aS'me'
p5447
aS'...'
p5448
ag56
asg5
S'Um Excuse me.... '
p5449
sg7
S' Tiona belongs to orion house... '
p5450
sg9
Vmilton-from-office-space
p5451
sg11
(lp5452
g5445
ag5446
ag5447
ag5448
ag56
aS'Tiona'
p5453
aS'belongs'
p5454
aS'to'
p5455
aS'orion'
p5456
aS'house'
p5457
aS'...'
p5458
asg20
(lp5459
g5453
ag5454
ag5455
ag5456
ag5457
ag5458
asba(iMeme
Meme
p5460
(dp5461
g3
(lp5462
sg5
S' '
p5463
sg7
S' i was told there would be frees slurpees '
p5464
sg9
Vmilton-from-office-space
p5465
sg11
(lp5466
g29
aS'was'
p5467
aS'told'
p5468
aS'there'
p5469
aS'would'
p5470
aS'be'
p5471
aS'frees'
p5472
aS'slurpees'
p5473
asg20
(lp5474
g29
ag5467
ag5468
ag5469
ag5470
ag5471
ag5472
ag5473
asba(iMeme
Meme
p5475
(dp5476
g3
(lp5477
g13
aS'was'
p5478
aS'told'
p5479
ag13
aS'could'
p5480
aS'listen'
p5481
aS'to'
p5482
aS'my'
p5483
aS'rob'
p5484
aS'bell'
p5485
aS'podcast'
p5486
aS'at'
p5487
ag62
aS'reasonable'
p5488
aS'level'
p5489
asg5
S'I was told I could listen to my rob bell podcast at a reasonable level '
p5490
sg7
S' While everyone else works on theIr projects '
p5491
sg9
Vmilton-from-office-space
p5492
sg11
(lp5493
g13
ag5478
ag5479
ag13
ag5480
ag5481
ag5482
ag5483
ag5484
ag5485
ag5486
ag5487
ag62
ag5488
ag5489
aS'While'
p5494
aS'everyone'
p5495
aS'else'
p5496
aS'works'
p5497
aS'on'
p5498
aS'theIr'
p5499
aS'projects'
p5500
asg20
(lp5501
g5494
ag5495
ag5496
ag5497
ag5498
ag5499
ag5500
asba(iMeme
Meme
p5502
(dp5503
g3
(lp5504
g13
aS'was'
p5505
aS'told'
p5506
aS'there'
p5507
aS'would'
p5508
aS'be'
p5509
asg5
S'I was told there would be '
p5510
sg7
S' drunken wwf '
p5511
sg9
Vmilton-from-office-space
p5512
sg11
(lp5513
g13
ag5505
ag5506
ag5507
ag5508
ag5509
aS'drunken'
p5514
aS'wwf'
p5515
asg20
(lp5516
g5514
ag5515
asba(iMeme
Meme
p5517
(dp5518
g3
(lp5519
sg5
S' '
p5520
sg7
S' I Was told there would be Some Franking Later '
p5521
sg9
Vmilton-from-office-space
p5522
sg11
(lp5523
g13
aS'Was'
p5524
aS'told'
p5525
aS'there'
p5526
aS'would'
p5527
aS'be'
p5528
aS'Some'
p5529
aS'Franking'
p5530
aS'Later'
p5531
asg20
(lp5532
g13
ag5524
ag5525
ag5526
ag5527
ag5528
ag5529
ag5530
ag5531
asba(iMeme
Meme
p5533
(dp5534
g3
(lp5535
S'As'
p5536
ag62
aS'guy'
p5537
aS'that'
p5538
aS'went'
p5539
aS'to'
p5540
aS'the'
p5541
aS'gym'
p5542
aS'mid'
p5543
asg5
S'As a guy that went to the gym mid'
p5544
sg7
S'morning on a weekday... '
p5545
sg9
Vmilton-from-office-space
p5546
sg11
(lp5547
g5536
ag62
ag5537
ag5538
ag5539
ag5540
ag5541
ag5542
ag5543
aS'morning'
p5548
aS'on'
p5549
ag62
aS'weekday'
p5550
aS'...'
p5551
asg20
(lp5552
g5548
ag5549
ag62
ag5550
ag5551
asba(iMeme
Meme
p5553
(dp5554
g3
(lp5555
sg5
S' '
p5556
sg7
S' I was told there would be friends and sex '
p5557
sg9
Vmilton-from-office-space
p5558
sg11
(lp5559
g13
aS'was'
p5560
aS'told'
p5561
aS'there'
p5562
aS'would'
p5563
aS'be'
p5564
aS'friends'
p5565
aS'and'
p5566
aS'sex'
p5567
asg20
(lp5568
g13
ag5560
ag5561
ag5562
ag5563
ag5564
ag5565
ag5566
ag5567
asba(iMeme
Meme
p5569
(dp5570
g3
(lp5571
sg5
S' '
p5572
sg7
S' I was told there would be pie '
p5573
sg9
Vmilton-from-office-space
p5574
sg11
(lp5575
g13
aS'was'
p5576
aS'told'
p5577
aS'there'
p5578
aS'would'
p5579
aS'be'
p5580
aS'pie'
p5581
asg20
(lp5582
g13
ag5576
ag5577
ag5578
ag5579
ag5580
ag5581
asba(iMeme
Meme
p5583
(dp5584
g3
(lp5585
sg5
S' '
p5586
sg7
S' I was told there would be shirtless dancing pics '
p5587
sg9
Vmilton-from-office-space
p5588
sg11
(lp5589
g13
aS'was'
p5590
aS'told'
p5591
aS'there'
p5592
aS'would'
p5593
aS'be'
p5594
aS'shirtless'
p5595
aS'dancing'
p5596
aS'pics'
p5597
asg20
(lp5598
g13
ag5590
ag5591
ag5592
ag5593
ag5594
ag5595
ag5596
ag5597
asba(iMeme
Meme
p5599
(dp5600
g3
(lp5601
S'im'
p5602
aS'paddy'
p5603
aS'mone'
p5604
asg5
S'im paddy mone '
p5605
sg7
S' and im skinny '
p5606
sg9
Vmilton-from-office-space
p5607
sg11
(lp5608
g5602
ag5603
ag5604
aS'and'
p5609
aS'im'
p5610
aS'skinny'
p5611
asg20
(lp5612
g5609
ag5610
ag5611
asba(iMeme
Meme
p5613
(dp5614
g3
(lp5615
sg5
S' '
p5616
sg7
S' i was told THERe would be food '
p5617
sg9
Vmilton-from-office-space
p5618
sg11
(lp5619
g29
aS'was'
p5620
aS'told'
p5621
aS'THERe'
p5622
aS'would'
p5623
aS'be'
p5624
aS'food'
p5625
asg20
(lp5626
g29
ag5620
ag5621
ag5622
ag5623
ag5624
ag5625
asba(iMeme
Meme
p5627
(dp5628
g3
(lp5629
g13
aS'was'
p5630
aS'told'
p5631
asg5
S'I was told '
p5632
sg7
S' When AML finished there would be less work '
p5633
sg9
Vmilton-from-office-space
p5634
sg11
(lp5635
g13
ag5630
ag5631
aS'When'
p5636
aS'AML'
p5637
aS'finished'
p5638
aS'there'
p5639
aS'would'
p5640
aS'be'
p5641
aS'less'
p5642
aS'work'
p5643
asg20
(lp5644
g5636
ag5637
ag5638
ag5639
ag5640
ag5641
ag5642
ag5643
asba(iMeme
Meme
p5645
(dp5646
g3
(lp5647
S'when'
p5648
aS'michael'
p5649
aS'gets'
p5650
aS'when'
p5651
asg5
S'when michael gets when '
p5652
sg7
S" he can't grab jacob's dick "
p5653
sg9
Vmilton-from-office-space
p5654
sg11
(lp5655
g5648
ag5649
ag5650
ag5651
aS'he'
p5656
aS'ca'
p5657
aS"n't"
p5658
aS'grab'
p5659
aS'jacob'
p5660
aS"'s"
p5661
aS'dick'
p5662
asg20
(lp5663
g5656
ag5657
ag5658
ag5659
ag5660
ag5661
ag5662
asba(iMeme
Meme
p5664
(dp5665
g3
(lp5666
sg5
S' '
p5667
sg7
S' I was told there would be jailbait '
p5668
sg9
Vmilton-from-office-space
p5669
sg11
(lp5670
g13
aS'was'
p5671
aS'told'
p5672
aS'there'
p5673
aS'would'
p5674
aS'be'
p5675
aS'jailbait'
p5676
asg20
(lp5677
g13
ag5671
ag5672
ag5673
ag5674
ag5675
ag5676
asba(iMeme
Meme
p5678
(dp5679
g3
(lp5680
g13
aS'was'
p5681
aS'told'
p5682
aS'there'
p5683
asg5
S'I was told there '
p5684
sg7
S' would be gaming '
p5685
sg9
Vmilton-from-office-space
p5686
sg11
(lp5687
g13
ag5681
ag5682
ag5683
aS'would'
p5688
aS'be'
p5689
aS'gaming'
p5690
asg20
(lp5691
g5688
ag5689
ag5690
asba(iMeme
Meme
p5692
(dp5693
g3
(lp5694
g13
aS'was'
p5695
aS'told'
p5696
aS'there'
p5697
aS'would'
p5698
aS'be'
p5699
aS'donuts'
p5700
aS'today'
p5701
aS'in'
p5702
aS'the'
p5703
aS'office'
p5704
asg5
S'I was told there would be donuts today in the office '
p5705
sg7
S' I have been lied to '
p5706
sg9
Vmilton-from-office-space
p5707
sg11
(lp5708
g13
ag5695
ag5696
ag5697
ag5698
ag5699
ag5700
ag5701
ag5702
ag5703
ag5704
ag13
aS'have'
p5709
aS'been'
p5710
aS'lied'
p5711
aS'to'
p5712
asg20
(lp5713
g13
ag5709
ag5710
ag5711
ag5712
asba(iMeme
Meme
p5714
(dp5715
g3
(lp5716
sg5
S' '
p5717
sg7
S' I was Told there would be women '
p5718
sg9
Vmilton-from-office-space
p5719
sg11
(lp5720
g13
aS'was'
p5721
aS'Told'
p5722
aS'there'
p5723
aS'would'
p5724
aS'be'
p5725
aS'women'
p5726
asg20
(lp5727
g13
ag5721
ag5722
ag5723
ag5724
ag5725
ag5726
asba(iMeme
Meme
p5728
(dp5729
g3
(lp5730
S'what'
p5731
aS"'s"
p5732
aS'with'
p5733
aS'all'
p5734
aS'the'
p5735
aS'``'
p5736
aS'silly'
p5737
aS"''"
p5738
aS'memes'
p5739
ag288
asg5
S'what\'s with all the "silly" memes? '
p5740
sg7
S" i don't get it "
p5741
sg9
Vmilton-from-office-space
p5742
sg11
(lp5743
g5731
ag5732
ag5733
ag5734
ag5735
ag5736
ag5737
ag5738
ag5739
ag288
ag29
aS'do'
p5744
aS"n't"
p5745
aS'get'
p5746
aS'it'
p5747
asg20
(lp5748
g29
ag5744
ag5745
ag5746
ag5747
asba(iMeme
Meme
p5749
(dp5750
g3
(lp5751
g13
aS'was'
p5752
aS'told'
p5753
aS'there'
p5754
aS'would'
p5755
aS'be'
p5756
aS'honesty'
p5757
aS'and'
p5758
aS'accountability'
p5759
aS'...'
p5760
asg5
S'I was told there would be honesty and accountability...  '
p5761
sg7
S' Thats the last straw... '
p5762
sg9
Vmilton-from-office-space
p5763
sg11
(lp5764
g13
ag5752
ag5753
ag5754
ag5755
ag5756
ag5757
ag5758
ag5759
ag5760
aS'Thats'
p5765
aS'the'
p5766
aS'last'
p5767
aS'straw'
p5768
aS'...'
p5769
asg20
(lp5770
g5765
ag5766
ag5767
ag5768
ag5769
asba(iMeme
Meme
p5771
(dp5772
g3
(lp5773
sg5
S' '
p5774
sg7
S' I was told there would be a new laptop '
p5775
sg9
Vmilton-from-office-space
p5776
sg11
(lp5777
g13
aS'was'
p5778
aS'told'
p5779
aS'there'
p5780
aS'would'
p5781
aS'be'
p5782
ag62
aS'new'
p5783
aS'laptop'
p5784
asg20
(lp5785
g13
ag5778
ag5779
ag5780
ag5781
ag5782
ag62
ag5783
ag5784
asba(iMeme
Meme
p5786
(dp5787
g3
(lp5788
S'wie'
p5789
aS'de'
p5790
aS'fok'
p5791
asg5
S'wie de fok  '
p5792
sg7
S' is marnu '
p5793
sg9
Vmilton-from-office-space
p5794
sg11
(lp5795
g5789
ag5790
ag5791
aS'is'
p5796
aS'marnu'
p5797
asg20
(lp5798
g5796
ag5797
asba(iMeme
Meme
p5799
(dp5800
g3
(lp5801
sg5
S' '
p5802
sg7
S' I was told there would be internet points '
p5803
sg9
Vmilton-from-office-space
p5804
sg11
(lp5805
g13
aS'was'
p5806
aS'told'
p5807
aS'there'
p5808
aS'would'
p5809
aS'be'
p5810
aS'internet'
p5811
aS'points'
p5812
asg20
(lp5813
g13
ag5806
ag5807
ag5808
ag5809
ag5810
ag5811
ag5812
asba(iMeme
Meme
p5814
(dp5815
g3
(lp5816
S'This'
p5817
aS'is'
p5818
aS'maTt'
p5819
aS'stephens'
p5820
asg5
S'This is maTt stephens '
p5821
sg7
S" He doesn't do shit at work, Except play on Facebook and the Internet all day at work. "
p5822
sg9
Vmilton-from-office-space
p5823
sg11
(lp5824
g5817
ag5818
ag5819
ag5820
aS'He'
p5825
aS'does'
p5826
aS"n't"
p5827
aS'do'
p5828
aS'shit'
p5829
aS'at'
p5830
aS'work'
p5831
ag612
aS'Except'
p5832
aS'play'
p5833
aS'on'
p5834
aS'Facebook'
p5835
aS'and'
p5836
aS'the'
p5837
aS'Internet'
p5838
aS'all'
p5839
aS'day'
p5840
aS'at'
p5841
aS'work'
p5842
ag56
asg20
(lp5843
g5825
ag5826
ag5827
ag5828
ag5829
ag5830
ag5831
ag612
ag5832
ag5833
ag5834
ag5835
ag5836
ag5837
ag5838
ag5839
ag5840
ag5841
ag5842
ag56
asba(iMeme
Meme
p5844
(dp5845
g3
(lp5846
sg5
S' '
p5847
sg7
S' I was told there would be pictures '
p5848
sg9
Vmilton-from-office-space
p5849
sg11
(lp5850
g13
aS'was'
p5851
aS'told'
p5852
aS'there'
p5853
aS'would'
p5854
aS'be'
p5855
aS'pictures'
p5856
asg20
(lp5857
g13
ag5851
ag5852
ag5853
ag5854
ag5855
ag5856
asba(iMeme
Meme
p5858
(dp5859
g3
(lp5860
sg5
S' '
p5861
sg7
S' I was told there would be Lazy Beds '
p5862
sg9
Vmilton-from-office-space
p5863
sg11
(lp5864
g13
aS'was'
p5865
aS'told'
p5866
aS'there'
p5867
aS'would'
p5868
aS'be'
p5869
aS'Lazy'
p5870
aS'Beds'
p5871
asg20
(lp5872
g13
ag5865
ag5866
ag5867
ag5868
ag5869
ag5870
ag5871
asba(iMeme
Meme
p5873
(dp5874
g3
(lp5875
S'Excuse'
p5876
aS'me'
p5877
asg5
S'Excuse me '
p5878
sg7
S' I was told we would discuss family portal APIs '
p5879
sg9
Vmilton-from-office-space
p5880
sg11
(lp5881
g5876
ag5877
ag13
aS'was'
p5882
aS'told'
p5883
aS'we'
p5884
aS'would'
p5885
aS'discuss'
p5886
aS'family'
p5887
aS'portal'
p5888
aS'APIs'
p5889
asg20
(lp5890
g13
ag5882
ag5883
ag5884
ag5885
ag5886
ag5887
ag5888
ag5889
asba(iMeme
Meme
p5891
(dp5892
g3
(lp5893
sg5
S' '
p5894
sg7
S" I was told there'd be goals "
p5895
sg9
Vmilton-from-office-space
p5896
sg11
(lp5897
g13
aS'was'
p5898
aS'told'
p5899
aS'there'
p5900
aS"'d"
p5901
aS'be'
p5902
aS'goals'
p5903
asg20
(lp5904
g13
ag5898
ag5899
ag5900
ag5901
ag5902
ag5903
asba(iMeme
Meme
p5905
(dp5906
g3
(lp5907
S'Excuse'
p5908
aS'me'
p5909
asg5
S'Excuse me '
p5910
sg7
S' I was told there would be costco runs on the 1st and 15th of the month '
p5911
sg9
Vmilton-from-office-space
p5912
sg11
(lp5913
g5908
ag5909
ag13
aS'was'
p5914
aS'told'
p5915
aS'there'
p5916
aS'would'
p5917
aS'be'
p5918
aS'costco'
p5919
aS'runs'
p5920
aS'on'
p5921
aS'the'
p5922
aS'1st'
p5923
aS'and'
p5924
aS'15th'
p5925
aS'of'
p5926
aS'the'
p5927
aS'month'
p5928
asg20
(lp5929
g13
ag5914
ag5915
ag5916
ag5917
ag5918
ag5919
ag5920
ag5921
ag5922
ag5923
ag5924
ag5925
ag5926
ag5927
ag5928
asba(iMeme
Meme
p5930
(dp5931
g3
(lp5932
S'excuse'
p5933
aS'me'
p5934
asg5
S'excuse me '
p5935
sg7
S' I was told there would be race riots '
p5936
sg9
Vmilton-from-office-space
p5937
sg11
(lp5938
g5933
ag5934
ag13
aS'was'
p5939
aS'told'
p5940
aS'there'
p5941
aS'would'
p5942
aS'be'
p5943
aS'race'
p5944
aS'riots'
p5945
asg20
(lp5946
g13
ag5939
ag5940
ag5941
ag5942
ag5943
ag5944
ag5945
asba(iMeme
Meme
p5947
(dp5948
g3
(lp5949
S'My'
p5950
aS'Chair'
p5951
asg5
S'My Chair '
p5952
sg7
S' I believe you Have it '
p5953
sg9
Vmilton-from-office-space
p5954
sg11
(lp5955
g5950
ag5951
ag13
aS'believe'
p5956
aS'you'
p5957
aS'Have'
p5958
aS'it'
p5959
asg20
(lp5960
g13
ag5956
ag5957
ag5958
ag5959
asba(iMeme
Meme
p5961
(dp5962
g3
(lp5963
sg5
S' '
p5964
sg7
S' I was told there would be free karma '
p5965
sg9
Vmilton-from-office-space
p5966
sg11
(lp5967
g13
aS'was'
p5968
aS'told'
p5969
aS'there'
p5970
aS'would'
p5971
aS'be'
p5972
aS'free'
p5973
aS'karma'
p5974
asg20
(lp5975
g13
ag5968
ag5969
ag5970
ag5971
ag5972
ag5973
ag5974
asba(iMeme
Meme
p5976
(dp5977
g3
(lp5978
S'So'
p5979
aS'it'
p5980
aS'turns'
p5981
aS'Out'
p5982
aS'there'
p5983
aS"'s"
p5984
ag62
aS'department'
p5985
aS'of'
p5986
aS'these'
p5987
aS'guys'
p5988
asg5
S"So it turns Out there's a department of these guys "
p5989
sg7
S' And they found out how to "dot com" '
p5990
sg9
Vmilton-from-office-space
p5991
sg11
(lp5992
g5979
ag5980
ag5981
ag5982
ag5983
ag5984
ag62
ag5985
ag5986
ag5987
ag5988
aS'And'
p5993
aS'they'
p5994
aS'found'
p5995
aS'out'
p5996
aS'how'
p5997
aS'to'
p5998
aS'``'
p5999
aS'dot'
p6000
aS'com'
p6001
aS"''"
p6002
asg20
(lp6003
g5993
ag5994
ag5995
ag5996
ag5997
ag5998
ag5999
ag6000
ag6001
ag6002
asba(iMeme
Meme
p6004
(dp6005
g3
(lp6006
g13
aS'was'
p6007
aS'told'
p6008
aS'there'
p6009
asg5
S'I was told there '
p6010
sg7
S' would be liberty '
p6011
sg9
Vmilton-from-office-space
p6012
sg11
(lp6013
g13
ag6007
ag6008
ag6009
aS'would'
p6014
aS'be'
p6015
aS'liberty'
p6016
asg20
(lp6017
g6014
ag6015
ag6016
asba(iMeme
Meme
p6018
(dp6019
g3
(lp6020
S'you'
p6021
aS'gave'
p6022
aS'...'
p6023
asg5
S'you gave... '
p6024
sg7
S' conflicting directions '
p6025
sg9
Vmilton-from-office-space
p6026
sg11
(lp6027
g6021
ag6022
ag6023
aS'conflicting'
p6028
aS'directions'
p6029
asg20
(lp6030
g6028
ag6029
asba(iMeme
Meme
p6031
(dp6032
g3
(lp6033
sg5
S' '
p6034
sg7
S' I was told there would be le may'
p6035
sg9
Vmilton-from-office-space
p6036
sg11
(lp6037
g13
aS'was'
p6038
aS'told'
p6039
aS'there'
p6040
aS'would'
p6041
aS'be'
p6042
aS'le'
p6043
aS'may'
p6044
asg20
(lp6045
g13
ag6038
ag6039
ag6040
ag6041
ag6042
ag6043
ag6044
asba(iMeme
Meme
p6046
(dp6047
g3
(lp6048
sg5
S' '
p6049
sg7
S' I was Told There would be Tea '
p6050
sg9
Vmilton-from-office-space
p6051
sg11
(lp6052
g13
aS'was'
p6053
aS'Told'
p6054
aS'There'
p6055
aS'would'
p6056
aS'be'
p6057
aS'Tea'
p6058
asg20
(lp6059
g13
ag6053
ag6054
ag6055
ag6056
ag6057
ag6058
asba(iMeme
Meme
p6060
(dp6061
g3
(lp6062
g13
aS'was'
p6063
aS'not'
p6064
aS'fired'
p6065
asg5
S'I was not fired '
p6066
sg7
S' just moved to the garden level '
p6067
sg9
Vmilton-from-office-space
p6068
sg11
(lp6069
g13
ag6063
ag6064
ag6065
aS'just'
p6070
aS'moved'
p6071
aS'to'
p6072
aS'the'
p6073
aS'garden'
p6074
aS'level'
p6075
asg20
(lp6076
g6070
ag6071
ag6072
ag6073
ag6074
ag6075
asba(iMeme
Meme
p6077
(dp6078
g3
(lp6079
g13
aS'was'
p6080
aS'told'
p6081
aS'there'
p6082
aS'would'
p6083
aS'be'
p6084
aS'masks'
p6085
ag56
asg5
S'I was told there would be masks. '
p6086
sg7
S' Tired of obama? join the million mask march! '
p6087
sg9
Vmilton-from-office-space
p6088
sg11
(lp6089
g13
ag6080
ag6081
ag6082
ag6083
ag6084
ag6085
ag56
aS'Tired'
p6090
aS'of'
p6091
aS'obama'
p6092
ag288
aS'join'
p6093
aS'the'
p6094
aS'million'
p6095
aS'mask'
p6096
aS'march'
p6097
ag843
asg20
(lp6098
g6090
ag6091
ag6092
ag288
ag6093
ag6094
ag6095
ag6096
ag6097
ag843
asba(iMeme
Meme
p6099
(dp6100
g3
(lp6101
S'when'
p6102
aS'you'
p6103
aS'cant'
p6104
aS'think'
p6105
aS'of'
p6106
ag62
asg5
S'when you cant think of a '
p6107
sg7
S' comeback. '
p6108
sg9
Vmilton-from-office-space
p6109
sg11
(lp6110
g6102
ag6103
ag6104
ag6105
ag6106
ag62
aS'comeback'
p6111
ag56
asg20
(lp6112
g6111
ag56
asba(iMeme
Meme
p6113
(dp6114
g3
(lp6115
sg5
S' '
p6116
sg7
S' I was told there would be ice cream '
p6117
sg9
Vmilton-from-office-space
p6118
sg11
(lp6119
g13
aS'was'
p6120
aS'told'
p6121
aS'there'
p6122
aS'would'
p6123
aS'be'
p6124
aS'ice'
p6125
aS'cream'
p6126
asg20
(lp6127
g13
ag6120
ag6121
ag6122
ag6123
ag6124
ag6125
ag6126
asba(iMeme
Meme
p6128
(dp6129
g3
(lp6130
g13
aS'was'
p6131
aS'told'
p6132
asg5
S'I was told '
p6133
sg7
S' there would be MSDN subscriptions '
p6134
sg9
Vmilton-from-office-space
p6135
sg11
(lp6136
g13
ag6131
ag6132
aS'there'
p6137
aS'would'
p6138
aS'be'
p6139
aS'MSDN'
p6140
aS'subscriptions'
p6141
asg20
(lp6142
g6137
ag6138
ag6139
ag6140
ag6141
asba(iMeme
Meme
p6143
(dp6144
g3
(lp6145
sg5
S' '
p6146
sg7
S' I was told I would eat tonight '
p6147
sg9
Vmilton-from-office-space
p6148
sg11
(lp6149
g13
aS'was'
p6150
aS'told'
p6151
ag13
aS'would'
p6152
aS'eat'
p6153
aS'tonight'
p6154
asg20
(lp6155
g13
ag6150
ag6151
ag13
ag6152
ag6153
ag6154
asba(iMeme
Meme
p6156
(dp6157
g3
(lp6158
sg5
S' '
p6159
sg7
S' I was told I would gain weight. '
p6160
sg9
Vmilton-from-office-space
p6161
sg11
(lp6162
g13
aS'was'
p6163
aS'told'
p6164
ag13
aS'would'
p6165
aS'gain'
p6166
aS'weight'
p6167
ag56
asg20
(lp6168
g13
ag6163
ag6164
ag13
ag6165
ag6166
ag6167
ag56
asba(iMeme
Meme
p6169
(dp6170
g3
(lp6171
S'Got'
p6172
aS'out'
p6173
aS'of'
p6174
aS'the'
p6175
aS'military'
p6176
asg5
S'Got out of the military '
p6177
sg7
S' I was told there would be freedom '
p6178
sg9
Vmilton-from-office-space
p6179
sg11
(lp6180
g6172
ag6173
ag6174
ag6175
ag6176
ag13
aS'was'
p6181
aS'told'
p6182
aS'there'
p6183
aS'would'
p6184
aS'be'
p6185
aS'freedom'
p6186
asg20
(lp6187
g13
ag6181
ag6182
ag6183
ag6184
ag6185
ag6186
asba(iMeme
Meme
p6188
(dp6189
g3
(lp6190
sg5
S' '
p6191
sg7
S' i was told there would be sun '
p6192
sg9
Vmilton-from-office-space
p6193
sg11
(lp6194
g29
aS'was'
p6195
aS'told'
p6196
aS'there'
p6197
aS'would'
p6198
aS'be'
p6199
aS'sun'
p6200
asg20
(lp6201
g29
ag6195
ag6196
ag6197
ag6198
ag6199
ag6200
asba(iMeme
Meme
p6202
(dp6203
g3
(lp6204
sg5
S' '
p6205
sg7
S" it's not okay because if they take my stapler then I'll set the building on fire...  "
p6206
sg9
Vmilton-from-office-space
p6207
sg11
(lp6208
S'it'
p6209
aS"'s"
p6210
aS'not'
p6211
aS'okay'
p6212
aS'because'
p6213
aS'if'
p6214
aS'they'
p6215
aS'take'
p6216
aS'my'
p6217
aS'stapler'
p6218
aS'then'
p6219
ag13
aS"'ll"
p6220
aS'set'
p6221
aS'the'
p6222
aS'building'
p6223
aS'on'
p6224
aS'fire'
p6225
aS'...'
p6226
asg20
(lp6227
g6209
ag6210
ag6211
ag6212
ag6213
ag6214
ag6215
ag6216
ag6217
ag6218
ag6219
ag13
ag6220
ag6221
ag6222
ag6223
ag6224
ag6225
ag6226
asba(iMeme
Meme
p6228
(dp6229
g3
(lp6230
sg5
S' '
p6231
sg7
S' I was told there would be Lazy Beds '
p6232
sg9
Vmilton-from-office-space
p6233
sg11
(lp6234
g13
aS'was'
p6235
aS'told'
p6236
aS'there'
p6237
aS'would'
p6238
aS'be'
p6239
aS'Lazy'
p6240
aS'Beds'
p6241
asg20
(lp6242
g13
ag6235
ag6236
ag6237
ag6238
ag6239
ag6240
ag6241
asba(iMeme
Meme
p6243
(dp6244
g3
(lp6245
S'ok'
p6246
ag612
aS'but'
p6247
aS'...'
p6248
asg5
S'ok, but... '
p6249
sg7
S' ...i was told there would be cake '
p6250
sg9
Vmilton-from-office-space
p6251
sg11
(lp6252
g6246
ag612
ag6247
ag6248
aS'...'
p6253
ag29
aS'was'
p6254
aS'told'
p6255
aS'there'
p6256
aS'would'
p6257
aS'be'
p6258
aS'cake'
p6259
asg20
(lp6260
g6253
ag29
ag6254
ag6255
ag6256
ag6257
ag6258
ag6259
asba(iMeme
Meme
p6261
(dp6262
g3
(lp6263
S'As'
p6264
ag62
aS'guy'
p6265
aS'that'
p6266
aS'went'
p6267
aS'to'
p6268
aS'the'
p6269
aS'gym'
p6270
aS'mid'
p6271
asg5
S'As a guy that went to the gym mid'
p6272
sg7
S'morning on a weekday... '
p6273
sg9
Vmilton-from-office-space
p6274
sg11
(lp6275
g6264
ag62
ag6265
ag6266
ag6267
ag6268
ag6269
ag6270
ag6271
aS'morning'
p6276
aS'on'
p6277
ag62
aS'weekday'
p6278
aS'...'
p6279
asg20
(lp6280
g6276
ag6277
ag62
ag6278
ag6279
asba(iMeme
Meme
p6281
(dp6282
g3
(lp6283
sg5
S' '
p6284
sg7
S' I was told there wOuld be forever happy love story '
p6285
sg9
Vmilton-from-office-space
p6286
sg11
(lp6287
g13
aS'was'
p6288
aS'told'
p6289
aS'there'
p6290
aS'wOuld'
p6291
aS'be'
p6292
aS'forever'
p6293
aS'happy'
p6294
aS'love'
p6295
aS'story'
p6296
asg20
(lp6297
g13
ag6288
ag6289
ag6290
ag6291
ag6292
ag6293
ag6294
ag6295
ag6296
asba(iMeme
Meme
p6298
(dp6299
g3
(lp6300
sg5
S' '
p6301
sg7
S' I was told VBMS would improve my production... '
p6302
sg9
Vmilton-from-office-space
p6303
sg11
(lp6304
g13
aS'was'
p6305
aS'told'
p6306
aS'VBMS'
p6307
aS'would'
p6308
aS'improve'
p6309
aS'my'
p6310
aS'production'
p6311
aS'...'
p6312
asg20
(lp6313
g13
ag6305
ag6306
ag6307
ag6308
ag6309
ag6310
ag6311
ag6312
asba(iMeme
Meme
p6314
(dp6315
g3
(lp6316
sg5
S' '
p6317
sg7
S' I was told there would be looting '
p6318
sg9
Vmilton-from-office-space
p6319
sg11
(lp6320
g13
aS'was'
p6321
aS'told'
p6322
aS'there'
p6323
aS'would'
p6324
aS'be'
p6325
aS'looting'
p6326
asg20
(lp6327
g13
ag6321
ag6322
ag6323
ag6324
ag6325
ag6326
asba(iMeme
Meme
p6328
(dp6329
g3
(lp6330
S'excuse'
p6331
aS'me'
p6332
asg5
S'excuse me '
p6333
sg7
S' I was told i would get a lazy bed '
p6334
sg9
Vmilton-from-office-space
p6335
sg11
(lp6336
g6331
ag6332
ag13
aS'was'
p6337
aS'told'
p6338
ag29
aS'would'
p6339
aS'get'
p6340
ag62
aS'lazy'
p6341
aS'bed'
p6342
asg20
(lp6343
g13
ag6337
ag6338
ag29
ag6339
ag6340
ag62
ag6341
ag6342
asba(iMeme
Meme
p6344
(dp6345
g3
(lp6346
sg5
S' '
p6347
sg7
S' i was told there would be free slurpees '
p6348
sg9
Vmilton-from-office-space
p6349
sg11
(lp6350
g29
aS'was'
p6351
aS'told'
p6352
aS'there'
p6353
aS'would'
p6354
aS'be'
p6355
aS'free'
p6356
aS'slurpees'
p6357
asg20
(lp6358
g29
ag6351
ag6352
ag6353
ag6354
ag6355
ag6356
ag6357
asba(iMeme
Meme
p6359
(dp6360
g3
(lp6361
S'dont'
p6362
aS'take'
p6363
asg5
S'dont take '
p6364
sg7
S' my stapple '
p6365
sg9
Vmilton-from-office-space
p6366
sg11
(lp6367
g6362
ag6363
aS'my'
p6368
aS'stapple'
p6369
asg20
(lp6370
g6368
ag6369
asba(iMeme
Meme
p6371
(dp6372
g3
(lp6373
sg5
S' '
p6374
sg7
S' I was told this would be a goal fest '
p6375
sg9
Vmilton-from-office-space
p6376
sg11
(lp6377
g13
aS'was'
p6378
aS'told'
p6379
aS'this'
p6380
aS'would'
p6381
aS'be'
p6382
ag62
aS'goal'
p6383
aS'fest'
p6384
asg20
(lp6385
g13
ag6378
ag6379
ag6380
ag6381
ag6382
ag62
ag6383
ag6384
asba(iMeme
Meme
p6386
(dp6387
g3
(lp6388
sg5
S' '
p6389
sg7
S' I was told there would be karma '
p6390
sg9
Vmilton-from-office-space
p6391
sg11
(lp6392
g13
aS'was'
p6393
aS'told'
p6394
aS'there'
p6395
aS'would'
p6396
aS'be'
p6397
aS'karma'
p6398
asg20
(lp6399
g13
ag6393
ag6394
ag6395
ag6396
ag6397
ag6398
asba(iMeme
Meme
p6400
(dp6401
g3
(lp6402
S'But'
p6403
ag13
aS'was'
p6404
aS'told'
p6405
asg5
S'But I was told '
p6406
sg7
S' I would get a Porsche '
p6407
sg9
Vmilton-from-office-space
p6408
sg11
(lp6409
g6403
ag13
ag6404
ag6405
ag13
aS'would'
p6410
aS'get'
p6411
ag62
aS'Porsche'
p6412
asg20
(lp6413
g13
ag6410
ag6411
ag62
ag6412
asba(iMeme
Meme
p6414
(dp6415
g3
(lp6416
sg5
S' '
p6417
sg7
S' i was told there would be freedom '
p6418
sg9
Vmilton-from-office-space
p6419
sg11
(lp6420
g29
aS'was'
p6421
aS'told'
p6422
aS'there'
p6423
aS'would'
p6424
aS'be'
p6425
aS'freedom'
p6426
asg20
(lp6427
g29
ag6421
ag6422
ag6423
ag6424
ag6425
ag6426
asba(iMeme
Meme
p6428
(dp6429
g3
(lp6430
S'White'
p6431
aS'people'
p6432
aS'be'
p6433
aS'like'
p6434
asg5
S'White people be like '
p6435
sg7
S' Zimmerman not guilty,oh shit   maybe Jamal and Lakisha '
p6436
sg9
Vmilton-from-office-space
p6437
sg11
(lp6438
g6431
ag6432
ag6433
ag6434
aS'Zimmerman'
p6439
aS'not'
p6440
aS'guilty'
p6441
ag612
aS'oh'
p6442
aS'shit'
p6443
aS'maybe'
p6444
aS'Jamal'
p6445
aS'and'
p6446
aS'Lakisha'
p6447
asg20
(lp6448
g6439
ag6440
ag6441
ag612
ag6442
ag6443
ag6444
ag6445
ag6446
ag6447
asba(iMeme
Meme
p6449
(dp6450
g3
(lp6451
sg5
S' '
p6452
sg7
S' I was tole there would be #moundball '
p6453
sg9
Vmilton-from-office-space
p6454
sg11
(lp6455
g13
aS'was'
p6456
aS'tole'
p6457
aS'there'
p6458
aS'would'
p6459
aS'be'
p6460
ag4264
aS'moundball'
p6461
asg20
(lp6462
g13
ag6456
ag6457
ag6458
ag6459
ag6460
ag4264
ag6461
asba(iMeme
Meme
p6463
(dp6464
g3
(lp6465
sg5
S' '
p6466
sg7
S' I was told there would be toilet paper '
p6467
sg9
Vmilton-from-office-space
p6468
sg11
(lp6469
g13
aS'was'
p6470
aS'told'
p6471
aS'there'
p6472
aS'would'
p6473
aS'be'
p6474
aS'toilet'
p6475
aS'paper'
p6476
asg20
(lp6477
g13
ag6470
ag6471
ag6472
ag6473
ag6474
ag6475
ag6476
asba(iMeme
Meme
p6478
(dp6479
g3
(lp6480
sg5
S' '
p6481
sg7
S' I was told there would be snow '
p6482
sg9
Vmilton-from-office-space
p6483
sg11
(lp6484
g13
aS'was'
p6485
aS'told'
p6486
aS'there'
p6487
aS'would'
p6488
aS'be'
p6489
aS'snow'
p6490
asg20
(lp6491
g13
ag6485
ag6486
ag6487
ag6488
ag6489
ag6490
asba(iMeme
Meme
p6492
(dp6493
g3
(lp6494
S'Judge'
p6495
aS'your'
p6496
aS'success'
p6497
asg5
S'Judge your success '
p6498
sg7
S' by what you had to give up in order to get it '
p6499
sg9
Vmilton-from-office-space
p6500
sg11
(lp6501
g6495
ag6496
ag6497
aS'by'
p6502
aS'what'
p6503
aS'you'
p6504
aS'had'
p6505
aS'to'
p6506
aS'give'
p6507
aS'up'
p6508
aS'in'
p6509
aS'order'
p6510
aS'to'
p6511
aS'get'
p6512
aS'it'
p6513
asg20
(lp6514
g6502
ag6503
ag6504
ag6505
ag6506
ag6507
ag6508
ag6509
ag6510
ag6511
ag6512
ag6513
asba(iMeme
Meme
p6515
(dp6516
g3
(lp6517
sg5
S' '
p6518
sg7
S' I was told there would be costco runs on the 1st and 15th of the month '
p6519
sg9
Vmilton-from-office-space
p6520
sg11
(lp6521
g13
aS'was'
p6522
aS'told'
p6523
aS'there'
p6524
aS'would'
p6525
aS'be'
p6526
aS'costco'
p6527
aS'runs'
p6528
aS'on'
p6529
aS'the'
p6530
aS'1st'
p6531
aS'and'
p6532
aS'15th'
p6533
aS'of'
p6534
aS'the'
p6535
aS'month'
p6536
asg20
(lp6537
g13
ag6522
ag6523
ag6524
ag6525
ag6526
ag6527
ag6528
ag6529
ag6530
ag6531
ag6532
ag6533
ag6534
ag6535
ag6536
asba(iMeme
Meme
p6538
(dp6539
g3
(lp6540
sg5
S' '
p6541
sg7
S' come up to my Office '
p6542
sg9
Vmilton-from-office-space
p6543
sg11
(lp6544
S'come'
p6545
aS'up'
p6546
aS'to'
p6547
aS'my'
p6548
aS'Office'
p6549
asg20
(lp6550
g6545
ag6546
ag6547
ag6548
ag6549
asba(iMeme
Meme
p6551
(dp6552
g3
(lp6553
sg5
S' '
p6554
sg7
S' I was Told there would be naked girls '
p6555
sg9
Vmilton-from-office-space
p6556
sg11
(lp6557
g13
aS'was'
p6558
aS'Told'
p6559
aS'there'
p6560
aS'would'
p6561
aS'be'
p6562
aS'naked'
p6563
aS'girls'
p6564
asg20
(lp6565
g13
ag6558
ag6559
ag6560
ag6561
ag6562
ag6563
ag6564
asba(iMeme
Meme
p6566
(dp6567
g3
(lp6568
S'ok'
p6569
ag612
aS'but'
p6570
aS'...'
p6571
asg5
S'ok, but... '
p6572
sg7
S' ...i was told there would be cake '
p6573
sg9
Vmilton-from-office-space
p6574
sg11
(lp6575
g6569
ag612
ag6570
ag6571
aS'...'
p6576
ag29
aS'was'
p6577
aS'told'
p6578
aS'there'
p6579
aS'would'
p6580
aS'be'
p6581
aS'cake'
p6582
asg20
(lp6583
g6576
ag29
ag6577
ag6578
ag6579
ag6580
ag6581
ag6582
asba(iMeme
Meme
p6584
(dp6585
g3
(lp6586
sg5
S' '
p6587
sg7
S'  I was told that I could listen to the radio at a reasonable volume '
p6588
sg9
Vmilton-from-office-space
p6589
sg11
(lp6590
g13
aS'was'
p6591
aS'told'
p6592
aS'that'
p6593
ag13
aS'could'
p6594
aS'listen'
p6595
aS'to'
p6596
aS'the'
p6597
aS'radio'
p6598
aS'at'
p6599
ag62
aS'reasonable'
p6600
aS'volume'
p6601
asg20
(lp6602
g13
ag6591
ag6592
ag6593
ag13
ag6594
ag6595
ag6596
ag6597
ag6598
ag6599
ag62
ag6600
ag6601
asba(iMeme
Meme
p6603
(dp6604
g3
(lp6605
sg5
S' '
p6606
sg7
S' I was told there would be rebounds '
p6607
sg9
Vmilton-from-office-space
p6608
sg11
(lp6609
g13
aS'was'
p6610
aS'told'
p6611
aS'there'
p6612
aS'would'
p6613
aS'be'
p6614
aS'rebounds'
p6615
asg20
(lp6616
g13
ag6610
ag6611
ag6612
ag6613
ag6614
ag6615
asba(iMeme
Meme
p6617
(dp6618
g3
(lp6619
g13
aS'was'
p6620
aS'told'
p6621
asg5
S'I was told '
p6622
sg7
S' There was a meeting at 4 '
p6623
sg9
Vmilton-from-office-space
p6624
sg11
(lp6625
g13
ag6620
ag6621
aS'There'
p6626
aS'was'
p6627
ag62
aS'meeting'
p6628
aS'at'
p6629
ag790
asg20
(lp6630
g6626
ag6627
ag62
ag6628
ag6629
ag790
asba(iMeme
Meme
p6631
(dp6632
g3
(lp6633
S'Touch'
p6634
aS'my'
p6635
aS'stapler'
p6636
asg5
S'Touch my stapler '
p6637
sg7
S' And I kill you '
p6638
sg9
Vmilton-from-office-space
p6639
sg11
(lp6640
g6634
ag6635
ag6636
aS'And'
p6641
ag13
aS'kill'
p6642
aS'you'
p6643
asg20
(lp6644
g6641
ag13
ag6642
ag6643
asba(iMeme
Meme
p6645
(dp6646
g3
(lp6647
sg5
S' '
p6648
sg7
S' I was told there would be Australians '
p6649
sg9
Vmilton-from-office-space
p6650
sg11
(lp6651
g13
aS'was'
p6652
aS'told'
p6653
aS'there'
p6654
aS'would'
p6655
aS'be'
p6656
aS'Australians'
p6657
asg20
(lp6658
g13
ag6652
ag6653
ag6654
ag6655
ag6656
ag6657
asba(iMeme
Meme
p6659
(dp6660
g3
(lp6661
sg5
S' '
p6662
sg7
S' i was told there would also be 25,000 united miles '
p6663
sg9
Vmilton-from-office-space
p6664
sg11
(lp6665
g29
aS'was'
p6666
aS'told'
p6667
aS'there'
p6668
aS'would'
p6669
aS'also'
p6670
aS'be'
p6671
aS'25,000'
p6672
aS'united'
p6673
aS'miles'
p6674
asg20
(lp6675
g29
ag6666
ag6667
ag6668
ag6669
ag6670
ag6671
ag6672
ag6673
ag6674
asba(iMeme
Meme
p6676
(dp6677
g3
(lp6678
sg5
S' '
p6679
sg7
S' i was told there would be karma '
p6680
sg9
Vmilton-from-office-space
p6681
sg11
(lp6682
g29
aS'was'
p6683
aS'told'
p6684
aS'there'
p6685
aS'would'
p6686
aS'be'
p6687
aS'karma'
p6688
asg20
(lp6689
g29
ag6683
ag6684
ag6685
ag6686
ag6687
ag6688
asba(iMeme
Meme
p6690
(dp6691
g3
(lp6692
sg5
S' '
p6693
sg7
S' I was told there would be riots '
p6694
sg9
Vmilton-from-office-space
p6695
sg11
(lp6696
g13
aS'was'
p6697
aS'told'
p6698
aS'there'
p6699
aS'would'
p6700
aS'be'
p6701
aS'riots'
p6702
asg20
(lp6703
g13
ag6697
ag6698
ag6699
ag6700
ag6701
ag6702
asba(iMeme
Meme
p6704
(dp6705
g3
(lp6706
S'Just'
p6707
aS'Keep'
p6708
aS'pushing'
p6709
aS'it'
p6710
ag843
asg5
S'Just Keep pushing it! '
p6711
sg7
S'  '
p6712
sg9
Vmilton-from-office-space
p6713
sg11
(lp6714
g6707
ag6708
ag6709
ag6710
ag843
asg20
(lp6715
sba(iMeme
Meme
p6716
(dp6717
g3
(lp6718
S'Excuse'
p6719
aS'me'
p6720
ag612
aS'Trisha'
p6721
asg5
S'Excuse me, Trisha '
p6722
sg7
S' i was told there would be birthday pie '
p6723
sg9
Vmilton-from-office-space
p6724
sg11
(lp6725
g6719
ag6720
ag612
ag6721
ag29
aS'was'
p6726
aS'told'
p6727
aS'there'
p6728
aS'would'
p6729
aS'be'
p6730
aS'birthday'
p6731
aS'pie'
p6732
asg20
(lp6733
g29
ag6726
ag6727
ag6728
ag6729
ag6730
ag6731
ag6732
asba(iMeme
Meme
p6734
(dp6735
g3
(lp6736
g13
aS'was'
p6737
aS'told'
p6738
aS'that'
p6739
asg5
S'I was told that '
p6740
sg7
S' there would be 4.2 gram 1/8ths. '
p6741
sg9
Vmilton-from-office-space
p6742
sg11
(lp6743
g13
ag6737
ag6738
ag6739
aS'there'
p6744
aS'would'
p6745
aS'be'
p6746
aS'4.2'
p6747
aS'gram'
p6748
aS'1/8ths'
p6749
ag56
asg20
(lp6750
g6744
ag6745
ag6746
ag6747
ag6748
ag6749
ag56
asba(iMeme
Meme
p6751
(dp6752
g3
(lp6753
sg5
S' '
p6754
sg7
S' I was told i would be a knight '
p6755
sg9
Vmilton-from-office-space
p6756
sg11
(lp6757
g13
aS'was'
p6758
aS'told'
p6759
ag29
aS'would'
p6760
aS'be'
p6761
ag62
aS'knight'
p6762
asg20
(lp6763
g13
ag6758
ag6759
ag29
ag6760
ag6761
ag62
ag6762
asba(iMeme
Meme
p6764
(dp6765
g3
(lp6766
S'Hey..ummm..that'
p6767
aS"'s"
p6768
aS'...'
p6769
aS'that'
p6770
aS"'s"
p6771
asg5
S"Hey..ummm..that's...that's "
p6772
sg7
S" that's MY stapler "
p6773
sg9
Vmilton-from-office-space
p6774
sg11
(lp6775
g6767
ag6768
ag6769
ag6770
ag6771
aS'that'
p6776
aS"'s"
p6777
aS'MY'
p6778
aS'stapler'
p6779
asg20
(lp6780
g6776
ag6777
ag6778
ag6779
asba(iMeme
Meme
p6781
(dp6782
g3
(lp6783
sg5
S' '
p6784
sg7
S' I was told there would be sex '
p6785
sg9
Vmilton-from-office-space
p6786
sg11
(lp6787
g13
aS'was'
p6788
aS'told'
p6789
aS'there'
p6790
aS'would'
p6791
aS'be'
p6792
aS'sex'
p6793
asg20
(lp6794
g13
ag6788
ag6789
ag6790
ag6791
ag6792
ag6793
asba(iMeme
Meme
p6795
(dp6796
g3
(lp6797
sg5
S' '
p6798
sg7
S' I was told there would be horny single girls '
p6799
sg9
Vmilton-from-office-space
p6800
sg11
(lp6801
g13
aS'was'
p6802
aS'told'
p6803
aS'there'
p6804
aS'would'
p6805
aS'be'
p6806
aS'horny'
p6807
aS'single'
p6808
aS'girls'
p6809
asg20
(lp6810
g13
ag6802
ag6803
ag6804
ag6805
ag6806
ag6807
ag6808
ag6809
asba(iMeme
Meme
p6811
(dp6812
g3
(lp6813
sg5
S' '
p6814
sg7
S' I was told there would be beta keys '
p6815
sg9
Vmilton-from-office-space
p6816
sg11
(lp6817
g13
aS'was'
p6818
aS'told'
p6819
aS'there'
p6820
aS'would'
p6821
aS'be'
p6822
aS'beta'
p6823
aS'keys'
p6824
asg20
(lp6825
g13
ag6818
ag6819
ag6820
ag6821
ag6822
ag6823
ag6824
asba(iMeme
Meme
p6826
(dp6827
g3
(lp6828
S'ok'
p6829
aS'but'
p6830
asg5
S'ok but '
p6831
sg7
S" i'll burn the building down "
p6832
sg9
Vmilton-from-office-space
p6833
sg11
(lp6834
g6829
ag6830
ag29
aS"'ll"
p6835
aS'burn'
p6836
aS'the'
p6837
aS'building'
p6838
aS'down'
p6839
asg20
(lp6840
g29
ag6835
ag6836
ag6837
ag6838
ag6839
asba(iMeme
Meme
p6841
(dp6842
g3
(lp6843
sg5
S' '
p6844
sg7
S' i was told there would be doctor who '
p6845
sg9
Vmilton-from-office-space
p6846
sg11
(lp6847
g29
aS'was'
p6848
aS'told'
p6849
aS'there'
p6850
aS'would'
p6851
aS'be'
p6852
aS'doctor'
p6853
aS'who'
p6854
asg20
(lp6855
g29
ag6848
ag6849
ag6850
ag6851
ag6852
ag6853
ag6854
asba(iMeme
Meme
p6856
(dp6857
g3
(lp6858
g13
aS'was'
p6859
aS'told'
p6860
aS'if'
p6861
ag29
aS'did'
p6862
aS'my'
p6863
aS'timesheet'
p6864
asg5
S'I was told if i did my timesheet '
p6865
sg7
S' i would get paid '
p6866
sg9
Vmilton-from-office-space
p6867
sg11
(lp6868
g13
ag6859
ag6860
ag6861
ag29
ag6862
ag6863
ag6864
ag29
aS'would'
p6869
aS'get'
p6870
aS'paid'
p6871
asg20
(lp6872
g29
ag6869
ag6870
ag6871
asba(iMeme
Meme
p6873
(dp6874
g3
(lp6875
sg5
S' '
p6876
sg7
S' I was told there would be boobs? '
p6877
sg9
Vmilton-from-office-space
p6878
sg11
(lp6879
g13
aS'was'
p6880
aS'told'
p6881
aS'there'
p6882
aS'would'
p6883
aS'be'
p6884
aS'boobs'
p6885
ag288
asg20
(lp6886
g13
ag6880
ag6881
ag6882
ag6883
ag6884
ag6885
ag288
asba(iMeme
Meme
p6887
(dp6888
g3
(lp6889
sg5
S' '
p6890
sg7
S' I was told there would be rain '
p6891
sg9
Vmilton-from-office-space
p6892
sg11
(lp6893
g13
aS'was'
p6894
aS'told'
p6895
aS'there'
p6896
aS'would'
p6897
aS'be'
p6898
aS'rain'
p6899
asg20
(lp6900
g13
ag6894
ag6895
ag6896
ag6897
ag6898
ag6899
asba(iMeme
Meme
p6901
(dp6902
g3
(lp6903
sg5
S' '
p6904
sg7
S' I was told there would be Australians  '
p6905
sg9
Vmilton-from-office-space
p6906
sg11
(lp6907
g13
aS'was'
p6908
aS'told'
p6909
aS'there'
p6910
aS'would'
p6911
aS'be'
p6912
aS'Australians'
p6913
asg20
(lp6914
g13
ag6908
ag6909
ag6910
ag6911
ag6912
ag6913
asba(iMeme
Meme
p6915
(dp6916
g3
(lp6917
sg5
S' '
p6918
sg7
S' I was told there would be make up sex '
p6919
sg9
Vmilton-from-office-space
p6920
sg11
(lp6921
g13
aS'was'
p6922
aS'told'
p6923
aS'there'
p6924
aS'would'
p6925
aS'be'
p6926
aS'make'
p6927
aS'up'
p6928
aS'sex'
p6929
asg20
(lp6930
g13
ag6922
ag6923
ag6924
ag6925
ag6926
ag6927
ag6928
ag6929
asba(iMeme
Meme
p6931
(dp6932
g3
(lp6933
sg5
S' '
p6934
sg7
S' Cheer up, i was told it was friday '
p6935
sg9
Vmilton-from-office-space
p6936
sg11
(lp6937
S'Cheer'
p6938
aS'up'
p6939
ag612
ag29
aS'was'
p6940
aS'told'
p6941
aS'it'
p6942
aS'was'
p6943
aS'friday'
p6944
asg20
(lp6945
g6938
ag6939
ag612
ag29
ag6940
ag6941
ag6942
ag6943
ag6944
asba(iMeme
Meme
p6946
(dp6947
g3
(lp6948
sg5
S' '
p6949
sg7
S' I was told there would be karma '
p6950
sg9
Vmilton-from-office-space
p6951
sg11
(lp6952
g13
aS'was'
p6953
aS'told'
p6954
aS'there'
p6955
aS'would'
p6956
aS'be'
p6957
aS'karma'
p6958
asg20
(lp6959
g13
ag6953
ag6954
ag6955
ag6956
ag6957
ag6958
asba(iMeme
Meme
p6960
(dp6961
g3
(lp6962
S'Excuse'
p6963
aS'me'
p6964
aS'emily'
p6965
asg5
S'Excuse me emily '
p6966
sg7
S' i was told you would lose the meme competition '
p6967
sg9
Vmilton-from-office-space
p6968
sg11
(lp6969
g6963
ag6964
ag6965
ag29
aS'was'
p6970
aS'told'
p6971
aS'you'
p6972
aS'would'
p6973
aS'lose'
p6974
aS'the'
p6975
aS'meme'
p6976
aS'competition'
p6977
asg20
(lp6978
g29
ag6970
ag6971
ag6972
ag6973
ag6974
ag6975
ag6976
ag6977
asba(iMeme
Meme
p6979
(dp6980
g3
(lp6981
g13
aS'was'
p6982
aS'told'
p6983
aS'that'
p6984
ag13
aS'could'
p6985
aS'listen'
p6986
aS'to'
p6987
aS'the'
p6988
aS'radio'
p6989
aS'at'
p6990
ag62
aS'reasonable'
p6991
aS'volume'
p6992
aS'from'
p6993
aS'nine'
p6994
aS'to'
p6995
aS'eleven'
p6996
ag612
ag13
aS'told'
p6997
aS'Bill'
p6998
aS'that'
p6999
aS'if'
p7000
aS'Sandra'
p7001
aS'is'
p7002
aS'going'
p7003
aS'to'
p7004
aS'listen'
p7005
aS'to'
p7006
aS'her'
p7007
aS'headphones'
p7008
aS'while'
p7009
aS'she'
p7010
aS"'s"
p7011
aS'filing'
p7012
aS'then'
p7013
ag13
aS'should'
p7014
aS'be'
p7015
aS'able'
p7016
aS'to'
p7017
aS'listen'
p7018
aS'to'
p7019
aS'the'
p7020
aS'radio'
p7021
aS'while'
p7022
ag13
aS"'m"
p7023
aS'collating'
p7024
aS'so'
p7025
ag13
aS'do'
p7026
aS"n't"
p7027
aS'see'
p7028
aS'why'
p7029
asg5
S" I was told that I could listen to the radio at a reasonable volume from nine to eleven, I told Bill that if Sandra is going to listen to her headphones while she's filing then I should be able to listen to the radio while I'm collating so I don't see why "
p7030
sg7
S'  '
p7031
sg9
Vmilton-from-office-space
p7032
sg11
(lp7033
g13
ag6982
ag6983
ag6984
ag13
ag6985
ag6986
ag6987
ag6988
ag6989
ag6990
ag62
ag6991
ag6992
ag6993
ag6994
ag6995
ag6996
ag612
ag13
ag6997
ag6998
ag6999
ag7000
ag7001
ag7002
ag7003
ag7004
ag7005
ag7006
ag7007
ag7008
ag7009
ag7010
ag7011
ag7012
ag7013
ag13
ag7014
ag7015
ag7016
ag7017
ag7018
ag7019
ag7020
ag7021
ag7022
ag13
ag7023
ag7024
ag7025
ag13
ag7026
ag7027
ag7028
ag7029
asg20
(lp7034
sba(iMeme
Meme
p7035
(dp7036
g3
(lp7037
S'It'
p7038
aS"'s"
p7039
aS'my'
p7040
aS'cake'
p7041
aS'day'
p7042
aS'and'
p7043
asg5
S"It's my cake day and "
p7044
sg7
S" I was told there'd be upvotes "
p7045
sg9
Vmilton-from-office-space
p7046
sg11
(lp7047
g7038
ag7039
ag7040
ag7041
ag7042
ag7043
ag13
aS'was'
p7048
aS'told'
p7049
aS'there'
p7050
aS"'d"
p7051
aS'be'
p7052
aS'upvotes'
p7053
asg20
(lp7054
g13
ag7048
ag7049
ag7050
ag7051
ag7052
ag7053
asba(iMeme
Meme
p7055
(dp7056
g3
(lp7057
S'but'
p7058
aS'but'
p7059
aS'but'
p7060
aS'but'
p7061
asg5
S'but but but but '
p7062
sg7
S" i'll burn down the building "
p7063
sg9
Vmilton-from-office-space
p7064
sg11
(lp7065
g7058
ag7059
ag7060
ag7061
ag29
aS"'ll"
p7066
aS'burn'
p7067
aS'down'
p7068
aS'the'
p7069
aS'building'
p7070
asg20
(lp7071
g29
ag7066
ag7067
ag7068
ag7069
ag7070
asba(iMeme
Meme
p7072
(dp7073
g3
(lp7074
sg5
S' '
p7075
sg7
S' I was told there would be food '
p7076
sg9
Vmilton-from-office-space
p7077
sg11
(lp7078
g13
aS'was'
p7079
aS'told'
p7080
aS'there'
p7081
aS'would'
p7082
aS'be'
p7083
aS'food'
p7084
asg20
(lp7085
g13
ag7079
ag7080
ag7081
ag7082
ag7083
ag7084
asba(iMeme
Meme
p7086
(dp7087
g3
(lp7088
sg5
S' '
p7089
sg7
S" It's ramadan? I was told there would be bacon "
p7090
sg9
Vmilton-from-office-space
p7091
sg11
(lp7092
S'It'
p7093
aS"'s"
p7094
aS'ramadan'
p7095
ag288
ag13
aS'was'
p7096
aS'told'
p7097
aS'there'
p7098
aS'would'
p7099
aS'be'
p7100
aS'bacon'
p7101
asg20
(lp7102
g7093
ag7094
ag7095
ag288
ag13
ag7096
ag7097
ag7098
ag7099
ag7100
ag7101
asba(iMeme
Meme
p7103
(dp7104
g3
(lp7105
g13
aS"'ll"
p7106
aS'set'
p7107
aS'the'
p7108
aS'building'
p7109
aS'on'
p7110
aS'fire'
p7111
ag56
asg5
S"I'll set the building on fire. "
p7112
sg7
S'  '
p7113
sg9
Vmilton-from-office-space
p7114
sg11
(lp7115
g13
ag7106
ag7107
ag7108
ag7109
ag7110
ag7111
ag56
asg20
(lp7116
sba(iMeme
Meme
p7117
(dp7118
g3
(lp7119
sg5
S' '
p7120
sg7
S' I was told there would be dates '
p7121
sg9
Vmilton-from-office-space
p7122
sg11
(lp7123
g13
aS'was'
p7124
aS'told'
p7125
aS'there'
p7126
aS'would'
p7127
aS'be'
p7128
aS'dates'
p7129
asg20
(lp7130
g13
ag7124
ag7125
ag7126
ag7127
ag7128
ag7129
asba(iMeme
Meme
p7131
(dp7132
g3
(lp7133
sg5
S' '
p7134
sg7
S' I was told there would be karma '
p7135
sg9
Vmilton-from-office-space
p7136
sg11
(lp7137
g13
aS'was'
p7138
aS'told'
p7139
aS'there'
p7140
aS'would'
p7141
aS'be'
p7142
aS'karma'
p7143
asg20
(lp7144
g13
ag7138
ag7139
ag7140
ag7141
ag7142
ag7143
asba(iMeme
Meme
p7145
(dp7146
g3
(lp7147
S'was'
p7148
aS'that'
p7149
aS'just'
p7150
ag62
aS'wet'
p7151
aS'fart'
p7152
asg5
S'was that just a wet fart '
p7153
sg7
S' or did i shit myself '
p7154
sg9
Vmilton-from-office-space
p7155
sg11
(lp7156
g7148
ag7149
ag7150
ag62
ag7151
ag7152
aS'or'
p7157
aS'did'
p7158
ag29
aS'shit'
p7159
aS'myself'
p7160
asg20
(lp7161
g7157
ag7158
ag29
ag7159
ag7160
asba(iMeme
Meme
p7162
(dp7163
g3
(lp7164
sg5
S' '
p7165
sg7
S' i was told there would be blowjobs '
p7166
sg9
Vmilton-from-office-space
p7167
sg11
(lp7168
g29
aS'was'
p7169
aS'told'
p7170
aS'there'
p7171
aS'would'
p7172
aS'be'
p7173
aS'blowjobs'
p7174
asg20
(lp7175
g29
ag7169
ag7170
ag7171
ag7172
ag7173
ag7174
asba(iMeme
Meme
p7176
(dp7177
g3
(lp7178
sg5
S' '
p7179
sg7
S' I was told there would be Couch Tour '
p7180
sg9
Vmilton-from-office-space
p7181
sg11
(lp7182
g13
aS'was'
p7183
aS'told'
p7184
aS'there'
p7185
aS'would'
p7186
aS'be'
p7187
aS'Couch'
p7188
aS'Tour'
p7189
asg20
(lp7190
g13
ag7183
ag7184
ag7185
ag7186
ag7187
ag7188
ag7189
asba(iMeme
Meme
p7191
(dp7192
g3
(lp7193
sg5
S' '
p7194
sg7
S' I was told there would be free popcorn '
p7195
sg9
Vmilton-from-office-space
p7196
sg11
(lp7197
g13
aS'was'
p7198
aS'told'
p7199
aS'there'
p7200
aS'would'
p7201
aS'be'
p7202
aS'free'
p7203
aS'popcorn'
p7204
asg20
(lp7205
g13
ag7198
ag7199
ag7200
ag7201
ag7202
ag7203
ag7204
asba(iMeme
Meme
p7206
(dp7207
g3
(lp7208
sg5
S' '
p7209
sg7
S' I was told there would be kangaroos '
p7210
sg9
Vmilton-from-office-space
p7211
sg11
(lp7212
g13
aS'was'
p7213
aS'told'
p7214
aS'there'
p7215
aS'would'
p7216
aS'be'
p7217
aS'kangaroos'
p7218
asg20
(lp7219
g13
ag7213
ag7214
ag7215
ag7216
ag7217
ag7218
asba(iMeme
Meme
p7220
(dp7221
g3
(lp7222
sg5
S' '
p7223
sg7
S' I was told he was going to unite our nation '
p7224
sg9
Vmilton-from-office-space
p7225
sg11
(lp7226
g13
aS'was'
p7227
aS'told'
p7228
aS'he'
p7229
aS'was'
p7230
aS'going'
p7231
aS'to'
p7232
aS'unite'
p7233
aS'our'
p7234
aS'nation'
p7235
asg20
(lp7236
g13
ag7227
ag7228
ag7229
ag7230
ag7231
ag7232
ag7233
ag7234
ag7235
asba(iMeme
Meme
p7237
(dp7238
g3
(lp7239
sg5
S' '
p7240
sg7
S' I was told there would be Freedom '
p7241
sg9
Vmilton-from-office-space
p7242
sg11
(lp7243
g13
aS'was'
p7244
aS'told'
p7245
aS'there'
p7246
aS'would'
p7247
aS'be'
p7248
aS'Freedom'
p7249
asg20
(lp7250
g13
ag7244
ag7245
ag7246
ag7247
ag7248
ag7249
asba(iMeme
Meme
p7251
(dp7252
g3
(lp7253
sg5
S' '
p7254
sg7
S' I was told there would be food. '
p7255
sg9
Vmilton-from-office-space
p7256
sg11
(lp7257
g13
aS'was'
p7258
aS'told'
p7259
aS'there'
p7260
aS'would'
p7261
aS'be'
p7262
aS'food'
p7263
ag56
asg20
(lp7264
g13
ag7258
ag7259
ag7260
ag7261
ag7262
ag7263
ag56
asba(iMeme
Meme
p7265
(dp7266
g3
(lp7267
sg5
S' '
p7268
sg7
S' I was told there would be karma '
p7269
sg9
Vmilton-from-office-space
p7270
sg11
(lp7271
g13
aS'was'
p7272
aS'told'
p7273
aS'there'
p7274
aS'would'
p7275
aS'be'
p7276
aS'karma'
p7277
asg20
(lp7278
g13
ag7272
ag7273
ag7274
ag7275
ag7276
ag7277
asba(iMeme
Meme
p7279
(dp7280
g3
(lp7281
sg5
S' '
p7282
sg7
S" I was told that my teammates wouldn't suck anymore "
p7283
sg9
Vmilton-from-office-space
p7284
sg11
(lp7285
g13
aS'was'
p7286
aS'told'
p7287
aS'that'
p7288
aS'my'
p7289
aS'teammates'
p7290
aS'would'
p7291
aS"n't"
p7292
aS'suck'
p7293
aS'anymore'
p7294
asg20
(lp7295
g13
ag7286
ag7287
ag7288
ag7289
ag7290
ag7291
ag7292
ag7293
ag7294
asba(iMeme
Meme
p7296
(dp7297
g3
(lp7298
sg5
S' '
p7299
sg7
S' I was told there would be karma '
p7300
sg9
Vmilton-from-office-space
p7301
sg11
(lp7302
g13
aS'was'
p7303
aS'told'
p7304
aS'there'
p7305
aS'would'
p7306
aS'be'
p7307
aS'karma'
p7308
asg20
(lp7309
g13
ag7303
ag7304
ag7305
ag7306
ag7307
ag7308
asba(iMeme
Meme
p7310
(dp7311
g3
(lp7312
g13
aS'think'
p7313
aS'today'
p7314
aS'is'
p7315
aS'the'
p7316
aS'day'
p7317
asg5
S'I think today is the day '
p7318
sg7
S' i burn this mother fucker to the ground '
p7319
sg9
Vmilton-from-office-space
p7320
sg11
(lp7321
g13
ag7313
ag7314
ag7315
ag7316
ag7317
ag29
aS'burn'
p7322
aS'this'
p7323
aS'mother'
p7324
aS'fucker'
p7325
aS'to'
p7326
aS'the'
p7327
aS'ground'
p7328
asg20
(lp7329
g29
ag7322
ag7323
ag7324
ag7325
ag7326
ag7327
ag7328
asba(iMeme
Meme
p7330
(dp7331
g3
(lp7332
sg5
S' '
p7333
sg7
S' I was told there would be terrible comments '
p7334
sg9
Vmilton-from-office-space
p7335
sg11
(lp7336
g13
aS'was'
p7337
aS'told'
p7338
aS'there'
p7339
aS'would'
p7340
aS'be'
p7341
aS'terrible'
p7342
aS'comments'
p7343
asg20
(lp7344
g13
ag7337
ag7338
ag7339
ag7340
ag7341
ag7342
ag7343
asba.