(lp0
(iMeme
Meme
p1
(dp2
S'top_text'
p3
(lp4
S'has'
p5
aS'a'
p6
aS'one'
p7
aS'night'
p8
aS'stand'
p9
asS'top_text_raw'
p10
S'has a one night stand'
p11
sS'bottom_text_raw'
p12
S' his lamp is on it'
p13
sS'meme_type'
p14
Vmisunderstood-douchebag
p15
sS'all_text'
p16
(lp17
g5
ag6
ag7
ag8
ag9
aS'his'
p18
aS'lamp'
p19
aS'is'
p20
aS'on'
p21
aS'it'
p22
asS'bottom_text'
p23
(lp24
g18
ag19
ag20
ag21
ag22
asba(iMeme
Meme
p25
(dp26
g3
(lp27
S'picks'
p28
aS'up'
p29
aS'bitches'
p30
asg10
S'picks up bitches'
p31
sg12
S' at the local dog shelter'
p32
sg14
Vmisunderstood-douchebag
p33
sg16
(lp34
g28
ag29
ag30
aS'at'
p35
aS'the'
p36
aS'local'
p37
aS'dog'
p38
aS'shelter'
p39
asg23
(lp40
g35
ag36
ag37
ag38
ag39
asba(iMeme
Meme
p41
(dp42
g3
(lp43
S'buys'
p44
aS'red'
p45
aS'cups'
p46
aS'and'
p47
aS'ping'
p48
aS'pong'
p49
aS'balls'
p50
asg10
S'buys red cups and ping pong balls'
p51
sg12
S' for fruit punch and ping pong at the youth center'
p52
sg14
Vmisunderstood-douchebag
p53
sg16
(lp54
g44
ag45
ag46
ag47
ag48
ag49
ag50
aS'for'
p55
aS'fruit'
p56
aS'punch'
p57
aS'and'
p58
aS'ping'
p59
aS'pong'
p60
aS'at'
p61
aS'the'
p62
aS'youth'
p63
aS'center'
p64
asg23
(lp65
g55
ag56
ag57
ag58
ag59
ag60
ag61
ag62
ag63
ag64
asba(iMeme
Meme
p66
(dp67
g3
(lp68
S'has'
p69
ag6
aS'chinese'
p70
aS'symbol'
p71
aS'tattoo'
p72
asg10
S'has a chinese symbol tattoo'
p73
sg12
S' has an adopted chinese baby'
p74
sg14
Vmisunderstood-douchebag
p75
sg16
(lp76
g69
ag6
ag70
ag71
ag72
aS'has'
p77
aS'an'
p78
aS'adopted'
p79
aS'chinese'
p80
aS'baby'
p81
asg23
(lp82
g77
ag78
ag79
ag80
ag81
asba(iMeme
Meme
p83
(dp84
g3
(lp85
S'goes'
p86
aS'to'
p87
aS'cancun'
p88
aS'on'
p89
aS'spring'
p90
aS'break'
p91
asg10
S'goes to cancun on spring break'
p92
sg12
S' to help deaf children'
p93
sg14
Vmisunderstood-douchebag
p94
sg16
(lp95
g86
ag87
ag88
ag89
ag90
ag91
aS'to'
p96
aS'help'
p97
aS'deaf'
p98
aS'children'
p99
asg23
(lp100
g96
ag97
ag98
ag99
asba(iMeme
Meme
p101
(dp102
g3
(lp103
S'pops'
p104
aS'collar'
p105
asg10
S'pops collar'
p106
sg12
S' to protect his neck from sunburn'
p107
sg14
Vmisunderstood-douchebag
p108
sg16
(lp109
g104
ag105
aS'to'
p110
aS'protect'
p111
aS'his'
p112
aS'neck'
p113
aS'from'
p114
aS'sunburn'
p115
asg23
(lp116
g110
ag111
ag112
ag113
ag114
ag115
asba(iMeme
Meme
p117
(dp118
g3
(lp119
S'wears'
p120
aS'sunglasses'
p121
aS'at'
p122
aS'night'
p123
asg10
S'wears sunglasses at night'
p124
sg12
S' has eye condition'
p125
sg14
Vmisunderstood-douchebag
p126
sg16
(lp127
g120
ag121
ag122
ag123
aS'has'
p128
aS'eye'
p129
aS'condition'
p130
asg23
(lp131
g128
ag129
ag130
asba(iMeme
Meme
p132
(dp133
g3
(lp134
S'high'
p135
aS'fives'
p136
asg10
S'high fives'
p137
sg12
S' down syndrome kids'
p138
sg14
Vmisunderstood-douchebag
p139
sg16
(lp140
g135
ag136
aS'down'
p141
aS'syndrome'
p142
aS'kids'
p143
asg23
(lp144
g141
ag142
ag143
asba(iMeme
Meme
p145
(dp146
g3
(lp147
S'calls'
p148
aS'the'
p149
aS'bartender'
p150
aS'bro'
p151
asg10
S'calls the bartender bro'
p152
sg12
S' its actually his brother'
p153
sg14
Vmisunderstood-douchebag
p154
sg16
(lp155
g148
ag149
ag150
ag151
aS'its'
p156
aS'actually'
p157
aS'his'
p158
aS'brother'
p159
asg23
(lp160
g156
ag157
ag158
ag159
asba(iMeme
Meme
p161
(dp162
g3
(lp163
S'wears'
p164
aS'aviator'
p165
aS'glasses'
p166
asg10
S'wears aviator glasses'
p167
sg12
S' was a pilot in the air force'
p168
sg14
Vmisunderstood-douchebag
p169
sg16
(lp170
g164
ag165
ag166
aS'was'
p171
ag6
aS'pilot'
p172
aS'in'
p173
aS'the'
p174
aS'air'
p175
aS'force'
p176
asg23
(lp177
g171
ag6
ag172
ag173
ag174
ag175
ag176
asba(iMeme
Meme
p178
(dp179
g3
(lp180
S'fucks'
p181
ag6
aS'girl'
p182
aS'without'
p183
ag6
aS'condom'
p184
asg10
S'fucks a girl without a condom'
p185
sg12
S' its his wife'
p186
sg14
Vmisunderstood-douchebag
p187
sg16
(lp188
g181
ag6
ag182
ag183
ag6
ag184
aS'its'
p189
aS'his'
p190
aS'wife'
p191
asg23
(lp192
g189
ag190
ag191
asba(iMeme
Meme
p193
(dp194
g3
(lp195
S'wears'
p196
aS'baseball'
p197
aS'cap'
p198
asg10
S'wears baseball cap'
p199
sg12
S' cancer patient'
p200
sg14
Vmisunderstood-douchebag
p201
sg16
(lp202
g196
ag197
ag198
aS'cancer'
p203
aS'patient'
p204
asg23
(lp205
g203
ag204
asba(iMeme
Meme
p206
(dp207
g3
(lp208
S'has'
p209
aS'chinese'
p210
aS'tattoo'
p211
aS'on'
p212
aS'left'
p213
aS'arm'
p214
asg10
S'has chinese tattoo on left arm'
p215
sg12
S' knows what it means'
p216
sg14
Vmisunderstood-douchebag
p217
sg16
(lp218
g209
ag210
ag211
ag212
ag213
ag214
aS'knows'
p219
aS'what'
p220
aS'it'
p221
aS'means'
p222
asg23
(lp223
g219
ag220
ag221
ag222
asba(iMeme
Meme
p224
(dp225
g3
(lp226
S'i'
p227
aS'act'
p228
aS'like'
p229
ag6
aS'tough'
p230
aS'guy'
p231
asg10
S'i act like a tough guy'
p232
sg12
S' to keep my little sister safe.'
p233
sg14
Vmisunderstood-douchebag
p234
sg16
(lp235
g227
ag228
ag229
ag6
ag230
ag231
aS'to'
p236
aS'keep'
p237
aS'my'
p238
aS'little'
p239
aS'sister'
p240
aS'safe'
p241
aS'.'
p242
asg23
(lp243
g236
ag237
ag238
ag239
ag240
ag241
ag242
asba(iMeme
Meme
p244
(dp245
g3
(lp246
S'fucks'
p247
aS'girl'
p248
aS'without'
p249
aS'condom'
p250
asg10
S'fucks girl without condom'
p251
sg12
S' oh shit now shes 13 weeks pregnant.'
p252
sg14
Vmisunderstood-douchebag
p253
sg16
(lp254
g247
ag248
ag249
ag250
aS'oh'
p255
aS'shit'
p256
aS'now'
p257
aS'shes'
p258
aS'13'
p259
aS'weeks'
p260
aS'pregnant'
p261
ag242
asg23
(lp262
g255
ag256
ag257
ag258
ag259
ag260
ag261
ag242
asba(iMeme
Meme
p263
(dp264
g3
(lp265
S'wearing'
p266
aS'ed'
p267
aS'hardy'
p268
aS'shirt'
p269
aS'to'
p270
aS'family'
p271
aS'reunion'
p272
asg10
S'wearing ed hardy shirt to family reunion'
p273
sg12
S' grandma bought it for him for christmas'
p274
sg14
Vmisunderstood-douchebag
p275
sg16
(lp276
g266
ag267
ag268
ag269
ag270
ag271
ag272
aS'grandma'
p277
aS'bought'
p278
aS'it'
p279
aS'for'
p280
aS'him'
p281
aS'for'
p282
aS'christmas'
p283
asg23
(lp284
g277
ag278
ag279
ag280
ag281
ag282
ag283
asba(iMeme
Meme
p285
(dp286
g3
(lp287
S'fuck'
p288
aS'this'
p289
aS'shit'
p290
asg10
S'fuck this shit'
p291
sg12
S' shit on my face'
p292
sg14
Vmisunderstood-douchebag
p293
sg16
(lp294
g288
ag289
ag290
aS'shit'
p295
aS'on'
p296
aS'my'
p297
aS'face'
p298
asg23
(lp299
g295
ag296
ag297
ag298
asba(iMeme
Meme
p300
(dp301
g3
(lp302
S'cockblocks'
p303
aS'you'
p304
asg10
S'cockblocks you'
p305
sg12
S' because he knows she has herpes'
p306
sg14
Vmisunderstood-douchebag
p307
sg16
(lp308
g303
ag304
aS'because'
p309
aS'he'
p310
aS'knows'
p311
aS'she'
p312
aS'has'
p313
aS'herpes'
p314
asg23
(lp315
g309
ag310
ag311
ag312
ag313
ag314
asba(iMeme
Meme
p316
(dp317
g3
(lp318
S'spills'
p319
aS'his'
p320
aS'beer'
p321
aS'on'
p322
aS'your'
p323
aS'carpet'
p324
asg10
S'spills his beer on your carpet'
p325
sg12
S' he has cerebral palsy'
p326
sg14
Vmisunderstood-douchebag
p327
sg16
(lp328
g319
ag320
ag321
ag322
ag323
ag324
aS'he'
p329
aS'has'
p330
aS'cerebral'
p331
aS'palsy'
p332
asg23
(lp333
g329
ag330
ag331
ag332
asba(iMeme
Meme
p334
(dp335
g3
(lp336
S'posts'
p337
aS'shirtless'
p338
aS'photos'
p339
aS'on'
p340
aS'facebook'
p341
asg10
S'posts shirtless photos on facebook'
p342
sg12
S' proud of 200+ pound weight loss'
p343
sg14
Vmisunderstood-douchebag
p344
sg16
(lp345
g337
ag338
ag339
ag340
ag341
aS'proud'
p346
aS'of'
p347
aS'200+'
p348
aS'pound'
p349
aS'weight'
p350
aS'loss'
p351
asg23
(lp352
g346
ag347
ag348
ag349
ag350
ag351
asba(iMeme
Meme
p353
(dp354
g3
(lp355
S'hits'
p356
aS'on'
p357
aS'best'
p358
aS'friends'
p359
aS'girlfriend'
p360
aS'behind'
p361
aS'his'
p362
aS'back'
p363
asg10
S'hits on best friends girlfriend behind his back'
p364
sg12
S' to check if shes faithful'
p365
sg14
Vmisunderstood-douchebag
p366
sg16
(lp367
g356
ag357
ag358
ag359
ag360
ag361
ag362
ag363
aS'to'
p368
aS'check'
p369
aS'if'
p370
aS'shes'
p371
aS'faithful'
p372
asg23
(lp373
g368
ag369
ag370
ag371
ag372
asba(iMeme
Meme
p374
(dp375
g3
(lp376
S'hits'
p377
aS'on'
p378
aS'every'
p379
aS'girl'
p380
asg10
S'hits on every girl'
p381
sg12
S' to improve their self esteem'
p382
sg14
Vmisunderstood-douchebag
p383
sg16
(lp384
g377
ag378
ag379
ag380
aS'to'
p385
aS'improve'
p386
aS'their'
p387
aS'self'
p388
aS'esteem'
p389
asg23
(lp390
g385
ag386
ag387
ag388
ag389
asba(iMeme
Meme
p391
(dp392
g3
(lp393
S'wears'
p394
aS'retarded'
p395
aS'hipster'
p396
aS'outfit'
p397
asg10
S'wears retarded hipster outfit'
p398
sg12
S' afraid to put on make'
p399
sg14
Vmisunderstood-douchebag
p400
sg16
(lp401
g394
ag395
ag396
ag397
aS'afraid'
p402
aS'to'
p403
aS'put'
p404
aS'on'
p405
aS'make'
p406
asg23
(lp407
g402
ag403
ag404
ag405
ag406
asba(iMeme
Meme
p408
(dp409
g3
(lp410
S'hey'
p411
aS'andy'
p412
asg10
S'hey andy'
p413
sg12
S' can i have a beer'
p414
sg14
Vmisunderstood-douchebag
p415
sg16
(lp416
g411
ag412
aS'can'
p417
ag227
aS'have'
p418
ag6
aS'beer'
p419
asg23
(lp420
g417
ag227
ag418
ag6
ag419
asba(iMeme
Meme
p421
(dp422
g3
(lp423
S'is'
p424
aS'just'
p425
aS'good'
p426
aS'guy'
p427
aS'greg'
p428
asg10
S'is just good guy greg'
p429
sg12
S' is ok with it.'
p430
sg14
Vmisunderstood-douchebag
p431
sg16
(lp432
g424
ag425
ag426
ag427
ag428
aS'is'
p433
aS'ok'
p434
aS'with'
p435
aS'it'
p436
ag242
asg23
(lp437
g433
ag434
ag435
ag436
ag242
asba(iMeme
Meme
p438
(dp439
g3
(lp440
S'says'
p441
aS'he'
p442
aS'goes'
p443
aS'hard'
p444
aS'in'
p445
aS'the'
p446
aS'motherfucking'
p447
aS'paint'
p448
asg10
S'says he goes hard in the motherfucking paint'
p449
sg12
S' is excellent defensive basketball player'
p450
sg14
Vmisunderstood-douchebag
p451
sg16
(lp452
g441
ag442
ag443
ag444
ag445
ag446
ag447
ag448
aS'is'
p453
aS'excellent'
p454
aS'defensive'
p455
aS'basketball'
p456
aS'player'
p457
asg23
(lp458
g453
ag454
ag455
ag456
ag457
asba(iMeme
Meme
p459
(dp460
g3
(lp461
S'makes'
p462
ag6
aS'duckface'
p463
aS'in'
p464
aS'his'
p465
aS'facebook'
p466
aS'pic'
p467
asg10
S'makes a duckface in his facebook pic'
p468
sg12
S' is actually eating something sour'
p469
sg14
Vmisunderstood-douchebag
p470
sg16
(lp471
g462
ag6
ag463
ag464
ag465
ag466
ag467
aS'is'
p472
aS'actually'
p473
aS'eating'
p474
aS'something'
p475
aS'sour'
p476
asg23
(lp477
g472
ag473
ag474
ag475
ag476
asba(iMeme
Meme
p478
(dp479
g3
(lp480
S'im'
p481
aS'sexy'
p482
aS'and'
p483
ag227
aS'know'
p484
aS'it'
p485
asg10
S'im sexy and i know it'
p486
sg12
S' wait'
p487
sg14
Vmisunderstood-douchebag
p488
sg16
(lp489
g481
ag482
ag483
ag227
ag484
ag485
aS'wait'
p490
asg23
(lp491
g490
asba(iMeme
Meme
p492
(dp493
g3
(lp494
S'id'
p495
aS'hit'
p496
aS'that'
p497
asg10
S'id hit that'
p498
sg12
S' nail in again'
p499
sg14
Vmisunderstood-douchebag
p500
sg16
(lp501
g495
ag496
ag497
aS'nail'
p502
aS'in'
p503
aS'again'
p504
asg23
(lp505
g502
ag503
ag504
asba(iMeme
Meme
p506
(dp507
g3
(lp508
S'works'
p509
aS'at'
p510
aS'hollister'
p511
asg10
S'works at hollister'
p512
sg12
S' to help pay his moms medical bills'
p513
sg14
Vmisunderstood-douchebag
p514
sg16
(lp515
g509
ag510
ag511
aS'to'
p516
aS'help'
p517
aS'pay'
p518
aS'his'
p519
aS'moms'
p520
aS'medical'
p521
aS'bills'
p522
asg23
(lp523
g516
ag517
ag518
ag519
ag520
ag521
ag522
asba(iMeme
Meme
p524
(dp525
g3
(lp526
S'drives'
p527
ag6
aS'bmw'
p528
asg10
S'drives a bmw'
p529
sg12
S' dead dad owned it'
p530
sg14
Vmisunderstood-douchebag
p531
sg16
(lp532
g527
ag6
ag528
aS'dead'
p533
aS'dad'
p534
aS'owned'
p535
aS'it'
p536
asg23
(lp537
g533
ag534
ag535
ag536
asba(iMeme
Meme
p538
(dp539
g3
(lp540
g227
aS'have'
p541
ag6
aS'soul'
p542
aS'patch'
p543
asg10
S'i have a soul patch'
p544
sg12
S' because my electric razor died when i was sending my hair to the bp oil spill clean up.'
p545
sg14
Vmisunderstood-douchebag
p546
sg16
(lp547
g227
ag541
ag6
ag542
ag543
aS'because'
p548
aS'my'
p549
aS'electric'
p550
aS'razor'
p551
aS'died'
p552
aS'when'
p553
ag227
aS'was'
p554
aS'sending'
p555
aS'my'
p556
aS'hair'
p557
aS'to'
p558
aS'the'
p559
aS'bp'
p560
aS'oil'
p561
aS'spill'
p562
aS'clean'
p563
aS'up'
p564
ag242
asg23
(lp565
g548
ag549
ag550
ag551
ag552
ag553
ag227
ag554
ag555
ag556
ag557
ag558
ag559
ag560
ag561
ag562
ag563
ag564
ag242
asba(iMeme
Meme
p566
(dp567
g3
(lp568
S'takes'
p569
aS'off'
p570
aS'his'
p571
aS'shirt'
p572
aS'while'
p573
aS'walking'
p574
aS'down'
p575
aS'the'
p576
aS'street'
p577
asg10
S'takes off his shirt while walking down the street'
p578
sg12
S' gives it to homeless guy'
p579
sg14
Vmisunderstood-douchebag
p580
sg16
(lp581
g569
ag570
ag571
ag572
ag573
ag574
ag575
ag576
ag577
aS'gives'
p582
aS'it'
p583
aS'to'
p584
aS'homeless'
p585
aS'guy'
p586
asg23
(lp587
g582
ag583
ag584
ag585
ag586
asba(iMeme
Meme
p588
(dp589
g3
(lp590
S'pops'
p591
aS'his'
p592
aS'collart'
p593
asg10
S'pops his collart'
p594
sg12
S' to cover his nasty sunburn'
p595
sg14
Vmisunderstood-douchebag
p596
sg16
(lp597
g591
ag592
ag593
aS'to'
p598
aS'cover'
p599
aS'his'
p600
aS'nasty'
p601
aS'sunburn'
p602
asg23
(lp603
g598
ag599
ag600
ag601
ag602
asba(iMeme
Meme
p604
(dp605
g3
(lp606
S'drives'
p607
aS'40'
p608
aS'miles'
p609
aS'over'
p610
aS'the'
p611
aS'limit'
p612
asg10
S'drives 40 miles over the limit'
p613
sg12
S' to bring a battered homeless man to the hospital'
p614
sg14
Vmisunderstood-douchebag
p615
sg16
(lp616
g607
ag608
ag609
ag610
ag611
ag612
aS'to'
p617
aS'bring'
p618
ag6
aS'battered'
p619
aS'homeless'
p620
aS'man'
p621
aS'to'
p622
aS'the'
p623
aS'hospital'
p624
asg23
(lp625
g617
ag618
ag6
ag619
ag620
ag621
ag622
ag623
ag624
asba(iMeme
Meme
p626
(dp627
g3
(lp628
S'hates'
p629
aS'black'
p630
aS'people'
p631
asg10
S'hates black people'
p632
sg12
S' because they are different'
p633
sg14
Vmisunderstood-douchebag
p634
sg16
(lp635
g629
ag630
ag631
aS'because'
p636
aS'they'
p637
aS'are'
p638
aS'different'
p639
asg23
(lp640
g636
ag637
ag638
ag639
asba(iMeme
Meme
p641
(dp642
g3
(lp643
g227
aS'dont'
p644
aS'understand'
p645
asg10
S'i dont understand'
p646
sg12
S' what you mean'
p647
sg14
Vmisunderstood-douchebag
p648
sg16
(lp649
g227
ag644
ag645
aS'what'
p650
aS'you'
p651
aS'mean'
p652
asg23
(lp653
g650
ag651
ag652
asba(iMeme
Meme
p654
(dp655
g3
(lp656
S'picks'
p657
aS'up'
p658
aS'hooker'
p659
asg10
S'picks up hooker'
p660
sg12
S' needed someone to talk to'
p661
sg14
Vmisunderstood-douchebag
p662
sg16
(lp663
g657
ag658
ag659
aS'needed'
p664
aS'someone'
p665
aS'to'
p666
aS'talk'
p667
aS'to'
p668
asg23
(lp669
g664
ag665
ag666
ag667
ag668
asba(iMeme
Meme
p670
(dp671
g3
(lp672
S'makes'
p673
aS'crude'
p674
aS'joke'
p675
aS'about'
p676
aS'gay'
p677
aS'people'
p678
asg10
S'makes crude joke about gay people'
p679
sg12
S' is actually openly gay himself'
p680
sg14
Vmisunderstood-douchebag
p681
sg16
(lp682
g673
ag674
ag675
ag676
ag677
ag678
aS'is'
p683
aS'actually'
p684
aS'openly'
p685
aS'gay'
p686
aS'himself'
p687
asg23
(lp688
g683
ag684
ag685
ag686
ag687
asba(iMeme
Meme
p689
(dp690
g3
(lp691
S'doesnt'
p692
aS'use'
p693
aS'turn'
p694
aS'signals'
p695
asg10
S'doesnt use turn signals'
p696
sg12
S' theyre broken'
p697
sg14
Vmisunderstood-douchebag
p698
sg16
(lp699
g692
ag693
ag694
ag695
aS'theyre'
p700
aS'broken'
p701
asg23
(lp702
g700
ag701
asba(iMeme
Meme
p703
(dp704
g3
(lp705
S'talks'
p706
aS'loud'
p707
aS'on'
p708
aS'the'
p709
aS'phone'
p710
asg10
S'talks loud on the phone'
p711
sg12
S' person on other end is hard of hearing'
p712
sg14
Vmisunderstood-douchebag
p713
sg16
(lp714
g706
ag707
ag708
ag709
ag710
aS'person'
p715
aS'on'
p716
aS'other'
p717
aS'end'
p718
aS'is'
p719
aS'hard'
p720
aS'of'
p721
aS'hearing'
p722
asg23
(lp723
g715
ag716
ag717
ag718
ag719
ag720
ag721
ag722
asba(iMeme
Meme
p724
(dp725
g3
(lp726
S'made'
p727
aS'his'
p728
aS'girlfriend'
p729
aS'cry'
p730
asg10
S'made his girlfriend cry'
p731
sg12
S' tears of joy'
p732
sg14
Vmisunderstood-douchebag
p733
sg16
(lp734
g727
ag728
ag729
ag730
aS'tears'
p735
aS'of'
p736
aS'joy'
p737
asg23
(lp738
g735
ag736
ag737
asba(iMeme
Meme
p739
(dp740
g3
(lp741
S'wears'
p742
aS'no'
p743
aS'shirt'
p744
aS'in'
p745
aS'public'
p746
asg10
S'wears no shirt in public'
p747
sg12
S' gave it to a homeless guy'
p748
sg14
Vmisunderstood-douchebag
p749
sg16
(lp750
g742
ag743
ag744
ag745
ag746
aS'gave'
p751
aS'it'
p752
aS'to'
p753
ag6
aS'homeless'
p754
aS'guy'
p755
asg23
(lp756
g751
ag752
ag753
ag6
ag754
ag755
asba(iMeme
Meme
p757
(dp758
g3
(lp759
S'be'
p760
ag6
aS'considerate'
p761
aS'partner'
p762
asg10
S'be a considerate partner'
p763
sg12
S' how do keep yourself fresh?'
p764
sg14
Vmisunderstood-douchebag
p765
sg16
(lp766
g760
ag6
ag761
ag762
aS'how'
p767
aS'do'
p768
aS'keep'
p769
aS'yourself'
p770
aS'fresh'
p771
aS'?'
p772
asg23
(lp773
g767
ag768
ag769
ag770
ag771
ag772
asba(iMeme
Meme
p774
(dp775
g3
(lp776
S'named'
p777
aS'steve'
p778
asg10
S'named steve'
p779
sg12
S' after his jew'
p780
sg14
Vmisunderstood-douchebag
p781
sg16
(lp782
g777
ag778
aS'after'
p783
aS'his'
p784
aS'jew'
p785
asg23
(lp786
g783
ag784
ag785
asba(iMeme
Meme
p787
(dp788
g3
(lp789
S'goes'
p790
aS'on'
p791
aS'chatroulette'
p792
asg10
S'goes on chatroulette'
p793
sg12
S' to tell guys to hide their dicks'
p794
sg14
Vmisunderstood-douchebag
p795
sg16
(lp796
g790
ag791
ag792
aS'to'
p797
aS'tell'
p798
aS'guys'
p799
aS'to'
p800
aS'hide'
p801
aS'their'
p802
aS'dicks'
p803
asg23
(lp804
g797
ag798
ag799
ag800
ag801
ag802
ag803
asba(iMeme
Meme
p805
(dp806
g3
(lp807
S'tailgating'
p808
aS'you'
p809
asg10
S'tailgating you'
p810
sg12
S' just wants to read your bumper stickers'
p811
sg14
Vmisunderstood-douchebag
p812
sg16
(lp813
g808
ag809
aS'just'
p814
aS'wants'
p815
aS'to'
p816
aS'read'
p817
aS'your'
p818
aS'bumper'
p819
aS'stickers'
p820
asg23
(lp821
g814
ag815
ag816
ag817
ag818
ag819
ag820
asba(iMeme
Meme
p822
(dp823
g3
(lp824
S'passes'
p825
aS'out'
p826
aS'drunk'
p827
asg10
S'passes out drunk'
p828
sg12
S' driving awareness flyers for s.a.d.d.'
p829
sg14
Vmisunderstood-douchebag
p830
sg16
(lp831
g825
ag826
ag827
aS'driving'
p832
aS'awareness'
p833
aS'flyers'
p834
aS'for'
p835
aS's.a.d.d'
p836
ag242
asg23
(lp837
g832
ag833
ag834
ag835
ag836
ag242
asba(iMeme
Meme
p838
(dp839
g3
(lp840
S'has'
p841
aS'you'
p842
aS'do'
p843
aS'the'
p844
aS'hardest'
p845
aS'drafting'
p846
aS'first'
p847
asg10
S'has you do the hardest drafting first'
p848
sg12
S' because its what all your other draftings are based off of'
p849
sg14
Vmisunderstood-douchebag
p850
sg16
(lp851
g841
ag842
ag843
ag844
ag845
ag846
ag847
aS'because'
p852
aS'its'
p853
aS'what'
p854
aS'all'
p855
aS'your'
p856
aS'other'
p857
aS'draftings'
p858
aS'are'
p859
aS'based'
p860
aS'off'
p861
aS'of'
p862
asg23
(lp863
g852
ag853
ag854
ag855
ag856
ag857
ag858
ag859
ag860
ag861
ag862
asba(iMeme
Meme
p864
(dp865
g3
(lp866
S'asks'
p867
aS'girl'
p868
aS'out'
p869
asg10
S'asks girl out'
p870
sg12
S' finds out shes his sister'
p871
sg14
Vmisunderstood-douchebag
p872
sg16
(lp873
g867
ag868
ag869
aS'finds'
p874
aS'out'
p875
aS'shes'
p876
aS'his'
p877
aS'sister'
p878
asg23
(lp879
g874
ag875
ag876
ag877
ag878
asba(iMeme
Meme
p880
(dp881
g3
(lp882
S'blasts'
p883
aS'music'
p884
aS'while'
p885
aS'driving'
p886
asg10
S'blasts music while driving'
p887
sg12
S' is partially deaf'
p888
sg14
Vmisunderstood-douchebag
p889
sg16
(lp890
g883
ag884
ag885
ag886
aS'is'
p891
aS'partially'
p892
aS'deaf'
p893
asg23
(lp894
g891
ag892
ag893
asba(iMeme
Meme
p895
(dp896
g3
(lp897
S'goes'
p898
aS'on'
p899
aS'missions'
p900
aS'trips'
p901
asg10
S'goes on missions trips'
p902
sg12
S' to hit on impoverished girls'
p903
sg14
Vmisunderstood-douchebag
p904
sg16
(lp905
g898
ag899
ag900
ag901
aS'to'
p906
aS'hit'
p907
aS'on'
p908
aS'impoverished'
p909
aS'girls'
p910
asg23
(lp911
g906
ag907
ag908
ag909
ag910
asba(iMeme
Meme
p912
(dp913
g3
(lp914
S'named'
p915
aS'steve'
p916
asg10
S'named steve'
p917
sg12
S' after his jewish saving grandfather'
p918
sg14
Vmisunderstood-douchebag
p919
sg16
(lp920
g915
ag916
aS'after'
p921
aS'his'
p922
aS'jewish'
p923
aS'saving'
p924
aS'grandfather'
p925
asg23
(lp926
g921
ag922
ag923
ag924
ag925
asba(iMeme
Meme
p927
(dp928
g3
(lp929
S'picks'
p930
aS'up'
p931
aS'hooker'
p932
asg10
S'picks up hooker'
p933
sg12
S' gives pep talk'
p934
sg14
Vmisunderstood-douchebag
p935
sg16
(lp936
g930
ag931
ag932
aS'gives'
p937
aS'pep'
p938
aS'talk'
p939
asg23
(lp940
g937
ag938
ag939
asba(iMeme
Meme
p941
(dp942
g3
(lp943
S'drives'
p944
ag6
aS'truck'
p945
asg10
S'drives a truck'
p946
sg12
S' actually needs it for work'
p947
sg14
Vmisunderstood-douchebag
p948
sg16
(lp949
g944
ag6
ag945
aS'actually'
p950
aS'needs'
p951
aS'it'
p952
aS'for'
p953
aS'work'
p954
asg23
(lp955
g950
ag951
ag952
ag953
ag954
asba(iMeme
Meme
p956
(dp957
g3
(lp958
S'tried'
p959
aS'marijuana'
p960
asg10
S'tried marijuana'
p961
sg12
S' wrote an essay based on inner emotional experiences the next day'
p962
sg14
Vmisunderstood-douchebag
p963
sg16
(lp964
g959
ag960
aS'wrote'
p965
aS'an'
p966
aS'essay'
p967
aS'based'
p968
aS'on'
p969
aS'inner'
p970
aS'emotional'
p971
aS'experiences'
p972
aS'the'
p973
aS'next'
p974
aS'day'
p975
asg23
(lp976
g965
ag966
ag967
ag968
ag969
ag970
ag971
ag972
ag973
ag974
ag975
asba(iMeme
Meme
p977
(dp978
g3
(lp979
S'oh'
p980
aS'yeah'
p981
ag242
asg10
S'oh yeah.'
p982
sg12
S' a little bit more to the left.'
p983
sg14
Vmisunderstood-douchebag
p984
sg16
(lp985
g980
ag981
ag242
ag6
aS'little'
p986
aS'bit'
p987
aS'more'
p988
aS'to'
p989
aS'the'
p990
aS'left'
p991
ag242
asg23
(lp992
g6
ag986
ag987
ag988
ag989
ag990
ag991
ag242
asba(iMeme
Meme
p993
(dp994
g3
(lp995
S'asks'
p996
aS'hot'
p997
aS'girl'
p998
aS'to'
p999
aS'come'
p1000
aS'to'
p1001
aS'his'
p1002
aS'place'
p1003
aS'late'
p1004
aS'at'
p1005
aS'night'
p1006
aS'alone'
p1007
asg10
S'asks hot girl to come to his place late at night alone'
p1008
sg12
S' hes a single father and needs a babysitter so he can work'
p1009
sg14
Vmisunderstood-douchebag
p1010
sg16
(lp1011
g996
ag997
ag998
ag999
ag1000
ag1001
ag1002
ag1003
ag1004
ag1005
ag1006
ag1007
aS'hes'
p1012
ag6
aS'single'
p1013
aS'father'
p1014
aS'and'
p1015
aS'needs'
p1016
ag6
aS'babysitter'
p1017
aS'so'
p1018
aS'he'
p1019
aS'can'
p1020
aS'work'
p1021
asg23
(lp1022
g1012
ag6
ag1013
ag1014
ag1015
ag1016
ag6
ag1017
ag1018
ag1019
ag1020
ag1021
asba(iMeme
Meme
p1023
(dp1024
g3
(lp1025
S'plays'
p1026
aS'guitar'
p1027
aS'badly'
p1028
asg10
S'plays guitar badly'
p1029
sg12
S' to try to help his daughter sleep'
p1030
sg14
Vmisunderstood-douchebag
p1031
sg16
(lp1032
g1026
ag1027
ag1028
aS'to'
p1033
aS'try'
p1034
aS'to'
p1035
aS'help'
p1036
aS'his'
p1037
aS'daughter'
p1038
aS'sleep'
p1039
asg23
(lp1040
g1033
ag1034
ag1035
ag1036
ag1037
ag1038
ag1039
asba(iMeme
Meme
p1041
(dp1042
g3
(lp1043
S'wears'
p1044
aS'blue'
p1045
aS'polo'
p1046
asg10
S'wears blue polo'
p1047
sg12
S' professional golfer'
p1048
sg14
Vmisunderstood-douchebag
p1049
sg16
(lp1050
g1044
ag1045
ag1046
aS'professional'
p1051
aS'golfer'
p1052
asg23
(lp1053
g1051
ag1052
asba(iMeme
Meme
p1054
(dp1055
g3
(lp1056
S'aliens'
p1057
ag772
asg10
S'aliens?'
p1058
sg12
S' must be aliens.'
p1059
sg14
Vmisunderstood-douchebag
p1060
sg16
(lp1061
g1057
ag772
aS'must'
p1062
aS'be'
p1063
aS'aliens'
p1064
ag242
asg23
(lp1065
g1062
ag1063
ag1064
ag242
asba(iMeme
Meme
p1066
(dp1067
g3
(lp1068
S'tells'
p1069
ag6
aS'girl'
p1070
aS'to'
p1071
aS'back'
p1072
aS'it'
p1073
aS'up'
p1074
asg10
S'tells a girl to back it up'
p1075
sg12
S' girl scowls. girls car t'
p1076
sg14
Vmisunderstood-douchebag
p1077
sg16
(lp1078
g1069
ag6
ag1070
ag1071
ag1072
ag1073
ag1074
aS'girl'
p1079
aS'scowls'
p1080
ag242
aS'girls'
p1081
aS'car'
p1082
aS't'
p1083
asg23
(lp1084
g1079
ag1080
ag242
ag1081
ag1082
ag1083
asba(iMeme
Meme
p1085
(dp1086
g3
(lp1087
S'doesnt'
p1088
aS'pick'
p1089
aS'up'
p1090
aS'his'
p1091
aS'dog'
p1092
aS'shit'
p1093
asg10
S'doesnt pick up his dog shit'
p1094
sg12
S' used his last bag picking up someone elses'
p1095
sg14
Vmisunderstood-douchebag
p1096
sg16
(lp1097
g1088
ag1089
ag1090
ag1091
ag1092
ag1093
aS'used'
p1098
aS'his'
p1099
aS'last'
p1100
aS'bag'
p1101
aS'picking'
p1102
aS'up'
p1103
aS'someone'
p1104
aS'elses'
p1105
asg23
(lp1106
g1098
ag1099
ag1100
ag1101
ag1102
ag1103
ag1104
ag1105
asba(iMeme
Meme
p1107
(dp1108
g3
(lp1109
S'wears'
p1110
ag6
aS'fannypack'
p1111
asg10
S'wears a fannypack'
p1112
sg12
S' likes others who also wear one.'
p1113
sg14
Vmisunderstood-douchebag
p1114
sg16
(lp1115
g1110
ag6
ag1111
aS'likes'
p1116
aS'others'
p1117
aS'who'
p1118
aS'also'
p1119
aS'wear'
p1120
aS'one'
p1121
ag242
asg23
(lp1122
g1116
ag1117
ag1118
ag1119
ag1120
ag1121
ag242
asba(iMeme
Meme
p1123
(dp1124
g3
(lp1125
S'picks'
p1126
aS'lock'
p1127
aS'of'
p1128
aS'car'
p1129
asg10
S'picks lock of car'
p1130
sg12
S' actually forgot his keys'
p1131
sg14
Vmisunderstood-douchebag
p1132
sg16
(lp1133
g1126
ag1127
ag1128
ag1129
aS'actually'
p1134
aS'forgot'
p1135
aS'his'
p1136
aS'keys'
p1137
asg23
(lp1138
g1134
ag1135
ag1136
ag1137
asba(iMeme
Meme
p1139
(dp1140
g3
(lp1141
S'suck'
p1142
aS'my'
p1143
aS'dick'
p1144
asg10
S'suck my dick'
p1145
sg12
S' danny'
p1146
sg14
Vmisunderstood-douchebag
p1147
sg16
(lp1148
g1142
ag1143
ag1144
aS'danny'
p1149
asg23
(lp1150
g1149
asba(iMeme
Meme
p1151
(dp1152
g3
(lp1153
S'thats'
p1154
ag6
aS'cool'
p1155
aS'song'
p1156
aS'bro'
p1157
asg10
S'thats a cool song bro'
p1158
sg12
S' only likes the song'
p1159
sg14
Vmisunderstood-douchebag
p1160
sg16
(lp1161
g1154
ag6
ag1155
ag1156
ag1157
aS'only'
p1162
aS'likes'
p1163
aS'the'
p1164
aS'song'
p1165
asg23
(lp1166
g1162
ag1163
ag1164
ag1165
asba(iMeme
Meme
p1167
(dp1168
g3
(lp1169
S'chelsea'
p1170
aS'finally'
p1171
aS'sign'
p1172
ag6
aS'defender'
p1173
aS'who'
p1174
aS'wont'
p1175
aS'trip'
p1176
aS'over'
p1177
asg10
S'chelsea finally sign a defender who wont trip over'
p1178
sg12
S' things are looking up(ca)hill'
p1179
sg14
Vmisunderstood-douchebag
p1180
sg16
(lp1181
g1170
ag1171
ag1172
ag6
ag1173
ag1174
ag1175
ag1176
ag1177
aS'things'
p1182
aS'are'
p1183
aS'looking'
p1184
aS'up'
p1185
aS'('
p1186
aS'ca'
p1187
aS')'
p1188
aS'hill'
p1189
asg23
(lp1190
g1182
ag1183
ag1184
ag1185
ag1186
ag1187
ag1188
ag1189
asba(iMeme
Meme
p1191
(dp1192
g3
(lp1193
S'gets'
p1194
aS'mad'
p1195
aS'pussy'
p1196
asg10
S'gets mad pussy'
p1197
sg12
S' to settle down with gentle voice'
p1198
sg14
Vmisunderstood-douchebag
p1199
sg16
(lp1200
g1194
ag1195
ag1196
aS'to'
p1201
aS'settle'
p1202
aS'down'
p1203
aS'with'
p1204
aS'gentle'
p1205
aS'voice'
p1206
asg23
(lp1207
g1201
ag1202
ag1203
ag1204
ag1205
ag1206
asba(iMeme
Meme
p1208
(dp1209
g3
(lp1210
S'picks'
p1211
aS'up'
p1212
aS'hoes'
p1213
asg10
S'picks up hoes'
p1214
sg12
S' buys them for a struggling farmer'
p1215
sg14
Vmisunderstood-douchebag
p1216
sg16
(lp1217
g1211
ag1212
ag1213
aS'buys'
p1218
aS'them'
p1219
aS'for'
p1220
ag6
aS'struggling'
p1221
aS'farmer'
p1222
asg23
(lp1223
g1218
ag1219
ag1220
ag6
ag1221
ag1222
asba(iMeme
Meme
p1224
(dp1225
g3
(lp1226
S'wears'
p1227
aS'shirts'
p1228
aS'way'
p1229
aS'to'
p1230
aS'small'
p1231
aS'all'
p1232
aS'the'
p1233
aS'time'
p1234
asg10
S'wears shirts way to small all the time'
p1235
sg12
S' grandma makes them for him'
p1236
sg14
Vmisunderstood-douchebag
p1237
sg16
(lp1238
g1227
ag1228
ag1229
ag1230
ag1231
ag1232
ag1233
ag1234
aS'grandma'
p1239
aS'makes'
p1240
aS'them'
p1241
aS'for'
p1242
aS'him'
p1243
asg23
(lp1244
g1239
ag1240
ag1241
ag1242
ag1243
asba(iMeme
Meme
p1245
(dp1246
g3
(lp1247
S'shows'
p1248
aS'off'
p1249
aS'his'
p1250
aS'abs'
p1251
aS'on'
p1252
aS'facebook'
p1253
asg10
S'shows off his abs on facebook'
p1254
sg12
S' proving that he lost 100lbs through a normal diet and excersize.'
p1255
sg14
Vmisunderstood-douchebag
p1256
sg16
(lp1257
g1248
ag1249
ag1250
ag1251
ag1252
ag1253
aS'proving'
p1258
aS'that'
p1259
aS'he'
p1260
aS'lost'
p1261
aS'100lbs'
p1262
aS'through'
p1263
ag6
aS'normal'
p1264
aS'diet'
p1265
aS'and'
p1266
aS'excersize'
p1267
ag242
asg23
(lp1268
g1258
ag1259
ag1260
ag1261
ag1262
ag1263
ag6
ag1264
ag1265
ag1266
ag1267
ag242
asba(iMeme
Meme
p1269
(dp1270
g3
(lp1271
S'says'
p1272
aS'im'
p1273
aS'not'
p1274
ag6
aS'douchebag'
p1275
asg10
S'says im not a douchebag'
p1276
sg12
S' everyone hates him more'
p1277
sg14
Vmisunderstood-douchebag
p1278
sg16
(lp1279
g1272
ag1273
ag1274
ag6
ag1275
aS'everyone'
p1280
aS'hates'
p1281
aS'him'
p1282
aS'more'
p1283
asg23
(lp1284
g1280
ag1281
ag1282
ag1283
asba(iMeme
Meme
p1285
(dp1286
g3
(lp1287
S'brags'
p1288
aS'about'
p1289
aS'how'
p1290
aS'hot'
p1291
aS'his'
p1292
aS'girlfriend'
p1293
aS'is'
p1294
asg10
S'brags about how hot his girlfriend is'
p1295
sg12
S' trying to raise her self esteem'
p1296
sg14
Vmisunderstood-douchebag
p1297
sg16
(lp1298
g1288
ag1289
ag1290
ag1291
ag1292
ag1293
ag1294
aS'trying'
p1299
aS'to'
p1300
aS'raise'
p1301
aS'her'
p1302
aS'self'
p1303
aS'esteem'
p1304
asg23
(lp1305
g1299
ag1300
ag1301
ag1302
ag1303
ag1304
asba(iMeme
Meme
p1306
(dp1307
g3
(lp1308
S'you'
p1309
aS'got'
p1310
aS'ta'
p1311
aS'problem'
p1312
aS'with'
p1313
aS'me'
p1314
asg10
S'you gotta problem with me'
p1315
sg12
S' genuinely concerned if his behaviour is bothering you'
p1316
sg14
Vmisunderstood-douchebag
p1317
sg16
(lp1318
g1309
ag1310
ag1311
ag1312
ag1313
ag1314
aS'genuinely'
p1319
aS'concerned'
p1320
aS'if'
p1321
aS'his'
p1322
aS'behaviour'
p1323
aS'is'
p1324
aS'bothering'
p1325
aS'you'
p1326
asg23
(lp1327
g1319
ag1320
ag1321
ag1322
ag1323
ag1324
ag1325
ag1326
asba(iMeme
Meme
p1328
(dp1329
g3
(lp1330
S'has'
p1331
aS'sex'
p1332
aS'with'
p1333
ag6
aS'girl'
p1334
asg10
S'has sex with a girl'
p1335
sg12
S' its his wife'
p1336
sg14
Vmisunderstood-douchebag
p1337
sg16
(lp1338
g1331
ag1332
ag1333
ag6
ag1334
aS'its'
p1339
aS'his'
p1340
aS'wife'
p1341
asg23
(lp1342
g1339
ag1340
ag1341
asba(iMeme
Meme
p1343
(dp1344
g3
(lp1345
S'riding'
p1346
aS'your'
p1347
aS'ass'
p1348
aS'in'
p1349
aS'traffic'
p1350
asg10
S'riding your ass in traffic'
p1351
sg12
S' wants to read your witty bumper sticker'
p1352
sg14
Vmisunderstood-douchebag
p1353
sg16
(lp1354
g1346
ag1347
ag1348
ag1349
ag1350
aS'wants'
p1355
aS'to'
p1356
aS'read'
p1357
aS'your'
p1358
aS'witty'
p1359
aS'bumper'
p1360
aS'sticker'
p1361
asg23
(lp1362
g1355
ag1356
ag1357
ag1358
ag1359
ag1360
ag1361
asba(iMeme
Meme
p1363
(dp1364
g3
(lp1365
S'constantly'
p1366
aS'interrupts'
p1367
aS'during'
p1368
aS'meetings'
p1369
asg10
S'constantly interrupts during meetings'
p1370
sg12
S' to refocus the group on deliverables'
p1371
sg14
Vmisunderstood-douchebag
p1372
sg16
(lp1373
g1366
ag1367
ag1368
ag1369
aS'to'
p1374
aS'refocus'
p1375
aS'the'
p1376
aS'group'
p1377
aS'on'
p1378
aS'deliverables'
p1379
asg23
(lp1380
g1374
ag1375
ag1376
ag1377
ag1378
ag1379
asba(iMeme
Meme
p1381
(dp1382
g3
(lp1383
S'leaves'
p1384
aS'the'
p1385
aS'party'
p1386
aS'with'
p1387
aS'two'
p1388
aS'chicks'
p1389
asg10
S'leaves the party with two chicks'
p1390
sg12
S' just wants to make sure they get home safe'
p1391
sg14
Vmisunderstood-douchebag
p1392
sg16
(lp1393
g1384
ag1385
ag1386
ag1387
ag1388
ag1389
aS'just'
p1394
aS'wants'
p1395
aS'to'
p1396
aS'make'
p1397
aS'sure'
p1398
aS'they'
p1399
aS'get'
p1400
aS'home'
p1401
aS'safe'
p1402
asg23
(lp1403
g1394
ag1395
ag1396
ag1397
ag1398
ag1399
ag1400
ag1401
ag1402
asba(iMeme
Meme
p1404
(dp1405
g3
(lp1406
S'breaks'
p1407
aS'up'
p1408
aS'with'
p1409
aS'gf'
p1410
asg10
S'breaks up with gf'
p1411
sg12
S' cybers instead of being on mumble'
p1412
sg14
Vmisunderstood-douchebag
p1413
sg16
(lp1414
g1407
ag1408
ag1409
ag1410
aS'cybers'
p1415
aS'instead'
p1416
aS'of'
p1417
aS'being'
p1418
aS'on'
p1419
aS'mumble'
p1420
asg23
(lp1421
g1415
ag1416
ag1417
ag1418
ag1419
ag1420
asba(iMeme
Meme
p1422
(dp1423
g3
(lp1424
S'looks'
p1425
aS'like'
p1426
aS'that'
p1427
asg10
S'looks like that'
p1428
sg12
S' by chance'
p1429
sg14
Vmisunderstood-douchebag
p1430
sg16
(lp1431
g1425
ag1426
ag1427
aS'by'
p1432
aS'chance'
p1433
asg23
(lp1434
g1432
ag1433
asba(iMeme
Meme
p1435
(dp1436
g3
(lp1437
S'smiles'
p1438
aS'like'
p1439
aS'that'
p1440
asg10
S'smiles like that'
p1441
sg12
S' he looks at a butterfly'
p1442
sg14
Vmisunderstood-douchebag
p1443
sg16
(lp1444
g1438
ag1439
ag1440
aS'he'
p1445
aS'looks'
p1446
aS'at'
p1447
ag6
aS'butterfly'
p1448
asg23
(lp1449
g1445
ag1446
ag1447
ag6
ag1448
asba(iMeme
Meme
p1450
(dp1451
g3
(lp1452
S'pick'
p1453
aS'up'
p1454
aS'the'
p1455
aS'birds'
p1456
asg10
S'pick up the birds'
p1457
sg12
S' at nrg'
p1458
sg14
Vmisunderstood-douchebag
p1459
sg16
(lp1460
g1453
ag1454
ag1455
ag1456
aS'at'
p1461
aS'nrg'
p1462
asg23
(lp1463
g1461
ag1462
asba(iMeme
Meme
p1464
(dp1465
g3
(lp1466
S'mud'
p1467
aS'wrestles'
p1468
asg10
S'mud wrestles'
p1469
sg12
S' all proceeds go to mspca'
p1470
sg14
Vmisunderstood-douchebag
p1471
sg16
(lp1472
g1467
ag1468
aS'all'
p1473
aS'proceeds'
p1474
aS'go'
p1475
aS'to'
p1476
aS'mspca'
p1477
asg23
(lp1478
g1473
ag1474
ag1475
ag1476
ag1477
asba(iMeme
Meme
p1479
(dp1480
g3
(lp1481
S'installed'
p1482
aS'lambo'
p1483
aS'doors'
p1484
aS'on'
p1485
aS'his'
p1486
aS'nissan'
p1487
asg10
S'installed lambo doors on his nissan'
p1488
sg12
S' easier for him to exit vehicle with wheelchair'
p1489
sg14
Vmisunderstood-douchebag
p1490
sg16
(lp1491
g1482
ag1483
ag1484
ag1485
ag1486
ag1487
aS'easier'
p1492
aS'for'
p1493
aS'him'
p1494
aS'to'
p1495
aS'exit'
p1496
aS'vehicle'
p1497
aS'with'
p1498
aS'wheelchair'
p1499
asg23
(lp1500
g1492
ag1493
ag1494
ag1495
ag1496
ag1497
ag1498
ag1499
asba(iMeme
Meme
p1501
(dp1502
g3
(lp1503
S'im'
p1504
aS'stelter'
p1505
asg10
S'im stelter'
p1506
sg12
S' i cheat at golf'
p1507
sg14
Vmisunderstood-douchebag
p1508
sg16
(lp1509
g1504
ag1505
ag227
aS'cheat'
p1510
aS'at'
p1511
aS'golf'
p1512
asg23
(lp1513
g227
ag1510
ag1511
ag1512
asba(iMeme
Meme
p1514
(dp1515
g3
(lp1516
S'picks'
p1517
aS'up'
p1518
aS'the'
p1519
aS'birds'
p1520
asg10
S'picks up the birds'
p1521
sg12
S' at nrg'
p1522
sg14
Vmisunderstood-douchebag
p1523
sg16
(lp1524
g1517
ag1518
ag1519
ag1520
aS'at'
p1525
aS'nrg'
p1526
asg23
(lp1527
g1525
ag1526
asba(iMeme
Meme
p1528
(dp1529
g3
(lp1530
S'every'
p1531
aS'weekend'
p1532
aS'he'
p1533
aS'gets'
p1534
aS'hammered'
p1535
asg10
S'every weekend he gets hammered'
p1536
sg12
S' with family activitys for him'
p1537
sg14
Vmisunderstood-douchebag
p1538
sg16
(lp1539
g1531
ag1532
ag1533
ag1534
ag1535
aS'with'
p1540
aS'family'
p1541
aS'activitys'
p1542
aS'for'
p1543
aS'him'
p1544
asg23
(lp1545
g1540
ag1541
ag1542
ag1543
ag1544
asba(iMeme
Meme
p1546
(dp1547
g3
(lp1548
S'every'
p1549
aS'weekend'
p1550
aS'he'
p1551
aS'gets'
p1552
aS'hammered'
p1553
asg10
S'every weekend he gets hammered'
p1554
sg12
S' with family activitys for him'
p1555
sg14
Vmisunderstood-douchebag
p1556
sg16
(lp1557
g1549
ag1550
ag1551
ag1552
ag1553
aS'with'
p1558
aS'family'
p1559
aS'activitys'
p1560
aS'for'
p1561
aS'him'
p1562
asg23
(lp1563
g1558
ag1559
ag1560
ag1561
ag1562
asba(iMeme
Meme
p1564
(dp1565
g3
(lp1566
S'ruins'
p1567
aS'your'
p1568
aS'table'
p1569
aS'at'
p1570
aS'your'
p1571
aS'party'
p1572
asg10
S'ruins your table at your party'
p1573
sg12
S' replaces it with a table 200$ more expensive'
p1574
sg14
Vmisunderstood-douchebag
p1575
sg16
(lp1576
g1567
ag1568
ag1569
ag1570
ag1571
ag1572
aS'replaces'
p1577
aS'it'
p1578
aS'with'
p1579
ag6
aS'table'
p1580
aS'200'
p1581
aS'$'
p1582
aS'more'
p1583
aS'expensive'
p1584
asg23
(lp1585
g1577
ag1578
ag1579
ag6
ag1580
ag1581
ag1582
ag1583
ag1584
asba(iMeme
Meme
p1586
(dp1587
g3
(lp1588
S'makes'
p1589
aS'all'
p1590
aS'his'
p1591
aS'upvotes'
p1592
aS'worth'
p1593
aS'twice'
p1594
aS'as'
p1595
aS'much'
p1596
asg10
S'makes all his upvotes worth twice as much'
p1597
sg12
S' by downvoting then upvoting'
p1598
sg14
Vmisunderstood-douchebag
p1599
sg16
(lp1600
g1589
ag1590
ag1591
ag1592
ag1593
ag1594
ag1595
ag1596
aS'by'
p1601
aS'downvoting'
p1602
aS'then'
p1603
aS'upvoting'
p1604
asg23
(lp1605
g1601
ag1602
ag1603
ag1604
asba(iMeme
Meme
p1606
(dp1607
g3
(lp1608
S'shows'
p1609
aS'off'
p1610
aS'his'
p1611
aS'abs'
p1612
aS'on'
p1613
aS'facebook'
p1614
asg10
S'shows off his abs on facebook'
p1615
sg12
S' proving that he lost 100lbs through a normal diet and exercise.'
p1616
sg14
Vmisunderstood-douchebag
p1617
sg16
(lp1618
g1609
ag1610
ag1611
ag1612
ag1613
ag1614
aS'proving'
p1619
aS'that'
p1620
aS'he'
p1621
aS'lost'
p1622
aS'100lbs'
p1623
aS'through'
p1624
ag6
aS'normal'
p1625
aS'diet'
p1626
aS'and'
p1627
aS'exercise'
p1628
ag242
asg23
(lp1629
g1619
ag1620
ag1621
ag1622
ag1623
ag1624
ag6
ag1625
ag1626
ag1627
ag1628
ag242
asba(iMeme
Meme
p1630
(dp1631
g3
(lp1632
S'type'
p1633
aS'your'
p1634
aS'post'
p1635
aS'in'
p1636
aS'crylic'
p1637
asg10
S'type your post in crylic'
p1638
sg12
S' and ill stab you and watch you bleed to death'
p1639
sg14
Vmisunderstood-douchebag
p1640
sg16
(lp1641
g1633
ag1634
ag1635
ag1636
ag1637
aS'and'
p1642
aS'ill'
p1643
aS'stab'
p1644
aS'you'
p1645
aS'and'
p1646
aS'watch'
p1647
aS'you'
p1648
aS'bleed'
p1649
aS'to'
p1650
aS'death'
p1651
asg23
(lp1652
g1642
ag1643
ag1644
ag1645
ag1646
ag1647
ag1648
ag1649
ag1650
ag1651
asba(iMeme
Meme
p1653
(dp1654
g3
(lp1655
S'get'
p1656
aS'labeled'
p1657
aS'as'
p1658
ag6
aS'douchebag'
p1659
asg10
S'get labeled as a douchebag'
p1660
sg12
S' dosent take it to the heart'
p1661
sg14
Vmisunderstood-douchebag
p1662
sg16
(lp1663
g1656
ag1657
ag1658
ag6
ag1659
aS'dosent'
p1664
aS'take'
p1665
aS'it'
p1666
aS'to'
p1667
aS'the'
p1668
aS'heart'
p1669
asg23
(lp1670
g1664
ag1665
ag1666
ag1667
ag1668
ag1669
asba(iMeme
Meme
p1671
(dp1672
g3
(lp1673
S'michael'
p1674
aS'jackosns'
p1675
aS'dead'
p1676
ag772
aS'nonsense'
p1677
asg10
S'michael jackosns dead? nonsense'
p1678
sg12
S' we were just shaggin last night'
p1679
sg14
Vmisunderstood-douchebag
p1680
sg16
(lp1681
g1674
ag1675
ag1676
ag772
ag1677
aS'we'
p1682
aS'were'
p1683
aS'just'
p1684
aS'shaggin'
p1685
aS'last'
p1686
aS'night'
p1687
asg23
(lp1688
g1682
ag1683
ag1684
ag1685
ag1686
ag1687
asba(iMeme
Meme
p1689
(dp1690
g3
(lp1691
S'always'
p1692
aS'smirks'
p1693
aS'sideways'
p1694
asg10
S'always smirks sideways'
p1695
sg12
S' because of stroke'
p1696
sg14
Vmisunderstood-douchebag
p1697
sg16
(lp1698
g1692
ag1693
ag1694
aS'because'
p1699
aS'of'
p1700
aS'stroke'
p1701
asg23
(lp1702
g1699
ag1700
ag1701
asba(iMeme
Meme
p1703
(dp1704
g3
(lp1705
S'killed'
p1706
ag6
aS'man'
p1707
asg10
S'killed a man'
p1708
sg12
S' in order to save 1000'
p1709
sg14
Vmisunderstood-douchebag
p1710
sg16
(lp1711
g1706
ag6
ag1707
aS'in'
p1712
aS'order'
p1713
aS'to'
p1714
aS'save'
p1715
aS'1000'
p1716
asg23
(lp1717
g1712
ag1713
ag1714
ag1715
ag1716
asba(iMeme
Meme
p1718
(dp1719
g3
(lp1720
S'rides'
p1721
aS'his'
p1722
aS'ex'
p1723
asg10
S'rides his ex'
p1724
sg12
S' to the theme park for his own birthday'
p1725
sg14
Vmisunderstood-douchebag
p1726
sg16
(lp1727
g1721
ag1722
ag1723
aS'to'
p1728
aS'the'
p1729
aS'theme'
p1730
aS'park'
p1731
aS'for'
p1732
aS'his'
p1733
aS'own'
p1734
aS'birthday'
p1735
asg23
(lp1736
g1728
ag1729
ag1730
ag1731
ag1732
ag1733
ag1734
ag1735
asba(iMeme
Meme
p1737
(dp1738
g3
(lp1739
S'gets'
p1740
aS'expensive'
p1741
aS'haircut'
p1742
asg10
S'gets expensive haircut'
p1743
sg12
S' little sister fundraiser'
p1744
sg14
Vmisunderstood-douchebag
p1745
sg16
(lp1746
g1740
ag1741
ag1742
aS'little'
p1747
aS'sister'
p1748
aS'fundraiser'
p1749
asg23
(lp1750
g1747
ag1748
ag1749
asba(iMeme
Meme
p1751
(dp1752
g3
(lp1753
S'shows'
p1754
aS'off'
p1755
aS'his'
p1756
aS'abs'
p1757
aS'on'
p1758
aS'facebook'
p1759
asg10
S'shows off his abs on facebook'
p1760
sg12
S' to prove to his friends that a normal diet and exercise helped him lose his beer belly'
p1761
sg14
Vmisunderstood-douchebag
p1762
sg16
(lp1763
g1754
ag1755
ag1756
ag1757
ag1758
ag1759
aS'to'
p1764
aS'prove'
p1765
aS'to'
p1766
aS'his'
p1767
aS'friends'
p1768
aS'that'
p1769
ag6
aS'normal'
p1770
aS'diet'
p1771
aS'and'
p1772
aS'exercise'
p1773
aS'helped'
p1774
aS'him'
p1775
aS'lose'
p1776
aS'his'
p1777
aS'beer'
p1778
aS'belly'
p1779
asg23
(lp1780
g1764
ag1765
ag1766
ag1767
ag1768
ag1769
ag6
ag1770
ag1771
ag1772
ag1773
ag1774
ag1775
ag1776
ag1777
ag1778
ag1779
asba(iMeme
Meme
p1781
(dp1782
g3
(lp1783
S'dgg'
p1784
aS'is'
p1785
ag6
aS'fag'
p1786
asg10
S'dgg is a fag'
p1787
sg12
S' ban him'
p1788
sg14
Vmisunderstood-douchebag
p1789
sg16
(lp1790
g1784
ag1785
ag6
ag1786
aS'ban'
p1791
aS'him'
p1792
asg23
(lp1793
g1791
ag1792
asba(iMeme
Meme
p1794
(dp1795
g3
(lp1796
S'wears'
p1797
aS'bandana'
p1798
asg10
S'wears bandana'
p1799
sg12
S' is a cancer patient'
p1800
sg14
Vmisunderstood-douchebag
p1801
sg16
(lp1802
g1797
ag1798
aS'is'
p1803
ag6
aS'cancer'
p1804
aS'patient'
p1805
asg23
(lp1806
g1803
ag6
ag1804
ag1805
asba(iMeme
Meme
p1807
(dp1808
g3
(lp1809
g6
aS'look'
p1810
aS'to'
p1811
aS'describe'
p1812
asg10
S'a look to describe'
p1813
sg12
S' what i just did'
p1814
sg14
Vmisunderstood-douchebag
p1815
sg16
(lp1816
g6
ag1810
ag1811
ag1812
aS'what'
p1817
ag227
aS'just'
p1818
aS'did'
p1819
asg23
(lp1820
g1817
ag227
ag1818
ag1819
asba(iMeme
Meme
p1821
(dp1822
g3
(lp1823
S'has'
p1824
aS'clean'
p1825
aS'teeth'
p1826
asg10
S'has clean teeth'
p1827
sg12
S' he brushes them'
p1828
sg14
Vmisunderstood-douchebag
p1829
sg16
(lp1830
g1824
ag1825
ag1826
aS'he'
p1831
aS'brushes'
p1832
aS'them'
p1833
asg23
(lp1834
g1831
ag1832
ag1833
asba(iMeme
Meme
p1835
(dp1836
g3
(lp1837
g227
aS'jacked'
p1838
aS'it'
p1839
aS'twice'
p1840
aS'today'
p1841
ag242
asg10
S'i jacked it twice today.'
p1842
sg12
S' thats all?!'
p1843
sg14
Vmisunderstood-douchebag
p1844
sg16
(lp1845
g227
ag1838
ag1839
ag1840
ag1841
ag242
aS'thats'
p1846
aS'all'
p1847
ag772
aS'!'
p1848
asg23
(lp1849
g1846
ag1847
ag772
ag1848
asba(iMeme
Meme
p1850
(dp1851
g3
(lp1852
S'duckfaces'
p1853
asg10
S'duckfaces'
p1854
sg12
S' about to give a farewell kiss to mother'
p1855
sg14
Vmisunderstood-douchebag
p1856
sg16
(lp1857
g1853
aS'about'
p1858
aS'to'
p1859
aS'give'
p1860
ag6
aS'farewell'
p1861
aS'kiss'
p1862
aS'to'
p1863
aS'mother'
p1864
asg23
(lp1865
g1858
ag1859
ag1860
ag6
ag1861
ag1862
ag1863
ag1864
asba(iMeme
Meme
p1866
(dp1867
g3
(lp1868
g227
aS'jacked'
p1869
aS'it'
p1870
aS'twice'
p1871
aS'today'
p1872
ag242
asg10
S'i jacked it twice today.'
p1873
sg12
S' thats all?!'
p1874
sg14
Vmisunderstood-douchebag
p1875
sg16
(lp1876
g227
ag1869
ag1870
ag1871
ag1872
ag242
aS'thats'
p1877
aS'all'
p1878
ag772
ag1848
asg23
(lp1879
g1877
ag1878
ag772
ag1848
asba(iMeme
Meme
p1880
(dp1881
g3
(lp1882
S'wears'
p1883
aS'thick'
p1884
aS'rimmed'
p1885
aS'glasses'
p1886
asg10
S'wears thick rimmed glasses'
p1887
sg12
S' needs them'
p1888
sg14
Vmisunderstood-douchebag
p1889
sg16
(lp1890
g1883
ag1884
ag1885
ag1886
aS'needs'
p1891
aS'them'
p1892
asg23
(lp1893
g1891
ag1892
asba(iMeme
Meme
p1894
(dp1895
g3
(lp1896
S'nigger'
p1897
aS'hate'
p1898
asg10
S'nigger hate'
p1899
sg12
S' a nigger'
p1900
sg14
Vmisunderstood-douchebag
p1901
sg16
(lp1902
g1897
ag1898
ag6
aS'nigger'
p1903
asg23
(lp1904
g6
ag1903
asba(iMeme
Meme
p1905
(dp1906
g3
(lp1907
S'you'
p1908
aS'wont'
p1909
aS'be'
p1910
aS'disappointed'
p1911
asg10
S'you wont be disappointed'
p1912
sg12
S' yes'
p1913
sg14
Vmisunderstood-douchebag
p1914
sg16
(lp1915
g1908
ag1909
ag1910
ag1911
aS'yes'
p1916
asg23
(lp1917
g1916
asba(iMeme
Meme
p1918
(dp1919
g3
(lp1920
S'tops'
p1921
aS'color'
p1922
asg10
S'tops color'
p1923
sg12
S' sucks dick'
p1924
sg14
Vmisunderstood-douchebag
p1925
sg16
(lp1926
g1921
ag1922
aS'sucks'
p1927
aS'dick'
p1928
asg23
(lp1929
g1927
ag1928
asba(iMeme
Meme
p1930
(dp1931
g3
(lp1932
S'rides'
p1933
aS'his'
p1934
aS'ex'
p1935
asg10
S'rides his ex'
p1936
sg12
S' to the six flags and a movie for his own birthday'
p1937
sg14
Vmisunderstood-douchebag
p1938
sg16
(lp1939
g1933
ag1934
ag1935
aS'to'
p1940
aS'the'
p1941
aS'six'
p1942
aS'flags'
p1943
aS'and'
p1944
ag6
aS'movie'
p1945
aS'for'
p1946
aS'his'
p1947
aS'own'
p1948
aS'birthday'
p1949
asg23
(lp1950
g1940
ag1941
ag1942
ag1943
ag1944
ag6
ag1945
ag1946
ag1947
ag1948
ag1949
asba(iMeme
Meme
p1951
(dp1952
g3
(lp1953
S'dad'
p1954
ag227
aS'like'
p1955
aS'my'
p1956
aS'women'
p1957
aS'how'
p1958
ag227
aS'like'
p1959
aS'my'
p1960
aS'coffe'
p1961
asg10
S'dad i like my women how i like my coffe'
p1962
sg12
S' i dont like coffe'
p1963
sg14
Vmisunderstood-douchebag
p1964
sg16
(lp1965
g1954
ag227
ag1955
ag1956
ag1957
ag1958
ag227
ag1959
ag1960
ag1961
ag227
aS'dont'
p1966
aS'like'
p1967
aS'coffe'
p1968
asg23
(lp1969
g227
ag1966
ag1967
ag1968
asba(iMeme
Meme
p1970
(dp1971
g3
(lp1972
S'cant'
p1973
aS'possibly'
p1974
aS'be'
p1975
aS'talking'
p1976
aS'about'
p1977
aS'me'
p1978
asg10
S'cant possibly be talking about me'
p1979
sg12
S' works out'
p1980
sg14
Vmisunderstood-douchebag
p1981
sg16
(lp1982
g1973
ag1974
ag1975
ag1976
ag1977
ag1978
aS'works'
p1983
aS'out'
p1984
asg23
(lp1985
g1983
ag1984
asba(iMeme
Meme
p1986
(dp1987
g3
(lp1988
S'complains'
p1989
aS'how'
p1990
aS'he'
p1991
aS'wouldve'
p1992
aS'gone'
p1993
aS'pro'
p1994
asg10
S'complains how he wouldve gone pro'
p1995
sg12
S' but he had to take care of his ailing grandmother'
p1996
sg14
Vmisunderstood-douchebag
p1997
sg16
(lp1998
g1989
ag1990
ag1991
ag1992
ag1993
ag1994
aS'but'
p1999
aS'he'
p2000
aS'had'
p2001
aS'to'
p2002
aS'take'
p2003
aS'care'
p2004
aS'of'
p2005
aS'his'
p2006
aS'ailing'
p2007
aS'grandmother'
p2008
asg23
(lp2009
g1999
ag2000
ag2001
ag2002
ag2003
ag2004
ag2005
ag2006
ag2007
ag2008
asba(iMeme
Meme
p2010
(dp2011
g3
(lp2012
S'called'
p2013
aS'him'
p2014
aS'to'
p2015
aS'come'
p2016
aS'at'
p2017
aS'22'
p2018
asg10
S'called him to come at 22'
p2019
sg12
S' says he cant talk at 24'
p2020
sg14
Vmisunderstood-douchebag
p2021
sg16
(lp2022
g2013
ag2014
ag2015
ag2016
ag2017
ag2018
aS'says'
p2023
aS'he'
p2024
aS'cant'
p2025
aS'talk'
p2026
aS'at'
p2027
aS'24'
p2028
asg23
(lp2029
g2023
ag2024
ag2025
ag2026
ag2027
ag2028
asba(iMeme
Meme
p2030
(dp2031
g3
(lp2032
S'calls'
p2033
aS'the'
p2034
aS'waitress'
p2035
aS'yo'
p2036
aS'ma'
p2037
ag1848
asg10
S'calls the waitress yo ma!'
p2038
sg12
S' its actually his mother'
p2039
sg14
Vmisunderstood-douchebag
p2040
sg16
(lp2041
g2033
ag2034
ag2035
ag2036
ag2037
ag1848
aS'its'
p2042
aS'actually'
p2043
aS'his'
p2044
aS'mother'
p2045
asg23
(lp2046
g2042
ag2043
ag2044
ag2045
asba(iMeme
Meme
p2047
(dp2048
g3
(lp2049
S'gets'
p2050
aS'mad'
p2051
aS'pussy'
p2052
asg10
S'gets mad pussy'
p2053
sg12
S' cats to settle down with kind words'
p2054
sg14
Vmisunderstood-douchebag
p2055
sg16
(lp2056
g2050
ag2051
ag2052
aS'cats'
p2057
aS'to'
p2058
aS'settle'
p2059
aS'down'
p2060
aS'with'
p2061
aS'kind'
p2062
aS'words'
p2063
asg23
(lp2064
g2057
ag2058
ag2059
ag2060
ag2061
ag2062
ag2063
asba(iMeme
Meme
p2065
(dp2066
g3
(lp2067
S'my'
p2068
aS'ute'
p2069
aS'has'
p2070
ag6
aS'jet'
p2071
aS'pilot'
p2072
aS'sticker'
p2073
ag242
asg10
S'my ute has a jet pilot sticker.'
p2074
sg12
S' and im a douchebag.'
p2075
sg14
Vmisunderstood-douchebag
p2076
sg16
(lp2077
g2068
ag2069
ag2070
ag6
ag2071
ag2072
ag2073
ag242
aS'and'
p2078
aS'im'
p2079
ag6
aS'douchebag'
p2080
ag242
asg23
(lp2081
g2078
ag2079
ag6
ag2080
ag242
asba(iMeme
Meme
p2082
(dp2083
g3
(lp2084
S'buys'
p2085
aS'marijuana'
p2086
asg10
S'buys marijuana'
p2087
sg12
S' for medical reasons'
p2088
sg14
Vmisunderstood-douchebag
p2089
sg16
(lp2090
g2085
ag2086
aS'for'
p2091
aS'medical'
p2092
aS'reasons'
p2093
asg23
(lp2094
g2091
ag2092
ag2093
asba(iMeme
Meme
p2095
(dp2096
g3
(lp2097
S'checks'
p2098
aS'payphone'
p2099
aS'for'
p2100
aS'change'
p2101
asg10
S'checks payphone for change'
p2102
sg12
S' to give to the homeless'
p2103
sg14
Vmisunderstood-douchebag
p2104
sg16
(lp2105
g2098
ag2099
ag2100
ag2101
aS'to'
p2106
aS'give'
p2107
aS'to'
p2108
aS'the'
p2109
aS'homeless'
p2110
asg23
(lp2111
g2106
ag2107
ag2108
ag2109
ag2110
asba(iMeme
Meme
p2112
(dp2113
g3
(lp2114
S'thinks'
p2115
aS'about'
p2116
aS'fingering'
p2117
aS'dink'
p2118
asg10
S'thinks about fingering dink'
p2119
sg12
S' in a police lineup'
p2120
sg14
Vmisunderstood-douchebag
p2121
sg16
(lp2122
g2115
ag2116
ag2117
ag2118
aS'in'
p2123
ag6
aS'police'
p2124
aS'lineup'
p2125
asg23
(lp2126
g2123
ag6
ag2124
ag2125
asba(iMeme
Meme
p2127
(dp2128
g3
(lp2129
S'wears'
p2130
aS'snap'
p2131
aS'back'
p2132
asg10
S'wears snap back'
p2133
sg12
S' cancer patient'
p2134
sg14
Vmisunderstood-douchebag
p2135
sg16
(lp2136
g2130
ag2131
ag2132
aS'cancer'
p2137
aS'patient'
p2138
asg23
(lp2139
g2137
ag2138
asba(iMeme
Meme
p2140
(dp2141
g3
(lp2142
S'34'
p2143
aS'years'
p2144
aS'old'
p2145
aS'with'
p2146
aS'roommates'
p2147
asg10
S'34 years old with roommates'
p2148
sg12
S' wonders why still single'
p2149
sg14
Vmisunderstood-douchebag
p2150
sg16
(lp2151
g2143
ag2144
ag2145
ag2146
ag2147
aS'wonders'
p2152
aS'why'
p2153
aS'still'
p2154
aS'single'
p2155
asg23
(lp2156
g2152
ag2153
ag2154
ag2155
asba(iMeme
Meme
p2157
(dp2158
g3
(lp2159
S'ditches'
p2160
aS'date'
p2161
ag242
asg10
S'ditches date.'
p2162
sg12
S' actually is poor.'
p2163
sg14
Vmisunderstood-douchebag
p2164
sg16
(lp2165
g2160
ag2161
ag242
aS'actually'
p2166
aS'is'
p2167
aS'poor'
p2168
ag242
asg23
(lp2169
g2166
ag2167
ag2168
ag242
asba(iMeme
Meme
p2170
(dp2171
g3
(lp2172
S'does'
p2173
aS'she'
p2174
aS'know'
p2175
ag772
asg10
S'does she know?'
p2176
sg12
S' im really a virgin'
p2177
sg14
Vmisunderstood-douchebag
p2178
sg16
(lp2179
g2173
ag2174
ag2175
ag772
aS'im'
p2180
aS'really'
p2181
ag6
aS'virgin'
p2182
asg23
(lp2183
g2180
ag2181
ag6
ag2182
asba(iMeme
Meme
p2184
(dp2185
g3
(lp2186
S'im'
p2187
aS'so'
p2188
aS'cool'
p2189
aS'because'
p2190
ag227
aS'go'
p2191
aS'to'
p2192
aS'the'
p2193
aS'u'
p2194
aS'of'
p2195
ag6
asg10
S'im so cool because i go to the u of a'
p2196
sg12
S' competing for grades is so fun and easy'
p2197
sg14
Vmisunderstood-douchebag
p2198
sg16
(lp2199
g2187
ag2188
ag2189
ag2190
ag227
ag2191
ag2192
ag2193
ag2194
ag2195
ag6
aS'competing'
p2200
aS'for'
p2201
aS'grades'
p2202
aS'is'
p2203
aS'so'
p2204
aS'fun'
p2205
aS'and'
p2206
aS'easy'
p2207
asg23
(lp2208
g2200
ag2201
ag2202
ag2203
ag2204
ag2205
ag2206
ag2207
asba(iMeme
Meme
p2209
(dp2210
g3
(lp2211
S'constantly'
p2212
aS'interrupts'
p2213
aS'during'
p2214
aS'meetings'
p2215
asg10
S'constantly interrupts during meetings'
p2216
sg12
S' puts people back on track'
p2217
sg14
Vmisunderstood-douchebag
p2218
sg16
(lp2219
g2212
ag2213
ag2214
ag2215
aS'puts'
p2220
aS'people'
p2221
aS'back'
p2222
aS'on'
p2223
aS'track'
p2224
asg23
(lp2225
g2220
ag2221
ag2222
ag2223
ag2224
asba(iMeme
Meme
p2226
(dp2227
g3
(lp2228
S'wears'
p2229
aS'ripped'
p2230
aS'jeans'
p2231
asg10
S'wears ripped jeans'
p2232
sg12
S' saved a cat from a wolf'
p2233
sg14
Vmisunderstood-douchebag
p2234
sg16
(lp2235
g2229
ag2230
ag2231
aS'saved'
p2236
ag6
aS'cat'
p2237
aS'from'
p2238
ag6
aS'wolf'
p2239
asg23
(lp2240
g2236
ag6
ag2237
ag2238
ag6
ag2239
asba(iMeme
Meme
p2241
(dp2242
g3
(lp2243
S'curses'
p2244
aS'at'
p2245
aS'you'
p2246
aS'in'
p2247
ag6
aS'text'
p2248
asg10
S'curses at you in a text'
p2249
sg12
S' blames it on autocorrect'
p2250
sg14
Vmisunderstood-douchebag
p2251
sg16
(lp2252
g2244
ag2245
ag2246
ag2247
ag6
ag2248
aS'blames'
p2253
aS'it'
p2254
aS'on'
p2255
aS'autocorrect'
p2256
asg23
(lp2257
g2253
ag2254
ag2255
ag2256
asba(iMeme
Meme
p2258
(dp2259
g3
(lp2260
S'gives'
p2261
aS'you'
p2262
aS'dirty'
p2263
aS'look'
p2264
asg10
S'gives you dirty look'
p2265
sg12
S' has turrets'
p2266
sg14
Vmisunderstood-douchebag
p2267
sg16
(lp2268
g2261
ag2262
ag2263
ag2264
aS'has'
p2269
aS'turrets'
p2270
asg23
(lp2271
g2269
ag2270
asba(iMeme
Meme
p2272
(dp2273
g3
(lp2274
S'buys'
p2275
ag6
aS'polo'
p2276
aS'shirt'
p2277
asg10
S'buys a polo shirt'
p2278
sg12
S' actually plays polo'
p2279
sg14
Vmisunderstood-douchebag
p2280
sg16
(lp2281
g2275
ag6
ag2276
ag2277
aS'actually'
p2282
aS'plays'
p2283
aS'polo'
p2284
asg23
(lp2285
g2282
ag2283
ag2284
asba(iMeme
Meme
p2286
(dp2287
g3
(lp2288
S'34'
p2289
aS'with'
p2290
aS'roommates'
p2291
asg10
S'34 with roommates'
p2292
sg12
S' wonders why still single'
p2293
sg14
Vmisunderstood-douchebag
p2294
sg16
(lp2295
g2289
ag2290
ag2291
aS'wonders'
p2296
aS'why'
p2297
aS'still'
p2298
aS'single'
p2299
asg23
(lp2300
g2296
ag2297
ag2298
ag2299
asba(iMeme
Meme
p2301
(dp2302
g3
(lp2303
S'goes'
p2304
aS'to'
p2305
aS'miami'
p2306
aS'every'
p2307
aS'spring'
p2308
aS'break'
p2309
aS'to'
p2310
aS'watch'
p2311
aS'the'
p2312
aS'gators'
p2313
asg10
S'goes to miami every spring break to watch the gators'
p2314
sg12
S' actually looks over wounded alligators'
p2315
sg14
Vmisunderstood-douchebag
p2316
sg16
(lp2317
g2304
ag2305
ag2306
ag2307
ag2308
ag2309
ag2310
ag2311
ag2312
ag2313
aS'actually'
p2318
aS'looks'
p2319
aS'over'
p2320
aS'wounded'
p2321
aS'alligators'
p2322
asg23
(lp2323
g2318
ag2319
ag2320
ag2321
ag2322
asba(iMeme
Meme
p2324
(dp2325
g3
(lp2326
S'wears'
p2327
ag6
aS'pink'
p2328
aS'shirt'
p2329
asg10
S'wears a pink shirt'
p2330
sg12
S' cause hes colorblind'
p2331
sg14
Vmisunderstood-douchebag
p2332
sg16
(lp2333
g2327
ag6
ag2328
ag2329
aS'cause'
p2334
aS'hes'
p2335
aS'colorblind'
p2336
asg23
(lp2337
g2334
ag2335
ag2336
asba(iMeme
Meme
p2338
(dp2339
g3
(lp2340
S'posts'
p2341
aS'pictures'
p2342
aS'of'
p2343
aS'his'
p2344
aS'abs'
p2345
aS'on'
p2346
aS'facebook'
p2347
asg10
S'posts pictures of his abs on facebook'
p2348
sg12
S' because he lost over 200lbs in the past year'
p2349
sg14
Vmisunderstood-douchebag
p2350
sg16
(lp2351
g2341
ag2342
ag2343
ag2344
ag2345
ag2346
ag2347
aS'because'
p2352
aS'he'
p2353
aS'lost'
p2354
aS'over'
p2355
aS'200lbs'
p2356
aS'in'
p2357
aS'the'
p2358
aS'past'
p2359
aS'year'
p2360
asg23
(lp2361
g2352
ag2353
ag2354
ag2355
ag2356
ag2357
ag2358
ag2359
ag2360
asba(iMeme
Meme
p2362
(dp2363
g3
(lp2364
g227
aS'am'
p2365
ag6
aS'homosexual'
p2366
asg10
S'i am a homosexual'
p2367
sg12
S' which school should i go to ?'
p2368
sg14
Vmisunderstood-douchebag
p2369
sg16
(lp2370
g227
ag2365
ag6
ag2366
aS'which'
p2371
aS'school'
p2372
aS'should'
p2373
ag227
aS'go'
p2374
aS'to'
p2375
ag772
asg23
(lp2376
g2371
ag2372
ag2373
ag227
ag2374
ag2375
ag772
asba(iMeme
Meme
p2377
(dp2378
g3
(lp2379
S'loses'
p2380
ag6
aS'pound'
p2381
asg10
S'loses a pound'
p2382
sg12
S' thinks hes awesome'
p2383
sg14
Vmisunderstood-douchebag
p2384
sg16
(lp2385
g2380
ag6
ag2381
aS'thinks'
p2386
aS'hes'
p2387
aS'awesome'
p2388
asg23
(lp2389
g2386
ag2387
ag2388
asba(iMeme
Meme
p2390
(dp2391
g3
(lp2392
S'thank'
p2393
aS'you'
p2394
aS'sarah'
p2395
ag1848
asg10
S'thank you sarah!'
p2396
sg12
S' im real proud of that meme. thuper proud.'
p2397
sg14
Vmisunderstood-douchebag
p2398
sg16
(lp2399
g2393
ag2394
ag2395
ag1848
aS'im'
p2400
aS'real'
p2401
aS'proud'
p2402
aS'of'
p2403
aS'that'
p2404
aS'meme'
p2405
ag242
aS'thuper'
p2406
aS'proud'
p2407
ag242
asg23
(lp2408
g2400
ag2401
ag2402
ag2403
ag2404
ag2405
ag242
ag2406
ag2407
ag242
asba(iMeme
Meme
p2409
(dp2410
g3
(lp2411
S'sees'
p2412
aS'validity'
p2413
aS'in'
p2414
aS'both'
p2415
aS'movements'
p2416
ag242
asg10
S'sees validity in both movements.'
p2417
sg12
S' runs for political office'
p2418
sg14
Vmisunderstood-douchebag
p2419
sg16
(lp2420
g2412
ag2413
ag2414
ag2415
ag2416
ag242
aS'runs'
p2421
aS'for'
p2422
aS'political'
p2423
aS'office'
p2424
asg23
(lp2425
g2421
ag2422
ag2423
ag2424
asba(iMeme
Meme
p2426
(dp2427
g3
(lp2428
S'pops'
p2429
aS'his'
p2430
aS'collar'
p2431
asg10
S'pops his collar'
p2432
sg12
S' to hide the burns on his neck from saving orphans in a fire'
p2433
sg14
Vmisunderstood-douchebag
p2434
sg16
(lp2435
g2429
ag2430
ag2431
aS'to'
p2436
aS'hide'
p2437
aS'the'
p2438
aS'burns'
p2439
aS'on'
p2440
aS'his'
p2441
aS'neck'
p2442
aS'from'
p2443
aS'saving'
p2444
aS'orphans'
p2445
aS'in'
p2446
ag6
aS'fire'
p2447
asg23
(lp2448
g2436
ag2437
ag2438
ag2439
ag2440
ag2441
ag2442
ag2443
ag2444
ag2445
ag2446
ag6
ag2447
asba(iMeme
Meme
p2449
(dp2450
g3
(lp2451
S'fuck'
p2452
aS'this'
p2453
aS'shit'
p2454
asg10
S'fuck this shit'
p2455
sg12
S' you have a small wee wee'
p2456
sg14
Vmisunderstood-douchebag
p2457
sg16
(lp2458
g2452
ag2453
ag2454
aS'you'
p2459
aS'have'
p2460
ag6
aS'small'
p2461
aS'wee'
p2462
aS'wee'
p2463
asg23
(lp2464
g2459
ag2460
ag6
ag2461
ag2462
ag2463
asba(iMeme
Meme
p2465
(dp2466
g3
(lp2467
S'wants'
p2468
aS'to'
p2469
aS'be'
p2470
aS'on'
p2471
aS'jersey'
p2472
aS'shore'
p2473
asg10
S'wants to be on jersey shore'
p2474
sg12
S' to perform heart felt intervention for each cast member'
p2475
sg14
Vmisunderstood-douchebag
p2476
sg16
(lp2477
g2468
ag2469
ag2470
ag2471
ag2472
ag2473
aS'to'
p2478
aS'perform'
p2479
aS'heart'
p2480
aS'felt'
p2481
aS'intervention'
p2482
aS'for'
p2483
aS'each'
p2484
aS'cast'
p2485
aS'member'
p2486
asg23
(lp2487
g2478
ag2479
ag2480
ag2481
ag2482
ag2483
ag2484
ag2485
ag2486
asba(iMeme
Meme
p2488
(dp2489
g3
(lp2490
g227
aS'act'
p2491
aS'like'
p2492
ag6
aS'thug'
p2493
asg10
S'i act like a thug'
p2494
sg12
S' to keep my room dirty'
p2495
sg14
Vmisunderstood-douchebag
p2496
sg16
(lp2497
g227
ag2491
ag2492
ag6
ag2493
aS'to'
p2498
aS'keep'
p2499
aS'my'
p2500
aS'room'
p2501
aS'dirty'
p2502
asg23
(lp2503
g2498
ag2499
ag2500
ag2501
ag2502
asba(iMeme
Meme
p2504
(dp2505
g3
(lp2506
S'corrects'
p2507
aS'your'
p2508
aS'spelling'
p2509
aS'mistakes'
p2510
asg10
S'corrects your spelling mistakes'
p2511
sg12
S' so youll look more professional online'
p2512
sg14
Vmisunderstood-douchebag
p2513
sg16
(lp2514
g2507
ag2508
ag2509
ag2510
aS'so'
p2515
aS'youll'
p2516
aS'look'
p2517
aS'more'
p2518
aS'professional'
p2519
aS'online'
p2520
asg23
(lp2521
g2515
ag2516
ag2517
ag2518
ag2519
ag2520
asba(iMeme
Meme
p2522
(dp2523
g3
(lp2524
S'driving'
p2525
aS'with'
p2526
aS'muffler'
p2527
aS'off'
p2528
asg10
S'driving with muffler off'
p2529
sg12
S' on his way to a mechanic'
p2530
sg14
Vmisunderstood-douchebag
p2531
sg16
(lp2532
g2525
ag2526
ag2527
ag2528
aS'on'
p2533
aS'his'
p2534
aS'way'
p2535
aS'to'
p2536
ag6
aS'mechanic'
p2537
asg23
(lp2538
g2533
ag2534
ag2535
ag2536
ag6
ag2537
asba(iMeme
Meme
p2539
(dp2540
g3
(lp2541
S'answers'
p2542
aS'phone'
p2543
aS'in'
p2544
ag6
aS'meeting'
p2545
aS'with'
p2546
aS'the'
p2547
aS'deputy'
p2548
asg10
S'answers phone in a meeting with the deputy'
p2549
sg12
S' his wife had the baby'
p2550
sg14
Vmisunderstood-douchebag
p2551
sg16
(lp2552
g2542
ag2543
ag2544
ag6
ag2545
ag2546
ag2547
ag2548
aS'his'
p2553
aS'wife'
p2554
aS'had'
p2555
aS'the'
p2556
aS'baby'
p2557
asg23
(lp2558
g2553
ag2554
ag2555
ag2556
ag2557
asba(iMeme
Meme
p2559
(dp2560
g3
(lp2561
S'doesnt'
p2562
aS'know'
p2563
aS'if'
p2564
aS'people'
p2565
aS'are'
p2566
aS'listening'
p2567
aS'to'
p2568
aS'him'
p2569
aS'play'
p2570
aS'the'
p2571
aS'guitar'
p2572
asg10
S'doesnt know if people are listening to him play the guitar'
p2573
sg12
S' because hes blind'
p2574
sg14
Vmisunderstood-douchebag
p2575
sg16
(lp2576
g2562
ag2563
ag2564
ag2565
ag2566
ag2567
ag2568
ag2569
ag2570
ag2571
ag2572
aS'because'
p2577
aS'hes'
p2578
aS'blind'
p2579
asg23
(lp2580
g2577
ag2578
ag2579
asba(iMeme
Meme
p2581
(dp2582
g3
(lp2583
S'my'
p2584
aS'ute'
p2585
aS'has'
p2586
ag6
aS'jet'
p2587
aS'pilot'
p2588
aS'sticker'
p2589
aS'on'
p2590
aS'it'
p2591
ag242
asg10
S'my ute has a jet pilot sticker on it.'
p2592
sg12
S' and i drive like a douvhebag.'
p2593
sg14
Vmisunderstood-douchebag
p2594
sg16
(lp2595
g2584
ag2585
ag2586
ag6
ag2587
ag2588
ag2589
ag2590
ag2591
ag242
aS'and'
p2596
ag227
aS'drive'
p2597
aS'like'
p2598
ag6
aS'douvhebag'
p2599
ag242
asg23
(lp2600
g2596
ag227
ag2597
ag2598
ag6
ag2599
ag242
asba(iMeme
Meme
p2601
(dp2602
g3
(lp2603
S'gets'
p2604
aS'into'
p2605
ag6
aS'bar'
p2606
aS'fight'
p2607
asg10
S'gets into a bar fight'
p2608
sg12
S' only do defend his friend'
p2609
sg14
Vmisunderstood-douchebag
p2610
sg16
(lp2611
g2604
ag2605
ag6
ag2606
ag2607
aS'only'
p2612
aS'do'
p2613
aS'defend'
p2614
aS'his'
p2615
aS'friend'
p2616
asg23
(lp2617
g2612
ag2613
ag2614
ag2615
ag2616
asba(iMeme
Meme
p2618
(dp2619
g3
(lp2620
S'tries'
p2621
aS'to'
p2622
aS'argue'
p2623
aS'passes'
p2624
aS'of'
p2625
aS'brady'
p2626
asg10
S'tries to argue passes of brady'
p2627
sg12
S' goes to first argument 30 minutes ago'
p2628
sg14
Vmisunderstood-douchebag
p2629
sg16
(lp2630
g2621
ag2622
ag2623
ag2624
ag2625
ag2626
aS'goes'
p2631
aS'to'
p2632
aS'first'
p2633
aS'argument'
p2634
aS'30'
p2635
aS'minutes'
p2636
aS'ago'
p2637
asg23
(lp2638
g2631
ag2632
ag2633
ag2634
ag2635
ag2636
ag2637
asba(iMeme
Meme
p2639
(dp2640
g3
(lp2641
S'compliments'
p2642
aS'you'
p2643
aS'about'
p2644
aS'your'
p2645
aS'legs'
p2646
asg10
S'compliments you about your legs'
p2647
sg12
S' cares about your health'
p2648
sg14
Vmisunderstood-douchebag
p2649
sg16
(lp2650
g2642
ag2643
ag2644
ag2645
ag2646
aS'cares'
p2651
aS'about'
p2652
aS'your'
p2653
aS'health'
p2654
asg23
(lp2655
g2651
ag2652
ag2653
ag2654
asba(iMeme
Meme
p2656
(dp2657
g3
(lp2658
S'claims'
p2659
aS'he'
p2660
aS'never'
p2661
aS'uses'
p2662
aS'protection'
p2663
asg10
S'claims he never uses protection'
p2664
sg12
S' is trying to start a family with his wife'
p2665
sg14
Vmisunderstood-douchebag
p2666
sg16
(lp2667
g2659
ag2660
ag2661
ag2662
ag2663
aS'is'
p2668
aS'trying'
p2669
aS'to'
p2670
aS'start'
p2671
ag6
aS'family'
p2672
aS'with'
p2673
aS'his'
p2674
aS'wife'
p2675
asg23
(lp2676
g2668
ag2669
ag2670
ag2671
ag6
ag2672
ag2673
ag2674
ag2675
asba(iMeme
Meme
p2677
(dp2678
g3
(lp2679
S'you'
p2680
aS'said'
p2681
aS'the'
p2682
aS'flame'
p2683
asg10
S'you said the flame'
p2684
sg12
S' my job is to put the salt out'
p2685
sg14
Vmisunderstood-douchebag
p2686
sg16
(lp2687
g2680
ag2681
ag2682
ag2683
aS'my'
p2688
aS'job'
p2689
aS'is'
p2690
aS'to'
p2691
aS'put'
p2692
aS'the'
p2693
aS'salt'
p2694
aS'out'
p2695
asg23
(lp2696
g2688
ag2689
ag2690
ag2691
ag2692
ag2693
ag2694
ag2695
asba(iMeme
Meme
p2697
(dp2698
g3
(lp2699
S'katie'
p2700
aS'sue'
p2701
asg10
S'katie sue'
p2702
sg12
S' katie sue'
p2703
sg14
Vmisunderstood-douchebag
p2704
sg16
(lp2705
g2700
ag2701
aS'katie'
p2706
aS'sue'
p2707
asg23
(lp2708
g2706
ag2707
asba(iMeme
Meme
p2709
(dp2710
g3
(lp2711
S'girls'
p2712
asg10
S'girls'
p2713
sg12
S'wanna make me happy?'
p2714
sg14
Vmisunderstood-douchebag
p2715
sg16
(lp2716
g2712
aS'wan'
p2717
aS'na'
p2718
aS'make'
p2719
aS'me'
p2720
aS'happy'
p2721
ag772
asg23
(lp2722
g2717
ag2718
ag2719
ag2720
ag2721
ag772
asba(iMeme
Meme
p2723
(dp2724
g3
(lp2725
S'walks'
p2726
aS'around'
p2727
aS'with'
p2728
aS'arms'
p2729
aS'out'
p2730
asg10
S'walks around with arms out'
p2731
sg12
S' so his armpits dont get sweaty'
p2732
sg14
Vmisunderstood-douchebag
p2733
sg16
(lp2734
g2726
ag2727
ag2728
ag2729
ag2730
aS'so'
p2735
aS'his'
p2736
aS'armpits'
p2737
aS'dont'
p2738
aS'get'
p2739
aS'sweaty'
p2740
asg23
(lp2741
g2735
ag2736
ag2737
ag2738
ag2739
ag2740
asba(iMeme
Meme
p2742
(dp2743
g3
(lp2744
S'deletes'
p2745
aS'downvoted'
p2746
aS'content'
p2747
asg10
S'deletes downvoted content'
p2748
sg12
S' no that nobody has to see it again'
p2749
sg14
Vmisunderstood-douchebag
p2750
sg16
(lp2751
g2745
ag2746
ag2747
aS'no'
p2752
aS'that'
p2753
aS'nobody'
p2754
aS'has'
p2755
aS'to'
p2756
aS'see'
p2757
aS'it'
p2758
aS'again'
p2759
asg23
(lp2760
g2752
ag2753
ag2754
ag2755
ag2756
ag2757
ag2758
ag2759
asba(iMeme
Meme
p2761
(dp2762
g3
(lp2763
S'deletes'
p2764
aS'downvoted'
p2765
aS'content'
p2766
asg10
S'deletes downvoted content'
p2767
sg12
S' so that nobody has to see it again'
p2768
sg14
Vmisunderstood-douchebag
p2769
sg16
(lp2770
g2764
ag2765
ag2766
aS'so'
p2771
aS'that'
p2772
aS'nobody'
p2773
aS'has'
p2774
aS'to'
p2775
aS'see'
p2776
aS'it'
p2777
aS'again'
p2778
asg23
(lp2779
g2771
ag2772
ag2773
ag2774
ag2775
ag2776
ag2777
ag2778
asba(iMeme
Meme
p2780
(dp2781
g3
(lp2782
S'soooodo'
p2783
aS'you'
p2784
aS'come'
p2785
aS'here'
p2786
aS'often'
p2787
ag772
asg10
S'soooodo you come here often?'
p2788
sg12
S' oh'
p2789
sg14
Vmisunderstood-douchebag
p2790
sg16
(lp2791
g2783
ag2784
ag2785
ag2786
ag2787
ag772
aS'oh'
p2792
asg23
(lp2793
g2792
asba(iMeme
Meme
p2794
(dp2795
g3
(lp2796
S'amazing'
p2797
aS'good'
p2798
aS'looks'
p2799
aS'and'
p2800
aS'personality'
p2801
asg10
S'amazing good looks and personality'
p2802
sg12
S' registered sex offender'
p2803
sg14
Vmisunderstood-douchebag
p2804
sg16
(lp2805
g2797
ag2798
ag2799
ag2800
ag2801
aS'registered'
p2806
aS'sex'
p2807
aS'offender'
p2808
asg23
(lp2809
g2806
ag2807
ag2808
asba(iMeme
Meme
p2810
(dp2811
g3
(lp2812
g2194
aS'of'
p2813
ag6
aS'has'
p2814
aS'the'
p2815
aS'best'
p2816
aS'looking'
p2817
aS'girls'
p2818
asg10
S'u of a has the best looking girls'
p2819
sg12
S' if it was located on mars..'
p2820
sg14
Vmisunderstood-douchebag
p2821
sg16
(lp2822
g2194
ag2813
ag6
ag2814
ag2815
ag2816
ag2817
ag2818
aS'if'
p2823
aS'it'
p2824
aS'was'
p2825
aS'located'
p2826
aS'on'
p2827
aS'mars..'
p2828
asg23
(lp2829
g2823
ag2824
ag2825
ag2826
ag2827
ag2828
asba(iMeme
Meme
p2830
(dp2831
g3
(lp2832
S'doesnt'
p2833
aS'pick'
p2834
aS'up'
p2835
aS'his'
p2836
aS'dogs'
p2837
aS'shit'
p2838
asg10
S'doesnt pick up his dogs shit'
p2839
sg12
S' used his last bag picking up someone elses dogs shit'
p2840
sg14
Vmisunderstood-douchebag
p2841
sg16
(lp2842
g2833
ag2834
ag2835
ag2836
ag2837
ag2838
aS'used'
p2843
aS'his'
p2844
aS'last'
p2845
aS'bag'
p2846
aS'picking'
p2847
aS'up'
p2848
aS'someone'
p2849
aS'elses'
p2850
aS'dogs'
p2851
aS'shit'
p2852
asg23
(lp2853
g2843
ag2844
ag2845
ag2846
ag2847
ag2848
ag2849
ag2850
ag2851
ag2852
asba(iMeme
Meme
p2854
(dp2855
g3
(lp2856
S'calls'
p2857
aS'4pm'
p2858
aS'meeting'
p2859
aS'on'
p2860
ag6
aS'friday'
p2861
asg10
S'calls 4pm meeting on a friday'
p2862
sg12
S' to surprise you with a birthday party'
p2863
sg14
Vmisunderstood-douchebag
p2864
sg16
(lp2865
g2857
ag2858
ag2859
ag2860
ag6
ag2861
aS'to'
p2866
aS'surprise'
p2867
aS'you'
p2868
aS'with'
p2869
ag6
aS'birthday'
p2870
aS'party'
p2871
asg23
(lp2872
g2866
ag2867
ag2868
ag2869
ag6
ag2870
ag2871
asba(iMeme
Meme
p2873
(dp2874
g3
(lp2875
S'posts'
p2876
aS'pictures'
p2877
aS'of'
p2878
aS'his'
p2879
aS'abs'
p2880
aS'on'
p2881
aS'facebook'
p2882
asg10
S'posts pictures of his abs on facebook'
p2883
sg12
S' because he lost over 100lbs in the past year'
p2884
sg14
Vmisunderstood-douchebag
p2885
sg16
(lp2886
g2876
ag2877
ag2878
ag2879
ag2880
ag2881
ag2882
aS'because'
p2887
aS'he'
p2888
aS'lost'
p2889
aS'over'
p2890
aS'100lbs'
p2891
aS'in'
p2892
aS'the'
p2893
aS'past'
p2894
aS'year'
p2895
asg23
(lp2896
g2887
ag2888
ag2889
ag2890
ag2891
ag2892
ag2893
ag2894
ag2895
asba(iMeme
Meme
p2897
(dp2898
g3
(lp2899
S'what'
p2900
ag2194
aS'mean'
p2901
aS'bro'
p2902
asg10
S'what u mean bro'
p2903
sg12
S' lol'
p2904
sg14
Vmisunderstood-douchebag
p2905
sg16
(lp2906
g2900
ag2194
ag2901
ag2902
aS'lol'
p2907
asg23
(lp2908
g2907
asba(iMeme
Meme
p2909
(dp2910
g3
(lp2911
S'id'
p2912
aS'like'
p2913
aS'to'
p2914
aS'pick'
p2915
aS'up'
p2916
aS'goth'
p2917
aS'bitches'
p2918
asg10
S'id like to pick up goth bitches'
p2919
sg12
S' but they only wear black'
p2920
sg14
Vmisunderstood-douchebag
p2921
sg16
(lp2922
g2912
ag2913
ag2914
ag2915
ag2916
ag2917
ag2918
aS'but'
p2923
aS'they'
p2924
aS'only'
p2925
aS'wear'
p2926
aS'black'
p2927
asg23
(lp2928
g2923
ag2924
ag2925
ag2926
ag2927
asba(iMeme
Meme
p2929
(dp2930
g3
(lp2931
S'deletes'
p2932
aS'content'
p2933
aS'with'
p2934
aS'red'
p2935
aS'thumbs'
p2936
asg10
S'deletes content with red thumbs'
p2937
sg12
S' so nobody has to see it anymore'
p2938
sg14
Vmisunderstood-douchebag
p2939
sg16
(lp2940
g2932
ag2933
ag2934
ag2935
ag2936
aS'so'
p2941
aS'nobody'
p2942
aS'has'
p2943
aS'to'
p2944
aS'see'
p2945
aS'it'
p2946
aS'anymore'
p2947
asg23
(lp2948
g2941
ag2942
ag2943
ag2944
ag2945
ag2946
ag2947
asba(iMeme
Meme
p2949
(dp2950
g3
(lp2951
S'complements'
p2952
aS'you'
p2953
aS'about'
p2954
aS'your'
p2955
aS'health'
p2956
asg10
S'complements you about your health'
p2957
sg12
S' cares about your health'
p2958
sg14
Vmisunderstood-douchebag
p2959
sg16
(lp2960
g2952
ag2953
ag2954
ag2955
ag2956
aS'cares'
p2961
aS'about'
p2962
aS'your'
p2963
aS'health'
p2964
asg23
(lp2965
g2961
ag2962
ag2963
ag2964
asba(iMeme
Meme
p2966
(dp2967
g3
(lp2968
S'dgg'
p2969
aS'is'
p2970
ag6
aS'fag'
p2971
asg10
S'dgg is a fag'
p2972
sg12
S' and that makes him happy'
p2973
sg14
Vmisunderstood-douchebag
p2974
sg16
(lp2975
g2969
ag2970
ag6
ag2971
aS'and'
p2976
aS'that'
p2977
aS'makes'
p2978
aS'him'
p2979
aS'happy'
p2980
asg23
(lp2981
g2976
ag2977
ag2978
ag2979
ag2980
asba(iMeme
Meme
p2982
(dp2983
g3
(lp2984
g227
aS'wont'
p2985
aS'pull'
p2986
aS'out'
p2987
asg10
S'i wont pull out'
p2988
sg12
S'  out of this upcoming election because i think the people need a candidate like me'
p2989
sg14
Vmisunderstood-douchebag
p2990
sg16
(lp2991
g227
ag2985
ag2986
ag2987
aS'out'
p2992
aS'of'
p2993
aS'this'
p2994
aS'upcoming'
p2995
aS'election'
p2996
aS'because'
p2997
ag227
aS'think'
p2998
aS'the'
p2999
aS'people'
p3000
aS'need'
p3001
ag6
aS'candidate'
p3002
aS'like'
p3003
aS'me'
p3004
asg23
(lp3005
g2992
ag2993
ag2994
ag2995
ag2996
ag2997
ag227
ag2998
ag2999
ag3000
ag3001
ag6
ag3002
ag3003
ag3004
asba(iMeme
Meme
p3006
(dp3007
g3
(lp3008
S'tells'
p3009
aS'everyone'
p3010
aS'on'
p3011
aS'4chan'
p3012
aS'about'
p3013
aS'reddit'
p3014
asg10
S'tells everyone on 4chan about reddit'
p3015
sg12
S' because he genuinely thinks reddit is better'
p3016
sg14
Vmisunderstood-douchebag
p3017
sg16
(lp3018
g3009
ag3010
ag3011
ag3012
ag3013
ag3014
aS'because'
p3019
aS'he'
p3020
aS'genuinely'
p3021
aS'thinks'
p3022
aS'reddit'
p3023
aS'is'
p3024
aS'better'
p3025
asg23
(lp3026
g3019
ag3020
ag3021
ag3022
ag3023
ag3024
ag3025
asba(iMeme
Meme
p3027
(dp3028
g3
(lp3029
S'pops'
p3030
aS'collar'
p3031
asg10
S'pops collar'
p3032
sg12
S' to hide a terrible infection on the back of his neck'
p3033
sg14
Vmisunderstood-douchebag
p3034
sg16
(lp3035
g3030
ag3031
aS'to'
p3036
aS'hide'
p3037
ag6
aS'terrible'
p3038
aS'infection'
p3039
aS'on'
p3040
aS'the'
p3041
aS'back'
p3042
aS'of'
p3043
aS'his'
p3044
aS'neck'
p3045
asg23
(lp3046
g3036
ag3037
ag6
ag3038
ag3039
ag3040
ag3041
ag3042
ag3043
ag3044
ag3045
asba(iMeme
Meme
p3047
(dp3048
g3
(lp3049
S'wears'
p3050
aS'white'
p3051
aS'robe'
p3052
aS'and'
p3053
aS'rudely'
p3054
aS'orders'
p3055
aS'men'
p3056
aS'around'
p3057
asg10
S'wears white robe and rudely orders men around'
p3058
sg12
S' is about to release the kraken'
p3059
sg14
Vmisunderstood-douchebag
p3060
sg16
(lp3061
g3050
ag3051
ag3052
ag3053
ag3054
ag3055
ag3056
ag3057
aS'is'
p3062
aS'about'
p3063
aS'to'
p3064
aS'release'
p3065
aS'the'
p3066
aS'kraken'
p3067
asg23
(lp3068
g3062
ag3063
ag3064
ag3065
ag3066
ag3067
asba(iMeme
Meme
p3069
(dp3070
g3
(lp3071
S'has'
p3072
aS'fucked'
p3073
ag6
aS'ton'
p3074
aS'of'
p3075
aS'girls'
p3076
asg10
S'has fucked a ton of girls'
p3077
sg12
S' they all broke his heart'
p3078
sg14
Vmisunderstood-douchebag
p3079
sg16
(lp3080
g3072
ag3073
ag6
ag3074
ag3075
ag3076
aS'they'
p3081
aS'all'
p3082
aS'broke'
p3083
aS'his'
p3084
aS'heart'
p3085
asg23
(lp3086
g3081
ag3082
ag3083
ag3084
ag3085
asba(iMeme
Meme
p3087
(dp3088
g3
(lp3089
S'wants'
p3090
aS'to'
p3091
aS'be'
p3092
aS'on'
p3093
ag6
aS'reality'
p3094
aS'show'
p3095
asg10
S'wants to be on a reality show'
p3096
sg12
S' hey guys'
p3097
sg14
Vmisunderstood-douchebag
p3098
sg16
(lp3099
g3090
ag3091
ag3092
ag3093
ag6
ag3094
ag3095
aS'hey'
p3100
aS'guys'
p3101
asg23
(lp3102
g3100
ag3101
asba(iMeme
Meme
p3103
(dp3104
g3
(lp3105
S'wants'
p3106
aS'to'
p3107
aS'be'
p3108
aS'on'
p3109
ag6
aS'reality'
p3110
aS'show'
p3111
asg10
S'wants to be on a reality show'
p3112
sg12
S' hey mtv'
p3113
sg14
Vmisunderstood-douchebag
p3114
sg16
(lp3115
g3106
ag3107
ag3108
ag3109
ag6
ag3110
ag3111
aS'hey'
p3116
aS'mtv'
p3117
asg23
(lp3118
g3116
ag3117
asba(iMeme
Meme
p3119
(dp3120
g3
(lp3121
S'goes'
p3122
aS'to'
p3123
aS'bed'
p3124
aS'with'
p3125
aS'drunk'
p3126
aS'girl'
p3127
asg10
S'goes to bed with drunk girl'
p3128
sg12
S' sleeps on floor'
p3129
sg14
Vmisunderstood-douchebag
p3130
sg16
(lp3131
g3122
ag3123
ag3124
ag3125
ag3126
ag3127
aS'sleeps'
p3132
aS'on'
p3133
aS'floor'
p3134
asg23
(lp3135
g3132
ag3133
ag3134
asba.