(lp0
(iMeme
Meme
p1
(dp2
S'top_text'
p3
(lp4
S'tried'
p5
aS'to'
p6
aS'rickroll'
p7
aS'the'
p8
aS'whole'
p9
aS'company'
p10
asS'top_text_raw'
p11
S'tried to rickroll the whole company'
p12
sS'bottom_text_raw'
p13
S' no one knew what rickrolling was'
p14
sS'meme_type'
p15
Vok-guy
p16
sS'all_text'
p17
(lp18
g5
ag6
ag7
ag8
ag9
ag10
aS'no'
p19
aS'one'
p20
aS'knew'
p21
aS'what'
p22
aS'rickrolling'
p23
aS'was'
p24
asS'bottom_text'
p25
(lp26
g19
ag20
ag21
ag22
ag23
ag24
asba(iMeme
Meme
p27
(dp28
g3
(lp29
S'away'
p30
aS'from'
p31
aS'computer'
p32
aS'all'
p33
aS'day'
p34
asg11
S'away from computer all day'
p35
sg13
S' doesnt understand new meme'
p36
sg15
Vok-guy
p37
sg17
(lp38
g30
ag31
ag32
ag33
ag34
aS'doesnt'
p39
aS'understand'
p40
aS'new'
p41
aS'meme'
p42
asg25
(lp43
g39
ag40
ag41
ag42
asba(iMeme
Meme
p44
(dp45
g3
(lp46
S'juggalos'
p47
aS'have'
p48
aS'funny'
p49
aS'comebacks'
p50
asg11
S'juggalos have funny comebacks'
p51
sg13
S' need to go to juggalo holocaust to make me feel better.'
p52
sg15
Vok-guy
p53
sg17
(lp54
g47
ag48
ag49
ag50
aS'need'
p55
aS'to'
p56
aS'go'
p57
aS'to'
p58
aS'juggalo'
p59
aS'holocaust'
p60
aS'to'
p61
aS'make'
p62
aS'me'
p63
aS'feel'
p64
aS'better'
p65
aS'.'
p66
asg25
(lp67
g55
ag56
ag57
ag58
ag59
ag60
ag61
ag62
ag63
ag64
ag65
ag66
asba(iMeme
Meme
p68
(dp69
g3
(lp70
S'that'
p71
aS'awkward'
p72
aS'moment'
p73
aS'when'
p74
aS'you'
p75
aS'think'
p76
aS'someone'
p77
aS'is'
p78
aS'waving'
p79
aS'at'
p80
aS'you'
p81
asg11
S'that awkward moment when you think someone is waving at you'
p82
sg13
S' and you wave back only to realize they were waving at the person behind you'
p83
sg15
Vok-guy
p84
sg17
(lp85
g71
ag72
ag73
ag74
ag75
ag76
ag77
ag78
ag79
ag80
ag81
aS'and'
p86
aS'you'
p87
aS'wave'
p88
aS'back'
p89
aS'only'
p90
aS'to'
p91
aS'realize'
p92
aS'they'
p93
aS'were'
p94
aS'waving'
p95
aS'at'
p96
aS'the'
p97
aS'person'
p98
aS'behind'
p99
aS'you'
p100
asg25
(lp101
g86
ag87
ag88
ag89
ag90
ag91
ag92
ag93
ag94
ag95
ag96
ag97
ag98
ag99
ag100
asba(iMeme
Meme
p102
(dp103
g3
(lp104
S'you'
p105
aS'forgot'
p106
aS'about'
p107
aS'me'
p108
asg11
S'you forgot about me'
p109
sg13
S' nobody loves me'
p110
sg15
Vok-guy
p111
sg17
(lp112
g105
ag106
ag107
ag108
aS'nobody'
p113
aS'loves'
p114
aS'me'
p115
asg25
(lp116
g113
ag114
ag115
asba(iMeme
Meme
p117
(dp118
g3
(lp119
S'tried'
p120
aS'to'
p121
aS'make'
p122
aS'a'
p123
aS'meme'
p124
asg11
S'tried to make a meme'
p125
sg13
S' failed'
p126
sg15
Vok-guy
p127
sg17
(lp128
g120
ag121
ag122
ag123
ag124
aS'failed'
p129
asg25
(lp130
g129
asba(iMeme
Meme
p131
(dp132
g3
(lp133
S'i'
p134
aS'had'
p135
ag123
aS'girlfriend'
p136
asg11
S'i had a girlfriend'
p137
sg13
S' took an arrow to the knee'
p138
sg15
Vok-guy
p139
sg17
(lp140
g134
ag135
ag123
ag136
aS'took'
p141
aS'an'
p142
aS'arrow'
p143
aS'to'
p144
aS'the'
p145
aS'knee'
p146
asg25
(lp147
g141
ag142
ag143
ag144
ag145
ag146
asba(iMeme
Meme
p148
(dp149
g3
(lp150
S'im'
p151
aS'sorry'
p152
asg11
S'im sorry'
p153
sg13
S' ill go away'
p154
sg15
Vok-guy
p155
sg17
(lp156
g151
ag152
aS'ill'
p157
aS'go'
p158
aS'away'
p159
asg25
(lp160
g157
ag158
ag159
asba(iMeme
Meme
p161
(dp162
g3
(lp163
S'goes'
p164
aS'to'
p165
aS'play'
p166
aS'fifa'
p167
aS'13'
p168
aS'ut'
p169
asg11
S'goes to play fifa 13 ut'
p170
sg13
S' nobody available players'
p171
sg15
Vok-guy
p172
sg17
(lp173
g164
ag165
ag166
ag167
ag168
ag169
aS'nobody'
p174
aS'available'
p175
aS'players'
p176
asg25
(lp177
g174
ag175
ag176
asba(iMeme
Meme
p178
(dp179
g3
(lp180
S'finally'
p181
aS'goes'
p182
aS'out'
p183
aS'with'
p184
ag123
aS'girl'
p185
asg11
S'finally goes out with a girl'
p186
sg13
S' then gets friendzoned'
p187
sg15
Vok-guy
p188
sg17
(lp189
g181
ag182
ag183
ag184
ag123
ag185
aS'then'
p190
aS'gets'
p191
aS'friendzoned'
p192
asg25
(lp193
g190
ag191
ag192
asba(iMeme
Meme
p194
(dp195
g3
(lp196
S'the'
p197
aS'slenderman'
p198
asg11
S'the slenderman'
p199
sg13
S' forever lonely'
p200
sg15
Vok-guy
p201
sg17
(lp202
g197
ag198
aS'forever'
p203
aS'lonely'
p204
asg25
(lp205
g203
ag204
asba(iMeme
Meme
p206
(dp207
g3
(lp208
S'isaiah'
p209
asg11
S'isaiah'
p210
sg13
S' are you so gay?'
p211
sg15
Vok-guy
p212
sg17
(lp213
g209
aS'are'
p214
aS'you'
p215
aS'so'
p216
aS'gay'
p217
aS'?'
p218
asg25
(lp219
g214
ag215
ag216
ag217
ag218
asba(iMeme
Meme
p220
(dp221
g3
(lp222
g123
aS'belieber'
p223
aS'just'
p224
aS'liked'
p225
aS'your'
p226
aS'page'
p227
ag66
asg11
S'a belieber just liked your page.'
p228
sg13
S' okay'
p229
sg15
Vok-guy
p230
sg17
(lp231
g123
ag223
ag224
ag225
ag226
ag227
ag66
aS'okay'
p232
asg25
(lp233
g232
asba(iMeme
Meme
p234
(dp235
g3
(lp236
S'okay'
p237
asg11
S'okay'
p238
sg13
S' as long as we can celebrate'
p239
sg15
Vok-guy
p240
sg17
(lp241
g237
aS'as'
p242
aS'long'
p243
aS'as'
p244
aS'we'
p245
aS'can'
p246
aS'celebrate'
p247
asg25
(lp248
g242
ag243
ag244
ag245
ag246
ag247
asba(iMeme
Meme
p249
(dp250
g3
(lp251
S'thats'
p252
aS'your'
p253
aS'face'
p254
aS'when'
p255
asg11
S'thats your face when'
p256
sg13
S' you see pepe !?'
p257
sg15
Vok-guy
p258
sg17
(lp259
g252
ag253
ag254
ag255
aS'you'
p260
aS'see'
p261
aS'pepe'
p262
aS'!'
p263
ag218
asg25
(lp264
g260
ag261
ag262
ag263
ag218
asba(iMeme
Meme
p265
(dp266
g3
(lp267
S'all'
p268
aS'polar'
p269
aS'bears'
p270
aS'are'
p271
aS'ofline'
p272
asg11
S'all polar bears are ofline'
p273
sg13
S' ok ! ill study.'
p274
sg15
Vok-guy
p275
sg17
(lp276
g268
ag269
ag270
ag271
ag272
aS'ok'
p277
ag263
aS'ill'
p278
aS'study'
p279
ag66
asg25
(lp280
g277
ag263
ag278
ag279
ag66
asba(iMeme
Meme
p281
(dp282
g3
(lp283
S'no'
p284
aS'one'
p285
aS'sends'
p286
aS'me'
p287
aS'invite'
p288
asg11
S'no one sends me invite'
p289
sg13
S' okay'
p290
sg15
Vok-guy
p291
sg17
(lp292
g284
ag285
ag286
ag287
ag288
aS'okay'
p293
asg25
(lp294
g293
asba(iMeme
Meme
p295
(dp296
g3
(lp297
S'im'
p298
aS'hungry'
p299
aS'angela'
p300
asg11
S'im hungry angela'
p301
sg13
S' why you be so mean to me today angela why'
p302
sg15
Vok-guy
p303
sg17
(lp304
g298
ag299
ag300
aS'why'
p305
aS'you'
p306
aS'be'
p307
aS'so'
p308
aS'mean'
p309
aS'to'
p310
aS'me'
p311
aS'today'
p312
aS'angela'
p313
aS'why'
p314
asg25
(lp315
g305
ag306
ag307
ag308
ag309
ag310
ag311
ag312
ag313
ag314
asba(iMeme
Meme
p316
(dp317
g3
(lp318
S'vote'
p319
aS'for'
p320
aS'me'
p321
aS'in'
p322
aS'elections'
p323
asg11
S'vote for me in elections'
p324
sg13
S' ok'
p325
sg15
Vok-guy
p326
sg17
(lp327
g319
ag320
ag321
ag322
ag323
aS'ok'
p328
asg25
(lp329
g328
asba(iMeme
Meme
p330
(dp331
g3
(lp332
S'cancelled'
p333
aS'my'
p334
aS'friend'
p335
aS'request'
p336
asg11
S'cancelled my friend request'
p337
sg13
S' ok    life goes on'
p338
sg15
Vok-guy
p339
sg17
(lp340
g333
ag334
ag335
ag336
aS'ok'
p341
aS'life'
p342
aS'goes'
p343
aS'on'
p344
asg25
(lp345
g341
ag342
ag343
ag344
asba(iMeme
Meme
p346
(dp347
g3
(lp348
S'no'
p349
aS'starbucks'
p350
asg11
S'no starbucks'
p351
sg13
S' makes me very very unhappy.'
p352
sg15
Vok-guy
p353
sg17
(lp354
g349
ag350
aS'makes'
p355
aS'me'
p356
aS'very'
p357
aS'very'
p358
aS'unhappy'
p359
ag66
asg25
(lp360
g355
ag356
ag357
ag358
ag359
ag66
asba(iMeme
Meme
p361
(dp362
g3
(lp363
g134
aS'friended'
p364
aS'david'
p365
aS'for'
p366
aS'his'
p367
aS'liberty'
p368
aS'memes'
p369
asg11
S'i friended david for his liberty memes'
p370
sg13
S' then i found out he was a neocon'
p371
sg15
Vok-guy
p372
sg17
(lp373
g134
ag364
ag365
ag366
ag367
ag368
ag369
aS'then'
p374
ag134
aS'found'
p375
aS'out'
p376
aS'he'
p377
aS'was'
p378
ag123
aS'neocon'
p379
asg25
(lp380
g374
ag134
ag375
ag376
ag377
ag378
ag123
ag379
asba(iMeme
Meme
p381
(dp382
g3
(lp383
S'mackie'
p384
aS'calls'
p385
aS'you'
p386
aS'and'
p387
aS'tells'
p388
aS'you'
p389
aS'you'
p390
aS'are'
p391
aS'fighting'
p392
aS'tomorrow'
p393
aS'and'
p394
aS'have'
p395
aS'to'
p396
aS'lose'
p397
aS'10'
p398
aS'lb'
p399
asg11
S'mackie calls you and tells you you are fighting tomorrow and have to lose 10 lb'
p400
sg13
S' okay'
p401
sg15
Vok-guy
p402
sg17
(lp403
g384
ag385
ag386
ag387
ag388
ag389
ag390
ag391
ag392
ag393
ag394
ag395
ag396
ag397
ag398
ag399
aS'okay'
p404
asg25
(lp405
g404
asba(iMeme
Meme
p406
(dp407
g3
(lp408
S'you'
p409
aS'got'
p410
ag123
aS'girlfriend'
p411
aS'yet'
p412
ag218
asg11
S'you got a girlfriend yet?'
p413
sg13
S' no im a virgin.'
p414
sg15
Vok-guy
p415
sg17
(lp416
g409
ag410
ag123
ag411
ag412
ag218
aS'no'
p417
aS'im'
p418
ag123
aS'virgin'
p419
ag66
asg25
(lp420
g417
ag418
ag123
ag419
ag66
asba(iMeme
Meme
p421
(dp422
g3
(lp423
S'go'
p424
aS'to'
p425
aS'lemmy'
p426
asg11
S'go to lemmy'
p427
sg13
S' pay 4'
p428
sg15
Vok-guy
p429
sg17
(lp430
g424
ag425
ag426
aS'pay'
p431
aS'4'
p432
asg25
(lp433
g431
ag432
asba(iMeme
Meme
p434
(dp435
g3
(lp436
S'hot'
p437
aS'girl'
p438
aS'likes'
p439
aS'you'
p440
asg11
S'hot girl likes you'
p441
sg13
S' nah just kidding trololololo'
p442
sg15
Vok-guy
p443
sg17
(lp444
g437
ag438
ag439
ag440
aS'nah'
p445
aS'just'
p446
aS'kidding'
p447
aS'trololololo'
p448
asg25
(lp449
g445
ag446
ag447
ag448
asba(iMeme
Meme
p450
(dp451
g3
(lp452
S'see'
p453
aS'facebook'
p454
aS'people'
p455
aS'you'
p456
aS'may'
p457
aS'know'
p458
asg11
S'see facebook people you may know'
p459
sg13
S' see only relationships and boys'
p460
sg15
Vok-guy
p461
sg17
(lp462
g453
ag454
ag455
ag456
ag457
ag458
aS'see'
p463
aS'only'
p464
aS'relationships'
p465
aS'and'
p466
aS'boys'
p467
asg25
(lp468
g463
ag464
ag465
ag466
ag467
asba(iMeme
Meme
p469
(dp470
g3
(lp471
S'you'
p472
aS'mad'
p473
aS'bro'
p474
ag218
asg11
S'you mad bro?'
p475
sg13
S' shutup ye cheeseball'
p476
sg15
Vok-guy
p477
sg17
(lp478
g472
ag473
ag474
ag218
aS'shutup'
p479
aS'ye'
p480
aS'cheeseball'
p481
asg25
(lp482
g479
ag480
ag481
asba(iMeme
Meme
p483
(dp484
g3
(lp485
S'barcelona'
p486
asg11
S'barcelona'
p487
sg13
S' get many cups as us  real madrid'
p488
sg15
Vok-guy
p489
sg17
(lp490
g486
aS'get'
p491
aS'many'
p492
aS'cups'
p493
aS'as'
p494
aS'us'
p495
aS'real'
p496
aS'madrid'
p497
asg25
(lp498
g491
ag492
ag493
ag494
ag495
ag496
ag497
asba(iMeme
Meme
p499
(dp500
g3
(lp501
S'german'
p502
aS'repossini'
p503
aS'sucks'
p504
aS'at'
p505
aS'soccer'
p506
asg11
S'german repossini sucks at soccer'
p507
sg13
S' ok'
p508
sg15
Vok-guy
p509
sg17
(lp510
g502
ag503
ag504
ag505
ag506
aS'ok'
p511
asg25
(lp512
g511
asba(iMeme
Meme
p513
(dp514
g3
(lp515
S'11:50pm'
p516
ag66
aS'homework'
p517
aS'due'
p518
aS'tomorrow'
p519
ag66
asg11
S'11:50pm.  homework due tomorrow.'
p520
sg13
S' okay'
p521
sg15
Vok-guy
p522
sg17
(lp523
g516
ag66
ag517
ag518
ag519
ag66
aS'okay'
p524
asg25
(lp525
g524
asba(iMeme
Meme
p526
(dp527
g3
(lp528
S'no'
p529
aS'more'
p530
aS'facebook'
p531
aS'til'
p532
aS'november'
p533
aS'21st'
p534
asg11
S'no more facebook til november 21st'
p535
sg13
S' because of ib exams'
p536
sg15
Vok-guy
p537
sg17
(lp538
g529
ag530
ag531
ag532
ag533
ag534
aS'because'
p539
aS'of'
p540
aS'ib'
p541
aS'exams'
p542
asg25
(lp543
g539
ag540
ag541
ag542
asba(iMeme
Meme
p544
(dp545
g3
(lp546
S'tried'
p547
aS'to'
p548
aS'call'
p549
aS'out'
p550
aS'to'
p551
aS'teacher'
p552
asg11
S'tried to call out to teacher'
p553
sg13
S' teacher kept walking'
p554
sg15
Vok-guy
p555
sg17
(lp556
g547
ag548
ag549
ag550
ag551
ag552
aS'teacher'
p557
aS'kept'
p558
aS'walking'
p559
asg25
(lp560
g557
ag558
ag559
asba(iMeme
Meme
p561
(dp562
g3
(lp563
S'you'
p564
aS'didnt'
p565
aS'get'
p566
aS'the'
p567
aS'job'
p568
ag66
aS'it'
p569
aS'was'
p570
aS'very'
p571
aS'difficult'
p572
aS'to'
p573
aS'make'
p574
aS'our'
p575
aS'decision'
p576
asg11
S'you didnt get the job. it was very difficult to make our decision'
p577
sg13
S' okay'
p578
sg15
Vok-guy
p579
sg17
(lp580
g564
ag565
ag566
ag567
ag568
ag66
ag569
ag570
ag571
ag572
ag573
ag574
ag575
ag576
aS'okay'
p581
asg25
(lp582
g581
asba(iMeme
Meme
p583
(dp584
g3
(lp585
S'miss'
p586
aS'ko'
p587
aS'na'
p588
aS'kayo'
p589
asg11
S'miss ko na kayo'
p590
sg13
S' _s.a12_'
p591
sg15
Vok-guy
p592
sg17
(lp593
g586
ag587
ag588
ag589
aS'_s.a12_'
p594
asg25
(lp595
g594
asba(iMeme
Meme
p596
(dp597
g3
(lp598
S'zero'
p599
aS'mistakes'
p600
aS'on'
p601
aS'the'
p602
aS'exam'
p603
asg11
S'zero mistakes on the exam'
p604
sg13
S' okay'
p605
sg15
Vok-guy
p606
sg17
(lp607
g599
ag600
ag601
ag602
ag603
aS'okay'
p608
asg25
(lp609
g608
asba(iMeme
Meme
p610
(dp611
g3
(lp612
S'plays'
p613
aS'cards'
p614
aS'normally'
p615
asg11
S'plays cards normally'
p616
sg13
S' accused of cheating'
p617
sg15
Vok-guy
p618
sg17
(lp619
g613
ag614
ag615
aS'accused'
p620
aS'of'
p621
aS'cheating'
p622
asg25
(lp623
g620
ag621
ag622
asba(iMeme
Meme
p624
(dp625
g3
(lp626
S'went'
p627
aS'on'
p628
aS'maasf'
p629
aS'tonight'
p630
aS'to'
p631
aS'see'
p632
aS'what'
p633
aS'was'
p634
aS'up'
p635
asg11
S'went on maasf tonight to see what was up'
p636
sg13
S' made airsoft memes all night'
p637
sg15
Vok-guy
p638
sg17
(lp639
g627
ag628
ag629
ag630
ag631
ag632
ag633
ag634
ag635
aS'made'
p640
aS'airsoft'
p641
aS'memes'
p642
aS'all'
p643
aS'night'
p644
asg25
(lp645
g640
ag641
ag642
ag643
ag644
asba(iMeme
Meme
p646
(dp647
g3
(lp648
S'regents'
p649
aS'vote'
p650
aS'to'
p651
aS'raise'
p652
aS'tuition'
p653
aS'5'
p654
aS'%'
p655
aS'every'
p656
aS'year'
p657
asg11
S'regents vote to raise tuition 5% every year'
p658
sg13
S' okay'
p659
sg15
Vok-guy
p660
sg17
(lp661
g649
ag650
ag651
ag652
ag653
ag654
ag655
ag656
ag657
aS'okay'
p662
asg25
(lp663
g662
asba(iMeme
Meme
p664
(dp665
g3
(lp666
S'lawn'
p667
aS'bowl'
p668
aS'shirt'
p669
aS'nice'
p670
asg11
S'lawn bowl shirt  nice'
p671
sg13
S' okay'
p672
sg15
Vok-guy
p673
sg17
(lp674
g667
ag668
ag669
ag670
aS'okay'
p675
asg25
(lp676
g675
asba(iMeme
Meme
p677
(dp678
g3
(lp679
S'have'
p680
ag123
aS'gf'
p681
asg11
S'have a gf'
p682
sg13
S' now al girls want a tresom  with me'
p683
sg15
Vok-guy
p684
sg17
(lp685
g680
ag123
ag681
aS'now'
p686
aS'al'
p687
aS'girls'
p688
aS'want'
p689
ag123
aS'tresom'
p690
aS'with'
p691
aS'me'
p692
asg25
(lp693
g686
ag687
ag688
ag689
ag123
ag690
ag691
ag692
asba(iMeme
Meme
p694
(dp695
g3
(lp696
S'that'
p697
aS'moment'
p698
aS'when'
p699
aS'you'
p700
aS'go'
p701
aS'early'
p702
aS'to'
p703
aS'the'
p704
aS'canteen'
p705
asg11
S'that moment when you go early to the canteen'
p706
sg13
S' but  come to know all the samosas are over'
p707
sg15
Vok-guy
p708
sg17
(lp709
g697
ag698
ag699
ag700
ag701
ag702
ag703
ag704
ag705
aS'but'
p710
aS'come'
p711
aS'to'
p712
aS'know'
p713
aS'all'
p714
aS'the'
p715
aS'samosas'
p716
aS'are'
p717
aS'over'
p718
asg25
(lp719
g710
ag711
ag712
ag713
ag714
ag715
ag716
ag717
ag718
asba(iMeme
Meme
p720
(dp721
g3
(lp722
S'yeah'
p723
asg11
S'yeah'
p724
sg13
S' you really have to wait'
p725
sg15
Vok-guy
p726
sg17
(lp727
g723
aS'you'
p728
aS'really'
p729
aS'have'
p730
aS'to'
p731
aS'wait'
p732
asg25
(lp733
g728
ag729
ag730
ag731
ag732
asba(iMeme
Meme
p734
(dp735
g3
(lp736
S'thought'
p737
aS'he'
p738
aS'was'
p739
aS'unlucky'
p740
aS'until'
p741
aS'he'
p742
aS'lost'
p743
aS'his'
p744
aS'virginity'
p745
asg11
S'thought he was unlucky until he lost his virginity'
p746
sg13
S' now has 4 incurable stds'
p747
sg15
Vok-guy
p748
sg17
(lp749
g737
ag738
ag739
ag740
ag741
ag742
ag743
ag744
ag745
aS'now'
p750
aS'has'
p751
ag432
aS'incurable'
p752
aS'stds'
p753
asg25
(lp754
g750
ag751
ag432
ag752
ag753
asba(iMeme
Meme
p755
(dp756
g3
(lp757
S'why'
p758
aS'tell'
p759
aS'me'
p760
aS'you'
p761
aS'have'
p762
aS'feelings'
p763
aS'for'
p764
aS'me'
p765
aS'in'
p766
aS'the'
p767
aS'first'
p768
aS'place'
p769
asg11
S'why tell me you have feelings for me in the first place'
p770
sg13
S' if you are just going to tease me then ignore me?!'
p771
sg15
Vok-guy
p772
sg17
(lp773
g758
ag759
ag760
ag761
ag762
ag763
ag764
ag765
ag766
ag767
ag768
ag769
aS'if'
p774
aS'you'
p775
aS'are'
p776
aS'just'
p777
aS'going'
p778
aS'to'
p779
aS'tease'
p780
aS'me'
p781
aS'then'
p782
aS'ignore'
p783
aS'me'
p784
ag218
ag263
asg25
(lp785
g774
ag775
ag776
ag777
ag778
ag779
ag780
ag781
ag782
ag783
ag784
ag218
ag263
asba(iMeme
Meme
p786
(dp787
g3
(lp788
S'states'
p789
aS'rights'
p790
aS'trump'
p791
aS'human'
p792
aS'rights'
p793
ag218
asg11
S'states rights trump human rights?'
p794
sg13
S' oh'
p795
sg15
Vok-guy
p796
sg17
(lp797
g789
ag790
ag791
ag792
ag793
ag218
aS'oh'
p798
asg25
(lp799
g798
asba(iMeme
Meme
p800
(dp801
g3
(lp802
S'that'
p803
aS'person'
p804
aS'who'
p805
aS'makes'
p806
aS'this'
p807
aS'face'
p808
aS'every'
p809
aS'time'
p810
aS'while'
p811
aS'getting'
p812
aS'scolded'
p813
aS'from'
p814
asg11
S'that person who makes this face every time while getting scolded from'
p815
sg13
S' urdu teacher'
p816
sg15
Vok-guy
p817
sg17
(lp818
g803
ag804
ag805
ag806
ag807
ag808
ag809
ag810
ag811
ag812
ag813
ag814
aS'urdu'
p819
aS'teacher'
p820
asg25
(lp821
g819
ag820
asba(iMeme
Meme
p822
(dp823
g3
(lp824
S'so'
p825
aS'everyone'
p826
aS'is'
p827
aS'getting'
p828
aS'their'
p829
aS'first'
p830
aS'penta'
p831
ag218
asg11
S'so everyone is getting their first penta?'
p832
sg13
S' it must be nice'
p833
sg15
Vok-guy
p834
sg17
(lp835
g825
ag826
ag827
ag828
ag829
ag830
ag831
ag218
aS'it'
p836
aS'must'
p837
aS'be'
p838
aS'nice'
p839
asg25
(lp840
g836
ag837
ag838
ag839
asba(iMeme
Meme
p841
(dp842
g3
(lp843
S'she'
p844
aS'said'
p845
ag134
aS'had'
p846
aS'to'
p847
aS'let'
p848
aS'her'
p849
aS'pay'
p850
asg11
S'she said i had to let her pay'
p851
sg13
S' okay'
p852
sg15
Vok-guy
p853
sg17
(lp854
g844
ag845
ag134
ag846
ag847
ag848
ag849
ag850
aS'okay'
p855
asg25
(lp856
g855
asba(iMeme
Meme
p857
(dp858
g3
(lp859
S'macuffs'
p860
aS'son'
p861
aS'dosent'
p862
aS'recieve'
p863
aS'an'
p864
aS'actual'
p865
aS'name'
p866
aS'in'
p867
aS'the'
p868
aS'play'
p869
asg11
S'macuffs son dosent recieve an actual name in the play'
p870
sg13
S' okay'
p871
sg15
Vok-guy
p872
sg17
(lp873
g860
ag861
ag862
ag863
ag864
ag865
ag866
ag867
ag868
ag869
aS'okay'
p874
asg25
(lp875
g874
asba(iMeme
Meme
p876
(dp877
g3
(lp878
S'friends'
p879
aS'again'
p880
ag218
aS'no'
p881
ag218
asg11
S'friends again ? no ?'
p882
sg13
S' okay :('
p883
sg15
Vok-guy
p884
sg17
(lp885
g879
ag880
ag218
ag881
ag218
aS'okay'
p886
aS':'
p887
aS'('
p888
asg25
(lp889
g886
ag887
ag888
asba(iMeme
Meme
p890
(dp891
g3
(lp892
g134
aS'never'
p893
aS'said'
p894
ag134
aS'didnt'
p895
aS'love'
p896
aS'you'
p897
asg11
S'i never said i didnt love you'
p898
sg13
S' but okay'
p899
sg15
Vok-guy
p900
sg17
(lp901
g134
ag893
ag894
ag134
ag895
ag896
ag897
aS'but'
p902
aS'okay'
p903
asg25
(lp904
g902
ag903
asba(iMeme
Meme
p905
(dp906
g3
(lp907
S'thats'
p908
aS'okay'
p909
asg11
S'thats okay'
p910
sg13
S' as long as we can celebrate'
p911
sg15
Vok-guy
p912
sg17
(lp913
g908
ag909
aS'as'
p914
aS'long'
p915
aS'as'
p916
aS'we'
p917
aS'can'
p918
aS'celebrate'
p919
asg25
(lp920
g914
ag915
ag916
ag917
ag918
ag919
asba(iMeme
Meme
p921
(dp922
g3
(lp923
S'exams'
p924
aS'after'
p925
aS'winter'
p926
aS'vacation'
p927
asg11
S'exams after winter vacation'
p928
sg13
S' okay'
p929
sg15
Vok-guy
p930
sg17
(lp931
g924
ag925
ag926
ag927
aS'okay'
p932
asg25
(lp933
g932
asba(iMeme
Meme
p934
(dp935
g3
(lp936
S'that'
p937
aS'awkward'
p938
aS'moment'
p939
aS'when'
p940
aS'you'
p941
aS'realise'
p942
aS'that'
p943
aS'the'
p944
aS'pc'
p945
aS'at'
p946
aS'work'
p947
asg11
S'that awkward moment when you realise that the pc at work'
p948
sg13
S' is better than your own'
p949
sg15
Vok-guy
p950
sg17
(lp951
g937
ag938
ag939
ag940
ag941
ag942
ag943
ag944
ag945
ag946
ag947
aS'is'
p952
aS'better'
p953
aS'than'
p954
aS'your'
p955
aS'own'
p956
asg25
(lp957
g952
ag953
ag954
ag955
ag956
asba(iMeme
Meme
p958
(dp959
g3
(lp960
S'we'
p961
aS'r'
p962
aS'sad'
p963
aS'to'
p964
aS'inform'
p965
aS'you'
p966
aS'dat'
p967
aS'1'
p968
aS'of'
p969
aS'our'
p970
aS'admins'
p971
aS'has'
p972
aS'been'
p973
aS'injured'
p974
asg11
S'we r sad to inform you dat 1 of our  admins has been injured'
p975
sg13
S' during d report card day and no or few memes can be made from him'
p976
sg15
Vok-guy
p977
sg17
(lp978
g961
ag962
ag963
ag964
ag965
ag966
ag967
ag968
ag969
ag970
ag971
ag972
ag973
ag974
aS'during'
p979
aS'd'
p980
aS'report'
p981
aS'card'
p982
aS'day'
p983
aS'and'
p984
aS'no'
p985
aS'or'
p986
aS'few'
p987
aS'memes'
p988
aS'can'
p989
aS'be'
p990
aS'made'
p991
aS'from'
p992
aS'him'
p993
asg25
(lp994
g979
ag980
ag981
ag982
ag983
ag984
ag985
ag986
ag987
ag988
ag989
ag990
ag991
ag992
ag993
asba(iMeme
Meme
p995
(dp996
g3
(lp997
S'nani'
p998
aS'gave'
p999
aS'me'
p1000
aS'100'
p1001
aS'rs'
p1002
asg11
S'nani gave me 100 rs'
p1003
sg13
S' parent took it'
p1004
sg15
Vok-guy
p1005
sg17
(lp1006
g998
ag999
ag1000
ag1001
ag1002
aS'parent'
p1007
aS'took'
p1008
aS'it'
p1009
asg25
(lp1010
g1007
ag1008
ag1009
asba(iMeme
Meme
p1011
(dp1012
g3
(lp1013
S'connect'
p1014
aS'the'
p1015
aS'components'
p1016
aS'together'
p1017
asg11
S'connect the components together'
p1018
sg13
S' okay'
p1019
sg15
Vok-guy
p1020
sg17
(lp1021
g1014
ag1015
ag1016
ag1017
aS'okay'
p1022
asg25
(lp1023
g1022
asba(iMeme
Meme
p1024
(dp1025
g3
(lp1026
S'went'
p1027
aS'for'
p1028
aS'free'
p1029
aS'pancake'
p1030
aS'breakfast'
p1031
asg11
S'went for free pancake breakfast'
p1032
sg13
S' only got free pancakes'
p1033
sg15
Vok-guy
p1034
sg17
(lp1035
g1027
ag1028
ag1029
ag1030
ag1031
aS'only'
p1036
aS'got'
p1037
aS'free'
p1038
aS'pancakes'
p1039
asg25
(lp1040
g1036
ag1037
ag1038
ag1039
asba(iMeme
Meme
p1041
(dp1042
g3
(lp1043
S'states'
p1044
aS'still'
p1045
aS'have'
p1046
aS'rights'
p1047
asg11
S'states still have rights'
p1048
sg13
S' to ban marriage?'
p1049
sg15
Vok-guy
p1050
sg17
(lp1051
g1044
ag1045
ag1046
ag1047
aS'to'
p1052
aS'ban'
p1053
aS'marriage'
p1054
ag218
asg25
(lp1055
g1052
ag1053
ag1054
ag218
asba(iMeme
Meme
p1056
(dp1057
g3
(lp1058
S'daddy'
p1059
aS'im'
p1060
aS'gay'
p1061
aS':3'
p1062
asg11
S'daddy im gay :3'
p1063
sg13
S' okay'
p1064
sg15
Vok-guy
p1065
sg17
(lp1066
g1059
ag1060
ag1061
ag1062
aS'okay'
p1067
asg25
(lp1068
g1067
asba(iMeme
Meme
p1069
(dp1070
g3
(lp1071
S'my'
p1072
aS'reaction'
p1073
aS'after'
p1074
aS'our'
p1075
asg11
S'my reaction after our'
p1076
sg13
S' physics class'
p1077
sg15
Vok-guy
p1078
sg17
(lp1079
g1072
ag1073
ag1074
ag1075
aS'physics'
p1080
aS'class'
p1081
asg25
(lp1082
g1080
ag1081
asba(iMeme
Meme
p1083
(dp1084
g3
(lp1085
S'wished'
p1086
aS'ms.chitra'
p1087
aS'happy'
p1088
aS'diwali'
p1089
asg11
S'wished ms.chitra happy diwali'
p1090
sg13
S' got a trip to her office'
p1091
sg15
Vok-guy
p1092
sg17
(lp1093
g1086
ag1087
ag1088
ag1089
aS'got'
p1094
ag123
aS'trip'
p1095
aS'to'
p1096
aS'her'
p1097
aS'office'
p1098
asg25
(lp1099
g1094
ag123
ag1095
ag1096
ag1097
ag1098
asba(iMeme
Meme
p1100
(dp1101
g3
(lp1102
S'wanted'
p1103
aS'to'
p1104
aS'play'
p1105
aS'football'
p1106
asg11
S'wanted to play football'
p1107
sg13
S' training to rahi thi'
p1108
sg15
Vok-guy
p1109
sg17
(lp1110
g1103
ag1104
ag1105
ag1106
aS'training'
p1111
aS'to'
p1112
aS'rahi'
p1113
aS'thi'
p1114
asg25
(lp1115
g1111
ag1112
ag1113
ag1114
asba(iMeme
Meme
p1116
(dp1117
g3
(lp1118
S'abeer'
p1119
aS'is'
p1120
aS'stupid'
p1121
asg11
S'abeer is stupid'
p1122
sg13
S' hhhhhhhhh'
p1123
sg15
Vok-guy
p1124
sg17
(lp1125
g1119
ag1120
ag1121
aS'hhhhhhhhh'
p1126
asg25
(lp1127
g1126
asba(iMeme
Meme
p1128
(dp1129
g3
(lp1130
S'pot'
p1131
aS'de'
p1132
aS'fraises'
p1133
ag218
asg11
S'pot de fraises ?'
p1134
sg13
S' okay'
p1135
sg15
Vok-guy
p1136
sg17
(lp1137
g1131
ag1132
ag1133
ag218
aS'okay'
p1138
asg25
(lp1139
g1138
asba(iMeme
Meme
p1140
(dp1141
g3
(lp1142
S'wan'
p1143
aS'na'
p1144
aS'eat'
p1145
aS'pizza'
p1146
asg11
S'wanna eat pizza'
p1147
sg13
S' no ketchup left'
p1148
sg15
Vok-guy
p1149
sg17
(lp1150
g1143
ag1144
ag1145
ag1146
aS'no'
p1151
aS'ketchup'
p1152
aS'left'
p1153
asg25
(lp1154
g1151
ag1152
ag1153
asba(iMeme
Meme
p1155
(dp1156
g3
(lp1157
S'nice'
p1158
aS'guys'
p1159
aS'finish'
p1160
aS'last'
p1161
ag218
asg11
S'nice guys finish last?'
p1162
sg13
S' okay'
p1163
sg15
Vok-guy
p1164
sg17
(lp1165
g1158
ag1159
ag1160
ag1161
ag218
aS'okay'
p1166
asg25
(lp1167
g1166
asba(iMeme
Meme
p1168
(dp1169
g3
(lp1170
S'got'
p1171
aS'high'
p1172
aS'and'
p1173
aS'went'
p1174
aS'to'
p1175
aS'present'
p1176
ag123
aS'speech'
p1177
asg11
S'got high and went to present a speech'
p1178
sg13
S' no class today'
p1179
sg15
Vok-guy
p1180
sg17
(lp1181
g1171
ag1172
ag1173
ag1174
ag1175
ag1176
ag123
ag1177
aS'no'
p1182
aS'class'
p1183
aS'today'
p1184
asg25
(lp1185
g1182
ag1183
ag1184
asba(iMeme
Meme
p1186
(dp1187
g3
(lp1188
S'regents'
p1189
aS'vote'
p1190
aS'to'
p1191
aS'raise'
p1192
aS'tuition'
p1193
ag654
ag655
asg11
S'regents vote to raise tuition 5%'
p1194
sg13
S' okay'
p1195
sg15
Vok-guy
p1196
sg17
(lp1197
g1189
ag1190
ag1191
ag1192
ag1193
ag654
ag655
aS'okay'
p1198
asg25
(lp1199
g1198
asba(iMeme
Meme
p1200
(dp1201
g3
(lp1202
S'why'
p1203
aS'you'
p1204
aS'so'
p1205
aS'mean'
p1206
asg11
S'why you so mean'
p1207
sg13
S' mugs'
p1208
sg15
Vok-guy
p1209
sg17
(lp1210
g1203
ag1204
ag1205
ag1206
aS'mugs'
p1211
asg25
(lp1212
g1211
asba(iMeme
Meme
p1213
(dp1214
g3
(lp1215
S'karls'
p1216
ag123
aS'faggot'
p1217
asg11
S'karls a faggot'
p1218
sg13
S' okay'
p1219
sg15
Vok-guy
p1220
sg17
(lp1221
g1216
ag123
ag1217
aS'okay'
p1222
asg25
(lp1223
g1222
asba(iMeme
Meme
p1224
(dp1225
g3
(lp1226
S'didnt'
p1227
aS'get'
p1228
aS'guild'
p1229
aS'wars'
p1230
aS'2'
p1231
aS'beta'
p1232
aS'key'
p1233
asg11
S'didnt get guild wars 2 beta key'
p1234
sg13
S' okay'
p1235
sg15
Vok-guy
p1236
sg17
(lp1237
g1227
ag1228
ag1229
ag1230
ag1231
ag1232
ag1233
aS'okay'
p1238
asg25
(lp1239
g1238
asba(iMeme
Meme
p1240
(dp1241
g3
(lp1242
S'plans'
p1243
aS'made'
p1244
ag123
aS'week'
p1245
aS'ago'
p1246
aS'are'
p1247
aS'cancelled'
p1248
ag218
asg11
S'plans made a week ago are cancelled?'
p1249
sg13
S' okay'
p1250
sg15
Vok-guy
p1251
sg17
(lp1252
g1243
ag1244
ag123
ag1245
ag1246
ag1247
ag1248
ag218
aS'okay'
p1253
asg25
(lp1254
g1253
asba(iMeme
Meme
p1255
(dp1256
g3
(lp1257
S'never'
p1258
aS'be'
p1259
aS'as'
p1260
aS'cool'
p1261
aS'as'
p1262
aS'aisha'
p1263
ag218
asg11
S'never be as cool as aisha?'
p1264
sg13
S' okay'
p1265
sg15
Vok-guy
p1266
sg17
(lp1267
g1258
ag1259
ag1260
ag1261
ag1262
ag1263
ag218
aS'okay'
p1268
asg25
(lp1269
g1268
asba(iMeme
Meme
p1270
(dp1271
g3
(lp1272
S'nat'
p1273
ag887
aS'que'
p1274
aS'no'
p1275
aS'me'
p1276
aS'jales'
p1277
aS'las'
p1278
aS'chongas'
p1279
asg11
S'nat: que no me jales las chongas'
p1280
sg13
S' mary an: ok'
p1281
sg15
Vok-guy
p1282
sg17
(lp1283
g1273
ag887
ag1274
ag1275
ag1276
ag1277
ag1278
ag1279
aS'mary'
p1284
aS'an'
p1285
ag887
aS'ok'
p1286
asg25
(lp1287
g1284
ag1285
ag887
ag1286
asba(iMeme
Meme
p1288
(dp1289
g3
(lp1290
S'real'
p1291
aS'madrid'
p1292
asg11
S'real madrid'
p1293
sg13
S' tine cristiano.'
p1294
sg15
Vok-guy
p1295
sg17
(lp1296
g1291
ag1292
aS'tine'
p1297
aS'cristiano'
p1298
ag66
asg25
(lp1299
g1297
ag1298
ag66
asba(iMeme
Meme
p1300
(dp1301
g3
(lp1302
S'oliver'
p1303
aS'can'
p1304
ag134
aS'go'
p1305
aS'outside'
p1306
ag218
asg11
S'oliver can i go outside?'
p1307
sg13
S' okay..'
p1308
sg15
Vok-guy
p1309
sg17
(lp1310
g1303
ag1304
ag134
ag1305
ag1306
ag218
aS'okay..'
p1311
asg25
(lp1312
g1311
asba(iMeme
Meme
p1313
(dp1314
g3
(lp1315
S'the'
p1316
aS'awkward'
p1317
aS'moment'
p1318
aS'when'
p1319
asg11
S'the awkward moment when'
p1320
sg13
S' lisa jacobs talks to you bout sex'
p1321
sg15
Vok-guy
p1322
sg17
(lp1323
g1316
ag1317
ag1318
ag1319
aS'lisa'
p1324
aS'jacobs'
p1325
aS'talks'
p1326
aS'to'
p1327
aS'you'
p1328
aS'bout'
p1329
aS'sex'
p1330
asg25
(lp1331
g1324
ag1325
ag1326
ag1327
ag1328
ag1329
ag1330
asba(iMeme
Meme
p1332
(dp1333
g3
(lp1334
g134
aS'tried'
p1335
aS'winning'
p1336
ag123
aS'1v1'
p1337
asg11
S'i tried winning a 1v1'
p1338
sg13
S' but im just bad'
p1339
sg15
Vok-guy
p1340
sg17
(lp1341
g134
ag1335
ag1336
ag123
ag1337
aS'but'
p1342
aS'im'
p1343
aS'just'
p1344
aS'bad'
p1345
asg25
(lp1346
g1342
ag1343
ag1344
ag1345
asba(iMeme
Meme
p1347
(dp1348
g3
(lp1349
S'ok'
p1350
asg11
S'ok'
p1351
sg13
S' but why sir?'
p1352
sg15
Vok-guy
p1353
sg17
(lp1354
g1350
aS'but'
p1355
aS'why'
p1356
aS'sir'
p1357
ag218
asg25
(lp1358
g1355
ag1356
ag1357
ag218
asba(iMeme
Meme
p1359
(dp1360
g3
(lp1361
S'dont'
p1362
aS'bother'
p1363
aS'angel'
p1364
asg11
S'dont bother angel'
p1365
sg13
S' i know exactly what goes on'
p1366
sg15
Vok-guy
p1367
sg17
(lp1368
g1362
ag1363
ag1364
ag134
aS'know'
p1369
aS'exactly'
p1370
aS'what'
p1371
aS'goes'
p1372
aS'on'
p1373
asg25
(lp1374
g134
ag1369
ag1370
ag1371
ag1372
ag1373
asba(iMeme
Meme
p1375
(dp1376
g3
(lp1377
S'sir'
p1378
asg11
S'sir'
p1379
sg13
S' im afraid your cancer has spread to your heart. you have 3 days to live.'
p1380
sg15
Vok-guy
p1381
sg17
(lp1382
g1378
aS'im'
p1383
aS'afraid'
p1384
aS'your'
p1385
aS'cancer'
p1386
aS'has'
p1387
aS'spread'
p1388
aS'to'
p1389
aS'your'
p1390
aS'heart'
p1391
ag66
aS'you'
p1392
aS'have'
p1393
aS'3'
p1394
aS'days'
p1395
aS'to'
p1396
aS'live'
p1397
ag66
asg25
(lp1398
g1383
ag1384
ag1385
ag1386
ag1387
ag1388
ag1389
ag1390
ag1391
ag66
ag1392
ag1393
ag1394
ag1395
ag1396
ag1397
ag66
asba(iMeme
Meme
p1399
(dp1400
g3
(lp1401
S'must'
p1402
aS'stop'
p1403
aS'being'
p1404
aS'sad'
p1405
asg11
S'must stop being sad'
p1406
sg13
S' just too sad'
p1407
sg15
Vok-guy
p1408
sg17
(lp1409
g1402
ag1403
ag1404
ag1405
aS'just'
p1410
aS'too'
p1411
aS'sad'
p1412
asg25
(lp1413
g1410
ag1411
ag1412
asba(iMeme
Meme
p1414
(dp1415
g3
(lp1416
S'karen'
p1417
aS'me'
p1418
aS'regalas'
p1419
aS'la'
p1420
aS'foto'
p1421
ag218
asg11
S'karen me regalas la foto?'
p1422
sg13
S' nooo                           okay'
p1423
sg15
Vok-guy
p1424
sg17
(lp1425
g1417
ag1418
ag1419
ag1420
ag1421
ag218
aS'nooo'
p1426
aS'okay'
p1427
asg25
(lp1428
g1426
ag1427
asba(iMeme
Meme
p1429
(dp1430
g3
(lp1431
S'tried'
p1432
aS'to'
p1433
aS'write'
p1434
aS'funny'
p1435
aS'lax'
p1436
aS'bro'
p1437
aS'story'
p1438
asg11
S'tried to write funny lax bro story'
p1439
sg13
S' no one laughed'
p1440
sg15
Vok-guy
p1441
sg17
(lp1442
g1432
ag1433
ag1434
ag1435
ag1436
ag1437
ag1438
aS'no'
p1443
aS'one'
p1444
aS'laughed'
p1445
asg25
(lp1446
g1443
ag1444
ag1445
asba(iMeme
Meme
p1447
(dp1448
g3
(lp1449
S'nobody'
p1450
aS'bleives'
p1451
aS'that'
p1452
asg11
S'nobody bleives that'
p1453
sg13
S' tanzeel loves me'
p1454
sg15
Vok-guy
p1455
sg17
(lp1456
g1450
ag1451
ag1452
aS'tanzeel'
p1457
aS'loves'
p1458
aS'me'
p1459
asg25
(lp1460
g1457
ag1458
ag1459
asba(iMeme
Meme
p1461
(dp1462
g3
(lp1463
S'installed'
p1464
aS'10.7'
p1465
asg11
S'installed 10.7'
p1466
sg13
S' miss expose already'
p1467
sg15
Vok-guy
p1468
sg17
(lp1469
g1464
ag1465
aS'miss'
p1470
aS'expose'
p1471
aS'already'
p1472
asg25
(lp1473
g1470
ag1471
ag1472
asba(iMeme
Meme
p1474
(dp1475
g3
(lp1476
S'oliver'
p1477
asg11
S'oliver'
p1478
sg13
S' can i go home early??'
p1479
sg15
Vok-guy
p1480
sg17
(lp1481
g1477
aS'can'
p1482
ag134
aS'go'
p1483
aS'home'
p1484
aS'early'
p1485
ag218
ag218
asg25
(lp1486
g1482
ag134
ag1483
ag1484
ag1485
ag218
ag218
asba(iMeme
Meme
p1487
(dp1488
g3
(lp1489
S'stop'
p1490
aS'making'
p1491
aS'that'
p1492
aS'face'
p1493
ag263
asg11
S'stop making that face!'
p1494
sg13
S' okay'
p1495
sg15
Vok-guy
p1496
sg17
(lp1497
g1490
ag1491
ag1492
ag1493
ag263
aS'okay'
p1498
asg25
(lp1499
g1498
asba(iMeme
Meme
p1500
(dp1501
g3
(lp1502
S'keep'
p1503
aS'this'
p1504
aS'up'
p1505
aS'john'
p1506
asg11
S'keep this up john'
p1507
sg13
S' and you will be forever alone'
p1508
sg15
Vok-guy
p1509
sg17
(lp1510
g1503
ag1504
ag1505
ag1506
aS'and'
p1511
aS'you'
p1512
aS'will'
p1513
aS'be'
p1514
aS'forever'
p1515
aS'alone'
p1516
asg25
(lp1517
g1511
ag1512
ag1513
ag1514
ag1515
ag1516
asba(iMeme
Meme
p1518
(dp1519
g3
(lp1520
S'batman'
p1521
aS'doesnt'
p1522
aS'join'
p1523
aS'marvel'
p1524
aS'alliance'
p1525
asg11
S'batman doesnt join marvel alliance'
p1526
sg13
S' okay'
p1527
sg15
Vok-guy
p1528
sg17
(lp1529
g1521
ag1522
ag1523
ag1524
ag1525
aS'okay'
p1530
asg25
(lp1531
g1530
asba(iMeme
Meme
p1532
(dp1533
g3
(lp1534
S'seeks'
p1535
aS'validation'
p1536
asg11
S'seeks validation'
p1537
sg13
S' finds none'
p1538
sg15
Vok-guy
p1539
sg17
(lp1540
g1535
ag1536
aS'finds'
p1541
aS'none'
p1542
asg25
(lp1543
g1541
ag1542
asba(iMeme
Meme
p1544
(dp1545
g3
(lp1546
S'looked'
p1547
aS'for'
p1548
aS'dick'
p1549
asg11
S'looked for dick'
p1550
sg13
S' realize you ate them all'
p1551
sg15
Vok-guy
p1552
sg17
(lp1553
g1547
ag1548
ag1549
aS'realize'
p1554
aS'you'
p1555
aS'ate'
p1556
aS'them'
p1557
aS'all'
p1558
asg25
(lp1559
g1554
ag1555
ag1556
ag1557
ag1558
asba(iMeme
Meme
p1560
(dp1561
g3
(lp1562
S'missed'
p1563
ag123
aS'one'
p1564
aS'direction'
p1565
aS'twitcam'
p1566
asg11
S'missed a one direction twitcam'
p1567
sg13
S''
p1568
sg15
Vok-guy
p1569
sg17
(lp1570
g1563
ag123
ag1564
ag1565
ag1566
asg25
(lp1571
sba(iMeme
Meme
p1572
(dp1573
g3
(lp1574
S'write'
p1575
aS'memes'
p1576
aS'about'
p1577
aS'work'
p1578
asg11
S'write memes about work'
p1579
sg13
S' no one gets them'
p1580
sg15
Vok-guy
p1581
sg17
(lp1582
g1575
ag1576
ag1577
ag1578
aS'no'
p1583
aS'one'
p1584
aS'gets'
p1585
aS'them'
p1586
asg25
(lp1587
g1583
ag1584
ag1585
ag1586
asba(iMeme
Meme
p1588
(dp1589
g3
(lp1590
S'sat'
p1591
aS'for'
p1592
aS'full'
p1593
aS'60'
p1594
aS'minutes'
p1595
aS'in'
p1596
aS'gsrs'
p1597
aS'class'
p1598
asg11
S'sat for full 60 minutes in gsrs class'
p1599
sg13
S' missed my no. on roll call'
p1600
sg15
Vok-guy
p1601
sg17
(lp1602
g1591
ag1592
ag1593
ag1594
ag1595
ag1596
ag1597
ag1598
aS'missed'
p1603
aS'my'
p1604
aS'no'
p1605
ag66
aS'on'
p1606
aS'roll'
p1607
aS'call'
p1608
asg25
(lp1609
g1603
ag1604
ag1605
ag66
ag1606
ag1607
ag1608
asba(iMeme
Meme
p1610
(dp1611
g3
(lp1612
S'sat'
p1613
aS'for'
p1614
aS'full'
p1615
aS'60'
p1616
aS'minutes'
p1617
aS'in'
p1618
aS'gsrs'
p1619
aS'class'
p1620
asg11
S'sat for full 60 minutes in gsrs class'
p1621
sg13
S' missed my no. on roll call'
p1622
sg15
Vok-guy
p1623
sg17
(lp1624
g1613
ag1614
ag1615
ag1616
ag1617
ag1618
ag1619
ag1620
aS'missed'
p1625
aS'my'
p1626
aS'no'
p1627
ag66
aS'on'
p1628
aS'roll'
p1629
aS'call'
p1630
asg25
(lp1631
g1625
ag1626
ag1627
ag66
ag1628
ag1629
ag1630
asba(iMeme
Meme
p1632
(dp1633
g3
(lp1634
S'mitt'
p1635
aS'romney'
p1636
aS'lost'
p1637
asg11
S'mitt romney lost'
p1638
sg13
S' now hes going to try to be me friend'
p1639
sg15
Vok-guy
p1640
sg17
(lp1641
g1635
ag1636
ag1637
aS'now'
p1642
aS'hes'
p1643
aS'going'
p1644
aS'to'
p1645
aS'try'
p1646
aS'to'
p1647
aS'be'
p1648
aS'me'
p1649
aS'friend'
p1650
asg25
(lp1651
g1642
ag1643
ag1644
ag1645
ag1646
ag1647
ag1648
ag1649
ag1650
asba(iMeme
Meme
p1652
(dp1653
g3
(lp1654
S'one'
p1655
aS'night'
p1656
aS'stand'
p1657
aS'with'
p1658
ag123
aS'big'
p1659
aS'booty'
p1660
aS'ho'
p1661
asg11
S'one night stand with a big booty ho'
p1662
sg13
S' failed!!!'
p1663
sg15
Vok-guy
p1664
sg17
(lp1665
g1655
ag1656
ag1657
ag1658
ag123
ag1659
ag1660
ag1661
aS'failed'
p1666
ag263
ag263
ag263
asg25
(lp1667
g1666
ag263
ag263
ag263
asba(iMeme
Meme
p1668
(dp1669
g3
(lp1670
S'reid'
p1671
asg11
S'reid'
p1672
sg13
S' and his right hand'
p1673
sg15
Vok-guy
p1674
sg17
(lp1675
g1671
aS'and'
p1676
aS'his'
p1677
aS'right'
p1678
aS'hand'
p1679
asg25
(lp1680
g1676
ag1677
ag1678
ag1679
asba(iMeme
Meme
p1681
(dp1682
g3
(lp1683
S'pyan'
p1684
asg11
S'pyan'
p1685
sg13
S' why u no make link up on earlier time'
p1686
sg15
Vok-guy
p1687
sg17
(lp1688
g1684
aS'why'
p1689
aS'u'
p1690
aS'no'
p1691
aS'make'
p1692
aS'link'
p1693
aS'up'
p1694
aS'on'
p1695
aS'earlier'
p1696
aS'time'
p1697
asg25
(lp1698
g1689
ag1690
ag1691
ag1692
ag1693
ag1694
ag1695
ag1696
ag1697
asba(iMeme
Meme
p1699
(dp1700
g3
(lp1701
S'okay'
p1702
asg11
S'okay'
p1703
sg13
S' i understand that you have nothing to say'
p1704
sg15
Vok-guy
p1705
sg17
(lp1706
g1702
ag134
aS'understand'
p1707
aS'that'
p1708
aS'you'
p1709
aS'have'
p1710
aS'nothing'
p1711
aS'to'
p1712
aS'say'
p1713
asg25
(lp1714
g134
ag1707
ag1708
ag1709
ag1710
ag1711
ag1712
ag1713
asba(iMeme
Meme
p1715
(dp1716
g3
(lp1717
S'yo'
p1718
aS'solo'
p1719
aS'queria'
p1720
aS'un'
p1721
aS'poco'
p1722
aS'de'
p1723
aS'sexo'
p1724
asg11
S'yo solo queria un poco de sexo'
p1725
sg13
S' no quese enamorara'
p1726
sg15
Vok-guy
p1727
sg17
(lp1728
g1718
ag1719
ag1720
ag1721
ag1722
ag1723
ag1724
aS'no'
p1729
aS'quese'
p1730
aS'enamorara'
p1731
asg25
(lp1732
g1729
ag1730
ag1731
asba(iMeme
Meme
p1733
(dp1734
g3
(lp1735
S'youre'
p1736
ag123
aS'fornicator'
p1737
aS'and'
p1738
aS'will'
p1739
aS'burn'
p1740
aS'for'
p1741
aS'eternity'
p1742
ag263
asg11
S'youre a fornicator and will burn for eternity!'
p1743
sg13
S' okay'
p1744
sg15
Vok-guy
p1745
sg17
(lp1746
g1736
ag123
ag1737
ag1738
ag1739
ag1740
ag1741
ag1742
ag263
aS'okay'
p1747
asg25
(lp1748
g1747
asba(iMeme
Meme
p1749
(dp1750
g3
(lp1751
S'woke'
p1752
aS'up'
p1753
aS'so'
p1754
aS'early'
p1755
aS'to'
p1756
aS'check'
p1757
aS'download'
p1758
aS'progress'
p1759
asg11
S'woke up so early to check download progress'
p1760
sg13
S' download failedokay'
p1761
sg15
Vok-guy
p1762
sg17
(lp1763
g1752
ag1753
ag1754
ag1755
ag1756
ag1757
ag1758
ag1759
aS'download'
p1764
aS'failedokay'
p1765
asg25
(lp1766
g1764
ag1765
asba(iMeme
Meme
p1767
(dp1768
g3
(lp1769
S'shot'
p1770
aS'your'
p1771
aS'car'
p1772
aS'in'
p1773
aS'the'
p1774
aS'dark'
p1775
asg11
S'shot your car in the dark'
p1776
sg13
S' i dont get paid? okay'
p1777
sg15
Vok-guy
p1778
sg17
(lp1779
g1770
ag1771
ag1772
ag1773
ag1774
ag1775
ag134
aS'dont'
p1780
aS'get'
p1781
aS'paid'
p1782
ag218
aS'okay'
p1783
asg25
(lp1784
g134
ag1780
ag1781
ag1782
ag218
ag1783
asba(iMeme
Meme
p1785
(dp1786
g3
(lp1787
S'that'
p1788
aS'moment'
p1789
aS'when'
p1790
aS'you'
p1791
aS'go'
p1792
aS'early'
p1793
aS'to'
p1794
aS'the'
p1795
aS'canteen'
p1796
asg11
S'that moment when you go early to the canteen'
p1797
sg13
S' but then come to know all the samosas are over'
p1798
sg15
Vok-guy
p1799
sg17
(lp1800
g1788
ag1789
ag1790
ag1791
ag1792
ag1793
ag1794
ag1795
ag1796
aS'but'
p1801
aS'then'
p1802
aS'come'
p1803
aS'to'
p1804
aS'know'
p1805
aS'all'
p1806
aS'the'
p1807
aS'samosas'
p1808
aS'are'
p1809
aS'over'
p1810
asg25
(lp1811
g1801
ag1802
ag1803
ag1804
ag1805
ag1806
ag1807
ag1808
ag1809
ag1810
asba(iMeme
Meme
p1812
(dp1813
g3
(lp1814
S'nani'
p1815
aS'gave'
p1816
aS'me'
p1817
aS'100'
p1818
aS'rs'
p1819
asg11
S'nani gave me 100 rs'
p1820
sg13
S' parents took it'
p1821
sg15
Vok-guy
p1822
sg17
(lp1823
g1815
ag1816
ag1817
ag1818
ag1819
aS'parents'
p1824
aS'took'
p1825
aS'it'
p1826
asg25
(lp1827
g1824
ag1825
ag1826
asba(iMeme
Meme
p1828
(dp1829
g3
(lp1830
S'we'
p1831
aS'finished'
p1832
aS'the'
p1833
aS'exams'
p1834
asg11
S'we finished the exams'
p1835
sg13
S' ok mate'
p1836
sg15
Vok-guy
p1837
sg17
(lp1838
g1831
ag1832
ag1833
ag1834
aS'ok'
p1839
aS'mate'
p1840
asg25
(lp1841
g1839
ag1840
asba(iMeme
Meme
p1842
(dp1843
g3
(lp1844
g134
aS'was'
p1845
aS'positive'
p1846
asg11
S'i was positive'
p1847
sg13
S' as always'
p1848
sg15
Vok-guy
p1849
sg17
(lp1850
g134
ag1845
ag1846
aS'as'
p1851
aS'always'
p1852
asg25
(lp1853
g1851
ag1852
asba(iMeme
Meme
p1854
(dp1855
g3
(lp1856
S'miss'
p1857
aS'ko'
p1858
aS'na'
p1859
aS'batch'
p1860
aS'namin'
p1861
ag887
ag888
asg11
S'miss ko na batch namin:('
p1862
sg13
S' batch 2010_2011..'
p1863
sg15
Vok-guy
p1864
sg17
(lp1865
g1857
ag1858
ag1859
ag1860
ag1861
ag887
ag888
aS'batch'
p1866
aS'2010_2011..'
p1867
asg25
(lp1868
g1866
ag1867
asba(iMeme
Meme
p1869
(dp1870
g3
(lp1871
S'hot'
p1872
aS'girl'
p1873
aS'likes'
p1874
aS'you'
p1875
asg11
S'hot girl likes you'
p1876
sg13
S' nah just kidding brah'
p1877
sg15
Vok-guy
p1878
sg17
(lp1879
g1872
ag1873
ag1874
ag1875
aS'nah'
p1880
aS'just'
p1881
aS'kidding'
p1882
aS'brah'
p1883
asg25
(lp1884
g1880
ag1881
ag1882
ag1883
asba(iMeme
Meme
p1885
(dp1886
g3
(lp1887
S'tried'
p1888
aS'to'
p1889
aS'get'
p1890
ag123
aS'one'
p1891
aS'night'
p1892
aS'stand'
p1893
aS'with'
p1894
ag123
aS'big'
p1895
aS'booty'
p1896
aS'ho'
p1897
asg11
S'tried to get a one night stand with a big booty ho'
p1898
sg13
S' failed!!!'
p1899
sg15
Vok-guy
p1900
sg17
(lp1901
g1888
ag1889
ag1890
ag123
ag1891
ag1892
ag1893
ag1894
ag123
ag1895
ag1896
ag1897
aS'failed'
p1902
ag263
ag263
ag263
asg25
(lp1903
g1902
ag263
ag263
ag263
asba(iMeme
Meme
p1904
(dp1905
g3
(lp1906
S'por'
p1907
aS'fin'
p1908
aS'se'
p1909
aS'va'
p1910
ag123
aS'tatuar'
p1911
ag263
ag263
ag263
ag263
ag263
ag887
aS')'
p1912
asg11
S'por fin se va a tatuar!!!!! :)'
p1913
sg13
S' la tatuadora no puede'
p1914
sg15
Vok-guy
p1915
sg17
(lp1916
g1907
ag1908
ag1909
ag1910
ag123
ag1911
ag263
ag263
ag263
ag263
ag263
ag887
ag1912
aS'la'
p1917
aS'tatuadora'
p1918
aS'no'
p1919
aS'puede'
p1920
asg25
(lp1921
g1917
ag1918
ag1919
ag1920
asba(iMeme
Meme
p1922
(dp1923
g3
(lp1924
S'wan'
p1925
aS'na'
p1926
aS'be'
p1927
aS'friends'
p1928
ag218
aS'no'
p1929
aS'chance'
p1930
ag263
asg11
S'wanna be friends ?   no chance !'
p1931
sg13
S' oh ok'
p1932
sg15
Vok-guy
p1933
sg17
(lp1934
g1925
ag1926
ag1927
ag1928
ag218
ag1929
ag1930
ag263
aS'oh'
p1935
aS'ok'
p1936
asg25
(lp1937
g1935
ag1936
asba(iMeme
Meme
p1938
(dp1939
g3
(lp1940
S'sonia'
p1941
aS'no'
p1942
aS'want'
p1943
aS'to'
p1944
aS'go'
p1945
aS'chow'
p1946
aS'with'
p1947
aS'me'
p1948
aS'or'
p1949
aS'take'
p1950
aS'pictures'
p1951
aS'of'
p1952
aS'her'
p1953
aS'peepeeing'
p1954
ag218
asg11
S'sonia no want to go chow with me or take pictures of her peepeeing?'
p1955
sg13
S' okay'
p1956
sg15
Vok-guy
p1957
sg17
(lp1958
g1941
ag1942
ag1943
ag1944
ag1945
ag1946
ag1947
ag1948
ag1949
ag1950
ag1951
ag1952
ag1953
ag1954
ag218
aS'okay'
p1959
asg25
(lp1960
g1959
asba(iMeme
Meme
p1961
(dp1962
g3
(lp1963
S'okay'
p1964
asg11
S'okay'
p1965
sg13
S' i dun goofed'
p1966
sg15
Vok-guy
p1967
sg17
(lp1968
g1964
ag134
aS'dun'
p1969
aS'goofed'
p1970
asg25
(lp1971
g134
ag1969
ag1970
asba(iMeme
Meme
p1972
(dp1973
g3
(lp1974
S'miss'
p1975
aS'ko'
p1976
aS'na'
p1977
aS'batch'
p1978
aS'namin'
p1979
ag887
ag888
asg11
S'miss ko na batch namin:('
p1980
sg13
S' batch 2010_2011..'
p1981
sg15
Vok-guy
p1982
sg17
(lp1983
g1975
ag1976
ag1977
ag1978
ag1979
ag887
ag888
aS'batch'
p1984
aS'2010_2011..'
p1985
asg25
(lp1986
g1984
ag1985
asba(iMeme
Meme
p1987
(dp1988
g3
(lp1989
S'tried'
p1990
aS'to'
p1991
aS'rickroll'
p1992
aS'the'
p1993
aS'whole'
p1994
aS'class'
p1995
asg11
S'tried to rickroll the whole class'
p1996
sg13
S' no one knew hat rickrolling was'
p1997
sg15
Vok-guy
p1998
sg17
(lp1999
g1990
ag1991
ag1992
ag1993
ag1994
ag1995
aS'no'
p2000
aS'one'
p2001
aS'knew'
p2002
aS'hat'
p2003
aS'rickrolling'
p2004
aS'was'
p2005
asg25
(lp2006
g2000
ag2001
ag2002
ag2003
ag2004
ag2005
asba(iMeme
Meme
p2007
(dp2008
g3
(lp2009
S'oeee'
p2010
aS'si'
p2011
aS'que'
p2012
aS'se'
p2013
aS'las'
p2014
asg11
S'oeee si que se las'
p2015
sg13
S' de jajaj'
p2016
sg15
Vok-guy
p2017
sg17
(lp2018
g2010
ag2011
ag2012
ag2013
ag2014
aS'de'
p2019
aS'jajaj'
p2020
asg25
(lp2021
g2019
ag2020
asba(iMeme
Meme
p2022
(dp2023
g3
(lp2024
S'por'
p2025
aS'fin'
p2026
aS'se'
p2027
aS'va'
p2028
ag123
aS'tatuar'
p2029
ag263
ag263
ag263
ag263
ag263
ag887
ag1912
asg11
S'por fin se va a tatuar!!!!! :)'
p2030
sg13
S' la tatuadora no puede'
p2031
sg15
Vok-guy
p2032
sg17
(lp2033
g2025
ag2026
ag2027
ag2028
ag123
ag2029
ag263
ag263
ag263
ag263
ag263
ag887
ag1912
aS'la'
p2034
aS'tatuadora'
p2035
aS'no'
p2036
aS'puede'
p2037
asg25
(lp2038
g2034
ag2035
ag2036
ag2037
asba(iMeme
Meme
p2039
(dp2040
g3
(lp2041
S'connect'
p2042
aS'the'
p2043
aS'components'
p2044
aS'togetherher'
p2045
asg11
S'connect the components togetherher'
p2046
sg13
S' okay'
p2047
sg15
Vok-guy
p2048
sg17
(lp2049
g2042
ag2043
ag2044
ag2045
aS'okay'
p2050
asg25
(lp2051
g2050
asba(iMeme
Meme
p2052
(dp2053
g3
(lp2054
S'sonia'
p2055
aS'no'
p2056
aS'want'
p2057
aS'to'
p2058
aS'go'
p2059
aS'chow'
p2060
aS'with'
p2061
aS'me'
p2062
aS'or'
p2063
aS'take'
p2064
aS'pictures'
p2065
aS'of'
p2066
aS'her'
p2067
aS'peepeeing'
p2068
ag218
asg11
S'sonia no want to go chow with me or take pictures of her peepeeing?'
p2069
sg13
S' okay'
p2070
sg15
Vok-guy
p2071
sg17
(lp2072
g2055
ag2056
ag2057
ag2058
ag2059
ag2060
ag2061
ag2062
ag2063
ag2064
ag2065
ag2066
ag2067
ag2068
ag218
aS'okay'
p2073
asg25
(lp2074
g2073
asba(iMeme
Meme
p2075
(dp2076
g3
(lp2077
S'burro'
p2078
aS'lovers'
p2079
aS'arent'
p2080
aS'solid'
p2081
asg11
S'burro lovers arent solid'
p2082
sg13
S' it is always the filler'
p2083
sg15
Vok-guy
p2084
sg17
(lp2085
g2078
ag2079
ag2080
ag2081
aS'it'
p2086
aS'is'
p2087
aS'always'
p2088
aS'the'
p2089
aS'filler'
p2090
asg25
(lp2091
g2086
ag2087
ag2088
ag2089
ag2090
asba(iMeme
Meme
p2092
(dp2093
g3
(lp2094
S'sripranith'
p2095
aS'and'
p2096
aS'vaishnavi'
p2097
aS'have'
p2098
ag123
aS'one'
p2099
aS'night'
p2100
aS'stand'
p2101
asg11
S'sripranith and vaishnavi have a one night stand'
p2102
sg13
S' but way too many books to fit on it'
p2103
sg15
Vok-guy
p2104
sg17
(lp2105
g2095
ag2096
ag2097
ag2098
ag123
ag2099
ag2100
ag2101
aS'but'
p2106
aS'way'
p2107
aS'too'
p2108
aS'many'
p2109
aS'books'
p2110
aS'to'
p2111
aS'fit'
p2112
aS'on'
p2113
aS'it'
p2114
asg25
(lp2115
g2106
ag2107
ag2108
ag2109
ag2110
ag2111
ag2112
ag2113
ag2114
asba(iMeme
Meme
p2116
(dp2117
g3
(lp2118
S'my'
p2119
aS'face'
p2120
asg11
S'my face'
p2121
sg13
S' when im broke'
p2122
sg15
Vok-guy
p2123
sg17
(lp2124
g2119
ag2120
aS'when'
p2125
aS'im'
p2126
aS'broke'
p2127
asg25
(lp2128
g2125
ag2126
ag2127
asba(iMeme
Meme
p2129
(dp2130
g3
(lp2131
S'poonam'
p2132
aS'to'
p2133
aS'jaikirshnaa'
p2134
aS'rao'
p2135
asg11
S'poonam to jaikirshnaa rao'
p2136
sg13
S' jai!!!! y u fly out on weekends :('
p2137
sg15
Vok-guy
p2138
sg17
(lp2139
g2132
ag2133
ag2134
ag2135
aS'jai'
p2140
ag263
ag263
ag263
ag263
aS'y'
p2141
ag1690
aS'fly'
p2142
aS'out'
p2143
aS'on'
p2144
aS'weekends'
p2145
ag887
ag888
asg25
(lp2146
g2140
ag263
ag263
ag263
ag263
ag2141
ag1690
ag2142
ag2143
ag2144
ag2145
ag887
ag888
asba(iMeme
Meme
p2147
(dp2148
g3
(lp2149
S'sripranith'
p2150
aS'and'
p2151
aS'vaishnavi'
p2152
aS'have'
p2153
ag123
aS'one'
p2154
aS'night'
p2155
aS'stand'
p2156
asg11
S'sripranith and vaishnavi have a one night stand'
p2157
sg13
S' but way too many books to fit on it'
p2158
sg15
Vok-guy
p2159
sg17
(lp2160
g2150
ag2151
ag2152
ag2153
ag123
ag2154
ag2155
ag2156
aS'but'
p2161
aS'way'
p2162
aS'too'
p2163
aS'many'
p2164
aS'books'
p2165
aS'to'
p2166
aS'fit'
p2167
aS'on'
p2168
aS'it'
p2169
asg25
(lp2170
g2161
ag2162
ag2163
ag2164
ag2165
ag2166
ag2167
ag2168
ag2169
asba(iMeme
Meme
p2171
(dp2172
g3
(lp2173
S'my'
p2174
aS'face'
p2175
asg11
S'my face'
p2176
sg13
S' when im broke'
p2177
sg15
Vok-guy
p2178
sg17
(lp2179
g2174
ag2175
aS'when'
p2180
aS'im'
p2181
aS'broke'
p2182
asg25
(lp2183
g2180
ag2181
ag2182
asba(iMeme
Meme
p2184
(dp2185
g3
(lp2186
S'poonam'
p2187
aS'to'
p2188
aS'jaikirshnaa'
p2189
aS'rao'
p2190
asg11
S'poonam to jaikirshnaa rao'
p2191
sg13
S' jai!!!! y u fly out on weekends :('
p2192
sg15
Vok-guy
p2193
sg17
(lp2194
g2187
ag2188
ag2189
ag2190
aS'jai'
p2195
ag263
ag263
ag263
ag263
ag2141
ag1690
aS'fly'
p2196
aS'out'
p2197
aS'on'
p2198
aS'weekends'
p2199
ag887
ag888
asg25
(lp2200
g2195
ag263
ag263
ag263
ag263
ag2141
ag1690
ag2196
ag2197
ag2198
ag2199
ag887
ag888
asba(iMeme
Meme
p2201
(dp2202
g3
(lp2203
S'11:45'
p2204
aS'pm'
p2205
ag66
aS'homework'
p2206
aS'due'
p2207
aS'tomorrow'
p2208
ag66
asg11
S'11:45 pm.  homework due tomorrow.'
p2209
sg13
S' okay..'
p2210
sg15
Vok-guy
p2211
sg17
(lp2212
g2204
ag2205
ag66
ag2206
ag2207
ag2208
ag66
aS'okay..'
p2213
asg25
(lp2214
g2213
asba(iMeme
Meme
p2215
(dp2216
g3
(lp2217
S'hey'
p2218
aS'paradiizee'
p2219
asg11
S'hey paradiizee'
p2220
sg13
S' you stole my codes i was using'
p2221
sg15
Vok-guy
p2222
sg17
(lp2223
g2218
ag2219
aS'you'
p2224
aS'stole'
p2225
aS'my'
p2226
aS'codes'
p2227
ag134
aS'was'
p2228
aS'using'
p2229
asg25
(lp2230
g2224
ag2225
ag2226
ag2227
ag134
ag2228
ag2229
asba(iMeme
Meme
p2231
(dp2232
g3
(lp2233
S'ur'
p2234
aS'not'
p2235
aS'commited'
p2236
asg11
S'ur not commited'
p2237
sg13
S' ok'
p2238
sg15
Vok-guy
p2239
sg17
(lp2240
g2234
ag2235
ag2236
aS'ok'
p2241
asg25
(lp2242
g2241
asba(iMeme
Meme
p2243
(dp2244
g3
(lp2245
S'looking'
p2246
aS'forward'
p2247
aS'to'
p2248
aS'starting'
p2249
aS'business'
p2250
aS'management'
p2251
asg11
S'looking forward to starting business management'
p2252
sg13
S' got mrs. munn as a teacher'
p2253
sg15
Vok-guy
p2254
sg17
(lp2255
g2246
ag2247
ag2248
ag2249
ag2250
ag2251
aS'got'
p2256
aS'mrs'
p2257
ag66
aS'munn'
p2258
aS'as'
p2259
ag123
aS'teacher'
p2260
asg25
(lp2261
g2256
ag2257
ag66
ag2258
ag2259
ag123
ag2260
asba(iMeme
Meme
p2262
(dp2263
g3
(lp2264
S'champions'
p2265
aS'league'
p2266
asg11
S'champions league'
p2267
sg13
S' and board exams together'
p2268
sg15
Vok-guy
p2269
sg17
(lp2270
g2265
ag2266
aS'and'
p2271
aS'board'
p2272
aS'exams'
p2273
aS'together'
p2274
asg25
(lp2275
g2271
ag2272
ag2273
ag2274
asba(iMeme
Meme
p2276
(dp2277
g3
(lp2278
S'no'
p2279
aS'burgar'
p2280
aS'party'
p2281
asg11
S'no burgar party'
p2282
sg13
S' for garion tomorow'
p2283
sg15
Vok-guy
p2284
sg17
(lp2285
g2279
ag2280
ag2281
aS'for'
p2286
aS'garion'
p2287
aS'tomorow'
p2288
asg25
(lp2289
g2286
ag2287
ag2288
asba(iMeme
Meme
p2290
(dp2291
g3
(lp2292
S'breaks'
p2293
aS'up'
p2294
aS'with'
p2295
aS'alicia'
p2296
asg11
S'breaks up with alicia'
p2297
sg13
S' she refuses'
p2298
sg15
Vok-guy
p2299
sg17
(lp2300
g2293
ag2294
ag2295
ag2296
aS'she'
p2301
aS'refuses'
p2302
asg25
(lp2303
g2301
ag2302
asba(iMeme
Meme
p2304
(dp2305
g3
(lp2306
S'ko'
p2307
aS'ai'
p2308
aS'gi'
p2309
aS'mnh'
p2310
aS'invite'
p2311
aS'ah'
p2312
asg11
S'ko ai gi mnh invite ah'
p2313
sg13
S' okay'
p2314
sg15
Vok-guy
p2315
sg17
(lp2316
g2307
ag2308
ag2309
ag2310
ag2311
ag2312
aS'okay'
p2317
asg25
(lp2318
g2317
asba(iMeme
Meme
p2319
(dp2320
g3
(lp2321
S'makes'
p2322
aS'girl'
p2323
aS'laugh'
p2324
asg11
S'makes girl laugh'
p2325
sg13
S' by asking her out'
p2326
sg15
Vok-guy
p2327
sg17
(lp2328
g2322
ag2323
ag2324
aS'by'
p2329
aS'asking'
p2330
aS'her'
p2331
aS'out'
p2332
asg25
(lp2333
g2329
ag2330
ag2331
ag2332
asba(iMeme
Meme
p2334
(dp2335
g3
(lp2336
S'trolled'
p2337
aS'supriyo'
p2338
asg11
S'trolled supriyo'
p2339
sg13
S' he left the group'
p2340
sg15
Vok-guy
p2341
sg17
(lp2342
g2337
ag2338
aS'he'
p2343
aS'left'
p2344
aS'the'
p2345
aS'group'
p2346
asg25
(lp2347
g2343
ag2344
ag2345
ag2346
asba(iMeme
Meme
p2348
(dp2349
g3
(lp2350
S'thought'
p2351
aS'of'
p2352
aS'trolling'
p2353
aS'friend'
p2354
asg11
S'thought of trolling friend'
p2355
sg13
S' got myself trolled !!'
p2356
sg15
Vok-guy
p2357
sg17
(lp2358
g2351
ag2352
ag2353
ag2354
aS'got'
p2359
aS'myself'
p2360
aS'trolled'
p2361
ag263
ag263
asg25
(lp2362
g2359
ag2360
ag2361
ag263
ag263
asba(iMeme
Meme
p2363
(dp2364
g3
(lp2365
S'que'
p2366
aS'la'
p2367
aS'58'
p2368
aS'es'
p2369
aS'la'
p2370
aS'mejor'
p2371
ag218
asg11
S'que la 58 es la mejor?'
p2372
sg13
S' okay'
p2373
sg15
Vok-guy
p2374
sg17
(lp2375
g2366
ag2367
ag2368
ag2369
ag2370
ag2371
ag218
aS'okay'
p2376
asg25
(lp2377
g2376
asba(iMeme
Meme
p2378
(dp2379
g3
(lp2380
S'this'
p2381
aS'sucks'
p2382
asg11
S'this sucks'
p2383
sg13
S' im bad at playing lbp i hacked your ps3 okay'
p2384
sg15
Vok-guy
p2385
sg17
(lp2386
g2381
ag2382
aS'im'
p2387
aS'bad'
p2388
aS'at'
p2389
aS'playing'
p2390
aS'lbp'
p2391
ag134
aS'hacked'
p2392
aS'your'
p2393
aS'ps3'
p2394
aS'okay'
p2395
asg25
(lp2396
g2387
ag2388
ag2389
ag2390
ag2391
ag134
ag2392
ag2393
ag2394
ag2395
asba(iMeme
Meme
p2397
(dp2398
g3
(lp2399
S'dont'
p2400
aS'post'
p2401
aS'ur'
p2402
aS'turtle'
p2403
aS'pics'
p2404
aS'or'
p2405
aS'else'
p2406
aS'peta'
p2407
aS'ppl'
p2408
aS'wil'
p2409
aS'come'
p2410
aS'aft'
p2411
ag1690
asg11
S'dont post ur turtle pics or else peta ppl wil come aft u'
p2412
sg13
S' tan mon: what petha ??? agra ka petha!!!!'
p2413
sg15
Vok-guy
p2414
sg17
(lp2415
g2400
ag2401
ag2402
ag2403
ag2404
ag2405
ag2406
ag2407
ag2408
ag2409
ag2410
ag2411
ag1690
aS'tan'
p2416
aS'mon'
p2417
ag887
aS'what'
p2418
aS'petha'
p2419
ag218
ag218
ag218
aS'agra'
p2420
aS'ka'
p2421
aS'petha'
p2422
ag263
ag263
ag263
ag263
asg25
(lp2423
g2416
ag2417
ag887
ag2418
ag2419
ag218
ag218
ag218
ag2420
ag2421
ag2422
ag263
ag263
ag263
ag263
asba(iMeme
Meme
p2424
(dp2425
g3
(lp2426
S'made'
p2427
aS'up'
p2428
ag123
aS'meme'
p2429
aS'on'
p2430
aS'utks'
p2431
aS'meme'
p2432
aS'page'
p2433
asg11
S'made up a meme on utks meme page'
p2434
sg13
S' no one noticed i didnt go there'
p2435
sg15
Vok-guy
p2436
sg17
(lp2437
g2427
ag2428
ag123
ag2429
ag2430
ag2431
ag2432
ag2433
aS'no'
p2438
aS'one'
p2439
aS'noticed'
p2440
ag134
aS'didnt'
p2441
aS'go'
p2442
aS'there'
p2443
asg25
(lp2444
g2438
ag2439
ag2440
ag134
ag2441
ag2442
ag2443
asba(iMeme
Meme
p2445
(dp2446
g3
(lp2447
S'tried'
p2448
aS'to'
p2449
aS'talk'
p2450
aS'to'
p2451
ag123
aS'gang'
p2452
asg11
S'tried to talk to a gang'
p2453
sg13
S' they stabbed me'
p2454
sg15
Vok-guy
p2455
sg17
(lp2456
g2448
ag2449
ag2450
ag2451
ag123
ag2452
aS'they'
p2457
aS'stabbed'
p2458
aS'me'
p2459
asg25
(lp2460
g2457
ag2458
ag2459
asba(iMeme
Meme
p2461
(dp2462
g3
(lp2463
S'im'
p2464
aS'never'
p2465
aS'going'
p2466
aS'to'
p2467
aS'be'
p2468
aS'as'
p2469
aS'good'
p2470
aS'as'
p2471
aS'bruxx'
p2472
asg11
S'im never going to be as good as bruxx'
p2473
sg13
S' okay'
p2474
sg15
Vok-guy
p2475
sg17
(lp2476
g2464
ag2465
ag2466
ag2467
ag2468
ag2469
ag2470
ag2471
ag2472
aS'okay'
p2477
asg25
(lp2478
g2477
asba(iMeme
Meme
p2479
(dp2480
g3
(lp2481
S'the'
p2482
aS'reaction'
p2483
aS'of'
p2484
aS'abid'
p2485
asg11
S'the reaction of abid'
p2486
sg13
S' when he heard abran died'
p2487
sg15
Vok-guy
p2488
sg17
(lp2489
g2482
ag2483
ag2484
ag2485
aS'when'
p2490
aS'he'
p2491
aS'heard'
p2492
aS'abran'
p2493
aS'died'
p2494
asg25
(lp2495
g2490
ag2491
ag2492
ag2493
ag2494
asba(iMeme
Meme
p2496
(dp2497
g3
(lp2498
S'my'
p2499
aS'daddy'
p2500
aS'said'
p2501
asg11
S'my daddy said'
p2502
sg13
S' ill make it in life'
p2503
sg15
Vok-guy
p2504
sg17
(lp2505
g2499
ag2500
ag2501
aS'ill'
p2506
aS'make'
p2507
aS'it'
p2508
aS'in'
p2509
aS'life'
p2510
asg25
(lp2511
g2506
ag2507
ag2508
ag2509
ag2510
asba(iMeme
Meme
p2512
(dp2513
g3
(lp2514
S'blow'
p2515
aS'me'
p2516
aS'im'
p2517
aS'nonsense'
p2518
asg11
S'blow me im nonsense'
p2519
sg13
S' okay'
p2520
sg15
Vok-guy
p2521
sg17
(lp2522
g2515
ag2516
ag2517
ag2518
aS'okay'
p2523
asg25
(lp2524
g2523
asba(iMeme
Meme
p2525
(dp2526
g3
(lp2527
S'wave'
p2528
aS'at'
p2529
aS'someone'
p2530
asg11
S'wave at someone'
p2531
sg13
S' they dont wave back'
p2532
sg15
Vok-guy
p2533
sg17
(lp2534
g2528
ag2529
ag2530
aS'they'
p2535
aS'dont'
p2536
aS'wave'
p2537
aS'back'
p2538
asg25
(lp2539
g2535
ag2536
ag2537
ag2538
asba(iMeme
Meme
p2540
(dp2541
g3
(lp2542
S'you'
p2543
aS'get'
p2544
ag123
ag1231
asg11
S'you get a 2'
p2545
sg13
S' matt gets a 1'
p2546
sg15
Vok-guy
p2547
sg17
(lp2548
g2543
ag2544
ag123
ag1231
aS'matt'
p2549
aS'gets'
p2550
ag123
ag968
asg25
(lp2551
g2549
ag2550
ag123
ag968
asba(iMeme
Meme
p2552
(dp2553
g3
(lp2554
S'tries'
p2555
aS'to'
p2556
aS'hit'
p2557
aS'on'
p2558
aS'girl'
p2559
asg11
S'tries to hit on girl'
p2560
sg13
S' is michael gow'
p2561
sg15
Vok-guy
p2562
sg17
(lp2563
g2555
ag2556
ag2557
ag2558
ag2559
aS'is'
p2564
aS'michael'
p2565
aS'gow'
p2566
asg25
(lp2567
g2564
ag2565
ag2566
asba(iMeme
Meme
p2568
(dp2569
g3
(lp2570
g134
aS'said'
p2571
aS'motherfucking'
p2572
aS'upsiii'
p2573
aS'at'
p2574
ag123
aS'party'
p2575
asg11
S'i said motherfucking upsiii at a party'
p2576
sg13
S' no bros responded'
p2577
sg15
Vok-guy
p2578
sg17
(lp2579
g134
ag2571
ag2572
ag2573
ag2574
ag123
ag2575
aS'no'
p2580
aS'bros'
p2581
aS'responded'
p2582
asg25
(lp2583
g2580
ag2581
ag2582
asba(iMeme
Meme
p2584
(dp2585
g3
(lp2586
S'we'
p2587
ag962
aS'sad'
p2588
aS'to'
p2589
aS'inform'
p2590
aS'you'
p2591
aS'dat'
p2592
ag968
aS'of'
p2593
aS'our'
p2594
aS'admins'
p2595
aS'has'
p2596
aS'been'
p2597
aS'injured'
p2598
asg11
S'we r sad to inform you dat 1 of our  admins has been injured'
p2599
sg13
S' during d report card day and no or few memes can be made by him'
p2600
sg15
Vok-guy
p2601
sg17
(lp2602
g2587
ag962
ag2588
ag2589
ag2590
ag2591
ag2592
ag968
ag2593
ag2594
ag2595
ag2596
ag2597
ag2598
aS'during'
p2603
ag980
aS'report'
p2604
aS'card'
p2605
aS'day'
p2606
aS'and'
p2607
aS'no'
p2608
aS'or'
p2609
aS'few'
p2610
aS'memes'
p2611
aS'can'
p2612
aS'be'
p2613
aS'made'
p2614
aS'by'
p2615
aS'him'
p2616
asg25
(lp2617
g2603
ag980
ag2604
ag2605
ag2606
ag2607
ag2608
ag2609
ag2610
ag2611
ag2612
ag2613
ag2614
ag2615
ag2616
asba(iMeme
Meme
p2618
(dp2619
g3
(lp2620
S'oliver'
p2621
aS'can'
p2622
ag134
aS'go'
p2623
aS'home'
p2624
aS'early'
p2625
ag218
ag218
asg11
S'oliver can i go home early??'
p2626
sg13
S' okayy.'
p2627
sg15
Vok-guy
p2628
sg17
(lp2629
g2621
ag2622
ag134
ag2623
ag2624
ag2625
ag218
ag218
aS'okayy'
p2630
ag66
asg25
(lp2631
g2630
ag66
asba(iMeme
Meme
p2632
(dp2633
g3
(lp2634
S'taunted'
p2635
aS'aarushi'
p2636
aS'in'
p2637
aS'cs'
p2638
asg11
S'taunted aarushi in cs'
p2639
sg13
S' killed me for the rest of the match'
p2640
sg15
Vok-guy
p2641
sg17
(lp2642
g2635
ag2636
ag2637
ag2638
aS'killed'
p2643
aS'me'
p2644
aS'for'
p2645
aS'the'
p2646
aS'rest'
p2647
aS'of'
p2648
aS'the'
p2649
aS'match'
p2650
asg25
(lp2651
g2643
ag2644
ag2645
ag2646
ag2647
ag2648
ag2649
ag2650
asba(iMeme
Meme
p2652
(dp2653
g3
(lp2654
S'his'
p2655
aS's3'
p2656
aS'falls'
p2657
aS'to'
p2658
aS'the'
p2659
aS'ground'
p2660
aS'again'
p2661
ag66
asg11
S'his s3 falls to the ground again.'
p2662
sg13
S' realizes hes got butter hands.'
p2663
sg15
Vok-guy
p2664
sg17
(lp2665
g2655
ag2656
ag2657
ag2658
ag2659
ag2660
ag2661
ag66
aS'realizes'
p2666
aS'hes'
p2667
aS'got'
p2668
aS'butter'
p2669
aS'hands'
p2670
ag66
asg25
(lp2671
g2666
ag2667
ag2668
ag2669
ag2670
ag66
asba(iMeme
Meme
p2672
(dp2673
g3
(lp2674
S'im'
p2675
aS'so'
p2676
aS'popular'
p2677
ag263
asg11
S'im so popular!'
p2678
sg13
S' only 700 kids at school'
p2679
sg15
Vok-guy
p2680
sg17
(lp2681
g2675
ag2676
ag2677
ag263
aS'only'
p2682
aS'700'
p2683
aS'kids'
p2684
aS'at'
p2685
aS'school'
p2686
asg25
(lp2687
g2682
ag2683
ag2684
ag2685
ag2686
asba(iMeme
Meme
p2688
(dp2689
g3
(lp2690
S'dumbass'
p2691
aS'brags'
p2692
aS'about'
p2693
aS'sweet'
p2694
aS'new'
p2695
aS'gun'
p2696
asg11
S'dumbass brags about sweet new gun'
p2697
sg13
S' strips the piston'
p2698
sg15
Vok-guy
p2699
sg17
(lp2700
g2691
ag2692
ag2693
ag2694
ag2695
ag2696
aS'strips'
p2701
aS'the'
p2702
aS'piston'
p2703
asg25
(lp2704
g2701
ag2702
ag2703
asba(iMeme
Meme
p2705
(dp2706
g3
(lp2707
S'you'
p2708
aS'wont'
p2709
aS'tell'
p2710
aS'me'
p2711
ag218
asg11
S'you wont tell me?'
p2712
sg13
S' okay. qq'
p2713
sg15
Vok-guy
p2714
sg17
(lp2715
g2708
ag2709
ag2710
ag2711
ag218
aS'okay'
p2716
ag66
aS'qq'
p2717
asg25
(lp2718
g2716
ag66
ag2717
asba(iMeme
Meme
p2719
(dp2720
g3
(lp2721
S'thakur'
p2722
aS'after'
p2723
aS'9th'
p2724
aS'feb'
p2725
asg11
S'thakur after 9th feb'
p2726
sg13
S' i am sorry'
p2727
sg15
Vok-guy
p2728
sg17
(lp2729
g2722
ag2723
ag2724
ag2725
ag134
aS'am'
p2730
aS'sorry'
p2731
asg25
(lp2732
g134
ag2730
ag2731
asba(iMeme
Meme
p2733
(dp2734
g3
(lp2735
S'we'
p2736
ag962
aS'sad'
p2737
aS'to'
p2738
aS'inform'
p2739
aS'you'
p2740
aS'dat'
p2741
ag968
aS'of'
p2742
aS'our'
p2743
aS'admins'
p2744
aS'has'
p2745
aS'been'
p2746
aS'injured'
p2747
asg11
S'we r sad to inform you dat 1 of our  admins has been injured'
p2748
sg13
S' during d report card war and no or few memes can be made from him'
p2749
sg15
Vok-guy
p2750
sg17
(lp2751
g2736
ag962
ag2737
ag2738
ag2739
ag2740
ag2741
ag968
ag2742
ag2743
ag2744
ag2745
ag2746
ag2747
aS'during'
p2752
ag980
aS'report'
p2753
aS'card'
p2754
aS'war'
p2755
aS'and'
p2756
aS'no'
p2757
aS'or'
p2758
aS'few'
p2759
aS'memes'
p2760
aS'can'
p2761
aS'be'
p2762
aS'made'
p2763
aS'from'
p2764
aS'him'
p2765
asg25
(lp2766
g2752
ag980
ag2753
ag2754
ag2755
ag2756
ag2757
ag2758
ag2759
ag2760
ag2761
ag2762
ag2763
ag2764
ag2765
asba(iMeme
Meme
p2767
(dp2768
g3
(lp2769
S'on'
p2770
aS'your'
p2771
aS'knees'
p2772
asg11
S'on your knees'
p2773
sg13
S' ok'
p2774
sg15
Vok-guy
p2775
sg17
(lp2776
g2770
ag2771
ag2772
aS'ok'
p2777
asg25
(lp2778
g2777
asba(iMeme
Meme
p2779
(dp2780
g3
(lp2781
S'chances'
p2782
aS'arm'
p2783
aS'at'
p2784
aS'soccer'
p2785
aS'memes'
p2786
aS'for'
p2787
aS'cheap'
p2788
aS'thanks'
p2789
asg11
S'chances arm at soccer memes for cheap thanks'
p2790
sg13
S' guy correcting my post gets more thanks'
p2791
sg15
Vok-guy
p2792
sg17
(lp2793
g2782
ag2783
ag2784
ag2785
ag2786
ag2787
ag2788
ag2789
aS'guy'
p2794
aS'correcting'
p2795
aS'my'
p2796
aS'post'
p2797
aS'gets'
p2798
aS'more'
p2799
aS'thanks'
p2800
asg25
(lp2801
g2794
ag2795
ag2796
ag2797
ag2798
ag2799
ag2800
asba(iMeme
Meme
p2802
(dp2803
g3
(lp2804
S'really'
p2805
aS'bad'
p2806
aS'story'
p2807
aS'iven'
p2808
asg11
S'really bad story iven'
p2809
sg13
S' do not tell me more'
p2810
sg15
Vok-guy
p2811
sg17
(lp2812
g2805
ag2806
ag2807
ag2808
aS'do'
p2813
aS'not'
p2814
aS'tell'
p2815
aS'me'
p2816
aS'more'
p2817
asg25
(lp2818
g2813
ag2814
ag2815
ag2816
ag2817
asba(iMeme
Meme
p2819
(dp2820
g3
(lp2821
S'sorry'
p2822
aS'sver'
p2823
ag66
asg11
S'sorry sver.'
p2824
sg13
S' i make memes right now.'
p2825
sg15
Vok-guy
p2826
sg17
(lp2827
g2822
ag2823
ag66
ag134
aS'make'
p2828
aS'memes'
p2829
aS'right'
p2830
aS'now'
p2831
ag66
asg25
(lp2832
g134
ag2828
ag2829
ag2830
ag2831
ag66
asba(iMeme
Meme
p2833
(dp2834
g3
(lp2835
S'talks'
p2836
aS'to'
p2837
aS'wks'
p2838
aS'in'
p2839
ag123
aS'flirty'
p2840
aS'way'
p2841
aS'for'
p2842
aS'weeks'
p2843
asg11
S'talks to wks in a flirty way for weeks'
p2844
sg13
S' she goes out with a bus shelter'
p2845
sg15
Vok-guy
p2846
sg17
(lp2847
g2836
ag2837
ag2838
ag2839
ag123
ag2840
ag2841
ag2842
ag2843
aS'she'
p2848
aS'goes'
p2849
aS'out'
p2850
aS'with'
p2851
ag123
aS'bus'
p2852
aS'shelter'
p2853
asg25
(lp2854
g2848
ag2849
ag2850
ag2851
ag123
ag2852
ag2853
asba(iMeme
Meme
p2855
(dp2856
g3
(lp2857
S'he'
p2858
aS'took'
p2859
aS'sanecraft'
p2860
asg11
S'he took sanecraft'
p2861
sg13
S' away :('
p2862
sg15
Vok-guy
p2863
sg17
(lp2864
g2858
ag2859
ag2860
aS'away'
p2865
ag887
ag888
asg25
(lp2866
g2865
ag887
ag888
asba(iMeme
Meme
p2867
(dp2868
g3
(lp2869
g134
aS'am'
p2870
aS'the'
p2871
aS'besssst'
p2872
ag263
ag263
asg11
S'i am the besssst!!'
p2873
sg13
S' ok..jokes apart:('
p2874
sg15
Vok-guy
p2875
sg17
(lp2876
g134
ag2870
ag2871
ag2872
ag263
ag263
aS'ok..jokes'
p2877
aS'apart'
p2878
ag887
ag888
asg25
(lp2879
g2877
ag2878
ag887
ag888
asba(iMeme
Meme
p2880
(dp2881
g3
(lp2882
S'thakur'
p2883
aS'after'
p2884
aS'9th'
p2885
aS'feb'
p2886
asg11
S'thakur after 9th feb'
p2887
sg13
S' i am sorry'
p2888
sg15
Vok-guy
p2889
sg17
(lp2890
g2883
ag2884
ag2885
ag2886
ag134
aS'am'
p2891
aS'sorry'
p2892
asg25
(lp2893
g134
ag2891
ag2892
asba(iMeme
Meme
p2894
(dp2895
g3
(lp2896
S'no'
p2897
aS'shifts'
p2898
aS'from'
p2899
asg11
S'no shifts from'
p2900
sg13
S' hjs or maccas :('
p2901
sg15
Vok-guy
p2902
sg17
(lp2903
g2897
ag2898
ag2899
aS'hjs'
p2904
aS'or'
p2905
aS'maccas'
p2906
ag887
ag888
asg25
(lp2907
g2904
ag2905
ag2906
ag887
ag888
asba(iMeme
Meme
p2908
(dp2909
g3
(lp2910
S'dont'
p2911
aS'post'
p2912
aS'ur'
p2913
aS'turtle'
p2914
aS'pics'
p2915
aS'of'
p2916
aS'else'
p2917
aS'peta'
p2918
aS'ppl'
p2919
aS'wil'
p2920
aS'come'
p2921
aS'aft'
p2922
ag1690
asg11
S'dont post ur turtle pics of else peta ppl wil come aft u'
p2923
sg13
S' tan mon: what petha ??? agra ka petha!!!!'
p2924
sg15
Vok-guy
p2925
sg17
(lp2926
g2911
ag2912
ag2913
ag2914
ag2915
ag2916
ag2917
ag2918
ag2919
ag2920
ag2921
ag2922
ag1690
aS'tan'
p2927
aS'mon'
p2928
ag887
aS'what'
p2929
aS'petha'
p2930
ag218
ag218
ag218
aS'agra'
p2931
aS'ka'
p2932
aS'petha'
p2933
ag263
ag263
ag263
ag263
asg25
(lp2934
g2927
ag2928
ag887
ag2929
ag2930
ag218
ag218
ag218
ag2931
ag2932
ag2933
ag263
ag263
ag263
ag263
asba(iMeme
Meme
p2935
(dp2936
g3
(lp2937
S'wants'
p2938
aS'certified'
p2939
aS'meh'
p2940
aS'from'
p2941
aS'dudeguy'
p2942
asg11
S'wants certified meh from dudeguy'
p2943
sg13
S' receives full compliment instead'
p2944
sg15
Vok-guy
p2945
sg17
(lp2946
g2938
ag2939
ag2940
ag2941
ag2942
aS'receives'
p2947
aS'full'
p2948
aS'compliment'
p2949
aS'instead'
p2950
asg25
(lp2951
g2947
ag2948
ag2949
ag2950
asba(iMeme
Meme
p2952
(dp2953
g3
(lp2954
S'why'
p2955
aS'did'
p2956
aS'you'
p2957
aS'go'
p2958
aS'like'
p2959
aS'this'
p2960
asg11
S'why did you go like this'
p2961
sg13
S' juhi'
p2962
sg15
Vok-guy
p2963
sg17
(lp2964
g2955
ag2956
ag2957
ag2958
ag2959
ag2960
aS'juhi'
p2965
asg25
(lp2966
g2965
asba.