(lp0
(iMeme
Meme
p1
(dp2
S'top_text'
p3
(lp4
S'Your'
p5
aS'Homes'
p6
aS'will'
p7
aS'burn'
p8
asS'top_text_raw'
p9
S'Your Homes will burn '
p10
sS'bottom_text_raw'
p11
S' propane far more efficiently with a modern furnace'
p12
sS'meme_type'
p13
Vordinary-muslim-man
p14
sS'all_text'
p15
(lp16
g5
ag6
ag7
ag8
aS'propane'
p17
aS'far'
p18
aS'more'
p19
aS'efficiently'
p20
aS'with'
p21
aS'a'
p22
aS'modern'
p23
aS'furnace'
p24
asS'bottom_text'
p25
(lp26
g17
ag18
ag19
ag20
ag21
ag22
ag23
ag24
asba(iMeme
Meme
p27
(dp28
g3
(lp29
S'I'
p30
aS'need'
p31
aS'to'
p32
aS'buy'
p33
aS'some'
p34
aS'more'
p35
aS'C4'
p36
asg9
S'I need to buy some more C4 '
p37
sg11
S" Envelopes for the office, we're nearly out"
p38
sg13
Vordinary-muslim-man
p39
sg15
(lp40
g30
ag31
ag32
ag33
ag34
ag35
ag36
aS'Envelopes'
p41
aS'for'
p42
aS'the'
p43
aS'office'
p44
aS','
p45
aS'we'
p46
aS"'re"
p47
aS'nearly'
p48
aS'out'
p49
asg25
(lp50
g41
ag42
ag43
ag44
ag45
ag46
ag47
ag48
ag49
asba(iMeme
Meme
p51
(dp52
g3
(lp53
S'about'
p54
aS'to'
p55
aS'explode'
p56
asg9
S'about to explode '
p57
sg11
S' with pride now that his daughter can go to school'
p58
sg13
Vordinary-muslim-man
p59
sg15
(lp60
g54
ag55
ag56
aS'with'
p61
aS'pride'
p62
aS'now'
p63
aS'that'
p64
aS'his'
p65
aS'daughter'
p66
aS'can'
p67
aS'go'
p68
aS'to'
p69
aS'school'
p70
asg25
(lp71
g61
ag62
ag63
ag64
ag65
ag66
ag67
ag68
ag69
ag70
asba(iMeme
Meme
p72
(dp73
g3
(lp74
S'americans'
p75
aS'must'
p76
aS'burn'
p77
asg9
S'americans must burn '
p78
sg11
S' extra calories, this weight issue is out of control'
p79
sg13
Vordinary-muslim-man
p80
sg15
(lp81
g75
ag76
ag77
aS'extra'
p82
aS'calories'
p83
ag45
aS'this'
p84
aS'weight'
p85
aS'issue'
p86
aS'is'
p87
aS'out'
p88
aS'of'
p89
aS'control'
p90
asg25
(lp91
g82
ag83
ag45
ag84
ag85
ag86
ag87
ag88
ag89
ag90
asba(iMeme
Meme
p92
(dp93
g3
(lp94
g30
aS'prefer'
p95
ag22
aS'little'
p96
aS'virgin'
p97
asg9
S'I prefer a little virgin '
p98
sg11
S' olive oil with my bread'
p99
sg13
Vordinary-muslim-man
p100
sg15
(lp101
g30
ag95
ag22
ag96
ag97
aS'olive'
p102
aS'oil'
p103
aS'with'
p104
aS'my'
p105
aS'bread'
p106
asg25
(lp107
g102
ag103
ag104
ag105
ag106
asba(iMeme
Meme
p108
(dp109
g3
(lp110
g30
aS'want'
p111
aS'all'
p112
aS'Americans'
p113
aS'dead'
p114
asg9
S'I want all Americans dead '
p115
sg11
S' Set on using renewable energy sources'
p116
sg13
Vordinary-muslim-man
p117
sg15
(lp118
g30
ag111
ag112
ag113
ag114
aS'Set'
p119
aS'on'
p120
aS'using'
p121
aS'renewable'
p122
aS'energy'
p123
aS'sources'
p124
asg25
(lp125
g119
ag120
ag121
ag122
ag123
ag124
asba(iMeme
Meme
p126
(dp127
g3
(lp128
S'Just'
p129
aS'bombed'
p130
aS'the'
p131
aS'United'
p132
aS'States'
p133
asg9
S'Just bombed the United States '
p134
sg11
S' History final'
p135
sg13
Vordinary-muslim-man
p136
sg15
(lp137
g129
ag130
ag131
ag132
ag133
aS'History'
p138
aS'final'
p139
asg25
(lp140
g138
ag139
asba(iMeme
Meme
p141
(dp142
g3
(lp143
g30
aS"'m"
p144
aS'going'
p145
aS'to'
p146
aS'blow'
p147
aS'up'
p148
asg9
S"I'm going to blow up "
p149
sg11
S" my daughter's paddling pool, so please excuse me for a few minutes"
p150
sg13
Vordinary-muslim-man
p151
sg15
(lp152
g30
ag144
ag145
ag146
ag147
ag148
aS'my'
p153
aS'daughter'
p154
aS"'s"
p155
aS'paddling'
p156
aS'pool'
p157
ag45
aS'so'
p158
aS'please'
p159
aS'excuse'
p160
aS'me'
p161
aS'for'
p162
ag22
aS'few'
p163
aS'minutes'
p164
asg25
(lp165
g153
ag154
ag155
ag156
ag157
ag45
ag158
ag159
ag160
ag161
ag162
ag22
ag163
ag164
asba(iMeme
Meme
p166
(dp167
g3
(lp168
S'about'
p169
aS'to'
p170
aS'explode'
p171
asg9
S'about to explode '
p172
sg11
S' with laughter after looking at all of these awesome memes'
p173
sg13
Vordinary-muslim-man
p174
sg15
(lp175
g169
ag170
ag171
aS'with'
p176
aS'laughter'
p177
aS'after'
p178
aS'looking'
p179
aS'at'
p180
aS'all'
p181
aS'of'
p182
aS'these'
p183
aS'awesome'
p184
aS'memes'
p185
asg25
(lp186
g176
ag177
ag178
ag179
ag180
ag181
ag182
ag183
ag184
ag185
asba(iMeme
Meme
p187
(dp188
g3
(lp189
S'i'
p190
aS"'m"
p191
aS'going'
p192
aS'to'
p193
aS'blow'
p194
aS'up'
p195
aS'your'
p196
aS'family'
p197
asg9
S"i'm going to blow up your family "
p198
sg11
S' photo to 8x10'
p199
sg13
Vordinary-muslim-man
p200
sg15
(lp201
g190
ag191
ag192
ag193
ag194
ag195
ag196
ag197
aS'photo'
p202
aS'to'
p203
aS'8x10'
p204
asg25
(lp205
g202
ag203
ag204
asba(iMeme
Meme
p206
(dp207
g3
(lp208
g30
aS'want'
p209
aS'to'
p210
aS'see'
p211
aS'america'
p212
aS'burn'
p213
asg9
S'I want to see america burn '
p214
sg11
S' calories and fat'
p215
sg13
Vordinary-muslim-man
p216
sg15
(lp217
g30
ag209
ag210
ag211
ag212
ag213
aS'calories'
p218
aS'and'
p219
aS'fat'
p220
asg25
(lp221
g218
ag219
ag220
asba(iMeme
Meme
p222
(dp223
g3
(lp224
g30
aS'will'
p225
aS'blow'
p226
aS'up'
p227
aS'your'
p228
aS'wedding'
p229
asg9
S'I will blow up your wedding '
p230
sg11
S' pictures to poster size'
p231
sg13
Vordinary-muslim-man
p232
sg15
(lp233
g30
ag225
ag226
ag227
ag228
ag229
aS'pictures'
p234
aS'to'
p235
aS'poster'
p236
aS'size'
p237
asg25
(lp238
g234
ag235
ag236
ag237
asba(iMeme
Meme
p239
(dp240
g3
(lp241
g190
aS'know'
p242
ag190
aS'will'
p243
aS'spend'
p244
aS'eternity'
p245
aS'with'
p246
aS'seventy-two'
p247
aS'virgins'
p248
asg9
S'i know i will spend eternity with seventy-two virgins '
p249
sg11
S' this magic the gathering tournament is taking forever'
p250
sg13
Vordinary-muslim-man
p251
sg15
(lp252
g190
ag242
ag190
ag243
ag244
ag245
ag246
ag247
ag248
aS'this'
p253
aS'magic'
p254
aS'the'
p255
aS'gathering'
p256
aS'tournament'
p257
aS'is'
p258
aS'taking'
p259
aS'forever'
p260
asg25
(lp261
g253
ag254
ag255
ag256
ag257
ag258
ag259
ag260
asba(iMeme
Meme
p262
(dp263
g3
(lp264
g30
aS'ca'
p265
aS"n't"
p266
aS'stand'
p267
aS'the'
p268
aS'west'
p269
asg9
S"I can't stand the west "
p270
sg11
S' -boro baptist church. they really need to learn some tolerance.'
p271
sg13
Vordinary-muslim-man
p272
sg15
(lp273
g30
ag265
ag266
ag267
ag268
ag269
aS'-boro'
p274
aS'baptist'
p275
aS'church'
p276
aS'.'
p277
aS'they'
p278
aS'really'
p279
aS'need'
p280
aS'to'
p281
aS'learn'
p282
aS'some'
p283
aS'tolerance'
p284
ag277
asg25
(lp285
g274
ag275
ag276
ag277
ag278
ag279
ag280
ag281
ag282
ag283
ag284
ag277
asba(iMeme
Meme
p286
(dp287
g3
(lp288
g30
aS'have'
p289
aS'mastered'
p290
aS'explosives'
p291
asg9
S'I have mastered explosives '
p292
sg11
S' in fallout: new vegas'
p293
sg13
Vordinary-muslim-man
p294
sg15
(lp295
g30
ag289
ag290
ag291
aS'in'
p296
aS'fallout'
p297
aS':'
p298
aS'new'
p299
aS'vegas'
p300
asg25
(lp301
g296
ag297
ag298
ag299
ag300
asba(iMeme
Meme
p302
(dp303
g3
(lp304
S'im'
p305
aS'going'
p306
aS'to'
p307
aS'blow'
p308
aS'you'
p309
aS'up'
p310
asg9
S'im going to blow you up '
p311
sg11
S' some nice balloon animals'
p312
sg13
Vordinary-muslim-man
p313
sg15
(lp314
g305
ag306
ag307
ag308
ag309
ag310
aS'some'
p315
aS'nice'
p316
aS'balloon'
p317
aS'animals'
p318
asg25
(lp319
g315
ag316
ag317
ag318
asba(iMeme
Meme
p320
(dp321
g3
(lp322
g30
aS'specialize'
p323
aS'in'
p324
aS'suicide'
p325
asg9
S'I specialize in suicide '
p326
sg11
S' hotlines for teenagers who have nowhere else to go'
p327
sg13
Vordinary-muslim-man
p328
sg15
(lp329
g30
ag323
ag324
ag325
aS'hotlines'
p330
aS'for'
p331
aS'teenagers'
p332
aS'who'
p333
aS'have'
p334
aS'nowhere'
p335
aS'else'
p336
aS'to'
p337
aS'go'
p338
asg25
(lp339
g330
ag331
ag332
ag333
ag334
ag335
ag336
ag337
ag338
asba(iMeme
Meme
p340
(dp341
g3
(lp342
S'america'
p343
aS'will'
p344
aS'burn'
p345
asg9
S'america will burn '
p346
sg11
S" through their oil reserves if they don't migrate to a renewable source"
p347
sg13
Vordinary-muslim-man
p348
sg15
(lp349
g343
ag344
ag345
aS'through'
p350
aS'their'
p351
aS'oil'
p352
aS'reserves'
p353
aS'if'
p354
aS'they'
p355
aS'do'
p356
aS"n't"
p357
aS'migrate'
p358
aS'to'
p359
ag22
aS'renewable'
p360
aS'source'
p361
asg25
(lp362
g350
ag351
ag352
ag353
ag354
ag355
ag356
ag357
ag358
ag359
ag22
ag360
ag361
asba(iMeme
Meme
p363
(dp364
g3
(lp365
S'burn'
p366
aS'all'
p367
aS'western'
p368
aS'literature'
p369
asg9
S'burn all western literature '
p370
sg11
S' onto a CD so it will be preserved forever'
p371
sg13
Vordinary-muslim-man
p372
sg15
(lp373
g366
ag367
ag368
ag369
aS'onto'
p374
ag22
aS'CD'
p375
aS'so'
p376
aS'it'
p377
aS'will'
p378
aS'be'
p379
aS'preserved'
p380
aS'forever'
p381
asg25
(lp382
g374
ag22
ag375
ag376
ag377
ag378
ag379
ag380
ag381
asba(iMeme
Meme
p383
(dp384
g3
(lp385
g30
aS'must'
p386
aS'cover'
p387
aS'my'
p388
aS'wife'
p389
aS"'s"
p390
aS'face'
p391
asg9
S"I must cover my  wife's face "
p392
sg11
S' with kisses.  i love her so much.'
p393
sg13
Vordinary-muslim-man
p394
sg15
(lp395
g30
ag386
ag387
ag388
ag389
ag390
ag391
aS'with'
p396
aS'kisses'
p397
ag277
ag190
aS'love'
p398
aS'her'
p399
aS'so'
p400
aS'much'
p401
ag277
asg25
(lp402
g396
ag397
ag277
ag190
ag398
ag399
ag400
ag401
ag277
asba(iMeme
Meme
p403
(dp404
g3
(lp405
S'your'
p406
aS'streets'
p407
aS'will'
p408
aS'be'
p409
aS'covered'
p410
aS'in'
p411
aS'blood'
p412
asg9
S'your streets will be covered in blood '
p413
sg11
S' drive awareness flyers, give today!'
p414
sg13
Vordinary-muslim-man
p415
sg15
(lp416
g406
ag407
ag408
ag409
ag410
ag411
ag412
aS'drive'
p417
aS'awareness'
p418
aS'flyers'
p419
ag45
aS'give'
p420
aS'today'
p421
aS'!'
p422
asg25
(lp423
g417
ag418
ag419
ag45
ag420
ag421
ag422
asba(iMeme
Meme
p424
(dp425
g3
(lp426
g30
aS'will'
p427
aS'destroy'
p428
ag22
aS'subway'
p429
asg9
S'I will destroy a subway '
p430
sg11
S' five dollar footlong sandwich'
p431
sg13
Vordinary-muslim-man
p432
sg15
(lp433
g30
ag427
ag428
ag22
ag429
aS'five'
p434
aS'dollar'
p435
aS'footlong'
p436
aS'sandwich'
p437
asg25
(lp438
g434
ag435
ag436
ag437
asba(iMeme
Meme
p439
(dp440
g3
(lp441
g190
aS'wo'
p442
aS"n't"
p443
aS'rest'
p444
aS'until'
p445
aS'every'
p446
aS'american'
p447
aS'is'
p448
aS'dead'
p449
asg9
S"i won't rest until every american is dead "
p450
sg11
S' set on using green energy'
p451
sg13
Vordinary-muslim-man
p452
sg15
(lp453
g190
ag442
ag443
ag444
ag445
ag446
ag447
ag448
ag449
aS'set'
p454
aS'on'
p455
aS'using'
p456
aS'green'
p457
aS'energy'
p458
asg25
(lp459
g454
ag455
ag456
ag457
ag458
asba(iMeme
Meme
p460
(dp461
g3
(lp462
g190
aS'ca'
p463
aS"n't"
p464
aS'wait'
p465
aS'to'
p466
aS'blow'
p467
aS'up'
p468
asg9
S"i can't wait to blow up "
p469
sg11
S" the ballons for my daughter's birthday party"
p470
sg13
Vordinary-muslim-man
p471
sg15
(lp472
g190
ag463
ag464
ag465
ag466
ag467
ag468
aS'the'
p473
aS'ballons'
p474
aS'for'
p475
aS'my'
p476
aS'daughter'
p477
aS"'s"
p478
aS'birthday'
p479
aS'party'
p480
asg25
(lp481
g473
ag474
ag475
ag476
ag477
ag478
ag479
ag480
asba(iMeme
Meme
p482
(dp483
g3
(lp484
g30
aS'will'
p485
aS'have'
p486
aS'your'
p487
aS'head'
p488
asg9
S'I will have your head '
p489
sg11
S' spinning with these beautiful discounted rugs'
p490
sg13
Vordinary-muslim-man
p491
sg15
(lp492
g30
ag485
ag486
ag487
ag488
aS'spinning'
p493
aS'with'
p494
aS'these'
p495
aS'beautiful'
p496
aS'discounted'
p497
aS'rugs'
p498
asg25
(lp499
g493
ag494
ag495
ag496
ag497
ag498
asba(iMeme
Meme
p500
(dp501
g3
(lp502
S'911'
p503
aS'is'
p504
aS'great'
p505
asg9
S'911 is great '
p506
sg11
S' I wish we had this kind of emergency response in my home country'
p507
sg13
Vordinary-muslim-man
p508
sg15
(lp509
g503
ag504
ag505
ag30
aS'wish'
p510
aS'we'
p511
aS'had'
p512
aS'this'
p513
aS'kind'
p514
aS'of'
p515
aS'emergency'
p516
aS'response'
p517
aS'in'
p518
aS'my'
p519
aS'home'
p520
aS'country'
p521
asg25
(lp522
g30
ag510
ag511
ag512
ag513
ag514
ag515
ag516
ag517
ag518
ag519
ag520
ag521
asba(iMeme
Meme
p523
(dp524
g3
(lp525
S'DEATH'
p526
aS'TO'
p527
aS'THE'
p528
aS'WEST'
p529
asg9
S'DEATH TO THE WEST '
p530
sg11
S' ham footballers! Chelsea all the way!'
p531
sg13
Vordinary-muslim-man
p532
sg15
(lp533
g526
ag527
ag528
ag529
aS'ham'
p534
aS'footballers'
p535
ag422
aS'Chelsea'
p536
aS'all'
p537
aS'the'
p538
aS'way'
p539
ag422
asg25
(lp540
g534
ag535
ag422
ag536
ag537
ag538
ag539
ag422
asba(iMeme
Meme
p541
(dp542
g3
(lp543
S'my'
p544
aS'daughter'
p545
aS'must'
p546
aS'be'
p547
aS'stoned'
p548
asg9
S'my daughter must be stoned '
p549
sg11
S' to think she can party on a school night'
p550
sg13
Vordinary-muslim-man
p551
sg15
(lp552
g544
ag545
ag546
ag547
ag548
aS'to'
p553
aS'think'
p554
aS'she'
p555
aS'can'
p556
aS'party'
p557
aS'on'
p558
ag22
aS'school'
p559
aS'night'
p560
asg25
(lp561
g553
ag554
ag555
ag556
ag557
ag558
ag22
ag559
ag560
asba(iMeme
Meme
p562
(dp563
g3
(lp564
g30
aS"'ve"
p565
aS'got'
p566
aS'c4'
p567
asg9
S"I've got c4 "
p568
sg11
S' covered. I dare you to move your rook there.'
p569
sg13
Vordinary-muslim-man
p570
sg15
(lp571
g30
ag565
ag566
ag567
aS'covered'
p572
ag277
ag30
aS'dare'
p573
aS'you'
p574
aS'to'
p575
aS'move'
p576
aS'your'
p577
aS'rook'
p578
aS'there'
p579
ag277
asg25
(lp580
g572
ag277
ag30
ag573
ag574
ag575
ag576
ag577
ag578
ag579
ag277
asba(iMeme
Meme
p581
(dp582
g3
(lp583
S'My'
p584
aS'Wife'
p585
aS'is'
p586
aS'my'
p587
aS'property'
p588
asg9
S'My Wife is my property '
p589
sg11
S' Management specialist  at my real estate office'
p590
sg13
Vordinary-muslim-man
p591
sg15
(lp592
g584
ag585
ag586
ag587
ag588
aS'Management'
p593
aS'specialist'
p594
aS'at'
p595
aS'my'
p596
aS'real'
p597
aS'estate'
p598
aS'office'
p599
asg25
(lp600
g593
ag594
ag595
ag596
ag597
ag598
ag599
asba(iMeme
Meme
p601
(dp602
g3
(lp603
S'WE'
p604
aS'will'
p605
aS'behead'
p606
asg9
S'WE will behead '
p607
sg11
S' ding down to the beach to enjoy the sun'
p608
sg13
Vordinary-muslim-man
p609
sg15
(lp610
g604
ag605
ag606
aS'ding'
p611
aS'down'
p612
aS'to'
p613
aS'the'
p614
aS'beach'
p615
aS'to'
p616
aS'enjoy'
p617
aS'the'
p618
aS'sun'
p619
asg25
(lp620
g611
ag612
ag613
ag614
ag615
ag616
ag617
ag618
ag619
asba(iMeme
Meme
p621
(dp622
g3
(lp623
g190
aS'have'
p624
aS'tnt'
p625
aS'...'
p626
asg9
S'i have tnt... '
p627
sg11
S' as part of my basic cable subscription package'
p628
sg13
Vordinary-muslim-man
p629
sg15
(lp630
g190
ag624
ag625
ag626
aS'as'
p631
aS'part'
p632
aS'of'
p633
aS'my'
p634
aS'basic'
p635
aS'cable'
p636
aS'subscription'
p637
aS'package'
p638
asg25
(lp639
g631
ag632
ag633
ag634
ag635
ag636
ag637
ag638
asba(iMeme
Meme
p640
(dp641
g3
(lp642
S'America'
p643
aS'Will'
p644
aS'Fall'
p645
asg9
S'America Will Fall '
p646
sg11
S' Behind economically if it cannot fix its credit rating'
p647
sg13
Vordinary-muslim-man
p648
sg15
(lp649
g643
ag644
ag645
aS'Behind'
p650
aS'economically'
p651
aS'if'
p652
aS'it'
p653
aS'can'
p654
aS'not'
p655
aS'fix'
p656
aS'its'
p657
aS'credit'
p658
aS'rating'
p659
asg25
(lp660
g650
ag651
ag652
ag653
ag654
ag655
ag656
ag657
ag658
ag659
asba(iMeme
Meme
p661
(dp662
g3
(lp663
g190
aS'crashed'
p664
aS'the'
p665
aS'two'
p666
aS'towers'
p667
asg9
S'i crashed the two towers '
p668
sg11
S' the servers need to be rebooted'
p669
sg13
Vordinary-muslim-man
p670
sg15
(lp671
g190
ag664
ag665
ag666
ag667
aS'the'
p672
aS'servers'
p673
aS'need'
p674
aS'to'
p675
aS'be'
p676
aS'rebooted'
p677
asg25
(lp678
g672
ag673
ag674
ag675
ag676
ag677
asba(iMeme
Meme
p679
(dp680
g3
(lp681
S'Burn'
p682
aS'The'
p683
aS'American'
p684
asg9
S'Burn The American '
p685
sg11
S' onto DVD so I can watch it later'
p686
sg13
Vordinary-muslim-man
p687
sg15
(lp688
g682
ag683
ag684
aS'onto'
p689
aS'DVD'
p690
aS'so'
p691
ag30
aS'can'
p692
aS'watch'
p693
aS'it'
p694
aS'later'
p695
asg25
(lp696
g689
ag690
ag691
ag30
ag692
ag693
ag694
ag695
asba(iMeme
Meme
p697
(dp698
g3
(lp699
g30
aS"'ll"
p700
aS'make'
p701
aS'this'
p702
aS'auditorium'
p703
aS'explode'
p704
asg9
S"I'll make this auditorium explode "
p705
sg11
S' with laughter'
p706
sg13
Vordinary-muslim-man
p707
sg15
(lp708
g30
ag700
ag701
ag702
ag703
ag704
aS'with'
p709
aS'laughter'
p710
asg25
(lp711
g709
ag710
asba(iMeme
Meme
p712
(dp713
g3
(lp714
S'NY'
p715
aS'deserves'
p716
aS'another'
p717
aS'911'
p718
asg9
S'NY deserves another 911 '
p719
sg11
S' dispatching unit'
p720
sg13
Vordinary-muslim-man
p721
sg15
(lp722
g715
ag716
ag717
ag718
aS'dispatching'
p723
aS'unit'
p724
asg25
(lp725
g723
ag724
asba(iMeme
Meme
p726
(dp727
g3
(lp728
S'it'
p729
aS'is'
p730
aS'an'
p731
aS'honor'
p732
aS'killing'
p733
asg9
S'it is an honor killing '
p734
sg11
S' time with my lovely daughter on the weekend.'
p735
sg13
Vordinary-muslim-man
p736
sg15
(lp737
g729
ag730
ag731
ag732
ag733
aS'time'
p738
aS'with'
p739
aS'my'
p740
aS'lovely'
p741
aS'daughter'
p742
aS'on'
p743
aS'the'
p744
aS'weekend'
p745
ag277
asg25
(lp746
g738
ag739
ag740
ag741
ag742
ag743
ag744
ag745
ag277
asba(iMeme
Meme
p747
(dp748
g3
(lp749
g190
aS'am'
p750
aS'da'
p751
aS'bomb'
p752
asg9
S'i am da bomb '
p753
sg11
S' at making falafels'
p754
sg13
Vordinary-muslim-man
p755
sg15
(lp756
g190
ag750
ag751
ag752
aS'at'
p757
aS'making'
p758
aS'falafels'
p759
asg25
(lp760
g757
ag758
ag759
asba(iMeme
Meme
p761
(dp762
g3
(lp763
g30
aS'ca'
p764
aS"n't"
p765
aS'stand'
p766
aS'the'
p767
aS'west'
p768
asg9
S"I can't stand the west "
p769
sg11
S' -boro baptist church. they really need to learn some tolerance.'
p770
sg13
Vordinary-muslim-man
p771
sg15
(lp772
g30
ag764
ag765
ag766
ag767
ag768
aS'-boro'
p773
aS'baptist'
p774
aS'church'
p775
ag277
aS'they'
p776
aS'really'
p777
aS'need'
p778
aS'to'
p779
aS'learn'
p780
aS'some'
p781
aS'tolerance'
p782
ag277
asg25
(lp783
g773
ag774
ag775
ag277
ag776
ag777
ag778
ag779
ag780
ag781
ag782
ag277
asba(iMeme
Meme
p784
(dp785
g3
(lp786
g30
aS'am'
p787
aS'going'
p788
aS'to'
p789
aS'stone'
p790
asg9
S'I am going to stone '
p791
sg11
S' and pave your driveway for you'
p792
sg13
Vordinary-muslim-man
p793
sg15
(lp794
g30
ag787
ag788
ag789
ag790
aS'and'
p795
aS'pave'
p796
aS'your'
p797
aS'driveway'
p798
aS'for'
p799
aS'you'
p800
asg25
(lp801
g795
ag796
ag797
ag798
ag799
ag800
asba(iMeme
Meme
p802
(dp803
g3
(lp804
S'the'
p805
aS'holocaust'
p806
aS'did'
p807
aS"n't"
p808
aS'happen'
p809
asg9
S"the holocaust didn't happen "
p810
sg11
S' in a muslim country. it took place in Christian Europe.'
p811
sg13
Vordinary-muslim-man
p812
sg15
(lp813
g805
ag806
ag807
ag808
ag809
aS'in'
p814
ag22
aS'muslim'
p815
aS'country'
p816
ag277
aS'it'
p817
aS'took'
p818
aS'place'
p819
aS'in'
p820
aS'Christian'
p821
aS'Europe'
p822
ag277
asg25
(lp823
g814
ag22
ag815
ag816
ag277
ag817
ag818
ag819
ag820
ag821
ag822
ag277
asba(iMeme
Meme
p824
(dp825
g3
(lp826
S'America'
p827
aS'will'
p828
aS'suffer'
p829
ag422
asg9
S'America will suffer! '
p830
sg11
S' from high gas prices if conflict in the middle east continues'
p831
sg13
Vordinary-muslim-man
p832
sg15
(lp833
g827
ag828
ag829
ag422
aS'from'
p834
aS'high'
p835
aS'gas'
p836
aS'prices'
p837
aS'if'
p838
aS'conflict'
p839
aS'in'
p840
aS'the'
p841
aS'middle'
p842
aS'east'
p843
aS'continues'
p844
asg25
(lp845
g834
ag835
ag836
ag837
ag838
ag839
ag840
ag841
ag842
ag843
ag844
asba(iMeme
Meme
p846
(dp847
g3
(lp848
g30
aS'have'
p849
ag22
aS'bomb'
p850
asg9
S'I have a bomb '
p851
sg11
S' recipe for a non-hydrogenated organic pie crust'
p852
sg13
Vordinary-muslim-man
p853
sg15
(lp854
g30
ag849
ag22
ag850
aS'recipe'
p855
aS'for'
p856
ag22
aS'non-hydrogenated'
p857
aS'organic'
p858
aS'pie'
p859
aS'crust'
p860
asg25
(lp861
g855
ag856
ag22
ag857
ag858
ag859
ag860
asba(iMeme
Meme
p862
(dp863
g3
(lp864
S'the'
p865
aS'end'
p866
aS'of'
p867
aS'days'
p868
aS'is'
p869
aS'coming'
p870
asg9
S'the end of days is coming '
p871
sg11
S' next week I start working nights at my job'
p872
sg13
Vordinary-muslim-man
p873
sg15
(lp874
g865
ag866
ag867
ag868
ag869
ag870
aS'next'
p875
aS'week'
p876
ag30
aS'start'
p877
aS'working'
p878
aS'nights'
p879
aS'at'
p880
aS'my'
p881
aS'job'
p882
asg25
(lp883
g875
ag876
ag30
ag877
ag878
ag879
ag880
ag881
ag882
asba(iMeme
Meme
p884
(dp885
g3
(lp886
S'My'
p887
aS'wife'
p888
aS'must'
p889
aS'keep'
p890
aS'herself'
p891
aS'covered'
p892
asg9
S'My wife must keep herself covered '
p893
sg11
S" It's freezing outside"
p894
sg13
Vordinary-muslim-man
p895
sg15
(lp896
g887
ag888
ag889
ag890
ag891
ag892
aS'It'
p897
aS"'s"
p898
aS'freezing'
p899
aS'outside'
p900
asg25
(lp901
g897
ag898
ag899
ag900
asba(iMeme
Meme
p902
(dp903
g3
(lp904
g190
aS"'m"
p905
aS'here'
p906
aS'to'
p907
aS'take'
p908
aS'your'
p909
aS'freedom'
p910
asg9
S"i'm here to take your freedom "
p911
sg11
S" fries, they're very good"
p912
sg13
Vordinary-muslim-man
p913
sg15
(lp914
g190
ag905
ag906
ag907
ag908
ag909
ag910
aS'fries'
p915
ag45
aS'they'
p916
aS"'re"
p917
aS'very'
p918
aS'good'
p919
asg25
(lp920
g915
ag45
ag916
ag917
ag918
ag919
asba(iMeme
Meme
p921
(dp922
g3
(lp923
S'You'
p924
aS"'re"
p925
aS'going'
p926
aS'to'
p927
aS'burn'
p928
asg9
S"You're going to burn "
p929
sg11
S" those hot dogs if you don't turn them over."
p930
sg13
Vordinary-muslim-man
p931
sg15
(lp932
g924
ag925
ag926
ag927
ag928
aS'those'
p933
aS'hot'
p934
aS'dogs'
p935
aS'if'
p936
aS'you'
p937
aS'do'
p938
aS"n't"
p939
aS'turn'
p940
aS'them'
p941
aS'over'
p942
ag277
asg25
(lp943
g933
ag934
ag935
ag936
ag937
ag938
ag939
ag940
ag941
ag942
ag277
asba(iMeme
Meme
p944
(dp945
g3
(lp946
g30
aS'despise'
p947
aS'the'
p948
aS'american'
p949
asg9
S'I despise the american '
p950
sg11
S' idol show'
p951
sg13
Vordinary-muslim-man
p952
sg15
(lp953
g30
ag947
ag948
ag949
aS'idol'
p954
aS'show'
p955
asg25
(lp956
g954
ag955
asba(iMeme
Meme
p957
(dp958
g3
(lp959
g30
aS'will'
p960
aS'have'
p961
aS'my'
p962
aS'revenge'
p963
asg9
S'I will have my revenge '
p964
sg11
S' of the sith dvd soon'
p965
sg13
Vordinary-muslim-man
p966
sg15
(lp967
g30
ag960
ag961
ag962
ag963
aS'of'
p968
aS'the'
p969
aS'sith'
p970
aS'dvd'
p971
aS'soon'
p972
asg25
(lp973
g968
ag969
ag970
ag971
ag972
asba(iMeme
Meme
p974
(dp975
g3
(lp976
g30
aS'will'
p977
aS'bomb'
p978
asg9
S'I will bomb '
p979
sg11
S" that test if I don't study"
p980
sg13
Vordinary-muslim-man
p981
sg15
(lp982
g30
ag977
ag978
aS'that'
p983
aS'test'
p984
aS'if'
p985
ag30
aS'do'
p986
aS"n't"
p987
aS'study'
p988
asg25
(lp989
g983
ag984
ag985
ag30
ag986
ag987
ag988
asba(iMeme
Meme
p990
(dp991
g3
(lp992
g30
aS'killed'
p993
asg9
S'I killed '
p994
sg11
S' all my debt last year by investing wisely'
p995
sg13
Vordinary-muslim-man
p996
sg15
(lp997
g30
ag993
aS'all'
p998
aS'my'
p999
aS'debt'
p1000
aS'last'
p1001
aS'year'
p1002
aS'by'
p1003
aS'investing'
p1004
aS'wisely'
p1005
asg25
(lp1006
g998
ag999
ag1000
ag1001
ag1002
ag1003
ag1004
ag1005
asba(iMeme
Meme
p1007
(dp1008
g3
(lp1009
g30
aS'wish'
p1010
aS'you'
p1011
aS'were'
p1012
aS'dead'
p1013
asg9
S'I wish you were dead '
p1014
sg11
S' set on giving me a hug!'
p1015
sg13
Vordinary-muslim-man
p1016
sg15
(lp1017
g30
ag1010
ag1011
ag1012
ag1013
aS'set'
p1018
aS'on'
p1019
aS'giving'
p1020
aS'me'
p1021
ag22
aS'hug'
p1022
ag422
asg25
(lp1023
g1018
ag1019
ag1020
ag1021
ag22
ag1022
ag422
asba(iMeme
Meme
p1024
(dp1025
g3
(lp1026
g30
aS'have'
p1027
aS'dirty'
p1028
aS'bomb'
p1029
asg9
S'I have dirty bomb '
p1030
sg11
S' every time I shit'
p1031
sg13
Vordinary-muslim-man
p1032
sg15
(lp1033
g30
ag1027
ag1028
ag1029
aS'every'
p1034
aS'time'
p1035
ag30
aS'shit'
p1036
asg25
(lp1037
g1034
ag1035
ag30
ag1036
asba(iMeme
Meme
p1038
(dp1039
g3
(lp1040
g30
aS'have'
p1041
aS'so'
p1042
aS'much'
p1043
aS'hair'
p1044
asg9
S'I have so much hair '
p1045
sg11
S' on my clothes because my cat is shedding now'
p1046
sg13
Vordinary-muslim-man
p1047
sg15
(lp1048
g30
ag1041
ag1042
ag1043
ag1044
aS'on'
p1049
aS'my'
p1050
aS'clothes'
p1051
aS'because'
p1052
aS'my'
p1053
aS'cat'
p1054
aS'is'
p1055
aS'shedding'
p1056
aS'now'
p1057
asg25
(lp1058
g1049
ag1050
ag1051
ag1052
ag1053
ag1054
ag1055
ag1056
ag1057
asba(iMeme
Meme
p1059
(dp1060
g3
(lp1061
S'IRAN'
p1062
asg9
S'IRAN '
p1063
sg11
S' down to the falafel stand for 1'
p1064
sg13
Vordinary-muslim-man
p1065
sg15
(lp1066
g1062
aS'down'
p1067
aS'to'
p1068
aS'the'
p1069
aS'falafel'
p1070
aS'stand'
p1071
aS'for'
p1072
aS'1'
p1073
asg25
(lp1074
g1067
ag1068
ag1069
ag1070
ag1071
ag1072
ag1073
asba(iMeme
Meme
p1075
(dp1076
g3
(lp1077
S'My'
p1078
aS'daughter'
p1079
aS'was'
p1080
aS'stoned'
p1081
asg9
S'My daughter was stoned '
p1082
sg11
S' So i grounded her for two weeks'
p1083
sg13
Vordinary-muslim-man
p1084
sg15
(lp1085
g1078
ag1079
ag1080
ag1081
aS'So'
p1086
ag190
aS'grounded'
p1087
aS'her'
p1088
aS'for'
p1089
aS'two'
p1090
aS'weeks'
p1091
asg25
(lp1092
g1086
ag190
ag1087
ag1088
ag1089
ag1090
ag1091
asba(iMeme
Meme
p1093
(dp1094
g3
(lp1095
g190
aS'made'
p1096
aS'my'
p1097
aS'wife'
p1098
aS'wear'
p1099
ag22
aS'towel'
p1100
aS'on'
p1101
aS'her'
p1102
aS'head'
p1103
asg9
S'i made my wife wear a towel on her head '
p1104
sg11
S' because her hair was getting everything wet'
p1105
sg13
Vordinary-muslim-man
p1106
sg15
(lp1107
g190
ag1096
ag1097
ag1098
ag1099
ag22
ag1100
ag1101
ag1102
ag1103
aS'because'
p1108
aS'her'
p1109
aS'hair'
p1110
aS'was'
p1111
aS'getting'
p1112
aS'everything'
p1113
aS'wet'
p1114
asg25
(lp1115
g1108
ag1109
ag1110
ag1111
ag1112
ag1113
ag1114
asba(iMeme
Meme
p1116
(dp1117
g3
(lp1118
S'Hand'
p1119
aS'me'
p1120
aS'that'
p1121
aS'rock'
p1122
asg9
S'Hand me that rock '
p1123
sg11
S' and roll record, this will really ruffle some feathers'
p1124
sg13
Vordinary-muslim-man
p1125
sg15
(lp1126
g1119
ag1120
ag1121
ag1122
aS'and'
p1127
aS'roll'
p1128
aS'record'
p1129
ag45
aS'this'
p1130
aS'will'
p1131
aS'really'
p1132
aS'ruffle'
p1133
aS'some'
p1134
aS'feathers'
p1135
asg25
(lp1136
g1127
ag1128
ag1129
ag45
ag1130
ag1131
ag1132
ag1133
ag1134
ag1135
asba(iMeme
Meme
p1137
(dp1138
g3
(lp1139
S'you'
p1140
aS'will'
p1141
aS'all'
p1142
aS'pay'
p1143
asg9
S'you will all pay '
p1144
sg11
S' as soon as i ring you up'
p1145
sg13
Vordinary-muslim-man
p1146
sg15
(lp1147
g1140
ag1141
ag1142
ag1143
aS'as'
p1148
aS'soon'
p1149
aS'as'
p1150
ag190
aS'ring'
p1151
aS'you'
p1152
aS'up'
p1153
asg25
(lp1154
g1148
ag1149
ag1150
ag190
ag1151
ag1152
ag1153
asba(iMeme
Meme
p1155
(dp1156
g3
(lp1157
g30
aS'going'
p1158
aS'to'
p1159
aS'blow'
p1160
aS'up'
p1161
asg9
S'I going to blow up '
p1162
sg11
S' from being so bloated.'
p1163
sg13
Vordinary-muslim-man
p1164
sg15
(lp1165
g30
ag1158
ag1159
ag1160
ag1161
aS'from'
p1166
aS'being'
p1167
aS'so'
p1168
aS'bloated'
p1169
ag277
asg25
(lp1170
g1166
ag1167
ag1168
ag1169
ag277
asba(iMeme
Meme
p1171
(dp1172
g3
(lp1173
S'Muslim'
p1174
aS'Comic'
p1175
aS'Kills'
p1176
ag422
asg9
S'Muslim Comic Kills! '
p1177
sg11
S' Audience explodes with laughter.'
p1178
sg13
Vordinary-muslim-man
p1179
sg15
(lp1180
g1174
ag1175
ag1176
ag422
aS'Audience'
p1181
aS'explodes'
p1182
aS'with'
p1183
aS'laughter'
p1184
ag277
asg25
(lp1185
g1181
ag1182
ag1183
ag1184
ag277
asba(iMeme
Meme
p1186
(dp1187
g3
(lp1188
S'head'
p1189
aS'to'
p1190
aS'the'
p1191
aS'washroom'
p1192
aS'on'
p1193
aS'an'
p1194
aS'airplane'
p1195
asg9
S'head to the washroom on an airplane '
p1196
sg11
S' everyone else craps their pants'
p1197
sg13
Vordinary-muslim-man
p1198
sg15
(lp1199
g1189
ag1190
ag1191
ag1192
ag1193
ag1194
ag1195
aS'everyone'
p1200
aS'else'
p1201
aS'craps'
p1202
aS'their'
p1203
aS'pants'
p1204
asg25
(lp1205
g1200
ag1201
ag1202
ag1203
ag1204
asba(iMeme
Meme
p1206
(dp1207
g3
(lp1208
g190
aS'am'
p1209
aS'strapped'
p1210
asg9
S'i am strapped '
p1211
sg11
S' for cash after that last trip to the mall'
p1212
sg13
Vordinary-muslim-man
p1213
sg15
(lp1214
g190
ag1209
ag1210
aS'for'
p1215
aS'cash'
p1216
aS'after'
p1217
aS'that'
p1218
aS'last'
p1219
aS'trip'
p1220
aS'to'
p1221
aS'the'
p1222
aS'mall'
p1223
asg25
(lp1224
g1215
ag1216
ag1217
ag1218
ag1219
ag1220
ag1221
ag1222
ag1223
asba(iMeme
Meme
p1225
(dp1226
g3
(lp1227
S'America'
p1228
aS'is'
p1229
aS'sick'
p1230
asg9
S'America is sick '
p1231
sg11
S' of terrorists'
p1232
sg13
Vordinary-muslim-man
p1233
sg15
(lp1234
g1228
ag1229
ag1230
aS'of'
p1235
aS'terrorists'
p1236
asg25
(lp1237
g1235
ag1236
asba(iMeme
Meme
p1238
(dp1239
g3
(lp1240
g190
aS'will'
p1241
aS'destroy'
p1242
ag22
aS'subway'
p1243
asg9
S'i will destroy a subway'
p1244
sg11
S' five dollar footlong sandwich'
p1245
sg13
Vordinary-muslim-man
p1246
sg15
(lp1247
g190
ag1241
ag1242
ag22
ag1243
aS'five'
p1248
aS'dollar'
p1249
aS'footlong'
p1250
aS'sandwich'
p1251
asg25
(lp1252
g1248
ag1249
ag1250
ag1251
asba(iMeme
Meme
p1253
(dp1254
g3
(lp1255
g190
aS'will'
p1256
aS'be'
p1257
ag22
aS'terrorist'
p1258
asg9
S'i will be a terrorist'
p1259
sg11
S' during this round of counterstrike'
p1260
sg13
Vordinary-muslim-man
p1261
sg15
(lp1262
g190
ag1256
ag1257
ag22
ag1258
aS'during'
p1263
aS'this'
p1264
aS'round'
p1265
aS'of'
p1266
aS'counterstrike'
p1267
asg25
(lp1268
g1263
ag1264
ag1265
ag1266
ag1267
asba(iMeme
Meme
p1269
(dp1270
g3
(lp1271
g190
aS'cant'
p1272
aS'wait'
p1273
aS'to'
p1274
aS'blow'
p1275
aS'up'
p1276
asg9
S'i cant wait to blow up'
p1277
sg11
S' the balloons for my daughters birthday party'
p1278
sg13
Vordinary-muslim-man
p1279
sg15
(lp1280
g190
ag1272
ag1273
ag1274
ag1275
ag1276
aS'the'
p1281
aS'balloons'
p1282
aS'for'
p1283
aS'my'
p1284
aS'daughters'
p1285
aS'birthday'
p1286
aS'party'
p1287
asg25
(lp1288
g1281
ag1282
ag1283
ag1284
ag1285
ag1286
ag1287
asba(iMeme
Meme
p1289
(dp1290
g3
(lp1291
g190
aS'will'
p1292
aS'spend'
p1293
aS'eternity'
p1294
aS'with'
p1295
aS'seventy'
p1296
aS'two'
p1297
aS'virgins'
p1298
asg9
S'i will spend eternity with seventy two virgins'
p1299
sg11
S' this materia magica halloween party is taking forever'
p1300
sg13
Vordinary-muslim-man
p1301
sg15
(lp1302
g190
ag1292
ag1293
ag1294
ag1295
ag1296
ag1297
ag1298
aS'this'
p1303
aS'materia'
p1304
aS'magica'
p1305
aS'halloween'
p1306
aS'party'
p1307
aS'is'
p1308
aS'taking'
p1309
aS'forever'
p1310
asg25
(lp1311
g1303
ag1304
ag1305
ag1306
ag1307
ag1308
ag1309
ag1310
asba(iMeme
Meme
p1312
(dp1313
g3
(lp1314
g190
aS'must'
p1315
aS'cover'
p1316
aS'my'
p1317
aS'wifes'
p1318
aS'face'
p1319
asg9
S'i must cover my wifes face'
p1320
sg11
S' with kisses.  i love her so much'
p1321
sg13
Vordinary-muslim-man
p1322
sg15
(lp1323
g190
ag1315
ag1316
ag1317
ag1318
ag1319
aS'with'
p1324
aS'kisses'
p1325
ag277
ag190
aS'love'
p1326
aS'her'
p1327
aS'so'
p1328
aS'much'
p1329
asg25
(lp1330
g1324
ag1325
ag277
ag190
ag1326
ag1327
ag1328
ag1329
asba(iMeme
Meme
p1331
(dp1332
g3
(lp1333
g190
aS'am'
p1334
aS'so'
p1335
aS'going'
p1336
aS'to'
p1337
aS'bomb'
p1338
aS'this'
p1339
asg9
S'i am so going to bomb this'
p1340
sg11
S' molecular biology final exam'
p1341
sg13
Vordinary-muslim-man
p1342
sg15
(lp1343
g190
ag1334
ag1335
ag1336
ag1337
ag1338
ag1339
aS'molecular'
p1344
aS'biology'
p1345
aS'final'
p1346
aS'exam'
p1347
asg25
(lp1348
g1344
ag1345
ag1346
ag1347
asba(iMeme
Meme
p1349
(dp1350
g3
(lp1351
S'arab'
p1352
aS'spring'
p1353
asg9
S'arab spring'
p1354
sg11
S' the revolution of democracy'
p1355
sg13
Vordinary-muslim-man
p1356
sg15
(lp1357
g1352
ag1353
aS'the'
p1358
aS'revolution'
p1359
aS'of'
p1360
aS'democracy'
p1361
asg25
(lp1362
g1358
ag1359
ag1360
ag1361
asba(iMeme
Meme
p1363
(dp1364
g3
(lp1365
S'do'
p1366
aS'you'
p1367
aS'really'
p1368
aS'want'
p1369
asg9
S'do you really want'
p1370
sg11
S' to fight me??'
p1371
sg13
Vordinary-muslim-man
p1372
sg15
(lp1373
g1366
ag1367
ag1368
ag1369
aS'to'
p1374
aS'fight'
p1375
aS'me'
p1376
aS'?'
p1377
ag1377
asg25
(lp1378
g1374
ag1375
ag1376
ag1377
ag1377
asba(iMeme
Meme
p1379
(dp1380
g3
(lp1381
S'my'
p1382
aS'wife'
p1383
aS'is'
p1384
aS'my'
p1385
aS'property'
p1386
asg9
S'my wife is my property'
p1387
sg11
S' management specialist at my real estate office'
p1388
sg13
Vordinary-muslim-man
p1389
sg15
(lp1390
g1382
ag1383
ag1384
ag1385
ag1386
aS'management'
p1391
aS'specialist'
p1392
aS'at'
p1393
aS'my'
p1394
aS'real'
p1395
aS'estate'
p1396
aS'office'
p1397
asg25
(lp1398
g1391
ag1392
ag1393
ag1394
ag1395
ag1396
ag1397
asba(iMeme
Meme
p1399
(dp1400
g3
(lp1401
S'the'
p1402
aS'holocaust'
p1403
aS'never'
p1404
aS'happened'
p1405
asg9
S'the holocaust never happened'
p1406
sg11
S' to be my favorite subject'
p1407
sg13
Vordinary-muslim-man
p1408
sg15
(lp1409
g1402
ag1403
ag1404
ag1405
aS'to'
p1410
aS'be'
p1411
aS'my'
p1412
aS'favorite'
p1413
aS'subject'
p1414
asg25
(lp1415
g1410
ag1411
ag1412
ag1413
ag1414
asba(iMeme
Meme
p1416
(dp1417
g3
(lp1418
S'my'
p1419
aS'daughter'
p1420
aS'must'
p1421
aS'be'
p1422
aS'stoned'
p1423
asg9
S'my daughter must be stoned'
p1424
sg11
S' to think she can party on a school night'
p1425
sg13
Vordinary-muslim-man
p1426
sg15
(lp1427
g1419
ag1420
ag1421
ag1422
ag1423
aS'to'
p1428
aS'think'
p1429
aS'she'
p1430
aS'can'
p1431
aS'party'
p1432
aS'on'
p1433
ag22
aS'school'
p1434
aS'night'
p1435
asg25
(lp1436
g1428
ag1429
ag1430
ag1431
ag1432
ag1433
ag22
ag1434
ag1435
asba(iMeme
Meme
p1437
(dp1438
g3
(lp1439
S'this'
p1440
aS'place'
p1441
aS'about'
p1442
aS'to'
p1443
aS'blow'
p1444
asg9
S'this place about to blow'
p1445
sg11
S' wwweh oh ohhh oh oh oh oh ohhh'
p1446
sg13
Vordinary-muslim-man
p1447
sg15
(lp1448
g1440
ag1441
ag1442
ag1443
ag1444
aS'wwweh'
p1449
aS'oh'
p1450
aS'ohhh'
p1451
aS'oh'
p1452
aS'oh'
p1453
aS'oh'
p1454
aS'oh'
p1455
aS'ohhh'
p1456
asg25
(lp1457
g1449
ag1450
ag1451
ag1452
ag1453
ag1454
ag1455
ag1456
asba(iMeme
Meme
p1458
(dp1459
g3
(lp1460
S'death'
p1461
aS'to'
p1462
aS'america'
p1463
asg9
S'death to america'
p1464
sg11
S' online.  i just signed up for dsl'
p1465
sg13
Vordinary-muslim-man
p1466
sg15
(lp1467
g1461
ag1462
ag1463
aS'online'
p1468
ag277
ag190
aS'just'
p1469
aS'signed'
p1470
aS'up'
p1471
aS'for'
p1472
aS'dsl'
p1473
asg25
(lp1474
g1468
ag277
ag190
ag1469
ag1470
ag1471
ag1472
ag1473
asba(iMeme
Meme
p1475
(dp1476
g3
(lp1477
S'ill'
p1478
aS'strap'
p1479
aS'this'
p1480
aS'around'
p1481
aS'my'
p1482
aS'chest'
p1483
aS'and'
p1484
aS'then'
p1485
aS'blow'
p1486
aS'up'
p1487
asg9
S'ill strap this around my chest and then blow up'
p1488
sg11
S' the arm floaties for extra safety while swimming'
p1489
sg13
Vordinary-muslim-man
p1490
sg15
(lp1491
g1478
ag1479
ag1480
ag1481
ag1482
ag1483
ag1484
ag1485
ag1486
ag1487
aS'the'
p1492
aS'arm'
p1493
aS'floaties'
p1494
aS'for'
p1495
aS'extra'
p1496
aS'safety'
p1497
aS'while'
p1498
aS'swimming'
p1499
asg25
(lp1500
g1492
ag1493
ag1494
ag1495
ag1496
ag1497
ag1498
ag1499
asba(iMeme
Meme
p1501
(dp1502
g3
(lp1503
g190
aS'wont'
p1504
aS'rest'
p1505
aS'until'
p1506
aS'every'
p1507
aS'american'
p1508
aS'is'
p1509
aS'dead'
p1510
asg9
S'i wont rest until every american is dead'
p1511
sg11
S' set on using green energy'
p1512
sg13
Vordinary-muslim-man
p1513
sg15
(lp1514
g190
ag1504
ag1505
ag1506
ag1507
ag1508
ag1509
ag1510
aS'set'
p1515
aS'on'
p1516
aS'using'
p1517
aS'green'
p1518
aS'energy'
p1519
asg25
(lp1520
g1515
ag1516
ag1517
ag1518
ag1519
asba(iMeme
Meme
p1521
(dp1522
g3
(lp1523
g190
aS'have'
p1524
aS'tnt'
p1525
asg9
S'i have tnt'
p1526
sg11
S' as part of my basic cable subscription package'
p1527
sg13
Vordinary-muslim-man
p1528
sg15
(lp1529
g190
ag1524
ag1525
aS'as'
p1530
aS'part'
p1531
aS'of'
p1532
aS'my'
p1533
aS'basic'
p1534
aS'cable'
p1535
aS'subscription'
p1536
aS'package'
p1537
asg25
(lp1538
g1530
ag1531
ag1532
ag1533
ag1534
ag1535
ag1536
ag1537
asba(iMeme
Meme
p1539
(dp1540
g3
(lp1541
S'america'
p1542
aS'will'
p1543
aS'burn'
p1544
asg9
S'america will burn'
p1545
sg11
S' through their oil reserves if they dont migrate to a renewable source'
p1546
sg13
Vordinary-muslim-man
p1547
sg15
(lp1548
g1542
ag1543
ag1544
aS'through'
p1549
aS'their'
p1550
aS'oil'
p1551
aS'reserves'
p1552
aS'if'
p1553
aS'they'
p1554
aS'dont'
p1555
aS'migrate'
p1556
aS'to'
p1557
ag22
aS'renewable'
p1558
aS'source'
p1559
asg25
(lp1560
g1549
ag1550
ag1551
ag1552
ag1553
ag1554
ag1555
ag1556
ag1557
ag22
ag1558
ag1559
asba(iMeme
Meme
p1561
(dp1562
g3
(lp1563
S'and'
p1564
aS'george'
p1565
aS'lopez'
p1566
aS'says'
p1567
aS'allah'
p1568
aS'verga'
p1569
ag422
asg9
S'and george lopez says allah verga!'
p1570
sg11
S' thats the stupidest joke ive ever heard.'
p1571
sg13
Vordinary-muslim-man
p1572
sg15
(lp1573
g1564
ag1565
ag1566
ag1567
ag1568
ag1569
ag422
aS'thats'
p1574
aS'the'
p1575
aS'stupidest'
p1576
aS'joke'
p1577
aS'ive'
p1578
aS'ever'
p1579
aS'heard'
p1580
ag277
asg25
(lp1581
g1574
ag1575
ag1576
ag1577
ag1578
ag1579
ag1580
ag277
asba(iMeme
Meme
p1582
(dp1583
g3
(lp1584
S'praise'
p1585
aS'allah'
p1586
ag422
ag422
aS'praise'
p1587
aS'allah'
p1588
ag422
ag422
aS'praise'
p1589
aS'allah'
p1590
ag422
ag422
asg9
S'praise allah!! praise allah!! praise allah!!'
p1591
sg11
S' i just stubbed my damn toe!!!'
p1592
sg13
Vordinary-muslim-man
p1593
sg15
(lp1594
g1585
ag1586
ag422
ag422
ag1587
ag1588
ag422
ag422
ag1589
ag1590
ag422
ag422
ag190
aS'just'
p1595
aS'stubbed'
p1596
aS'my'
p1597
aS'damn'
p1598
aS'toe'
p1599
ag422
ag422
ag422
asg25
(lp1600
g190
ag1595
ag1596
ag1597
ag1598
ag1599
ag422
ag422
ag422
asba(iMeme
Meme
p1601
(dp1602
g3
(lp1603
g190
aS'beat'
p1604
aS'my'
p1605
aS'wife'
p1606
aS'if'
p1607
aS'she'
p1608
aS'reveals'
p1609
aS'anything'
p1610
asg9
S'i beat my wife if she reveals anything'
p1611
sg11
S' in poker. keeping your game face is hard.'
p1612
sg13
Vordinary-muslim-man
p1613
sg15
(lp1614
g190
ag1604
ag1605
ag1606
ag1607
ag1608
ag1609
ag1610
aS'in'
p1615
aS'poker'
p1616
ag277
aS'keeping'
p1617
aS'your'
p1618
aS'game'
p1619
aS'face'
p1620
aS'is'
p1621
aS'hard'
p1622
ag277
asg25
(lp1623
g1615
ag1616
ag277
ag1617
ag1618
ag1619
ag1620
ag1621
ag1622
ag277
asba(iMeme
Meme
p1624
(dp1625
g3
(lp1626
S'pigs'
p1627
aS'are'
p1628
aS'filthy'
p1629
aS'animals'
p1630
asg9
S'pigs are filthy animals'
p1631
sg11
S' i wipe my ass with my bare hand'
p1632
sg13
Vordinary-muslim-man
p1633
sg15
(lp1634
g1627
ag1628
ag1629
ag1630
ag190
aS'wipe'
p1635
aS'my'
p1636
aS'ass'
p1637
aS'with'
p1638
aS'my'
p1639
aS'bare'
p1640
aS'hand'
p1641
asg25
(lp1642
g190
ag1635
ag1636
ag1637
ag1638
ag1639
ag1640
ag1641
asba(iMeme
Meme
p1643
(dp1644
g3
(lp1645
S'death'
p1646
aS'before'
p1647
ag190
aS'shave'
p1648
aS'my'
p1649
aS'beard'
p1650
asg9
S'death before i shave my beard'
p1651
sg11
S' i mean'
p1652
sg13
Vordinary-muslim-man
p1653
sg15
(lp1654
g1646
ag1647
ag190
ag1648
ag1649
ag1650
ag190
aS'mean'
p1655
asg25
(lp1656
g190
ag1655
asba(iMeme
Meme
p1657
(dp1658
g3
(lp1659
g190
aS'like'
p1660
aS'the'
p1661
aS'cars'
p1662
aS'that'
p1663
aS'go'
p1664
aS'boom'
p1665
asg9
S'i like the cars that go boom'
p1666
sg11
S' from the subwoofers in the back'
p1667
sg13
Vordinary-muslim-man
p1668
sg15
(lp1669
g190
ag1660
ag1661
ag1662
ag1663
ag1664
ag1665
aS'from'
p1670
aS'the'
p1671
aS'subwoofers'
p1672
aS'in'
p1673
aS'the'
p1674
aS'back'
p1675
asg25
(lp1676
g1670
ag1671
ag1672
ag1673
ag1674
ag1675
asba(iMeme
Meme
p1677
(dp1678
g3
(lp1679
g190
aS'am'
p1680
aS'planning'
p1681
aS'to'
p1682
aS'hijack'
p1683
asg9
S'i am planning to hijack'
p1684
sg11
S' every thread on this forum'
p1685
sg13
Vordinary-muslim-man
p1686
sg15
(lp1687
g190
ag1680
ag1681
ag1682
ag1683
aS'every'
p1688
aS'thread'
p1689
aS'on'
p1690
aS'this'
p1691
aS'forum'
p1692
asg25
(lp1693
g1688
ag1689
ag1690
ag1691
ag1692
asba(iMeme
Meme
p1694
(dp1695
g3
(lp1696
g190
aS'want'
p1697
aS'to'
p1698
aS'kill'
p1699
aS'everybody'
p1700
aS'in'
p1701
aS'the'
p1702
aS'world'
p1703
asg9
S'i want to kill everybody in the world'
p1704
sg11
S' wubwubwub'
p1705
sg13
Vordinary-muslim-man
p1706
sg15
(lp1707
g190
ag1697
ag1698
ag1699
ag1700
ag1701
ag1702
ag1703
aS'wubwubwub'
p1708
asg25
(lp1709
g1708
asba(iMeme
Meme
p1710
(dp1711
g3
(lp1712
g190
aS'cant'
p1713
aS'wait'
p1714
aS'to'
p1715
aS'blow..'
p1716
asg9
S'i cant wait to blow..'
p1717
sg11
S' out my birthday candles!'
p1718
sg13
Vordinary-muslim-man
p1719
sg15
(lp1720
g190
ag1713
ag1714
ag1715
ag1716
aS'out'
p1721
aS'my'
p1722
aS'birthday'
p1723
aS'candles'
p1724
ag422
asg25
(lp1725
g1721
ag1722
ag1723
ag1724
ag422
asba(iMeme
Meme
p1726
(dp1727
g3
(lp1728
g190
aS'have'
p1729
aS'deadly'
p1730
aS'mustard'
p1731
aS'gas'
p1732
asg9
S'i have deadly mustard gas'
p1733
sg11
S' my sandwitch was to big'
p1734
sg13
Vordinary-muslim-man
p1735
sg15
(lp1736
g190
ag1729
ag1730
ag1731
ag1732
aS'my'
p1737
aS'sandwitch'
p1738
aS'was'
p1739
aS'to'
p1740
aS'big'
p1741
asg25
(lp1742
g1737
ag1738
ag1739
ag1740
ag1741
asba(iMeme
Meme
p1743
(dp1744
g3
(lp1745
g190
aS'will'
p1746
aS'kill'
p1747
aS'jews'
p1748
asg9
S'i will kill jews'
p1749
sg11
S' just kidding'
p1750
sg13
Vordinary-muslim-man
p1751
sg15
(lp1752
g190
ag1746
ag1747
ag1748
aS'just'
p1753
aS'kidding'
p1754
asg25
(lp1755
g1753
ag1754
asba(iMeme
Meme
p1756
(dp1757
g3
(lp1758
S'my'
p1759
aS'wife'
p1760
aS'must'
p1761
aS'keep'
p1762
aS'herself'
p1763
aS'covered'
p1764
asg9
S'my wife must keep herself covered'
p1765
sg11
S' its freezing outside'
p1766
sg13
Vordinary-muslim-man
p1767
sg15
(lp1768
g1759
ag1760
ag1761
ag1762
ag1763
ag1764
aS'its'
p1769
aS'freezing'
p1770
aS'outside'
p1771
asg25
(lp1772
g1769
ag1770
ag1771
asba(iMeme
Meme
p1773
(dp1774
g3
(lp1775
g190
aS'brought'
p1776
aS'down'
p1777
aS'the'
p1778
aS'two'
p1779
aS'towers'
p1780
asg9
S'i brought down the two towers'
p1781
sg11
S' in the lord of the rings video game'
p1782
sg13
Vordinary-muslim-man
p1783
sg15
(lp1784
g190
ag1776
ag1777
ag1778
ag1779
ag1780
aS'in'
p1785
aS'the'
p1786
aS'lord'
p1787
aS'of'
p1788
aS'the'
p1789
aS'rings'
p1790
aS'video'
p1791
aS'game'
p1792
asg25
(lp1793
g1785
ag1786
ag1787
ag1788
ag1789
ag1790
ag1791
ag1792
asba(iMeme
Meme
p1794
(dp1795
g3
(lp1796
g190
aS'will'
p1797
aS'send'
p1798
aS'you'
p1799
aS'anthrax'
p1800
asg9
S'i will send you anthrax'
p1801
sg11
S' album in the mail theyre my favourite heavy metal band'
p1802
sg13
Vordinary-muslim-man
p1803
sg15
(lp1804
g190
ag1797
ag1798
ag1799
ag1800
aS'album'
p1805
aS'in'
p1806
aS'the'
p1807
aS'mail'
p1808
aS'theyre'
p1809
aS'my'
p1810
aS'favourite'
p1811
aS'heavy'
p1812
aS'metal'
p1813
aS'band'
p1814
asg25
(lp1815
g1805
ag1806
ag1807
ag1808
ag1809
ag1810
ag1811
ag1812
ag1813
ag1814
asba(iMeme
Meme
p1816
(dp1817
g3
(lp1818
S'knows'
p1819
aS'that'
p1820
aS'islam'
p1821
aS'is'
p1822
aS'the'
p1823
aS'religion'
p1824
aS'of'
p1825
aS'peace'
p1826
asg9
S'knows that islam is the religion of peace'
p1827
sg11
S' says south park shouldnt air a picture of muhammad due to risk of violent repercussions'
p1828
sg13
Vordinary-muslim-man
p1829
sg15
(lp1830
g1819
ag1820
ag1821
ag1822
ag1823
ag1824
ag1825
ag1826
aS'says'
p1831
aS'south'
p1832
aS'park'
p1833
aS'shouldnt'
p1834
aS'air'
p1835
ag22
aS'picture'
p1836
aS'of'
p1837
aS'muhammad'
p1838
aS'due'
p1839
aS'to'
p1840
aS'risk'
p1841
aS'of'
p1842
aS'violent'
p1843
aS'repercussions'
p1844
asg25
(lp1845
g1831
ag1832
ag1833
ag1834
ag1835
ag22
ag1836
ag1837
ag1838
ag1839
ag1840
ag1841
ag1842
ag1843
ag1844
asba(iMeme
Meme
p1846
(dp1847
g3
(lp1848
g190
aS'arranged'
p1849
aS'my'
p1850
aS'daughters'
p1851
aS'wedding'
p1852
ag277
asg9
S'i arranged my daughters wedding.'
p1853
sg11
S' its what i do. im a w wedding planner.'
p1854
sg13
Vordinary-muslim-man
p1855
sg15
(lp1856
g190
ag1849
ag1850
ag1851
ag1852
ag277
aS'its'
p1857
aS'what'
p1858
ag190
aS'do'
p1859
ag277
aS'im'
p1860
ag22
aS'w'
p1861
aS'wedding'
p1862
aS'planner'
p1863
ag277
asg25
(lp1864
g1857
ag1858
ag190
ag1859
ag277
ag1860
ag22
ag1861
ag1862
ag1863
ag277
asba(iMeme
Meme
p1865
(dp1866
g3
(lp1867
g190
aS'left'
p1868
aS'my'
p1869
aS'bag'
p1870
aS'unattended'
p1871
aS'at'
p1872
aS'the'
p1873
aS'airport'
p1874
asg9
S'i left my bag unattended at the airport'
p1875
sg11
S' silly me im so ditzy sometimes'
p1876
sg13
Vordinary-muslim-man
p1877
sg15
(lp1878
g190
ag1868
ag1869
ag1870
ag1871
ag1872
ag1873
ag1874
aS'silly'
p1879
aS'me'
p1880
aS'im'
p1881
aS'so'
p1882
aS'ditzy'
p1883
aS'sometimes'
p1884
asg25
(lp1885
g1879
ag1880
ag1881
ag1882
ag1883
ag1884
asba(iMeme
Meme
p1886
(dp1887
g3
(lp1888
S'this'
p1889
aS'place'
p1890
aS'about'
p1891
aS'to'
p1892
aS'blow'
p1893
asg9
S'this place about to blow'
p1894
sg11
S' wwweh oh oh oh oh oh oh ohhhhh'
p1895
sg13
Vordinary-muslim-man
p1896
sg15
(lp1897
g1889
ag1890
ag1891
ag1892
ag1893
aS'wwweh'
p1898
aS'oh'
p1899
aS'oh'
p1900
aS'oh'
p1901
aS'oh'
p1902
aS'oh'
p1903
aS'oh'
p1904
aS'ohhhhh'
p1905
asg25
(lp1906
g1898
ag1899
ag1900
ag1901
ag1902
ag1903
ag1904
ag1905
asba(iMeme
Meme
p1907
(dp1908
g3
(lp1909
S'mahmoud'
p1910
aS'exploded'
p1911
asg9
S'mahmoud exploded'
p1912
sg11
S' with anger when he realized how far kepler 22b was'
p1913
sg13
Vordinary-muslim-man
p1914
sg15
(lp1915
g1910
ag1911
aS'with'
p1916
aS'anger'
p1917
aS'when'
p1918
aS'he'
p1919
aS'realized'
p1920
aS'how'
p1921
aS'far'
p1922
aS'kepler'
p1923
aS'22b'
p1924
aS'was'
p1925
asg25
(lp1926
g1916
ag1917
ag1918
ag1919
ag1920
ag1921
ag1922
ag1923
ag1924
ag1925
asba(iMeme
Meme
p1927
(dp1928
g3
(lp1929
S'who'
p1930
aS'said'
p1931
asg9
S'who said'
p1932
sg11
S' jenna mason was prety'
p1933
sg13
Vordinary-muslim-man
p1934
sg15
(lp1935
g1930
ag1931
aS'jenna'
p1936
aS'mason'
p1937
aS'was'
p1938
aS'prety'
p1939
asg25
(lp1940
g1936
ag1937
ag1938
ag1939
asba(iMeme
Meme
p1941
(dp1942
g3
(lp1943
g190
aS'hate'
p1944
aS'the'
p1945
aS'jew'
p1946
asg9
S'i hate the jew'
p1947
sg11
S' elry my wife just bought.'
p1948
sg13
Vordinary-muslim-man
p1949
sg15
(lp1950
g190
ag1944
ag1945
ag1946
aS'elry'
p1951
aS'my'
p1952
aS'wife'
p1953
aS'just'
p1954
aS'bought'
p1955
ag277
asg25
(lp1956
g1951
ag1952
ag1953
ag1954
ag1955
ag277
asba(iMeme
Meme
p1957
(dp1958
g3
(lp1959
g190
aS'will'
p1960
aS'bomb'
p1961
asg9
S'i will bomb'
p1962
sg11
S' that test if i dont study'
p1963
sg13
Vordinary-muslim-man
p1964
sg15
(lp1965
g190
ag1960
ag1961
aS'that'
p1966
aS'test'
p1967
aS'if'
p1968
ag190
aS'dont'
p1969
aS'study'
p1970
asg25
(lp1971
g1966
ag1967
ag1968
ag190
ag1969
ag1970
asba(iMeme
Meme
p1972
(dp1973
g3
(lp1974
g190
aS'hate'
p1975
aS'the'
p1976
aS'infidel'
p1977
asg9
S'i hate the infidel'
p1978
sg11
S' ity of arnold schwarzenegger'
p1979
sg13
Vordinary-muslim-man
p1980
sg15
(lp1981
g190
ag1975
ag1976
ag1977
aS'ity'
p1982
aS'of'
p1983
aS'arnold'
p1984
aS'schwarzenegger'
p1985
asg25
(lp1986
g1982
ag1983
ag1984
ag1985
asba(iMeme
Meme
p1987
(dp1988
g3
(lp1989
S'tonight'
p1990
ag190
aS'will'
p1991
aS'drive'
p1992
aS'down'
p1993
aS'town'
p1994
aS'and'
p1995
aS'kill'
p1996
aS'everyone'
p1997
asg9
S'tonight i will drive down town and kill everyone'
p1998
sg11
S' with laughter at the comedy club'
p1999
sg13
Vordinary-muslim-man
p2000
sg15
(lp2001
g1990
ag190
ag1991
ag1992
ag1993
ag1994
ag1995
ag1996
ag1997
aS'with'
p2002
aS'laughter'
p2003
aS'at'
p2004
aS'the'
p2005
aS'comedy'
p2006
aS'club'
p2007
asg25
(lp2008
g2002
ag2003
ag2004
ag2005
ag2006
ag2007
asba(iMeme
Meme
p2009
(dp2010
g3
(lp2011
S'my'
p2012
aS'brother'
p2013
aS'is'
p2014
aS'an'
p2015
aS'american'
p2016
asg9
S'my brother is an american'
p2017
sg11
S' airlines pilot. the bomb'
p2018
sg13
Vordinary-muslim-man
p2019
sg15
(lp2020
g2012
ag2013
ag2014
ag2015
ag2016
aS'airlines'
p2021
aS'pilot'
p2022
ag277
aS'the'
p2023
aS'bomb'
p2024
asg25
(lp2025
g2021
ag2022
ag277
ag2023
ag2024
asba(iMeme
Meme
p2026
(dp2027
g3
(lp2028
S'we'
p2029
aS'are'
p2030
aS'very'
p2031
aS'close'
p2032
asg9
S'we are very close'
p2033
sg11
S' airplane'
p2034
sg13
Vordinary-muslim-man
p2035
sg15
(lp2036
g2029
ag2030
ag2031
ag2032
aS'airplane'
p2037
asg25
(lp2038
g2037
asba(iMeme
Meme
p2039
(dp2040
g3
(lp2041
S'allah'
p2042
aS'demands'
p2043
aS'blood'
p2044
asg9
S'allah demands blood'
p2045
sg11
S' so please make your way downstairs to the red cross van and give a pint today!'
p2046
sg13
Vordinary-muslim-man
p2047
sg15
(lp2048
g2042
ag2043
ag2044
aS'so'
p2049
aS'please'
p2050
aS'make'
p2051
aS'your'
p2052
aS'way'
p2053
aS'downstairs'
p2054
aS'to'
p2055
aS'the'
p2056
aS'red'
p2057
aS'cross'
p2058
aS'van'
p2059
aS'and'
p2060
aS'give'
p2061
ag22
aS'pint'
p2062
aS'today'
p2063
ag422
asg25
(lp2064
g2049
ag2050
ag2051
ag2052
ag2053
ag2054
ag2055
ag2056
ag2057
ag2058
ag2059
ag2060
ag2061
ag22
ag2062
ag2063
ag422
asba(iMeme
Meme
p2065
(dp2066
g3
(lp2067
S'claims'
p2068
aS'america'
p2069
aS'is'
p2070
aS'evil'
p2071
asg9
S'claims america is evil'
p2072
sg11
S' lives in country where religious equality has never existed'
p2073
sg13
Vordinary-muslim-man
p2074
sg15
(lp2075
g2068
ag2069
ag2070
ag2071
aS'lives'
p2076
aS'in'
p2077
aS'country'
p2078
aS'where'
p2079
aS'religious'
p2080
aS'equality'
p2081
aS'has'
p2082
aS'never'
p2083
aS'existed'
p2084
asg25
(lp2085
g2076
ag2077
ag2078
ag2079
ag2080
ag2081
ag2082
ag2083
ag2084
asba.