(lp0
(iMeme
Meme
p1
(dp2
S'top_text'
p3
(lp4
S'i'
p5
aS'see'
p6
aS'you'
p7
aS'paid'
p8
aS'$'
p9
aS'200'
p10
aS'for'
p11
aS'that'
p12
aS'textbook'
p13
asS'top_text_raw'
p14
S'i see you paid $200 for that textbook'
p15
sS'bottom_text_raw'
p16
S' best i can do is $5'
p17
sS'meme_type'
p18
Vpawn-star
p19
sS'all_text'
p20
(lp21
g5
ag6
ag7
ag8
ag9
ag10
ag11
ag12
ag13
aS'best'
p22
ag5
aS'can'
p23
aS'do'
p24
aS'is'
p25
ag9
aS'5'
p26
asS'bottom_text'
p27
(lp28
g22
ag5
ag23
ag24
ag25
ag9
ag26
asba(iMeme
Meme
p29
(dp30
g3
(lp31
g5
aS'see'
p32
aS'you'
p33
aS'paid'
p34
ag9
aS'50'
p35
asg14
S'i see you paid $50'
p36
sg16
S'000 for that college degree'
p37
sg18
Vpawn-star
p38
sg20
(lp39
g5
ag32
ag33
ag34
ag9
ag35
aS'000'
p40
aS'for'
p41
aS'that'
p42
aS'college'
p43
aS'degree'
p44
asg27
(lp45
g40
ag41
ag42
ag43
ag44
asba(iMeme
Meme
p46
(dp47
g3
(lp48
S'an'
p49
aS'eighth'
p50
aS'?'
p51
asg14
S'an eighth?'
p52
sg16
S' ill give you $20'
p53
sg18
Vpawn-star
p54
sg20
(lp55
g49
ag50
ag51
aS'ill'
p56
aS'give'
p57
aS'you'
p58
ag9
aS'20'
p59
asg27
(lp60
g56
ag57
ag58
ag9
ag59
asba(iMeme
Meme
p61
(dp62
g3
(lp63
S'you'
p64
aS'want'
p65
aS'to'
p66
aS'sell'
p67
aS'your'
p68
aS'boobs'
p69
ag51
asg14
S'you want to sell your boobs?'
p70
sg16
S' let me call in an expert who has experience in real boobs'
p71
sg18
Vpawn-star
p72
sg20
(lp73
g64
ag65
ag66
ag67
ag68
ag69
ag51
aS'let'
p74
aS'me'
p75
aS'call'
p76
aS'in'
p77
aS'an'
p78
aS'expert'
p79
aS'who'
p80
aS'has'
p81
aS'experience'
p82
aS'in'
p83
aS'real'
p84
aS'boobs'
p85
asg27
(lp86
g74
ag75
ag76
ag77
ag78
ag79
ag80
ag81
ag82
ag83
ag84
ag85
asba(iMeme
Meme
p87
(dp88
g3
(lp89
S'the'
p90
aS'car'
p91
aS'jfk'
p92
aS'was'
p93
aS'assassinated'
p94
aS'in'
p95
ag51
asg14
S'the car jfk was assassinated in?'
p96
sg16
S' let me call my friend whos an expert in cars jfk was assassinated in'
p97
sg18
Vpawn-star
p98
sg20
(lp99
g90
ag91
ag92
ag93
ag94
ag95
ag51
aS'let'
p100
aS'me'
p101
aS'call'
p102
aS'my'
p103
aS'friend'
p104
aS'whos'
p105
aS'an'
p106
aS'expert'
p107
aS'in'
p108
aS'cars'
p109
aS'jfk'
p110
aS'was'
p111
aS'assassinated'
p112
aS'in'
p113
asg27
(lp114
g100
ag101
ag102
ag103
ag104
ag105
ag106
ag107
ag108
ag109
ag110
ag111
ag112
ag113
asba(iMeme
Meme
p115
(dp116
g3
(lp117
S'happy'
p118
aS'birthday'
p119
asg14
S'happy birthday'
p120
sg16
S' thats the best i can do'
p121
sg18
Vpawn-star
p122
sg20
(lp123
g118
ag119
aS'thats'
p124
aS'the'
p125
aS'best'
p126
ag5
aS'can'
p127
aS'do'
p128
asg27
(lp129
g124
ag125
ag126
ag5
ag127
ag128
asba(iMeme
Meme
p130
(dp131
g3
(lp132
S'ive'
p133
aS'got'
p134
aS'a'
p135
aS'buddy'
p136
asg14
S'ive got a buddy'
p137
sg16
S' hes an expert in 15th century dildos'
p138
sg18
Vpawn-star
p139
sg20
(lp140
g133
ag134
ag135
ag136
aS'hes'
p141
aS'an'
p142
aS'expert'
p143
aS'in'
p144
aS'15th'
p145
aS'century'
p146
aS'dildos'
p147
asg27
(lp148
g141
ag142
ag143
ag144
ag145
ag146
ag147
asba(iMeme
Meme
p149
(dp150
g3
(lp151
S'albert'
p152
aS'einsteins'
p153
aS'brain'
p154
ag51
asg14
S'albert einsteins brain?'
p155
sg16
S' 5 bucks'
p156
sg18
Vpawn-star
p157
sg20
(lp158
g152
ag153
ag154
ag51
ag26
aS'bucks'
p159
asg27
(lp160
g26
ag159
asba(iMeme
Meme
p161
(dp162
g3
(lp163
S'ancient'
p164
aS'vagina'
p165
ag51
asg14
S'ancient vagina?'
p166
sg16
S' let me call my friend hes a expert in vaginas'
p167
sg18
Vpawn-star
p168
sg20
(lp169
g164
ag165
ag51
aS'let'
p170
aS'me'
p171
aS'call'
p172
aS'my'
p173
aS'friend'
p174
aS'hes'
p175
ag135
aS'expert'
p176
aS'in'
p177
aS'vaginas'
p178
asg27
(lp179
g170
ag171
ag172
ag173
ag174
ag175
ag135
ag176
ag177
ag178
asba(iMeme
Meme
p180
(dp181
g3
(lp182
S'yo'
p183
aS'mama'
p184
aS'so'
p185
aS'old'
p186
aS'&'
p187
aS'broke'
p188
asg14
S'yo mama so old & broke'
p189
sg16
S''
p190
sg18
Vpawn-star
p191
sg20
(lp192
g183
ag184
ag185
ag186
ag187
ag188
asg27
(lp193
sba(iMeme
Meme
p194
(dp195
g3
(lp196
g5
aS'know'
p197
aS'its'
p198
aS'the'
p199
aS'holy'
p200
aS'grail'
p201
asg14
S'i know its the holy grail'
p202
sg16
S' but one of a kind items are hard to price'
p203
sg18
Vpawn-star
p204
sg20
(lp205
g5
ag197
ag198
ag199
ag200
ag201
aS'but'
p206
aS'one'
p207
aS'of'
p208
ag135
aS'kind'
p209
aS'items'
p210
aS'are'
p211
aS'hard'
p212
aS'to'
p213
aS'price'
p214
asg27
(lp215
g206
ag207
ag208
ag135
ag209
ag210
ag211
ag212
ag213
ag214
asba(iMeme
Meme
p216
(dp217
g3
(lp218
S'me'
p219
aS'own'
p220
aS'pawn'
p221
aS'shop'
p222
asg14
S'me own pawn shop'
p223
sg16
S' meh dad fat bastard'
p224
sg18
Vpawn-star
p225
sg20
(lp226
g219
ag220
ag221
ag222
aS'meh'
p227
aS'dad'
p228
aS'fat'
p229
aS'bastard'
p230
asg27
(lp231
g227
ag228
ag229
ag230
asba(iMeme
Meme
p232
(dp233
g3
(lp234
S'michael'
p235
aS'jacksons'
p236
aS'life'
p237
aS'sized'
p238
aS'boy'
p239
aS'scout'
p240
aS'dolls'
p241
ag51
asg14
S'michael jacksons life sized boy scout dolls?'
p242
sg16
S' best i can do is $10'
p243
sg18
Vpawn-star
p244
sg20
(lp245
g235
ag236
ag237
ag238
ag239
ag240
ag241
ag51
aS'best'
p246
ag5
aS'can'
p247
aS'do'
p248
aS'is'
p249
ag9
aS'10'
p250
asg27
(lp251
g246
ag5
ag247
ag248
ag249
ag9
ag250
asba(iMeme
Meme
p252
(dp253
g3
(lp254
S'noahs'
p255
aS'ark'
p256
ag51
asg14
S'noahs ark?'
p257
sg16
S' best i can do is $10'
p258
sg18
Vpawn-star
p259
sg20
(lp260
g255
ag256
ag51
aS'best'
p261
ag5
aS'can'
p262
aS'do'
p263
aS'is'
p264
ag9
aS'10'
p265
asg27
(lp266
g261
ag5
ag262
ag263
ag264
ag9
ag265
asba(iMeme
Meme
p267
(dp268
g3
(lp269
S'steve'
p270
aS'jobs'
p271
aS'old'
p272
aS'tennis'
p273
aS'shoes'
p274
ag51
asg14
S'steve jobs old tennis shoes?'
p275
sg16
S' hold on'
p276
sg18
Vpawn-star
p277
sg20
(lp278
g270
ag271
ag272
ag273
ag274
ag51
aS'hold'
p279
aS'on'
p280
asg27
(lp281
g279
ag280
asba(iMeme
Meme
p282
(dp283
g3
(lp284
S'suck'
p285
aS'my'
p286
aS'dick'
p287
asg14
S'suck my dick'
p288
sg16
S' best i can do is 5$'
p289
sg18
Vpawn-star
p290
sg20
(lp291
g285
ag286
ag287
aS'best'
p292
ag5
aS'can'
p293
aS'do'
p294
aS'is'
p295
ag26
ag9
asg27
(lp296
g292
ag5
ag293
ag294
ag295
ag26
ag9
asba(iMeme
Meme
p297
(dp298
g3
(lp299
S'im'
p300
aS'sure'
p301
aS'if'
p302
aS'those'
p303
aS'boobs'
p304
aS'are'
p305
aS'real'
p306
asg14
S'im sure if those boobs are real'
p307
sg16
S' i need to know if those boobs are real before i make an offer'
p308
sg18
Vpawn-star
p309
sg20
(lp310
g300
ag301
ag302
ag303
ag304
ag305
ag306
ag5
aS'need'
p311
aS'to'
p312
aS'know'
p313
aS'if'
p314
aS'those'
p315
aS'boobs'
p316
aS'are'
p317
aS'real'
p318
aS'before'
p319
ag5
aS'make'
p320
aS'an'
p321
aS'offer'
p322
asg27
(lp323
g5
ag311
ag312
ag313
ag314
ag315
ag316
ag317
ag318
ag319
ag5
ag320
ag321
ag322
asba(iMeme
Meme
p324
(dp325
g3
(lp326
S'que'
p327
aS'putas'
p328
aS'pasa'
p329
aS'en'
p330
aS'guatemala'
p331
asg14
S'que putas pasa en guatemala'
p332
sg16
S' que mierda el genera!!!!'
p333
sg18
Vpawn-star
p334
sg20
(lp335
g327
ag328
ag329
ag330
ag331
aS'que'
p336
aS'mierda'
p337
aS'el'
p338
aS'genera'
p339
aS'!'
p340
ag340
ag340
ag340
asg27
(lp341
g336
ag337
ag338
ag339
ag340
ag340
ag340
ag340
asba(iMeme
Meme
p342
(dp343
g3
(lp344
S'the'
p345
aS'lord'
p346
aS'of'
p347
aS'the'
p348
aS'rings'
p349
aS'first'
p350
aS'edition'
p351
aS'illustrated'
p352
aS'by'
p353
aS'picaso'
p354
aS'and'
p355
aS'signed'
p356
aS'bye'
p357
aS'the'
p358
aS'whos'
p359
ag51
asg14
S'the lord of the rings first edition illustrated by picaso and signed bye the whos?'
p360
sg16
S' i can give you 100$ dollars it will take some time to sell'
p361
sg18
Vpawn-star
p362
sg20
(lp363
g345
ag346
ag347
ag348
ag349
ag350
ag351
ag352
ag353
ag354
ag355
ag356
ag357
ag358
ag359
ag51
ag5
aS'can'
p364
aS'give'
p365
aS'you'
p366
aS'100'
p367
ag9
aS'dollars'
p368
aS'it'
p369
aS'will'
p370
aS'take'
p371
aS'some'
p372
aS'time'
p373
aS'to'
p374
aS'sell'
p375
asg27
(lp376
g5
ag364
ag365
ag366
ag367
ag9
ag368
ag369
ag370
ag371
ag372
ag373
ag374
ag375
asba(iMeme
Meme
p377
(dp378
g3
(lp379
S'iphone'
p380
aS'4s'
p381
aS'brand'
p382
aS'new'
p383
ag51
asg14
S'iphone 4s brand new?'
p384
sg16
S' ill give you $4o'
p385
sg18
Vpawn-star
p386
sg20
(lp387
g380
ag381
ag382
ag383
ag51
aS'ill'
p388
aS'give'
p389
aS'you'
p390
ag9
aS'4o'
p391
asg27
(lp392
g388
ag389
ag390
ag9
ag391
asba(iMeme
Meme
p393
(dp394
g3
(lp395
g135
aS'picture'
p396
ag51
asg14
S'a picture?'
p397
sg16
S' ill give you like 200 words for it'
p398
sg18
Vpawn-star
p399
sg20
(lp400
g135
ag396
ag51
aS'ill'
p401
aS'give'
p402
aS'you'
p403
aS'like'
p404
aS'200'
p405
aS'words'
p406
aS'for'
p407
aS'it'
p408
asg27
(lp409
g401
ag402
ag403
ag404
ag405
ag406
ag407
ag408
asba(iMeme
Meme
p410
(dp411
g3
(lp412
S'receipt'
p413
aS'from'
p414
aS'the'
p415
aS'last'
p416
aS'supper'
p417
ag51
asg14
S'receipt from the last supper?'
p418
sg16
S' let me call my buddy whos an expert on receipts from the last supper.'
p419
sg18
Vpawn-star
p420
sg20
(lp421
g413
ag414
ag415
ag416
ag417
ag51
aS'let'
p422
aS'me'
p423
aS'call'
p424
aS'my'
p425
aS'buddy'
p426
aS'whos'
p427
aS'an'
p428
aS'expert'
p429
aS'on'
p430
aS'receipts'
p431
aS'from'
p432
aS'the'
p433
aS'last'
p434
aS'supper'
p435
aS'.'
p436
asg27
(lp437
g422
ag423
ag424
ag425
ag426
ag427
ag428
ag429
ag430
ag431
ag432
ag433
ag434
ag435
ag436
asba(iMeme
Meme
p438
(dp439
g3
(lp440
S'hey'
p441
aS'everyone..'
p442
asg14
S'hey everyone..'
p443
sg16
S' i have a boner ;3'
p444
sg18
Vpawn-star
p445
sg20
(lp446
g441
ag442
ag5
aS'have'
p447
ag135
aS'boner'
p448
aS';'
p449
aS'3'
p450
asg27
(lp451
g5
ag447
ag135
ag448
ag449
ag450
asba(iMeme
Meme
p452
(dp453
g3
(lp454
S'grandfathers'
p455
aS'war'
p456
aS'medals'
p457
ag51
asg14
S'grandfathers war medals?'
p458
sg16
S' best i can do is $6'
p459
sg18
Vpawn-star
p460
sg20
(lp461
g455
ag456
ag457
ag51
aS'best'
p462
ag5
aS'can'
p463
aS'do'
p464
aS'is'
p465
ag9
aS'6'
p466
asg27
(lp467
g462
ag5
ag463
ag464
ag465
ag9
ag466
asba(iMeme
Meme
p468
(dp469
g3
(lp470
S'let'
p471
aS'me'
p472
aS'call'
p473
aS'my'
p474
aS'buddy'
p475
aS'bob'
p476
asg14
S'let me call my buddy bob'
p477
sg16
S' he knows everything there is to know about oil'
p478
sg18
Vpawn-star
p479
sg20
(lp480
g471
ag472
ag473
ag474
ag475
ag476
aS'he'
p481
aS'knows'
p482
aS'everything'
p483
aS'there'
p484
aS'is'
p485
aS'to'
p486
aS'know'
p487
aS'about'
p488
aS'oil'
p489
asg27
(lp490
g481
ag482
ag483
ag484
ag485
ag486
ag487
ag488
ag489
asba(iMeme
Meme
p491
(dp492
g3
(lp493
S'colts'
p494
aS'super'
p495
aS'bowl'
p496
aS'trophy'
p497
ag51
asg14
S'colts super bowl trophy?'
p498
sg16
S' 5 bucks'
p499
sg18
Vpawn-star
p500
sg20
(lp501
g494
ag495
ag496
ag497
ag51
ag26
aS'bucks'
p502
asg27
(lp503
g26
ag502
asba(iMeme
Meme
p504
(dp505
g3
(lp506
S'before'
p507
ag5
aS'can'
p508
aS'make'
p509
aS'an'
p510
aS'offeri'
p511
aS'need'
p512
aS'to'
p513
aS'know'
p514
aS'if'
p515
aS'jen'
p516
aS'bonnart'
p517
aS'is'
p518
aS'real'
p519
asg14
S'before i can make an offeri need to know if jen bonnart is real'
p520
sg16
S' let me call an expert because ive been tricked before by trolls'
p521
sg18
Vpawn-star
p522
sg20
(lp523
g507
ag5
ag508
ag509
ag510
ag511
ag512
ag513
ag514
ag515
ag516
ag517
ag518
ag519
aS'let'
p524
aS'me'
p525
aS'call'
p526
aS'an'
p527
aS'expert'
p528
aS'because'
p529
aS'ive'
p530
aS'been'
p531
aS'tricked'
p532
aS'before'
p533
aS'by'
p534
aS'trolls'
p535
asg27
(lp536
g524
ag525
ag526
ag527
ag528
ag529
ag530
ag531
ag532
ag533
ag534
ag535
asba(iMeme
Meme
p537
(dp538
g3
(lp539
S'has'
p540
ag135
aS'successful'
p541
aS'tv'
p542
aS'show'
p543
asg14
S'has a successful tv show'
p544
sg16
S' still rips off customers'
p545
sg18
Vpawn-star
p546
sg20
(lp547
g540
ag135
ag541
ag542
ag543
aS'still'
p548
aS'rips'
p549
aS'off'
p550
aS'customers'
p551
asg27
(lp552
g548
ag549
ag550
ag551
asba(iMeme
Meme
p553
(dp554
g3
(lp555
S'3/10'
p556
asg14
S'3/10'
p557
sg16
S' that is the best i can do'
p558
sg18
Vpawn-star
p559
sg20
(lp560
g556
aS'that'
p561
aS'is'
p562
aS'the'
p563
aS'best'
p564
ag5
aS'can'
p565
aS'do'
p566
asg27
(lp567
g561
ag562
ag563
ag564
ag5
ag565
ag566
asba(iMeme
Meme
p568
(dp569
g3
(lp570
S'steve'
p571
aS'jobs'
p572
aS'brains'
p573
ag51
asg14
S'steve jobs brains?'
p574
sg16
S' $5. but first'
p575
sg18
Vpawn-star
p576
sg20
(lp577
g571
ag572
ag573
ag51
ag9
ag26
ag436
aS'but'
p578
aS'first'
p579
asg27
(lp580
g9
ag26
ag436
ag578
ag579
asba(iMeme
Meme
p581
(dp582
g3
(lp583
S'want'
p584
aS'to'
p585
aS'sell'
p586
aS'your'
p587
aS'soul'
p588
ag51
asg14
S'want to sell your soul?'
p589
sg16
S' let me call my buddy that is an expert on souls'
p590
sg18
Vpawn-star
p591
sg20
(lp592
g584
ag585
ag586
ag587
ag588
ag51
aS'let'
p593
aS'me'
p594
aS'call'
p595
aS'my'
p596
aS'buddy'
p597
aS'that'
p598
aS'is'
p599
aS'an'
p600
aS'expert'
p601
aS'on'
p602
aS'souls'
p603
asg27
(lp604
g593
ag594
ag595
ag596
ag597
ag598
ag599
ag600
ag601
ag602
ag603
asba(iMeme
Meme
p605
(dp606
g3
(lp607
S'you'
p608
aS'thought'
p609
aS'this'
p610
aS'was'
p611
aS'smith'
p612
aS'and'
p613
aS'wesson'
p614
ag51
asg14
S'you thought this was smith and wesson?'
p615
sg16
S' bum ass nigga!'
p616
sg18
Vpawn-star
p617
sg20
(lp618
g608
ag609
ag610
ag611
ag612
ag613
ag614
ag51
aS'bum'
p619
aS'ass'
p620
aS'nigga'
p621
ag340
asg27
(lp622
g619
ag620
ag621
ag340
asba(iMeme
Meme
p623
(dp624
g3
(lp625
S'yo'
p626
aS'paid'
p627
aS'500'
p628
ag9
aS'for'
p629
aS'that'
p630
aS'rare'
p631
aS'penis'
p632
asg14
S'yo paid 500$ for that rare penis'
p633
sg16
S' ill give u 5$'
p634
sg18
Vpawn-star
p635
sg20
(lp636
g626
ag627
ag628
ag9
ag629
ag630
ag631
ag632
aS'ill'
p637
aS'give'
p638
aS'u'
p639
ag26
ag9
asg27
(lp640
g637
ag638
ag639
ag26
ag9
asba(iMeme
Meme
p641
(dp642
g3
(lp643
S'3/10'
p644
asg14
S'3/10'
p645
sg16
S' best i can do'
p646
sg18
Vpawn-star
p647
sg20
(lp648
g644
aS'best'
p649
ag5
aS'can'
p650
aS'do'
p651
asg27
(lp652
g649
ag5
ag650
ag651
asba(iMeme
Meme
p653
(dp654
g3
(lp655
S'you'
p656
aS'has'
p657
aS'buddy'
p658
ag51
asg14
S'you has buddy?'
p659
sg16
S' let me call in my buddy whos an expert on buddies'
p660
sg18
Vpawn-star
p661
sg20
(lp662
g656
ag657
ag658
ag51
aS'let'
p663
aS'me'
p664
aS'call'
p665
aS'in'
p666
aS'my'
p667
aS'buddy'
p668
aS'whos'
p669
aS'an'
p670
aS'expert'
p671
aS'on'
p672
aS'buddies'
p673
asg27
(lp674
g663
ag664
ag665
ag666
ag667
ag668
ag669
ag670
ag671
ag672
ag673
asba(iMeme
Meme
p675
(dp676
g3
(lp677
g135
aS'flamberge'
p678
ag51
asg14
S'a flamberge?'
p679
sg16
S' you got any documentation to prove that?'
p680
sg18
Vpawn-star
p681
sg20
(lp682
g135
ag678
ag51
aS'you'
p683
aS'got'
p684
aS'any'
p685
aS'documentation'
p686
aS'to'
p687
aS'prove'
p688
aS'that'
p689
ag51
asg27
(lp690
g683
ag684
ag685
ag686
ag687
ag688
ag689
ag51
asba(iMeme
Meme
p691
(dp692
g3
(lp693
g135
aS'degree'
p694
aS'from'
p695
aS'devry'
p696
aS'university'
p697
ag51
asg14
S'a degree from devry university?'
p698
sg16
S' im sorry but thats worthless'
p699
sg18
Vpawn-star
p700
sg20
(lp701
g135
ag694
ag695
ag696
ag697
ag51
aS'im'
p702
aS'sorry'
p703
aS'but'
p704
aS'thats'
p705
aS'worthless'
p706
asg27
(lp707
g702
ag703
ag704
ag705
ag706
asba(iMeme
Meme
p708
(dp709
g3
(lp710
S'so'
p711
aS'you'
p712
aS'have'
p713
ag135
aS'few'
p714
aS'hundred'
p715
aS'grand'
p716
aS'in'
p717
aS'college'
p718
aS'loans'
p719
asg14
S'so you have a few hundred grand in college loans'
p720
sg16
S' best i can do is unpaid internship.'
p721
sg18
Vpawn-star
p722
sg20
(lp723
g711
ag712
ag713
ag135
ag714
ag715
ag716
ag717
ag718
ag719
aS'best'
p724
ag5
aS'can'
p725
aS'do'
p726
aS'is'
p727
aS'unpaid'
p728
aS'internship'
p729
ag436
asg27
(lp730
g724
ag5
ag725
ag726
ag727
ag728
ag729
ag436
asba(iMeme
Meme
p731
(dp732
g3
(lp733
S'im'
p734
aS'not'
p735
aS'sure'
p736
aS'if'
p737
aS'those'
p738
aS'boobs'
p739
aS'are'
p740
aS'real'
p741
asg14
S'im not sure if those boobs are real'
p742
sg16
S' let me call a buddy of mine whos an expert in sort of thing'
p743
sg18
Vpawn-star
p744
sg20
(lp745
g734
ag735
ag736
ag737
ag738
ag739
ag740
ag741
aS'let'
p746
aS'me'
p747
aS'call'
p748
ag135
aS'buddy'
p749
aS'of'
p750
aS'mine'
p751
aS'whos'
p752
aS'an'
p753
aS'expert'
p754
aS'in'
p755
aS'sort'
p756
aS'of'
p757
aS'thing'
p758
asg27
(lp759
g746
ag747
ag748
ag135
ag749
ag750
ag751
ag752
ag753
ag754
ag755
ag756
ag757
ag758
asba(iMeme
Meme
p760
(dp761
g3
(lp762
S'3/10'
p763
asg14
S'3/10'
p764
sg16
S' thats the best i can do'
p765
sg18
Vpawn-star
p766
sg20
(lp767
g763
aS'thats'
p768
aS'the'
p769
aS'best'
p770
ag5
aS'can'
p771
aS'do'
p772
asg27
(lp773
g768
ag769
ag770
ag5
ag771
ag772
asba(iMeme
Meme
p774
(dp775
g3
(lp776
S'where'
p777
aS'the'
p778
aS'fuck'
p779
aS'is'
p780
aS'chumlee'
p781
asg14
S'where the fuck is chumlee'
p782
sg16
S' 100000000 reward!!!'
p783
sg18
Vpawn-star
p784
sg20
(lp785
g777
ag778
ag779
ag780
ag781
aS'100000000'
p786
aS'reward'
p787
ag340
ag340
ag340
asg27
(lp788
g786
ag787
ag340
ag340
ag340
asba(iMeme
Meme
p789
(dp790
g3
(lp791
S'im'
p792
aS'not'
p793
aS'sure'
p794
aS'if'
p795
aS'youre'
p796
aS'calling'
p797
aS'me'
p798
aS'fat'
p799
aS'or'
p800
aS'saying'
p801
aS'im'
p802
aS'an'
p803
aS'ass'
p804
asg14
S'im not sure if youre calling me fat or saying im an ass'
p805
sg16
S' either way'
p806
sg18
Vpawn-star
p807
sg20
(lp808
g792
ag793
ag794
ag795
ag796
ag797
ag798
ag799
ag800
ag801
ag802
ag803
ag804
aS'either'
p809
aS'way'
p810
asg27
(lp811
g809
ag810
asba(iMeme
Meme
p812
(dp813
g3
(lp814
S'two'
p815
aS'first'
p816
aS'round'
p817
aS'picks'
p818
ag51
asg14
S'two first round picks?'
p819
sg16
S' sorry'
p820
sg18
Vpawn-star
p821
sg20
(lp822
g815
ag816
ag817
ag818
ag51
aS'sorry'
p823
asg27
(lp824
g823
asba(iMeme
Meme
p825
(dp826
g3
(lp827
S's'
p828
ag187
aS'w'
p829
aS'642'
p830
aS'airweight'
p831
asg14
S's & w 642 airweight'
p832
sg16
S' ill give you like $100 for it'
p833
sg18
Vpawn-star
p834
sg20
(lp835
g828
ag187
ag829
ag830
ag831
aS'ill'
p836
aS'give'
p837
aS'you'
p838
aS'like'
p839
ag9
aS'100'
p840
aS'for'
p841
aS'it'
p842
asg27
(lp843
g836
ag837
ag838
ag839
ag9
ag840
ag841
ag842
asba(iMeme
Meme
p844
(dp845
g3
(lp846
S'hi'
p847
asg14
S'hi'
p848
sg16
S' my name is notch'
p849
sg18
Vpawn-star
p850
sg20
(lp851
g847
aS'my'
p852
aS'name'
p853
aS'is'
p854
aS'notch'
p855
asg27
(lp856
g852
ag853
ag854
ag855
asba(iMeme
Meme
p857
(dp858
g3
(lp859
S'colts'
p860
aS'super'
p861
aS'bowl'
p862
aS'trophy'
p863
ag51
asg14
S'colts super bowl trophy?'
p864
sg16
S' 5 bucks'
p865
sg18
Vpawn-star
p866
sg20
(lp867
g860
ag861
ag862
ag863
ag51
ag26
aS'bucks'
p868
asg27
(lp869
g26
ag868
asba(iMeme
Meme
p870
(dp871
g3
(lp872
S'20'
p873
ag9
aS'bill'
p874
aS'from'
p875
aS'1901'
p876
asg14
S'20$ bill from 1901'
p877
sg16
S' best i can do is $10.'
p878
sg18
Vpawn-star
p879
sg20
(lp880
g873
ag9
ag874
ag875
ag876
aS'best'
p881
ag5
aS'can'
p882
aS'do'
p883
aS'is'
p884
ag9
aS'10'
p885
ag436
asg27
(lp886
g881
ag5
ag882
ag883
ag884
ag9
ag885
ag436
asba(iMeme
Meme
p887
(dp888
g3
(lp889
S'15th'
p890
aS'century'
p891
aS'bejeweled'
p892
aS'indian'
p893
aS'dildo'
p894
ag51
asg14
S'15th century bejeweled indian dildo?'
p895
sg16
S' if this is a real bejeweled indian dildo that could mean big dollars'
p896
sg18
Vpawn-star
p897
sg20
(lp898
g890
ag891
ag892
ag893
ag894
ag51
aS'if'
p899
aS'this'
p900
aS'is'
p901
ag135
aS'real'
p902
aS'bejeweled'
p903
aS'indian'
p904
aS'dildo'
p905
aS'that'
p906
aS'could'
p907
aS'mean'
p908
aS'big'
p909
aS'dollars'
p910
asg27
(lp911
g899
ag900
ag901
ag135
ag902
ag903
ag904
ag905
ag906
ag907
ag908
ag909
ag910
asba(iMeme
Meme
p912
(dp913
g3
(lp914
S'your'
p915
aS'kingdom'
p916
aS'for'
p917
ag135
aS'horse'
p918
ag51
asg14
S'your kingdom for a horse?'
p919
sg16
S' five bucks'
p920
sg18
Vpawn-star
p921
sg20
(lp922
g915
ag916
ag917
ag135
ag918
ag51
aS'five'
p923
aS'bucks'
p924
asg27
(lp925
g923
ag924
asba(iMeme
Meme
p926
(dp927
g3
(lp928
S'por'
p929
aS'el'
p930
aS'chocho'
p931
aS'de'
p932
aS'jess'
p933
aS'cuanto'
p934
aS'me'
p935
aS'das'
p936
ag51
asg14
S'por el chocho  de jess cuanto me das?'
p937
sg16
S' the best i can do is 5 bucks'
p938
sg18
Vpawn-star
p939
sg20
(lp940
g929
ag930
ag931
ag932
ag933
ag934
ag935
ag936
ag51
aS'the'
p941
aS'best'
p942
ag5
aS'can'
p943
aS'do'
p944
aS'is'
p945
ag26
aS'bucks'
p946
asg27
(lp947
g941
ag942
ag5
ag943
ag944
ag945
ag26
ag946
asba(iMeme
Meme
p948
(dp949
g3
(lp950
g135
aS'collection'
p951
aS'of'
p952
aS'golden'
p953
aS'bouddahs'
p954
ag51
asg14
S'a collection of golden bouddahs?'
p955
sg16
S' let me ask my friend whos an expert in golden bouddahs'
p956
sg18
Vpawn-star
p957
sg20
(lp958
g135
ag951
ag952
ag953
ag954
ag51
aS'let'
p959
aS'me'
p960
aS'ask'
p961
aS'my'
p962
aS'friend'
p963
aS'whos'
p964
aS'an'
p965
aS'expert'
p966
aS'in'
p967
aS'golden'
p968
aS'bouddahs'
p969
asg27
(lp970
g959
ag960
ag961
ag962
ag963
ag964
ag965
ag966
ag967
ag968
ag969
asba(iMeme
Meme
p971
(dp972
g3
(lp973
g5
aS'see'
p974
aS'you'
p975
aS'paid'
p976
ag135
aS'few'
p977
aS'hundred'
p978
aS'grand'
p979
aS'for'
p980
aS'your'
p981
aS'college'
p982
aS'degree'
p983
asg14
S'i see you paid a few hundred grand for your college degree'
p984
sg16
S' best i can do is unpaid internship.'
p985
sg18
Vpawn-star
p986
sg20
(lp987
g5
ag974
ag975
ag976
ag135
ag977
ag978
ag979
ag980
ag981
ag982
ag983
aS'best'
p988
ag5
aS'can'
p989
aS'do'
p990
aS'is'
p991
aS'unpaid'
p992
aS'internship'
p993
ag436
asg27
(lp994
g988
ag5
ag989
ag990
ag991
ag992
ag993
ag436
asba(iMeme
Meme
p995
(dp996
g3
(lp997
S'lets'
p998
aS'see'
p999
aS'you'
p1000
aS'have'
p1001
aS'steven'
p1002
aS'hawkins'
p1003
aS'wheelchair'
p1004
asg14
S'lets see you have steven hawkins wheelchair'
p1005
sg16
S' ill give you $100'
p1006
sg18
Vpawn-star
p1007
sg20
(lp1008
g998
ag999
ag1000
ag1001
ag1002
ag1003
ag1004
aS'ill'
p1009
aS'give'
p1010
aS'you'
p1011
ag9
aS'100'
p1012
asg27
(lp1013
g1009
ag1010
ag1011
ag9
ag1012
asba(iMeme
Meme
p1014
(dp1015
g3
(lp1016
S'almost'
p1017
aS'perfect'
p1018
aS'condition'
p1019
ag51
asg14
S'almost perfect condition?'
p1020
sg16
S' ill give you 1/10th of the price for it'
p1021
sg18
Vpawn-star
p1022
sg20
(lp1023
g1017
ag1018
ag1019
ag51
aS'ill'
p1024
aS'give'
p1025
aS'you'
p1026
aS'1/10th'
p1027
aS'of'
p1028
aS'the'
p1029
aS'price'
p1030
aS'for'
p1031
aS'it'
p1032
asg27
(lp1033
g1024
ag1025
ag1026
ag1027
ag1028
ag1029
ag1030
ag1031
ag1032
asba(iMeme
Meme
p1034
(dp1035
g3
(lp1036
S'want'
p1037
ag135
aS'rt'
p1038
ag51
asg14
S'want a rt?'
p1039
sg16
S' if youre lucky'
p1040
sg18
Vpawn-star
p1041
sg20
(lp1042
g1037
ag135
ag1038
ag51
aS'if'
p1043
aS'youre'
p1044
aS'lucky'
p1045
asg27
(lp1046
g1043
ag1044
ag1045
asba(iMeme
Meme
p1047
(dp1048
g3
(lp1049
S'you'
p1050
aS'want'
p1051
aS'1'
p1052
aS'million'
p1053
aS'bucks'
p1054
aS'for'
p1055
aS'that'
p1056
aS'ferari'
p1057
ag51
asg14
S'you want 1 million bucks for that ferari?'
p1058
sg16
S' ill trade you a 2007 swedish dollar'
p1059
sg18
Vpawn-star
p1060
sg20
(lp1061
g1050
ag1051
ag1052
ag1053
ag1054
ag1055
ag1056
ag1057
ag51
aS'ill'
p1062
aS'trade'
p1063
aS'you'
p1064
ag135
aS'2007'
p1065
aS'swedish'
p1066
aS'dollar'
p1067
asg27
(lp1068
g1062
ag1063
ag1064
ag135
ag1065
ag1066
ag1067
asba(iMeme
Meme
p1069
(dp1070
g3
(lp1071
S'para'
p1072
aS'eeuu'
p1073
aS'no'
p1074
aS'hemos'
p1075
aS'sido'
p1076
aS'comprensivos'
p1077
aS'con'
p1078
aS'lori'
p1079
aS'berenson'
p1080
asg14
S'para eeuu no hemos sido comprensivos con lori berenson'
p1081
sg16
S' esperame un momento'
p1082
sg18
Vpawn-star
p1083
sg20
(lp1084
g1072
ag1073
ag1074
ag1075
ag1076
ag1077
ag1078
ag1079
ag1080
aS'esperame'
p1085
aS'un'
p1086
aS'momento'
p1087
asg27
(lp1088
g1085
ag1086
ag1087
asba(iMeme
Meme
p1089
(dp1090
g3
(lp1091
S'before'
p1092
ag5
aS'pay'
p1093
aS'jen'
p1094
aS'bonnart'
p1095
aS'for'
p1096
aS'sexi'
p1097
aS'need'
p1098
aS'to'
p1099
aS'know'
p1100
aS'if'
p1101
aS'shes'
p1102
aS'real'
p1103
asg14
S'before i pay jen bonnart for sexi need to know if shes real'
p1104
sg16
S' let me call an expert because ive been tricked before by trolls'
p1105
sg18
Vpawn-star
p1106
sg20
(lp1107
g1092
ag5
ag1093
ag1094
ag1095
ag1096
ag1097
ag1098
ag1099
ag1100
ag1101
ag1102
ag1103
aS'let'
p1108
aS'me'
p1109
aS'call'
p1110
aS'an'
p1111
aS'expert'
p1112
aS'because'
p1113
aS'ive'
p1114
aS'been'
p1115
aS'tricked'
p1116
aS'before'
p1117
aS'by'
p1118
aS'trolls'
p1119
asg27
(lp1120
g1108
ag1109
ag1110
ag1111
ag1112
ag1113
ag1114
ag1115
ag1116
ag1117
ag1118
ag1119
asba(iMeme
Meme
p1121
(dp1122
g3
(lp1123
g135
aS'sword'
p1124
aS'autographed'
p1125
aS'by'
p1126
aS'randy'
p1127
aS'jackson'
p1128
ag51
asg14
S'a sword autographed by randy jackson?'
p1129
sg16
S' let me call my step'
p1130
sg18
Vpawn-star
p1131
sg20
(lp1132
g135
ag1124
ag1125
ag1126
ag1127
ag1128
ag51
aS'let'
p1133
aS'me'
p1134
aS'call'
p1135
aS'my'
p1136
aS'step'
p1137
asg27
(lp1138
g1133
ag1134
ag1135
ag1136
ag1137
asba(iMeme
Meme
p1139
(dp1140
g3
(lp1141
S'the'
p1142
aS'holy'
p1143
aS'grail'
p1144
ag51
asg14
S'the holy grail?'
p1145
sg16
S' i can only do $20'
p1146
sg18
Vpawn-star
p1147
sg20
(lp1148
g1142
ag1143
ag1144
ag51
ag5
aS'can'
p1149
aS'only'
p1150
aS'do'
p1151
ag9
aS'20'
p1152
asg27
(lp1153
g5
ag1149
ag1150
ag1151
ag9
ag1152
asba(iMeme
Meme
p1154
(dp1155
g3
(lp1156
S'hehhehheh'
p1157
asg14
S'hehhehheh'
p1158
sg16
S' why wont car start!?!'
p1159
sg18
Vpawn-star
p1160
sg20
(lp1161
g1157
aS'why'
p1162
aS'wont'
p1163
aS'car'
p1164
aS'start'
p1165
ag340
ag51
ag340
asg27
(lp1166
g1162
ag1163
ag1164
ag1165
ag340
ag51
ag340
asba(iMeme
Meme
p1167
(dp1168
g3
(lp1169
S'para'
p1170
aS'eeuu'
p1171
aS'no'
p1172
aS'hemos'
p1173
aS'sido'
p1174
aS'comprensivos'
p1175
aS'con'
p1176
aS'lori'
p1177
aS'berenson'
p1178
asg14
S'para eeuu no hemos sido comprensivos con lori berenson'
p1179
sg16
S' esperame un momento'
p1180
sg18
Vpawn-star
p1181
sg20
(lp1182
g1170
ag1171
ag1172
ag1173
ag1174
ag1175
ag1176
ag1177
ag1178
aS'esperame'
p1183
aS'un'
p1184
aS'momento'
p1185
asg27
(lp1186
g1183
ag1184
ag1185
asba(iMeme
Meme
p1187
(dp1188
g3
(lp1189
S'loading'
p1190
aS'rape'
p1191
asg14
S'loading rape'
p1192
sg16
S' please wait'
p1193
sg18
Vpawn-star
p1194
sg20
(lp1195
g1190
ag1191
aS'please'
p1196
aS'wait'
p1197
asg27
(lp1198
g1196
ag1197
asba(iMeme
Meme
p1199
(dp1200
g3
(lp1201
S'when'
p1202
ag5
aS'saw'
p1203
aS'that'
p1204
aS'strarf'
p1205
aS'mkii'
p1206
asg14
S'when i saw that strarf mkii'
p1207
sg16
S' i knew i had to have it'
p1208
sg18
Vpawn-star
p1209
sg20
(lp1210
g1202
ag5
ag1203
ag1204
ag1205
ag1206
ag5
aS'knew'
p1211
ag5
aS'had'
p1212
aS'to'
p1213
aS'have'
p1214
aS'it'
p1215
asg27
(lp1216
g5
ag1211
ag5
ag1212
ag1213
ag1214
ag1215
asba(iMeme
Meme
p1217
(dp1218
g3
(lp1219
S'so'
p1220
aS'your'
p1221
aS'god'
p1222
ag51
asg14
S'so your god?'
p1223
sg16
S' best i can do as $17'
p1224
sg18
Vpawn-star
p1225
sg20
(lp1226
g1220
ag1221
ag1222
ag51
aS'best'
p1227
ag5
aS'can'
p1228
aS'do'
p1229
aS'as'
p1230
ag9
aS'17'
p1231
asg27
(lp1232
g1227
ag5
ag1228
ag1229
ag1230
ag9
ag1231
asba(iMeme
Meme
p1233
(dp1234
g3
(lp1235
S'the'
p1236
aS'bones'
p1237
aS'of'
p1238
aS'jesus'
p1239
ag51
asg14
S'the bones of jesus?'
p1240
sg16
S' ill give you like 50 bucks'
p1241
sg18
Vpawn-star
p1242
sg20
(lp1243
g1236
ag1237
ag1238
ag1239
ag51
aS'ill'
p1244
aS'give'
p1245
aS'you'
p1246
aS'like'
p1247
aS'50'
p1248
aS'bucks'
p1249
asg27
(lp1250
g1244
ag1245
ag1246
ag1247
ag1248
ag1249
asba(iMeme
Meme
p1251
(dp1252
g3
(lp1253
S'let'
p1254
aS'me'
p1255
aS'call'
p1256
aS'my'
p1257
aS'buddy'
p1258
aS'bitog'
p1259
asg14
S'let me call my buddy bitog'
p1260
sg16
S' he knows everything there is to know about oil'
p1261
sg18
Vpawn-star
p1262
sg20
(lp1263
g1254
ag1255
ag1256
ag1257
ag1258
ag1259
aS'he'
p1264
aS'knows'
p1265
aS'everything'
p1266
aS'there'
p1267
aS'is'
p1268
aS'to'
p1269
aS'know'
p1270
aS'about'
p1271
aS'oil'
p1272
asg27
(lp1273
g1264
ag1265
ag1266
ag1267
ag1268
ag1269
ag1270
ag1271
ag1272
asba(iMeme
Meme
p1274
(dp1275
g3
(lp1276
S'only'
p1277
aS'ten'
p1278
aS'of'
p1279
aS'these'
p1280
aS'in'
p1281
aS'the'
p1282
aS'world'
p1283
asg14
S'only ten of these in the world'
p1284
sg16
S' suck my dick'
p1285
sg18
Vpawn-star
p1286
sg20
(lp1287
g1277
ag1278
ag1279
ag1280
ag1281
ag1282
ag1283
aS'suck'
p1288
aS'my'
p1289
aS'dick'
p1290
asg27
(lp1291
g1288
ag1289
ag1290
asba(iMeme
Meme
p1292
(dp1293
g3
(lp1294
S'hmm'
p1295
aS'you'
p1296
aS'paid'
p1297
ag450
asg14
S'hmm you paid 3'
p1298
sg16
S'000 for that 15 century perfect condition clock'
p1299
sg18
Vpawn-star
p1300
sg20
(lp1301
g1295
ag1296
ag1297
ag450
aS'000'
p1302
aS'for'
p1303
aS'that'
p1304
aS'15'
p1305
aS'century'
p1306
aS'perfect'
p1307
aS'condition'
p1308
aS'clock'
p1309
asg27
(lp1310
g1302
ag1303
ag1304
ag1305
ag1306
ag1307
ag1308
ag1309
asba(iMeme
Meme
p1311
(dp1312
g3
(lp1313
S'theres'
p1314
aS'no'
p1315
aS'market'
p1316
aS'anymore'
p1317
asg14
S'theres no market anymore'
p1318
sg16
S' natalie its been pulverized by niggers'
p1319
sg18
Vpawn-star
p1320
sg20
(lp1321
g1314
ag1315
ag1316
ag1317
aS'natalie'
p1322
aS'its'
p1323
aS'been'
p1324
aS'pulverized'
p1325
aS'by'
p1326
aS'niggers'
p1327
asg27
(lp1328
g1322
ag1323
ag1324
ag1325
ag1326
ag1327
asba(iMeme
Meme
p1329
(dp1330
g3
(lp1331
S'ill'
p1332
aS'give'
p1333
aS'you'
p1334
aS'like'
p1335
asg14
S'ill give you like'
p1336
sg16
S' a dollar'
p1337
sg18
Vpawn-star
p1338
sg20
(lp1339
g1332
ag1333
ag1334
ag1335
ag135
aS'dollar'
p1340
asg27
(lp1341
g135
ag1340
asba(iMeme
Meme
p1342
(dp1343
g3
(lp1344
S'asi'
p1345
aS'que'
p1346
aS'te'
p1347
aS'timaron'
p1348
aS'con'
p1349
aS'una'
p1350
aS'version'
p1351
aS'ripeada'
p1352
aS'de'
p1353
aS'rattle'
p1354
asg14
S'asi que te timaron con una version ripeada de rattle'
p1355
sg16
S' hoy sale la original!'
p1356
sg18
Vpawn-star
p1357
sg20
(lp1358
g1345
ag1346
ag1347
ag1348
ag1349
ag1350
ag1351
ag1352
ag1353
ag1354
aS'hoy'
p1359
aS'sale'
p1360
aS'la'
p1361
aS'original'
p1362
ag340
asg27
(lp1363
g1359
ag1360
ag1361
ag1362
ag340
asba(iMeme
Meme
p1364
(dp1365
g3
(lp1366
g9
aS'60'
p1367
aS'for'
p1368
aS'that'
p1369
aS'service'
p1370
ag51
asg14
S'$60 for that service?'
p1371
sg16
S' ill give you $12'
p1372
sg18
Vpawn-star
p1373
sg20
(lp1374
g9
ag1367
ag1368
ag1369
ag1370
ag51
aS'ill'
p1375
aS'give'
p1376
aS'you'
p1377
ag9
aS'12'
p1378
asg27
(lp1379
g1375
ag1376
ag1377
ag9
ag1378
asba(iMeme
Meme
p1380
(dp1381
g3
(lp1382
S'when'
p1383
ag5
aS'saw'
p1384
aS'wnm'
p1385
aS'on'
p1386
aS'the'
p1387
aS'marketplace'
p1388
asg14
S'when i saw wnm on the marketplace'
p1389
sg16
S' i knew i had to have it'
p1390
sg18
Vpawn-star
p1391
sg20
(lp1392
g1383
ag5
ag1384
ag1385
ag1386
ag1387
ag1388
ag5
aS'knew'
p1393
ag5
aS'had'
p1394
aS'to'
p1395
aS'have'
p1396
aS'it'
p1397
asg27
(lp1398
g5
ag1393
ag5
ag1394
ag1395
ag1396
ag1397
asba(iMeme
Meme
p1399
(dp1400
g3
(lp1401
S'so'
p1402
aS'you'
p1403
aS'have'
p1404
aS'hundreds'
p1405
aS'of'
p1406
aS'thousands'
p1407
aS'in'
p1408
aS'loans'
p1409
asg14
S'so you have hundreds of thousands in loans'
p1410
sg16
S' best i can do is unpaid internship.'
p1411
sg18
Vpawn-star
p1412
sg20
(lp1413
g1402
ag1403
ag1404
ag1405
ag1406
ag1407
ag1408
ag1409
aS'best'
p1414
ag5
aS'can'
p1415
aS'do'
p1416
aS'is'
p1417
aS'unpaid'
p1418
aS'internship'
p1419
ag436
asg27
(lp1420
g1414
ag5
ag1415
ag1416
ag1417
ag1418
ag1419
ag436
asba(iMeme
Meme
p1421
(dp1422
g3
(lp1423
g135
aS'cornell'
p1424
aS'degree'
p1425
ag51
asg14
S'a cornell degree?'
p1426
sg16
S' ill give you like 5 bucks for it'
p1427
sg18
Vpawn-star
p1428
sg20
(lp1429
g135
ag1424
ag1425
ag51
aS'ill'
p1430
aS'give'
p1431
aS'you'
p1432
aS'like'
p1433
ag26
aS'bucks'
p1434
aS'for'
p1435
aS'it'
p1436
asg27
(lp1437
g1430
ag1431
ag1432
ag1433
ag26
ag1434
ag1435
ag1436
asba(iMeme
Meme
p1438
(dp1439
g3
(lp1440
g5
aS'cant'
p1441
aS'make'
p1442
aS'you'
p1443
aS'win'
p1444
aS'for'
p1445
aS'10'
p1446
aS'quid'
p1447
asg14
S'i cant make you win for 10 quid'
p1448
sg16
S' but i can for 20'
p1449
sg18
Vpawn-star
p1450
sg20
(lp1451
g5
ag1441
ag1442
ag1443
ag1444
ag1445
ag1446
ag1447
aS'but'
p1452
ag5
aS'can'
p1453
aS'for'
p1454
aS'20'
p1455
asg27
(lp1456
g1452
ag5
ag1453
ag1454
ag1455
asba(iMeme
Meme
p1457
(dp1458
g3
(lp1459
S'15th'
p1460
aS'century'
p1461
aS'bejeweled'
p1462
aS'indian'
p1463
aS'dildo'
p1464
ag51
asg14
S'15th century bejeweled indian dildo?'
p1465
sg16
S' if this is a real bejeweled indian dildo that could mean big dollars'
p1466
sg18
Vpawn-star
p1467
sg20
(lp1468
g1460
ag1461
ag1462
ag1463
ag1464
ag51
aS'if'
p1469
aS'this'
p1470
aS'is'
p1471
ag135
aS'real'
p1472
aS'bejeweled'
p1473
aS'indian'
p1474
aS'dildo'
p1475
aS'that'
p1476
aS'could'
p1477
aS'mean'
p1478
aS'big'
p1479
aS'dollars'
p1480
asg27
(lp1481
g1469
ag1470
ag1471
ag135
ag1472
ag1473
ag1474
ag1475
ag1476
ag1477
ag1478
ag1479
ag1480
asba(iMeme
Meme
p1482
(dp1483
g3
(lp1484
S'justin'
p1485
aS'biebers'
p1486
aS'signed'
p1487
aS'album'
p1488
ag51
asg14
S'justin biebers signed album?'
p1489
sg16
S' you can give me 100$ for me to take it'
p1490
sg18
Vpawn-star
p1491
sg20
(lp1492
g1485
ag1486
ag1487
ag1488
ag51
aS'you'
p1493
aS'can'
p1494
aS'give'
p1495
aS'me'
p1496
aS'100'
p1497
ag9
aS'for'
p1498
aS'me'
p1499
aS'to'
p1500
aS'take'
p1501
aS'it'
p1502
asg27
(lp1503
g1493
ag1494
ag1495
ag1496
ag1497
ag9
ag1498
ag1499
ag1500
ag1501
ag1502
asba(iMeme
Meme
p1504
(dp1505
g3
(lp1506
g5
aS'see'
p1507
aS'you'
p1508
aS'paid'
p1509
ag9
aS'25'
p1510
asg14
S'i see you paid $25'
p1511
sg16
S'000 for that car'
p1512
sg18
Vpawn-star
p1513
sg20
(lp1514
g5
ag1507
ag1508
ag1509
ag9
ag1510
aS'000'
p1515
aS'for'
p1516
aS'that'
p1517
aS'car'
p1518
asg27
(lp1519
g1515
ag1516
ag1517
ag1518
asba(iMeme
Meme
p1520
(dp1521
g3
(lp1522
S'justin'
p1523
aS'biebers'
p1524
aS'signed'
p1525
aS'album'
p1526
ag51
asg14
S'justin biebers signed album?'
p1527
sg16
S' you can give me 100$ for me to take it'
p1528
sg18
Vpawn-star
p1529
sg20
(lp1530
g1523
ag1524
ag1525
ag1526
ag51
aS'you'
p1531
aS'can'
p1532
aS'give'
p1533
aS'me'
p1534
aS'100'
p1535
ag9
aS'for'
p1536
aS'me'
p1537
aS'to'
p1538
aS'take'
p1539
aS'it'
p1540
asg27
(lp1541
g1531
ag1532
ag1533
ag1534
ag1535
ag9
ag1536
ag1537
ag1538
ag1539
ag1540
asba(iMeme
Meme
p1542
(dp1543
g3
(lp1544
S'you'
p1545
aS'paid'
p1546
ag9
aS'200'
p1547
aS'for'
p1548
aS'that'
p1549
aS'textbook'
p1550
ag51
asg14
S'you paid $200 for that textbook?'
p1551
sg16
S' best i can do is $5'
p1552
sg18
Vpawn-star
p1553
sg20
(lp1554
g1545
ag1546
ag9
ag1547
ag1548
ag1549
ag1550
ag51
aS'best'
p1555
ag5
aS'can'
p1556
aS'do'
p1557
aS'is'
p1558
ag9
ag26
asg27
(lp1559
g1555
ag5
ag1556
ag1557
ag1558
ag9
ag26
asba(iMeme
Meme
p1560
(dp1561
g3
(lp1562
S'so'
p1563
asg14
S'so'
p1564
sg16
S' what did you pay? a million bones for that boat?'
p1565
sg18
Vpawn-star
p1566
sg20
(lp1567
g1563
aS'what'
p1568
aS'did'
p1569
aS'you'
p1570
aS'pay'
p1571
ag51
ag135
aS'million'
p1572
aS'bones'
p1573
aS'for'
p1574
aS'that'
p1575
aS'boat'
p1576
ag51
asg27
(lp1577
g1568
ag1569
ag1570
ag1571
ag51
ag135
ag1572
ag1573
ag1574
ag1575
ag1576
ag51
asba(iMeme
Meme
p1578
(dp1579
g3
(lp1580
S'pandoras'
p1581
aS'box'
p1582
ag51
aS'theres'
p1583
ag135
aS'very'
p1584
aS'limited'
p1585
aS'market'
p1586
aS'for'
p1587
aS'that'
p1588
asg14
S'pandoras box? theres a very limited market for that'
p1589
sg16
S' how about $20?'
p1590
sg18
Vpawn-star
p1591
sg20
(lp1592
g1581
ag1582
ag51
ag1583
ag135
ag1584
ag1585
ag1586
ag1587
ag1588
aS'how'
p1593
aS'about'
p1594
ag9
aS'20'
p1595
ag51
asg27
(lp1596
g1593
ag1594
ag9
ag1595
ag51
asba(iMeme
Meme
p1597
(dp1598
g3
(lp1599
S'asi'
p1600
aS'que'
p1601
aS'te'
p1602
aS'timaron'
p1603
aS'con'
p1604
aS'una'
p1605
aS'version'
p1606
aS'ripeada'
p1607
aS'de'
p1608
aS'rattle'
p1609
aS'cierto'
p1610
ag51
asg14
S'asi que te timaron con una version ripeada de rattle cierto?'
p1611
sg16
S' hoy sale la original!'
p1612
sg18
Vpawn-star
p1613
sg20
(lp1614
g1600
ag1601
ag1602
ag1603
ag1604
ag1605
ag1606
ag1607
ag1608
ag1609
ag1610
ag51
aS'hoy'
p1615
aS'sale'
p1616
aS'la'
p1617
aS'original'
p1618
ag340
asg27
(lp1619
g1615
ag1616
ag1617
ag1618
ag340
asba(iMeme
Meme
p1620
(dp1621
g3
(lp1622
g5
aS'know'
p1623
aS'im'
p1624
aS'ugly'
p1625
asg14
S'i know im ugly'
p1626
sg16
S' somgo fuck your self'
p1627
sg18
Vpawn-star
p1628
sg20
(lp1629
g5
ag1623
ag1624
ag1625
aS'somgo'
p1630
aS'fuck'
p1631
aS'your'
p1632
aS'self'
p1633
asg27
(lp1634
g1630
ag1631
ag1632
ag1633
asba(iMeme
Meme
p1635
(dp1636
g3
(lp1637
S'veo'
p1638
aS'que'
p1639
aS'te'
p1640
aS'timaron'
p1641
aS'con'
p1642
aS'una'
p1643
aS'version'
p1644
aS'ripeada'
p1645
aS'de'
p1646
aS'rattle'
p1647
asg14
S'veo que te timaron con una version ripeada de rattle'
p1648
sg16
S' hoy sale la original!'
p1649
sg18
Vpawn-star
p1650
sg20
(lp1651
g1638
ag1639
ag1640
ag1641
ag1642
ag1643
ag1644
ag1645
ag1646
ag1647
aS'hoy'
p1652
aS'sale'
p1653
aS'la'
p1654
aS'original'
p1655
ag340
asg27
(lp1656
g1652
ag1653
ag1654
ag1655
ag340
asba(iMeme
Meme
p1657
(dp1658
g3
(lp1659
S'8'
p1660
asg14
S'8'
p1661
sg16
S'500 dollar gun bought for 2'
p1662
sg18
Vpawn-star
p1663
sg20
(lp1664
g1660
aS'500'
p1665
aS'dollar'
p1666
aS'gun'
p1667
aS'bought'
p1668
aS'for'
p1669
aS'2'
p1670
asg27
(lp1671
g1665
ag1666
ag1667
ag1668
ag1669
ag1670
asba(iMeme
Meme
p1672
(dp1673
g3
(lp1674
S'you'
p1675
aS'sell'
p1676
aS'dcs'
p1677
ag51
asg14
S'you sell dcs?'
p1678
sg16
S' wont buy!'
p1679
sg18
Vpawn-star
p1680
sg20
(lp1681
g1675
ag1676
ag1677
ag51
aS'wont'
p1682
aS'buy'
p1683
ag340
asg27
(lp1684
g1682
ag1683
ag340
asba(iMeme
Meme
p1685
(dp1686
g3
(lp1687
S'you'
p1688
ag9
aS'150'
p1689
aS'for'
p1690
aS'that'
p1691
aS'gen'
p1692
aS'psych'
p1693
aS'book'
p1694
ag51
asg14
S'you $150 for that gen psych book?'
p1695
sg16
S' ill give ya $10'
p1696
sg18
Vpawn-star
p1697
sg20
(lp1698
g1688
ag9
ag1689
ag1690
ag1691
ag1692
ag1693
ag1694
ag51
aS'ill'
p1699
aS'give'
p1700
aS'ya'
p1701
ag9
aS'10'
p1702
asg27
(lp1703
g1699
ag1700
ag1701
ag9
ag1702
asba(iMeme
Meme
p1704
(dp1705
g3
(lp1706
S'you'
p1707
ag9
aS'150'
p1708
aS'for'
p1709
aS'that'
p1710
aS'gen'
p1711
aS'psych'
p1712
aS'book'
p1713
ag51
asg14
S'you $150 for that gen psych book?'
p1714
sg16
S' ill give ya $10'
p1715
sg18
Vpawn-star
p1716
sg20
(lp1717
g1707
ag9
ag1708
ag1709
ag1710
ag1711
ag1712
ag1713
ag51
aS'ill'
p1718
aS'give'
p1719
aS'ya'
p1720
ag9
aS'10'
p1721
asg27
(lp1722
g1718
ag1719
ag1720
ag9
ag1721
asba(iMeme
Meme
p1723
(dp1724
g3
(lp1725
S'0'
p1726
aS'fucks'
p1727
aS'thats'
p1728
asg14
S'0 fucks thats'
p1729
sg16
S' all i can give you for it'
p1730
sg18
Vpawn-star
p1731
sg20
(lp1732
g1726
ag1727
ag1728
aS'all'
p1733
ag5
aS'can'
p1734
aS'give'
p1735
aS'you'
p1736
aS'for'
p1737
aS'it'
p1738
asg27
(lp1739
g1733
ag5
ag1734
ag1735
ag1736
ag1737
ag1738
asba(iMeme
Meme
p1740
(dp1741
g3
(lp1742
S'so'
p1743
aS'you'
p1744
aS'think'
p1745
aS'you'
p1746
aS'know'
p1747
aS'how'
p1748
aS'much'
p1749
aS'its'
p1750
aS'worth'
p1751
asg14
S'so you think you know how much its worth'
p1752
sg16
S' let me tell you how much less its really worth'
p1753
sg18
Vpawn-star
p1754
sg20
(lp1755
g1743
ag1744
ag1745
ag1746
ag1747
ag1748
ag1749
ag1750
ag1751
aS'let'
p1756
aS'me'
p1757
aS'tell'
p1758
aS'you'
p1759
aS'how'
p1760
aS'much'
p1761
aS'less'
p1762
aS'its'
p1763
aS'really'
p1764
aS'worth'
p1765
asg27
(lp1766
g1756
ag1757
ag1758
ag1759
ag1760
ag1761
ag1762
ag1763
ag1764
ag1765
asba(iMeme
Meme
p1767
(dp1768
g3
(lp1769
S'gold'
p1770
aS'ring'
p1771
aS'1000'
p1772
asg14
S'gold ring 1000'
p1773
sg16
S' diamond ring 20'
p1774
sg18
Vpawn-star
p1775
sg20
(lp1776
g1770
ag1771
ag1772
aS'diamond'
p1777
aS'ring'
p1778
aS'20'
p1779
asg27
(lp1780
g1777
ag1778
ag1779
asba(iMeme
Meme
p1781
(dp1782
g3
(lp1783
S'you'
p1784
aS'want'
p1785
aS'to'
p1786
aS'sell'
p1787
aS'the'
p1788
aS'fountain'
p1789
aS'of'
p1790
aS'youth'
p1791
ag51
asg14
S'you want to sell the fountain of youth?'
p1792
sg16
S' sorry but its just gonna collect dust in my shop.'
p1793
sg18
Vpawn-star
p1794
sg20
(lp1795
g1784
ag1785
ag1786
ag1787
ag1788
ag1789
ag1790
ag1791
ag51
aS'sorry'
p1796
aS'but'
p1797
aS'its'
p1798
aS'just'
p1799
aS'gon'
p1800
aS'na'
p1801
aS'collect'
p1802
aS'dust'
p1803
aS'in'
p1804
aS'my'
p1805
aS'shop'
p1806
ag436
asg27
(lp1807
g1796
ag1797
ag1798
ag1799
ag1800
ag1801
ag1802
ag1803
ag1804
ag1805
ag1806
ag436
asba(iMeme
Meme
p1808
(dp1809
g3
(lp1810
S'was'
p1811
aS'soll'
p1812
aS'der'
p1813
aS'scheiss'
p1814
ag51
asg14
S'was soll der scheiss?'
p1815
sg16
S' kein plan'
p1816
sg18
Vpawn-star
p1817
sg20
(lp1818
g1811
ag1812
ag1813
ag1814
ag51
aS'kein'
p1819
aS'plan'
p1820
asg27
(lp1821
g1819
ag1820
asba(iMeme
Meme
p1822
(dp1823
g3
(lp1824
g5
aS'see'
p1825
aS'you'
p1826
aS'paid'
p1827
aS'500'
p1828
aS'for'
p1829
aS'that'
p1830
aS'marijuana'
p1831
aS'plant'
p1832
asg14
S'i see you paid 500 for that marijuana plant'
p1833
sg16
S' best i can do is a dutch'
p1834
sg18
Vpawn-star
p1835
sg20
(lp1836
g5
ag1825
ag1826
ag1827
ag1828
ag1829
ag1830
ag1831
ag1832
aS'best'
p1837
ag5
aS'can'
p1838
aS'do'
p1839
aS'is'
p1840
ag135
aS'dutch'
p1841
asg27
(lp1842
g1837
ag5
ag1838
ag1839
ag1840
ag135
ag1841
asba(iMeme
Meme
p1843
(dp1844
g3
(lp1845
S'te'
p1846
aS'timaron'
p1847
aS'con'
p1848
aS'una'
p1849
aS'version'
p1850
aS'ripeada'
p1851
aS'de'
p1852
aS'rattle'
p1853
asg14
S'te timaron con una version ripeada de rattle'
p1854
sg16
S' hoy sale la original!'
p1855
sg18
Vpawn-star
p1856
sg20
(lp1857
g1846
ag1847
ag1848
ag1849
ag1850
ag1851
ag1852
ag1853
aS'hoy'
p1858
aS'sale'
p1859
aS'la'
p1860
aS'original'
p1861
ag340
asg27
(lp1862
g1858
ag1859
ag1860
ag1861
ag340
asba(iMeme
Meme
p1863
(dp1864
g3
(lp1865
S'tsr'
p1866
aS'needs'
p1867
aS'improving'
p1868
ag51
asg14
S'tsr needs improving?'
p1869
sg16
S' best i can do is ban sizz'
p1870
sg18
Vpawn-star
p1871
sg20
(lp1872
g1866
ag1867
ag1868
ag51
aS'best'
p1873
ag5
aS'can'
p1874
aS'do'
p1875
aS'is'
p1876
aS'ban'
p1877
aS'sizz'
p1878
asg27
(lp1879
g1873
ag5
ag1874
ag1875
ag1876
ag1877
ag1878
asba(iMeme
Meme
p1880
(dp1881
g3
(lp1882
S'your'
p1883
aS'kingdom'
p1884
aS'for'
p1885
ag135
aS'horse'
p1886
ag51
asg14
S'your kingdom for a horse?'
p1887
sg16
S' 5 bucks'
p1888
sg18
Vpawn-star
p1889
sg20
(lp1890
g1883
ag1884
ag1885
ag135
ag1886
ag51
ag26
aS'bucks'
p1891
asg27
(lp1892
g26
ag1891
asba(iMeme
Meme
p1893
(dp1894
g3
(lp1895
S'what'
p1896
aS'were'
p1897
aS'you'
p1898
aS'looking'
p1899
aS'to'
p1900
aS'get'
p1901
aS'out'
p1902
aS'of'
p1903
aS'it'
p1904
ag51
asg14
S'what were you looking to get out of it?'
p1905
sg16
S' $500 you say? how about a buck fifty?'
p1906
sg18
Vpawn-star
p1907
sg20
(lp1908
g1896
ag1897
ag1898
ag1899
ag1900
ag1901
ag1902
ag1903
ag1904
ag51
ag9
aS'500'
p1909
aS'you'
p1910
aS'say'
p1911
ag51
aS'how'
p1912
aS'about'
p1913
ag135
aS'buck'
p1914
aS'fifty'
p1915
ag51
asg27
(lp1916
g9
ag1909
ag1910
ag1911
ag51
ag1912
ag1913
ag135
ag1914
ag1915
ag51
asba(iMeme
Meme
p1917
(dp1918
g3
(lp1919
g5
aS'looking'
p1920
aS'to'
p1921
aS'get'
p1922
ag9
aS'10'
p1923
asg14
S'i looking to get $10'
p1924
sg16
S'000'
p1925
sg18
Vpawn-star
p1926
sg20
(lp1927
g5
ag1920
ag1921
ag1922
ag9
ag1923
aS'000'
p1928
asg27
(lp1929
g1928
asba(iMeme
Meme
p1930
(dp1931
g3
(lp1932
S'ive'
p1933
aS'got'
p1934
ag135
aS'buddy'
p1935
asg14
S'ive got a buddy'
p1936
sg16
S' he knows everything there is about this'
p1937
sg18
Vpawn-star
p1938
sg20
(lp1939
g1933
ag1934
ag135
ag1935
aS'he'
p1940
aS'knows'
p1941
aS'everything'
p1942
aS'there'
p1943
aS'is'
p1944
aS'about'
p1945
aS'this'
p1946
asg27
(lp1947
g1940
ag1941
ag1942
ag1943
ag1944
ag1945
ag1946
asba(iMeme
Meme
p1948
(dp1949
g3
(lp1950
S'oh'
p1951
asg14
S'oh'
p1952
sg16
S' you talk to girls?'
p1953
sg18
Vpawn-star
p1954
sg20
(lp1955
g1951
aS'you'
p1956
aS'talk'
p1957
aS'to'
p1958
aS'girls'
p1959
ag51
asg27
(lp1960
g1956
ag1957
ag1958
ag1959
ag51
asba(iMeme
Meme
p1961
(dp1962
g3
(lp1963
S'you'
p1964
aS'just'
p1965
aS'invented'
p1966
ag135
aS'gold'
p1967
aS'producer'
p1968
ag340
ag51
ag340
asg14
S'you just invented a gold producer!?!'
p1969
sg16
S' $15. final offer'
p1970
sg18
Vpawn-star
p1971
sg20
(lp1972
g1964
ag1965
ag1966
ag135
ag1967
ag1968
ag340
ag51
ag340
ag9
aS'15'
p1973
ag436
aS'final'
p1974
aS'offer'
p1975
asg27
(lp1976
g9
ag1973
ag436
ag1974
ag1975
asba(iMeme
Meme
p1977
(dp1978
g3
(lp1979
S'que'
p1980
aS'putas'
p1981
aS'pasa'
p1982
aS'en'
p1983
aS'guatemala'
p1984
asg14
S'que putas pasa en guatemala'
p1985
sg16
S' el general se cago en todo'
p1986
sg18
Vpawn-star
p1987
sg20
(lp1988
g1980
ag1981
ag1982
ag1983
ag1984
aS'el'
p1989
aS'general'
p1990
aS'se'
p1991
aS'cago'
p1992
aS'en'
p1993
aS'todo'
p1994
asg27
(lp1995
g1989
ag1990
ag1991
ag1992
ag1993
ag1994
asba(iMeme
Meme
p1996
(dp1997
g3
(lp1998
S'you'
p1999
aS'sell'
p2000
aS'dcs'
p2001
ag51
asg14
S'you sell dcs?'
p2002
sg16
S' looser!!!!'
p2003
sg18
Vpawn-star
p2004
sg20
(lp2005
g1999
ag2000
ag2001
ag51
aS'looser'
p2006
ag340
ag340
ag340
ag340
asg27
(lp2007
g2006
ag340
ag340
ag340
ag340
asba(iMeme
Meme
p2008
(dp2009
g3
(lp2010
g5
aS'want'
p2011
aS'your'
p2012
aS'crap'
p2013
asg14
S'i want your crap'
p2014
sg16
S' now!!'
p2015
sg18
Vpawn-star
p2016
sg20
(lp2017
g5
ag2011
ag2012
ag2013
aS'now'
p2018
ag340
ag340
asg27
(lp2019
g2018
ag340
ag340
asba(iMeme
Meme
p2020
(dp2021
g3
(lp2022
g5
aS'understand'
p2023
aS'you'
p2024
aS'paid'
p2025
ag26
asg14
S'i understand you paid 5'
p2026
sg16
S'000 for it'
p2027
sg18
Vpawn-star
p2028
sg20
(lp2029
g5
ag2023
ag2024
ag2025
ag26
aS'000'
p2030
aS'for'
p2031
aS'it'
p2032
asg27
(lp2033
g2030
ag2031
ag2032
asba(iMeme
Meme
p2034
(dp2035
g3
(lp2036
g5
aS'see'
p2037
aS'you'
p2038
aS'paid'
p2039
ag9
aS'250'
p2040
aS'for'
p2041
aS'that'
p2042
aS'abortion'
p2043
asg14
S'i see you paid $250 for that abortion'
p2044
sg16
S' the best i can do is $30'
p2045
sg18
Vpawn-star
p2046
sg20
(lp2047
g5
ag2037
ag2038
ag2039
ag9
ag2040
ag2041
ag2042
ag2043
aS'the'
p2048
aS'best'
p2049
ag5
aS'can'
p2050
aS'do'
p2051
aS'is'
p2052
ag9
aS'30'
p2053
asg27
(lp2054
g2048
ag2049
ag5
ag2050
ag2051
ag2052
ag9
ag2053
asba(iMeme
Meme
p2055
(dp2056
g3
(lp2057
S'justin'
p2058
aS'biebers'
p2059
aS'autographed'
p2060
aS'album'
p2061
ag51
asg14
S'justin biebers autographed album?'
p2062
sg16
S' you can give me 100$ for me to take it'
p2063
sg18
Vpawn-star
p2064
sg20
(lp2065
g2058
ag2059
ag2060
ag2061
ag51
aS'you'
p2066
aS'can'
p2067
aS'give'
p2068
aS'me'
p2069
aS'100'
p2070
ag9
aS'for'
p2071
aS'me'
p2072
aS'to'
p2073
aS'take'
p2074
aS'it'
p2075
asg27
(lp2076
g2066
ag2067
ag2068
ag2069
ag2070
ag9
ag2071
ag2072
ag2073
ag2074
ag2075
asba(iMeme
Meme
p2077
(dp2078
g3
(lp2079
g5
aS'see'
p2080
aS'you'
p2081
aS'paid'
p2082
ag9
aS'300'
p2083
aS'for'
p2084
aS'your'
p2085
aS'stealth'
p2086
aS'10s'
p2087
asg14
S'i see you paid $300 for your stealth 10s'
p2088
sg16
S' bet i can get them for less than retail.'
p2089
sg18
Vpawn-star
p2090
sg20
(lp2091
g5
ag2080
ag2081
ag2082
ag9
ag2083
ag2084
ag2085
ag2086
ag2087
aS'bet'
p2092
ag5
aS'can'
p2093
aS'get'
p2094
aS'them'
p2095
aS'for'
p2096
aS'less'
p2097
aS'than'
p2098
aS'retail'
p2099
ag436
asg27
(lp2100
g2092
ag5
ag2093
ag2094
ag2095
ag2096
ag2097
ag2098
ag2099
ag436
asba(iMeme
Meme
p2101
(dp2102
g3
(lp2103
S'asi'
p2104
aS'que'
p2105
aS'los'
p2106
aS'timaron'
p2107
aS'con'
p2108
aS'una'
p2109
aS'version'
p2110
aS'ripeada'
p2111
aS'de'
p2112
aS'rattle'
p2113
aS'cierto'
p2114
ag51
asg14
S'asi que los timaron con una version ripeada de rattle cierto?'
p2115
sg16
S' jaja hoy sale la original!'
p2116
sg18
Vpawn-star
p2117
sg20
(lp2118
g2104
ag2105
ag2106
ag2107
ag2108
ag2109
ag2110
ag2111
ag2112
ag2113
ag2114
ag51
aS'jaja'
p2119
aS'hoy'
p2120
aS'sale'
p2121
aS'la'
p2122
aS'original'
p2123
ag340
asg27
(lp2124
g2119
ag2120
ag2121
ag2122
ag2123
ag340
asba(iMeme
Meme
p2125
(dp2126
g3
(lp2127
S'saw'
p2128
aS'your'
p2129
aS'transformer'
p2130
aS'collection'
p2131
aS'on'
p2132
aS'ebay'
p2133
aS'for'
p2134
ag9
aS'300'
p2135
ag51
asg14
S'saw your transformer collection on ebay for $300?'
p2136
sg16
S' ill give you $5'
p2137
sg18
Vpawn-star
p2138
sg20
(lp2139
g2128
ag2129
ag2130
ag2131
ag2132
ag2133
ag2134
ag9
ag2135
ag51
aS'ill'
p2140
aS'give'
p2141
aS'you'
p2142
ag9
ag26
asg27
(lp2143
g2140
ag2141
ag2142
ag9
ag26
asba(iMeme
Meme
p2144
(dp2145
g3
(lp2146
S'saw'
p2147
aS'your'
p2148
aS'transformer'
p2149
aS'collection'
p2150
aS'on'
p2151
aS'ebay'
p2152
aS'for'
p2153
ag9
aS'300'
p2154
ag51
asg14
S'saw your transformer collection on ebay for $300?'
p2155
sg16
S' ill give you $5'
p2156
sg18
Vpawn-star
p2157
sg20
(lp2158
g2147
ag2148
ag2149
ag2150
ag2151
ag2152
ag2153
ag9
ag2154
ag51
aS'ill'
p2159
aS'give'
p2160
aS'you'
p2161
ag9
ag26
asg27
(lp2162
g2159
ag2160
ag2161
ag9
ag26
asba(iMeme
Meme
p2163
(dp2164
g3
(lp2165
S'se'
p2166
aS'de'
p2167
aS'musica'
p2168
asg14
S'se de musica'
p2169
sg16
S' y se que el pyscho no es musica es basura'
p2170
sg18
Vpawn-star
p2171
sg20
(lp2172
g2166
ag2167
ag2168
aS'y'
p2173
aS'se'
p2174
aS'que'
p2175
aS'el'
p2176
aS'pyscho'
p2177
aS'no'
p2178
aS'es'
p2179
aS'musica'
p2180
aS'es'
p2181
aS'basura'
p2182
asg27
(lp2183
g2173
ag2174
ag2175
ag2176
ag2177
ag2178
ag2179
ag2180
ag2181
ag2182
asba(iMeme
Meme
p2184
(dp2185
g3
(lp2186
S'asks'
p2187
aS'price'
p2188
aS'you'
p2189
aS'were'
p2190
aS'looking'
p2191
aS'for'
p2192
asg14
S'asks price you were looking for'
p2193
sg16
S' $500 you say? how about a buck fifty?'
p2194
sg18
Vpawn-star
p2195
sg20
(lp2196
g2187
ag2188
ag2189
ag2190
ag2191
ag2192
ag9
aS'500'
p2197
aS'you'
p2198
aS'say'
p2199
ag51
aS'how'
p2200
aS'about'
p2201
ag135
aS'buck'
p2202
aS'fifty'
p2203
ag51
asg27
(lp2204
g9
ag2197
ag2198
ag2199
ag51
ag2200
ag2201
ag135
ag2202
ag2203
ag51
asba(iMeme
Meme
p2205
(dp2206
g3
(lp2207
S'im'
p2208
aS'not'
p2209
aS'sure'
p2210
aS'if'
p2211
aS'those'
p2212
aS'boobs'
p2213
aS'are'
p2214
aS'real'
p2215
asg14
S'im not sure if those boobs are real'
p2216
sg16
S' let me a buddy of mine whos an expert in this sort of thing'
p2217
sg18
Vpawn-star
p2218
sg20
(lp2219
g2208
ag2209
ag2210
ag2211
ag2212
ag2213
ag2214
ag2215
aS'let'
p2220
aS'me'
p2221
ag135
aS'buddy'
p2222
aS'of'
p2223
aS'mine'
p2224
aS'whos'
p2225
aS'an'
p2226
aS'expert'
p2227
aS'in'
p2228
aS'this'
p2229
aS'sort'
p2230
aS'of'
p2231
aS'thing'
p2232
asg27
(lp2233
g2220
ag2221
ag135
ag2222
ag2223
ag2224
ag2225
ag2226
ag2227
ag2228
ag2229
ag2230
ag2231
ag2232
asba(iMeme
Meme
p2234
(dp2235
g3
(lp2236
S'mil'
p2237
aS'pesos'
p2238
aS'por'
p2239
aS'un'
p2240
aS'diske'
p2241
aS'resident'
p2242
aS'evil'
p2243
ag51
asg14
S'mil pesos por un diske resident evil?'
p2244
sg16
S' lo mejor que puedo hacer es darte 300 kjjjj jijiji'
p2245
sg18
Vpawn-star
p2246
sg20
(lp2247
g2237
ag2238
ag2239
ag2240
ag2241
ag2242
ag2243
ag51
aS'lo'
p2248
aS'mejor'
p2249
aS'que'
p2250
aS'puedo'
p2251
aS'hacer'
p2252
aS'es'
p2253
aS'darte'
p2254
aS'300'
p2255
aS'kjjjj'
p2256
aS'jijiji'
p2257
asg27
(lp2258
g2248
ag2249
ag2250
ag2251
ag2252
ag2253
ag2254
ag2255
ag2256
ag2257
asba(iMeme
Meme
p2259
(dp2260
g3
(lp2261
g5
aS'see'
p2262
aS'you'
p2263
aS'paid'
p2264
ag9
aS'375'
p2265
aS'for'
p2266
aS'that'
p2267
aS'kwa'
p2268
aS'm16'
p2269
asg14
S'i see you paid $375 for that kwa m16'
p2270
sg16
S' best i can do is $75'
p2271
sg18
Vpawn-star
p2272
sg20
(lp2273
g5
ag2262
ag2263
ag2264
ag9
ag2265
ag2266
ag2267
ag2268
ag2269
aS'best'
p2274
ag5
aS'can'
p2275
aS'do'
p2276
aS'is'
p2277
ag9
aS'75'
p2278
asg27
(lp2279
g2274
ag5
ag2275
ag2276
ag2277
ag9
ag2278
asba(iMeme
Meme
p2280
(dp2281
g3
(lp2282
g5
aS'cant'
p2283
aS'make'
p2284
aS'you'
p2285
aS'win'
p2286
aS'for'
p2287
aS'10'
p2288
aS'pounds'
p2289
asg14
S'i cant make you win for 10 pounds'
p2290
sg16
S' but i can for 20'
p2291
sg18
Vpawn-star
p2292
sg20
(lp2293
g5
ag2283
ag2284
ag2285
ag2286
ag2287
ag2288
ag2289
aS'but'
p2294
ag5
aS'can'
p2295
aS'for'
p2296
aS'20'
p2297
asg27
(lp2298
g2294
ag5
ag2295
ag2296
ag2297
asba(iMeme
Meme
p2299
(dp2300
g3
(lp2301
S'asi'
p2302
aS'que'
p2303
aS'te'
p2304
aS'timaron'
p2305
aS'con'
p2306
aS'una'
p2307
aS'version'
p2308
aS'ripeada'
p2309
aS'de'
p2310
aS'rattle'
p2311
aS'eh'
p2312
ag51
asg14
S'asi que te timaron con una version ripeada de rattle eh?'
p2313
sg16
S' hoy sale la original!'
p2314
sg18
Vpawn-star
p2315
sg20
(lp2316
g2302
ag2303
ag2304
ag2305
ag2306
ag2307
ag2308
ag2309
ag2310
ag2311
ag2312
ag51
aS'hoy'
p2317
aS'sale'
p2318
aS'la'
p2319
aS'original'
p2320
ag340
asg27
(lp2321
g2317
ag2318
ag2319
ag2320
ag340
asba(iMeme
Meme
p2322
(dp2323
g3
(lp2324
g5
aS'see'
p2325
aS'you'
p2326
aS'have'
p2327
aS'star'
p2328
aS'wars'
p2329
aS'the'
p2330
aS'old'
p2331
aS'republic'
p2332
asg14
S'i see you have star wars the old republic'
p2333
sg16
S' you can pay me $100 to put it in the trash'
p2334
sg18
Vpawn-star
p2335
sg20
(lp2336
g5
ag2325
ag2326
ag2327
ag2328
ag2329
ag2330
ag2331
ag2332
aS'you'
p2337
aS'can'
p2338
aS'pay'
p2339
aS'me'
p2340
ag9
aS'100'
p2341
aS'to'
p2342
aS'put'
p2343
aS'it'
p2344
aS'in'
p2345
aS'the'
p2346
aS'trash'
p2347
asg27
(lp2348
g2337
ag2338
ag2339
ag2340
ag9
ag2341
ag2342
ag2343
ag2344
ag2345
ag2346
ag2347
asba(iMeme
Meme
p2349
(dp2350
g3
(lp2351
S'you'
p2352
aS'paid'
p2353
ag26
aS'bucks'
p2354
aS'for'
p2355
aS'that'
p2356
aS'frappacino'
p2357
ag51
asg14
S'you paid 5 bucks for that frappacino?'
p2358
sg16
S' best i can do is a nickle for it.'
p2359
sg18
Vpawn-star
p2360
sg20
(lp2361
g2352
ag2353
ag26
ag2354
ag2355
ag2356
ag2357
ag51
aS'best'
p2362
ag5
aS'can'
p2363
aS'do'
p2364
aS'is'
p2365
ag135
aS'nickle'
p2366
aS'for'
p2367
aS'it'
p2368
ag436
asg27
(lp2369
g2362
ag5
ag2363
ag2364
ag2365
ag135
ag2366
ag2367
ag2368
ag436
asba(iMeme
Meme
p2370
(dp2371
g3
(lp2372
S'scale'
p2373
aS'to'
p2374
ag26
ag51
asg14
S'scale to 5?'
p2375
sg16
S' best i can do is 3.75'
p2376
sg18
Vpawn-star
p2377
sg20
(lp2378
g2373
ag2374
ag26
ag51
aS'best'
p2379
ag5
aS'can'
p2380
aS'do'
p2381
aS'is'
p2382
aS'3.75'
p2383
asg27
(lp2384
g2379
ag5
ag2380
ag2381
ag2382
ag2383
asba(iMeme
Meme
p2385
(dp2386
g3
(lp2387
S'you'
p2388
aS'have'
p2389
ag135
aS'wallpaper'
p2390
asg14
S'you have a wallpaper'
p2391
sg16
S' ill call up a friend whos a expert on wallpapers'
p2392
sg18
Vpawn-star
p2393
sg20
(lp2394
g2388
ag2389
ag135
ag2390
aS'ill'
p2395
aS'call'
p2396
aS'up'
p2397
ag135
aS'friend'
p2398
aS'whos'
p2399
ag135
aS'expert'
p2400
aS'on'
p2401
aS'wallpapers'
p2402
asg27
(lp2403
g2395
ag2396
ag2397
ag135
ag2398
ag2399
ag135
ag2400
ag2401
ag2402
asba(iMeme
Meme
p2404
(dp2405
g3
(lp2406
S'asi'
p2407
aS'que'
p2408
aS'te'
p2409
aS'timaron'
p2410
aS'con'
p2411
aS'una'
p2412
aS'version'
p2413
aS'ripeada'
p2414
aS'de'
p2415
aS'rattle'
p2416
aS'cierto'
p2417
ag51
asg14
S'asi que te timaron con una version ripeada de rattle cierto?'
p2418
sg16
S' jaja hoy sale la original!'
p2419
sg18
Vpawn-star
p2420
sg20
(lp2421
g2407
ag2408
ag2409
ag2410
ag2411
ag2412
ag2413
ag2414
ag2415
ag2416
ag2417
ag51
aS'jaja'
p2422
aS'hoy'
p2423
aS'sale'
p2424
aS'la'
p2425
aS'original'
p2426
ag340
asg27
(lp2427
g2422
ag2423
ag2424
ag2425
ag2426
ag340
asba(iMeme
Meme
p2428
(dp2429
g3
(lp2430
g5
aS'see'
p2431
aS'you'
p2432
aS'found'
p2433
ag135
aS'permanent'
p2434
aS'cure'
p2435
aS'for'
p2436
aS'diabetes'
p2437
ag340
asg14
S'i see you found a permanent cure for diabetes!'
p2438
sg16
S' best i can do is 5 bucks'
p2439
sg18
Vpawn-star
p2440
sg20
(lp2441
g5
ag2431
ag2432
ag2433
ag135
ag2434
ag2435
ag2436
ag2437
ag340
aS'best'
p2442
ag5
aS'can'
p2443
aS'do'
p2444
aS'is'
p2445
ag26
aS'bucks'
p2446
asg27
(lp2447
g2442
ag5
ag2443
ag2444
ag2445
ag26
ag2446
asba(iMeme
Meme
p2448
(dp2449
g3
(lp2450
g135
aS'one'
p2451
aS'of'
p2452
ag135
aS'kind'
p2453
aS'item'
p2454
aS'valued'
p2455
aS'at'
p2456
ag9
aS'50'
p2457
asg14
S'a one of a kind item valued at $50'
p2458
sg16
S'000'
p2459
sg18
Vpawn-star
p2460
sg20
(lp2461
g135
ag2451
ag2452
ag135
ag2453
ag2454
ag2455
ag2456
ag9
ag2457
aS'000'
p2462
asg27
(lp2463
g2462
asba(iMeme
Meme
p2464
(dp2465
g3
(lp2466
g5
aS'see'
p2467
aS'you'
p2468
aS'took'
p2469
aS'15'
p2470
aS'weeks'
p2471
aS'to'
p2472
aS'make'
p2473
aS'that'
p2474
aS'textbook'
p2475
asg14
S'i see you took 15 weeks to make that textbook'
p2476
sg16
S' best i can do is $.99'
p2477
sg18
Vpawn-star
p2478
sg20
(lp2479
g5
ag2467
ag2468
ag2469
ag2470
ag2471
ag2472
ag2473
ag2474
ag2475
aS'best'
p2480
ag5
aS'can'
p2481
aS'do'
p2482
aS'is'
p2483
ag9
aS'.99'
p2484
asg27
(lp2485
g2480
ag5
ag2481
ag2482
ag2483
ag9
ag2484
asba(iMeme
Meme
p2486
(dp2487
g3
(lp2488
S'you'
p2489
aS'paid'
p2490
ag9
aS'5000'
p2491
aS'for'
p2492
aS'your'
p2493
aS'website'
p2494
ag51
asg14
S'you paid $5000 for your website?'
p2495
sg16
S' best i can offer you is 50 bucks'
p2496
sg18
Vpawn-star
p2497
sg20
(lp2498
g2489
ag2490
ag9
ag2491
ag2492
ag2493
ag2494
ag51
aS'best'
p2499
ag5
aS'can'
p2500
aS'offer'
p2501
aS'you'
p2502
aS'is'
p2503
aS'50'
p2504
aS'bucks'
p2505
asg27
(lp2506
g2499
ag5
ag2500
ag2501
ag2502
ag2503
ag2504
ag2505
asba(iMeme
Meme
p2507
(dp2508
g3
(lp2509
S'so'
p2510
aS'youre'
p2511
aS'broke'
p2512
aS'and'
p2513
aS'want'
p2514
aS'to'
p2515
aS'sell'
p2516
aS'your'
p2517
aS'harley'
p2518
asg14
S'so youre broke and want to sell your harley'
p2519
sg16
S' gas is expensive'
p2520
sg18
Vpawn-star
p2521
sg20
(lp2522
g2510
ag2511
ag2512
ag2513
ag2514
ag2515
ag2516
ag2517
ag2518
aS'gas'
p2523
aS'is'
p2524
aS'expensive'
p2525
asg27
(lp2526
g2523
ag2524
ag2525
asba.