(lp0
(iMeme
Meme
p1
(dp2
S'top_text'
p3
(lp4
S'hipsters'
p5
aS'?'
p6
asS'top_text_raw'
p7
S'hipsters? '
p8
sS'bottom_text_raw'
p9
S' we usedto call em gays '
p10
sS'meme_type'
p11
Vpepperidge-farm-remembers
p12
sS'all_text'
p13
(lp14
g5
ag6
aS'we'
p15
aS'usedto'
p16
aS'call'
p17
aS'em'
p18
aS'gays'
p19
asS'bottom_text'
p20
(lp21
g15
ag16
ag17
ag18
ag19
asba(iMeme
Meme
p22
(dp23
g3
(lp24
S'Remember'
p25
aS'when'
p26
aS'choosing'
p27
aS'a'
p28
aS'food'
p29
aS'rep'
p30
aS'was'
p31
aS'easy'
p32
ag6
asg7
S'Remember when choosing a food rep was easy? '
p33
sg9
S' Pepperidge Farm Remembers            Vote Baileigh '
p34
sg11
Vpepperidge-farm-remembers
p35
sg13
(lp36
g25
ag26
ag27
ag28
ag29
ag30
ag31
ag32
ag6
aS'Pepperidge'
p37
aS'Farm'
p38
aS'Remembers'
p39
aS'Vote'
p40
aS'Baileigh'
p41
asg20
(lp42
g37
ag38
ag39
ag40
ag41
asba(iMeme
Meme
p43
(dp44
g3
(lp45
S'remember'
p46
aS'when'
p47
aS'devin'
p48
aS'was'
p49
aS'strait'
p50
asg7
S'remember when devin was strait '
p51
sg9
S' pepperidge farm remembers '
p52
sg11
Vpepperidge-farm-remembers
p53
sg13
(lp54
g46
ag47
ag48
ag49
ag50
aS'pepperidge'
p55
aS'farm'
p56
aS'remembers'
p57
asg20
(lp58
g55
ag56
ag57
asba(iMeme
Meme
p59
(dp60
g3
(lp61
S'Remember'
p62
aS'when'
p63
aS'you'
p64
aS'had'
p65
aS'to'
p66
aS'look'
p67
aS'in'
p68
aS'the'
p69
aS'newspaper'
p70
aS'for'
p71
aS'movie'
p72
aS'times'
p73
ag6
asg7
S'Remember when you had to look in the newspaper for movie times? '
p74
sg9
S' Pepperidge farm remembers '
p75
sg11
Vpepperidge-farm-remembers
p76
sg13
(lp77
g62
ag63
ag64
ag65
ag66
ag67
ag68
ag69
ag70
ag71
ag72
ag73
ag6
aS'Pepperidge'
p78
aS'farm'
p79
aS'remembers'
p80
asg20
(lp81
g78
ag79
ag80
asba(iMeme
Meme
p82
(dp83
g3
(lp84
S'Remember'
p85
aS'when'
p86
aS'an'
p87
aS'oil'
p88
aS'change'
p89
aS'used'
p90
aS'to'
p91
aS'cost'
p92
aS'$'
p93
aS'20'
p94
aS'and'
p95
aS'was'
p96
aS'10'
p97
aS'min'
p98
aS'or'
p99
aS'less'
p100
ag6
asg7
S'Remember when an oil change used to cost $20 and was 10 min or less? '
p101
sg9
S' Pepperidge Farm Remembers '
p102
sg11
Vpepperidge-farm-remembers
p103
sg13
(lp104
g85
ag86
ag87
ag88
ag89
ag90
ag91
ag92
ag93
ag94
ag95
ag96
ag97
ag98
ag99
ag100
ag6
aS'Pepperidge'
p105
aS'Farm'
p106
aS'Remembers'
p107
asg20
(lp108
g105
ag106
ag107
asba(iMeme
Meme
p109
(dp110
g3
(lp111
S'Remember'
p112
aS'when'
p113
aS'America'
p114
aS'made'
p115
aS'laws'
p116
aS'based'
p117
aS'on'
p118
aS'what'
p119
aS'was'
p120
aS'morally'
p121
aS'right'
p122
aS'instead'
p123
aS'of'
p124
aS'greed'
p125
ag6
asg7
S'Remember when America made laws based on what was morally right instead of greed? '
p126
sg9
S' Pepperidge farm remembers '
p127
sg11
Vpepperidge-farm-remembers
p128
sg13
(lp129
g112
ag113
ag114
ag115
ag116
ag117
ag118
ag119
ag120
ag121
ag122
ag123
ag124
ag125
ag6
aS'Pepperidge'
p130
aS'farm'
p131
aS'remembers'
p132
asg20
(lp133
g130
ag131
ag132
asba(iMeme
Meme
p134
(dp135
g3
(lp136
S'do'
p137
aS'you'
p138
aS'remember'
p139
aS'when'
p140
aS'12'
p141
aS'year'
p142
aS'olds'
p143
aS'were'
p144
aS"n't"
p145
aS'sluts'
p146
ag6
asg7
S"do you remember when 12 year olds weren't sluts? "
p147
sg9
S' pepperidge farm remembers '
p148
sg11
Vpepperidge-farm-remembers
p149
sg13
(lp150
g137
ag138
ag139
ag140
ag141
ag142
ag143
ag144
ag145
ag146
ag6
aS'pepperidge'
p151
aS'farm'
p152
aS'remembers'
p153
asg20
(lp154
g151
ag152
ag153
asba(iMeme
Meme
p155
(dp156
g3
(lp157
S'remember'
p158
aS'when'
p159
aS'nobody'
p160
aS'knew'
p161
aS'what'
p162
aS'lime'
p163
aS'looked'
p164
aS'like'
p165
asg7
S'remember when nobody knew what lime looked like '
p166
sg9
S' pepperige farm remembers '
p167
sg11
Vpepperidge-farm-remembers
p168
sg13
(lp169
g158
ag159
ag160
ag161
ag162
ag163
ag164
ag165
aS'pepperige'
p170
aS'farm'
p171
aS'remembers'
p172
asg20
(lp173
g170
ag171
ag172
asba(iMeme
Meme
p174
(dp175
g3
(lp176
S'remember'
p177
aS'when'
p178
aS'driving'
p179
ag28
aS'high'
p180
asg7
S'remember when driving a high'
p181
sg9
S'end bmw meant you are a doctor or lawyer... '
p182
sg11
Vpepperidge-farm-remembers
p183
sg13
(lp184
g177
ag178
ag179
ag28
ag180
aS'end'
p185
aS'bmw'
p186
aS'meant'
p187
aS'you'
p188
aS'are'
p189
ag28
aS'doctor'
p190
aS'or'
p191
aS'lawyer'
p192
aS'...'
p193
asg20
(lp194
g185
ag186
ag187
ag188
ag189
ag28
ag190
ag191
ag192
ag193
asba(iMeme
Meme
p195
(dp196
g3
(lp197
S'remember'
p198
aS'when'
p199
aS'children'
p200
aS'did'
p201
aS"n't"
p202
aS'play'
p203
aS'call'
p204
aS'of'
p205
aS'duty'
p206
ag6
asg7
S"remember when children didn't play call of duty? "
p207
sg9
S' yeah, me neither. '
p208
sg11
Vpepperidge-farm-remembers
p209
sg13
(lp210
g198
ag199
ag200
ag201
ag202
ag203
ag204
ag205
ag206
ag6
aS'yeah'
p211
aS','
p212
aS'me'
p213
aS'neither'
p214
aS'.'
p215
asg20
(lp216
g211
ag212
ag213
ag214
ag215
asba(iMeme
Meme
p217
(dp218
g3
(lp219
S'Remember'
p220
aS'when'
p221
aS'we'
p222
aS'just'
p223
aS'sat'
p224
aS'in'
p225
ag28
aS'skype'
p226
aS'chat'
p227
aS'just'
p228
aS'to'
p229
aS'bad'
p230
aS'talk'
p231
ag28
aS'chat'
p232
aS'room'
p233
ag6
asg7
S'Remember when we just sat in a skype chat just to bad talk a chat room? '
p234
sg9
S' Pepperidge Farm Remembers '
p235
sg11
Vpepperidge-farm-remembers
p236
sg13
(lp237
g220
ag221
ag222
ag223
ag224
ag225
ag28
ag226
ag227
ag228
ag229
ag230
ag231
ag28
ag232
ag233
ag6
aS'Pepperidge'
p238
aS'Farm'
p239
aS'Remembers'
p240
asg20
(lp241
g238
ag239
ag240
asba(iMeme
Meme
p242
(dp243
g3
(lp244
S'remember'
p245
aS'when'
p246
aS'c4'
p247
aS'was'
p248
aS'used'
p249
aS'correctly'
p250
ag6
asg7
S'remember when c4 was used correctly? '
p251
sg9
S' Pepperidge Farm Remembers '
p252
sg11
Vpepperidge-farm-remembers
p253
sg13
(lp254
g245
ag246
ag247
ag248
ag249
ag250
ag6
aS'Pepperidge'
p255
aS'Farm'
p256
aS'Remembers'
p257
asg20
(lp258
g255
ag256
ag257
asba(iMeme
Meme
p259
(dp260
g3
(lp261
S'Remember'
p262
aS'when'
p263
aS'the'
p264
aS'mellos'
p265
aS'had'
p266
ag28
aS'section'
p267
asg7
S'Remember when the mellos had a section '
p268
sg9
S' Pepperidge Farm Remembers '
p269
sg11
Vpepperidge-farm-remembers
p270
sg13
(lp271
g262
ag263
ag264
ag265
ag266
ag28
ag267
aS'Pepperidge'
p272
aS'Farm'
p273
aS'Remembers'
p274
asg20
(lp275
g272
ag273
ag274
asba(iMeme
Meme
p276
(dp277
g3
(lp278
S'Remember'
p279
aS'when'
p280
aS'choosing'
p281
ag28
aS'food'
p282
aS'rep'
p283
aS'was'
p284
aS'easy'
p285
ag6
asg7
S'Remember when choosing a food rep was easy? '
p286
sg9
S' Pepperidge Farm Remembers               Vote Baileigh '
p287
sg11
Vpepperidge-farm-remembers
p288
sg13
(lp289
g279
ag280
ag281
ag28
ag282
ag283
ag284
ag285
ag6
aS'Pepperidge'
p290
aS'Farm'
p291
aS'Remembers'
p292
aS'Vote'
p293
aS'Baileigh'
p294
asg20
(lp295
g290
ag291
ag292
ag293
ag294
asba(iMeme
Meme
p296
(dp297
g3
(lp298
S'remember'
p299
aS'when'
p300
aS'children'
p301
aS'did'
p302
aS"n't"
p303
aS'play'
p304
aS'call'
p305
aS'of'
p306
aS'duty'
p307
ag6
asg7
S"remember when children didn't play call of duty? "
p308
sg9
S' yea, me niether. '
p309
sg11
Vpepperidge-farm-remembers
p310
sg13
(lp311
g299
ag300
ag301
ag302
ag303
ag304
ag305
ag306
ag307
ag6
aS'yea'
p312
ag212
aS'me'
p313
aS'niether'
p314
ag215
asg20
(lp315
g312
ag212
ag313
ag314
ag215
asba(iMeme
Meme
p316
(dp317
g3
(lp318
S'Remember'
p319
aS'when'
p320
aS"'twerking"
p321
aS"'"
p322
aS'was'
p323
aS'just'
p324
aS'called'
p325
aS'grinding'
p326
ag6
asg7
S"Remember when 'twerking' was just called grinding? "
p327
sg9
S' Pepperidge Farm Remembers '
p328
sg11
Vpepperidge-farm-remembers
p329
sg13
(lp330
g319
ag320
ag321
ag322
ag323
ag324
ag325
ag326
ag6
aS'Pepperidge'
p331
aS'Farm'
p332
aS'Remembers'
p333
asg20
(lp334
g331
ag332
ag333
asba(iMeme
Meme
p335
(dp336
g3
(lp337
S'Remember'
p338
aS'when'
p339
aS'the'
p340
aS'U.S'
p341
aS'Goverment'
p342
aS'had'
p343
aS'evidence'
p344
aS'of'
p345
aS'WMD'
p346
aS'in'
p347
aS'Iraq'
p348
ag6
asg7
S'Remember when the U.S Goverment had evidence of WMD in Iraq? '
p349
sg9
S' pepperidge Farm Remembers '
p350
sg11
Vpepperidge-farm-remembers
p351
sg13
(lp352
g338
ag339
ag340
ag341
ag342
ag343
ag344
ag345
ag346
ag347
ag348
ag6
aS'pepperidge'
p353
aS'Farm'
p354
aS'Remembers'
p355
asg20
(lp356
g353
ag354
ag355
asba(iMeme
Meme
p357
(dp358
g3
(lp359
S'Remember'
p360
aS'when'
p361
aS'HD'
p362
aS'used'
p363
aS'to'
p364
aS'be'
p365
aS'720p'
p366
ag6
asg7
S'Remember when HD used to be 720p? '
p367
sg9
S' Pepperidge Farm Remembers '
p368
sg11
Vpepperidge-farm-remembers
p369
sg13
(lp370
g360
ag361
ag362
ag363
ag364
ag365
ag366
ag6
aS'Pepperidge'
p371
aS'Farm'
p372
aS'Remembers'
p373
asg20
(lp374
g371
ag372
ag373
asba(iMeme
Meme
p375
(dp376
g3
(lp377
S'Remember'
p378
aS'when'
p379
aS'HD'
p380
aS'used'
p381
aS'to'
p382
aS'be'
p383
aS'720p'
p384
ag6
asg7
S'Remember when HD used to be 720p? '
p385
sg9
S' Pepperidge Farm Remembers '
p386
sg11
Vpepperidge-farm-remembers
p387
sg13
(lp388
g378
ag379
ag380
ag381
ag382
ag383
ag384
ag6
aS'Pepperidge'
p389
aS'Farm'
p390
aS'Remembers'
p391
asg20
(lp392
g389
ag390
ag391
asba(iMeme
Meme
p393
(dp394
g3
(lp395
S'Remember'
p396
aS'when'
p397
aS'Obama'
p398
aS'was'
p399
aS'good'
p400
ag6
asg7
S'Remember when Obama was good? '
p401
sg9
S' Well Pepperidge Farm doesnt ever remember him being good. '
p402
sg11
Vpepperidge-farm-remembers
p403
sg13
(lp404
g396
ag397
ag398
ag399
ag400
ag6
aS'Well'
p405
aS'Pepperidge'
p406
aS'Farm'
p407
aS'doesnt'
p408
aS'ever'
p409
aS'remember'
p410
aS'him'
p411
aS'being'
p412
aS'good'
p413
ag215
asg20
(lp414
g405
ag406
ag407
ag408
ag409
ag410
ag411
ag412
ag413
ag215
asba(iMeme
Meme
p415
(dp416
g3
(lp417
S'remember'
p418
aS'when'
p419
aS'having'
p420
ag28
aS'deadline'
p421
aS'meant'
p422
aS'actually'
p423
aS'completing'
p424
aS'something'
p425
aS'on'
p426
aS'time'
p427
asg7
S'remember when having a deadline meant actually completing something on time '
p428
sg9
S' pepperidge farm remembers '
p429
sg11
Vpepperidge-farm-remembers
p430
sg13
(lp431
g418
ag419
ag420
ag28
ag421
ag422
ag423
ag424
ag425
ag426
ag427
aS'pepperidge'
p432
aS'farm'
p433
aS'remembers'
p434
asg20
(lp435
g432
ag433
ag434
asba(iMeme
Meme
p436
(dp437
g3
(lp438
S'Do'
p439
aS'you'
p440
aS'remember'
p441
aS'everyone'
p442
aS"'s"
p443
aS'anger'
p444
aS'over'
p445
aS'the'
p446
aS'Zimmerman'
p447
aS'trial'
p448
ag6
asg7
S"Do you remember everyone's anger over the Zimmerman trial? "
p449
sg9
S' Pepperidge Farm remembers '
p450
sg11
Vpepperidge-farm-remembers
p451
sg13
(lp452
g439
ag440
ag441
ag442
ag443
ag444
ag445
ag446
ag447
ag448
ag6
aS'Pepperidge'
p453
aS'Farm'
p454
aS'remembers'
p455
asg20
(lp456
g453
ag454
ag455
asba(iMeme
Meme
p457
(dp458
g3
(lp459
S'Remember'
p460
aS'when'
p461
aS'9GAG'
p462
aS'was'
p463
aS'full'
p464
aS'of'
p465
aS'Fernando'
p466
aS'Torres'
p467
aS'jokes'
p468
ag6
asg7
S'Remember when 9GAG was full of Fernando Torres jokes? '
p469
sg9
S' Pepperidge Farm Remembers '
p470
sg11
Vpepperidge-farm-remembers
p471
sg13
(lp472
g460
ag461
ag462
ag463
ag464
ag465
ag466
ag467
ag468
ag6
aS'Pepperidge'
p473
aS'Farm'
p474
aS'Remembers'
p475
asg20
(lp476
g473
ag474
ag475
asba(iMeme
Meme
p477
(dp478
g3
(lp479
S'Remember'
p480
aS'when'
p481
aS'choosing'
p482
ag28
aS'food'
p483
aS'rep'
p484
aS'was'
p485
aS'easy'
p486
ag6
asg7
S'Remember when choosing a food rep was easy? '
p487
sg9
S' Pepperidge Farm Remembers          Vote Baileigh '
p488
sg11
Vpepperidge-farm-remembers
p489
sg13
(lp490
g480
ag481
ag482
ag28
ag483
ag484
ag485
ag486
ag6
aS'Pepperidge'
p491
aS'Farm'
p492
aS'Remembers'
p493
aS'Vote'
p494
aS'Baileigh'
p495
asg20
(lp496
g491
ag492
ag493
ag494
ag495
asba(iMeme
Meme
p497
(dp498
g3
(lp499
S'remember'
p500
aS'when'
p501
aS'techno'
p502
aS'was'
p503
aS'called'
p504
aS'techno'
p505
aS'and'
p506
aS'not'
p507
aS'EDM'
p508
ag6
asg7
S'remember when techno was called techno and not EDM? '
p509
sg9
S' Pepperidge Farm Remembers '
p510
sg11
Vpepperidge-farm-remembers
p511
sg13
(lp512
g500
ag501
ag502
ag503
ag504
ag505
ag506
ag507
ag508
ag6
aS'Pepperidge'
p513
aS'Farm'
p514
aS'Remembers'
p515
asg20
(lp516
g513
ag514
ag515
asba(iMeme
Meme
p517
(dp518
g3
(lp519
S'Remember'
p520
aS'when'
p521
aS'our'
p522
aS'covers'
p523
aS'were'
p524
aS'not'
p525
aS'so'
p526
aS'terrible'
p527
aS'as'
p528
aS'they'
p529
aS'are'
p530
aS'now'
p531
ag6
asg7
S'Remember when our covers were not so terrible as they are now? '
p532
sg9
S' pepperidge farm remembers '
p533
sg11
Vpepperidge-farm-remembers
p534
sg13
(lp535
g520
ag521
ag522
ag523
ag524
ag525
ag526
ag527
ag528
ag529
ag530
ag531
ag6
aS'pepperidge'
p536
aS'farm'
p537
aS'remembers'
p538
asg20
(lp539
g536
ag537
ag538
asba(iMeme
Meme
p540
(dp541
g3
(lp542
S'remember'
p543
aS'when'
p544
aS'livememe'
p545
aS'worked'
p546
ag6
asg7
S'remember when livememe worked? '
p547
sg9
S' pepperidge farm remembers '
p548
sg11
Vpepperidge-farm-remembers
p549
sg13
(lp550
g543
ag544
ag545
ag546
ag6
aS'pepperidge'
p551
aS'farm'
p552
aS'remembers'
p553
asg20
(lp554
g551
ag552
ag553
asba(iMeme
Meme
p555
(dp556
g3
(lp557
S'Remember'
p558
aS'when'
p559
aS'driving'
p560
aS'an'
p561
aS'expensive'
p562
aS'bmw'
p563
aS'meant'
p564
aS'you'
p565
aS'are'
p566
ag28
aS'doctor'
p567
aS'or'
p568
aS'lawyer'
p569
ag6
asg7
S'Remember when driving an expensive bmw meant you are a doctor or lawyer? '
p570
sg9
S' not a rich italian asshole? pepperidge farm remembers '
p571
sg11
Vpepperidge-farm-remembers
p572
sg13
(lp573
g558
ag559
ag560
ag561
ag562
ag563
ag564
ag565
ag566
ag28
ag567
ag568
ag569
ag6
aS'not'
p574
ag28
aS'rich'
p575
aS'italian'
p576
aS'asshole'
p577
ag6
aS'pepperidge'
p578
aS'farm'
p579
aS'remembers'
p580
asg20
(lp581
g574
ag28
ag575
ag576
ag577
ag6
ag578
ag579
ag580
asba(iMeme
Meme
p582
(dp583
g3
(lp584
S'Remember'
p585
aS'when'
p586
aS'English'
p587
aS'was'
p588
aS'just'
p589
aS'writing'
p590
aS'papers'
p591
ag6
asg7
S'Remember when English was just writing papers? '
p592
sg9
S' Pepperidge Farm Remembers '
p593
sg11
Vpepperidge-farm-remembers
p594
sg13
(lp595
g585
ag586
ag587
ag588
ag589
ag590
ag591
ag6
aS'Pepperidge'
p596
aS'Farm'
p597
aS'Remembers'
p598
asg20
(lp599
g596
ag597
ag598
asba(iMeme
Meme
p600
(dp601
g3
(lp602
S'remember'
p603
aS'when'
p604
aS'you'
p605
aS'could'
p606
aS'plug'
p607
ag28
aS'USB'
p608
aS'into'
p609
ag28
aS'work'
p610
aS'station'
p611
aS'without'
p612
aS'an'
p613
aS'IT'
p614
aS'going'
p615
aS'ape'
p616
aS'shit'
p617
ag6
asg7
S'remember when you could plug a USB into a work station without an IT going ape shit? '
p618
sg9
S' pepperidge farm remembers '
p619
sg11
Vpepperidge-farm-remembers
p620
sg13
(lp621
g603
ag604
ag605
ag606
ag607
ag28
ag608
ag609
ag28
ag610
ag611
ag612
ag613
ag614
ag615
ag616
ag617
ag6
aS'pepperidge'
p622
aS'farm'
p623
aS'remembers'
p624
asg20
(lp625
g622
ag623
ag624
asba(iMeme
Meme
p626
(dp627
g3
(lp628
S'Do'
p629
aS'you'
p630
aS'remember'
p631
aS'when'
p632
aS'there'
p633
aS'were'
p634
aS'funny'
p635
aS'posts'
p636
aS'on'
p637
aS'9gag'
p638
ag6
asg7
S'Do you remember when there were funny posts on 9gag? '
p639
sg9
S' Pepperidge farm does '
p640
sg11
Vpepperidge-farm-remembers
p641
sg13
(lp642
g629
ag630
ag631
ag632
ag633
ag634
ag635
ag636
ag637
ag638
ag6
aS'Pepperidge'
p643
aS'farm'
p644
aS'does'
p645
asg20
(lp646
g643
ag644
ag645
asba(iMeme
Meme
p647
(dp648
g3
(lp649
S'remember'
p650
aS'when'
p651
aS'the'
p652
aS'government'
p653
aS'was'
p654
aS"n't"
p655
aS'spying'
p656
aS'on'
p657
aS'us'
p658
ag6
asg7
S"remember when the government wasn't spying on us? "
p659
sg9
S' Pepperidge farm remembers  '
p660
sg11
Vpepperidge-farm-remembers
p661
sg13
(lp662
g650
ag651
ag652
ag653
ag654
ag655
ag656
ag657
ag658
ag6
aS'Pepperidge'
p663
aS'farm'
p664
aS'remembers'
p665
asg20
(lp666
g663
ag664
ag665
asba(iMeme
Meme
p667
(dp668
g3
(lp669
S'Remember'
p670
aS'when'
p671
aS'english'
p672
aS'class'
p673
aS'was'
p674
aS'just'
p675
aS'writing'
p676
aS'papers'
p677
ag6
asg7
S'Remember when english class was just writing papers? '
p678
sg9
S' Pepperidge Farm Remembers '
p679
sg11
Vpepperidge-farm-remembers
p680
sg13
(lp681
g670
ag671
ag672
ag673
ag674
ag675
ag676
ag677
ag6
aS'Pepperidge'
p682
aS'Farm'
p683
aS'Remembers'
p684
asg20
(lp685
g682
ag683
ag684
asba(iMeme
Meme
p686
(dp687
g3
(lp688
S'Remember'
p689
aS'when'
p690
aS'our'
p691
aS'government'
p692
aS'spied'
p693
aS'on'
p694
aS'us'
p695
ag212
aS'Syria'
p696
aS'was'
p697
aS'about'
p698
aS'to'
p699
aS'blow'
p700
aS'up'
p701
ag212
aS'we'
p702
aS'were'
p703
aS'at'
p704
aS'war'
p705
ag212
aS'killing'
p706
aS'people'
p707
ag6
asg7
S'Remember when our government spied on us, Syria was about to blow up, we were at war, killing people? '
p708
sg9
S' Pepperidge Farm remembers '
p709
sg11
Vpepperidge-farm-remembers
p710
sg13
(lp711
g689
ag690
ag691
ag692
ag693
ag694
ag695
ag212
ag696
ag697
ag698
ag699
ag700
ag701
ag212
ag702
ag703
ag704
ag705
ag212
ag706
ag707
ag6
aS'Pepperidge'
p712
aS'Farm'
p713
aS'remembers'
p714
asg20
(lp715
g712
ag713
ag714
asba(iMeme
Meme
p716
(dp717
g3
(lp718
S'Remeber'
p719
aS'when'
p720
aS'the'
p721
aS'``'
p722
aS'Hashtag'
p723
aS"''"
p724
aS'was'
p725
aS'known'
p726
aS'as'
p727
ag28
aS'``'
p728
aS'Pound'
p729
aS'Key'
p730
aS"''"
p731
asg7
S'Remeber when the "Hashtag" was known as a "Pound Key" '
p732
sg9
S' Pepperidge Farm remebers '
p733
sg11
Vpepperidge-farm-remembers
p734
sg13
(lp735
g719
ag720
ag721
ag722
ag723
ag724
ag725
ag726
ag727
ag28
ag728
ag729
ag730
ag731
aS'Pepperidge'
p736
aS'Farm'
p737
aS'remebers'
p738
asg20
(lp739
g736
ag737
ag738
asba(iMeme
Meme
p740
(dp741
g3
(lp742
sg7
S' '
p743
sg9
S' oh yeah Pepperidge Farm Remembers '
p744
sg11
Vpepperidge-farm-remembers
p745
sg13
(lp746
S'oh'
p747
aS'yeah'
p748
aS'Pepperidge'
p749
aS'Farm'
p750
aS'Remembers'
p751
asg20
(lp752
g747
ag748
ag749
ag750
ag751
asba(iMeme
Meme
p753
(dp754
g3
(lp755
S'Remember'
p756
aS'when'
p757
aS'HD'
p758
aS'used'
p759
aS'to'
p760
aS'be'
p761
aS'720'
p762
aS'p'
p763
asg7
S'Remember when HD used to be 720 p '
p764
sg9
S' Pepperidge Farm Remembers '
p765
sg11
Vpepperidge-farm-remembers
p766
sg13
(lp767
g756
ag757
ag758
ag759
ag760
ag761
ag762
ag763
aS'Pepperidge'
p768
aS'Farm'
p769
aS'Remembers'
p770
asg20
(lp771
g768
ag769
ag770
asba(iMeme
Meme
p772
(dp773
g3
(lp774
S'Do'
p775
aS'you'
p776
aS'remember'
p777
aS'when'
p778
aS'our'
p779
aS'government'
p780
aS'was'
p781
aS'spying'
p782
aS'on'
p783
aS'us'
p784
ag212
aS'and'
p785
aS'we'
p786
aS'were'
p787
aS'at'
p788
aS'war'
p789
ag212
aS'killing'
p790
aS'people'
p791
ag6
asg7
S'Do you remember when our government was spying on us, and we were at war, killing people? '
p792
sg9
S' Pepperidge Farm remembers '
p793
sg11
Vpepperidge-farm-remembers
p794
sg13
(lp795
g775
ag776
ag777
ag778
ag779
ag780
ag781
ag782
ag783
ag784
ag212
ag785
ag786
ag787
ag788
ag789
ag212
ag790
ag791
ag6
aS'Pepperidge'
p796
aS'Farm'
p797
aS'remembers'
p798
asg20
(lp799
g796
ag797
ag798
asba(iMeme
Meme
p800
(dp801
g3
(lp802
S'Remember'
p803
aS'when'
p804
aS'cloud'
p805
aS'backup'
p806
aS'was'
p807
aS'new'
p808
aS'and'
p809
aS'unexplored'
p810
ag6
asg7
S'Remember when cloud backup was new and unexplored? '
p811
sg9
S' KineticD Remembers '
p812
sg11
Vpepperidge-farm-remembers
p813
sg13
(lp814
g803
ag804
ag805
ag806
ag807
ag808
ag809
ag810
ag6
aS'KineticD'
p815
aS'Remembers'
p816
asg20
(lp817
g815
ag816
asba(iMeme
Meme
p818
(dp819
g3
(lp820
S'Remember'
p821
aS'when'
p822
aS'the'
p823
aS'Patriot'
p824
aS'Act'
p825
aS'was'
p826
aS'only'
p827
aS'noticed'
p828
aS'at'
p829
aS'airports'
p830
asg7
S'Remember when the Patriot Act was only noticed at airports '
p831
sg9
S' Pepperidge Farm Remembers '
p832
sg11
Vpepperidge-farm-remembers
p833
sg13
(lp834
g821
ag822
ag823
ag824
ag825
ag826
ag827
ag828
ag829
ag830
aS'Pepperidge'
p835
aS'Farm'
p836
aS'Remembers'
p837
asg20
(lp838
g835
ag836
ag837
asba(iMeme
Meme
p839
(dp840
g3
(lp841
S'Remember'
p842
aS'when'
p843
aS'you'
p844
aS'used'
p845
aS'to'
p846
aS'stay'
p847
aS'up'
p848
aS'late'
p849
aS'to'
p850
aS'watch'
p851
aS'Blue'
p852
aS'Nuit'
p853
aS'on'
p854
aS'the'
p855
aS'french'
p856
aS'channel'
p857
aS'when'
p858
aS'you'
p859
aS'were'
p860
aS'young'
p861
ag6
asg7
S'Remember when you used to stay up late to watch Blue Nuit on the french channel when you were young? '
p862
sg9
S' Pepperidge Farm remembers. '
p863
sg11
Vpepperidge-farm-remembers
p864
sg13
(lp865
g842
ag843
ag844
ag845
ag846
ag847
ag848
ag849
ag850
ag851
ag852
ag853
ag854
ag855
ag856
ag857
ag858
ag859
ag860
ag861
ag6
aS'Pepperidge'
p866
aS'Farm'
p867
aS'remembers'
p868
ag215
asg20
(lp869
g866
ag867
ag868
ag215
asba(iMeme
Meme
p870
(dp871
g3
(lp872
S'Remember'
p873
aS'when'
p874
aS'treating'
p875
aS'someone'
p876
aS'with'
p877
aS'respect'
p878
aS'was'
p879
aS'important'
p880
aS';'
p881
aS'especially'
p882
aS'if'
p883
aS'they'
p884
aS'were'
p885
aS'your'
p886
aS'elders'
p887
ag6
asg7
S'Remember when treating someone with respect was important; especially if they were your elders? '
p888
sg9
S' Pepperidge farm remembers....some teenagers these days not so much '
p889
sg11
Vpepperidge-farm-remembers
p890
sg13
(lp891
g873
ag874
ag875
ag876
ag877
ag878
ag879
ag880
ag881
ag882
ag883
ag884
ag885
ag886
ag887
ag6
aS'Pepperidge'
p892
aS'farm'
p893
aS'remembers'
p894
aS'...'
p895
aS'.some'
p896
aS'teenagers'
p897
aS'these'
p898
aS'days'
p899
aS'not'
p900
aS'so'
p901
aS'much'
p902
asg20
(lp903
g892
ag893
ag894
ag895
ag896
ag897
ag898
ag899
ag900
ag901
ag902
asba(iMeme
Meme
p904
(dp905
g3
(lp906
S'Remember'
p907
aS'when'
p908
aS'Saturday'
p909
aS'morning'
p910
aS'cartoons'
p911
aS'were'
p912
aS'worth'
p913
aS'watching'
p914
ag6
asg7
S'Remember when Saturday morning cartoons were worth    watching? '
p915
sg9
S' Pepperidge Farm Remembers '
p916
sg11
Vpepperidge-farm-remembers
p917
sg13
(lp918
g907
ag908
ag909
ag910
ag911
ag912
ag913
ag914
ag6
aS'Pepperidge'
p919
aS'Farm'
p920
aS'Remembers'
p921
asg20
(lp922
g919
ag920
ag921
asba(iMeme
Meme
p923
(dp924
g3
(lp925
S'Remember'
p926
aS'when'
p927
aS'the'
p928
aS'U.S'
p929
aS'Government'
p930
aS'had'
p931
aS'evidence'
p932
aS'of'
p933
aS'WMD'
p934
aS'in'
p935
aS'Iraq'
p936
ag6
asg7
S'Remember when the U.S Government had evidence of WMD in Iraq? '
p937
sg9
S' pepperidge Farm Remembers '
p938
sg11
Vpepperidge-farm-remembers
p939
sg13
(lp940
g926
ag927
ag928
ag929
ag930
ag931
ag932
ag933
ag934
ag935
ag936
ag6
aS'pepperidge'
p941
aS'Farm'
p942
aS'Remembers'
p943
asg20
(lp944
g941
ag942
ag943
asba(iMeme
Meme
p945
(dp946
g3
(lp947
S'Do'
p948
aS'you'
p949
aS'remember'
p950
ag28
aS'time'
p951
aS'when'
p952
aS'Daniel'
p953
aS'was'
p954
aS'not'
p955
aS'depressed'
p956
asg7
S'Do you remember a time when Daniel was not depressed '
p957
sg9
S" Even pepperidge Farm doesn't remember "
p958
sg11
Vpepperidge-farm-remembers
p959
sg13
(lp960
g948
ag949
ag950
ag28
ag951
ag952
ag953
ag954
ag955
ag956
aS'Even'
p961
aS'pepperidge'
p962
aS'Farm'
p963
aS'does'
p964
aS"n't"
p965
aS'remember'
p966
asg20
(lp967
g961
ag962
ag963
ag964
ag965
ag966
asba(iMeme
Meme
p968
(dp969
g3
(lp970
S'Remember'
p971
aS'when'
p972
aS'snipers'
p973
aS'were'
p974
aS'used'
p975
aS'in'
p976
aS'long'
p977
aS'range'
p978
ag6
asg7
S'Remember when snipers were used in long range? '
p979
sg9
S' Pepperidge Farm Remembers '
p980
sg11
Vpepperidge-farm-remembers
p981
sg13
(lp982
g971
ag972
ag973
ag974
ag975
ag976
ag977
ag978
ag6
aS'Pepperidge'
p983
aS'Farm'
p984
aS'Remembers'
p985
asg20
(lp986
g983
ag984
ag985
asba(iMeme
Meme
p987
(dp988
g3
(lp989
S'Remember'
p990
aS'when'
p991
aS'tic'
p992
asg7
S'Remember when tic'
p993
sg9
S'tacs were just mints? '
p994
sg11
Vpepperidge-farm-remembers
p995
sg13
(lp996
g990
ag991
ag992
aS'tacs'
p997
aS'were'
p998
aS'just'
p999
aS'mints'
p1000
ag6
asg20
(lp1001
g997
ag998
ag999
ag1000
ag6
asba(iMeme
Meme
p1002
(dp1003
g3
(lp1004
S'remember'
p1005
aS'when'
p1006
aS'the'
p1007
aS'middle'
p1008
aS'class'
p1009
aS'existed'
p1010
ag6
asg7
S'remember when the middle class existed? '
p1011
sg9
S' peppridge farm remembers. '
p1012
sg11
Vpepperidge-farm-remembers
p1013
sg13
(lp1014
g1005
ag1006
ag1007
ag1008
ag1009
ag1010
ag6
aS'peppridge'
p1015
aS'farm'
p1016
aS'remembers'
p1017
ag215
asg20
(lp1018
g1015
ag1016
ag1017
ag215
asba(iMeme
Meme
p1019
(dp1020
g3
(lp1021
S'Remember'
p1022
aS'when'
p1023
aS'you'
p1024
aS'used'
p1025
aS'to'
p1026
aS'charge'
p1027
aS'3'
p1028
aS'hours'
p1029
aS'per'
p1030
aS'load'
p1031
ag6
asg7
S'Remember when you used to charge 3 hours per load? '
p1032
sg9
S' PEPPERIDGE FARM REMEMBERS '
p1033
sg11
Vpepperidge-farm-remembers
p1034
sg13
(lp1035
g1022
ag1023
ag1024
ag1025
ag1026
ag1027
ag1028
ag1029
ag1030
ag1031
ag6
aS'PEPPERIDGE'
p1036
aS'FARM'
p1037
aS'REMEMBERS'
p1038
asg20
(lp1039
g1036
ag1037
ag1038
asba(iMeme
Meme
p1040
(dp1041
g3
(lp1042
S'Remember'
p1043
aS'when'
p1044
aS'youtube'
p1045
aS'used'
p1046
aS'to'
p1047
aS'actually'
p1048
aS'work'
p1049
ag6
asg7
S'Remember when youtube used to actually work? '
p1050
sg9
S' pepperidge farm remembers '
p1051
sg11
Vpepperidge-farm-remembers
p1052
sg13
(lp1053
g1043
ag1044
ag1045
ag1046
ag1047
ag1048
ag1049
ag6
aS'pepperidge'
p1054
aS'farm'
p1055
aS'remembers'
p1056
asg20
(lp1057
g1054
ag1055
ag1056
asba(iMeme
Meme
p1058
(dp1059
g3
(lp1060
S'remember'
p1061
aS'when'
p1062
aS'driving'
p1063
ag28
aS'high'
p1064
asg7
S'remember when driving a high'
p1065
sg9
S'end bmw meant you are a doctor or lawyer...  '
p1066
sg11
Vpepperidge-farm-remembers
p1067
sg13
(lp1068
g1061
ag1062
ag1063
ag28
ag1064
aS'end'
p1069
aS'bmw'
p1070
aS'meant'
p1071
aS'you'
p1072
aS'are'
p1073
ag28
aS'doctor'
p1074
aS'or'
p1075
aS'lawyer'
p1076
aS'...'
p1077
asg20
(lp1078
g1069
ag1070
ag1071
ag1072
ag1073
ag28
ag1074
ag1075
ag1076
ag1077
asba(iMeme
Meme
p1079
(dp1080
g3
(lp1081
S'remember'
p1082
aS'when'
p1083
aS'driving'
p1084
ag28
aS'high'
p1085
asg7
S'remember when driving a high'
p1086
sg9
S'end bmw meant you are a doctor or lawyer...  '
p1087
sg11
Vpepperidge-farm-remembers
p1088
sg13
(lp1089
g1082
ag1083
ag1084
ag28
ag1085
aS'end'
p1090
aS'bmw'
p1091
aS'meant'
p1092
aS'you'
p1093
aS'are'
p1094
ag28
aS'doctor'
p1095
aS'or'
p1096
aS'lawyer'
p1097
aS'...'
p1098
asg20
(lp1099
g1090
ag1091
ag1092
ag1093
ag1094
ag28
ag1095
ag1096
ag1097
ag1098
asba(iMeme
Meme
p1100
(dp1101
g3
(lp1102
S'eat'
p1103
aS'this'
p1104
asg7
S'eat this '
p1105
sg9
S' its cocan '
p1106
sg11
Vpepperidge-farm-remembers
p1107
sg13
(lp1108
g1103
ag1104
aS'its'
p1109
aS'cocan'
p1110
asg20
(lp1111
g1109
ag1110
asba(iMeme
Meme
p1112
(dp1113
g3
(lp1114
S'Remember'
p1115
aS'when'
p1116
aS'he'
p1117
aS'was'
p1118
aS'excited'
p1119
aS'about'
p1120
aS'his'
p1121
aS'job'
p1122
ag6
asg7
S'Remember when he was excited about his job? '
p1123
sg9
S' Pepperidge farm remembers '
p1124
sg11
Vpepperidge-farm-remembers
p1125
sg13
(lp1126
g1115
ag1116
ag1117
ag1118
ag1119
ag1120
ag1121
ag1122
ag6
aS'Pepperidge'
p1127
aS'farm'
p1128
aS'remembers'
p1129
asg20
(lp1130
g1127
ag1128
ag1129
asba(iMeme
Meme
p1131
(dp1132
g3
(lp1133
S'Remember'
p1134
aS'when'
p1135
aS'James'
p1136
aS'Labrie'
p1137
aS'could'
p1138
aS'sing'
p1139
ag6
asg7
S'Remember when James Labrie could sing? '
p1140
sg9
S' Neither can Pepperidge Farms '
p1141
sg11
Vpepperidge-farm-remembers
p1142
sg13
(lp1143
g1134
ag1135
ag1136
ag1137
ag1138
ag1139
ag6
aS'Neither'
p1144
aS'can'
p1145
aS'Pepperidge'
p1146
aS'Farms'
p1147
asg20
(lp1148
g1144
ag1145
ag1146
ag1147
asba(iMeme
Meme
p1149
(dp1150
g3
(lp1151
S'remember'
p1152
aS'when'
p1153
aS'you'
p1154
aS'could'
p1155
aS'plug'
p1156
ag28
aS'USB'
p1157
aS'into'
p1158
ag28
aS'work'
p1159
aS'station'
p1160
aS'without'
p1161
aS'IT'
p1162
aS"'s"
p1163
aS'going'
p1164
aS'ape'
p1165
aS'shit'
p1166
ag6
asg7
S"remember when you could plug a USB into a work station without IT's going ape shit? "
p1167
sg9
S' pepperidge farm remembers '
p1168
sg11
Vpepperidge-farm-remembers
p1169
sg13
(lp1170
g1152
ag1153
ag1154
ag1155
ag1156
ag28
ag1157
ag1158
ag28
ag1159
ag1160
ag1161
ag1162
ag1163
ag1164
ag1165
ag1166
ag6
aS'pepperidge'
p1171
aS'farm'
p1172
aS'remembers'
p1173
asg20
(lp1174
g1171
ag1172
ag1173
asba(iMeme
Meme
p1175
(dp1176
g3
(lp1177
S'Remember'
p1178
aS'when'
p1179
aS'you'
p1180
aS'could'
p1181
aS'turn'
p1182
aS'on'
p1183
aS'your'
p1184
aS'Tv'
p1185
aS'with'
p1186
aS'only'
p1187
aS'one'
p1188
aS'remote'
p1189
ag6
asg7
S'Remember when you could turn on your Tv with only one remote? '
p1190
sg9
S' Pepperidge Farm remembers '
p1191
sg11
Vpepperidge-farm-remembers
p1192
sg13
(lp1193
g1178
ag1179
ag1180
ag1181
ag1182
ag1183
ag1184
ag1185
ag1186
ag1187
ag1188
ag1189
ag6
aS'Pepperidge'
p1194
aS'Farm'
p1195
aS'remembers'
p1196
asg20
(lp1197
g1194
ag1195
ag1196
asba(iMeme
Meme
p1198
(dp1199
g3
(lp1200
S'Remember'
p1201
aS'when'
p1202
aS'you'
p1203
aS'could'
p1204
aS'film'
p1205
aS'someone'
p1206
aS'piss'
p1207
aS'and'
p1208
aS'no'
p1209
aS'one'
p1210
aS'would'
p1211
aS'care'
p1212
ag6
asg7
S'Remember when you could film someone piss and no one would care? '
p1213
sg9
S' Pepperidge Farm Remembers '
p1214
sg11
Vpepperidge-farm-remembers
p1215
sg13
(lp1216
g1201
ag1202
ag1203
ag1204
ag1205
ag1206
ag1207
ag1208
ag1209
ag1210
ag1211
ag1212
ag6
aS'Pepperidge'
p1217
aS'Farm'
p1218
aS'Remembers'
p1219
asg20
(lp1220
g1217
ag1218
ag1219
asba(iMeme
Meme
p1221
(dp1222
g3
(lp1223
S'Do'
p1224
aS'you'
p1225
aS'remember'
p1226
aS'the'
p1227
aS'last'
p1228
aS'time'
p1229
aS'scott'
p1230
aS'made'
p1231
ag28
aS'good'
p1232
aS'insult'
p1233
ag6
asg7
S'Do you remember the last time scott made a good insult? '
p1234
sg9
S' pepperidge farm remembes '
p1235
sg11
Vpepperidge-farm-remembers
p1236
sg13
(lp1237
g1224
ag1225
ag1226
ag1227
ag1228
ag1229
ag1230
ag1231
ag28
ag1232
ag1233
ag6
aS'pepperidge'
p1238
aS'farm'
p1239
aS'remembes'
p1240
asg20
(lp1241
g1238
ag1239
ag1240
asba(iMeme
Meme
p1242
(dp1243
g3
(lp1244
S'remember'
p1245
aS'when'
p1246
aS'we'
p1247
aS'trusted'
p1248
aS'the'
p1249
aS'government'
p1250
ag6
asg7
S'remember when we trusted the government? '
p1251
sg9
S' pepperidge farms remembers '
p1252
sg11
Vpepperidge-farm-remembers
p1253
sg13
(lp1254
g1245
ag1246
ag1247
ag1248
ag1249
ag1250
ag6
aS'pepperidge'
p1255
aS'farms'
p1256
aS'remembers'
p1257
asg20
(lp1258
g1255
ag1256
ag1257
asba(iMeme
Meme
p1259
(dp1260
g3
(lp1261
S'Remember'
p1262
aS'when'
p1263
aS'we'
p1264
aS'were'
p1265
aS'talking'
p1266
aS'about'
p1267
aS'movies'
p1268
asg7
S'Remember when we were talking about movies '
p1269
sg9
S' PepPeridge farm remembers '
p1270
sg11
Vpepperidge-farm-remembers
p1271
sg13
(lp1272
g1262
ag1263
ag1264
ag1265
ag1266
ag1267
ag1268
aS'PepPeridge'
p1273
aS'farm'
p1274
aS'remembers'
p1275
asg20
(lp1276
g1273
ag1274
ag1275
asba(iMeme
Meme
p1277
(dp1278
g3
(lp1279
S'remember'
p1280
aS'when'
p1281
aS'catching'
p1282
aS'kony'
p1283
aS'was'
p1284
aS'the'
p1285
aS'most'
p1286
aS'important'
p1287
aS'thing'
p1288
aS'to'
p1289
aS'reddit'
p1290
ag6
asg7
S'remember when catching kony was the most important thing to reddit? '
p1291
sg9
S' pepperidge farm remembers '
p1292
sg11
Vpepperidge-farm-remembers
p1293
sg13
(lp1294
g1280
ag1281
ag1282
ag1283
ag1284
ag1285
ag1286
ag1287
ag1288
ag1289
ag1290
ag6
aS'pepperidge'
p1295
aS'farm'
p1296
aS'remembers'
p1297
asg20
(lp1298
g1295
ag1296
ag1297
asba(iMeme
Meme
p1299
(dp1300
g3
(lp1301
S'Remember'
p1302
aS'when'
p1303
aS'EveryBRONY'
p1304
aS'was'
p1305
aS'Worrying'
p1306
aS'about'
p1307
aS'EQUESTRIA'
p1308
aS'GIRLS'
p1309
aS'and'
p1310
aS'saying'
p1311
aS'it'
p1312
aS'was'
p1313
aS'gon'
p1314
aS'na'
p1315
aS'SUCK'
p1316
ag6
asg7
S'Remember when EveryBRONY was Worrying about EQUESTRIA GIRLS and saying it was gonna SUCK? '
p1317
sg9
S' Pepperidge Farm Remembers... '
p1318
sg11
Vpepperidge-farm-remembers
p1319
sg13
(lp1320
g1302
ag1303
ag1304
ag1305
ag1306
ag1307
ag1308
ag1309
ag1310
ag1311
ag1312
ag1313
ag1314
ag1315
ag1316
ag6
aS'Pepperidge'
p1321
aS'Farm'
p1322
aS'Remembers'
p1323
aS'...'
p1324
asg20
(lp1325
g1321
ag1322
ag1323
ag1324
asba(iMeme
Meme
p1326
(dp1327
g3
(lp1328
S'remember'
p1329
aS'when'
p1330
aS'tv'
p1331
aS'shows'
p1332
aS'wer'
p1333
aS"n't"
p1334
aS'all'
p1335
aS'shit'
p1336
asg7
S"remember when tv shows wern't all shit "
p1337
sg9
S' pepperidge farm remembers... '
p1338
sg11
Vpepperidge-farm-remembers
p1339
sg13
(lp1340
g1329
ag1330
ag1331
ag1332
ag1333
ag1334
ag1335
ag1336
aS'pepperidge'
p1341
aS'farm'
p1342
aS'remembers'
p1343
aS'...'
p1344
asg20
(lp1345
g1341
ag1342
ag1343
ag1344
asba(iMeme
Meme
p1346
(dp1347
g3
(lp1348
S'Remember'
p1349
aS'when'
p1350
aS'your'
p1351
aS'memes'
p1352
aS'were'
p1353
aS'funny'
p1354
ag6
asg7
S'Remember when your memes were funny? '
p1355
sg9
S' Neither does Pepperidge Farm '
p1356
sg11
Vpepperidge-farm-remembers
p1357
sg13
(lp1358
g1349
ag1350
ag1351
ag1352
ag1353
ag1354
ag6
aS'Neither'
p1359
aS'does'
p1360
aS'Pepperidge'
p1361
aS'Farm'
p1362
asg20
(lp1363
g1359
ag1360
ag1361
ag1362
asba(iMeme
Meme
p1364
(dp1365
g3
(lp1366
S'Do'
p1367
aS'you'
p1368
aS'remember'
p1369
aS'when'
p1370
aS'cats'
p1371
aS'where'
p1372
aS'safe'
p1373
ag6
asg7
S'Do you remember when cats where safe?  '
p1374
sg9
S' Pepperidge farm rememBers  '
p1375
sg11
Vpepperidge-farm-remembers
p1376
sg13
(lp1377
g1367
ag1368
ag1369
ag1370
ag1371
ag1372
ag1373
ag6
aS'Pepperidge'
p1378
aS'farm'
p1379
aS'rememBers'
p1380
asg20
(lp1381
g1378
ag1379
ag1380
asba(iMeme
Meme
p1382
(dp1383
g3
(lp1384
S'Remember'
p1385
aS'when'
p1386
aS'silver'
p1387
aS'was'
p1388
aS'good'
p1389
asg7
S'Remember when silver was good '
p1390
sg9
S' pepperidge farm remember '
p1391
sg11
Vpepperidge-farm-remembers
p1392
sg13
(lp1393
g1385
ag1386
ag1387
ag1388
ag1389
aS'pepperidge'
p1394
aS'farm'
p1395
aS'remember'
p1396
asg20
(lp1397
g1394
ag1395
ag1396
asba(iMeme
Meme
p1398
(dp1399
g3
(lp1400
S'Remember'
p1401
aS'ontario'
p1402
ag6
asg7
S'Remember ontario? '
p1403
sg9
S' ...Fred remembers '
p1404
sg11
Vpepperidge-farm-remembers
p1405
sg13
(lp1406
g1401
ag1402
ag6
aS'...'
p1407
aS'Fred'
p1408
aS'remembers'
p1409
asg20
(lp1410
g1407
ag1408
ag1409
asba(iMeme
Meme
p1411
(dp1412
g3
(lp1413
S'Remember'
p1414
aS'jokes'
p1415
aS'about'
p1416
aS'9gag'
p1417
aS'stealing'
p1418
aS'people'
p1419
aS"'s"
p1420
aS'souls'
p1421
ag6
asg7
S"Remember jokes about 9gag stealing people's souls? "
p1422
sg9
S' Pepperidge farm remembers '
p1423
sg11
Vpepperidge-farm-remembers
p1424
sg13
(lp1425
g1414
ag1415
ag1416
ag1417
ag1418
ag1419
ag1420
ag1421
ag6
aS'Pepperidge'
p1426
aS'farm'
p1427
aS'remembers'
p1428
asg20
(lp1429
g1426
ag1427
ag1428
asba(iMeme
Meme
p1430
(dp1431
g3
(lp1432
S'do'
p1433
aS'you'
p1434
aS'remember'
p1435
aS'when'
p1436
aS'scott'
p1437
aS'still'
p1438
aS'had'
p1439
ag28
aS'chance'
p1440
aS'with'
p1441
aS'erin'
p1442
asg7
S'do you remember when scott still had a chance with erin '
p1443
sg9
S' pepperidge farm remembers '
p1444
sg11
Vpepperidge-farm-remembers
p1445
sg13
(lp1446
g1433
ag1434
ag1435
ag1436
ag1437
ag1438
ag1439
ag28
ag1440
ag1441
ag1442
aS'pepperidge'
p1447
aS'farm'
p1448
aS'remembers'
p1449
asg20
(lp1450
g1447
ag1448
ag1449
asba(iMeme
Meme
p1451
(dp1452
g3
(lp1453
S'Remember'
p1454
aS'automatic'
p1455
aS'seatbelts'
p1456
ag6
asg7
S'Remember automatic seatbelts? '
p1457
sg9
S' Pepperidge Farm remembers. That shit was cool.  '
p1458
sg11
Vpepperidge-farm-remembers
p1459
sg13
(lp1460
g1454
ag1455
ag1456
ag6
aS'Pepperidge'
p1461
aS'Farm'
p1462
aS'remembers'
p1463
ag215
aS'That'
p1464
aS'shit'
p1465
aS'was'
p1466
aS'cool'
p1467
ag215
asg20
(lp1468
g1461
ag1462
ag1463
ag215
ag1464
ag1465
ag1466
ag1467
ag215
asba(iMeme
Meme
p1469
(dp1470
g3
(lp1471
S'Remember'
p1472
aS'when'
p1473
aS'``'
p1474
aS'Nsfw'
p1475
aS"''"
p1476
aS'meant'
p1477
aS'nudity'
p1478
ag212
aS'and'
p1479
aS'not'
p1480
aS'dead'
p1481
aS'people'
p1482
aS'and'
p1483
aS'gore'
p1484
ag6
asg7
S'Remember when "Nsfw" meant nudity, and not dead people and gore? '
p1485
sg9
S'  Pepperidge farm remembers. '
p1486
sg11
Vpepperidge-farm-remembers
p1487
sg13
(lp1488
g1472
ag1473
ag1474
ag1475
ag1476
ag1477
ag1478
ag212
ag1479
ag1480
ag1481
ag1482
ag1483
ag1484
ag6
aS'Pepperidge'
p1489
aS'farm'
p1490
aS'remembers'
p1491
ag215
asg20
(lp1492
g1489
ag1490
ag1491
ag215
asba(iMeme
Meme
p1493
(dp1494
g3
(lp1495
S'remember'
p1496
aS'when'
p1497
aS'futurama'
p1498
aS'made'
p1499
aS'this'
p1500
aS'joke'
p1501
aS'in'
p1502
aS'1999'
p1503
ag6
asg7
S'remember when futurama made this joke in 1999? '
p1504
sg9
S' pepperidge farm remembers '
p1505
sg11
Vpepperidge-farm-remembers
p1506
sg13
(lp1507
g1496
ag1497
ag1498
ag1499
ag1500
ag1501
ag1502
ag1503
ag6
aS'pepperidge'
p1508
aS'farm'
p1509
aS'remembers'
p1510
asg20
(lp1511
g1508
ag1509
ag1510
asba(iMeme
Meme
p1512
(dp1513
g3
(lp1514
S'Remember'
p1515
aS'how'
p1516
aS'shitty'
p1517
aS'your'
p1518
aS'first'
p1519
aS'time'
p1520
aS'was'
p1521
ag6
asg7
S'Remember how shitty your first time was? '
p1522
sg9
S' NSA remembers. '
p1523
sg11
Vpepperidge-farm-remembers
p1524
sg13
(lp1525
g1515
ag1516
ag1517
ag1518
ag1519
ag1520
ag1521
ag6
aS'NSA'
p1526
aS'remembers'
p1527
ag215
asg20
(lp1528
g1526
ag1527
ag215
asba(iMeme
Meme
p1529
(dp1530
g3
(lp1531
S'Remember'
p1532
aS'when'
p1533
aS'Cops'
p1534
aS'were'
p1535
aS'the'
p1536
aS'good'
p1537
aS'guys'
p1538
aS'and'
p1539
aS'were'
p1540
aS'looked'
p1541
aS'up'
p1542
aS'to'
p1543
aS'in'
p1544
aS'society'
p1545
ag6
asg7
S'Remember when Cops were the good guys and were looked up to in society? '
p1546
sg9
S' Pepperidge farm remebers '
p1547
sg11
Vpepperidge-farm-remembers
p1548
sg13
(lp1549
g1532
ag1533
ag1534
ag1535
ag1536
ag1537
ag1538
ag1539
ag1540
ag1541
ag1542
ag1543
ag1544
ag1545
ag6
aS'Pepperidge'
p1550
aS'farm'
p1551
aS'remebers'
p1552
asg20
(lp1553
g1550
ag1551
ag1552
asba.