(lp0
(iMeme
Meme
p1
(dp2
S'top_text'
p3
(lp4
S'I'
p5
aS'may'
p6
aS'not'
p7
aS'be'
p8
aS'the'
p9
aS'best'
p10
aS'looking'
p11
aS'guy'
p12
aS'here'
p13
asS'top_text_raw'
p14
S'I may not be the best looking guy here '
p15
sS'bottom_text_raw'
p16
S' But im the only one talking to you'
p17
sS'meme_type'
p18
Vpickup-line-panda
p19
sS'all_text'
p20
(lp21
g5
ag6
ag7
ag8
ag9
ag10
ag11
ag12
ag13
aS'But'
p22
aS'im'
p23
aS'the'
p24
aS'only'
p25
aS'one'
p26
aS'talking'
p27
aS'to'
p28
aS'you'
p29
asS'bottom_text'
p30
(lp31
g22
ag23
ag24
ag25
ag26
ag27
ag28
ag29
asba(iMeme
Meme
p32
(dp33
g3
(lp34
S'What'
p35
aS"'s"
p36
aS'easier'
p37
aS'to'
p38
aS'pick'
p39
aS'up'
p40
aS'the'
p41
aS'heavier'
p42
aS'it'
p43
aS'gets'
p44
aS'?'
p45
asg14
S"What's easier to pick up the heavier it gets? "
p46
sg16
S' women'
p47
sg18
Vpickup-line-panda
p48
sg20
(lp49
g35
ag36
ag37
ag38
ag39
ag40
ag41
ag42
ag43
ag44
ag45
aS'women'
p50
asg30
(lp51
g50
asba(iMeme
Meme
p52
(dp53
g3
(lp54
S'Would'
p55
aS'you'
p56
aS'like'
p57
aS'to'
p58
aS'dance'
p59
ag45
aS"''"
p60
asg14
S'Would you like to dance?" '
p61
sg16
S' with you? no '
p62
sg18
Vpickup-line-panda
p63
sg20
(lp64
g55
ag56
ag57
ag58
ag59
ag45
ag60
aS'with'
p65
aS'you'
p66
ag45
aS'no'
p67
asg30
(lp68
g65
ag66
ag45
ag67
asba(iMeme
Meme
p69
(dp70
g3
(lp71
S'i'
p72
aS"'m"
p73
aS'not'
p74
aS'too'
p75
aS'picky'
p76
aS','
p77
ag5
aS'ask'
p78
aS'for'
p79
aS'only'
p80
aS'one'
p81
aS'thing'
p82
aS'in'
p83
aS'a'
p84
aS'woman'
p85
asg14
S"i'm not too picky, I ask for only one thing in a woman "
p86
sg16
S' my penis'
p87
sg18
Vpickup-line-panda
p88
sg20
(lp89
g72
ag73
ag74
ag75
ag76
ag77
ag5
ag78
ag79
ag80
ag81
ag82
ag83
ag84
ag85
aS'my'
p90
aS'penis'
p91
asg30
(lp92
g90
ag91
asba(iMeme
Meme
p93
(dp94
g3
(lp95
S'Are'
p96
aS'you'
p97
ag84
aS'doctor'
p98
ag45
asg14
S'Are you a doctor? '
p99
sg16
S' Because you just cured my erectile disfunction'
p100
sg18
Vpickup-line-panda
p101
sg20
(lp102
g96
ag97
ag84
ag98
ag45
aS'Because'
p103
aS'you'
p104
aS'just'
p105
aS'cured'
p106
aS'my'
p107
aS'erectile'
p108
aS'disfunction'
p109
asg30
(lp110
g103
ag104
ag105
ag106
ag107
ag108
ag109
asba(iMeme
Meme
p111
(dp112
g3
(lp113
S'roses'
p114
aS'are'
p115
aS'red'
p116
aS'violets'
p117
aS'are'
p118
aS'blue'
p119
asg14
S'roses are red  violets are blue '
p120
sg16
S' i suck at poetry show me your tits'
p121
sg18
Vpickup-line-panda
p122
sg20
(lp123
g114
ag115
ag116
ag117
ag118
ag119
ag72
aS'suck'
p124
aS'at'
p125
aS'poetry'
p126
aS'show'
p127
aS'me'
p128
aS'your'
p129
aS'tits'
p130
asg30
(lp131
g72
ag124
ag125
ag126
ag127
ag128
ag129
ag130
asba(iMeme
Meme
p132
(dp133
g3
(lp134
S'What'
p135
aS'do'
p136
aS'Biochem'
p137
aS'and'
p138
aS'my'
p139
aS'penis'
p140
aS'have'
p141
aS'in'
p142
aS'common'
p143
asg14
S'What do Biochem and my penis have in common '
p144
sg16
S' they are both hard for you'
p145
sg18
Vpickup-line-panda
p146
sg20
(lp147
g135
ag136
ag137
ag138
ag139
ag140
ag141
ag142
ag143
aS'they'
p148
aS'are'
p149
aS'both'
p150
aS'hard'
p151
aS'for'
p152
aS'you'
p153
asg30
(lp154
g148
ag149
ag150
ag151
ag152
ag153
asba(iMeme
Meme
p155
(dp156
g3
(lp157
g5
aS'may'
p158
aS'not'
p159
aS'be'
p160
aS'black'
p161
aS'all'
p162
aS'over'
p163
asg14
S'I may not be black all over '
p164
sg16
S" But I'm black where it counts"
p165
sg18
Vpickup-line-panda
p166
sg20
(lp167
g5
ag158
ag159
ag160
ag161
ag162
ag163
aS'But'
p168
ag5
aS"'m"
p169
aS'black'
p170
aS'where'
p171
aS'it'
p172
aS'counts'
p173
asg30
(lp174
g168
ag5
ag169
ag170
ag171
ag172
ag173
asba(iMeme
Meme
p175
(dp176
g3
(lp177
S'How'
p178
aS"d'you"
p179
aS'get'
p180
ag84
aS'fat'
p181
aS'chick'
p182
aS'into'
p183
aS'bed'
p184
ag45
asg14
S"How d'you get a fat chick into bed? "
p185
sg16
S' Piece of cake.'
p186
sg18
Vpickup-line-panda
p187
sg20
(lp188
g178
ag179
ag180
ag84
ag181
ag182
ag183
ag184
ag45
aS'Piece'
p189
aS'of'
p190
aS'cake'
p191
aS'.'
p192
asg30
(lp193
g189
ag190
ag191
ag192
asba(iMeme
Meme
p194
(dp195
g3
(lp196
S'If'
p197
ag5
aS'could'
p198
aS'rearrange'
p199
aS'the'
p200
aS'alphabet'
p201
asg14
S'If I could rearrange the alphabet '
p202
sg16
S" I'd put my dick in your ass"
p203
sg18
Vpickup-line-panda
p204
sg20
(lp205
g197
ag5
ag198
ag199
ag200
ag201
ag5
aS"'d"
p206
aS'put'
p207
aS'my'
p208
aS'dick'
p209
aS'in'
p210
aS'your'
p211
aS'ass'
p212
asg30
(lp213
g5
ag206
ag207
ag208
ag209
ag210
ag211
ag212
asba(iMeme
Meme
p214
(dp215
g3
(lp216
S'Are'
p217
aS'you'
p218
aS'an'
p219
aS'angel'
p220
asg14
S'Are you an angel '
p221
sg16
S' because I have an erection'
p222
sg18
Vpickup-line-panda
p223
sg20
(lp224
g217
ag218
ag219
ag220
aS'because'
p225
ag5
aS'have'
p226
aS'an'
p227
aS'erection'
p228
asg30
(lp229
g225
ag5
ag226
ag227
ag228
asba(iMeme
Meme
p230
(dp231
g3
(lp232
g5
aS'WOULD'
p233
aS'call'
p234
aS'Heaven'
p235
aS'and'
p236
aS'tell'
p237
aS'them'
p238
aS'an'
p239
aS'angel'
p240
aS'was'
p241
aS'missing'
p242
ag77
asg14
S'I WOULD call Heaven and tell them an angel was missing, '
p243
sg16
S" But I'm kinda hoping you're a slut."
p244
sg18
Vpickup-line-panda
p245
sg20
(lp246
g5
ag233
ag234
ag235
ag236
ag237
ag238
ag239
ag240
ag241
ag242
ag77
aS'But'
p247
ag5
aS"'m"
p248
aS'kinda'
p249
aS'hoping'
p250
aS'you'
p251
aS"'re"
p252
ag84
aS'slut'
p253
ag192
asg30
(lp254
g247
ag5
ag248
ag249
ag250
ag251
ag252
ag84
ag253
ag192
asba(iMeme
Meme
p255
(dp256
g3
(lp257
S'baby'
p258
ag77
aS'You'
p259
aS'remind'
p260
aS'me'
p261
aS'of'
p262
aS'my'
p263
aS'big'
p264
aS'toe'
p265
asg14
S'baby, You remind me of my big toe  '
p266
sg16
S" i'd bang you on the coffee table"
p267
sg18
Vpickup-line-panda
p268
sg20
(lp269
g258
ag77
ag259
ag260
ag261
ag262
ag263
ag264
ag265
ag72
aS"'d"
p270
aS'bang'
p271
aS'you'
p272
aS'on'
p273
aS'the'
p274
aS'coffee'
p275
aS'table'
p276
asg30
(lp277
g72
ag270
ag271
ag272
ag273
ag274
ag275
ag276
asba(iMeme
Meme
p278
(dp279
g3
(lp280
S'Are'
p281
aS'you'
p282
aS'from'
p283
aS'heaven'
p284
ag45
asg14
S'Are you from heaven? '
p285
sg16
S' Because I have an erection.'
p286
sg18
Vpickup-line-panda
p287
sg20
(lp288
g281
ag282
ag283
ag284
ag45
aS'Because'
p289
ag5
aS'have'
p290
aS'an'
p291
aS'erection'
p292
ag192
asg30
(lp293
g289
ag5
ag290
ag291
ag292
ag192
asba(iMeme
Meme
p294
(dp295
g3
(lp296
S'If'
p297
aS'you'
p298
aS'were'
p299
ag84
aS'shin'
p300
asg14
S'If you were a shin '
p301
sg16
S" I'd bang you on my coffee table"
p302
sg18
Vpickup-line-panda
p303
sg20
(lp304
g297
ag298
ag299
ag84
ag300
ag5
aS"'d"
p305
aS'bang'
p306
aS'you'
p307
aS'on'
p308
aS'my'
p309
aS'coffee'
p310
aS'table'
p311
asg30
(lp312
g5
ag305
ag306
ag307
ag308
ag309
ag310
ag311
asba(iMeme
Meme
p313
(dp314
g3
(lp315
S'Are'
p316
aS'you'
p317
ag84
aS'parking'
p318
aS'ticket'
p319
ag45
asg14
S'Are you a parking ticket? '
p320
sg16
S" Because I'm not going to pay you"
p321
sg18
Vpickup-line-panda
p322
sg20
(lp323
g316
ag317
ag84
ag318
ag319
ag45
aS'Because'
p324
ag5
aS"'m"
p325
aS'not'
p326
aS'going'
p327
aS'to'
p328
aS'pay'
p329
aS'you'
p330
asg30
(lp331
g324
ag5
ag325
ag326
ag327
ag328
ag329
ag330
asba(iMeme
Meme
p332
(dp333
g3
(lp334
S'Duct'
p335
aS'tape'
p336
asg14
S'Duct tape '
p337
sg16
S' Turning no, no, no, into Mmm, mmm, mmm...'
p338
sg18
Vpickup-line-panda
p339
sg20
(lp340
g335
ag336
aS'Turning'
p341
aS'no'
p342
ag77
aS'no'
p343
ag77
aS'no'
p344
ag77
aS'into'
p345
aS'Mmm'
p346
ag77
aS'mmm'
p347
ag77
aS'mmm'
p348
aS'...'
p349
asg30
(lp350
g341
ag342
ag77
ag343
ag77
ag344
ag77
ag345
ag346
ag77
ag347
ag77
ag348
ag349
asba(iMeme
Meme
p351
(dp352
g3
(lp353
g5
aS'am'
p354
aS'wasted'
p355
asg14
S'I am wasted '
p356
sg16
S" But the condom in my wallet doesn't have to be."
p357
sg18
Vpickup-line-panda
p358
sg20
(lp359
g5
ag354
ag355
aS'But'
p360
aS'the'
p361
aS'condom'
p362
aS'in'
p363
aS'my'
p364
aS'wallet'
p365
aS'does'
p366
aS"n't"
p367
aS'have'
p368
aS'to'
p369
aS'be'
p370
ag192
asg30
(lp371
g360
ag361
ag362
ag363
ag364
ag365
ag366
ag367
ag368
ag369
ag370
ag192
asba(iMeme
Meme
p372
(dp373
g3
(lp374
S'Hey'
p375
aS'baby'
p376
ag77
aS'you'
p377
aS'know'
p378
aS'how'
p379
ag5
aS'know'
p380
aS'we'
p381
aS"'re"
p382
aS'gon'
p383
aS'na'
p384
aS'have'
p385
aS'sex'
p386
aS'tonight'
p387
ag45
asg14
S"Hey baby, you know how I know we're gonna have sex tonight? "
p388
sg16
S" Because I'm stronger."
p389
sg18
Vpickup-line-panda
p390
sg20
(lp391
g375
ag376
ag77
ag377
ag378
ag379
ag5
ag380
ag381
ag382
ag383
ag384
ag385
ag386
ag387
ag45
aS'Because'
p392
ag5
aS"'m"
p393
aS'stronger'
p394
ag192
asg30
(lp395
g392
ag5
ag393
ag394
ag192
asba(iMeme
Meme
p396
(dp397
g3
(lp398
S'If'
p399
ag5
aS'were'
p400
aS'to'
p401
aS'ask'
p402
aS'you'
p403
aS'out'
p404
asg14
S'If I were to ask you out '
p405
sg16
S' would your answer be the same as the answer to this question?'
p406
sg18
Vpickup-line-panda
p407
sg20
(lp408
g399
ag5
ag400
ag401
ag402
ag403
ag404
aS'would'
p409
aS'your'
p410
aS'answer'
p411
aS'be'
p412
aS'the'
p413
aS'same'
p414
aS'as'
p415
aS'the'
p416
aS'answer'
p417
aS'to'
p418
aS'this'
p419
aS'question'
p420
ag45
asg30
(lp421
g409
ag410
ag411
ag412
ag413
ag414
ag415
ag416
ag417
ag418
ag419
ag420
ag45
asba(iMeme
Meme
p422
(dp423
g3
(lp424
S'Do'
p425
aS'you'
p426
aS'work'
p427
aS'on'
p428
ag84
aS'chicken'
p429
aS'farm'
p430
ag45
asg14
S'Do you work on a chicken farm? '
p431
sg16
S' Because you sure know how to raise cocks!'
p432
sg18
Vpickup-line-panda
p433
sg20
(lp434
g425
ag426
ag427
ag428
ag84
ag429
ag430
ag45
aS'Because'
p435
aS'you'
p436
aS'sure'
p437
aS'know'
p438
aS'how'
p439
aS'to'
p440
aS'raise'
p441
aS'cocks'
p442
aS'!'
p443
asg30
(lp444
g435
ag436
ag437
ag438
ag439
ag440
ag441
ag442
ag443
asba(iMeme
Meme
p445
(dp446
g3
(lp447
S'Are'
p448
aS'you'
p449
ag84
aS'drill'
p450
aS'sergeant'
p451
ag45
asg14
S'Are you a drill sergeant? '
p452
sg16
S" Cause you've got my privates standing at attention."
p453
sg18
Vpickup-line-panda
p454
sg20
(lp455
g448
ag449
ag84
ag450
ag451
ag45
aS'Cause'
p456
aS'you'
p457
aS"'ve"
p458
aS'got'
p459
aS'my'
p460
aS'privates'
p461
aS'standing'
p462
aS'at'
p463
aS'attention'
p464
ag192
asg30
(lp465
g456
ag457
ag458
ag459
ag460
ag461
ag462
ag463
ag464
ag192
asba(iMeme
Meme
p466
(dp467
g3
(lp468
S'That'
p469
aS'dress'
p470
aS'is'
p471
aS'very'
p472
aS'becoming'
p473
aS'on'
p474
aS'you'
p475
asg14
S'That dress is very becoming on you '
p476
sg16
S" Then again if i were on you i'd be coming too"
p477
sg18
Vpickup-line-panda
p478
sg20
(lp479
g469
ag470
ag471
ag472
ag473
ag474
ag475
aS'Then'
p480
aS'again'
p481
aS'if'
p482
ag72
aS'were'
p483
aS'on'
p484
aS'you'
p485
ag72
aS"'d"
p486
aS'be'
p487
aS'coming'
p488
aS'too'
p489
asg30
(lp490
g480
ag481
ag482
ag72
ag483
ag484
ag485
ag72
ag486
ag487
ag488
ag489
asba(iMeme
Meme
p491
(dp492
g3
(lp493
g5
aS'must'
p494
aS'be'
p495
aS'an'
p496
aS'Umlaut'
p497
asg14
S'I must be an Umlaut '
p498
sg16
S' cause i can see myself on top of u.'
p499
sg18
Vpickup-line-panda
p500
sg20
(lp501
g5
ag494
ag495
ag496
ag497
aS'cause'
p502
ag72
aS'can'
p503
aS'see'
p504
aS'myself'
p505
aS'on'
p506
aS'top'
p507
aS'of'
p508
aS'u'
p509
ag192
asg30
(lp510
g502
ag72
ag503
ag504
ag505
ag506
ag507
ag508
ag509
ag192
asba(iMeme
Meme
p511
(dp512
g3
(lp513
S'U'
p514
aS'have'
p515
ag84
aS'boyfriend'
p516
ag45
asg14
S'U have a boyfriend? '
p517
sg16
S' U want a MANfriend?'
p518
sg18
Vpickup-line-panda
p519
sg20
(lp520
g514
ag515
ag84
ag516
ag45
ag514
aS'want'
p521
ag84
aS'MANfriend'
p522
ag45
asg30
(lp523
g514
ag521
ag84
ag522
ag45
asba(iMeme
Meme
p524
(dp525
g3
(lp526
S'Are'
p527
aS'You'
p528
aS'vitamin'
p529
aS'D'
p530
ag45
asg14
S'Are You vitamin D? '
p531
sg16
S" Cause you're making my bone hard"
p532
sg18
Vpickup-line-panda
p533
sg20
(lp534
g527
ag528
ag529
ag530
ag45
aS'Cause'
p535
aS'you'
p536
aS"'re"
p537
aS'making'
p538
aS'my'
p539
aS'bone'
p540
aS'hard'
p541
asg30
(lp542
g535
ag536
ag537
ag538
ag539
ag540
ag541
asba(iMeme
Meme
p543
(dp544
g3
(lp545
S'How'
p546
aS'do'
p547
aS'You'
p548
aS'like'
p549
aS'your'
p550
aS'eggs'
p551
aS'in'
p552
aS'the'
p553
aS'morning'
p554
ag77
asg14
S'How do You like your eggs in the morning, '
p555
sg16
S' Scrambled or fertilized?'
p556
sg18
Vpickup-line-panda
p557
sg20
(lp558
g546
ag547
ag548
ag549
ag550
ag551
ag552
ag553
ag554
ag77
aS'Scrambled'
p559
aS'or'
p560
aS'fertilized'
p561
ag45
asg30
(lp562
g559
ag560
ag561
ag45
asba(iMeme
Meme
p563
(dp564
g3
(lp565
S'is'
p566
aS'your'
p567
aS'dad'
p568
ag84
aS'baker'
p569
ag45
asg14
S'is your dad a baker? '
p570
sg16
S' cuz you have huge tits'
p571
sg18
Vpickup-line-panda
p572
sg20
(lp573
g566
ag567
ag568
ag84
ag569
ag45
aS'cuz'
p574
aS'you'
p575
aS'have'
p576
aS'huge'
p577
aS'tits'
p578
asg30
(lp579
g574
ag575
ag576
ag577
ag578
asba(iMeme
Meme
p580
(dp581
g3
(lp582
S'Would'
p583
aS'you'
p584
aS'like'
p585
aS'some'
p586
aS'rasins'
p587
ag45
asg14
S'Would you like some rasins ? '
p588
sg16
S' No?   how about a date ?'
p589
sg18
Vpickup-line-panda
p590
sg20
(lp591
g583
ag584
ag585
ag586
ag587
ag45
aS'No'
p592
ag45
aS'how'
p593
aS'about'
p594
ag84
aS'date'
p595
ag45
asg30
(lp596
g592
ag45
ag593
ag594
ag84
ag595
ag45
asba(iMeme
Meme
p597
(dp598
g3
(lp599
S'do'
p600
aS'you'
p601
aS'work'
p602
aS'at'
p603
aS'subway'
p604
ag45
asg14
S'do you work at subway? '
p605
sg16
S' cuz you just gave me a footlong'
p606
sg18
Vpickup-line-panda
p607
sg20
(lp608
g600
ag601
ag602
ag603
ag604
ag45
aS'cuz'
p609
aS'you'
p610
aS'just'
p611
aS'gave'
p612
aS'me'
p613
ag84
aS'footlong'
p614
asg30
(lp615
g609
ag610
ag611
ag612
ag613
ag84
ag614
asba(iMeme
Meme
p616
(dp617
g3
(lp618
g5
aS"'ll"
p619
aS'have'
p620
aS'the'
p621
aS'chicken'
p622
aS'breast'
p623
asg14
S"I'll have the chicken breast "
p624
sg16
S' Hold the chicken'
p625
sg18
Vpickup-line-panda
p626
sg20
(lp627
g5
ag619
ag620
ag621
ag622
ag623
aS'Hold'
p628
aS'the'
p629
aS'chicken'
p630
asg30
(lp631
g628
ag629
ag630
asba(iMeme
Meme
p632
(dp633
g3
(lp634
g5
aS"'ve"
p635
aS'got'
p636
aS'ice'
p637
aS'cream'
p638
aS'upstairs'
p639
ag192
asg14
S"I've got ice cream upstairs. "
p640
sg16
S' You wanna fuck?'
p641
sg18
Vpickup-line-panda
p642
sg20
(lp643
g5
ag635
ag636
ag637
ag638
ag639
ag192
aS'You'
p644
aS'wan'
p645
aS'na'
p646
aS'fuck'
p647
ag45
asg30
(lp648
g644
ag645
ag646
ag647
ag45
asba(iMeme
Meme
p649
(dp650
g3
(lp651
S'Roses'
p652
aS'are'
p653
aS'red'
p654
ag77
aS'violets'
p655
aS'are'
p656
aS'blue'
p657
asg14
S'Roses are red,  violets are blue '
p658
sg16
S' Let me fuck the shit, out of you'
p659
sg18
Vpickup-line-panda
p660
sg20
(lp661
g652
ag653
ag654
ag77
ag655
ag656
ag657
aS'Let'
p662
aS'me'
p663
aS'fuck'
p664
aS'the'
p665
aS'shit'
p666
ag77
aS'out'
p667
aS'of'
p668
aS'you'
p669
asg30
(lp670
g662
ag663
ag664
ag665
ag666
ag77
ag667
ag668
ag669
asba(iMeme
Meme
p671
(dp672
g3
(lp673
S'Would'
p674
aS'you'
p675
aS'like'
p676
aS'to'
p677
aS'come'
p678
aS'back'
p679
aS'to'
p680
aS'my'
p681
aS'place'
p682
asg14
S'Would you like to come back to my place '
p683
sg16
S' to watch cartoons and have cereal?'
p684
sg18
Vpickup-line-panda
p685
sg20
(lp686
g674
ag675
ag676
ag677
ag678
ag679
ag680
ag681
ag682
aS'to'
p687
aS'watch'
p688
aS'cartoons'
p689
aS'and'
p690
aS'have'
p691
aS'cereal'
p692
ag45
asg30
(lp693
g687
ag688
ag689
ag690
ag691
ag692
ag45
asba(iMeme
Meme
p694
(dp695
g3
(lp696
S'Are'
p697
aS'you'
p698
aS'old'
p699
aS'enough'
p700
aS'to'
p701
aS'count'
p702
ag45
asg14
S'Are you old enough to count? '
p703
sg16
S' then your old enough to mount'
p704
sg18
Vpickup-line-panda
p705
sg20
(lp706
g697
ag698
ag699
ag700
ag701
ag702
ag45
aS'then'
p707
aS'your'
p708
aS'old'
p709
aS'enough'
p710
aS'to'
p711
aS'mount'
p712
asg30
(lp713
g707
ag708
ag709
ag710
ag711
ag712
asba(iMeme
Meme
p714
(dp715
g3
(lp716
S'What'
p717
aS"'s"
p718
ag84
aS'nice'
p719
aS'girl'
p720
aS'like'
p721
aS'you'
p722
asg14
S"What's a nice girl like you "
p723
sg16
S' cost for half an hour?'
p724
sg18
Vpickup-line-panda
p725
sg20
(lp726
g717
ag718
ag84
ag719
ag720
ag721
ag722
aS'cost'
p727
aS'for'
p728
aS'half'
p729
aS'an'
p730
aS'hour'
p731
ag45
asg30
(lp732
g727
ag728
ag729
ag730
ag731
ag45
asba(iMeme
Meme
p733
(dp734
g3
(lp735
S'You'
p736
aS'must'
p737
aS'have'
p738
aS'farted'
p739
aS'...'
p740
asg14
S'You must have farted... '
p741
sg16
S' Cuz you blew me away'
p742
sg18
Vpickup-line-panda
p743
sg20
(lp744
g736
ag737
ag738
ag739
ag740
aS'Cuz'
p745
aS'you'
p746
aS'blew'
p747
aS'me'
p748
aS'away'
p749
asg30
(lp750
g745
ag746
ag747
ag748
ag749
asba(iMeme
Meme
p751
(dp752
g3
(lp753
g5
aS'should'
p754
aS"'ve"
p755
aS'brought'
p756
aS'my'
p757
aS'library'
p758
aS'card'
p759
asg14
S"I should've brought my library card "
p760
sg16
S' Cause I wanna check you out'
p761
sg18
Vpickup-line-panda
p762
sg20
(lp763
g5
ag754
ag755
ag756
ag757
ag758
ag759
aS'Cause'
p764
ag5
aS'wan'
p765
aS'na'
p766
aS'check'
p767
aS'you'
p768
aS'out'
p769
asg30
(lp770
g764
ag5
ag765
ag766
ag767
ag768
ag769
asba(iMeme
Meme
p771
(dp772
g3
(lp773
S'is'
p774
aS'that'
p775
ag84
aS'mirror'
p776
aS'in'
p777
aS'your'
p778
aS'pants'
p779
ag45
asg14
S'is that a mirror in your pants? '
p780
sg16
S' cause i can see myself inside them'
p781
sg18
Vpickup-line-panda
p782
sg20
(lp783
g774
ag775
ag84
ag776
ag777
ag778
ag779
ag45
aS'cause'
p784
ag72
aS'can'
p785
aS'see'
p786
aS'myself'
p787
aS'inside'
p788
aS'them'
p789
asg30
(lp790
g784
ag72
ag785
ag786
ag787
ag788
ag789
asba(iMeme
Meme
p791
(dp792
g3
(lp793
S'are'
p794
aS'you'
p795
aS'from'
p796
aS'tennessee'
p797
ag45
asg14
S'are you from tennessee?  '
p798
sg16
S' cause youre the only ten i see'
p799
sg18
Vpickup-line-panda
p800
sg20
(lp801
g794
ag795
ag796
ag797
ag45
aS'cause'
p802
aS'youre'
p803
aS'the'
p804
aS'only'
p805
aS'ten'
p806
ag72
aS'see'
p807
asg30
(lp808
g802
ag803
ag804
ag805
ag806
ag72
ag807
asba(iMeme
Meme
p809
(dp810
g3
(lp811
S'Are'
p812
aS'you'
p813
ag84
aS'mary'
p814
aS'Kay'
p815
aS'rep'
p816
ag45
asg14
S'Are you a  mary Kay rep? '
p817
sg16
S" Because you're giving me lipstick."
p818
sg18
Vpickup-line-panda
p819
sg20
(lp820
g812
ag813
ag84
ag814
ag815
ag816
ag45
aS'Because'
p821
aS'you'
p822
aS"'re"
p823
aS'giving'
p824
aS'me'
p825
aS'lipstick'
p826
ag192
asg30
(lp827
g821
ag822
ag823
ag824
ag825
ag826
ag192
asba(iMeme
Meme
p828
(dp829
g3
(lp830
S'If'
p831
ag5
aS'could'
p832
aS'rearrange'
p833
aS'the'
p834
aS'alphabet'
p835
ag77
asg14
S'If I could rearrange the alphabet, '
p836
sg16
S' I would put f-U-C-K-M-E together'
p837
sg18
Vpickup-line-panda
p838
sg20
(lp839
g831
ag5
ag832
ag833
ag834
ag835
ag77
ag5
aS'would'
p840
aS'put'
p841
aS'f-U-C-K-M-E'
p842
aS'together'
p843
asg30
(lp844
g5
ag840
ag841
ag842
ag843
asba(iMeme
Meme
p845
(dp846
g3
(lp847
S'If'
p848
aS'you'
p849
aS'were'
p850
aS'an'
p851
aS'anmial'
p852
ag77
aS'you'
p853
aS"'d"
p854
aS'be'
p855
ag84
aS'bear'
p856
asg14
S"If you were an anmial, you'd be a bear "
p857
sg16
S' So you could bear my children'
p858
sg18
Vpickup-line-panda
p859
sg20
(lp860
g848
ag849
ag850
ag851
ag852
ag77
ag853
ag854
ag855
ag84
ag856
aS'So'
p861
aS'you'
p862
aS'could'
p863
aS'bear'
p864
aS'my'
p865
aS'children'
p866
asg30
(lp867
g861
ag862
ag863
ag864
ag865
ag866
asba(iMeme
Meme
p868
(dp869
g3
(lp870
S'Do'
p871
aS'you'
p872
aS'have'
p873
ag84
aS'map'
p874
ag45
asg14
S'Do you have a map? '
p875
sg16
S' Because I want to find my way into your pants.'
p876
sg18
Vpickup-line-panda
p877
sg20
(lp878
g871
ag872
ag873
ag84
ag874
ag45
aS'Because'
p879
ag5
aS'want'
p880
aS'to'
p881
aS'find'
p882
aS'my'
p883
aS'way'
p884
aS'into'
p885
aS'your'
p886
aS'pants'
p887
ag192
asg30
(lp888
g879
ag5
ag880
ag881
ag882
ag883
ag884
ag885
ag886
ag887
ag192
asba(iMeme
Meme
p889
(dp890
g3
(lp891
S'So'
p892
ag77
aS'where'
p893
aS'are'
p894
aS'you'
p895
aS'from'
p896
ag45
asg14
S'So, where are you from? '
p897
sg16
S' Oh, is that close to Bangtown?'
p898
sg18
Vpickup-line-panda
p899
sg20
(lp900
g892
ag77
ag893
ag894
ag895
ag896
ag45
aS'Oh'
p901
ag77
aS'is'
p902
aS'that'
p903
aS'close'
p904
aS'to'
p905
aS'Bangtown'
p906
ag45
asg30
(lp907
g901
ag77
ag902
ag903
ag904
ag905
ag906
ag45
asba.