(lp0
(iMeme
Meme
p1
(dp2
S'top_text'
p3
(lp4
S'saw'
p5
aS'jan'
p6
asS'top_text_raw'
p7
S'saw jan '
p8
sS'bottom_text_raw'
p9
S' stopped killing people '
p10
sS'meme_type'
p11
Vptsd-clarinet-boy
p12
sS'all_text'
p13
(lp14
g5
ag6
aS'stopped'
p15
aS'killing'
p16
aS'people'
p17
asS'bottom_text'
p18
(lp19
g15
ag16
ag17
asba(iMeme
Meme
p20
(dp21
g3
(lp22
S'They'
p23
aS'forgot'
p24
aS'to'
p25
aS'tell'
p26
aS'me'
p27
aS'happy'
p28
aS'birthday'
p29
asg7
S'They forgot to tell me happy birthday '
p30
sg9
S' so I remembered to tell them happy funeral '
p31
sg11
Vptsd-clarinet-boy
p32
sg13
(lp33
g23
ag24
ag25
ag26
ag27
ag28
ag29
aS'so'
p34
aS'I'
p35
aS'remembered'
p36
aS'to'
p37
aS'tell'
p38
aS'them'
p39
aS'happy'
p40
aS'funeral'
p41
asg18
(lp42
g34
ag35
ag36
ag37
ag38
ag39
ag40
ag41
asba(iMeme
Meme
p43
(dp44
g3
(lp45
S'Mommy'
p46
aS'said'
p47
aS'joining'
p48
aS'the'
p49
aS'band'
p50
aS'would'
p51
aS'make'
p52
aS'me'
p53
aS'popular'
p54
aS'...'
p55
asg7
S'Mommy said joining the band would make me popular... '
p56
sg9
S' ... a popular wedgie target that is. '
p57
sg11
Vptsd-clarinet-boy
p58
sg13
(lp59
g46
ag47
ag48
ag49
ag50
ag51
ag52
ag53
ag54
ag55
aS'...'
p60
aS'a'
p61
aS'popular'
p62
aS'wedgie'
p63
aS'target'
p64
aS'that'
p65
aS'is'
p66
aS'.'
p67
asg18
(lp68
g60
ag61
ag62
ag63
ag64
ag65
ag66
ag67
asba(iMeme
Meme
p69
(dp70
g3
(lp71
S'All'
p72
ag35
aS'did'
p73
aS'was'
p74
aS'tell'
p75
aS'her'
p76
aS'to'
p77
aS'twerk'
p78
aS'what'
p79
aS'her'
p80
aS'ancestors'
p81
aS'gave'
p82
aS'her'
p83
asg7
S'All I did was tell her to twerk what her ancestors gave her '
p84
sg9
S'  '
p85
sg11
Vptsd-clarinet-boy
p86
sg13
(lp87
g72
ag35
ag73
ag74
ag75
ag76
ag77
ag78
ag79
ag80
ag81
ag82
ag83
asg18
(lp88
sba(iMeme
Meme
p89
(dp90
g3
(lp91
S'All'
p92
aS'my'
p93
aS'years'
p94
aS'of'
p95
aS'training'
p96
aS'come'
p97
aS'down'
p98
aS'to'
p99
aS'one'
p100
aS'event'
p101
asg7
S'All my years of training come down to one event '
p102
sg9
S' @ Game Bonanza TMRO Night @ 6:30 '
p103
sg11
Vptsd-clarinet-boy
p104
sg13
(lp105
g92
ag93
ag94
ag95
ag96
ag97
ag98
ag99
ag100
ag101
aS'@'
p106
aS'Game'
p107
aS'Bonanza'
p108
aS'TMRO'
p109
aS'Night'
p110
ag106
aS'6:30'
p111
asg18
(lp112
g106
ag107
ag108
ag109
ag110
ag106
ag111
asba(iMeme
Meme
p113
(dp114
g3
(lp115
S'All'
p116
ag35
aS'did'
p117
aS'was'
p118
aS'tell'
p119
aS'her'
p120
aS'to'
p121
aS'twerk'
p122
asg7
S'All I did was tell her to twerk  '
p123
sg9
S' What her ancestors have her '
p124
sg11
Vptsd-clarinet-boy
p125
sg13
(lp126
g116
ag35
ag117
ag118
ag119
ag120
ag121
ag122
aS'What'
p127
aS'her'
p128
aS'ancestors'
p129
aS'have'
p130
aS'her'
p131
asg18
(lp132
g127
ag128
ag129
ag130
ag131
asba(iMeme
Meme
p133
(dp134
g3
(lp135
S'but'
p136
aS'they'
p137
aS'said'
p138
asg7
S'but they said '
p139
sg9
S' that snipers make all the bitches wet '
p140
sg11
Vptsd-clarinet-boy
p141
sg13
(lp142
g136
ag137
ag138
aS'that'
p143
aS'snipers'
p144
aS'make'
p145
aS'all'
p146
aS'the'
p147
aS'bitches'
p148
aS'wet'
p149
asg18
(lp150
g143
ag144
ag145
ag146
ag147
ag148
ag149
asba(iMeme
Meme
p151
(dp152
g3
(lp153
g35
aS'lasted'
p154
aS'8'
p155
aS'minutes'
p156
aS','
p157
asg7
S'I lasted 8 minutes, '
p158
sg9
S' she dumped me. '
p159
sg11
Vptsd-clarinet-boy
p160
sg13
(lp161
g35
ag154
ag155
ag156
ag157
aS'she'
p162
aS'dumped'
p163
aS'me'
p164
ag67
asg18
(lp165
g162
ag163
ag164
ag67
asba(iMeme
Meme
p166
(dp167
g3
(lp168
S'They'
p169
aS'made'
p170
aS'fun'
p171
aS'of'
p172
aS'me'
p173
aS'for'
p174
aS'collecting'
p175
aS'Action'
p176
aS'Figures'
p177
asg7
S'They made fun of me for collecting Action Figures '
p178
sg9
S' So I collected their Skulls... '
p179
sg11
Vptsd-clarinet-boy
p180
sg13
(lp181
g169
ag170
ag171
ag172
ag173
ag174
ag175
ag176
ag177
aS'So'
p182
ag35
aS'collected'
p183
aS'their'
p184
aS'Skulls'
p185
aS'...'
p186
asg18
(lp187
g182
ag35
ag183
ag184
ag185
ag186
asba(iMeme
Meme
p188
(dp189
g3
(lp190
S'Unfortunately'
p191
ag157
asg7
S'Unfortunately, '
p192
sg9
S' I will not be performing Saturday night but Wicker Brother will be '
p193
sg11
Vptsd-clarinet-boy
p194
sg13
(lp195
g191
ag157
ag35
aS'will'
p196
aS'not'
p197
aS'be'
p198
aS'performing'
p199
aS'Saturday'
p200
aS'night'
p201
aS'but'
p202
aS'Wicker'
p203
aS'Brother'
p204
aS'will'
p205
aS'be'
p206
asg18
(lp207
g35
ag196
ag197
ag198
ag199
ag200
ag201
ag202
ag203
ag204
ag205
ag206
asba(iMeme
Meme
p208
(dp209
g3
(lp210
S'Chamberlain'
p211
aS'high'
p212
aS'school'
p213
asg7
S'Chamberlain high school '
p214
sg9
S' Rob Crescentini 1997 '
p215
sg11
Vptsd-clarinet-boy
p216
sg13
(lp217
g211
ag212
ag213
aS'Rob'
p218
aS'Crescentini'
p219
aS'1997'
p220
asg18
(lp221
g218
ag219
ag220
asba(iMeme
Meme
p222
(dp223
g3
(lp224
S'happy'
p225
aS'birthday'
p226
asg7
S'happy birthday'
p227
sg9
S' sexy man'
p228
sg11
Vptsd-clarinet-boy
p229
sg13
(lp230
g225
ag226
aS'sexy'
p231
aS'man'
p232
asg18
(lp233
g231
ag232
asba(iMeme
Meme
p234
(dp235
g3
(lp236
S'niggers'
p237
aS'be'
p238
aS'hatin'
p239
asg7
S'niggers be hatin'
p240
sg9
S' but i get more ass than a toilet seat.'
p241
sg11
Vptsd-clarinet-boy
p242
sg13
(lp243
g237
ag238
ag239
aS'but'
p244
aS'i'
p245
aS'get'
p246
aS'more'
p247
aS'ass'
p248
aS'than'
p249
ag61
aS'toilet'
p250
aS'seat'
p251
ag67
asg18
(lp252
g244
ag245
ag246
ag247
ag248
ag249
ag61
ag250
ag251
ag67
asba(iMeme
Meme
p253
(dp254
g3
(lp255
g245
aS'had'
p256
aS'to'
p257
aS'choose'
p258
aS'between'
p259
aS'life'
p260
aS'and'
p261
aS'death'
p262
asg7
S'i had to choose between life and death'
p263
sg9
S' i choose the clarinet'
p264
sg11
Vptsd-clarinet-boy
p265
sg13
(lp266
g245
ag256
ag257
ag258
ag259
ag260
ag261
ag262
ag245
aS'choose'
p267
aS'the'
p268
aS'clarinet'
p269
asg18
(lp270
g245
ag267
ag268
ag269
asba(iMeme
Meme
p271
(dp272
g3
(lp273
S'they'
p274
aS'said'
p275
ag245
aS'could'
p276
aS'be'
p277
aS'anything'
p278
ag245
aS'wanted'
p279
asg7
S'they said i could be anything i wanted'
p280
sg9
S' so i became a god'
p281
sg11
Vptsd-clarinet-boy
p282
sg13
(lp283
g274
ag275
ag245
ag276
ag277
ag278
ag245
ag279
aS'so'
p284
ag245
aS'became'
p285
ag61
aS'god'
p286
asg18
(lp287
g284
ag245
ag285
ag61
ag286
asba(iMeme
Meme
p288
(dp289
g3
(lp290
S'it'
p291
aS'was'
p292
ag61
aS'city'
p293
aS'when'
p294
ag245
aS'got'
p295
aS'there'
p296
asg7
S'it was a city when i got there'
p297
sg9
S' it was a cemetery when i left'
p298
sg11
Vptsd-clarinet-boy
p299
sg13
(lp300
g291
ag292
ag61
ag293
ag294
ag245
ag295
ag296
aS'it'
p301
aS'was'
p302
ag61
aS'cemetery'
p303
aS'when'
p304
ag245
aS'left'
p305
asg18
(lp306
g301
ag302
ag61
ag303
ag304
ag245
ag305
asba(iMeme
Meme
p307
(dp308
g3
(lp309
S'poke'
p310
aS'me'
p311
aS'on'
p312
aS'facebook'
p313
asg7
S'poke me on facebook'
p314
sg9
S' i fucking dare you.'
p315
sg11
Vptsd-clarinet-boy
p316
sg13
(lp317
g310
ag311
ag312
ag313
ag245
aS'fucking'
p318
aS'dare'
p319
aS'you'
p320
ag67
asg18
(lp321
g245
ag318
ag319
ag320
ag67
asba(iMeme
Meme
p322
(dp323
g3
(lp324
S'sabon'
p325
aS':'
p326
aS'they'
p327
aS'all'
p328
aS'made'
p329
aS'fun'
p330
aS'of'
p331
aS'my'
p332
aS'bowlcut'
p333
aS'irl'
p334
asg7
S'sabon: they all made fun of my bowlcut irl'
p335
sg9
S' i dont care'
p336
sg11
Vptsd-clarinet-boy
p337
sg13
(lp338
g325
ag326
ag327
ag328
ag329
ag330
ag331
ag332
ag333
ag334
ag245
aS'dont'
p339
aS'care'
p340
asg18
(lp341
g245
ag339
ag340
asba(iMeme
Meme
p342
(dp343
g3
(lp344
S'they'
p345
aS'told'
p346
aS'me'
p347
ag245
aS'couldnt'
p348
asg7
S'they told me i couldnt'
p349
sg9
S' now they eat through a tube'
p350
sg11
Vptsd-clarinet-boy
p351
sg13
(lp352
g345
ag346
ag347
ag245
ag348
aS'now'
p353
aS'they'
p354
aS'eat'
p355
aS'through'
p356
ag61
aS'tube'
p357
asg18
(lp358
g353
ag354
ag355
ag356
ag61
ag357
asba(iMeme
Meme
p359
(dp360
g3
(lp361
S'we'
p362
aS'all'
p363
aS'have'
p364
ag61
aS'dream'
p365
asg7
S'we all have a dream'
p366
sg9
S' in my dream'
p367
sg11
Vptsd-clarinet-boy
p368
sg13
(lp369
g362
ag363
ag364
ag61
ag365
aS'in'
p370
aS'my'
p371
aS'dream'
p372
asg18
(lp373
g370
ag371
ag372
asba(iMeme
Meme
p374
(dp375
g3
(lp376
S'my'
p377
aS'parents'
p378
aS'said'
p379
aS'they'
p380
aS'wanted'
p381
aS'subway'
p382
asg7
S'my parents said they wanted subway'
p383
sg9
S' so i threw them under one'
p384
sg11
Vptsd-clarinet-boy
p385
sg13
(lp386
g377
ag378
ag379
ag380
ag381
ag382
aS'so'
p387
ag245
aS'threw'
p388
aS'them'
p389
aS'under'
p390
aS'one'
p391
asg18
(lp392
g387
ag245
ag388
ag389
ag390
ag391
asba(iMeme
Meme
p393
(dp394
g3
(lp395
S'call'
p396
aS'me'
p397
ag61
aS'virgin'
p398
aS'?'
p399
asg7
S'call me a virgin?'
p400
sg9
S' i slay that pussy motherfucker'
p401
sg11
Vptsd-clarinet-boy
p402
sg13
(lp403
g396
ag397
ag61
ag398
ag399
ag245
aS'slay'
p404
aS'that'
p405
aS'pussy'
p406
aS'motherfucker'
p407
asg18
(lp408
g245
ag404
ag405
ag406
ag407
asba(iMeme
Meme
p409
(dp410
g3
(lp411
S'they'
p412
aS'said'
p413
aS'gingers'
p414
aS'were'
p415
aS'evil'
p416
asg7
S'they said gingers were evil'
p417
sg9
S' i showed them evil incarnate'
p418
sg11
Vptsd-clarinet-boy
p419
sg13
(lp420
g412
ag413
ag414
ag415
ag416
ag245
aS'showed'
p421
aS'them'
p422
aS'evil'
p423
aS'incarnate'
p424
asg18
(lp425
g245
ag421
ag422
ag423
ag424
asba(iMeme
Meme
p426
(dp427
g3
(lp428
S'my'
p429
aS'life'
p430
asg7
S'my life'
p431
sg9
S' is pain'
p432
sg11
Vptsd-clarinet-boy
p433
sg13
(lp434
g429
ag430
aS'is'
p435
aS'pain'
p436
asg18
(lp437
g435
ag436
asba(iMeme
Meme
p438
(dp439
g3
(lp440
S'they'
p441
aS'told'
p442
aS'me'
p443
ag245
aS'could'
p444
aS'be'
p445
aS'come'
p446
aS'anything'
p447
ag245
aS'wanted'
p448
asg7
S'they told me i could be come anything i wanted'
p449
sg9
S' so i became a god'
p450
sg11
Vptsd-clarinet-boy
p451
sg13
(lp452
g441
ag442
ag443
ag245
ag444
ag445
ag446
ag447
ag245
ag448
aS'so'
p453
ag245
aS'became'
p454
ag61
aS'god'
p455
asg18
(lp456
g453
ag245
ag454
ag61
ag455
asba(iMeme
Meme
p457
(dp458
g3
(lp459
S'they'
p460
aS'told'
p461
aS'me'
p462
ag245
aS'could'
p463
aS'be'
p464
aS'anything'
p465
ag245
aS'wanted'
p466
asg7
S'they told me i could be anything i wanted'
p467
sg9
S' so i became a balloon'
p468
sg11
Vptsd-clarinet-boy
p469
sg13
(lp470
g460
ag461
ag462
ag245
ag463
ag464
ag465
ag245
ag466
aS'so'
p471
ag245
aS'became'
p472
ag61
aS'balloon'
p473
asg18
(lp474
g471
ag245
ag472
ag61
ag473
asba(iMeme
Meme
p475
(dp476
g3
(lp477
g245
aS'dont'
p478
aS'know'
p479
aS'whats'
p480
aS'worse'
p481
asg7
S'i dont know whats worse'
p482
sg9
S' being a ginger or having no soul'
p483
sg11
Vptsd-clarinet-boy
p484
sg13
(lp485
g245
ag478
ag479
ag480
ag481
aS'being'
p486
ag61
aS'ginger'
p487
aS'or'
p488
aS'having'
p489
aS'no'
p490
aS'soul'
p491
asg18
(lp492
g486
ag61
ag487
ag488
ag489
ag490
ag491
asba(iMeme
Meme
p493
(dp494
g3
(lp495
S'the'
p496
aS'world'
p497
aS'will'
p498
aS'shout'
p499
aS'save'
p500
aS'us'
p501
asg7
S'the world will shout save us'
p502
sg9
S' and i will respond no'
p503
sg11
Vptsd-clarinet-boy
p504
sg13
(lp505
g496
ag497
ag498
ag499
ag500
ag501
aS'and'
p506
ag245
aS'will'
p507
aS'respond'
p508
aS'no'
p509
asg18
(lp510
g506
ag245
ag507
ag508
ag509
asba(iMeme
Meme
p511
(dp512
g3
(lp513
g245
aS'got'
p514
aS'99'
p515
aS'problems'
p516
asg7
S'i got 99 problems'
p517
sg9
S' but a soul aint one!'
p518
sg11
Vptsd-clarinet-boy
p519
sg13
(lp520
g245
ag514
ag515
ag516
aS'but'
p521
ag61
aS'soul'
p522
aS'aint'
p523
aS'one'
p524
aS'!'
p525
asg18
(lp526
g521
ag61
ag522
ag523
ag524
ag525
asba(iMeme
Meme
p527
(dp528
g3
(lp529
S'happy'
p530
aS'birthday'
p531
aS'ant'
p532
asg7
S'happy birthday ant'
p533
sg9
S' you sexy beast'
p534
sg11
Vptsd-clarinet-boy
p535
sg13
(lp536
g530
ag531
ag532
aS'you'
p537
aS'sexy'
p538
aS'beast'
p539
asg18
(lp540
g537
ag538
ag539
asba(iMeme
Meme
p541
(dp542
g3
(lp543
g245
aS'dont'
p544
aS'know'
p545
aS'which'
p546
aS'one'
p547
aS'was'
p548
aS'more'
p549
aS'fun'
p550
aS'to'
p551
aS'kill'
p552
asg7
S'i dont know which one was more fun to kill'
p553
sg9
S' my parents'
p554
sg11
Vptsd-clarinet-boy
p555
sg13
(lp556
g245
ag544
ag545
ag546
ag547
ag548
ag549
ag550
ag551
ag552
aS'my'
p557
aS'parents'
p558
asg18
(lp559
g557
ag558
asba(iMeme
Meme
p560
(dp561
g3
(lp562
S'all'
p563
aS'state'
p564
asg7
S'all state'
p565
sg9
S' skin flute performer'
p566
sg11
Vptsd-clarinet-boy
p567
sg13
(lp568
g563
ag564
aS'skin'
p569
aS'flute'
p570
aS'performer'
p571
asg18
(lp572
g569
ag570
ag571
asba(iMeme
Meme
p573
(dp574
g3
(lp575
S'dont'
p576
aS'let'
p577
aS'the'
p578
aS'smile'
p579
aS'and'
p580
aS'the'
p581
aS'flute'
p582
aS'fool'
p583
aS'ya'
p584
asg7
S'dont let the smile and the flute fool ya'
p585
sg9
S' cause i will kill your mother'
p586
sg11
Vptsd-clarinet-boy
p587
sg13
(lp588
g576
ag577
ag578
ag579
ag580
ag581
ag582
ag583
ag584
aS'cause'
p589
ag245
aS'will'
p590
aS'kill'
p591
aS'your'
p592
aS'mother'
p593
asg18
(lp594
g589
ag245
ag590
ag591
ag592
ag593
asba(iMeme
Meme
p595
(dp596
g3
(lp597
S'ass'
p598
aS'kickin'
p599
asg7
S'ass kickin'
p600
sg9
S' fat kid!!!!'
p601
sg11
Vptsd-clarinet-boy
p602
sg13
(lp603
g598
ag599
aS'fat'
p604
aS'kid'
p605
ag525
ag525
ag525
ag525
asg18
(lp606
g604
ag605
ag525
ag525
ag525
ag525
asba(iMeme
Meme
p607
(dp608
g3
(lp609
S'they'
p610
aS'called'
p611
aS'me'
p612
aS'fat'
p613
asg7
S'they called me fat'
p614
sg9
S' now i force'
p615
sg11
Vptsd-clarinet-boy
p616
sg13
(lp617
g610
ag611
ag612
ag613
aS'now'
p618
ag245
aS'force'
p619
asg18
(lp620
g618
ag245
ag619
asba(iMeme
Meme
p621
(dp622
g3
(lp623
S'they'
p624
aS'said'
p625
ag245
aS'could'
p626
aS'be'
p627
aS'anything'
p628
ag245
aS'wanted'
p629
asg7
S'they said i could be anything i wanted'
p630
sg9
S' so i became aerials'
p631
sg11
Vptsd-clarinet-boy
p632
sg13
(lp633
g624
ag625
ag245
ag626
ag627
ag628
ag245
ag629
aS'so'
p634
ag245
aS'became'
p635
aS'aerials'
p636
asg18
(lp637
g634
ag245
ag635
ag636
asba(iMeme
Meme
p638
(dp639
g3
(lp640
S'god'
p641
asg7
S'god'
p642
sg9
S' i wish i can give people polio'
p643
sg11
Vptsd-clarinet-boy
p644
sg13
(lp645
g641
ag245
aS'wish'
p646
ag245
aS'can'
p647
aS'give'
p648
aS'people'
p649
aS'polio'
p650
asg18
(lp651
g245
ag646
ag245
ag647
ag648
ag649
ag650
asba(iMeme
Meme
p652
(dp653
g3
(lp654
S'they'
p655
aS'said'
p656
ag245
aS'was'
p657
aS'fat'
p658
asg7
S'they said i was fat'
p659
sg9
S' now there six feet under'
p660
sg11
Vptsd-clarinet-boy
p661
sg13
(lp662
g655
ag656
ag245
ag657
ag658
aS'now'
p663
aS'there'
p664
aS'six'
p665
aS'feet'
p666
aS'under'
p667
asg18
(lp668
g663
ag664
ag665
ag666
ag667
asba(iMeme
Meme
p669
(dp670
g3
(lp671
S'within'
p672
aS'every'
p673
aS'mans'
p674
aS'heart'
p675
asg7
S'within every mans heart'
p676
sg9
S' there is a thirst for anal sex'
p677
sg11
Vptsd-clarinet-boy
p678
sg13
(lp679
g672
ag673
ag674
ag675
aS'there'
p680
aS'is'
p681
ag61
aS'thirst'
p682
aS'for'
p683
aS'anal'
p684
aS'sex'
p685
asg18
(lp686
g680
ag681
ag61
ag682
ag683
ag684
ag685
asba(iMeme
Meme
p687
(dp688
g3
(lp689
S'ginger'
p690
aS'swag'
p691
ag399
asg7
S'ginger swag?'
p692
sg9
S' nope just what buger king does'
p693
sg11
Vptsd-clarinet-boy
p694
sg13
(lp695
g690
ag691
ag399
aS'nope'
p696
aS'just'
p697
aS'what'
p698
aS'buger'
p699
aS'king'
p700
aS'does'
p701
asg18
(lp702
g696
ag697
ag698
ag699
ag700
ag701
asba(iMeme
Meme
p703
(dp704
g3
(lp705
S'they'
p706
aS'said'
p707
aS'it'
p708
aS'was'
p709
aS'too'
p710
aS'dark'
p711
aS'out'
p712
aS'to'
p713
aS'play'
p714
asg7
S'they said it was too dark out to play'
p715
sg9
S' so i lit their bodies on fire'
p716
sg11
Vptsd-clarinet-boy
p717
sg13
(lp718
g706
ag707
ag708
ag709
ag710
ag711
ag712
ag713
ag714
aS'so'
p719
ag245
aS'lit'
p720
aS'their'
p721
aS'bodies'
p722
aS'on'
p723
aS'fire'
p724
asg18
(lp725
g719
ag245
ag720
ag721
ag722
ag723
ag724
asba(iMeme
Meme
p726
(dp727
g3
(lp728
S'they'
p729
aS'laughed'
p730
aS'at'
p731
aS'me'
p732
asg7
S'they laughed at me'
p733
sg9
S' before the accident'
p734
sg11
Vptsd-clarinet-boy
p735
sg13
(lp736
g729
ag730
ag731
ag732
aS'before'
p737
aS'the'
p738
aS'accident'
p739
asg18
(lp740
g737
ag738
ag739
asba(iMeme
Meme
p741
(dp742
g3
(lp743
S'congratulations'
p744
ag525
asg7
S'congratulations!'
p745
sg9
S' you have cancer'
p746
sg11
Vptsd-clarinet-boy
p747
sg13
(lp748
g744
ag525
aS'you'
p749
aS'have'
p750
aS'cancer'
p751
asg18
(lp752
g749
ag750
ag751
asba(iMeme
Meme
p753
(dp754
g3
(lp755
S'they'
p756
aS'said'
p757
aS'id'
p758
aS'never'
p759
aS'make'
p760
aS'first'
p761
aS'chair'
p762
asg7
S'they said id never make first chair'
p763
sg9
S' so i just sat on them instead'
p764
sg11
Vptsd-clarinet-boy
p765
sg13
(lp766
g756
ag757
ag758
ag759
ag760
ag761
ag762
aS'so'
p767
ag245
aS'just'
p768
aS'sat'
p769
aS'on'
p770
aS'them'
p771
aS'instead'
p772
asg18
(lp773
g767
ag245
ag768
ag769
ag770
ag771
ag772
asba(iMeme
Meme
p774
(dp775
g3
(lp776
S'are'
p777
aS'you'
p778
aS'stupid'
p779
aS'boy'
p780
ag399
ag525
asg7
S'are you stupid boy?!'
p781
sg9
S' um i dunno'
p782
sg11
Vptsd-clarinet-boy
p783
sg13
(lp784
g777
ag778
ag779
ag780
ag399
ag525
aS'um'
p785
ag245
aS'dunno'
p786
asg18
(lp787
g785
ag245
ag786
asba(iMeme
Meme
p788
(dp789
g3
(lp790
S'they'
p791
aS'laughed'
p792
aS'at'
p793
aS'my'
p794
aS'clarinet'
p795
asg7
S'they laughed at my clarinet'
p796
sg9
S' i laughed at their screems'
p797
sg11
Vptsd-clarinet-boy
p798
sg13
(lp799
g791
ag792
ag793
ag794
ag795
ag245
aS'laughed'
p800
aS'at'
p801
aS'their'
p802
aS'screems'
p803
asg18
(lp804
g245
ag800
ag801
ag802
ag803
asba(iMeme
Meme
p805
(dp806
g3
(lp807
S'didnt'
p808
aS'read'
p809
aS'horse'
p810
aS'riding'
p811
aS'in'
p812
aS'lighting'
p813
aS'storm'
p814
aS'safty'
p815
aS'guide'
p816
asg7
S'didnt read horse riding in lighting storm safty guide'
p817
sg9
S' never again..never forget.'
p818
sg11
Vptsd-clarinet-boy
p819
sg13
(lp820
g808
ag809
ag810
ag811
ag812
ag813
ag814
ag815
ag816
aS'never'
p821
aS'again..never'
p822
aS'forget'
p823
ag67
asg18
(lp824
g821
ag822
ag823
ag67
asba(iMeme
Meme
p825
(dp826
g3
(lp827
S'but'
p828
ag245
aS'thought'
p829
asg7
S'but i thought'
p830
sg9
S' bands would make her dance'
p831
sg11
Vptsd-clarinet-boy
p832
sg13
(lp833
g828
ag245
ag829
aS'bands'
p834
aS'would'
p835
aS'make'
p836
aS'her'
p837
aS'dance'
p838
asg18
(lp839
g834
ag835
ag836
ag837
ag838
asba(iMeme
Meme
p840
(dp841
g3
(lp842
S'they'
p843
aS'told'
p844
aS'me'
p845
ag245
aS'couldnt'
p846
aS'have'
p847
ag61
aS'dota2'
p848
aS'beta'
p849
aS'key'
p850
asg7
S'they told me i couldnt have a dota2 beta key'
p851
sg9
S' so i stayed in hon'
p852
sg11
Vptsd-clarinet-boy
p853
sg13
(lp854
g843
ag844
ag845
ag245
ag846
ag847
ag61
ag848
ag849
ag850
aS'so'
p855
ag245
aS'stayed'
p856
aS'in'
p857
aS'hon'
p858
asg18
(lp859
g855
ag245
ag856
ag857
ag858
asba(iMeme
Meme
p860
(dp861
g3
(lp862
g245
aS'was'
p863
aS'stunned'
p864
aS'and'
p865
aS'inspired'
p866
asg7
S'i was stunned and inspired'
p867
sg9
S' at koreen and nicks recital'
p868
sg11
Vptsd-clarinet-boy
p869
sg13
(lp870
g245
ag863
ag864
ag865
ag866
aS'at'
p871
aS'koreen'
p872
aS'and'
p873
aS'nicks'
p874
aS'recital'
p875
asg18
(lp876
g871
ag872
ag873
ag874
ag875
asba(iMeme
Meme
p877
(dp878
g3
(lp879
S'they'
p880
aS'ignored'
p881
aS'me'
p882
aS'as'
p883
aS'morde'
p884
asg7
S'they ignored me as morde'
p885
sg9
S' huehuehuehue'
p886
sg11
Vptsd-clarinet-boy
p887
sg13
(lp888
g880
ag881
ag882
ag883
ag884
aS'huehuehuehue'
p889
asg18
(lp890
g889
asba(iMeme
Meme
p891
(dp892
g3
(lp893
S'they'
p894
aS'told'
p895
aS'me'
p896
ag245
aS'could'
p897
aS'do'
p898
aS'anything'
p899
ag245
aS'wanted'
p900
aS'to'
p901
asg7
S'they told me i could do anything i wanted to'
p902
sg9
S' so i spend my life praising jaykhim'
p903
sg11
Vptsd-clarinet-boy
p904
sg13
(lp905
g894
ag895
ag896
ag245
ag897
ag898
ag899
ag245
ag900
ag901
aS'so'
p906
ag245
aS'spend'
p907
aS'my'
p908
aS'life'
p909
aS'praising'
p910
aS'jaykhim'
p911
asg18
(lp912
g906
ag245
ag907
ag908
ag909
ag910
ag911
asba(iMeme
Meme
p913
(dp914
g3
(lp915
S'davis'
p916
ag326
aS'they'
p917
aS'all'
p918
aS'made'
p919
aS'fun'
p920
aS'of'
p921
aS'my'
p922
aS'english'
p923
asg7
S'davis: they all made fun of my english'
p924
sg9
S' ill be reading the eulogy at their funeral'
p925
sg11
Vptsd-clarinet-boy
p926
sg13
(lp927
g916
ag326
ag917
ag918
ag919
ag920
ag921
ag922
ag923
aS'ill'
p928
aS'be'
p929
aS'reading'
p930
aS'the'
p931
aS'eulogy'
p932
aS'at'
p933
aS'their'
p934
aS'funeral'
p935
asg18
(lp936
g928
ag929
ag930
ag931
ag932
ag933
ag934
ag935
asba(iMeme
Meme
p937
(dp938
g3
(lp939
S'marching'
p940
aS'band'
p941
asg7
S'marching band'
p942
sg9
S' will alwas be in are minds'
p943
sg11
Vptsd-clarinet-boy
p944
sg13
(lp945
g940
ag941
aS'will'
p946
aS'alwas'
p947
aS'be'
p948
aS'in'
p949
aS'are'
p950
aS'minds'
p951
asg18
(lp952
g946
ag947
ag948
ag949
ag950
ag951
asba(iMeme
Meme
p953
(dp954
g3
(lp955
S'they'
p956
aS'laughed'
p957
aS'at'
p958
aS'me'
p959
asg7
S'they laughed at me'
p960
sg9
S' now they laugh when i move the clarinet i stuck their severed head onto'
p961
sg11
Vptsd-clarinet-boy
p962
sg13
(lp963
g956
ag957
ag958
ag959
aS'now'
p964
aS'they'
p965
aS'laugh'
p966
aS'when'
p967
ag245
aS'move'
p968
aS'the'
p969
aS'clarinet'
p970
ag245
aS'stuck'
p971
aS'their'
p972
aS'severed'
p973
aS'head'
p974
aS'onto'
p975
asg18
(lp976
g964
ag965
ag966
ag967
ag245
ag968
ag969
ag970
ag245
ag971
ag972
ag973
ag974
ag975
asba(iMeme
Meme
p977
(dp978
g3
(lp979
S'they'
p980
aS'said'
p981
ag245
aS'could'
p982
aS'be'
p983
aS'anything'
p984
ag245
aS'wanted'
p985
asg7
S'they said i could be anything i wanted'
p986
sg9
S' so i became a god'
p987
sg11
Vptsd-clarinet-boy
p988
sg13
(lp989
g980
ag981
ag245
ag982
ag983
ag984
ag245
ag985
aS'so'
p990
ag245
aS'became'
p991
ag61
aS'god'
p992
asg18
(lp993
g990
ag245
ag991
ag61
ag992
asba(iMeme
Meme
p994
(dp995
g3
(lp996
S'the'
p997
aS'ghost'
p998
aS'in'
p999
aS'my'
p1000
aS'head'
p1001
asg7
S'the ghost in my head'
p1002
sg9
S' wants to rock out kenny g style.'
p1003
sg11
Vptsd-clarinet-boy
p1004
sg13
(lp1005
g997
ag998
ag999
ag1000
ag1001
aS'wants'
p1006
aS'to'
p1007
aS'rock'
p1008
aS'out'
p1009
aS'kenny'
p1010
aS'g'
p1011
aS'style'
p1012
ag67
asg18
(lp1013
g1006
ag1007
ag1008
ag1009
ag1010
ag1011
ag1012
ag67
asba(iMeme
Meme
p1014
(dp1015
g3
(lp1016
S'they'
p1017
aS'told'
p1018
aS'me'
p1019
ag245
aS'could'
p1020
aS'do'
p1021
aS'anything'
p1022
ag245
aS'wanted'
p1023
aS'to'
p1024
asg7
S'they told me i could do anything i wanted to'
p1025
sg9
S' so i stole pokemon games'
p1026
sg11
Vptsd-clarinet-boy
p1027
sg13
(lp1028
g1017
ag1018
ag1019
ag245
ag1020
ag1021
ag1022
ag245
ag1023
ag1024
aS'so'
p1029
ag245
aS'stole'
p1030
aS'pokemon'
p1031
aS'games'
p1032
asg18
(lp1033
g1029
ag245
ag1030
ag1031
ag1032
asba(iMeme
Meme
p1034
(dp1035
g3
(lp1036
g245
aS'shit'
p1037
aS'my'
p1038
aS'pants'
p1039
asg7
S'i shit my pants'
p1040
sg9
S' it feels good'
p1041
sg11
Vptsd-clarinet-boy
p1042
sg13
(lp1043
g245
ag1037
ag1038
ag1039
aS'it'
p1044
aS'feels'
p1045
aS'good'
p1046
asg18
(lp1047
g1044
ag1045
ag1046
asba(iMeme
Meme
p1048
(dp1049
g3
(lp1050
S'niggas'
p1051
aS'be'
p1052
aS'like'
p1053
asg7
S'niggas be like'
p1054
sg9
S' bands that make her dance'
p1055
sg11
Vptsd-clarinet-boy
p1056
sg13
(lp1057
g1051
ag1052
ag1053
aS'bands'
p1058
aS'that'
p1059
aS'make'
p1060
aS'her'
p1061
aS'dance'
p1062
asg18
(lp1063
g1058
ag1059
ag1060
ag1061
ag1062
asba(iMeme
Meme
p1064
(dp1065
g3
(lp1066
S'happy'
p1067
aS'birthday'
p1068
asg7
S'happy birthday'
p1069
sg9
S' to the ground'
p1070
sg11
Vptsd-clarinet-boy
p1071
sg13
(lp1072
g1067
ag1068
aS'to'
p1073
aS'the'
p1074
aS'ground'
p1075
asg18
(lp1076
g1073
ag1074
ag1075
asba(iMeme
Meme
p1077
(dp1078
g3
(lp1079
S'she'
p1080
aS'gave'
p1081
aS'me'
p1082
ag61
aS'hand'
p1083
aS'hug'
p1084
asg7
S'she gave me a hand hug'
p1085
sg9
S' vote mayor moon'
p1086
sg11
Vptsd-clarinet-boy
p1087
sg13
(lp1088
g1080
ag1081
ag1082
ag61
ag1083
ag1084
aS'vote'
p1089
aS'mayor'
p1090
aS'moon'
p1091
asg18
(lp1092
g1089
ag1090
ag1091
asba(iMeme
Meme
p1093
(dp1094
g3
(lp1095
S'they'
p1096
aS'ripped'
p1097
aS'my'
p1098
aS'pokemon'
p1099
aS'cards'
p1100
asg7
S'they ripped my pokemon cards'
p1101
sg9
S' i ripped their skin'
p1102
sg11
Vptsd-clarinet-boy
p1103
sg13
(lp1104
g1096
ag1097
ag1098
ag1099
ag1100
ag245
aS'ripped'
p1105
aS'their'
p1106
aS'skin'
p1107
asg18
(lp1108
g245
ag1105
ag1106
ag1107
asba(iMeme
Meme
p1109
(dp1110
g3
(lp1111
S'retarded'
p1112
aS'music'
p1113
asg7
S'retarded music'
p1114
sg9
S' in my head'
p1115
sg11
Vptsd-clarinet-boy
p1116
sg13
(lp1117
g1112
ag1113
aS'in'
p1118
aS'my'
p1119
aS'head'
p1120
asg18
(lp1121
g1118
ag1119
ag1120
asba(iMeme
Meme
p1122
(dp1123
g3
(lp1124
S'she'
p1125
aS'facebook'
p1126
aS'raped'
p1127
aS'me'
p1128
asg7
S'she facebook raped me'
p1129
sg9
S' so i raped her'
p1130
sg11
Vptsd-clarinet-boy
p1131
sg13
(lp1132
g1125
ag1126
ag1127
ag1128
aS'so'
p1133
ag245
aS'raped'
p1134
aS'her'
p1135
asg18
(lp1136
g1133
ag245
ag1134
ag1135
asba(iMeme
Meme
p1137
(dp1138
g3
(lp1139
g245
aS'can'
p1140
aS'play'
p1141
aS'skrillex'
p1142
asg7
S'i can play skrillex'
p1143
sg9
S' by farting in my oboe!'
p1144
sg11
Vptsd-clarinet-boy
p1145
sg13
(lp1146
g245
ag1140
ag1141
ag1142
aS'by'
p1147
aS'farting'
p1148
aS'in'
p1149
aS'my'
p1150
aS'oboe'
p1151
ag525
asg18
(lp1152
g1147
ag1148
ag1149
ag1150
ag1151
ag525
asba(iMeme
Meme
p1153
(dp1154
g3
(lp1155
S'they'
p1156
aS'called'
p1157
aS'me'
p1158
aS'fuckface'
p1159
asg7
S'they called me fuckface'
p1160
sg9
S' no'
p1161
sg11
Vptsd-clarinet-boy
p1162
sg13
(lp1163
g1156
ag1157
ag1158
ag1159
aS'no'
p1164
asg18
(lp1165
g1164
asba(iMeme
Meme
p1166
(dp1167
g3
(lp1168
S'they'
p1169
aS'told'
p1170
aS'me'
p1171
ag245
aS'could'
p1172
aS'do'
p1173
aS'anything'
p1174
ag245
aS'wanted'
p1175
asg7
S'they told me i could do anything i wanted'
p1176
sg9
S' so i loved bobby brown'
p1177
sg11
Vptsd-clarinet-boy
p1178
sg13
(lp1179
g1169
ag1170
ag1171
ag245
ag1172
ag1173
ag1174
ag245
ag1175
aS'so'
p1180
ag245
aS'loved'
p1181
aS'bobby'
p1182
aS'brown'
p1183
asg18
(lp1184
g1180
ag245
ag1181
ag1182
ag1183
asba(iMeme
Meme
p1185
(dp1186
g3
(lp1187
S'monica'
p1188
asg7
S'monica'
p1189
sg9
S' keep on rockin in the free world!'
p1190
sg11
Vptsd-clarinet-boy
p1191
sg13
(lp1192
g1188
aS'keep'
p1193
aS'on'
p1194
aS'rockin'
p1195
aS'in'
p1196
aS'the'
p1197
aS'free'
p1198
aS'world'
p1199
ag525
asg18
(lp1200
g1193
ag1194
ag1195
ag1196
ag1197
ag1198
ag1199
ag525
asba(iMeme
Meme
p1201
(dp1202
g3
(lp1203
S'they'
p1204
aS'told'
p1205
aS'me'
p1206
asg7
S'they told me'
p1207
sg9
S' son'
p1208
sg11
Vptsd-clarinet-boy
p1209
sg13
(lp1210
g1204
ag1205
ag1206
aS'son'
p1211
asg18
(lp1212
g1211
asba(iMeme
Meme
p1213
(dp1214
g3
(lp1215
S'they'
p1216
aS'called'
p1217
aS'me'
p1218
ag61
aS'ginger'
p1219
asg7
S'they called me a ginger'
p1220
sg9
S' i made them eat their parents'
p1221
sg11
Vptsd-clarinet-boy
p1222
sg13
(lp1223
g1216
ag1217
ag1218
ag61
ag1219
ag245
aS'made'
p1224
aS'them'
p1225
aS'eat'
p1226
aS'their'
p1227
aS'parents'
p1228
asg18
(lp1229
g245
ag1224
ag1225
ag1226
ag1227
ag1228
asba(iMeme
Meme
p1230
(dp1231
g3
(lp1232
S'if'
p1233
aS'was'
p1234
aS'this'
p1235
aS'very'
p1236
aS'flute'
p1237
asg7
S'if was this very flute'
p1238
sg9
S' that mike shanks violated me with'
p1239
sg11
Vptsd-clarinet-boy
p1240
sg13
(lp1241
g1233
ag1234
ag1235
ag1236
ag1237
aS'that'
p1242
aS'mike'
p1243
aS'shanks'
p1244
aS'violated'
p1245
aS'me'
p1246
aS'with'
p1247
asg18
(lp1248
g1242
ag1243
ag1244
ag1245
ag1246
ag1247
asba(iMeme
Meme
p1249
(dp1250
g3
(lp1251
g245
aS'never'
p1252
aS'liked'
p1253
aS'playing'
p1254
aS'in'
p1255
aS'band'
p1256
asg7
S'i never liked playing in band'
p1257
sg9
S' but i got an onu scholarship'
p1258
sg11
Vptsd-clarinet-boy
p1259
sg13
(lp1260
g245
ag1252
ag1253
ag1254
ag1255
ag1256
aS'but'
p1261
ag245
aS'got'
p1262
aS'an'
p1263
aS'onu'
p1264
aS'scholarship'
p1265
asg18
(lp1266
g1261
ag245
ag1262
ag1263
ag1264
ag1265
asba(iMeme
Meme
p1267
(dp1268
g3
(lp1269
S'they'
p1270
aS'made'
p1271
aS'fun'
p1272
aS'of'
p1273
aS'my'
p1274
aS'clarinet'
p1275
asg7
S'they made fun of my clarinet'
p1276
sg9
S' once'
p1277
sg11
Vptsd-clarinet-boy
p1278
sg13
(lp1279
g1270
ag1271
ag1272
ag1273
ag1274
ag1275
aS'once'
p1280
asg18
(lp1281
g1280
asba(iMeme
Meme
p1282
(dp1283
g3
(lp1284
g245
aS'can'
p1285
aS'fit'
p1286
aS'this'
p1287
aS'clarinet'
p1288
asg7
S'i can fit this clarinet'
p1289
sg9
S' half way up my ass'
p1290
sg11
Vptsd-clarinet-boy
p1291
sg13
(lp1292
g245
ag1285
ag1286
ag1287
ag1288
aS'half'
p1293
aS'way'
p1294
aS'up'
p1295
aS'my'
p1296
aS'ass'
p1297
asg18
(lp1298
g1293
ag1294
ag1295
ag1296
ag1297
asba(iMeme
Meme
p1299
(dp1300
g3
(lp1301
S'happy'
p1302
aS'birthday'
p1303
aS'zach'
p1304
asg7
S'happy birthday zach'
p1305
sg9
S' you sexy man'
p1306
sg11
Vptsd-clarinet-boy
p1307
sg13
(lp1308
g1302
ag1303
ag1304
aS'you'
p1309
aS'sexy'
p1310
aS'man'
p1311
asg18
(lp1312
g1309
ag1310
ag1311
asba(iMeme
Meme
p1313
(dp1314
g3
(lp1315
g245
aS'love'
p1316
aS'camille'
p1317
asg7
S'i love camille'
p1318
sg9
S' and chocolate cake'
p1319
sg11
Vptsd-clarinet-boy
p1320
sg13
(lp1321
g245
ag1316
ag1317
aS'and'
p1322
aS'chocolate'
p1323
aS'cake'
p1324
asg18
(lp1325
g1322
ag1323
ag1324
asba(iMeme
Meme
p1326
(dp1327
g3
(lp1328
S'one'
p1329
aS'time'
p1330
asg7
S'one time'
p1331
sg9
S' at band camp'
p1332
sg11
Vptsd-clarinet-boy
p1333
sg13
(lp1334
g1329
ag1330
aS'at'
p1335
aS'band'
p1336
aS'camp'
p1337
asg18
(lp1338
g1335
ag1336
ag1337
asba(iMeme
Meme
p1339
(dp1340
g3
(lp1341
S'the'
p1342
aS'world'
p1343
aS'will'
p1344
aS'shout'
p1345
aS'save'
p1346
aS'us'
p1347
asg7
S'the world will shout save us'
p1348
sg9
S' and i will whisper no'
p1349
sg11
Vptsd-clarinet-boy
p1350
sg13
(lp1351
g1342
ag1343
ag1344
ag1345
ag1346
ag1347
aS'and'
p1352
ag245
aS'will'
p1353
aS'whisper'
p1354
aS'no'
p1355
asg18
(lp1356
g1352
ag245
ag1353
ag1354
ag1355
asba(iMeme
Meme
p1357
(dp1358
g3
(lp1359
S'hey'
p1360
aS'fellas'
p1361
asg7
S'hey fellas'
p1362
sg9
S' wheres the party at?'
p1363
sg11
Vptsd-clarinet-boy
p1364
sg13
(lp1365
g1360
ag1361
aS'wheres'
p1366
aS'the'
p1367
aS'party'
p1368
aS'at'
p1369
ag399
asg18
(lp1370
g1366
ag1367
ag1368
ag1369
ag399
asba(iMeme
Meme
p1371
(dp1372
g3
(lp1373
S'ginger'
p1374
ag399
ag525
asg7
S'ginger?!'
p1375
sg9
S' noone likes me'
p1376
sg11
Vptsd-clarinet-boy
p1377
sg13
(lp1378
g1374
ag399
ag525
aS'noone'
p1379
aS'likes'
p1380
aS'me'
p1381
asg18
(lp1382
g1379
ag1380
ag1381
asba(iMeme
Meme
p1383
(dp1384
g3
(lp1385
S'back'
p1386
aS'then'
p1387
ag245
aS'was'
p1388
aS'so'
p1389
aS'full'
p1390
aS'of'
p1391
aS'hope'
p1392
asg7
S'back then i was so full of hope'
p1393
sg9
S' now im just full of children'
p1394
sg11
Vptsd-clarinet-boy
p1395
sg13
(lp1396
g1386
ag1387
ag245
ag1388
ag1389
ag1390
ag1391
ag1392
aS'now'
p1397
aS'im'
p1398
aS'just'
p1399
aS'full'
p1400
aS'of'
p1401
aS'children'
p1402
asg18
(lp1403
g1397
ag1398
ag1399
ag1400
ag1401
ag1402
asba(iMeme
Meme
p1404
(dp1405
g3
(lp1406
S'happy'
p1407
aS'birthday'
p1408
asg7
S'happy birthday'
p1409
sg9
S' from:  clarinet god'
p1410
sg11
Vptsd-clarinet-boy
p1411
sg13
(lp1412
g1407
ag1408
aS'from'
p1413
ag326
aS'clarinet'
p1414
aS'god'
p1415
asg18
(lp1416
g1413
ag326
ag1414
ag1415
asba(iMeme
Meme
p1417
(dp1418
g3
(lp1419
g245
aS'am'
p1420
asg7
S'i am'
p1421
sg9
S' the clarinet god'
p1422
sg11
Vptsd-clarinet-boy
p1423
sg13
(lp1424
g245
ag1420
aS'the'
p1425
aS'clarinet'
p1426
aS'god'
p1427
asg18
(lp1428
g1425
ag1426
ag1427
asba(iMeme
Meme
p1429
(dp1430
g3
(lp1431
S'paul'
p1432
aS'y'
p1433
asg7
S'paul y'
p1434
sg9
S' youre my hero'
p1435
sg11
Vptsd-clarinet-boy
p1436
sg13
(lp1437
g1432
ag1433
aS'youre'
p1438
aS'my'
p1439
aS'hero'
p1440
asg18
(lp1441
g1438
ag1439
ag1440
asba(iMeme
Meme
p1442
(dp1443
g3
(lp1444
S'trolled'
p1445
aS'by'
p1446
asg7
S'trolled by'
p1447
sg9
S' michael jackson'
p1448
sg11
Vptsd-clarinet-boy
p1449
sg13
(lp1450
g1445
ag1446
aS'michael'
p1451
aS'jackson'
p1452
asg18
(lp1453
g1451
ag1452
asba(iMeme
Meme
p1454
(dp1455
g3
(lp1456
S'the'
p1457
aS'few..'
p1458
aS'the'
p1459
aS'proud..'
p1460
asg7
S'the few.. the proud..'
p1461
sg9
S' the morons'
p1462
sg11
Vptsd-clarinet-boy
p1463
sg13
(lp1464
g1457
ag1458
ag1459
ag1460
aS'the'
p1465
aS'morons'
p1466
asg18
(lp1467
g1465
ag1466
asba(iMeme
Meme
p1468
(dp1469
g3
(lp1470
S'every'
p1471
aS'time'
p1472
ag245
aS'play'
p1473
aS'dota'
p1474
asg7
S'every time i play dota'
p1475
sg9
S' i just think about playing with my dildo'
p1476
sg11
Vptsd-clarinet-boy
p1477
sg13
(lp1478
g1471
ag1472
ag245
ag1473
ag1474
ag245
aS'just'
p1479
aS'think'
p1480
aS'about'
p1481
aS'playing'
p1482
aS'with'
p1483
aS'my'
p1484
aS'dildo'
p1485
asg18
(lp1486
g245
ag1479
ag1480
ag1481
ag1482
ag1483
ag1484
ag1485
asba(iMeme
Meme
p1487
(dp1488
g3
(lp1489
S'clark'
p1490
asg7
S'clark'
p1491
sg9
S' when he was a fesh man first chare band geek'
p1492
sg11
Vptsd-clarinet-boy
p1493
sg13
(lp1494
g1490
aS'when'
p1495
aS'he'
p1496
aS'was'
p1497
ag61
aS'fesh'
p1498
aS'man'
p1499
aS'first'
p1500
aS'chare'
p1501
aS'band'
p1502
aS'geek'
p1503
asg18
(lp1504
g1495
ag1496
ag1497
ag61
ag1498
ag1499
ag1500
ag1501
ag1502
ag1503
asba(iMeme
Meme
p1505
(dp1506
g3
(lp1507
S'they'
p1508
aS'told'
p1509
aS'me'
p1510
ag245
aS'could'
p1511
aS'be'
p1512
aS'anything'
p1513
asg7
S'they told me i could be anything'
p1514
sg9
S' so i put a latex glove on this clarinet and put it up my ass'
p1515
sg11
Vptsd-clarinet-boy
p1516
sg13
(lp1517
g1508
ag1509
ag1510
ag245
ag1511
ag1512
ag1513
aS'so'
p1518
ag245
aS'put'
p1519
ag61
aS'latex'
p1520
aS'glove'
p1521
aS'on'
p1522
aS'this'
p1523
aS'clarinet'
p1524
aS'and'
p1525
aS'put'
p1526
aS'it'
p1527
aS'up'
p1528
aS'my'
p1529
aS'ass'
p1530
asg18
(lp1531
g1518
ag245
ag1519
ag61
ag1520
ag1521
ag1522
ag1523
ag1524
ag1525
ag1526
ag1527
ag1528
ag1529
ag1530
asba(iMeme
Meme
p1532
(dp1533
g3
(lp1534
g245
aS'got'
p1535
aS'99'
p1536
aS'problems'
p1537
asg7
S'i got 99 problems'
p1538
sg9
S' but a bitch aint one'
p1539
sg11
Vptsd-clarinet-boy
p1540
sg13
(lp1541
g245
ag1535
ag1536
ag1537
aS'but'
p1542
ag61
aS'bitch'
p1543
aS'aint'
p1544
aS'one'
p1545
asg18
(lp1546
g1542
ag61
ag1543
ag1544
ag1545
asba(iMeme
Meme
p1547
(dp1548
g3
(lp1549
S'so'
p1550
aS'apparently'
p1551
aS'my'
p1552
aS'hair'
p1553
aS'color'
p1554
aS'is'
p1555
aS'red'
p1556
asg7
S'so apparently my hair color is red'
p1557
sg9
S' the city was red too after i burned it down'
p1558
sg11
Vptsd-clarinet-boy
p1559
sg13
(lp1560
g1550
ag1551
ag1552
ag1553
ag1554
ag1555
ag1556
aS'the'
p1561
aS'city'
p1562
aS'was'
p1563
aS'red'
p1564
aS'too'
p1565
aS'after'
p1566
ag245
aS'burned'
p1567
aS'it'
p1568
aS'down'
p1569
asg18
(lp1570
g1561
ag1562
ag1563
ag1564
ag1565
ag1566
ag245
ag1567
ag1568
ag1569
asba(iMeme
Meme
p1571
(dp1572
g3
(lp1573
g245
aS'dont'
p1574
aS'know'
p1575
aS'which'
p1576
aS'was'
p1577
aS'more'
p1578
aS'fun'
p1579
ag67
asg7
S'i dont know which was more fun.'
p1580
sg9
S' killing my parents'
p1581
sg11
Vptsd-clarinet-boy
p1582
sg13
(lp1583
g245
ag1574
ag1575
ag1576
ag1577
ag1578
ag1579
ag67
aS'killing'
p1584
aS'my'
p1585
aS'parents'
p1586
asg18
(lp1587
g1584
ag1585
ag1586
asba(iMeme
Meme
p1588
(dp1589
g3
(lp1590
g245
aS'love'
p1591
aS'the'
p1592
aS'band'
p1593
asg7
S'i love the band'
p1594
sg9
S' saw in my dads workshop. you should come over and we could check it out.'
p1595
sg11
Vptsd-clarinet-boy
p1596
sg13
(lp1597
g245
ag1591
ag1592
ag1593
aS'saw'
p1598
aS'in'
p1599
aS'my'
p1600
aS'dads'
p1601
aS'workshop'
p1602
ag67
aS'you'
p1603
aS'should'
p1604
aS'come'
p1605
aS'over'
p1606
aS'and'
p1607
aS'we'
p1608
aS'could'
p1609
aS'check'
p1610
aS'it'
p1611
aS'out'
p1612
ag67
asg18
(lp1613
g1598
ag1599
ag1600
ag1601
ag1602
ag67
ag1603
ag1604
ag1605
ag1606
ag1607
ag1608
ag1609
ag1610
ag1611
ag1612
ag67
asba(iMeme
Meme
p1614
(dp1615
g3
(lp1616
S'hes'
p1617
aS'serious'
p1618
aS'about'
p1619
aS'music'
p1620
asg7
S'hes serious about music'
p1621
sg9
S' so are we'
p1622
sg11
Vptsd-clarinet-boy
p1623
sg13
(lp1624
g1617
ag1618
ag1619
ag1620
aS'so'
p1625
aS'are'
p1626
aS'we'
p1627
asg18
(lp1628
g1625
ag1626
ag1627
asba(iMeme
Meme
p1629
(dp1630
g3
(lp1631
S'william'
p1632
aS'recabaren'
p1633
asg7
S'william recabaren'
p1634
sg9
S' class of 2018'
p1635
sg11
Vptsd-clarinet-boy
p1636
sg13
(lp1637
g1632
ag1633
aS'class'
p1638
aS'of'
p1639
aS'2018'
p1640
asg18
(lp1641
g1638
ag1639
ag1640
asba(iMeme
Meme
p1642
(dp1643
g3
(lp1644
S'he'
p1645
aS'trolled'
p1646
aS'me'
p1647
aS'in'
p1648
aS'bkc'
p1649
aS'forum'
p1650
asg7
S'he trolled me in bkc forum'
p1651
sg9
S' i trolleyed his face'
p1652
sg11
Vptsd-clarinet-boy
p1653
sg13
(lp1654
g1645
ag1646
ag1647
ag1648
ag1649
ag1650
ag245
aS'trolleyed'
p1655
aS'his'
p1656
aS'face'
p1657
asg18
(lp1658
g245
ag1655
ag1656
ag1657
asba(iMeme
Meme
p1659
(dp1660
g3
(lp1661
S'he'
p1662
aS'ate'
p1663
aS'my'
p1664
aS'lunch'
p1665
asg7
S'he ate my lunch'
p1666
sg9
S' so i ate his dog'
p1667
sg11
Vptsd-clarinet-boy
p1668
sg13
(lp1669
g1662
ag1663
ag1664
ag1665
aS'so'
p1670
ag245
aS'ate'
p1671
aS'his'
p1672
aS'dog'
p1673
asg18
(lp1674
g1670
ag245
ag1671
ag1672
ag1673
asba(iMeme
Meme
p1675
(dp1676
g3
(lp1677
S'gingers'
p1678
asg7
S'gingers'
p1679
sg9
S' they are an epidemic'
p1680
sg11
Vptsd-clarinet-boy
p1681
sg13
(lp1682
g1678
aS'they'
p1683
aS'are'
p1684
aS'an'
p1685
aS'epidemic'
p1686
asg18
(lp1687
g1683
ag1684
ag1685
ag1686
asba(iMeme
Meme
p1688
(dp1689
g3
(lp1690
S'before'
p1691
aS'and'
p1692
aS'after'
p1693
asg7
S'before and after'
p1694
sg9
S' koreen and nicks recital'
p1695
sg11
Vptsd-clarinet-boy
p1696
sg13
(lp1697
g1691
ag1692
ag1693
aS'koreen'
p1698
aS'and'
p1699
aS'nicks'
p1700
aS'recital'
p1701
asg18
(lp1702
g1698
ag1699
ag1700
ag1701
asba(iMeme
Meme
p1703
(dp1704
g3
(lp1705
g245
aS'wanted'
p1706
aS'to'
p1707
aS'play'
p1708
aS'drums'
p1709
ag67
aS'they'
p1710
aS'screamed'
p1711
aS'no'
p1712
ag67
asg7
S'i wanted to play drums. they screamed no.'
p1713
sg9
S' they stopped after i set them on fire.'
p1714
sg11
Vptsd-clarinet-boy
p1715
sg13
(lp1716
g245
ag1706
ag1707
ag1708
ag1709
ag67
ag1710
ag1711
ag1712
ag67
aS'they'
p1717
aS'stopped'
p1718
aS'after'
p1719
ag245
aS'set'
p1720
aS'them'
p1721
aS'on'
p1722
aS'fire'
p1723
ag67
asg18
(lp1724
g1717
ag1718
ag1719
ag245
ag1720
ag1721
ag1722
ag1723
ag67
asba(iMeme
Meme
p1725
(dp1726
g3
(lp1727
S'xman'
p1728
aS'muted'
p1729
aS'me'
p1730
asg7
S'xman muted me'
p1731
sg9
S' it was the only time xman muted me'
p1732
sg11
Vptsd-clarinet-boy
p1733
sg13
(lp1734
g1728
ag1729
ag1730
aS'it'
p1735
aS'was'
p1736
aS'the'
p1737
aS'only'
p1738
aS'time'
p1739
aS'xman'
p1740
aS'muted'
p1741
aS'me'
p1742
asg18
(lp1743
g1735
ag1736
ag1737
ag1738
ag1739
ag1740
ag1741
ag1742
asba(iMeme
Meme
p1744
(dp1745
g3
(lp1746
S'they'
p1747
aS'told'
p1748
aS'me'
p1749
ag245
aS'could'
p1750
aS'become'
p1751
aS'anything'
p1752
asg7
S'they told me i could become anything'
p1753
sg9
S' so i became a girl'
p1754
sg11
Vptsd-clarinet-boy
p1755
sg13
(lp1756
g1747
ag1748
ag1749
ag245
ag1750
ag1751
ag1752
aS'so'
p1757
ag245
aS'became'
p1758
ag61
aS'girl'
p1759
asg18
(lp1760
g1757
ag245
ag1758
ag61
ag1759
asba(iMeme
Meme
p1761
(dp1762
g3
(lp1763
S'get'
p1764
aS'your'
p1765
aS'shit'
p1766
aS'ready'
p1767
ag67
asg7
S'get your shit ready.'
p1768
sg9
S' then come hang in roseburg.'
p1769
sg11
Vptsd-clarinet-boy
p1770
sg13
(lp1771
g1764
ag1765
ag1766
ag1767
ag67
aS'then'
p1772
aS'come'
p1773
aS'hang'
p1774
aS'in'
p1775
aS'roseburg'
p1776
ag67
asg18
(lp1777
g1772
ag1773
ag1774
ag1775
ag1776
ag67
asba(iMeme
Meme
p1778
(dp1779
g3
(lp1780
S'it'
p1781
aS'was'
p1782
aS'this'
p1783
aS'very'
p1784
aS'flute'
p1785
asg7
S'it was this very flute'
p1786
sg9
S' that mike shanks violated me with'
p1787
sg11
Vptsd-clarinet-boy
p1788
sg13
(lp1789
g1781
ag1782
ag1783
ag1784
ag1785
aS'that'
p1790
aS'mike'
p1791
aS'shanks'
p1792
aS'violated'
p1793
aS'me'
p1794
aS'with'
p1795
asg18
(lp1796
g1790
ag1791
ag1792
ag1793
ag1794
ag1795
asba(iMeme
Meme
p1797
(dp1798
g3
(lp1799
S'solo'
p1800
aS'io'
p1801
aS'al'
p1802
aS'mondo'
p1803
asg7
S'solo io al mondo'
p1804
sg9
S' sarebbe perfetto'
p1805
sg11
Vptsd-clarinet-boy
p1806
sg13
(lp1807
g1800
ag1801
ag1802
ag1803
aS'sarebbe'
p1808
aS'perfetto'
p1809
asg18
(lp1810
g1808
ag1809
asba(iMeme
Meme
p1811
(dp1812
g3
(lp1813
S'who'
p1814
aS'needs'
p1815
aS'swag'
p1816
asg7
S'who needs swag'
p1817
sg9
S' when you have a bowlcut?'
p1818
sg11
Vptsd-clarinet-boy
p1819
sg13
(lp1820
g1814
ag1815
ag1816
aS'when'
p1821
aS'you'
p1822
aS'have'
p1823
ag61
aS'bowlcut'
p1824
ag399
asg18
(lp1825
g1821
ag1822
ag1823
ag61
ag1824
ag399
asba(iMeme
Meme
p1826
(dp1827
g3
(lp1828
S'they'
p1829
aS'asked'
p1830
aS'me'
p1831
aS'for'
p1832
aS'evidence'
p1833
ag67
ag245
aS'couldnt'
p1834
aS'give'
p1835
aS'it'
p1836
ag67
asg7
S'they asked me for evidence.  i couldnt give it.'
p1837
sg9
S' when they ask for mercy'
p1838
sg11
Vptsd-clarinet-boy
p1839
sg13
(lp1840
g1829
ag1830
ag1831
ag1832
ag1833
ag67
ag245
ag1834
ag1835
ag1836
ag67
aS'when'
p1841
aS'they'
p1842
aS'ask'
p1843
aS'for'
p1844
aS'mercy'
p1845
asg18
(lp1846
g1841
ag1842
ag1843
ag1844
ag1845
asba(iMeme
Meme
p1847
(dp1848
g3
(lp1849
S'hi'
p1850
aS'my'
p1851
aS'name'
p1852
aS'is'
p1853
aS'mac'
p1854
asg7
S'hi my name is mac'
p1855
sg9
S' i have a orange bush :0'
p1856
sg11
Vptsd-clarinet-boy
p1857
sg13
(lp1858
g1850
ag1851
ag1852
ag1853
ag1854
ag245
aS'have'
p1859
ag61
aS'orange'
p1860
aS'bush'
p1861
aS':0'
p1862
asg18
(lp1863
g245
ag1859
ag61
ag1860
ag1861
ag1862
asba(iMeme
Meme
p1864
(dp1865
g3
(lp1866
S'they'
p1867
aS'laughed'
p1868
aS'at'
p1869
aS'my'
p1870
aS'music'
p1871
ag67
asg7
S'they laughed at my music.'
p1872
sg9
S' i laughed at their screams'
p1873
sg11
Vptsd-clarinet-boy
p1874
sg13
(lp1875
g1867
ag1868
ag1869
ag1870
ag1871
ag67
ag245
aS'laughed'
p1876
aS'at'
p1877
aS'their'
p1878
aS'screams'
p1879
asg18
(lp1880
g245
ag1876
ag1877
ag1878
ag1879
asba(iMeme
Meme
p1881
(dp1882
g3
(lp1883
S'oh'
p1884
aS'heyyyyy'
p1885
asg7
S'oh heyyyyy'
p1886
sg9
S' cool uniform bro'
p1887
sg11
Vptsd-clarinet-boy
p1888
sg13
(lp1889
g1884
ag1885
aS'cool'
p1890
aS'uniform'
p1891
aS'bro'
p1892
asg18
(lp1893
g1890
ag1891
ag1892
asba(iMeme
Meme
p1894
(dp1895
g3
(lp1896
S'he'
p1897
aS'called'
p1898
aS'me'
p1899
aS'fat'
p1900
asg7
S'he called me fat'
p1901
sg9
S' i fucked his mom'
p1902
sg11
Vptsd-clarinet-boy
p1903
sg13
(lp1904
g1897
ag1898
ag1899
ag1900
ag245
aS'fucked'
p1905
aS'his'
p1906
aS'mom'
p1907
asg18
(lp1908
g245
ag1905
ag1906
ag1907
asba(iMeme
Meme
p1909
(dp1910
g3
(lp1911
S'they'
p1912
aS'asked'
p1913
aS'me'
p1914
aS'for'
p1915
aS'evidence'
p1916
ag67
ag245
aS'couldnt'
p1917
aS'give'
p1918
aS'it'
p1919
ag67
asg7
S'they asked me for evidence.  i couldnt give it.'
p1920
sg9
S' when they ask me for mercy'
p1921
sg11
Vptsd-clarinet-boy
p1922
sg13
(lp1923
g1912
ag1913
ag1914
ag1915
ag1916
ag67
ag245
ag1917
ag1918
ag1919
ag67
aS'when'
p1924
aS'they'
p1925
aS'ask'
p1926
aS'me'
p1927
aS'for'
p1928
aS'mercy'
p1929
asg18
(lp1930
g1924
ag1925
ag1926
ag1927
ag1928
ag1929
asba(iMeme
Meme
p1931
(dp1932
g3
(lp1933
g245
aS'had'
p1934
ag61
aS'dream'
p1935
aS'once'
p1936
ag67
asg7
S'i had a dream once.'
p1937
sg9
S' to become staff too bad i always get declined ffffuuuuu'
p1938
sg11
Vptsd-clarinet-boy
p1939
sg13
(lp1940
g245
ag1934
ag61
ag1935
ag1936
ag67
aS'to'
p1941
aS'become'
p1942
aS'staff'
p1943
aS'too'
p1944
aS'bad'
p1945
ag245
aS'always'
p1946
aS'get'
p1947
aS'declined'
p1948
aS'ffffuuuuu'
p1949
asg18
(lp1950
g1941
ag1942
ag1943
ag1944
ag1945
ag245
ag1946
ag1947
ag1948
ag1949
asba(iMeme
Meme
p1951
(dp1952
g3
(lp1953
g245
aS'loved'
p1954
aS'my'
p1955
aS'priest'
p1956
asg7
S'i loved my priest'
p1957
sg9
S' he made me a man'
p1958
sg11
Vptsd-clarinet-boy
p1959
sg13
(lp1960
g245
ag1954
ag1955
ag1956
aS'he'
p1961
aS'made'
p1962
aS'me'
p1963
ag61
aS'man'
p1964
asg18
(lp1965
g1961
ag1962
ag1963
ag61
ag1964
asba(iMeme
Meme
p1966
(dp1967
g3
(lp1968
S'speed'
p1969
aS'likes'
p1970
aS'his'
p1971
aS'cock..'
p1972
asg7
S'speed likes his cock..'
p1973
sg9
S' small and hollow'
p1974
sg11
Vptsd-clarinet-boy
p1975
sg13
(lp1976
g1969
ag1970
ag1971
ag1972
aS'small'
p1977
aS'and'
p1978
aS'hollow'
p1979
asg18
(lp1980
g1977
ag1978
ag1979
asba(iMeme
Meme
p1981
(dp1982
g3
(lp1983
S'they'
p1984
aS'said'
p1985
ag245
aS'didnt'
p1986
aS'have'
p1987
ag61
aS'soul'
p1988
asg7
S'they said i didnt have a soul'
p1989
sg9
S' now their souls dont have bodies'
p1990
sg11
Vptsd-clarinet-boy
p1991
sg13
(lp1992
g1984
ag1985
ag245
ag1986
ag1987
ag61
ag1988
aS'now'
p1993
aS'their'
p1994
aS'souls'
p1995
aS'dont'
p1996
aS'have'
p1997
aS'bodies'
p1998
asg18
(lp1999
g1993
ag1994
ag1995
ag1996
ag1997
ag1998
asba(iMeme
Meme
p2000
(dp2001
g3
(lp2002
S'they'
p2003
aS'said'
p2004
ag245
aS'could'
p2005
aS'be'
p2006
aS'anything'
p2007
ag245
aS'wanted'
p2008
asg7
S'they said i could be anything i wanted'
p2009
sg9
S' so i chose to be as free as the spirits of those who left im talkin malcom coltrane..'
p2010
sg11
Vptsd-clarinet-boy
p2011
sg13
(lp2012
g2003
ag2004
ag245
ag2005
ag2006
ag2007
ag245
ag2008
aS'so'
p2013
ag245
aS'chose'
p2014
aS'to'
p2015
aS'be'
p2016
aS'as'
p2017
aS'free'
p2018
aS'as'
p2019
aS'the'
p2020
aS'spirits'
p2021
aS'of'
p2022
aS'those'
p2023
aS'who'
p2024
aS'left'
p2025
aS'im'
p2026
aS'talkin'
p2027
aS'malcom'
p2028
aS'coltrane..'
p2029
asg18
(lp2030
g2013
ag245
ag2014
ag2015
ag2016
ag2017
ag2018
ag2019
ag2020
ag2021
ag2022
ag2023
ag2024
ag2025
ag2026
ag2027
ag2028
ag2029
asba(iMeme
Meme
p2031
(dp2032
g3
(lp2033
S'dont'
p2034
aS'you'
p2035
aS'know'
p2036
asg7
S'dont you know'
p2037
sg9
S' you are my shooting star!'
p2038
sg11
Vptsd-clarinet-boy
p2039
sg13
(lp2040
g2034
ag2035
ag2036
aS'you'
p2041
aS'are'
p2042
aS'my'
p2043
aS'shooting'
p2044
aS'star'
p2045
ag525
asg18
(lp2046
g2041
ag2042
ag2043
ag2044
ag2045
ag525
asba(iMeme
Meme
p2047
(dp2048
g3
(lp2049
S'aaron'
p2050
aS'howe'
p2051
asg7
S'aaron howe'
p2052
sg9
S' ginger for 17 years and counting!'
p2053
sg11
Vptsd-clarinet-boy
p2054
sg13
(lp2055
g2050
ag2051
aS'ginger'
p2056
aS'for'
p2057
aS'17'
p2058
aS'years'
p2059
aS'and'
p2060
aS'counting'
p2061
ag525
asg18
(lp2062
g2056
ag2057
ag2058
ag2059
ag2060
ag2061
ag525
asba(iMeme
Meme
p2063
(dp2064
g3
(lp2065
S'at'
p2066
aS'school'
p2067
aS'peope'
p2068
aS'make'
p2069
aS'me'
p2070
aS'do'
p2071
aS'the'
p2072
asg7
S'at school peope make me do the'
p2073
sg9
S' truffle shuffle'
p2074
sg11
Vptsd-clarinet-boy
p2075
sg13
(lp2076
g2066
ag2067
ag2068
ag2069
ag2070
ag2071
ag2072
aS'truffle'
p2077
aS'shuffle'
p2078
asg18
(lp2079
g2077
ag2078
asba(iMeme
Meme
p2080
(dp2081
g3
(lp2082
S'she'
p2083
aS'told'
p2084
aS'me'
p2085
aS'im'
p2086
aS'hot'
p2087
asg7
S'she told me im hot'
p2088
sg9
S' i welded her to the wall'
p2089
sg11
Vptsd-clarinet-boy
p2090
sg13
(lp2091
g2083
ag2084
ag2085
ag2086
ag2087
ag245
aS'welded'
p2092
aS'her'
p2093
aS'to'
p2094
aS'the'
p2095
aS'wall'
p2096
asg18
(lp2097
g245
ag2092
ag2093
ag2094
ag2095
ag2096
asba(iMeme
Meme
p2098
(dp2099
g3
(lp2100
S'they'
p2101
aS'laughed'
p2102
aS'at'
p2103
aS'my'
p2104
aS'fat'
p2105
asg7
S'they laughed at my fat'
p2106
sg9
S' i laughed at their cries'
p2107
sg11
Vptsd-clarinet-boy
p2108
sg13
(lp2109
g2101
ag2102
ag2103
ag2104
ag2105
ag245
aS'laughed'
p2110
aS'at'
p2111
aS'their'
p2112
aS'cries'
p2113
asg18
(lp2114
g245
ag2110
ag2111
ag2112
ag2113
asba(iMeme
Meme
p2115
(dp2116
g3
(lp2117
g245
aS'shit'
p2118
aS'my'
p2119
aS'pants'
p2120
asg7
S'i shit my pants'
p2121
sg9
S' it feels good'
p2122
sg11
Vptsd-clarinet-boy
p2123
sg13
(lp2124
g245
ag2118
ag2119
ag2120
aS'it'
p2125
aS'feels'
p2126
aS'good'
p2127
asg18
(lp2128
g2125
ag2126
ag2127
asba(iMeme
Meme
p2129
(dp2130
g3
(lp2131
S'when'
p2132
aS'we'
p2133
aS'last'
p2134
aS'met'
p2135
ag245
aS'was'
p2136
aS'just'
p2137
ag61
aS'boy'
p2138
asg7
S'when we last met i was just a boy'
p2139
sg9
S' but how do you like me now?!'
p2140
sg11
Vptsd-clarinet-boy
p2141
sg13
(lp2142
g2132
ag2133
ag2134
ag2135
ag245
ag2136
ag2137
ag61
ag2138
aS'but'
p2143
aS'how'
p2144
aS'do'
p2145
aS'you'
p2146
aS'like'
p2147
aS'me'
p2148
aS'now'
p2149
ag399
ag525
asg18
(lp2150
g2143
ag2144
ag2145
ag2146
ag2147
ag2148
ag2149
ag399
ag525
asba(iMeme
Meme
p2151
(dp2152
g3
(lp2153
S'they'
p2154
aS'didnt'
p2155
aS'listen'
p2156
aS'to'
p2157
aS'my'
p2158
aS'clarinet'
p2159
aS'recital'
p2160
asg7
S'they didnt listen to my clarinet recital'
p2161
sg9
S' i didnt listen to their cries for mercy..'
p2162
sg11
Vptsd-clarinet-boy
p2163
sg13
(lp2164
g2154
ag2155
ag2156
ag2157
ag2158
ag2159
ag2160
ag245
aS'didnt'
p2165
aS'listen'
p2166
aS'to'
p2167
aS'their'
p2168
aS'cries'
p2169
aS'for'
p2170
aS'mercy..'
p2171
asg18
(lp2172
g245
ag2165
ag2166
ag2167
ag2168
ag2169
ag2170
ag2171
asba(iMeme
Meme
p2173
(dp2174
g3
(lp2175
S'happy'
p2176
aS'birthday'
p2177
asg7
S'happy birthday'
p2178
sg9
S' katie!!! xoxo'
p2179
sg11
Vptsd-clarinet-boy
p2180
sg13
(lp2181
g2176
ag2177
aS'katie'
p2182
ag525
ag525
ag525
aS'xoxo'
p2183
asg18
(lp2184
g2182
ag525
ag525
ag525
ag2183
asba(iMeme
Meme
p2185
(dp2186
g3
(lp2187
S'giddyup'
p2188
asg7
S'giddyup'
p2189
sg9
S' my little pony'
p2190
sg11
Vptsd-clarinet-boy
p2191
sg13
(lp2192
g2188
aS'my'
p2193
aS'little'
p2194
aS'pony'
p2195
asg18
(lp2196
g2193
ag2194
ag2195
asba(iMeme
Meme
p2197
(dp2198
g3
(lp2199
S'keep'
p2200
aS'the'
p2201
aS'stairwells'
p2202
aS'they'
p2203
aS'said'
p2204
asg7
S'keep the stairwells they said'
p2205
sg9
S' nothing will happen they said'
p2206
sg11
Vptsd-clarinet-boy
p2207
sg13
(lp2208
g2200
ag2201
ag2202
ag2203
ag2204
aS'nothing'
p2209
aS'will'
p2210
aS'happen'
p2211
aS'they'
p2212
aS'said'
p2213
asg18
(lp2214
g2209
ag2210
ag2211
ag2212
ag2213
asba(iMeme
Meme
p2215
(dp2216
g3
(lp2217
g245
aS'pull'
p2218
aS'hoes'
p2219
asg7
S'i pull hoes'
p2220
sg9
S' from my garden'
p2221
sg11
Vptsd-clarinet-boy
p2222
sg13
(lp2223
g245
ag2218
ag2219
aS'from'
p2224
aS'my'
p2225
aS'garden'
p2226
asg18
(lp2227
g2224
ag2225
ag2226
asba(iMeme
Meme
p2228
(dp2229
g3
(lp2230
S'they'
p2231
aS'stole'
p2232
aS'my'
p2233
aS'clarinet'
p2234
asg7
S'they stole my clarinet'
p2235
sg9
S' i stole their sisters virginity'
p2236
sg11
Vptsd-clarinet-boy
p2237
sg13
(lp2238
g2231
ag2232
ag2233
ag2234
ag245
aS'stole'
p2239
aS'their'
p2240
aS'sisters'
p2241
aS'virginity'
p2242
asg18
(lp2243
g245
ag2239
ag2240
ag2241
ag2242
asba(iMeme
Meme
p2244
(dp2245
g3
(lp2246
S'tmb'
p2247
asg7
S'tmb'
p2248
sg9
S' forever alone jajajjajaja'
p2249
sg11
Vptsd-clarinet-boy
p2250
sg13
(lp2251
g2247
aS'forever'
p2252
aS'alone'
p2253
aS'jajajjajaja'
p2254
asg18
(lp2255
g2252
ag2253
ag2254
asba(iMeme
Meme
p2256
(dp2257
g3
(lp2258
S'fml'
p2259
aS'kony'
p2260
aS'rejected'
p2261
aS'me'
p2262
ag525
asg7
S'fml kony rejected me!'
p2263
sg9
S' that bastards gonna pay!'
p2264
sg11
Vptsd-clarinet-boy
p2265
sg13
(lp2266
g2259
ag2260
ag2261
ag2262
ag525
aS'that'
p2267
aS'bastards'
p2268
aS'gon'
p2269
aS'na'
p2270
aS'pay'
p2271
ag525
asg18
(lp2272
g2267
ag2268
ag2269
ag2270
ag2271
ag525
asba(iMeme
Meme
p2273
(dp2274
g3
(lp2275
S'they'
p2276
aS'didnt'
p2277
aS'come'
p2278
aS'to'
p2279
aS'my'
p2280
aS'clarinet'
p2281
aS'recital'
p2282
asg7
S'they didnt come to my clarinet recital'
p2283
sg9
S' i didnt hear their cries for mercy'
p2284
sg11
Vptsd-clarinet-boy
p2285
sg13
(lp2286
g2276
ag2277
ag2278
ag2279
ag2280
ag2281
ag2282
ag245
aS'didnt'
p2287
aS'hear'
p2288
aS'their'
p2289
aS'cries'
p2290
aS'for'
p2291
aS'mercy'
p2292
asg18
(lp2293
g245
ag2287
ag2288
ag2289
ag2290
ag2291
ag2292
asba(iMeme
Meme
p2294
(dp2295
g3
(lp2296
S'the'
p2297
aS'one'
p2298
aS'and'
p2299
aS'the'
p2300
aS'only'
p2301
asg7
S'the one and the only'
p2302
sg9
S' luigi rossi!'
p2303
sg11
Vptsd-clarinet-boy
p2304
sg13
(lp2305
g2297
ag2298
ag2299
ag2300
ag2301
aS'luigi'
p2306
aS'rossi'
p2307
ag525
asg18
(lp2308
g2306
ag2307
ag525
asba(iMeme
Meme
p2309
(dp2310
g3
(lp2311
S'they'
p2312
aS'said'
p2313
ag245
aS'could'
p2314
aS'be'
p2315
aS'anything'
p2316
asg7
S'they said i could be anything'
p2317
sg9
S' so i became a douche'
p2318
sg11
Vptsd-clarinet-boy
p2319
sg13
(lp2320
g2312
ag2313
ag245
ag2314
ag2315
ag2316
aS'so'
p2321
ag245
aS'became'
p2322
ag61
aS'douche'
p2323
asg18
(lp2324
g2321
ag245
ag2322
ag61
ag2323
asba(iMeme
Meme
p2325
(dp2326
g3
(lp2327
S'technology'
p2328
asg7
S'technology'
p2329
sg9
S' not my forte'
p2330
sg11
Vptsd-clarinet-boy
p2331
sg13
(lp2332
g2328
aS'not'
p2333
aS'my'
p2334
aS'forte'
p2335
asg18
(lp2336
g2333
ag2334
ag2335
asba(iMeme
Meme
p2337
(dp2338
g3
(lp2339
S'the'
p2340
aS'laughed'
p2341
aS'at'
p2342
aS'me'
p2343
asg7
S'the laughed at me'
p2344
sg9
S' now they laugh when i move the clarinet i stuck their severed onto'
p2345
sg11
Vptsd-clarinet-boy
p2346
sg13
(lp2347
g2340
ag2341
ag2342
ag2343
aS'now'
p2348
aS'they'
p2349
aS'laugh'
p2350
aS'when'
p2351
ag245
aS'move'
p2352
aS'the'
p2353
aS'clarinet'
p2354
ag245
aS'stuck'
p2355
aS'their'
p2356
aS'severed'
p2357
aS'onto'
p2358
asg18
(lp2359
g2348
ag2349
ag2350
ag2351
ag245
ag2352
ag2353
ag2354
ag245
ag2355
ag2356
ag2357
ag2358
asba(iMeme
Meme
p2360
(dp2361
g3
(lp2362
S'they'
p2363
aS'told'
p2364
aS'me'
p2365
ag245
aS'could'
p2366
aS'be'
p2367
aS'anything'
p2368
asg7
S'they told me i could be anything'
p2369
sg9
S' so i became a god'
p2370
sg11
Vptsd-clarinet-boy
p2371
sg13
(lp2372
g2363
ag2364
ag2365
ag245
ag2366
ag2367
ag2368
aS'so'
p2373
ag245
aS'became'
p2374
ag61
aS'god'
p2375
asg18
(lp2376
g2373
ag245
ag2374
ag61
ag2375
asba(iMeme
Meme
p2377
(dp2378
g3
(lp2379
S'im'
p2380
asg7
S'im'
p2381
sg9
S' a dark elf not a orc lol'
p2382
sg11
Vptsd-clarinet-boy
p2383
sg13
(lp2384
g2380
ag61
aS'dark'
p2385
aS'elf'
p2386
aS'not'
p2387
ag61
aS'orc'
p2388
aS'lol'
p2389
asg18
(lp2390
g61
ag2385
ag2386
ag2387
ag61
ag2388
ag2389
asba(iMeme
Meme
p2391
(dp2392
g3
(lp2393
S'battle'
p2394
aS'pleases'
p2395
aS'you'
p2396
aS'crom'
p2397
asg7
S'battle pleases you crom'
p2398
sg9
S' so grant me one wish'
p2399
sg11
Vptsd-clarinet-boy
p2400
sg13
(lp2401
g2394
ag2395
ag2396
ag2397
aS'so'
p2402
aS'grant'
p2403
aS'me'
p2404
aS'one'
p2405
aS'wish'
p2406
asg18
(lp2407
g2402
ag2403
ag2404
ag2405
ag2406
asba(iMeme
Meme
p2408
(dp2409
g3
(lp2410
S'they'
p2411
aS'called'
p2412
aS'me'
p2413
aS'kid'
p2414
asg7
S'they called me kid'
p2415
sg9
S' they will call me king'
p2416
sg11
Vptsd-clarinet-boy
p2417
sg13
(lp2418
g2411
ag2412
ag2413
ag2414
aS'they'
p2419
aS'will'
p2420
aS'call'
p2421
aS'me'
p2422
aS'king'
p2423
asg18
(lp2424
g2419
ag2420
ag2421
ag2422
ag2423
asba(iMeme
Meme
p2425
(dp2426
g3
(lp2427
S'dave'
p2428
aS'stout'
p2429
asg7
S'dave stout'
p2430
sg9
S' down since day one'
p2431
sg11
Vptsd-clarinet-boy
p2432
sg13
(lp2433
g2428
ag2429
aS'down'
p2434
aS'since'
p2435
aS'day'
p2436
aS'one'
p2437
asg18
(lp2438
g2434
ag2435
ag2436
ag2437
asba(iMeme
Meme
p2439
(dp2440
g3
(lp2441
S'you'
p2442
aS'have'
p2443
aS'to'
p2444
aS'throw'
p2445
aS'the'
p2446
aS'first'
p2447
aS'punch'
p2448
asg7
S'you have to throw the first punch'
p2449
sg9
S' and then i kick your ass'
p2450
sg11
Vptsd-clarinet-boy
p2451
sg13
(lp2452
g2442
ag2443
ag2444
ag2445
ag2446
ag2447
ag2448
aS'and'
p2453
aS'then'
p2454
ag245
aS'kick'
p2455
aS'your'
p2456
aS'ass'
p2457
asg18
(lp2458
g2453
ag2454
ag245
ag2455
ag2456
ag2457
asba(iMeme
Meme
p2459
(dp2460
g3
(lp2461
S'they'
p2462
aS'told'
p2463
aS'me'
p2464
ag245
aS'could'
p2465
aS'be'
p2466
aS'anything'
p2467
asg7
S'they told me i could be anything'
p2468
sg9
S' so i became an slc'
p2469
sg11
Vptsd-clarinet-boy
p2470
sg13
(lp2471
g2462
ag2463
ag2464
ag245
ag2465
ag2466
ag2467
aS'so'
p2472
ag245
aS'became'
p2473
aS'an'
p2474
aS'slc'
p2475
asg18
(lp2476
g2472
ag245
ag2473
ag2474
ag2475
asba(iMeme
Meme
p2477
(dp2478
g3
(lp2479
g245
aS'take'
p2480
aS'music'
p2481
aS'seriously'
p2482
asg7
S'i take music seriously'
p2483
sg9
S' so do nick and koreen'
p2484
sg11
Vptsd-clarinet-boy
p2485
sg13
(lp2486
g245
ag2480
ag2481
ag2482
aS'so'
p2487
aS'do'
p2488
aS'nick'
p2489
aS'and'
p2490
aS'koreen'
p2491
asg18
(lp2492
g2487
ag2488
ag2489
ag2490
ag2491
asba(iMeme
Meme
p2493
(dp2494
g3
(lp2495
S'brother'
p2496
aS'lost'
p2497
aS'my'
p2498
aS'reed'
p2499
asg7
S'brother lost my reed'
p2500
sg9
S' he lost his life'
p2501
sg11
Vptsd-clarinet-boy
p2502
sg13
(lp2503
g2496
ag2497
ag2498
ag2499
aS'he'
p2504
aS'lost'
p2505
aS'his'
p2506
aS'life'
p2507
asg18
(lp2508
g2504
ag2505
ag2506
ag2507
asba(iMeme
Meme
p2509
(dp2510
g3
(lp2511
S'they'
p2512
aS'didnt'
p2513
aS'like'
p2514
aS'my'
p2515
aS'threads'
p2516
asg7
S'they didnt like my threads'
p2517
sg9
S' so i had to end their website'
p2518
sg11
Vptsd-clarinet-boy
p2519
sg13
(lp2520
g2512
ag2513
ag2514
ag2515
ag2516
aS'so'
p2521
ag245
aS'had'
p2522
aS'to'
p2523
aS'end'
p2524
aS'their'
p2525
aS'website'
p2526
asg18
(lp2527
g2521
ag245
ag2522
ag2523
ag2524
ag2525
ag2526
asba(iMeme
Meme
p2528
(dp2529
g3
(lp2530
S'when'
p2531
ag245
aS'grow'
p2532
aS'up'
p2533
asg7
S'when i grow up'
p2534
sg9
S' i wanna athlete like grom lee'
p2535
sg11
Vptsd-clarinet-boy
p2536
sg13
(lp2537
g2531
ag245
ag2532
ag2533
ag245
aS'wan'
p2538
aS'na'
p2539
aS'athlete'
p2540
aS'like'
p2541
aS'grom'
p2542
aS'lee'
p2543
asg18
(lp2544
g245
ag2538
ag2539
ag2540
ag2541
ag2542
ag2543
asba(iMeme
Meme
p2545
(dp2546
g3
(lp2547
S'happy'
p2548
aS'birthday'
p2549
asg7
S'happy birthday'
p2550
sg9
S' i know where you sleep'
p2551
sg11
Vptsd-clarinet-boy
p2552
sg13
(lp2553
g2548
ag2549
ag245
aS'know'
p2554
aS'where'
p2555
aS'you'
p2556
aS'sleep'
p2557
asg18
(lp2558
g245
ag2554
ag2555
ag2556
ag2557
asba(iMeme
Meme
p2559
(dp2560
g3
(lp2561
S'she'
p2562
aS'didnt'
p2563
aS'listen'
p2564
aS'to'
p2565
aS'my'
p2566
aS'recital'
p2567
asg7
S'she didnt listen to my recital'
p2568
sg9
S' i didnt listen to her scream'
p2569
sg11
Vptsd-clarinet-boy
p2570
sg13
(lp2571
g2562
ag2563
ag2564
ag2565
ag2566
ag2567
ag245
aS'didnt'
p2572
aS'listen'
p2573
aS'to'
p2574
aS'her'
p2575
aS'scream'
p2576
asg18
(lp2577
g245
ag2572
ag2573
ag2574
ag2575
ag2576
asba(iMeme
Meme
p2578
(dp2579
g3
(lp2580
S'dave'
p2581
aS'stout'
p2582
asg7
S'dave stout'
p2583
sg9
S' a player since the day old'
p2584
sg11
Vptsd-clarinet-boy
p2585
sg13
(lp2586
g2581
ag2582
ag61
aS'player'
p2587
aS'since'
p2588
aS'the'
p2589
aS'day'
p2590
aS'old'
p2591
asg18
(lp2592
g61
ag2587
ag2588
ag2589
ag2590
ag2591
asba(iMeme
Meme
p2593
(dp2594
g3
(lp2595
S'hey'
p2596
aS'you'
p2597
asg7
S'hey you'
p2598
sg9
S' sexy man'
p2599
sg11
Vptsd-clarinet-boy
p2600
sg13
(lp2601
g2596
ag2597
aS'sexy'
p2602
aS'man'
p2603
asg18
(lp2604
g2602
ag2603
asba(iMeme
Meme
p2605
(dp2606
g3
(lp2607
S'bitches'
p2608
aS'aint'
p2609
aS'nothing'
p2610
asg7
S'bitches aint nothing'
p2611
sg9
S' but hos and tricks'
p2612
sg11
Vptsd-clarinet-boy
p2613
sg13
(lp2614
g2608
ag2609
ag2610
aS'but'
p2615
aS'hos'
p2616
aS'and'
p2617
aS'tricks'
p2618
asg18
(lp2619
g2615
ag2616
ag2617
ag2618
asba(iMeme
Meme
p2620
(dp2621
g3
(lp2622
g245
aS'died'
p2623
aS'with'
p2624
aS'my'
p2625
aS'clarinet'
p2626
asg7
S'i died with my clarinet'
p2627
sg9
S' on 9/11'
p2628
sg11
Vptsd-clarinet-boy
p2629
sg13
(lp2630
g245
ag2623
ag2624
ag2625
ag2626
aS'on'
p2631
aS'9/11'
p2632
asg18
(lp2633
g2631
ag2632
asba(iMeme
Meme
p2634
(dp2635
g3
(lp2636
S'they'
p2637
aS'told'
p2638
aS'me'
p2639
aS'theyd'
p2640
aS'press'
p2641
aS'charges'
p2642
asg7
S'they told me theyd press charges'
p2643
sg9
S' press their faces into a meat grinder'
p2644
sg11
Vptsd-clarinet-boy
p2645
sg13
(lp2646
g2637
ag2638
ag2639
ag2640
ag2641
ag2642
aS'press'
p2647
aS'their'
p2648
aS'faces'
p2649
aS'into'
p2650
ag61
aS'meat'
p2651
aS'grinder'
p2652
asg18
(lp2653
g2647
ag2648
ag2649
ag2650
ag61
ag2651
ag2652
asba(iMeme
Meme
p2654
(dp2655
g3
(lp2656
S'they'
p2657
aS'all'
p2658
aS'bullied'
p2659
aS'me'
p2660
asg7
S'they all bullied me'
p2661
sg9
S' then this one timeat band camp'
p2662
sg11
Vptsd-clarinet-boy
p2663
sg13
(lp2664
g2657
ag2658
ag2659
ag2660
aS'then'
p2665
aS'this'
p2666
aS'one'
p2667
aS'timeat'
p2668
aS'band'
p2669
aS'camp'
p2670
asg18
(lp2671
g2665
ag2666
ag2667
ag2668
ag2669
ag2670
asba(iMeme
Meme
p2672
(dp2673
g3
(lp2674
g61
aS'guy'
p2675
aS'once'
p2676
aS'told'
p2677
aS'me'
p2678
ag245
aS'was'
p2679
aS'fat'
p2680
asg7
S'a guy once told me i was fat'
p2681
sg9
S' now '
p2682
sg11
Vptsd-clarinet-boy
p2683
sg13
(lp2684
g61
ag2675
ag2676
ag2677
ag2678
ag245
ag2679
ag2680
aS'now'
p2685
asg18
(lp2686
g2685
asba(iMeme
Meme
p2687
(dp2688
g3
(lp2689
S'at'
p2690
aS'school'
p2691
aS'people'
p2692
aS'make'
p2693
aS'me'
p2694
aS'do'
p2695
aS'the'
p2696
asg7
S'at school people make me do the'
p2697
sg9
S' truffle shuffle'
p2698
sg11
Vptsd-clarinet-boy
p2699
sg13
(lp2700
g2690
ag2691
ag2692
ag2693
ag2694
ag2695
ag2696
aS'truffle'
p2701
aS'shuffle'
p2702
asg18
(lp2703
g2701
ag2702
asba(iMeme
Meme
p2704
(dp2705
g3
(lp2706
S'they'
p2707
aS'didnt'
p2708
aS'listen'
p2709
aS'to'
p2710
aS'my'
p2711
aS'clarinet'
p2712
aS'recital'
p2713
asg7
S'they didnt listen to my clarinet recital'
p2714
sg9
S' i didn'
p2715
sg11
Vptsd-clarinet-boy
p2716
sg13
(lp2717
g2707
ag2708
ag2709
ag2710
ag2711
ag2712
ag2713
ag245
aS'didn'
p2718
asg18
(lp2719
g245
ag2718
asba(iMeme
Meme
p2720
(dp2721
g3
(lp2722
S'she'
p2723
aS'was'
p2724
aS'so'
p2725
aS'beautiful'
p2726
asg7
S'she was so beautiful'
p2727
sg9
S' i had to kill her'
p2728
sg11
Vptsd-clarinet-boy
p2729
sg13
(lp2730
g2723
ag2724
ag2725
ag2726
ag245
aS'had'
p2731
aS'to'
p2732
aS'kill'
p2733
aS'her'
p2734
asg18
(lp2735
g245
ag2731
ag2732
ag2733
ag2734
asba(iMeme
Meme
p2736
(dp2737
g3
(lp2738
g245
aS'wiped'
p2739
aS'the'
p2740
aS'smirks'
p2741
aS'off'
p2742
aS'their'
p2743
aS'faces'
p2744
asg7
S'i wiped the smirks off their faces'
p2745
sg9
S' when i fed them their parents'
p2746
sg11
Vptsd-clarinet-boy
p2747
sg13
(lp2748
g245
ag2739
ag2740
ag2741
ag2742
ag2743
ag2744
aS'when'
p2749
ag245
aS'fed'
p2750
aS'them'
p2751
aS'their'
p2752
aS'parents'
p2753
asg18
(lp2754
g2749
ag245
ag2750
ag2751
ag2752
ag2753
asba(iMeme
Meme
p2755
(dp2756
g3
(lp2757
g245
aS'used'
p2758
aS'to'
p2759
aS'have'
p2760
aS'friends'
p2761
asg7
S'i used to have friends'
p2762
sg9
S' used to'
p2763
sg11
Vptsd-clarinet-boy
p2764
sg13
(lp2765
g245
ag2758
ag2759
ag2760
ag2761
aS'used'
p2766
aS'to'
p2767
asg18
(lp2768
g2766
ag2767
asba(iMeme
Meme
p2769
(dp2770
g3
(lp2771
S'fml'
p2772
aS'kony'
p2773
aS'rejected'
p2774
aS'me'
p2775
ag525
asg7
S'fml kony rejected me!'
p2776
sg9
S' i call racism!'
p2777
sg11
Vptsd-clarinet-boy
p2778
sg13
(lp2779
g2772
ag2773
ag2774
ag2775
ag525
ag245
aS'call'
p2780
aS'racism'
p2781
ag525
asg18
(lp2782
g245
ag2780
ag2781
ag525
asba(iMeme
Meme
p2783
(dp2784
g3
(lp2785
g245
aS'thought'
p2786
asg7
S'i thought '
p2787
sg9
S' thomas howey was a cunt'
p2788
sg11
Vptsd-clarinet-boy
p2789
sg13
(lp2790
g245
ag2786
aS'thomas'
p2791
aS'howey'
p2792
aS'was'
p2793
ag61
aS'cunt'
p2794
asg18
(lp2795
g2791
ag2792
ag2793
ag61
ag2794
asba(iMeme
Meme
p2796
(dp2797
g3
(lp2798
S'they'
p2799
aS'said'
p2800
ag245
aS'could'
p2801
aS'be'
p2802
aS'anything'
p2803
asg7
S'they said i could be anything'
p2804
sg9
S' so i became a gdb god'
p2805
sg11
Vptsd-clarinet-boy
p2806
sg13
(lp2807
g2799
ag2800
ag245
ag2801
ag2802
ag2803
aS'so'
p2808
ag245
aS'became'
p2809
ag61
aS'gdb'
p2810
aS'god'
p2811
asg18
(lp2812
g2808
ag245
ag2809
ag61
ag2810
ag2811
asba(iMeme
Meme
p2813
(dp2814
g3
(lp2815
S'yes'
p2816
asg7
S'yes'
p2817
sg9
S' yes pedo bear is pleased'
p2818
sg11
Vptsd-clarinet-boy
p2819
sg13
(lp2820
g2816
aS'yes'
p2821
aS'pedo'
p2822
aS'bear'
p2823
aS'is'
p2824
aS'pleased'
p2825
asg18
(lp2826
g2821
ag2822
ag2823
ag2824
ag2825
asba(iMeme
Meme
p2827
(dp2828
g3
(lp2829
S'they'
p2830
aS'tried'
p2831
aS'to'
p2832
aS'tax'
p2833
aS'me'
p2834
asg7
S'they tried to tax me'
p2835
sg9
S' i set up the estates general'
p2836
sg11
Vptsd-clarinet-boy
p2837
sg13
(lp2838
g2830
ag2831
ag2832
ag2833
ag2834
ag245
aS'set'
p2839
aS'up'
p2840
aS'the'
p2841
aS'estates'
p2842
aS'general'
p2843
asg18
(lp2844
g245
ag2839
ag2840
ag2841
ag2842
ag2843
asba(iMeme
Meme
p2845
(dp2846
g3
(lp2847
g245
aS'am'
p2848
ag61
aS'younger'
p2849
aS'object'
p2850
asg7
S'i am a younger object'
p2851
sg9
S' hurrr durrr'
p2852
sg11
Vptsd-clarinet-boy
p2853
sg13
(lp2854
g245
ag2848
ag61
ag2849
ag2850
aS'hurrr'
p2855
aS'durrr'
p2856
asg18
(lp2857
g2855
ag2856
asba(iMeme
Meme
p2858
(dp2859
g3
(lp2860
S'im'
p2861
aS'uzi'
p2862
asg7
S'im uzi'
p2863
sg9
S' lets kiss'
p2864
sg11
Vptsd-clarinet-boy
p2865
sg13
(lp2866
g2861
ag2862
aS'lets'
p2867
aS'kiss'
p2868
asg18
(lp2869
g2867
ag2868
asba(iMeme
Meme
p2870
(dp2871
g3
(lp2872
S'they'
p2873
aS'griefed'
p2874
aS'my'
p2875
aS'server'
p2876
asg7
S'they griefed my server'
p2877
sg9
S' i griefed their grandparents house'
p2878
sg11
Vptsd-clarinet-boy
p2879
sg13
(lp2880
g2873
ag2874
ag2875
ag2876
ag245
aS'griefed'
p2881
aS'their'
p2882
aS'grandparents'
p2883
aS'house'
p2884
asg18
(lp2885
g245
ag2881
ag2882
ag2883
ag2884
asba(iMeme
Meme
p2886
(dp2887
g3
(lp2888
S'they'
p2889
aS'told'
p2890
aS'me'
p2891
aS'to'
p2892
aS'be'
p2893
aS'punctual'
p2894
asg7
S'they told me to be punctual'
p2895
sg9
S' i showed them i could be punctural'
p2896
sg11
Vptsd-clarinet-boy
p2897
sg13
(lp2898
g2889
ag2890
ag2891
ag2892
ag2893
ag2894
ag245
aS'showed'
p2899
aS'them'
p2900
ag245
aS'could'
p2901
aS'be'
p2902
aS'punctural'
p2903
asg18
(lp2904
g245
ag2899
ag2900
ag245
ag2901
ag2902
ag2903
asba(iMeme
Meme
p2905
(dp2906
g3
(lp2907
S'because'
p2908
ag245
aS'never'
p2909
aS'play'
p2910
aS'('
p2911
aS'sunglasses'
p2912
aS')'
p2913
asg7
S'because i never play (sunglasses)'
p2914
sg9
S' second fiddle yeeaaahhhhhhhhhh!'
p2915
sg11
Vptsd-clarinet-boy
p2916
sg13
(lp2917
g2908
ag245
ag2909
ag2910
ag2911
ag2912
ag2913
aS'second'
p2918
aS'fiddle'
p2919
aS'yeeaaahhhhhhhhhh'
p2920
ag525
asg18
(lp2921
g2918
ag2919
ag2920
ag525
asba(iMeme
Meme
p2922
(dp2923
g3
(lp2924
S'they'
p2925
aS'said'
p2926
aS'bands'
p2927
aS'make'
p2928
aS'her'
p2929
aS'dance'
p2930
asg7
S'they said bands make her dance'
p2931
sg9
S' thats why i made rachael'
p2932
sg11
Vptsd-clarinet-boy
p2933
sg13
(lp2934
g2925
ag2926
ag2927
ag2928
ag2929
ag2930
aS'thats'
p2935
aS'why'
p2936
ag245
aS'made'
p2937
aS'rachael'
p2938
asg18
(lp2939
g2935
ag2936
ag245
ag2937
ag2938
asba(iMeme
Meme
p2940
(dp2941
g3
(lp2942
S'they'
p2943
aS'call'
p2944
aS'me'
p2945
asg7
S'they call me'
p2946
sg9
S' the pussy destroyer.'
p2947
sg11
Vptsd-clarinet-boy
p2948
sg13
(lp2949
g2943
ag2944
ag2945
aS'the'
p2950
aS'pussy'
p2951
aS'destroyer'
p2952
ag67
asg18
(lp2953
g2950
ag2951
ag2952
ag67
asba(iMeme
Meme
p2954
(dp2955
g3
(lp2956
S'they'
p2957
aS'made'
p2958
aS'fun'
p2959
aS'of'
p2960
aS'my'
p2961
aS'voice'
p2962
asg7
S'they made fun of my voice'
p2963
sg9
S' i made fun of their tracheostomy'
p2964
sg11
Vptsd-clarinet-boy
p2965
sg13
(lp2966
g2957
ag2958
ag2959
ag2960
ag2961
ag2962
ag245
aS'made'
p2967
aS'fun'
p2968
aS'of'
p2969
aS'their'
p2970
aS'tracheostomy'
p2971
asg18
(lp2972
g245
ag2967
ag2968
ag2969
ag2970
ag2971
asba(iMeme
Meme
p2973
(dp2974
g3
(lp2975
S'they'
p2976
aS'said'
p2977
ag245
aS'could'
p2978
aS'do'
p2979
aS'anything'
p2980
asg7
S'they said i could do anything'
p2981
sg9
S' so i joined a clarinet choir and kicked  butt'
p2982
sg11
Vptsd-clarinet-boy
p2983
sg13
(lp2984
g2976
ag2977
ag245
ag2978
ag2979
ag2980
aS'so'
p2985
ag245
aS'joined'
p2986
ag61
aS'clarinet'
p2987
aS'choir'
p2988
aS'and'
p2989
aS'kicked'
p2990
aS'butt'
p2991
asg18
(lp2992
g2985
ag245
ag2986
ag61
ag2987
ag2988
ag2989
ag2990
ag2991
asba(iMeme
Meme
p2993
(dp2994
g3
(lp2995
S'playing'
p2996
aS'clarinet'
p2997
aS'on'
p2998
aS'the'
p2999
aS'weekdays'
p3000
asg7
S'playing clarinet on the weekdays'
p3001
sg9
S' skinn flut on the weekends'
p3002
sg11
Vptsd-clarinet-boy
p3003
sg13
(lp3004
g2996
ag2997
ag2998
ag2999
ag3000
aS'skinn'
p3005
aS'flut'
p3006
aS'on'
p3007
aS'the'
p3008
aS'weekends'
p3009
asg18
(lp3010
g3005
ag3006
ag3007
ag3008
ag3009
asba(iMeme
Meme
p3011
(dp3012
g3
(lp3013
S'they'
p3014
aS'called'
p3015
aS'me'
p3016
aS'12'
p3017
asg7
S'they called me 12'
p3018
sg9
S' i took their thumbs'
p3019
sg11
Vptsd-clarinet-boy
p3020
sg13
(lp3021
g3014
ag3015
ag3016
ag3017
ag245
aS'took'
p3022
aS'their'
p3023
aS'thumbs'
p3024
asg18
(lp3025
g245
ag3022
ag3023
ag3024
asba(iMeme
Meme
p3026
(dp3027
g3
(lp3028
S'they'
p3029
aS'said'
p3030
ag245
aS'can'
p3031
aS'be'
p3032
aS'anything'
p3033
asg7
S'they said i can be anything'
p3034
sg9
S' i became a murderer'
p3035
sg11
Vptsd-clarinet-boy
p3036
sg13
(lp3037
g3029
ag3030
ag245
ag3031
ag3032
ag3033
ag245
aS'became'
p3038
ag61
aS'murderer'
p3039
asg18
(lp3040
g245
ag3038
ag61
ag3039
asba(iMeme
Meme
p3041
(dp3042
g3
(lp3043
S'gingers'
p3044
aS'dont'
p3045
aS'have'
p3046
aS'souls'
p3047
asg7
S'gingers dont have souls'
p3048
sg9
S' well i have a clarinet'
p3049
sg11
Vptsd-clarinet-boy
p3050
sg13
(lp3051
g3044
ag3045
ag3046
ag3047
aS'well'
p3052
ag245
aS'have'
p3053
ag61
aS'clarinet'
p3054
asg18
(lp3055
g3052
ag245
ag3053
ag61
ag3054
asba(iMeme
Meme
p3056
(dp3057
g3
(lp3058
S'happy'
p3059
aS'birthday'
p3060
aS'craig'
p3061
aS'reck'
p3062
asg7
S'happy birthday craig reck'
p3063
sg9
S' you sexy beast'
p3064
sg11
Vptsd-clarinet-boy
p3065
sg13
(lp3066
g3059
ag3060
ag3061
ag3062
aS'you'
p3067
aS'sexy'
p3068
aS'beast'
p3069
asg18
(lp3070
g3067
ag3068
ag3069
asba(iMeme
Meme
p3071
(dp3072
g3
(lp3073
S'music'
p3074
aS'was'
p3075
aS'my'
p3076
aS'first'
p3077
aS'love'
p3078
asg7
S'music was my first love'
p3079
sg9
S' and it will be my last'
p3080
sg11
Vptsd-clarinet-boy
p3081
sg13
(lp3082
g3074
ag3075
ag3076
ag3077
ag3078
aS'and'
p3083
aS'it'
p3084
aS'will'
p3085
aS'be'
p3086
aS'my'
p3087
aS'last'
p3088
asg18
(lp3089
g3083
ag3084
ag3085
ag3086
ag3087
ag3088
asba(iMeme
Meme
p3090
(dp3091
g3
(lp3092
S'despite'
p3093
aS'my'
p3094
aS'dashing'
p3095
aS'charms'
p3096
asg7
S'despite my dashing charms'
p3097
sg9
S' the headgear is on by night'
p3098
sg11
Vptsd-clarinet-boy
p3099
sg13
(lp3100
g3093
ag3094
ag3095
ag3096
aS'the'
p3101
aS'headgear'
p3102
aS'is'
p3103
aS'on'
p3104
aS'by'
p3105
aS'night'
p3106
asg18
(lp3107
g3101
ag3102
ag3103
ag3104
ag3105
ag3106
asba(iMeme
Meme
p3108
(dp3109
g3
(lp3110
S'just'
p3111
aS'watched'
p3112
aS'the'
p3113
aS'kony'
p3114
aS'video'
p3115
ag525
asg7
S'just watched the kony video!'
p3116
sg9
S' let me at him!'
p3117
sg11
Vptsd-clarinet-boy
p3118
sg13
(lp3119
g3111
ag3112
ag3113
ag3114
ag3115
ag525
aS'let'
p3120
aS'me'
p3121
aS'at'
p3122
aS'him'
p3123
ag525
asg18
(lp3124
g3120
ag3121
ag3122
ag3123
ag525
asba(iMeme
Meme
p3125
(dp3126
g3
(lp3127
g245
aS'play'
p3128
aS'the'
p3129
aS'clarinet'
p3130
asg7
S'i play the clarinet'
p3131
sg9
S' whos askin??'
p3132
sg11
Vptsd-clarinet-boy
p3133
sg13
(lp3134
g245
ag3128
ag3129
ag3130
aS'whos'
p3135
aS'askin'
p3136
ag399
ag399
asg18
(lp3137
g3135
ag3136
ag399
ag399
asba(iMeme
Meme
p3138
(dp3139
g3
(lp3140
S'im'
p3141
aS'in'
p3142
aS'my'
p3143
aS'happy'
p3144
aS'place'
p3145
asg7
S'im in my happy place'
p3146
sg9
S' the cookie aisle at piggly wiggly'
p3147
sg11
Vptsd-clarinet-boy
p3148
sg13
(lp3149
g3141
ag3142
ag3143
ag3144
ag3145
aS'the'
p3150
aS'cookie'
p3151
aS'aisle'
p3152
aS'at'
p3153
aS'piggly'
p3154
aS'wiggly'
p3155
asg18
(lp3156
g3150
ag3151
ag3152
ag3153
ag3154
ag3155
asba(iMeme
Meme
p3157
(dp3158
g3
(lp3159
S'llamaron'
p3160
aS'la'
p3161
aS'policia'
p3162
asg7
S'llamaron la policia'
p3163
sg9
S' no llegaron en tiempo para rescatarlos'
p3164
sg11
Vptsd-clarinet-boy
p3165
sg13
(lp3166
g3160
ag3161
ag3162
aS'no'
p3167
aS'llegaron'
p3168
aS'en'
p3169
aS'tiempo'
p3170
aS'para'
p3171
aS'rescatarlos'
p3172
asg18
(lp3173
g3167
ag3168
ag3169
ag3170
ag3171
ag3172
asba(iMeme
Meme
p3174
(dp3175
g3
(lp3176
S'they'
p3177
aS'told'
p3178
aS'me'
p3179
ag245
aS'could'
p3180
aS'be'
p3181
aS'anything'
p3182
asg7
S'they told me i could be anything'
p3183
sg9
S' so i sold my soul and got a little friend on my shoulder'
p3184
sg11
Vptsd-clarinet-boy
p3185
sg13
(lp3186
g3177
ag3178
ag3179
ag245
ag3180
ag3181
ag3182
aS'so'
p3187
ag245
aS'sold'
p3188
aS'my'
p3189
aS'soul'
p3190
aS'and'
p3191
aS'got'
p3192
ag61
aS'little'
p3193
aS'friend'
p3194
aS'on'
p3195
aS'my'
p3196
aS'shoulder'
p3197
asg18
(lp3198
g3187
ag245
ag3188
ag3189
ag3190
ag3191
ag3192
ag61
ag3193
ag3194
ag3195
ag3196
ag3197
asba(iMeme
Meme
p3199
(dp3200
g3
(lp3201
g245
aS'can'
p3202
aS'get'
p3203
aS'all'
p3204
aS'the'
p3205
aS'babes'
p3206
ag245
aS'want'
p3207
asg7
S'i can get all the babes i want'
p3208
sg9
S''
p3209
sg11
Vptsd-clarinet-boy
p3210
sg13
(lp3211
g245
ag3202
ag3203
ag3204
ag3205
ag3206
ag245
ag3207
asg18
(lp3212
sba(iMeme
Meme
p3213
(dp3214
g3
(lp3215
S'ive'
p3216
aS'been'
p3217
aS'called'
p3218
ag61
aS'ginger'
p3219
asg7
S'ive been called a ginger'
p3220
sg9
S' a fat ginger by everyone at skewl'
p3221
sg11
Vptsd-clarinet-boy
p3222
sg13
(lp3223
g3216
ag3217
ag3218
ag61
ag3219
ag61
aS'fat'
p3224
aS'ginger'
p3225
aS'by'
p3226
aS'everyone'
p3227
aS'at'
p3228
aS'skewl'
p3229
asg18
(lp3230
g61
ag3224
ag3225
ag3226
ag3227
ag3228
ag3229
asba(iMeme
Meme
p3231
(dp3232
g3
(lp3233
S'she'
p3234
aS'called'
p3235
aS'me'
p3236
aS'sick'
p3237
asg7
S'she called me sick'
p3238
sg9
S' i called her an ambulance'
p3239
sg11
Vptsd-clarinet-boy
p3240
sg13
(lp3241
g3234
ag3235
ag3236
ag3237
ag245
aS'called'
p3242
aS'her'
p3243
aS'an'
p3244
aS'ambulance'
p3245
asg18
(lp3246
g245
ag3242
ag3243
ag3244
ag3245
asba(iMeme
Meme
p3247
(dp3248
g3
(lp3249
S'they'
p3250
aS'were'
p3251
aS'wrong'
p3252
aS'when'
p3253
aS'they'
p3254
aS'said'
p3255
aS'it'
p3256
aS'was'
p3257
aS'.flac'
p3258
asg7
S'they were wrong when they said it was .flac'
p3259
sg9
S' i was right when i found their jugular'
p3260
sg11
Vptsd-clarinet-boy
p3261
sg13
(lp3262
g3250
ag3251
ag3252
ag3253
ag3254
ag3255
ag3256
ag3257
ag3258
ag245
aS'was'
p3263
aS'right'
p3264
aS'when'
p3265
ag245
aS'found'
p3266
aS'their'
p3267
aS'jugular'
p3268
asg18
(lp3269
g245
ag3263
ag3264
ag3265
ag245
ag3266
ag3267
ag3268
asba(iMeme
Meme
p3270
(dp3271
g3
(lp3272
g245
aS'shit'
p3273
aS'my'
p3274
aS'pants'
p3275
asg7
S'i shit my pants'
p3276
sg9
S' it feels good'
p3277
sg11
Vptsd-clarinet-boy
p3278
sg13
(lp3279
g245
ag3273
ag3274
ag3275
aS'it'
p3280
aS'feels'
p3281
aS'good'
p3282
asg18
(lp3283
g3280
ag3281
ag3282
asba(iMeme
Meme
p3284
(dp3285
g3
(lp3286
S'ginger'
p3287
aS'they'
p3288
aS'said'
p3289
asg7
S'ginger they said'
p3290
sg9
S' okey'
p3291
sg11
Vptsd-clarinet-boy
p3292
sg13
(lp3293
g3287
ag3288
ag3289
aS'okey'
p3294
asg18
(lp3295
g3294
asba(iMeme
Meme
p3296
(dp3297
g3
(lp3298
S'they'
p3299
aS'told'
p3300
aS'me'
p3301
ag245
aS'could'
p3302
aS'be'
p3303
aS'anything'
p3304
ag245
aS'wanted'
p3305
asg7
S'they told me i could be anything i wanted'
p3306
sg9
S' so i became 3x jncie'
p3307
sg11
Vptsd-clarinet-boy
p3308
sg13
(lp3309
g3299
ag3300
ag3301
ag245
ag3302
ag3303
ag3304
ag245
ag3305
aS'so'
p3310
ag245
aS'became'
p3311
aS'3x'
p3312
aS'jncie'
p3313
asg18
(lp3314
g3310
ag245
ag3311
ag3312
ag3313
asba(iMeme
Meme
p3315
(dp3316
g3
(lp3317
S'they'
p3318
aS'said'
p3319
ag245
aS'could'
p3320
aS'invent'
p3321
aS'anything'
p3322
asg7
S'they said i could invent anything'
p3323
sg9
S' so i invented the vibrator'
p3324
sg11
Vptsd-clarinet-boy
p3325
sg13
(lp3326
g3318
ag3319
ag245
ag3320
ag3321
ag3322
aS'so'
p3327
ag245
aS'invented'
p3328
aS'the'
p3329
aS'vibrator'
p3330
asg18
(lp3331
g3327
ag245
ag3328
ag3329
ag3330
asba(iMeme
Meme
p3332
(dp3333
g3
(lp3334
S'this'
p3335
aS'is'
p3336
aS'bernie'
p3337
ag67
asg7
S'this is bernie.'
p3338
sg9
S' he will kill you. d:'
p3339
sg11
Vptsd-clarinet-boy
p3340
sg13
(lp3341
g3335
ag3336
ag3337
ag67
aS'he'
p3342
aS'will'
p3343
aS'kill'
p3344
aS'you'
p3345
ag67
aS'd:'
p3346
asg18
(lp3347
g3342
ag3343
ag3344
ag3345
ag67
ag3346
asba(iMeme
Meme
p3348
(dp3349
g3
(lp3350
S'players'
p3351
asg7
S'players'
p3352
sg9
S' dont get played'
p3353
sg11
Vptsd-clarinet-boy
p3354
sg13
(lp3355
g3351
aS'dont'
p3356
aS'get'
p3357
aS'played'
p3358
asg18
(lp3359
g3356
ag3357
ag3358
asba(iMeme
Meme
p3360
(dp3361
g3
(lp3362
S'they'
p3363
aS'said'
p3364
ag245
aS'could'
p3365
aS'be'
p3366
aS'anything'
p3367
asg7
S'they said i could be anything'
p3368
sg9
S' i become 12'
p3369
sg11
Vptsd-clarinet-boy
p3370
sg13
(lp3371
g3363
ag3364
ag245
ag3365
ag3366
ag3367
ag245
aS'become'
p3372
aS'12'
p3373
asg18
(lp3374
g245
ag3372
ag3373
asba(iMeme
Meme
p3375
(dp3376
g3
(lp3377
S'they'
p3378
aS'called'
p3379
aS'me'
p3380
aS'ginger'
p3381
asg7
S'they called me ginger'
p3382
sg9
S' gone was their finger'
p3383
sg11
Vptsd-clarinet-boy
p3384
sg13
(lp3385
g3378
ag3379
ag3380
ag3381
aS'gone'
p3386
aS'was'
p3387
aS'their'
p3388
aS'finger'
p3389
asg18
(lp3390
g3386
ag3387
ag3388
ag3389
asba(iMeme
Meme
p3391
(dp3392
g3
(lp3393
S'born'
p3394
asg7
S'born'
p3395
sg9
S' to be a star'
p3396
sg11
Vptsd-clarinet-boy
p3397
sg13
(lp3398
g3394
aS'to'
p3399
aS'be'
p3400
ag61
aS'star'
p3401
asg18
(lp3402
g3399
ag3400
ag61
ag3401
asba(iMeme
Meme
p3403
(dp3404
g3
(lp3405
S'they'
p3406
aS'called'
p3407
aS'me'
p3408
aS'kid'
p3409
asg7
S'they called me kid'
p3410
sg9
S' they will call me king'
p3411
sg11
Vptsd-clarinet-boy
p3412
sg13
(lp3413
g3406
ag3407
ag3408
ag3409
aS'they'
p3414
aS'will'
p3415
aS'call'
p3416
aS'me'
p3417
aS'king'
p3418
asg18
(lp3419
g3414
ag3415
ag3416
ag3417
ag3418
asba(iMeme
Meme
p3420
(dp3421
g3
(lp3422
S'they'
p3423
aS'hear'
p3424
aS'the'
p3425
aS'wailing'
p3426
aS'cries'
p3427
aS'of'
p3428
aS'apocolypse'
p3429
asg7
S'they hear the wailing cries of apocolypse'
p3430
sg9
S' that my flute playing the death song'
p3431
sg11
Vptsd-clarinet-boy
p3432
sg13
(lp3433
g3423
ag3424
ag3425
ag3426
ag3427
ag3428
ag3429
aS'that'
p3434
aS'my'
p3435
aS'flute'
p3436
aS'playing'
p3437
aS'the'
p3438
aS'death'
p3439
aS'song'
p3440
asg18
(lp3441
g3434
ag3435
ag3436
ag3437
ag3438
ag3439
ag3440
asba(iMeme
Meme
p3442
(dp3443
g3
(lp3444
S'they'
p3445
aS'told'
p3446
aS'me'
p3447
ag245
aS'could'
p3448
aS'be'
p3449
aS'anything'
p3450
ag67
asg7
S'they told me i could be anything.'
p3451
sg9
S' so i became a chair'
p3452
sg11
Vptsd-clarinet-boy
p3453
sg13
(lp3454
g3445
ag3446
ag3447
ag245
ag3448
ag3449
ag3450
ag67
aS'so'
p3455
ag245
aS'became'
p3456
ag61
aS'chair'
p3457
asg18
(lp3458
g3455
ag245
ag3456
ag61
ag3457
asba(iMeme
Meme
p3459
(dp3460
g3
(lp3461
S'they'
p3462
aS'said'
p3463
ag245
aS'cant'
p3464
aS'port'
p3465
aS'symbian^3'
p3466
aS'on'
p3467
aS'n900'
p3468
asg7
S'they said i cant port symbian^3 on n900'
p3469
sg9
S' now they are six feet under'
p3470
sg11
Vptsd-clarinet-boy
p3471
sg13
(lp3472
g3462
ag3463
ag245
ag3464
ag3465
ag3466
ag3467
ag3468
aS'now'
p3473
aS'they'
p3474
aS'are'
p3475
aS'six'
p3476
aS'feet'
p3477
aS'under'
p3478
asg18
(lp3479
g3473
ag3474
ag3475
ag3476
ag3477
ag3478
asba(iMeme
Meme
p3480
(dp3481
g3
(lp3482
S'fuckface'
p3483
aS'they'
p3484
aS'said'
p3485
asg7
S'fuckface they said'
p3486
sg9
S' no'
p3487
sg11
Vptsd-clarinet-boy
p3488
sg13
(lp3489
g3483
ag3484
ag3485
aS'no'
p3490
asg18
(lp3491
g3490
asba(iMeme
Meme
p3492
(dp3493
g3
(lp3494
S'derek'
p3495
asg7
S'derek'
p3496
sg9
S' i found you as a kid :d (from austin)'
p3497
sg11
Vptsd-clarinet-boy
p3498
sg13
(lp3499
g3495
ag245
aS'found'
p3500
aS'you'
p3501
aS'as'
p3502
ag61
aS'kid'
p3503
ag326
aS'd'
p3504
ag2911
aS'from'
p3505
aS'austin'
p3506
ag2913
asg18
(lp3507
g245
ag3500
ag3501
ag3502
ag61
ag3503
ag326
ag3504
ag2911
ag3505
ag3506
ag2913
asba(iMeme
Meme
p3508
(dp3509
g3
(lp3510
S'they'
p3511
aS'told'
p3512
aS'me'
p3513
aS'theyd'
p3514
aS'press'
p3515
aS'charges'
p3516
asg7
S'they told me theyd press charges'
p3517
sg9
S' i pressed  their faces into a meat grinder'
p3518
sg11
Vptsd-clarinet-boy
p3519
sg13
(lp3520
g3511
ag3512
ag3513
ag3514
ag3515
ag3516
ag245
aS'pressed'
p3521
aS'their'
p3522
aS'faces'
p3523
aS'into'
p3524
ag61
aS'meat'
p3525
aS'grinder'
p3526
asg18
(lp3527
g245
ag3521
ag3522
ag3523
ag3524
ag61
ag3525
ag3526
asba(iMeme
Meme
p3528
(dp3529
g3
(lp3530
S'they'
p3531
aS'said'
p3532
ag245
aS'could'
p3533
aS'flush'
p3534
aS'all'
p3535
ag245
aS'want'
p3536
asg7
S'they said i could flush all i want'
p3537
sg9
S' until i flushed the world'
p3538
sg11
Vptsd-clarinet-boy
p3539
sg13
(lp3540
g3531
ag3532
ag245
ag3533
ag3534
ag3535
ag245
ag3536
aS'until'
p3541
ag245
aS'flushed'
p3542
aS'the'
p3543
aS'world'
p3544
asg18
(lp3545
g3541
ag245
ag3542
ag3543
ag3544
asba(iMeme
Meme
p3546
(dp3547
g3
(lp3548
S'yeah'
p3549
aS'bitch'
p3550
asg7
S'yeah bitch'
p3551
sg9
S' the carpet does match the drapes'
p3552
sg11
Vptsd-clarinet-boy
p3553
sg13
(lp3554
g3549
ag3550
aS'the'
p3555
aS'carpet'
p3556
aS'does'
p3557
aS'match'
p3558
aS'the'
p3559
aS'drapes'
p3560
asg18
(lp3561
g3555
ag3556
ag3557
ag3558
ag3559
ag3560
asba(iMeme
Meme
p3562
(dp3563
g3
(lp3564
S'they'
p3565
aS'said'
p3566
ag245
aS'didnt'
p3567
aS'look'
p3568
aS'cool'
p3569
asg7
S'they said i didnt look cool'
p3570
sg9
S' now they dont look.'
p3571
sg11
Vptsd-clarinet-boy
p3572
sg13
(lp3573
g3565
ag3566
ag245
ag3567
ag3568
ag3569
aS'now'
p3574
aS'they'
p3575
aS'dont'
p3576
aS'look'
p3577
ag67
asg18
(lp3578
g3574
ag3575
ag3576
ag3577
ag67
asba(iMeme
Meme
p3579
(dp3580
g3
(lp3581
S'aj'
p3582
aS'and'
p3583
aS'alex'
p3584
aS'teased'
p3585
aS'me'
p3586
aS'about'
p3587
aS'my'
p3588
aS'neck'
p3589
aS'injury'
p3590
asg7
S'aj and alex teased me about my neck injury'
p3591
sg9
S' but idc'
p3592
sg11
Vptsd-clarinet-boy
p3593
sg13
(lp3594
g3582
ag3583
ag3584
ag3585
ag3586
ag3587
ag3588
ag3589
ag3590
aS'but'
p3595
aS'idc'
p3596
asg18
(lp3597
g3595
ag3596
asba(iMeme
Meme
p3598
(dp3599
g3
(lp3600
S'they'
p3601
aS'said'
p3602
ag245
aS'look'
p3603
aS'cool'
p3604
asg7
S'they said i look cool'
p3605
sg9
S' now they dont look.'
p3606
sg11
Vptsd-clarinet-boy
p3607
sg13
(lp3608
g3601
ag3602
ag245
ag3603
ag3604
aS'now'
p3609
aS'they'
p3610
aS'dont'
p3611
aS'look'
p3612
ag67
asg18
(lp3613
g3609
ag3610
ag3611
ag3612
ag67
asba(iMeme
Meme
p3614
(dp3615
g3
(lp3616
S'they'
p3617
aS'didnt'
p3618
aS'come'
p3619
aS'and'
p3620
aS'hear'
p3621
aS'my'
p3622
aS'clarinet'
p3623
aS'recital'
p3624
ag67
asg7
S'they didnt come and hear my clarinet recital.'
p3625
sg9
S' i didnt hear their cries for help.'
p3626
sg11
Vptsd-clarinet-boy
p3627
sg13
(lp3628
g3617
ag3618
ag3619
ag3620
ag3621
ag3622
ag3623
ag3624
ag67
ag245
aS'didnt'
p3629
aS'hear'
p3630
aS'their'
p3631
aS'cries'
p3632
aS'for'
p3633
aS'help'
p3634
ag67
asg18
(lp3635
g245
ag3629
ag3630
ag3631
ag3632
ag3633
ag3634
ag67
asba(iMeme
Meme
p3636
(dp3637
g3
(lp3638
S'if'
p3639
aS'only'
p3640
asg7
S'if only'
p3641
sg9
S' i could lose enough weight to really be in a marching band'
p3642
sg11
Vptsd-clarinet-boy
p3643
sg13
(lp3644
g3639
ag3640
ag245
aS'could'
p3645
aS'lose'
p3646
aS'enough'
p3647
aS'weight'
p3648
aS'to'
p3649
aS'really'
p3650
aS'be'
p3651
aS'in'
p3652
ag61
aS'marching'
p3653
aS'band'
p3654
asg18
(lp3655
g245
ag3645
ag3646
ag3647
ag3648
ag3649
ag3650
ag3651
ag3652
ag61
ag3653
ag3654
asba(iMeme
Meme
p3656
(dp3657
g3
(lp3658
S'the'
p3659
aS'called'
p3660
aS'me'
p3661
ag61
aS'metalhead'
p3662
asg7
S'the called me a metalhead'
p3663
sg9
S' until i told them to stfu or theyll have problems'
p3664
sg11
Vptsd-clarinet-boy
p3665
sg13
(lp3666
g3659
ag3660
ag3661
ag61
ag3662
aS'until'
p3667
ag245
aS'told'
p3668
aS'them'
p3669
aS'to'
p3670
aS'stfu'
p3671
aS'or'
p3672
aS'theyll'
p3673
aS'have'
p3674
aS'problems'
p3675
asg18
(lp3676
g3667
ag245
ag3668
ag3669
ag3670
ag3671
ag3672
ag3673
ag3674
ag3675
asba(iMeme
Meme
p3677
(dp3678
g3
(lp3679
S'anthony'
p3680
aS'la'
p3681
aS'portas'
p3682
asg7
S'anthony la portas'
p3683
sg9
S' gay friend'
p3684
sg11
Vptsd-clarinet-boy
p3685
sg13
(lp3686
g3680
ag3681
ag3682
aS'gay'
p3687
aS'friend'
p3688
asg18
(lp3689
g3687
ag3688
asba(iMeme
Meme
p3690
(dp3691
g3
(lp3692
S'take'
p3693
aS'those'
p3694
aS'calls'
p3695
asg7
S'take those calls'
p3696
sg9
S' or pay the piper'
p3697
sg11
Vptsd-clarinet-boy
p3698
sg13
(lp3699
g3693
ag3694
ag3695
aS'or'
p3700
aS'pay'
p3701
aS'the'
p3702
aS'piper'
p3703
asg18
(lp3704
g3700
ag3701
ag3702
ag3703
asba(iMeme
Meme
p3705
(dp3706
g3
(lp3707
g245
aS'see'
p3708
asg7
S'i see'
p3709
sg9
S' dead people'
p3710
sg11
Vptsd-clarinet-boy
p3711
sg13
(lp3712
g245
ag3708
aS'dead'
p3713
aS'people'
p3714
asg18
(lp3715
g3713
ag3714
asba(iMeme
Meme
p3716
(dp3717
g3
(lp3718
S'they'
p3719
aS'called'
p3720
aS'me'
p3721
aS'fat'
p3722
asg7
S'they called me fat'
p3723
sg9
S' i call them dead'
p3724
sg11
Vptsd-clarinet-boy
p3725
sg13
(lp3726
g3719
ag3720
ag3721
ag3722
ag245
aS'call'
p3727
aS'them'
p3728
aS'dead'
p3729
asg18
(lp3730
g245
ag3727
ag3728
ag3729
asba(iMeme
Meme
p3731
(dp3732
g3
(lp3733
g245
aS'learned'
p3734
aS'to'
p3735
aS'march'
p3736
aS'in'
p3737
aS'band'
p3738
asg7
S'i learned to march in band'
p3739
sg9
S' now im an expert on artillery fire'
p3740
sg11
Vptsd-clarinet-boy
p3741
sg13
(lp3742
g245
ag3734
ag3735
ag3736
ag3737
ag3738
aS'now'
p3743
aS'im'
p3744
aS'an'
p3745
aS'expert'
p3746
aS'on'
p3747
aS'artillery'
p3748
aS'fire'
p3749
asg18
(lp3750
g3743
ag3744
ag3745
ag3746
ag3747
ag3748
ag3749
asba(iMeme
Meme
p3751
(dp3752
g3
(lp3753
S'trolled'
p3754
aS'by'
p3755
asg7
S'trolled by'
p3756
sg9
S' kent srvik!'
p3757
sg11
Vptsd-clarinet-boy
p3758
sg13
(lp3759
g3754
ag3755
aS'kent'
p3760
aS'srvik'
p3761
ag525
asg18
(lp3762
g3760
ag3761
ag525
asba(iMeme
Meme
p3763
(dp3764
g3
(lp3765
S'other'
p3766
aS'kids'
p3767
aS'talk'
p3768
aS'about'
p3769
aS'salamanders'
p3770
aS'and'
p3771
aS'aliens'
p3772
asg7
S'other kids talk about salamanders and aliens'
p3773
sg9
S' i'
p3774
sg11
Vptsd-clarinet-boy
p3775
sg13
(lp3776
g3766
ag3767
ag3768
ag3769
ag3770
ag3771
ag3772
ag245
asg18
(lp3777
g245
asba(iMeme
Meme
p3778
(dp3779
g3
(lp3780
S'tyler'
p3781
aS'gank'
p3782
aS'for'
p3783
aS'me'
p3784
asg7
S'tyler gank for me'
p3785
sg9
S' good job !!!'
p3786
sg11
Vptsd-clarinet-boy
p3787
sg13
(lp3788
g3781
ag3782
ag3783
ag3784
aS'good'
p3789
aS'job'
p3790
ag525
ag525
ag525
asg18
(lp3791
g3789
ag3790
ag525
ag525
ag525
asba(iMeme
Meme
p3792
(dp3793
g3
(lp3794
S'omg'
p3795
asg7
S'omg'
p3796
sg9
S' ill fucking kill all of you'
p3797
sg11
Vptsd-clarinet-boy
p3798
sg13
(lp3799
g3795
aS'ill'
p3800
aS'fucking'
p3801
aS'kill'
p3802
aS'all'
p3803
aS'of'
p3804
aS'you'
p3805
asg18
(lp3806
g3800
ag3801
ag3802
ag3803
ag3804
ag3805
asba(iMeme
Meme
p3807
(dp3808
g3
(lp3809
S'will'
p3810
aS'never'
p3811
aS'touch'
p3812
aS'boobs'
p3813
asg7
S'will never touch boobs'
p3814
sg9
S' drown sorrows in cake and pokemon'
p3815
sg11
Vptsd-clarinet-boy
p3816
sg13
(lp3817
g3810
ag3811
ag3812
ag3813
aS'drown'
p3818
aS'sorrows'
p3819
aS'in'
p3820
aS'cake'
p3821
aS'and'
p3822
aS'pokemon'
p3823
asg18
(lp3824
g3818
ag3819
ag3820
ag3821
ag3822
ag3823
asba(iMeme
Meme
p3825
(dp3826
g3
(lp3827
S'mikena'
p3828
ag245
aS'dont'
p3829
aS'even'
p3830
aS'care'
p3831
asg7
S'mikena i dont even care'
p3832
sg9
S' that you miss me'
p3833
sg11
Vptsd-clarinet-boy
p3834
sg13
(lp3835
g3828
ag245
ag3829
ag3830
ag3831
aS'that'
p3836
aS'you'
p3837
aS'miss'
p3838
aS'me'
p3839
asg18
(lp3840
g3836
ag3837
ag3838
ag3839
asba(iMeme
Meme
p3841
(dp3842
g3
(lp3843
S'you'
p3844
aS'know'
p3845
aS'your'
p3846
aS'badass'
p3847
aS'when'
p3848
asg7
S'you know your badass when'
p3849
sg9
S' theres a picture of you in a picture of you holding an instrument'
p3850
sg11
Vptsd-clarinet-boy
p3851
sg13
(lp3852
g3844
ag3845
ag3846
ag3847
ag3848
aS'theres'
p3853
ag61
aS'picture'
p3854
aS'of'
p3855
aS'you'
p3856
aS'in'
p3857
ag61
aS'picture'
p3858
aS'of'
p3859
aS'you'
p3860
aS'holding'
p3861
aS'an'
p3862
aS'instrument'
p3863
asg18
(lp3864
g3853
ag61
ag3854
ag3855
ag3856
ag3857
ag61
ag3858
ag3859
ag3860
ag3861
ag3862
ag3863
asba(iMeme
Meme
p3865
(dp3866
g3
(lp3867
S'she'
p3868
aS'didnt'
p3869
aS'hear'
p3870
aS'me'
p3871
aS'comming'
p3872
asg7
S'she didnt hear me comming'
p3873
sg9
S' they never do'
p3874
sg11
Vptsd-clarinet-boy
p3875
sg13
(lp3876
g3868
ag3869
ag3870
ag3871
ag3872
aS'they'
p3877
aS'never'
p3878
aS'do'
p3879
asg18
(lp3880
g3877
ag3878
ag3879
asba(iMeme
Meme
p3881
(dp3882
g3
(lp3883
g245
aS'go'
p3884
aS'to'
p3885
aS'cns'
p3886
aS'highschool'
p3887
asg7
S'i go to cns highschool'
p3888
sg9
S' im cool.'
p3889
sg11
Vptsd-clarinet-boy
p3890
sg13
(lp3891
g245
ag3884
ag3885
ag3886
ag3887
aS'im'
p3892
aS'cool'
p3893
ag67
asg18
(lp3894
g3892
ag3893
ag67
asba(iMeme
Meme
p3895
(dp3896
g3
(lp3897
S'said'
p3898
ag245
aS'could'
p3899
aS'be'
p3900
aS'anything'
p3901
asg7
S'said i could be anything'
p3902
sg9
S' became a board game'
p3903
sg11
Vptsd-clarinet-boy
p3904
sg13
(lp3905
g3898
ag245
ag3899
ag3900
ag3901
aS'became'
p3906
ag61
aS'board'
p3907
aS'game'
p3908
asg18
(lp3909
g3906
ag61
ag3907
ag3908
asba(iMeme
Meme
p3910
(dp3911
g3
(lp3912
S'everybody'
p3913
aS'said'
p3914
ag245
aS'would'
p3915
aS'grow'
p3916
aS'up'
p3917
aS'to'
p3918
aS'be'
p3919
ag61
aS'nobody'
p3920
asg7
S'everybody said i would grow up to be a nobody'
p3921
sg9
S' i killed everybody'
p3922
sg11
Vptsd-clarinet-boy
p3923
sg13
(lp3924
g3913
ag3914
ag245
ag3915
ag3916
ag3917
ag3918
ag3919
ag61
ag3920
ag245
aS'killed'
p3925
aS'everybody'
p3926
asg18
(lp3927
g245
ag3925
ag3926
asba(iMeme
Meme
p3928
(dp3929
g3
(lp3930
S'pullin'
p3931
aS'snatch'
p3932
aS'daily'
p3933
asg7
S'pullin snatch daily'
p3934
sg9
S' since 99'
p3935
sg11
Vptsd-clarinet-boy
p3936
sg13
(lp3937
g3931
ag3932
ag3933
aS'since'
p3938
aS'99'
p3939
asg18
(lp3940
g3938
ag3939
asba(iMeme
Meme
p3941
(dp3942
g3
(lp3943
S'you'
p3944
aS'were'
p3945
aS'always'
p3946
aS'so'
p3947
aS'quick'
p3948
asg7
S'you were always so quick'
p3949
sg9
S' too bad my knife was quicker'
p3950
sg11
Vptsd-clarinet-boy
p3951
sg13
(lp3952
g3944
ag3945
ag3946
ag3947
ag3948
aS'too'
p3953
aS'bad'
p3954
aS'my'
p3955
aS'knife'
p3956
aS'was'
p3957
aS'quicker'
p3958
asg18
(lp3959
g3953
ag3954
ag3955
ag3956
ag3957
ag3958
asba(iMeme
Meme
p3960
(dp3961
g3
(lp3962
S'pauly'
p3963
asg7
S'pauly'
p3964
sg9
S' youre my hero'
p3965
sg11
Vptsd-clarinet-boy
p3966
sg13
(lp3967
g3963
aS'youre'
p3968
aS'my'
p3969
aS'hero'
p3970
asg18
(lp3971
g3968
ag3969
ag3970
asba(iMeme
Meme
p3972
(dp3973
g3
(lp3974
S'pauly'
p3975
asg7
S'pauly'
p3976
sg9
S' youre my hero'
p3977
sg11
Vptsd-clarinet-boy
p3978
sg13
(lp3979
g3975
aS'youre'
p3980
aS'my'
p3981
aS'hero'
p3982
asg18
(lp3983
g3980
ag3981
ag3982
asba(iMeme
Meme
p3984
(dp3985
g3
(lp3986
S'come'
p3987
asg7
S'come'
p3988
sg9
S' at me bro'
p3989
sg11
Vptsd-clarinet-boy
p3990
sg13
(lp3991
g3987
aS'at'
p3992
aS'me'
p3993
aS'bro'
p3994
asg18
(lp3995
g3992
ag3993
ag3994
asba(iMeme
Meme
p3996
(dp3997
g3
(lp3998
g245
aS'used'
p3999
aS'to'
p4000
aS'play'
p4001
aS'the'
p4002
aS'clarinet'
p4003
aS'and'
p4004
aS'smile'
p4005
asg7
S'i used to play the clarinet and smile'
p4006
sg9
S' until i took an arrow to the knee'
p4007
sg11
Vptsd-clarinet-boy
p4008
sg13
(lp4009
g245
ag3999
ag4000
ag4001
ag4002
ag4003
ag4004
ag4005
aS'until'
p4010
ag245
aS'took'
p4011
aS'an'
p4012
aS'arrow'
p4013
aS'to'
p4014
aS'the'
p4015
aS'knee'
p4016
asg18
(lp4017
g4010
ag245
ag4011
ag4012
ag4013
ag4014
ag4015
ag4016
asba(iMeme
Meme
p4018
(dp4019
g3
(lp4020
S'wanted'
p4021
aS'to'
p4022
aS'be'
p4023
aS'president'
p4024
asg7
S'wanted to be president'
p4025
sg9
S' they said i didnt have a soul'
p4026
sg11
Vptsd-clarinet-boy
p4027
sg13
(lp4028
g4021
ag4022
ag4023
ag4024
aS'they'
p4029
aS'said'
p4030
ag245
aS'didnt'
p4031
aS'have'
p4032
ag61
aS'soul'
p4033
asg18
(lp4034
g4029
ag4030
ag245
ag4031
ag4032
ag61
ag4033
asba(iMeme
Meme
p4035
(dp4036
g3
(lp4037
S'they'
p4038
aS'told'
p4039
aS'me'
p4040
ag245
aS'can'
p4041
aS'be'
p4042
aS'anything'
p4043
asg7
S'they told me i can be anything'
p4044
sg9
S' so i went home and became a clairinet man'
p4045
sg11
Vptsd-clarinet-boy
p4046
sg13
(lp4047
g4038
ag4039
ag4040
ag245
ag4041
ag4042
ag4043
aS'so'
p4048
ag245
aS'went'
p4049
aS'home'
p4050
aS'and'
p4051
aS'became'
p4052
ag61
aS'clairinet'
p4053
aS'man'
p4054
asg18
(lp4055
g4048
ag245
ag4049
ag4050
ag4051
ag4052
ag61
ag4053
ag4054
asba(iMeme
Meme
p4056
(dp4057
g3
(lp4058
S'they'
p4059
aS'angered'
p4060
aS'me'
p4061
asg7
S'they angered me'
p4062
sg9
S' staring akwardly into space'
p4063
sg11
Vptsd-clarinet-boy
p4064
sg13
(lp4065
g4059
ag4060
ag4061
aS'staring'
p4066
aS'akwardly'
p4067
aS'into'
p4068
aS'space'
p4069
asg18
(lp4070
g4066
ag4067
ag4068
ag4069
asba(iMeme
Meme
p4071
(dp4072
g3
(lp4073
S'my'
p4074
aS'dreams..'
p4075
asg7
S'my dreams..'
p4076
sg9
S' im already that'
p4077
sg11
Vptsd-clarinet-boy
p4078
sg13
(lp4079
g4074
ag4075
aS'im'
p4080
aS'already'
p4081
aS'that'
p4082
asg18
(lp4083
g4080
ag4081
ag4082
asba(iMeme
Meme
p4084
(dp4085
g3
(lp4086
g245
aS'dont'
p4087
aS'care'
p4088
aS'if'
p4089
aS'you'
p4090
aS'make'
p4091
aS'fun'
p4092
aS'of'
p4093
aS'me'
p4094
asg7
S'i dont care if you make fun of me'
p4095
sg9
S' i got the most mats of all'
p4096
sg11
Vptsd-clarinet-boy
p4097
sg13
(lp4098
g245
ag4087
ag4088
ag4089
ag4090
ag4091
ag4092
ag4093
ag4094
ag245
aS'got'
p4099
aS'the'
p4100
aS'most'
p4101
aS'mats'
p4102
aS'of'
p4103
aS'all'
p4104
asg18
(lp4105
g245
ag4099
ag4100
ag4101
ag4102
ag4103
ag4104
asba(iMeme
Meme
p4106
(dp4107
g3
(lp4108
S'you'
p4109
aS'were'
p4110
aS'always'
p4111
aS'so'
p4112
aS'quick'
p4113
asg7
S'you were always so quick'
p4114
sg9
S' too bad my knife is quicker'
p4115
sg11
Vptsd-clarinet-boy
p4116
sg13
(lp4117
g4109
ag4110
ag4111
ag4112
ag4113
aS'too'
p4118
aS'bad'
p4119
aS'my'
p4120
aS'knife'
p4121
aS'is'
p4122
aS'quicker'
p4123
asg18
(lp4124
g4118
ag4119
ag4120
ag4121
ag4122
ag4123
asba(iMeme
Meme
p4125
(dp4126
g3
(lp4127
S'niggas'
p4128
aS'be'
p4129
aS'like'
p4130
asg7
S'niggas be like'
p4131
sg9
S' bands that make her dance'
p4132
sg11
Vptsd-clarinet-boy
p4133
sg13
(lp4134
g4128
ag4129
ag4130
aS'bands'
p4135
aS'that'
p4136
aS'make'
p4137
aS'her'
p4138
aS'dance'
p4139
asg18
(lp4140
g4135
ag4136
ag4137
ag4138
ag4139
asba(iMeme
Meme
p4141
(dp4142
g3
(lp4143
S'paul'
p4144
aS'kaulessar'
p4145
asg7
S'paul kaulessar'
p4146
sg9
S' dreaming of obese clarinet players sincewell'
p4147
sg11
Vptsd-clarinet-boy
p4148
sg13
(lp4149
g4144
ag4145
aS'dreaming'
p4150
aS'of'
p4151
aS'obese'
p4152
aS'clarinet'
p4153
aS'players'
p4154
aS'sincewell'
p4155
asg18
(lp4156
g4150
ag4151
ag4152
ag4153
ag4154
ag4155
asba(iMeme
Meme
p4157
(dp4158
g3
(lp4159
S'watch'
p4160
aS'two'
p4161
aS'girls'
p4162
aS'one'
p4163
aS'cup'
p4164
aS'they'
p4165
aS'said'
p4166
asg7
S'watch two girls one cup they said'
p4167
sg9
S' it will be fun they said'
p4168
sg11
Vptsd-clarinet-boy
p4169
sg13
(lp4170
g4160
ag4161
ag4162
ag4163
ag4164
ag4165
ag4166
aS'it'
p4171
aS'will'
p4172
aS'be'
p4173
aS'fun'
p4174
aS'they'
p4175
aS'said'
p4176
asg18
(lp4177
g4171
ag4172
ag4173
ag4174
ag4175
ag4176
asba(iMeme
Meme
p4178
(dp4179
g3
(lp4180
S'smells'
p4181
aS'like'
p4182
aS'cheeeeessseeee'
p4183
asg7
S'smells like cheeeeessseeee'
p4184
sg9
S' cookie'
p4185
sg11
Vptsd-clarinet-boy
p4186
sg13
(lp4187
g4181
ag4182
ag4183
aS'cookie'
p4188
asg18
(lp4189
g4188
asba(iMeme
Meme
p4190
(dp4191
g3
(lp4192
g245
aS'want'
p4193
ag61
aS'flute'
p4194
asg7
S'i want a flute'
p4195
sg9
S' but its $31'
p4196
sg11
Vptsd-clarinet-boy
p4197
sg13
(lp4198
g245
ag4193
ag61
ag4194
aS'but'
p4199
aS'its'
p4200
aS'$'
p4201
aS'31'
p4202
asg18
(lp4203
g4199
ag4200
ag4201
ag4202
asba(iMeme
Meme
p4204
(dp4205
g3
(lp4206
S'said'
p4207
ag245
aS'cold'
p4208
aS'become'
p4209
aS'anything'
p4210
asg7
S'said i cold become anything'
p4211
sg9
S' became a board game'
p4212
sg11
Vptsd-clarinet-boy
p4213
sg13
(lp4214
g4207
ag245
ag4208
ag4209
ag4210
aS'became'
p4215
ag61
aS'board'
p4216
aS'game'
p4217
asg18
(lp4218
g4215
ag61
ag4216
ag4217
asba(iMeme
Meme
p4219
(dp4220
g3
(lp4221
S'this'
p4222
aS'is'
p4223
aS'bernie'
p4224
ag67
asg7
S'this is bernie.'
p4225
sg9
S' he will east you'
p4226
sg11
Vptsd-clarinet-boy
p4227
sg13
(lp4228
g4222
ag4223
ag4224
ag67
aS'he'
p4229
aS'will'
p4230
aS'east'
p4231
aS'you'
p4232
asg18
(lp4233
g4229
ag4230
ag4231
ag4232
asba(iMeme
Meme
p4234
(dp4235
g3
(lp4236
S'what'
p4237
aS'was'
p4238
ag245
aS'thinking'
p4239
asg7
S'what was i thinking'
p4240
sg9
S' i looked like a fucking idiot back then.'
p4241
sg11
Vptsd-clarinet-boy
p4242
sg13
(lp4243
g4237
ag4238
ag245
ag4239
ag245
aS'looked'
p4244
aS'like'
p4245
ag61
aS'fucking'
p4246
aS'idiot'
p4247
aS'back'
p4248
aS'then'
p4249
ag67
asg18
(lp4250
g245
ag4244
ag4245
ag61
ag4246
ag4247
ag4248
ag4249
ag67
asba(iMeme
Meme
p4251
(dp4252
g3
(lp4253
S'anthony'
p4254
asg7
S'anthony'
p4255
sg9
S' ce garcon est ton heros'
p4256
sg11
Vptsd-clarinet-boy
p4257
sg13
(lp4258
g4254
aS'ce'
p4259
aS'garcon'
p4260
aS'est'
p4261
aS'ton'
p4262
aS'heros'
p4263
asg18
(lp4264
g4259
ag4260
ag4261
ag4262
ag4263
asba(iMeme
Meme
p4265
(dp4266
g3
(lp4267
g245
aS'was'
p4268
aS'just'
p4269
ag61
aS'boy'
p4270
ag67
asg7
S'i was just a boy.'
p4271
sg9
S' now im a monster'
p4272
sg11
Vptsd-clarinet-boy
p4273
sg13
(lp4274
g245
ag4268
ag4269
ag61
ag4270
ag67
aS'now'
p4275
aS'im'
p4276
ag61
aS'monster'
p4277
asg18
(lp4278
g4275
ag4276
ag61
ag4277
asba(iMeme
Meme
p4279
(dp4280
g3
(lp4281
g245
aS'like'
p4282
aS'the'
p4283
aS'pussy'
p4284
asg7
S'i like the pussy'
p4285
sg9
S' but love the butthole'
p4286
sg11
Vptsd-clarinet-boy
p4287
sg13
(lp4288
g245
ag4282
ag4283
ag4284
aS'but'
p4289
aS'love'
p4290
aS'the'
p4291
aS'butthole'
p4292
asg18
(lp4293
g4289
ag4290
ag4291
ag4292
asba(iMeme
Meme
p4294
(dp4295
g3
(lp4296
S'moving'
p4297
aS'me'
p4298
aS'to'
p4299
aS'ppp'
p4300
ag399
asg7
S'moving me to ppp?'
p4301
sg9
S' ill make their coffins'
p4302
sg11
Vptsd-clarinet-boy
p4303
sg13
(lp4304
g4297
ag4298
ag4299
ag4300
ag399
aS'ill'
p4305
aS'make'
p4306
aS'their'
p4307
aS'coffins'
p4308
asg18
(lp4309
g4305
ag4306
ag4307
ag4308
asba(iMeme
Meme
p4310
(dp4311
g3
(lp4312
S'slays'
p4313
aS'the'
p4314
aS'women'
p4315
asg7
S'slays the women'
p4316
sg9
S' with his ak47'
p4317
sg11
Vptsd-clarinet-boy
p4318
sg13
(lp4319
g4313
ag4314
ag4315
aS'with'
p4320
aS'his'
p4321
aS'ak47'
p4322
asg18
(lp4323
g4320
ag4321
ag4322
asba(iMeme
Meme
p4324
(dp4325
g3
(lp4326
S'niggas'
p4327
aS'be'
p4328
aS'like'
p4329
asg7
S'niggas be like'
p4330
sg9
S' bands that make her dance'
p4331
sg11
Vptsd-clarinet-boy
p4332
sg13
(lp4333
g4327
ag4328
ag4329
aS'bands'
p4334
aS'that'
p4335
aS'make'
p4336
aS'her'
p4337
aS'dance'
p4338
asg18
(lp4339
g4334
ag4335
ag4336
ag4337
ag4338
asba(iMeme
Meme
p4340
(dp4341
g3
(lp4342
g67
asg7
S'.'
p4343
sg9
S' wait till i get my money right'
p4344
sg11
Vptsd-clarinet-boy
p4345
sg13
(lp4346
g67
aS'wait'
p4347
aS'till'
p4348
ag245
aS'get'
p4349
aS'my'
p4350
aS'money'
p4351
aS'right'
p4352
asg18
(lp4353
g4347
ag4348
ag245
ag4349
ag4350
ag4351
ag4352
asba(iMeme
Meme
p4354
(dp4355
g3
(lp4356
S'they'
p4357
aS'made'
p4358
aS'fun'
p4359
aS'of'
p4360
aS'my'
p4361
aS'poker'
p4362
aS'skills'
p4363
asg7
S'they made fun of my poker skills'
p4364
sg9
S' i made fun of their intestines'
p4365
sg11
Vptsd-clarinet-boy
p4366
sg13
(lp4367
g4357
ag4358
ag4359
ag4360
ag4361
ag4362
ag4363
ag245
aS'made'
p4368
aS'fun'
p4369
aS'of'
p4370
aS'their'
p4371
aS'intestines'
p4372
asg18
(lp4373
g245
ag4368
ag4369
ag4370
ag4371
ag4372
asba(iMeme
Meme
p4374
(dp4375
g3
(lp4376
S'they'
p4377
aS'told'
p4378
aS'me'
p4379
aS'theyd'
p4380
aS'pass'
p4381
aS'me'
p4382
ag61
aS'plate'
p4383
asg7
S'they told me theyd pass me a plate'
p4384
sg9
S' but instead they gave me a bowl'
p4385
sg11
Vptsd-clarinet-boy
p4386
sg13
(lp4387
g4377
ag4378
ag4379
ag4380
ag4381
ag4382
ag61
ag4383
aS'but'
p4388
aS'instead'
p4389
aS'they'
p4390
aS'gave'
p4391
aS'me'
p4392
ag61
aS'bowl'
p4393
asg18
(lp4394
g4388
ag4389
ag4390
ag4391
ag4392
ag61
ag4393
asba(iMeme
Meme
p4395
(dp4396
g3
(lp4397
S'fuck'
p4398
aS'it'
p4399
aS'all'
p4400
aS'fuck'
p4401
aS'this'
p4402
aS'world'
p4403
asg7
S'fuck it all fuck this world'
p4404
sg9
S' fuck everything that you stand for'
p4405
sg11
Vptsd-clarinet-boy
p4406
sg13
(lp4407
g4398
ag4399
ag4400
ag4401
ag4402
ag4403
aS'fuck'
p4408
aS'everything'
p4409
aS'that'
p4410
aS'you'
p4411
aS'stand'
p4412
aS'for'
p4413
asg18
(lp4414
g4408
ag4409
ag4410
ag4411
ag4412
ag4413
asba(iMeme
Meme
p4415
(dp4416
g3
(lp4417
S'happy'
p4418
aS'birthday'
p4419
asg7
S'happy birthday'
p4420
sg9
S' sexy man !'
p4421
sg11
Vptsd-clarinet-boy
p4422
sg13
(lp4423
g4418
ag4419
aS'sexy'
p4424
aS'man'
p4425
ag525
asg18
(lp4426
g4424
ag4425
ag525
asba(iMeme
Meme
p4427
(dp4428
g3
(lp4429
S'anthony'
p4430
asg7
S'anthony'
p4431
sg9
S' ce garcon taime en secret'
p4432
sg11
Vptsd-clarinet-boy
p4433
sg13
(lp4434
g4430
aS'ce'
p4435
aS'garcon'
p4436
aS'taime'
p4437
aS'en'
p4438
aS'secret'
p4439
asg18
(lp4440
g4435
ag4436
ag4437
ag4438
ag4439
asba(iMeme
Meme
p4441
(dp4442
g3
(lp4443
S'they'
p4444
aS'made'
p4445
aS'fun'
p4446
aS'of'
p4447
aS'my'
p4448
aS'poker'
p4449
aS'skills'
p4450
asg7
S'they made fun of my poker skills'
p4451
sg9
S' i made fun of their intestines'
p4452
sg11
Vptsd-clarinet-boy
p4453
sg13
(lp4454
g4444
ag4445
ag4446
ag4447
ag4448
ag4449
ag4450
ag245
aS'made'
p4455
aS'fun'
p4456
aS'of'
p4457
aS'their'
p4458
aS'intestines'
p4459
asg18
(lp4460
g245
ag4455
ag4456
ag4457
ag4458
ag4459
asba(iMeme
Meme
p4461
(dp4462
g3
(lp4463
g245
aS'wanted'
p4464
aS'to'
p4465
aS'add'
p4466
ag61
aS'cover'
p4467
ag525
asg7
S'i wanted to add a cover!'
p4468
sg9
S' you just dont understand man'
p4469
sg11
Vptsd-clarinet-boy
p4470
sg13
(lp4471
g245
ag4464
ag4465
ag4466
ag61
ag4467
ag525
aS'you'
p4472
aS'just'
p4473
aS'dont'
p4474
aS'understand'
p4475
aS'man'
p4476
asg18
(lp4477
g4472
ag4473
ag4474
ag4475
ag4476
asba(iMeme
Meme
p4478
(dp4479
g3
(lp4480
S'they'
p4481
aS'didnt'
p4482
aS'attend'
p4483
aS'the'
p4484
aS'fifth'
p4485
aS'quarter'
p4486
asg7
S'they didnt attend the fifth quarter'
p4487
sg9
S' i didnt attend their funerals'
p4488
sg11
Vptsd-clarinet-boy
p4489
sg13
(lp4490
g4481
ag4482
ag4483
ag4484
ag4485
ag4486
ag245
aS'didnt'
p4491
aS'attend'
p4492
aS'their'
p4493
aS'funerals'
p4494
asg18
(lp4495
g245
ag4491
ag4492
ag4493
ag4494
asba(iMeme
Meme
p4496
(dp4497
g3
(lp4498
S'cause'
p4499
aS'back'
p4500
aS'in'
p4501
aS'the'
p4502
aS'day'
p4503
asg7
S'cause back in the day'
p4504
sg9
S' you werent there'
p4505
sg11
Vptsd-clarinet-boy
p4506
sg13
(lp4507
g4499
ag4500
ag4501
ag4502
ag4503
aS'you'
p4508
aS'werent'
p4509
aS'there'
p4510
asg18
(lp4511
g4508
ag4509
ag4510
asba(iMeme
Meme
p4512
(dp4513
g3
(lp4514
S'they'
p4515
aS'told'
p4516
aS'me'
p4517
ag245
aS'would'
p4518
aS'never'
p4519
aS'be'
p4520
aS'in'
p4521
aS'the'
p4522
aS'band'
p4523
asg7
S'they told me i would never be in the band'
p4524
sg9
S' i told them to shud up while i shovel dirt over them'
p4525
sg11
Vptsd-clarinet-boy
p4526
sg13
(lp4527
g4515
ag4516
ag4517
ag245
ag4518
ag4519
ag4520
ag4521
ag4522
ag4523
ag245
aS'told'
p4528
aS'them'
p4529
aS'to'
p4530
aS'shud'
p4531
aS'up'
p4532
aS'while'
p4533
ag245
aS'shovel'
p4534
aS'dirt'
p4535
aS'over'
p4536
aS'them'
p4537
asg18
(lp4538
g245
ag4528
ag4529
ag4530
ag4531
ag4532
ag4533
ag245
ag4534
ag4535
ag4536
ag4537
asba(iMeme
Meme
p4539
(dp4540
g3
(lp4541
g245
aS'farted'
p4542
aS'in'
p4543
aS'my'
p4544
aS'oboe'
p4545
asg7
S'i farted in my oboe'
p4546
sg9
S' my mom said i sound like skrillex'
p4547
sg11
Vptsd-clarinet-boy
p4548
sg13
(lp4549
g245
ag4542
ag4543
ag4544
ag4545
aS'my'
p4550
aS'mom'
p4551
aS'said'
p4552
ag245
aS'sound'
p4553
aS'like'
p4554
aS'skrillex'
p4555
asg18
(lp4556
g4550
ag4551
ag4552
ag245
ag4553
ag4554
ag4555
asba(iMeme
Meme
p4557
(dp4558
g3
(lp4559
S'they'
p4560
aS'see'
p4561
aS'me'
p4562
aS'playin'
p4563
asg7
S'they see me playin'
p4564
sg9
S' they hatin'
p4565
sg11
Vptsd-clarinet-boy
p4566
sg13
(lp4567
g4560
ag4561
ag4562
ag4563
aS'they'
p4568
aS'hatin'
p4569
asg18
(lp4570
g4568
ag4569
asba(iMeme
Meme
p4571
(dp4572
g3
(lp4573
S'im'
p4574
aS'the'
p4575
aS'shit'
p4576
asg7
S'im the shit'
p4577
sg9
S' and everyone knows it'
p4578
sg11
Vptsd-clarinet-boy
p4579
sg13
(lp4580
g4574
ag4575
ag4576
aS'and'
p4581
aS'everyone'
p4582
aS'knows'
p4583
aS'it'
p4584
asg18
(lp4585
g4581
ag4582
ag4583
ag4584
asba(iMeme
Meme
p4586
(dp4587
g3
(lp4588
S'they'
p4589
aS'told'
p4590
aS'me'
p4591
ag245
aS'could'
p4592
aS'be'
p4593
aS'anything'
p4594
ag245
aS'wanted'
p4595
asg7
S'they told me i could be anything i wanted'
p4596
sg9
S' so i became public safety'
p4597
sg11
Vptsd-clarinet-boy
p4598
sg13
(lp4599
g4589
ag4590
ag4591
ag245
ag4592
ag4593
ag4594
ag245
ag4595
aS'so'
p4600
ag245
aS'became'
p4601
aS'public'
p4602
aS'safety'
p4603
asg18
(lp4604
g4600
ag245
ag4601
ag4602
ag4603
asba(iMeme
Meme
p4605
(dp4606
g3
(lp4607
S'my'
p4608
aS'1st'
p4609
aS'parade'
p4610
ag67
ag67
ag67
asg7
S'my 1st parade. . .'
p4611
sg9
S' with ballymacall'
p4612
sg11
Vptsd-clarinet-boy
p4613
sg13
(lp4614
g4608
ag4609
ag4610
ag67
ag67
ag67
aS'with'
p4615
aS'ballymacall'
p4616
asg18
(lp4617
g4615
ag4616
asba(iMeme
Meme
p4618
(dp4619
g3
(lp4620
g245
aS'play'
p4621
aS'the'
p4622
aS'clarinet'
p4623
asg7
S'i play the clarinet'
p4624
sg9
S' because i have no soul'
p4625
sg11
Vptsd-clarinet-boy
p4626
sg13
(lp4627
g245
ag4621
ag4622
ag4623
aS'because'
p4628
ag245
aS'have'
p4629
aS'no'
p4630
aS'soul'
p4631
asg18
(lp4632
g4628
ag245
ag4629
ag4630
ag4631
asba(iMeme
Meme
p4633
(dp4634
g3
(lp4635
S'born'
p4636
ag61
aS'man'
p4637
asg7
S'born a man'
p4638
sg9
S' died a man who fucked your mother'
p4639
sg11
Vptsd-clarinet-boy
p4640
sg13
(lp4641
g4636
ag61
ag4637
aS'died'
p4642
ag61
aS'man'
p4643
aS'who'
p4644
aS'fucked'
p4645
aS'your'
p4646
aS'mother'
p4647
asg18
(lp4648
g4642
ag61
ag4643
ag4644
ag4645
ag4646
ag4647
asba(iMeme
Meme
p4649
(dp4650
g3
(lp4651
S'niggas'
p4652
aS'gon'
p4653
aS'na'
p4654
aS'hate'
p4655
asg7
S'niggas gonna hate'
p4656
sg9
S' but i get more ass than a toilet seat'
p4657
sg11
Vptsd-clarinet-boy
p4658
sg13
(lp4659
g4652
ag4653
ag4654
ag4655
aS'but'
p4660
ag245
aS'get'
p4661
aS'more'
p4662
aS'ass'
p4663
aS'than'
p4664
ag61
aS'toilet'
p4665
aS'seat'
p4666
asg18
(lp4667
g4660
ag245
ag4661
ag4662
ag4663
ag4664
ag61
ag4665
ag4666
asba(iMeme
Meme
p4668
(dp4669
g3
(lp4670
S'well'
p4671
aS'done'
p4672
aS'sean'
p4673
asg7
S'well done sean'
p4674
sg9
S' our saviour'
p4675
sg11
Vptsd-clarinet-boy
p4676
sg13
(lp4677
g4671
ag4672
ag4673
aS'our'
p4678
aS'saviour'
p4679
asg18
(lp4680
g4678
ag4679
asba(iMeme
Meme
p4681
(dp4682
g3
(lp4683
S'they'
p4684
aS'said'
p4685
ag245
aS'always'
p4686
aS'talked'
p4687
aS'about'
p4688
aS'3rd'
p4689
aS'watts'
p4690
asg7
S'they said i always talked about 3rd watts'
p4691
sg9
S' they dont understand man'
p4692
sg11
Vptsd-clarinet-boy
p4693
sg13
(lp4694
g4684
ag4685
ag245
ag4686
ag4687
ag4688
ag4689
ag4690
aS'they'
p4695
aS'dont'
p4696
aS'understand'
p4697
aS'man'
p4698
asg18
(lp4699
g4695
ag4696
ag4697
ag4698
asba(iMeme
Meme
p4700
(dp4701
g3
(lp4702
S'they'
p4703
aS'said'
p4704
ag245
aS'could'
p4705
aS'be'
p4706
aS'anything'
p4707
ag245
aS'wanted'
p4708
asg7
S'they said i could be anything i wanted'
p4709
sg9
S' so i became lil bs friend'
p4710
sg11
Vptsd-clarinet-boy
p4711
sg13
(lp4712
g4703
ag4704
ag245
ag4705
ag4706
ag4707
ag245
ag4708
aS'so'
p4713
ag245
aS'became'
p4714
aS'lil'
p4715
aS'bs'
p4716
aS'friend'
p4717
asg18
(lp4718
g4713
ag245
ag4714
ag4715
ag4716
ag4717
asba(iMeme
Meme
p4719
(dp4720
g3
(lp4721
S'they'
p4722
aS'always'
p4723
aS'stole'
p4724
aS'my'
p4725
aS'instrument'
p4726
asg7
S'they always stole my instrument'
p4727
sg9
S' i played it at their funerals'
p4728
sg11
Vptsd-clarinet-boy
p4729
sg13
(lp4730
g4722
ag4723
ag4724
ag4725
ag4726
ag245
aS'played'
p4731
aS'it'
p4732
aS'at'
p4733
aS'their'
p4734
aS'funerals'
p4735
asg18
(lp4736
g245
ag4731
ag4732
ag4733
ag4734
ag4735
asba(iMeme
Meme
p4737
(dp4738
g3
(lp4739
S'they'
p4740
aS'said'
p4741
ag245
aS'could'
p4742
aS'be'
p4743
aS'anything'
p4744
ag245
aS'wanted'
p4745
asg7
S'they said i could be anything i wanted'
p4746
sg9
S' so i became the first atheist president'
p4747
sg11
Vptsd-clarinet-boy
p4748
sg13
(lp4749
g4740
ag4741
ag245
ag4742
ag4743
ag4744
ag245
ag4745
aS'so'
p4750
ag245
aS'became'
p4751
aS'the'
p4752
aS'first'
p4753
aS'atheist'
p4754
aS'president'
p4755
asg18
(lp4756
g4750
ag245
ag4751
ag4752
ag4753
ag4754
ag4755
asba(iMeme
Meme
p4757
(dp4758
g3
(lp4759
S'he'
p4760
aS'made'
p4761
aS'fun'
p4762
aS'of'
p4763
aS'my'
p4764
aS'hair'
p4765
asg7
S'he made fun of my hair'
p4766
sg9
S' i downvoted him to oblivion'
p4767
sg11
Vptsd-clarinet-boy
p4768
sg13
(lp4769
g4760
ag4761
ag4762
ag4763
ag4764
ag4765
ag245
aS'downvoted'
p4770
aS'him'
p4771
aS'to'
p4772
aS'oblivion'
p4773
asg18
(lp4774
g245
ag4770
ag4771
ag4772
ag4773
asba(iMeme
Meme
p4775
(dp4776
g3
(lp4777
S'they'
p4778
aS'told'
p4779
aS'me'
p4780
aS'to'
p4781
aS'make'
p4782
aS'you'
p4783
ag61
aS'card'
p4784
asg7
S'they told me to make you a card'
p4785
sg9
S' so i made you a god'
p4786
sg11
Vptsd-clarinet-boy
p4787
sg13
(lp4788
g4778
ag4779
ag4780
ag4781
ag4782
ag4783
ag61
ag4784
aS'so'
p4789
ag245
aS'made'
p4790
aS'you'
p4791
ag61
aS'god'
p4792
asg18
(lp4793
g4789
ag245
ag4790
ag4791
ag61
ag4792
asba(iMeme
Meme
p4794
(dp4795
g3
(lp4796
S'they'
p4797
aS'took'
p4798
aS'my'
p4799
aS'd1'
p4800
asg7
S'they took my d1'
p4801
sg9
S' i gave them c4'
p4802
sg11
Vptsd-clarinet-boy
p4803
sg13
(lp4804
g4797
ag4798
ag4799
ag4800
ag245
aS'gave'
p4805
aS'them'
p4806
aS'c4'
p4807
asg18
(lp4808
g245
ag4805
ag4806
ag4807
asba(iMeme
Meme
p4809
(dp4810
g3
(lp4811
S'even'
p4812
aS'ive'
p4813
asg7
S'even ive'
p4814
sg9
S' shagged wee stane'
p4815
sg11
Vptsd-clarinet-boy
p4816
sg13
(lp4817
g4812
ag4813
aS'shagged'
p4818
aS'wee'
p4819
aS'stane'
p4820
asg18
(lp4821
g4818
ag4819
ag4820
asba(iMeme
Meme
p4822
(dp4823
g3
(lp4824
S'went'
p4825
aS'to'
p4826
aS'war'
p4827
aS'to'
p4828
aS'get'
p4829
aS'his'
p4830
aS'friend'
p4831
asg7
S'went to war to get  his friend'
p4832
sg9
S' saved his friends and won the war'
p4833
sg11
Vptsd-clarinet-boy
p4834
sg13
(lp4835
g4825
ag4826
ag4827
ag4828
ag4829
ag4830
ag4831
aS'saved'
p4836
aS'his'
p4837
aS'friends'
p4838
aS'and'
p4839
aS'won'
p4840
aS'the'
p4841
aS'war'
p4842
asg18
(lp4843
g4836
ag4837
ag4838
ag4839
ag4840
ag4841
ag4842
asba(iMeme
Meme
p4844
(dp4845
g3
(lp4846
g245
aS'want'
p4847
aS'to'
p4848
aS'be'
p4849
aS'just'
p4850
aS'like'
p4851
aS'my'
p4852
aS'mother'
p4853
asg7
S'i want to be just like my mother'
p4854
sg9
S' shes a lesbian'
p4855
sg11
Vptsd-clarinet-boy
p4856
sg13
(lp4857
g245
ag4847
ag4848
ag4849
ag4850
ag4851
ag4852
ag4853
aS'shes'
p4858
ag61
aS'lesbian'
p4859
asg18
(lp4860
g4858
ag61
ag4859
asba(iMeme
Meme
p4861
(dp4862
g3
(lp4863
S'they'
p4864
aS'said'
p4865
ag245
aS'couldnt'
p4866
aS'play'
p4867
aS'the'
p4868
aS'clarinet'
p4869
asg7
S'they said i couldnt play the clarinet'
p4870
sg9
S' they never got to play with their kids'
p4871
sg11
Vptsd-clarinet-boy
p4872
sg13
(lp4873
g4864
ag4865
ag245
ag4866
ag4867
ag4868
ag4869
aS'they'
p4874
aS'never'
p4875
aS'got'
p4876
aS'to'
p4877
aS'play'
p4878
aS'with'
p4879
aS'their'
p4880
aS'kids'
p4881
asg18
(lp4882
g4874
ag4875
ag4876
ag4877
ag4878
ag4879
ag4880
ag4881
asba(iMeme
Meme
p4883
(dp4884
g3
(lp4885
S'they'
p4886
aS'told'
p4887
aS'me'
p4888
ag245
aS'could'
p4889
aS'be'
p4890
aS'anything'
p4891
ag245
aS'wanted'
p4892
asg7
S'they told me i could be anything i wanted'
p4893
sg9
S' so i became a woodwind'
p4894
sg11
Vptsd-clarinet-boy
p4895
sg13
(lp4896
g4886
ag4887
ag4888
ag245
ag4889
ag4890
ag4891
ag245
ag4892
aS'so'
p4897
ag245
aS'became'
p4898
ag61
aS'woodwind'
p4899
asg18
(lp4900
g4897
ag245
ag4898
ag61
ag4899
asba(iMeme
Meme
p4901
(dp4902
g3
(lp4903
S'cory'
p4904
aS'wanted'
p4905
aS'to'
p4906
aS'be'
p4907
aS'in'
p4908
aS'the'
p4909
aS'drumline'
p4910
asg7
S'cory wanted to be in the drumline'
p4911
sg9
S' then he became a man.'
p4912
sg11
Vptsd-clarinet-boy
p4913
sg13
(lp4914
g4904
ag4905
ag4906
ag4907
ag4908
ag4909
ag4910
aS'then'
p4915
aS'he'
p4916
aS'became'
p4917
ag61
aS'man'
p4918
ag67
asg18
(lp4919
g4915
ag4916
ag4917
ag61
ag4918
ag67
asba(iMeme
Meme
p4920
(dp4921
g3
(lp4922
g245
aS'was'
p4923
aS'no'
p4924
aS'one'
p4925
ag61
aS'nothing'
p4926
asg7
S'i was no one a nothing'
p4927
sg9
S' then i became a sfx'
p4928
sg11
Vptsd-clarinet-boy
p4929
sg13
(lp4930
g245
ag4923
ag4924
ag4925
ag61
ag4926
aS'then'
p4931
ag245
aS'became'
p4932
ag61
aS'sfx'
p4933
asg18
(lp4934
g4931
ag245
ag4932
ag61
ag4933
asba(iMeme
Meme
p4935
(dp4936
g3
(lp4937
S'my'
p4938
aS'name'
p4939
aS'is'
p4940
aS'rob'
p4941
asg7
S'my name is rob'
p4942
sg9
S' and i love the gatas'
p4943
sg11
Vptsd-clarinet-boy
p4944
sg13
(lp4945
g4938
ag4939
ag4940
ag4941
aS'and'
p4946
ag245
aS'love'
p4947
aS'the'
p4948
aS'gatas'
p4949
asg18
(lp4950
g4946
ag245
ag4947
ag4948
ag4949
asba(iMeme
Meme
p4951
(dp4952
g3
(lp4953
g245
aS'used'
p4954
aS'to'
p4955
aS'be'
p4956
ag61
aS'high'
p4957
aS'schooler..'
p4958
asg7
S'i used to be a high schooler..'
p4959
sg9
S' ..but then i became god'
p4960
sg11
Vptsd-clarinet-boy
p4961
sg13
(lp4962
g245
ag4954
ag4955
ag4956
ag61
ag4957
ag4958
aS'..but'
p4963
aS'then'
p4964
ag245
aS'became'
p4965
aS'god'
p4966
asg18
(lp4967
g4963
ag4964
ag245
ag4965
ag4966
asba(iMeme
Meme
p4968
(dp4969
g3
(lp4970
S'some'
p4971
aS'dude'
p4972
aS'named'
p4973
aS'justin'
p4974
aS'came'
p4975
aS'to'
p4976
aS'fuck'
p4977
aS'with'
p4978
aS'me'
p4979
ag67
asg7
S'some dude named justin came to fuck with me.'
p4980
sg9
S' metropolis still misses him'
p4981
sg11
Vptsd-clarinet-boy
p4982
sg13
(lp4983
g4971
ag4972
ag4973
ag4974
ag4975
ag4976
ag4977
ag4978
ag4979
ag67
aS'metropolis'
p4984
aS'still'
p4985
aS'misses'
p4986
aS'him'
p4987
asg18
(lp4988
g4984
ag4985
ag4986
ag4987
asba(iMeme
Meme
p4989
(dp4990
g3
(lp4991
S'they'
p4992
aS'said'
p4993
ag245
aS'always'
p4994
aS'talked'
p4995
aS'about'
p4996
aS'3rd'
p4997
aS'watts'
p4998
asg7
S'they said i always talked about 3rd watts'
p4999
sg9
S' they dont understand'
p5000
sg11
Vptsd-clarinet-boy
p5001
sg13
(lp5002
g4992
ag4993
ag245
ag4994
ag4995
ag4996
ag4997
ag4998
aS'they'
p5003
aS'dont'
p5004
aS'understand'
p5005
asg18
(lp5006
g5003
ag5004
ag5005
asba(iMeme
Meme
p5007
(dp5008
g3
(lp5009
S'they'
p5010
aS'gave'
p5011
aS'me'
p5012
aS'low'
p5013
aS'pros/cons'
p5014
asg7
S'they gave me low pros/cons'
p5015
sg9
S' now they eat through a tube'
p5016
sg11
Vptsd-clarinet-boy
p5017
sg13
(lp5018
g5010
ag5011
ag5012
ag5013
ag5014
aS'now'
p5019
aS'they'
p5020
aS'eat'
p5021
aS'through'
p5022
ag61
aS'tube'
p5023
asg18
(lp5024
g5019
ag5020
ag5021
ag5022
ag61
ag5023
asba.