(lp0
(iMeme
Meme
p1
(dp2
S'top_text'
p3
(lp4
S'Teach'
p5
aS'us'
p6
aS'about'
p7
aS'absolute'
p8
aS'zero'
p9
aS'!'
p10
asS'top_text_raw'
p11
S'Teach us about absolute zero! '
p12
sS'bottom_text_raw'
p13
S' 0 K'
p14
sS'meme_type'
p15
Vscience-cat
p16
sS'all_text'
p17
(lp18
g5
ag6
ag7
ag8
ag9
ag10
aS'0'
p19
aS'K'
p20
asS'bottom_text'
p21
(lp22
g19
ag20
asba(iMeme
Meme
p23
(dp24
g3
(lp25
S'I'
p26
aS'realized'
p27
ag26
aS'weighed'
p28
aS'nothing'
p29
aS'on'
p30
aS'a'
p31
aS'milligram'
p32
aS'scale'
p33
asg11
S'I realized I weighed nothing on a milligram scale '
p34
sg13
S' and I was like, 0mg'
p35
sg15
Vscience-cat
p36
sg17
(lp37
g26
ag27
ag26
ag28
ag29
ag30
ag31
ag32
ag33
aS'and'
p38
ag26
aS'was'
p39
aS'like'
p40
aS','
p41
aS'0mg'
p42
asg21
(lp43
g38
ag26
ag39
ag40
ag41
ag42
asba(iMeme
Meme
p44
(dp45
g3
(lp46
S'What'
p47
aS'do'
p48
aS'you'
p49
aS'do'
p50
aS'with'
p51
ag31
aS'sick'
p52
aS'chemist'
p53
aS'?'
p54
asg11
S'What do you do with a sick chemist? '
p55
sg13
S" If you can't helium, and you can't curium, then you might as well barium"
p56
sg15
Vscience-cat
p57
sg17
(lp58
g47
ag48
ag49
ag50
ag51
ag31
ag52
ag53
ag54
aS'If'
p59
aS'you'
p60
aS'ca'
p61
aS"n't"
p62
aS'helium'
p63
ag41
aS'and'
p64
aS'you'
p65
aS'ca'
p66
aS"n't"
p67
aS'curium'
p68
ag41
aS'then'
p69
aS'you'
p70
aS'might'
p71
aS'as'
p72
aS'well'
p73
aS'barium'
p74
asg21
(lp75
g59
ag60
ag61
ag62
ag63
ag41
ag64
ag65
ag66
ag67
ag68
ag41
ag69
ag70
ag71
ag72
ag73
ag74
asba(iMeme
Meme
p76
(dp77
g3
(lp78
S'Schrodinger'
p79
aS"'s"
p80
aS'Cat'
p81
aS'walks'
p82
aS'into'
p83
ag31
aS'bar'
p84
asg11
S"Schrodinger's Cat walks into a bar "
p85
sg13
S" ...and doesn't"
p86
sg15
Vscience-cat
p87
sg17
(lp88
g79
ag80
ag81
ag82
ag83
ag31
ag84
aS'...'
p89
aS'and'
p90
aS'does'
p91
aS"n't"
p92
asg21
(lp93
g89
ag90
ag91
ag92
asba(iMeme
Meme
p94
(dp95
g3
(lp96
g26
aS'was'
p97
aS'going'
p98
aS'to'
p99
aS'tell'
p100
ag31
aS'Sodium'
p101
aS'and'
p102
aS'Hydrogen'
p103
aS'pun'
p104
asg11
S'I was going to tell a Sodium and Hydrogen pun '
p105
sg13
S' But NaH.'
p106
sg15
Vscience-cat
p107
sg17
(lp108
g26
ag97
ag98
ag99
ag100
ag31
ag101
ag102
ag103
ag104
aS'But'
p109
aS'NaH'
p110
aS'.'
p111
asg21
(lp112
g109
ag110
ag111
asba(iMeme
Meme
p113
(dp114
g3
(lp115
S'summary'
p116
aS'of'
p117
aS'Organic'
p118
aS'Chemistry'
p119
asg11
S'summary of Organic Chemistry '
p120
sg13
S' carbon is a whore'
p121
sg15
Vscience-cat
p122
sg17
(lp123
g116
ag117
ag118
ag119
aS'carbon'
p124
aS'is'
p125
ag31
aS'whore'
p126
asg21
(lp127
g124
ag125
ag31
ag126
asba(iMeme
Meme
p128
(dp129
g3
(lp130
S'No'
p131
ag26
aS"'m"
p132
aS'not'
p133
aS'trying'
p134
aS'to'
p135
aS'poison'
p136
aS'you'
p137
asg11
S"No I'm not trying to poison you "
p138
sg13
S' Now finish your Pb and Jelly sandwich'
p139
sg15
Vscience-cat
p140
sg17
(lp141
g131
ag26
ag132
ag133
ag134
ag135
ag136
ag137
aS'Now'
p142
aS'finish'
p143
aS'your'
p144
aS'Pb'
p145
aS'and'
p146
aS'Jelly'
p147
aS'sandwich'
p148
asg21
(lp149
g142
ag143
ag144
ag145
ag146
ag147
ag148
asba(iMeme
Meme
p150
(dp151
g3
(lp152
S'Argon'
p153
aS'walks'
p154
aS'into'
p155
ag31
aS'bar'
p156
ag111
aS'The'
p157
aS'barman'
p158
aS'says'
p159
aS'get'
p160
aS'the'
p161
aS'hell'
p162
aS'out'
p163
ag111
asg11
S'Argon walks into a bar. The barman says get the hell out. '
p164
sg13
S" Argon doesn't react."
p165
sg15
Vscience-cat
p166
sg17
(lp167
g153
ag154
ag155
ag31
ag156
ag111
ag157
ag158
ag159
ag160
ag161
ag162
ag163
ag111
aS'Argon'
p168
aS'does'
p169
aS"n't"
p170
aS'react'
p171
ag111
asg21
(lp172
g168
ag169
ag170
ag171
ag111
asba(iMeme
Meme
p173
(dp174
g3
(lp175
S'Hey'
p176
aS'baby'
p177
asg11
S'Hey baby '
p178
sg13
S' i got my ion you'
p179
sg15
Vscience-cat
p180
sg17
(lp181
g176
ag177
aS'i'
p182
aS'got'
p183
aS'my'
p184
aS'ion'
p185
aS'you'
p186
asg21
(lp187
g182
ag183
ag184
ag185
ag186
asba(iMeme
Meme
p188
(dp189
g3
(lp190
S'How'
p191
aS'often'
p192
aS'do'
p193
ag26
aS'like'
p194
aS'jokes'
p195
aS'about'
p196
aS'chemistry'
p197
ag54
asg11
S'How often do I like jokes about chemistry? '
p198
sg13
S' Periodically'
p199
sg15
Vscience-cat
p200
sg17
(lp201
g191
ag192
ag193
ag26
ag194
ag195
ag196
ag197
ag54
aS'Periodically'
p202
asg21
(lp203
g202
asba(iMeme
Meme
p204
(dp205
g3
(lp206
g26
aS'think'
p207
aS'all'
p208
aS'the'
p209
aS'good'
p210
aS'chemistry'
p211
aS'jokes'
p212
asg11
S'I think all the good chemistry jokes '
p213
sg13
S' Argon'
p214
sg15
Vscience-cat
p215
sg17
(lp216
g26
ag207
ag208
ag209
ag210
ag211
ag212
aS'Argon'
p217
asg21
(lp218
g217
asba(iMeme
Meme
p219
(dp220
g3
(lp221
S'Did'
p222
aS'you'
p223
aS'hear'
p224
aS'oxygen'
p225
aS'and'
p226
aS'potassium'
p227
aS'went'
p228
aS'on'
p229
ag31
aS'date'
p230
ag54
asg11
S'Did you hear oxygen and potassium went on a date? '
p231
sg13
S' It went ok.'
p232
sg15
Vscience-cat
p233
sg17
(lp234
g222
ag223
ag224
ag225
ag226
ag227
ag228
ag229
ag31
ag230
ag54
aS'It'
p235
aS'went'
p236
aS'ok'
p237
ag111
asg21
(lp238
g235
ag236
ag237
ag111
asba(iMeme
Meme
p239
(dp240
g3
(lp241
S'Schrodinger'
p242
aS"'s"
p243
aS'Cat'
p244
aS'walks'
p245
aS'into'
p246
ag31
aS'bar'
p247
asg11
S"Schrodinger's Cat walks into a bar "
p248
sg13
S" ...and doesn't"
p249
sg15
Vscience-cat
p250
sg17
(lp251
g242
ag243
ag244
ag245
ag246
ag31
ag247
aS'...'
p252
aS'and'
p253
aS'does'
p254
aS"n't"
p255
asg21
(lp256
g252
ag253
ag254
ag255
asba(iMeme
Meme
p257
(dp258
g3
(lp259
S'What'
p260
aS'do'
p261
ag31
aS'neutrino'
p262
aS'and'
p263
ag26
aS'have'
p264
aS'in'
p265
aS'common'
p266
ag54
asg11
S'What do a neutrino and I  have in common? '
p267
sg13
S" We're both constantly penetrating your mom."
p268
sg15
Vscience-cat
p269
sg17
(lp270
g260
ag261
ag31
ag262
ag263
ag26
ag264
ag265
ag266
ag54
aS'We'
p271
aS"'re"
p272
aS'both'
p273
aS'constantly'
p274
aS'penetrating'
p275
aS'your'
p276
aS'mom'
p277
ag111
asg21
(lp278
g271
ag272
ag273
ag274
ag275
ag276
ag277
ag111
asba(iMeme
Meme
p279
(dp280
g3
(lp281
S'Is'
p282
aS'silicon'
p283
aS'the'
p284
aS'same'
p285
aS'in'
p286
aS'Spanish'
p287
ag54
asg11
S'Is silicon the same in Spanish? '
p288
sg13
S' Si'
p289
sg15
Vscience-cat
p290
sg17
(lp291
g282
ag283
ag284
ag285
ag286
ag287
ag54
aS'Si'
p292
asg21
(lp293
g292
asba(iMeme
Meme
p294
(dp295
g3
(lp296
S'Cats'
p297
aS'are'
p298
aS'composed'
p299
aS'of'
p300
aS'iron'
p301
ag41
aS'lithium'
p302
aS'and'
p303
aS'neon'
p304
asg11
S'Cats are composed of iron, lithium and neon '
p305
sg13
S' FeLiNe'
p306
sg15
Vscience-cat
p307
sg17
(lp308
g297
ag298
ag299
ag300
ag301
ag41
ag302
ag303
ag304
aS'FeLiNe'
p309
asg21
(lp310
g309
asba(iMeme
Meme
p311
(dp312
g3
(lp313
S'Exothermic'
p314
aS'Reactions'
p315
ag54
asg11
S'Exothermic Reactions? '
p316
sg13
S' I studied them before they were cool.'
p317
sg15
Vscience-cat
p318
sg17
(lp319
g314
ag315
ag54
ag26
aS'studied'
p320
aS'them'
p321
aS'before'
p322
aS'they'
p323
aS'were'
p324
aS'cool'
p325
ag111
asg21
(lp326
g26
ag320
ag321
ag322
ag323
ag324
ag325
ag111
asba(iMeme
Meme
p327
(dp328
g3
(lp329
g26
aS'think'
p330
aS'all'
p331
aS'the'
p332
aS'good'
p333
aS'chemistry'
p334
aS'jokes'
p335
asg11
S'I think all the good chemistry jokes '
p336
sg13
S' Argon'
p337
sg15
Vscience-cat
p338
sg17
(lp339
g26
ag330
ag331
ag332
ag333
ag334
ag335
aS'Argon'
p340
asg21
(lp341
g340
asba(iMeme
Meme
p342
(dp343
g3
(lp344
S'What'
p345
aS'do'
p346
aS'you'
p347
aS'call'
p348
aS'Iron'
p349
aS'blowing'
p350
aS'in'
p351
aS'the'
p352
aS'wind'
p353
ag54
asg11
S'What do you call Iron blowing in the wind? '
p354
sg13
S' Febreeze'
p355
sg15
Vscience-cat
p356
sg17
(lp357
g345
ag346
ag347
ag348
ag349
ag350
ag351
ag352
ag353
ag54
aS'Febreeze'
p358
asg21
(lp359
g358
asba(iMeme
Meme
p360
(dp361
g3
(lp362
g26
aS'blew'
p363
aS'up'
p364
aS'my'
p365
aS'chemistry'
p366
aS'experiment'
p367
asg11
S'I blew up my chemistry experiment  '
p368
sg13
S' Oxidants happen'
p369
sg15
Vscience-cat
p370
sg17
(lp371
g26
ag363
ag364
ag365
ag366
ag367
aS'Oxidants'
p372
aS'happen'
p373
asg21
(lp374
g372
ag373
asba(iMeme
Meme
p375
(dp376
g3
(lp377
S'You'
p378
aS'must'
p379
aS'be'
p380
aS'made'
p381
aS'of'
p382
aS'Uranium'
p383
aS'and'
p384
aS'Iodine'
p385
asg11
S'You must be made of Uranium and Iodine '
p386
sg13
S' Because all I can see is U and I'
p387
sg15
Vscience-cat
p388
sg17
(lp389
g378
ag379
ag380
ag381
ag382
ag383
ag384
ag385
aS'Because'
p390
aS'all'
p391
ag26
aS'can'
p392
aS'see'
p393
aS'is'
p394
aS'U'
p395
aS'and'
p396
ag26
asg21
(lp397
g390
ag391
ag26
ag392
ag393
ag394
ag395
ag396
ag26
asba(iMeme
Meme
p398
(dp399
g3
(lp400
S'Someone'
p401
aS'asked'
p402
aS'me'
p403
aS'today'
p404
aS'if'
p405
ag26
aS'was'
p406
aS'Bi'
p407
asg11
S'Someone asked me today if I was Bi '
p408
sg13
S' I told them that was none of their Bismuth'
p409
sg15
Vscience-cat
p410
sg17
(lp411
g401
ag402
ag403
ag404
ag405
ag26
ag406
ag407
ag26
aS'told'
p412
aS'them'
p413
aS'that'
p414
aS'was'
p415
aS'none'
p416
aS'of'
p417
aS'their'
p418
aS'Bismuth'
p419
asg21
(lp420
g26
ag412
ag413
ag414
ag415
ag416
ag417
ag418
ag419
asba(iMeme
Meme
p421
(dp422
g3
(lp423
S'What'
p424
aS'do'
p425
aS'you'
p426
aS'do'
p427
aS'with'
p428
ag31
aS'dead'
p429
aS'chemist'
p430
ag54
asg11
S'What do you do with a dead chemist? '
p431
sg13
S' Barium'
p432
sg15
Vscience-cat
p433
sg17
(lp434
g424
ag425
ag426
ag427
ag428
ag31
ag429
ag430
ag54
aS'Barium'
p435
asg21
(lp436
g435
asba(iMeme
Meme
p437
(dp438
g3
(lp439
S'Neutron'
p440
aS'wants'
p441
aS'to'
p442
aS'pay'
p443
aS'tab'
p444
asg11
S'Neutron wants to pay tab '
p445
sg13
S' Bartender says "For you, no charge'
p446
sg15
Vscience-cat
p447
sg17
(lp448
g440
ag441
ag442
ag443
ag444
aS'Bartender'
p449
aS'says'
p450
aS'``'
p451
aS'For'
p452
aS'you'
p453
ag41
aS'no'
p454
aS'charge'
p455
asg21
(lp456
g449
ag450
ag451
ag452
ag453
ag41
ag454
ag455
asba(iMeme
Meme
p457
(dp458
g3
(lp459
S'AU'
p460
asg11
S'AU '
p461
sg13
S' Wanna hear a joke about gold?'
p462
sg15
Vscience-cat
p463
sg17
(lp464
g460
aS'Wan'
p465
aS'na'
p466
aS'hear'
p467
ag31
aS'joke'
p468
aS'about'
p469
aS'gold'
p470
ag54
asg21
(lp471
g465
ag466
ag467
ag31
ag468
ag469
ag470
ag54
asba(iMeme
Meme
p472
(dp473
g3
(lp474
S'Do'
p475
aS"n't"
p476
aS'understand'
p477
aS'chemistry'
p478
aS'jokes'
p479
ag54
asg11
S"Don't understand chemistry jokes? "
p480
sg13
S" They're elemental."
p481
sg15
Vscience-cat
p482
sg17
(lp483
g475
ag476
ag477
ag478
ag479
ag54
aS'They'
p484
aS"'re"
p485
aS'elemental'
p486
ag111
asg21
(lp487
g484
ag485
ag486
ag111
asba(iMeme
Meme
p488
(dp489
g3
(lp490
S'Sitting'
p491
aS'at'
p492
aS'computer'
p493
aS'for'
p494
aS'hours'
p495
asg11
S'Sitting at computer for hours '
p496
sg13
S" Ion-estly can't think of one good joke"
p497
sg15
Vscience-cat
p498
sg17
(lp499
g491
ag492
ag493
ag494
ag495
aS'Ion-estly'
p500
aS'ca'
p501
aS"n't"
p502
aS'think'
p503
aS'of'
p504
aS'one'
p505
aS'good'
p506
aS'joke'
p507
asg21
(lp508
g500
ag501
ag502
ag503
ag504
ag505
ag506
ag507
asba(iMeme
Meme
p509
(dp510
g3
(lp511
S'Chemistry'
p512
aS'puns'
p513
ag54
asg11
S'Chemistry puns? '
p514
sg13
S" I'm in my element"
p515
sg15
Vscience-cat
p516
sg17
(lp517
g512
ag513
ag54
ag26
aS"'m"
p518
aS'in'
p519
aS'my'
p520
aS'element'
p521
asg21
(lp522
g26
ag518
ag519
ag520
ag521
asba(iMeme
Meme
p523
(dp524
g3
(lp525
S'What'
p526
aS"'s"
p527
aS'up'
p528
aS'with'
p529
aS'Hydrogen'
p530
ag41
aS'he'
p531
aS'only'
p532
aS'had'
p533
aS'one'
p534
aS'beer'
p535
ag54
asg11
S"What's up with Hydrogen, he only had one beer? "
p536
sg13
S" He's a lightweight"
p537
sg15
Vscience-cat
p538
sg17
(lp539
g526
ag527
ag528
ag529
ag530
ag41
ag531
ag532
ag533
ag534
ag535
ag54
aS'He'
p540
aS"'s"
p541
ag31
aS'lightweight'
p542
asg21
(lp543
g540
ag541
ag31
ag542
asba(iMeme
Meme
p544
(dp545
g3
(lp546
S'What'
p547
aS'did'
p548
aS'the'
p549
aS'element'
p550
aS'say'
p551
aS'to'
p552
aS'the'
p553
aS'police'
p554
ag54
asg11
S'What did the element say to the police? '
p555
sg13
S' I  CU  Copper'
p556
sg15
Vscience-cat
p557
sg17
(lp558
g547
ag548
ag549
ag550
ag551
ag552
ag553
ag554
ag54
ag26
aS'CU'
p559
aS'Copper'
p560
asg21
(lp561
g26
ag559
ag560
asba(iMeme
Meme
p562
(dp563
g3
(lp564
g182
aS'would'
p565
aS'make'
p566
aS'another'
p567
aS'chemistry'
p568
aS'joke'
p569
asg11
S'i would make another chemistry joke'
p570
sg13
S' but all the good ones argon'
p571
sg15
Vscience-cat
p572
sg17
(lp573
g182
ag565
ag566
ag567
ag568
ag569
aS'but'
p574
aS'all'
p575
aS'the'
p576
aS'good'
p577
aS'ones'
p578
aS'argon'
p579
asg21
(lp580
g574
ag575
ag576
ag577
ag578
ag579
asba(iMeme
Meme
p581
(dp582
g3
(lp583
S'do'
p584
ag182
aS'know'
p585
aS'any'
p586
aS'jokes'
p587
aS'about'
p588
aS'sodium'
p589
aS'hypobromite'
p590
ag54
asg11
S'do i know any jokes about sodium hypobromite?'
p591
sg13
S' nabro'
p592
sg15
Vscience-cat
p593
sg17
(lp594
g584
ag182
ag585
ag586
ag587
ag588
ag589
ag590
ag54
aS'nabro'
p595
asg21
(lp596
g595
asba(iMeme
Meme
p597
(dp598
g3
(lp599
S'do'
p600
aS'it'
p601
aS'like'
p602
ag31
aS'chemist'
p603
asg11
S'do it like a chemist'
p604
sg13
S' on the table'
p605
sg15
Vscience-cat
p606
sg17
(lp607
g600
ag601
ag602
ag31
ag603
aS'on'
p608
aS'the'
p609
aS'table'
p610
asg21
(lp611
g608
ag609
ag610
asba(iMeme
Meme
p612
(dp613
g3
(lp614
S'do'
p615
aS'you'
p616
aS'have'
p617
aS'any'
p618
aS'sodium'
p619
ag54
asg11
S'do you have any sodium?'
p620
sg13
S' na'
p621
sg15
Vscience-cat
p622
sg17
(lp623
g615
ag616
ag617
ag618
ag619
ag54
aS'na'
p624
asg21
(lp625
g624
asba(iMeme
Meme
p626
(dp627
g3
(lp628
S'see'
p629
aS'helium'
p630
aS'helping'
p631
aS'an'
p632
aS'old'
p633
aS'lady'
p634
aS'across'
p635
aS'the'
p636
aS'street'
p637
asg11
S'see helium helping an old lady across the street'
p638
sg13
S' how noble'
p639
sg15
Vscience-cat
p640
sg17
(lp641
g629
ag630
ag631
ag632
ag633
ag634
ag635
ag636
ag637
aS'how'
p642
aS'noble'
p643
asg21
(lp644
g642
ag643
asba(iMeme
Meme
p645
(dp646
g3
(lp647
S'wan'
p648
aS'na'
p649
aS'hear'
p650
ag31
aS'joke'
p651
aS'about'
p652
aS'nobelium'
p653
ag54
asg11
S'wanna hear a joke about nobelium?'
p654
sg13
S' no'
p655
sg15
Vscience-cat
p656
sg17
(lp657
g648
ag649
ag650
ag31
ag651
ag652
ag653
ag54
aS'no'
p658
asg21
(lp659
g658
asba(iMeme
Meme
p660
(dp661
g3
(lp662
S'do'
p663
aS'you'
p664
aS'know'
p665
aS'any'
p666
aS'jokes'
p667
aS'about'
p668
aS'sodium'
p669
ag54
asg11
S'do you know any jokes about sodium ?'
p670
sg13
S' na'
p671
sg15
Vscience-cat
p672
sg17
(lp673
g663
ag664
ag665
ag666
ag667
ag668
ag669
ag54
aS'na'
p674
asg21
(lp675
g674
asba(iMeme
Meme
p676
(dp677
g3
(lp678
S'did'
p679
aS'you'
p680
aS'hear'
p681
aS'about'
p682
aS'the'
p683
aS'guy'
p684
aS'that'
p685
aS'got'
p686
aS'frozen'
p687
aS'to'
p688
aS'absolute'
p689
aS'zero'
p690
ag54
asg11
S'did you hear about the guy that got frozen to absolute zero?'
p691
sg13
S' hes ok now.'
p692
sg15
Vscience-cat
p693
sg17
(lp694
g679
ag680
ag681
ag682
ag683
ag684
ag685
ag686
ag687
ag688
ag689
ag690
ag54
aS'hes'
p695
aS'ok'
p696
aS'now'
p697
ag111
asg21
(lp698
g695
ag696
ag697
ag111
asba(iMeme
Meme
p699
(dp700
g3
(lp701
S'chemistry'
p702
aS'theme'
p703
aS'songs'
p704
ag54
asg11
S'chemistry theme songs?'
p705
sg13
S' sodium'
p706
sg15
Vscience-cat
p707
sg17
(lp708
g702
ag703
ag704
ag54
aS'sodium'
p709
asg21
(lp710
g709
asba(iMeme
Meme
p711
(dp712
g3
(lp713
S'happy'
p714
aS'birthday'
p715
ag10
asg11
S'happy birthday!'
p716
sg13
S' says science cat'
p717
sg15
Vscience-cat
p718
sg17
(lp719
g714
ag715
ag10
aS'says'
p720
aS'science'
p721
aS'cat'
p722
asg21
(lp723
g720
ag721
ag722
asba(iMeme
Meme
p724
(dp725
g3
(lp726
S'wan'
p727
aS'na'
p728
aS'hear'
p729
ag31
aS'joke'
p730
aS'about'
p731
aS'potassium'
p732
ag54
asg11
S'wanna hear a joke about potassium?'
p733
sg13
S' k'
p734
sg15
Vscience-cat
p735
sg17
(lp736
g727
ag728
ag729
ag31
ag730
ag731
ag732
ag54
aS'k'
p737
asg21
(lp738
g737
asba(iMeme
Meme
p739
(dp740
g3
(lp741
S'science'
p742
aS'cat'
p743
asg11
S'science cat'
p744
sg13
S' your jokes are getting old.'
p745
sg15
Vscience-cat
p746
sg17
(lp747
g742
ag743
aS'your'
p748
aS'jokes'
p749
aS'are'
p750
aS'getting'
p751
aS'old'
p752
ag111
asg21
(lp753
g748
ag749
ag750
ag751
ag752
ag111
asba(iMeme
Meme
p754
(dp755
g3
(lp756
g182
aS'told'
p757
ag31
aS'chemistry'
p758
aS'joke'
p759
asg11
S'i told a chemistry joke'
p760
sg13
S' there was no reaction'
p761
sg15
Vscience-cat
p762
sg17
(lp763
g182
ag757
ag31
ag758
ag759
aS'there'
p764
aS'was'
p765
aS'no'
p766
aS'reaction'
p767
asg21
(lp768
g764
ag765
ag766
ag767
asba(iMeme
Meme
p769
(dp770
g3
(lp771
S'argon'
p772
aS'walks'
p773
aS'into'
p774
aS'abar'
p775
ag111
aS'the'
p776
aS'bartender'
p777
aS'says'
p778
aS'get'
p779
aS'out'
p780
aS'of'
p781
aS'here'
p782
ag10
asg11
S'argon walks into abar.  the bartender says get out of here!'
p783
sg13
S' argon doesnt react.'
p784
sg15
Vscience-cat
p785
sg17
(lp786
g772
ag773
ag774
ag775
ag111
ag776
ag777
ag778
ag779
ag780
ag781
ag782
ag10
aS'argon'
p787
aS'doesnt'
p788
aS'react'
p789
ag111
asg21
(lp790
g787
ag788
ag789
ag111
asba(iMeme
Meme
p791
(dp792
g3
(lp793
S'my'
p794
aS'name'
p795
aS'is'
p796
aS'bond'
p797
asg11
S'my name is bond'
p798
sg13
S' covalent bond.'
p799
sg15
Vscience-cat
p800
sg17
(lp801
g794
ag795
ag796
ag797
aS'covalent'
p802
aS'bond'
p803
ag111
asg21
(lp804
g802
ag803
ag111
asba(iMeme
Meme
p805
(dp806
g3
(lp807
S'know'
p808
aS'any'
p809
aS'chemistry'
p810
aS'jokes'
p811
ag54
asg11
S'know any chemistry jokes?'
p812
sg13
S' i do but there boron'
p813
sg15
Vscience-cat
p814
sg17
(lp815
g808
ag809
ag810
ag811
ag54
ag182
aS'do'
p816
aS'but'
p817
aS'there'
p818
aS'boron'
p819
asg21
(lp820
g182
ag816
ag817
ag818
ag819
asba(iMeme
Meme
p821
(dp822
g3
(lp823
S'argon'
p824
aS'walks'
p825
aS'into'
p826
ag31
aS'bar'
p827
ag111
aS'the'
p828
aS'bartender'
p829
aS'says'
p830
aS'get'
p831
aS'the'
p832
aS'hell'
p833
aS'out'
p834
ag10
asg11
S'argon walks into a bar.  the bartender says get the hell out!'
p835
sg13
S' argon doesnt react.'
p836
sg15
Vscience-cat
p837
sg17
(lp838
g824
ag825
ag826
ag31
ag827
ag111
ag828
ag829
ag830
ag831
ag832
ag833
ag834
ag10
aS'argon'
p839
aS'doesnt'
p840
aS'react'
p841
ag111
asg21
(lp842
g839
ag840
ag841
ag111
asba(iMeme
Meme
p843
(dp844
g3
(lp845
S'what'
p846
aS'do'
p847
aS'you'
p848
aS'do'
p849
aS'with'
p850
ag31
aS'dead'
p851
aS'chemist'
p852
ag54
asg11
S'what do you do with a dead chemist?'
p853
sg13
S' barium'
p854
sg15
Vscience-cat
p855
sg17
(lp856
g846
ag847
ag848
ag849
ag850
ag31
ag851
ag852
ag54
aS'barium'
p857
asg21
(lp858
g857
asba(iMeme
Meme
p859
(dp860
g3
(lp861
S'why'
p862
aS'did'
p863
aS'the'
p864
aS'white'
p865
aS'bear'
p866
aS'dissolve'
p867
aS'in'
p868
aS'water'
p869
ag54
asg11
S'why did the white bear dissolve in water?'
p870
sg13
S' because it was polar.'
p871
sg15
Vscience-cat
p872
sg17
(lp873
g862
ag863
ag864
ag865
ag866
ag867
ag868
ag869
ag54
aS'because'
p874
aS'it'
p875
aS'was'
p876
aS'polar'
p877
ag111
asg21
(lp878
g874
ag875
ag876
ag877
ag111
asba(iMeme
Meme
p879
(dp880
g3
(lp881
S'can'
p882
ag182
aS'mix'
p883
aS'iodine'
p884
asg11
S'can i mix iodine'
p885
sg13
S' oxygen and uranium for you next week?'
p886
sg15
Vscience-cat
p887
sg17
(lp888
g882
ag182
ag883
ag884
aS'oxygen'
p889
aS'and'
p890
aS'uranium'
p891
aS'for'
p892
aS'you'
p893
aS'next'
p894
aS'week'
p895
ag54
asg21
(lp896
g889
ag890
ag891
ag892
ag893
ag894
ag895
ag54
asba(iMeme
Meme
p897
(dp898
g3
(lp899
S'sodium'
p900
aS'sodium'
p901
aS'sodium'
p902
aS'sodium'
p903
aS'sodium'
p904
aS'sodium'
p905
aS'sodium'
p906
aS'sodium'
p907
asg11
S'sodium sodium sodium sodium sodium sodium sodium sodium'
p908
sg13
S' batman!'
p909
sg15
Vscience-cat
p910
sg17
(lp911
g900
ag901
ag902
ag903
ag904
ag905
ag906
ag907
aS'batman'
p912
ag10
asg21
(lp913
g912
ag10
asba(iMeme
Meme
p914
(dp915
g3
(lp916
S'wan'
p917
aS'na'
p918
aS'hear'
p919
ag31
aS'joke'
p920
aS'about'
p921
aS'sodium'
p922
ag54
asg11
S'wanna hear a joke about sodium?'
p923
sg13
S' na'
p924
sg15
Vscience-cat
p925
sg17
(lp926
g917
ag918
ag919
ag31
ag920
ag921
ag922
ag54
aS'na'
p927
asg21
(lp928
g927
asba(iMeme
Meme
p929
(dp930
g3
(lp931
S'want'
p932
aS'to'
p933
aS'hear'
p934
ag31
aS'spanish'
p935
aS'chemistry'
p936
aS'joke'
p937
ag54
asg11
S'want to hear a spanish chemistry joke?'
p938
sg13
S' si'
p939
sg15
Vscience-cat
p940
sg17
(lp941
g932
ag933
ag934
ag31
ag935
ag936
ag937
ag54
aS'si'
p942
asg21
(lp943
g942
asba(iMeme
Meme
p944
(dp945
g3
(lp946
S'wan'
p947
aS'na'
p948
aS'hear'
p949
ag31
aS'joke'
p950
aS'about'
p951
aS'arsenic'
p952
asg11
S'wanna hear a joke about arsenic'
p953
sg13
S' iodine'
p954
sg15
Vscience-cat
p955
sg17
(lp956
g947
ag948
ag949
ag31
ag950
ag951
ag952
aS'iodine'
p957
asg21
(lp958
g957
asba(iMeme
Meme
p959
(dp960
g3
(lp961
g182
aS'wanted'
p962
aS'to'
p963
aS'make'
p964
ag31
aS'bad'
p965
aS'chemistry'
p966
aS'joke'
p967
asg11
S'i wanted to make a bad chemistry joke'
p968
sg13
S' but the best ones argon'
p969
sg15
Vscience-cat
p970
sg17
(lp971
g182
ag962
ag963
ag964
ag31
ag965
ag966
ag967
aS'but'
p972
aS'the'
p973
aS'best'
p974
aS'ones'
p975
aS'argon'
p976
asg21
(lp977
g972
ag973
ag974
ag975
ag976
asba(iMeme
Meme
p978
(dp979
g3
(lp980
S'wan'
p981
aS'na'
p982
aS'hear'
p983
ag31
aS'joke'
p984
aS'about'
p985
aS'nitric'
p986
aS'oxide'
p987
asg11
S'wanna hear a joke about nitric oxide'
p988
sg13
S' no'
p989
sg15
Vscience-cat
p990
sg17
(lp991
g981
ag982
ag983
ag31
ag984
ag985
ag986
ag987
aS'no'
p992
asg21
(lp993
g992
asba(iMeme
Meme
p994
(dp995
g3
(lp996
S'wan'
p997
aS'na'
p998
aS'hear'
p999
ag31
aS'joke'
p1000
aS'about'
p1001
aS'potassium'
p1002
ag54
asg11
S'wanna hear a joke about potassium?'
p1003
sg13
S' np'
p1004
sg15
Vscience-cat
p1005
sg17
(lp1006
g997
ag998
ag999
ag31
ag1000
ag1001
ag1002
ag54
aS'np'
p1007
asg21
(lp1008
g1007
asba(iMeme
Meme
p1009
(dp1010
g3
(lp1011
S'you'
p1012
aS'want'
p1013
aS'to'
p1014
aS'hear'
p1015
ag31
aS'joke'
p1016
aS'about'
p1017
aS'potassium'
p1018
ag54
asg11
S'you want to hear a joke about potassium?'
p1019
sg13
S' k'
p1020
sg15
Vscience-cat
p1021
sg17
(lp1022
g1012
ag1013
ag1014
ag1015
ag31
ag1016
ag1017
ag1018
ag54
ag737
asg21
(lp1023
g737
asba(iMeme
Meme
p1024
(dp1025
g3
(lp1026
S'hey'
p1027
aS'bitch'
p1028
ag111
asg11
S'hey bitch.'
p1029
sg13
S' shut up!'
p1030
sg15
Vscience-cat
p1031
sg17
(lp1032
g1027
ag1028
ag111
aS'shut'
p1033
aS'up'
p1034
ag10
asg21
(lp1035
g1033
ag1034
ag10
asba(iMeme
Meme
p1036
(dp1037
g3
(lp1038
S'if'
p1039
aS'anybody'
p1040
aS'memes'
p1041
aS'another'
p1042
aS'chemistry'
p1043
aS'joke'
p1044
asg11
S'if anybody memes another chemistry joke'
p1045
sg13
S' ill blow your ass up'
p1046
sg15
Vscience-cat
p1047
sg17
(lp1048
g1039
ag1040
ag1041
ag1042
ag1043
ag1044
aS'ill'
p1049
aS'blow'
p1050
aS'your'
p1051
aS'ass'
p1052
aS'up'
p1053
asg21
(lp1054
g1049
ag1050
ag1051
ag1052
ag1053
asba(iMeme
Meme
p1055
(dp1056
g3
(lp1057
S'gold'
p1058
aS'and'
p1059
aS'silver'
p1060
aS'walked'
p1061
aS'into'
p1062
ag31
aS'bar'
p1063
asg11
S'gold and silver walked into a bar'
p1064
sg13
S' the bartender yells au get out of here!'
p1065
sg15
Vscience-cat
p1066
sg17
(lp1067
g1058
ag1059
ag1060
ag1061
ag1062
ag31
ag1063
aS'the'
p1068
aS'bartender'
p1069
aS'yells'
p1070
aS'au'
p1071
aS'get'
p1072
aS'out'
p1073
aS'of'
p1074
aS'here'
p1075
ag10
asg21
(lp1076
g1068
ag1069
ag1070
ag1071
ag1072
ag1073
ag1074
ag1075
ag10
asba(iMeme
Meme
p1077
(dp1078
g3
(lp1079
S'why'
p1080
aS'is'
p1081
aS'potassium'
p1082
ag31
aS'racist'
p1083
aS'element'
p1084
ag54
asg11
S'why is potassium a racist element?'
p1085
sg13
S' because'
p1086
sg15
Vscience-cat
p1087
sg17
(lp1088
g1080
ag1081
ag1082
ag31
ag1083
ag1084
ag54
aS'because'
p1089
asg21
(lp1090
g1089
asba(iMeme
Meme
p1091
(dp1092
g3
(lp1093
S'fuck'
p1094
aS'bitches'
p1095
asg11
S'fuck bitches'
p1096
sg13
S' get money'
p1097
sg15
Vscience-cat
p1098
sg17
(lp1099
g1094
ag1095
aS'get'
p1100
aS'money'
p1101
asg21
(lp1102
g1100
ag1101
asba(iMeme
Meme
p1103
(dp1104
g3
(lp1105
g182
aS'would'
p1106
aS'never'
p1107
aS'try'
p1108
aS'and'
p1109
aS'poison'
p1110
aS'you'
p1111
asg11
S'i would never try and poison you'
p1112
sg13
S' now finish your pb and jelly sandwich'
p1113
sg15
Vscience-cat
p1114
sg17
(lp1115
g182
ag1106
ag1107
ag1108
ag1109
ag1110
ag1111
aS'now'
p1116
aS'finish'
p1117
aS'your'
p1118
aS'pb'
p1119
aS'and'
p1120
aS'jelly'
p1121
aS'sandwich'
p1122
asg21
(lp1123
g1116
ag1117
ag1118
ag1119
ag1120
ag1121
ag1122
asba(iMeme
Meme
p1124
(dp1125
g3
(lp1126
S'due'
p1127
aS'to'
p1128
aS'budget'
p1129
aS'cuts'
p1130
asg11
S'due to budget cuts'
p1131
sg13
S' your science teacher has been replaced with a cat'
p1132
sg15
Vscience-cat
p1133
sg17
(lp1134
g1127
ag1128
ag1129
ag1130
aS'your'
p1135
aS'science'
p1136
aS'teacher'
p1137
aS'has'
p1138
aS'been'
p1139
aS'replaced'
p1140
aS'with'
p1141
ag31
aS'cat'
p1142
asg21
(lp1143
g1135
ag1136
ag1137
ag1138
ag1139
ag1140
ag1141
ag31
ag1142
asba(iMeme
Meme
p1144
(dp1145
g3
(lp1146
S'wan'
p1147
aS'na'
p1148
aS'hear'
p1149
ag31
aS'joke'
p1150
aS'about'
p1151
aS'element'
p1152
aS'116'
p1153
ag54
asg11
S'wanna hear a joke about element 116?'
p1154
sg13
S' uuh'
p1155
sg15
Vscience-cat
p1156
sg17
(lp1157
g1147
ag1148
ag1149
ag31
ag1150
ag1151
ag1152
ag1153
ag54
aS'uuh'
p1158
asg21
(lp1159
g1158
asba(iMeme
Meme
p1160
(dp1161
g3
(lp1162
S'want'
p1163
aS'to'
p1164
aS'hear'
p1165
ag31
aS'joke'
p1166
aS'about'
p1167
aS'fluorine'
p1168
aS'and'
p1169
aS'uranium'
p1170
ag54
asg11
S'want to hear a joke about fluorine and uranium?'
p1171
sg13
S' fu'
p1172
sg15
Vscience-cat
p1173
sg17
(lp1174
g1163
ag1164
ag1165
ag31
ag1166
ag1167
ag1168
ag1169
ag1170
ag54
aS'fu'
p1175
asg21
(lp1176
g1175
asba(iMeme
Meme
p1177
(dp1178
g3
(lp1179
S'chemist'
p1180
aS'and'
p1181
aS'potassium'
p1182
aS'walk'
p1183
aS'into'
p1184
ag31
aS'bar'
p1185
asg11
S'chemist and potassium walk into a bar'
p1186
sg13
S' chemist splashes water on potassium to see his reaction'
p1187
sg15
Vscience-cat
p1188
sg17
(lp1189
g1180
ag1181
ag1182
ag1183
ag1184
ag31
ag1185
aS'chemist'
p1190
aS'splashes'
p1191
aS'water'
p1192
aS'on'
p1193
aS'potassium'
p1194
aS'to'
p1195
aS'see'
p1196
aS'his'
p1197
aS'reaction'
p1198
asg21
(lp1199
g1190
ag1191
ag1192
ag1193
ag1194
ag1195
ag1196
ag1197
ag1198
asba(iMeme
Meme
p1200
(dp1201
g3
(lp1202
S'yeah'
p1203
asg11
S'yeah'
p1204
sg13
S' i know what youre thinking'
p1205
sg15
Vscience-cat
p1206
sg17
(lp1207
g1203
ag182
aS'know'
p1208
aS'what'
p1209
aS'youre'
p1210
aS'thinking'
p1211
asg21
(lp1212
g182
ag1208
ag1209
ag1210
ag1211
asba(iMeme
Meme
p1213
(dp1214
g3
(lp1215
S'feels'
p1216
aS'like'
p1217
aS'ive'
p1218
aS'already'
p1219
aS'seen'
p1220
ag31
aS'dozen'
p1221
aS'chemistry'
p1222
aS'jokes'
p1223
asg11
S'feels like ive already seen a dozen chemistry jokes'
p1224
sg13
S' c13'
p1225
sg15
Vscience-cat
p1226
sg17
(lp1227
g1216
ag1217
ag1218
ag1219
ag1220
ag31
ag1221
ag1222
ag1223
aS'c13'
p1228
asg21
(lp1229
g1228
asba(iMeme
Meme
p1230
(dp1231
g3
(lp1232
S'merci'
p1233
aS'pour'
p1234
aS'votre'
p1235
aS'attention'
p1236
asg11
S'merci pour votre attention'
p1237
sg13
S' des questions?'
p1238
sg15
Vscience-cat
p1239
sg17
(lp1240
g1233
ag1234
ag1235
ag1236
aS'des'
p1241
aS'questions'
p1242
ag54
asg21
(lp1243
g1241
ag1242
ag54
asba(iMeme
Meme
p1244
(dp1245
g3
(lp1246
S'im'
p1247
ag31
aS'boss'
p1248
asg11
S'im a boss'
p1249
sg13
S' how bout u?'
p1250
sg15
Vscience-cat
p1251
sg17
(lp1252
g1247
ag31
ag1248
aS'how'
p1253
aS'bout'
p1254
aS'u'
p1255
ag54
asg21
(lp1256
g1253
ag1254
ag1255
ag54
asba(iMeme
Meme
p1257
(dp1258
g3
(lp1259
S'do'
p1260
aS'you'
p1261
aS'know'
p1262
aS'any'
p1263
aS'jokes'
p1264
aS'about'
p1265
aS'nobelium'
p1266
aS'or'
p1267
aS'uranium'
p1268
ag54
asg11
S'do you know any jokes about nobelium or uranium?'
p1269
sg13
S' no'
p1270
sg15
Vscience-cat
p1271
sg17
(lp1272
g1260
ag1261
ag1262
ag1263
ag1264
ag1265
ag1266
ag1267
ag1268
ag54
aS'no'
p1273
asg21
(lp1274
g1273
asba(iMeme
Meme
p1275
(dp1276
g3
(lp1277
S'ah'
p1278
ag10
asg11
S'ah!'
p1279
sg13
S' the element of surprise'
p1280
sg15
Vscience-cat
p1281
sg17
(lp1282
g1278
ag10
aS'the'
p1283
aS'element'
p1284
aS'of'
p1285
aS'surprise'
p1286
asg21
(lp1287
g1283
ag1284
ag1285
ag1286
asba(iMeme
Meme
p1288
(dp1289
g3
(lp1290
S'know'
p1291
aS'any'
p1292
aS'more'
p1293
aS'jokes'
p1294
ag54
asg11
S'know any more jokes?'
p1295
sg13
S' i do but there boron'
p1296
sg15
Vscience-cat
p1297
sg17
(lp1298
g1291
ag1292
ag1293
ag1294
ag54
ag182
aS'do'
p1299
aS'but'
p1300
aS'there'
p1301
aS'boron'
p1302
asg21
(lp1303
g182
ag1299
ag1300
ag1301
ag1302
asba(iMeme
Meme
p1304
(dp1305
g3
(lp1306
S'what'
p1307
aS'did'
p1308
aS'one'
p1309
aS'ion'
p1310
aS'say'
p1311
aS'to'
p1312
aS'the'
p1313
aS'other'
p1314
ag54
asg11
S'what did one ion say to the other?'
p1315
sg13
S' ive got my ion you'
p1316
sg15
Vscience-cat
p1317
sg17
(lp1318
g1307
ag1308
ag1309
ag1310
ag1311
ag1312
ag1313
ag1314
ag54
aS'ive'
p1319
aS'got'
p1320
aS'my'
p1321
aS'ion'
p1322
aS'you'
p1323
asg21
(lp1324
g1319
ag1320
ag1321
ag1322
ag1323
asba(iMeme
Meme
p1325
(dp1326
g3
(lp1327
S'what'
p1328
aS'do'
p1329
aS'you'
p1330
aS'do'
p1331
aS'to'
p1332
aS'dead'
p1333
aS'scientists'
p1334
ag54
asg11
S'what do you do to dead scientists?'
p1335
sg13
S' barium'
p1336
sg15
Vscience-cat
p1337
sg17
(lp1338
g1328
ag1329
ag1330
ag1331
ag1332
ag1333
ag1334
ag54
aS'barium'
p1339
asg21
(lp1340
g1339
asba(iMeme
Meme
p1341
(dp1342
g3
(lp1343
S'gota'
p1344
aS'go'
p1345
aS'mix'
p1346
aS'some'
p1347
aS'bromine'
p1348
aS'with'
p1349
aS'some'
p1350
aS'boron'
p1351
asg11
S'gota go mix some bromine with some boron'
p1352
sg13
S' brb'
p1353
sg15
Vscience-cat
p1354
sg17
(lp1355
g1344
ag1345
ag1346
ag1347
ag1348
ag1349
ag1350
ag1351
aS'brb'
p1356
asg21
(lp1357
g1356
asba(iMeme
Meme
p1358
(dp1359
g3
(lp1360
S'oxygen'
p1361
aS'and'
p1362
aS'magnesium'
p1363
aS'together'
p1364
ag54
asg11
S'oxygen and magnesium together?'
p1365
sg13
S' omg!'
p1366
sg15
Vscience-cat
p1367
sg17
(lp1368
g1361
ag1362
ag1363
ag1364
ag54
aS'omg'
p1369
ag10
asg21
(lp1370
g1369
ag10
asba(iMeme
Meme
p1371
(dp1372
g3
(lp1373
S'chemistry'
p1374
aS'cat'
p1375
aS'dumped'
p1376
aS'his'
p1377
aS'girlfriend'
p1378
asg11
S'chemistry cat dumped his girlfriend'
p1379
sg13
S' uranium argon sulfur oxygen fluorine astatine'
p1380
sg15
Vscience-cat
p1381
sg17
(lp1382
g1374
ag1375
ag1376
ag1377
ag1378
aS'uranium'
p1383
aS'argon'
p1384
aS'sulfur'
p1385
aS'oxygen'
p1386
aS'fluorine'
p1387
aS'astatine'
p1388
asg21
(lp1389
g1383
ag1384
ag1385
ag1386
ag1387
ag1388
asba(iMeme
Meme
p1390
(dp1391
g3
(lp1392
S'the'
p1393
aS'bartender'
p1394
aS'says'
p1395
aS'we'
p1396
aS'dont'
p1397
aS'serve'
p1398
aS'neutrinos'
p1399
aS'here'
p1400
asg11
S'the bartender says we dont serve neutrinos here'
p1401
sg13
S' a neutrino walks into a bar'
p1402
sg15
Vscience-cat
p1403
sg17
(lp1404
g1393
ag1394
ag1395
ag1396
ag1397
ag1398
ag1399
ag1400
ag31
aS'neutrino'
p1405
aS'walks'
p1406
aS'into'
p1407
ag31
aS'bar'
p1408
asg21
(lp1409
g31
ag1405
ag1406
ag1407
ag31
ag1408
asba(iMeme
Meme
p1410
(dp1411
g3
(lp1412
g182
aS'have'
p1413
aS'no'
p1414
aS'idea'
p1415
asg11
S'i have no idea'
p1416
sg13
S' what im doing'
p1417
sg15
Vscience-cat
p1418
sg17
(lp1419
g182
ag1413
ag1414
ag1415
aS'what'
p1420
aS'im'
p1421
aS'doing'
p1422
asg21
(lp1423
g1420
ag1421
ag1422
asba(iMeme
Meme
p1424
(dp1425
g3
(lp1426
S'the'
p1427
aS'base'
p1428
aS'is'
p1429
aS'under'
p1430
aS'assault'
p1431
ag10
asg11
S'the base is under assault!'
p1432
sg13
S' nacl/naoh'
p1433
sg15
Vscience-cat
p1434
sg17
(lp1435
g1427
ag1428
ag1429
ag1430
ag1431
ag10
aS'nacl/naoh'
p1436
asg21
(lp1437
g1436
asba(iMeme
Meme
p1438
(dp1439
g3
(lp1440
S'do'
p1441
aS'you'
p1442
aS'have'
p1443
aS'any'
p1444
aS'sodium'
p1445
aS'bromate'
p1446
ag54
asg11
S'do you have any sodium bromate?'
p1447
sg13
S' nabro'
p1448
sg15
Vscience-cat
p1449
sg17
(lp1450
g1441
ag1442
ag1443
ag1444
ag1445
ag1446
ag54
aS'nabro'
p1451
asg21
(lp1452
g1451
asba(iMeme
Meme
p1453
(dp1454
g3
(lp1455
S'do'
p1456
aS'you'
p1457
aS'want'
p1458
aS'to'
p1459
aS'here'
p1460
ag31
aS'silicon'
p1461
aS'joke'
p1462
ag54
asg11
S'do you want to here a silicon joke?'
p1463
sg13
S' si'
p1464
sg15
Vscience-cat
p1465
sg17
(lp1466
g1456
ag1457
ag1458
ag1459
ag1460
ag31
ag1461
ag1462
ag54
aS'si'
p1467
asg21
(lp1468
g1467
asba(iMeme
Meme
p1469
(dp1470
g3
(lp1471
S'the'
p1472
aS'names'
p1473
aS'bond'
p1474
ag111
asg11
S'the names bond.'
p1475
sg13
S' covalent bond.'
p1476
sg15
Vscience-cat
p1477
sg17
(lp1478
g1472
ag1473
ag1474
ag111
aS'covalent'
p1479
aS'bond'
p1480
ag111
asg21
(lp1481
g1479
ag1480
ag111
asba(iMeme
Meme
p1482
(dp1483
g3
(lp1484
S'what'
p1485
aS'really'
p1486
aS'killed'
p1487
aS'the'
p1488
aS'curious'
p1489
aS'cat'
p1490
ag54
asg11
S'what really killed the curious cat?'
p1491
sg13
S' crack cocaine'
p1492
sg15
Vscience-cat
p1493
sg17
(lp1494
g1485
ag1486
ag1487
ag1488
ag1489
ag1490
ag54
aS'crack'
p1495
aS'cocaine'
p1496
asg21
(lp1497
g1495
ag1496
asba(iMeme
Meme
p1498
(dp1499
g3
(lp1500
S'chemists'
p1501
aS'do'
p1502
aS'it'
p1503
aS'on'
p1504
ag31
aS'table'
p1505
asg11
S'chemists do it on a table'
p1506
sg13
S' periodically'
p1507
sg15
Vscience-cat
p1508
sg17
(lp1509
g1501
ag1502
ag1503
ag1504
ag31
ag1505
aS'periodically'
p1510
asg21
(lp1511
g1510
asba(iMeme
Meme
p1512
(dp1513
g3
(lp1514
g1255
aS'mad'
p1515
aS'bro'
p1516
ag54
asg11
S'u mad bro?'
p1517
sg13
S' na'
p1518
sg15
Vscience-cat
p1519
sg17
(lp1520
g1255
ag1515
ag1516
ag54
aS'na'
p1521
asg21
(lp1522
g1521
asba(iMeme
Meme
p1523
(dp1524
g3
(lp1525
S'two'
p1526
aS'helium'
p1527
aS'molecules'
p1528
aS'walk'
p1529
aS'into'
p1530
ag31
aS'bar'
p1531
asg11
S'two helium molecules walk into a bar'
p1532
sg13
S' he he'
p1533
sg15
Vscience-cat
p1534
sg17
(lp1535
g1526
ag1527
ag1528
ag1529
ag1530
ag31
ag1531
aS'he'
p1536
aS'he'
p1537
asg21
(lp1538
g1536
ag1537
asba(iMeme
Meme
p1539
(dp1540
g3
(lp1541
S'want'
p1542
aS'to'
p1543
aS'hear'
p1544
ag31
aS'joke'
p1545
aS'about'
p1546
aS'neutrinos'
p1547
ag54
asg11
S'want to hear a joke about neutrinos?'
p1548
sg13
S' itd probably go straight through you'
p1549
sg15
Vscience-cat
p1550
sg17
(lp1551
g1542
ag1543
ag1544
ag31
ag1545
ag1546
ag1547
ag54
aS'itd'
p1552
aS'probably'
p1553
aS'go'
p1554
aS'straight'
p1555
aS'through'
p1556
aS'you'
p1557
asg21
(lp1558
g1552
ag1553
ag1554
ag1555
ag1556
ag1557
asba(iMeme
Meme
p1559
(dp1560
g3
(lp1561
S'can'
p1562
ag182
aS'tousle'
p1563
aS'you'
p1564
asg11
S'can i tousle you'
p1565
sg13
S' cat professor?'
p1566
sg15
Vscience-cat
p1567
sg17
(lp1568
g1562
ag182
ag1563
ag1564
aS'cat'
p1569
aS'professor'
p1570
ag54
asg21
(lp1571
g1569
ag1570
ag54
asba(iMeme
Meme
p1572
(dp1573
g3
(lp1574
S'gold'
p1575
aS'is'
p1576
aS'not'
p1577
aS'lame'
p1578
asg11
S'gold is not lame'
p1579
sg13
S' its au'
p1580
sg15
Vscience-cat
p1581
sg17
(lp1582
g1575
ag1576
ag1577
ag1578
aS'its'
p1583
aS'au'
p1584
asg21
(lp1585
g1583
ag1584
asba(iMeme
Meme
p1586
(dp1587
g3
(lp1588
S'do'
p1589
aS'you'
p1590
aS'know'
p1591
aS'any'
p1592
aS'spanish'
p1593
aS'jokes'
p1594
aS'about'
p1595
aS'silicon'
p1596
ag54
asg11
S'do you know any spanish jokes about silicon?'
p1597
sg13
S' si!'
p1598
sg15
Vscience-cat
p1599
sg17
(lp1600
g1589
ag1590
ag1591
ag1592
ag1593
ag1594
ag1595
ag1596
ag54
aS'si'
p1601
ag10
asg21
(lp1602
g1601
ag10
asba(iMeme
Meme
p1603
(dp1604
g3
(lp1605
S'what'
p1606
aS'is'
p1607
aS'the'
p1608
aS'dullest'
p1609
aS'element'
p1610
ag54
asg11
S'what is the dullest element?'
p1611
sg13
S' bohrium'
p1612
sg15
Vscience-cat
p1613
sg17
(lp1614
g1606
ag1607
ag1608
ag1609
ag1610
ag54
aS'bohrium'
p1615
asg21
(lp1616
g1615
asba(iMeme
Meme
p1617
(dp1618
g3
(lp1619
g182
aS'would'
p1620
aS'do'
p1621
aS'another'
p1622
aS'chemistry'
p1623
aS'joke'
p1624
asg11
S'i would do another chemistry joke'
p1625
sg13
S' but all the good ones argon'
p1626
sg15
Vscience-cat
p1627
sg17
(lp1628
g182
ag1620
ag1621
ag1622
ag1623
ag1624
aS'but'
p1629
aS'all'
p1630
aS'the'
p1631
aS'good'
p1632
aS'ones'
p1633
aS'argon'
p1634
asg21
(lp1635
g1629
ag1630
ag1631
ag1632
ag1633
ag1634
asba(iMeme
Meme
p1636
(dp1637
g3
(lp1638
S'do'
p1639
ag182
aS'look'
p1640
aS'like'
p1641
aS'im'
p1642
aS'in'
p1643
aS'breaking'
p1644
aS'bad'
p1645
ag54
asg11
S'do i look like im in breaking bad?'
p1646
sg13
S' sweet.'
p1647
sg15
Vscience-cat
p1648
sg17
(lp1649
g1639
ag182
ag1640
ag1641
ag1642
ag1643
ag1644
ag1645
ag54
aS'sweet'
p1650
ag111
asg21
(lp1651
g1650
ag111
asba(iMeme
Meme
p1652
(dp1653
g3
(lp1654
S'what'
p1655
aS'if'
p1656
asg11
S'what if'
p1657
sg13
S' the periodic table'
p1658
sg15
Vscience-cat
p1659
sg17
(lp1660
g1655
ag1656
aS'the'
p1661
aS'periodic'
p1662
aS'table'
p1663
asg21
(lp1664
g1661
ag1662
ag1663
asba(iMeme
Meme
p1665
(dp1666
g3
(lp1667
S'daddy'
p1668
aS'd'
p1669
aS':'
p1670
aS'what'
p1671
aS'is'
p1672
aS'the'
p1673
aS'scientific'
p1674
aS'name'
p1675
aS'of'
p1676
aS'banana'
p1677
ag54
asg11
S'daddy d: what is the scientific name of banana?'
p1678
sg13
S' bana2'
p1679
sg15
Vscience-cat
p1680
sg17
(lp1681
g1668
ag1669
ag1670
ag1671
ag1672
ag1673
ag1674
ag1675
ag1676
ag1677
ag54
aS'bana2'
p1682
asg21
(lp1683
g1682
asba(iMeme
Meme
p1684
(dp1685
g3
(lp1686
S'this'
p1687
aS'cat'
p1688
aS'is'
p1689
ag31
aS'professor'
p1690
asg11
S'this cat is a professor'
p1691
sg13
S' your argument is invalid'
p1692
sg15
Vscience-cat
p1693
sg17
(lp1694
g1687
ag1688
ag1689
ag31
ag1690
aS'your'
p1695
aS'argument'
p1696
aS'is'
p1697
aS'invalid'
p1698
asg21
(lp1699
g1695
ag1696
ag1697
ag1698
asba(iMeme
Meme
p1700
(dp1701
g3
(lp1702
S'wan'
p1703
aS'na'
p1704
aS'hear'
p1705
ag31
aS'joke'
p1706
aS'about'
p1707
aS'yttrium'
p1708
asg11
S'wanna hear a joke about yttrium'
p1709
sg13
S' uranium'
p1710
sg15
Vscience-cat
p1711
sg17
(lp1712
g1703
ag1704
ag1705
ag31
ag1706
ag1707
ag1708
aS'uranium'
p1713
asg21
(lp1714
g1713
asba(iMeme
Meme
p1715
(dp1716
g3
(lp1717
g182
aS'asked'
p1718
aS'the'
p1719
aS'cat'
p1720
aS'sitting'
p1721
aS'next'
p1722
aS'to'
p1723
aS'me'
p1724
aS'if'
p1725
aS'he'
p1726
aS'had'
p1727
aS'any'
p1728
aS'sodium'
p1729
aS'hypobromite'
p1730
asg11
S'i asked the cat sitting next to me if he had any sodium hypobromite'
p1731
sg13
S' he said nabro'
p1732
sg15
Vscience-cat
p1733
sg17
(lp1734
g182
ag1718
ag1719
ag1720
ag1721
ag1722
ag1723
ag1724
ag1725
ag1726
ag1727
ag1728
ag1729
ag1730
aS'he'
p1735
aS'said'
p1736
aS'nabro'
p1737
asg21
(lp1738
g1735
ag1736
ag1737
asba(iMeme
Meme
p1739
(dp1740
g3
(lp1741
g182
aS'tried'
p1742
aS'to'
p1743
aS'tell'
p1744
ag31
aS'joke'
p1745
aS'about'
p1746
aS'iodine'
p1747
aS'and'
p1748
aS'starch'
p1749
ag111
ag111
ag111
asg11
S'i tried to tell a joke about iodine and starch . . .'
p1750
sg13
S' i got no reaction.'
p1751
sg15
Vscience-cat
p1752
sg17
(lp1753
g182
ag1742
ag1743
ag1744
ag31
ag1745
ag1746
ag1747
ag1748
ag1749
ag111
ag111
ag111
ag182
aS'got'
p1754
aS'no'
p1755
aS'reaction'
p1756
ag111
asg21
(lp1757
g182
ag1754
ag1755
ag1756
ag111
asba(iMeme
Meme
p1758
(dp1759
g3
(lp1760
g182
aS'need'
p1761
ag31
aS'back'
p1762
aS'massage'
p1763
asg11
S'i need a back massage'
p1764
sg13
S' like an atom needs 8 electrons in its outer most shell'
p1765
sg15
Vscience-cat
p1766
sg17
(lp1767
g182
ag1761
ag31
ag1762
ag1763
aS'like'
p1768
aS'an'
p1769
aS'atom'
p1770
aS'needs'
p1771
aS'8'
p1772
aS'electrons'
p1773
aS'in'
p1774
aS'its'
p1775
aS'outer'
p1776
aS'most'
p1777
aS'shell'
p1778
asg21
(lp1779
g1768
ag1769
ag1770
ag1771
ag1772
ag1773
ag1774
ag1775
ag1776
ag1777
ag1778
asba(iMeme
Meme
p1780
(dp1781
g3
(lp1782
S'look'
p1783
aS'at'
p1784
aS'me'
p1785
aS'meow'
p1786
asg11
S'look at me meow'
p1787
sg13
S' im gettin paper'
p1788
sg15
Vscience-cat
p1789
sg17
(lp1790
g1783
ag1784
ag1785
ag1786
aS'im'
p1791
aS'gettin'
p1792
aS'paper'
p1793
asg21
(lp1794
g1791
ag1792
ag1793
asba(iMeme
Meme
p1795
(dp1796
g3
(lp1797
S'im'
p1798
ag31
aS'fucking'
p1799
aS'cat'
p1800
asg11
S'im a fucking cat'
p1801
sg13
S' and i still make less math errors than you'
p1802
sg15
Vscience-cat
p1803
sg17
(lp1804
g1798
ag31
ag1799
ag1800
aS'and'
p1805
ag182
aS'still'
p1806
aS'make'
p1807
aS'less'
p1808
aS'math'
p1809
aS'errors'
p1810
aS'than'
p1811
aS'you'
p1812
asg21
(lp1813
g1805
ag182
ag1806
ag1807
ag1808
ag1809
ag1810
ag1811
ag1812
asba(iMeme
Meme
p1814
(dp1815
g3
(lp1816
S'what'
p1817
aS'is'
p1818
aS'the'
p1819
aS'name'
p1820
aS'of'
p1821
aS'007s'
p1822
aS'eskimo'
p1823
aS'cousin'
p1824
ag54
asg11
S'what is the name of 007s eskimo cousin?'
p1825
sg13
S' polar bond'
p1826
sg15
Vscience-cat
p1827
sg17
(lp1828
g1817
ag1818
ag1819
ag1820
ag1821
ag1822
ag1823
ag1824
ag54
aS'polar'
p1829
aS'bond'
p1830
asg21
(lp1831
g1829
ag1830
asba(iMeme
Meme
p1832
(dp1833
g3
(lp1834
S'do'
p1835
aS'you'
p1836
aS'wan'
p1837
aS'na'
p1838
aS'hear'
p1839
ag31
aS'joke'
p1840
aS'about'
p1841
aS'nitric'
p1842
aS'oxide'
p1843
ag54
asg11
S'do you wanna hear a joke about nitric oxide?'
p1844
sg13
S' no'
p1845
sg15
Vscience-cat
p1846
sg17
(lp1847
g1835
ag1836
ag1837
ag1838
ag1839
ag31
ag1840
ag1841
ag1842
ag1843
ag54
aS'no'
p1848
asg21
(lp1849
g1848
asba(iMeme
Meme
p1850
(dp1851
g3
(lp1852
S'entropy'
p1853
asg11
S'entropy'
p1854
sg13
S' isnt what it used to be'
p1855
sg15
Vscience-cat
p1856
sg17
(lp1857
g1853
aS'isnt'
p1858
aS'what'
p1859
aS'it'
p1860
aS'used'
p1861
aS'to'
p1862
aS'be'
p1863
asg21
(lp1864
g1858
ag1859
ag1860
ag1861
ag1862
ag1863
asba(iMeme
Meme
p1865
(dp1866
g3
(lp1867
S'chem'
p1868
aS'6674'
p1869
asg11
S'chem 6674'
p1870
sg13
S' thank you for your attention'
p1871
sg15
Vscience-cat
p1872
sg17
(lp1873
g1868
ag1869
aS'thank'
p1874
aS'you'
p1875
aS'for'
p1876
aS'your'
p1877
aS'attention'
p1878
asg21
(lp1879
g1874
ag1875
ag1876
ag1877
ag1878
asba(iMeme
Meme
p1880
(dp1881
g3
(lp1882
S'which'
p1883
aS'element'
p1884
aS'is'
p1885
aS'ambivelent'
p1886
aS'about'
p1887
aS'going'
p1888
aS'to'
p1889
ag31
aS'conference'
p1890
aS'full'
p1891
aS'of'
p1892
aS'chix'
p1893
asg11
S'which element is ambivelent about going to a conference full of chix'
p1894
sg13
S' boron'
p1895
sg15
Vscience-cat
p1896
sg17
(lp1897
g1883
ag1884
ag1885
ag1886
ag1887
ag1888
ag1889
ag31
ag1890
ag1891
ag1892
ag1893
aS'boron'
p1898
asg21
(lp1899
g1898
asba(iMeme
Meme
p1900
(dp1901
g3
(lp1902
g31
aS'joke'
p1903
aS'about'
p1904
aS'covalent'
p1905
aS'bonds'
p1906
ag54
asg11
S'a joke about covalent bonds?'
p1907
sg13
S' thanks for sharing.'
p1908
sg15
Vscience-cat
p1909
sg17
(lp1910
g31
ag1903
ag1904
ag1905
ag1906
ag54
aS'thanks'
p1911
aS'for'
p1912
aS'sharing'
p1913
ag111
asg21
(lp1914
g1911
ag1912
ag1913
ag111
asba(iMeme
Meme
p1915
(dp1916
g3
(lp1917
g182
aS'shall'
p1918
aS'henceforth'
p1919
aS'be'
p1920
aS'known'
p1921
aS'as'
p1922
asg11
S'i shall henceforth be known as'
p1923
sg13
S' cation'
p1924
sg15
Vscience-cat
p1925
sg17
(lp1926
g182
ag1918
ag1919
ag1920
ag1921
ag1922
aS'cation'
p1927
asg21
(lp1928
g1927
asba(iMeme
Meme
p1929
(dp1930
g3
(lp1931
g31
aS'person'
p1932
aS'from'
p1933
aS'norway'
p1934
asg11
S'a person from norway'
p1935
sg13
S' sweden'
p1936
sg15
Vscience-cat
p1937
sg17
(lp1938
g31
ag1932
ag1933
ag1934
aS'sweden'
p1939
asg21
(lp1940
g1939
asba(iMeme
Meme
p1941
(dp1942
g3
(lp1943
S'wan'
p1944
aS'na'
p1945
aS'hear'
p1946
ag31
aS'joke'
p1947
aS'about'
p1948
aS'titin'
p1949
ag54
asg11
S'wanna hear a joke about titin?'
p1950
sg13
S' c169 723h270 464n45 688o52 243s912'
p1951
sg15
Vscience-cat
p1952
sg17
(lp1953
g1944
ag1945
ag1946
ag31
ag1947
ag1948
ag1949
ag54
aS'c169'
p1954
aS'723h270'
p1955
aS'464n45'
p1956
aS'688o52'
p1957
aS'243s912'
p1958
asg21
(lp1959
g1954
ag1955
ag1956
ag1957
ag1958
asba(iMeme
Meme
p1960
(dp1961
g3
(lp1962
S'look'
p1963
aS'at'
p1964
aS'meow'
p1965
asg11
S'look at meow'
p1966
sg13
S' im gettin paper'
p1967
sg15
Vscience-cat
p1968
sg17
(lp1969
g1963
ag1964
ag1965
aS'im'
p1970
aS'gettin'
p1971
aS'paper'
p1972
asg21
(lp1973
g1970
ag1971
ag1972
asba(iMeme
Meme
p1974
(dp1975
g3
(lp1976
S'do'
p1977
aS'you'
p1978
aS'know'
p1979
aS'any'
p1980
aS'jokes'
p1981
aS'about'
p1982
aS'haemophilus'
p1983
aS'influenzae'
p1984
ag54
asg11
S'do you know any jokes about haemophilus influenzae?'
p1985
sg13
S' not my type'
p1986
sg15
Vscience-cat
p1987
sg17
(lp1988
g1977
ag1978
ag1979
ag1980
ag1981
ag1982
ag1983
ag1984
ag54
aS'not'
p1989
aS'my'
p1990
aS'type'
p1991
asg21
(lp1992
g1989
ag1990
ag1991
asba(iMeme
Meme
p1993
(dp1994
g3
(lp1995
S'chemistry'
p1996
aS'theme'
p1997
aS'songs'
p1998
ag54
asg11
S'chemistry theme songs?'
p1999
sg13
S' sodium'
p2000
sg15
Vscience-cat
p2001
sg17
(lp2002
g1996
ag1997
ag1998
ag54
aS'sodium'
p2003
asg21
(lp2004
g2003
asba(iMeme
Meme
p2005
(dp2006
g3
(lp2007
S'according'
p2008
aS'to'
p2009
aS'my'
p2010
aS'calculations'
p2011
asg11
S'according to my calculations'
p2012
sg13
S' youre an idiot'
p2013
sg15
Vscience-cat
p2014
sg17
(lp2015
g2008
ag2009
ag2010
ag2011
aS'youre'
p2016
aS'an'
p2017
aS'idiot'
p2018
asg21
(lp2019
g2016
ag2017
ag2018
asba(iMeme
Meme
p2020
(dp2021
g3
(lp2022
g182
aS'would'
p2023
aS'become'
p2024
ag31
aS'kharajyr'
p2025
aS'alchemist..'
p2026
asg11
S'i would become a kharajyr alchemist..'
p2027
sg13
S' but neither exist yet.'
p2028
sg15
Vscience-cat
p2029
sg17
(lp2030
g182
ag2023
ag2024
ag31
ag2025
ag2026
aS'but'
p2031
aS'neither'
p2032
aS'exist'
p2033
aS'yet'
p2034
ag111
asg21
(lp2035
g2031
ag2032
ag2033
ag2034
ag111
asba(iMeme
Meme
p2036
(dp2037
g3
(lp2038
S'why'
p2039
aS'do'
p2040
aS'chemists'
p2041
aS'like'
p2042
aS'nitrates'
p2043
aS'so'
p2044
aS'much'
p2045
ag54
asg11
S'why do chemists like nitrates so much?'
p2046
sg13
S' theyre cheaper than day rates.'
p2047
sg15
Vscience-cat
p2048
sg17
(lp2049
g2039
ag2040
ag2041
ag2042
ag2043
ag2044
ag2045
ag54
aS'theyre'
p2050
aS'cheaper'
p2051
aS'than'
p2052
aS'day'
p2053
aS'rates'
p2054
ag111
asg21
(lp2055
g2050
ag2051
ag2052
ag2053
ag2054
ag111
asba(iMeme
Meme
p2056
(dp2057
g3
(lp2058
S'what'
p2059
aS'is'
p2060
aS'the'
p2061
aS'most'
p2062
aS'important'
p2063
aS'test'
p2064
ag54
asg11
S'what is the most important test?'
p2065
sg13
S' the mcat'
p2066
sg15
Vscience-cat
p2067
sg17
(lp2068
g2059
ag2060
ag2061
ag2062
ag2063
ag2064
ag54
aS'the'
p2069
aS'mcat'
p2070
asg21
(lp2071
g2069
ag2070
asba(iMeme
Meme
p2072
(dp2073
g3
(lp2074
S'what'
p2075
aS'is'
p2076
ag31
aS'chemists'
p2077
asg11
S'what is a chemists'
p2078
sg13
S' most important tool'
p2079
sg15
Vscience-cat
p2080
sg17
(lp2081
g2075
ag2076
ag31
ag2077
aS'most'
p2082
aS'important'
p2083
aS'tool'
p2084
asg21
(lp2085
g2082
ag2083
ag2084
asba(iMeme
Meme
p2086
(dp2087
g3
(lp2088
g182
aS'like'
p2089
aS'my'
p2090
aS'pregnancies'
p2091
aS'like'
p2092
ag182
aS'like'
p2093
aS'my'
p2094
aS'drugs'
p2095
asg11
S'i like my pregnancies like i like my drugs'
p2096
sg13
S' chemical'
p2097
sg15
Vscience-cat
p2098
sg17
(lp2099
g182
ag2089
ag2090
ag2091
ag2092
ag182
ag2093
ag2094
ag2095
aS'chemical'
p2100
asg21
(lp2101
g2100
asba(iMeme
Meme
p2102
(dp2103
g3
(lp2104
S'spilt'
p2105
aS'francium'
p2106
asg11
S'spilt francium'
p2107
sg13
S' actinium and arsenic on visiting professor'
p2108
sg15
Vscience-cat
p2109
sg17
(lp2110
g2105
ag2106
aS'actinium'
p2111
aS'and'
p2112
aS'arsenic'
p2113
aS'on'
p2114
aS'visiting'
p2115
aS'professor'
p2116
asg21
(lp2117
g2111
ag2112
ag2113
ag2114
ag2115
ag2116
asba(iMeme
Meme
p2118
(dp2119
g3
(lp2120
S'if'
p2121
aS'you'
p2122
aS'were'
p2123
aS'oxygen'
p2124
asg11
S'if you were oxygen'
p2125
sg13
S' i would be an alkali metal so i could get in you and explode!'
p2126
sg15
Vscience-cat
p2127
sg17
(lp2128
g2121
ag2122
ag2123
ag2124
ag182
aS'would'
p2129
aS'be'
p2130
aS'an'
p2131
aS'alkali'
p2132
aS'metal'
p2133
aS'so'
p2134
ag182
aS'could'
p2135
aS'get'
p2136
aS'in'
p2137
aS'you'
p2138
aS'and'
p2139
aS'explode'
p2140
ag10
asg21
(lp2141
g182
ag2129
ag2130
ag2131
ag2132
ag2133
ag2134
ag182
ag2135
ag2136
ag2137
ag2138
ag2139
ag2140
ag10
asba(iMeme
Meme
p2142
(dp2143
g3
(lp2144
S'wan'
p2145
aS'na'
p2146
aS'hear'
p2147
ag31
aS'joke'
p2148
aS'about'
p2149
ag31
aS'radioactive'
p2150
aS'rare'
p2151
aS'earth'
p2152
aS'metal'
p2153
aS'named'
p2154
aS'after'
p2155
aS'alfred'
p2156
aS'nobel'
p2157
ag54
asg11
S'wanna hear a joke about a radioactive rare earth metal named after alfred nobel?'
p2158
sg13
S' no.'
p2159
sg15
Vscience-cat
p2160
sg17
(lp2161
g2145
ag2146
ag2147
ag31
ag2148
ag2149
ag31
ag2150
ag2151
ag2152
ag2153
ag2154
ag2155
ag2156
ag2157
ag54
aS'no'
p2162
ag111
asg21
(lp2163
g2162
ag111
asba(iMeme
Meme
p2164
(dp2165
g3
(lp2166
S'whats'
p2167
ag31
aS'pirates'
p2168
aS'favorite'
p2169
aS'element'
p2170
asg11
S'whats a pirates favorite element'
p2171
sg13
S' ar'
p2172
sg15
Vscience-cat
p2173
sg17
(lp2174
g2167
ag31
ag2168
ag2169
ag2170
aS'ar'
p2175
asg21
(lp2176
g2175
asba(iMeme
Meme
p2177
(dp2178
g3
(lp2179
S'did'
p2180
aS'you'
p2181
aS'hear'
p2182
aS'the'
p2183
aS'one'
p2184
aS'about'
p2185
aS'the'
p2186
aS'oxygen'
p2187
aS'and'
p2188
aS'europium'
p2189
aS'infused'
p2190
aS'coagulated'
p2191
aS'soy'
p2192
aS'milk'
p2193
ag54
asg11
S'did you hear the one about the oxygen and europium infused coagulated soy milk?'
p2194
sg13
S' o eu killer tofu'
p2195
sg15
Vscience-cat
p2196
sg17
(lp2197
g2180
ag2181
ag2182
ag2183
ag2184
ag2185
ag2186
ag2187
ag2188
ag2189
ag2190
ag2191
ag2192
ag2193
ag54
aS'o'
p2198
aS'eu'
p2199
aS'killer'
p2200
aS'tofu'
p2201
asg21
(lp2202
g2198
ag2199
ag2200
ag2201
asba(iMeme
Meme
p2203
(dp2204
g3
(lp2205
S'iron'
p2206
aS'man'
p2207
aS'='
p2208
aS'('
p2209
aS'fe'
p2210
aS')'
p2211
aS'+'
p2212
aS'male'
p2213
aS'=female'
p2214
asg11
S'iron man = (fe) + male =female'
p2215
sg13
S' iron man =female'
p2216
sg15
Vscience-cat
p2217
sg17
(lp2218
g2206
ag2207
ag2208
ag2209
ag2210
ag2211
ag2212
ag2213
ag2214
aS'iron'
p2219
aS'man'
p2220
aS'=female'
p2221
asg21
(lp2222
g2219
ag2220
ag2221
asba(iMeme
Meme
p2223
(dp2224
g3
(lp2225
S'chemistry'
p2226
aS'theme'
p2227
aS'songs'
p2228
ag54
asg11
S'chemistry theme songs?'
p2229
sg13
S' sodium'
p2230
sg15
Vscience-cat
p2231
sg17
(lp2232
g2226
ag2227
ag2228
ag54
aS'sodium'
p2233
asg21
(lp2234
g2233
asba(iMeme
Meme
p2235
(dp2236
g3
(lp2237
g182
aS'once'
p2238
aS'was'
p2239
ag31
aS'chemist'
p2240
asg11
S'i once was a chemist'
p2241
sg13
S' but i am no more.'
p2242
sg15
Vscience-cat
p2243
sg17
(lp2244
g182
ag2238
ag2239
ag31
ag2240
aS'but'
p2245
ag182
aS'am'
p2246
aS'no'
p2247
aS'more'
p2248
ag111
asg21
(lp2249
g2245
ag182
ag2246
ag2247
ag2248
ag111
asba(iMeme
Meme
p2250
(dp2251
g3
(lp2252
S'according'
p2253
aS'to'
p2254
aS'my'
p2255
aS'calculations:'
p2256
asg11
S'according to my calculations:'
p2257
sg13
S' humans are fucking cunts and i hate the asshole that dressed me like this.'
p2258
sg15
Vscience-cat
p2259
sg17
(lp2260
g2253
ag2254
ag2255
ag2256
aS'humans'
p2261
aS'are'
p2262
aS'fucking'
p2263
aS'cunts'
p2264
aS'and'
p2265
ag182
aS'hate'
p2266
aS'the'
p2267
aS'asshole'
p2268
aS'that'
p2269
aS'dressed'
p2270
aS'me'
p2271
aS'like'
p2272
aS'this'
p2273
ag111
asg21
(lp2274
g2261
ag2262
ag2263
ag2264
ag2265
ag182
ag2266
ag2267
ag2268
ag2269
ag2270
ag2271
ag2272
ag2273
ag111
asba(iMeme
Meme
p2275
(dp2276
g3
(lp2277
S'cute'
p2278
aS'cat'
p2279
asg11
S'cute cat'
p2280
sg13
S' i love this cat'
p2281
sg15
Vscience-cat
p2282
sg17
(lp2283
g2278
ag2279
ag182
aS'love'
p2284
aS'this'
p2285
aS'cat'
p2286
asg21
(lp2287
g182
ag2284
ag2285
ag2286
asba(iMeme
Meme
p2288
(dp2289
g3
(lp2290
S'happy'
p2291
aS'birthday'
p2292
ag10
asg11
S'happy birthday!'
p2293
sg13
S' from science cat'
p2294
sg15
Vscience-cat
p2295
sg17
(lp2296
g2291
ag2292
ag10
aS'from'
p2297
aS'science'
p2298
aS'cat'
p2299
asg21
(lp2300
g2297
ag2298
ag2299
asba(iMeme
Meme
p2301
(dp2302
g3
(lp2303
S'oh'
p2304
aS'it'
p2305
aS'is'
p2306
aS'on'
p2307
aS'now'
p2308
asg11
S'oh it is on now'
p2309
sg13
S' bitch'
p2310
sg15
Vscience-cat
p2311
sg17
(lp2312
g2304
ag2305
ag2306
ag2307
ag2308
aS'bitch'
p2313
asg21
(lp2314
g2313
asba(iMeme
Meme
p2315
(dp2316
g3
(lp2317
S'the'
p2318
aS'awkward'
p2319
aS'moment'
p2320
asg11
S'the awkward moment'
p2321
sg13
S' when science kitteh knows more than u do'
p2322
sg15
Vscience-cat
p2323
sg17
(lp2324
g2318
ag2319
ag2320
aS'when'
p2325
aS'science'
p2326
aS'kitteh'
p2327
aS'knows'
p2328
aS'more'
p2329
aS'than'
p2330
ag1255
aS'do'
p2331
asg21
(lp2332
g2325
ag2326
ag2327
ag2328
ag2329
ag2330
ag1255
ag2331
asba(iMeme
Meme
p2333
(dp2334
g3
(lp2335
S'happy'
p2336
aS'birthday'
p2337
asg11
S'happy birthday'
p2338
sg13
S' meow bitch'
p2339
sg15
Vscience-cat
p2340
sg17
(lp2341
g2336
ag2337
aS'meow'
p2342
aS'bitch'
p2343
asg21
(lp2344
g2342
ag2343
asba(iMeme
Meme
p2345
(dp2346
g3
(lp2347
S'acids'
p2348
aS'and'
p2349
aS'bases'
p2350
asg11
S'acids and bases'
p2351
sg13
S' awsome'
p2352
sg15
Vscience-cat
p2353
sg17
(lp2354
g2348
ag2349
ag2350
aS'awsome'
p2355
asg21
(lp2356
g2355
asba(iMeme
Meme
p2357
(dp2358
g3
(lp2359
S'my'
p2360
aS'favorite'
p2361
aS'attractice'
p2362
aS'force'
p2363
aS'is'
p2364
aS'van'
p2365
aS'der'
p2366
aS'waals'
p2367
aS'force'
p2368
ag111
aS'can'
p2369
aS'you'
p2370
aS'feel'
p2371
aS'it'
p2372
ag54
asg11
S'my favorite attractice force is van der waals force. can you feel it?'
p2373
sg13
S' ill sit closer if youd like'
p2374
sg15
Vscience-cat
p2375
sg17
(lp2376
g2360
ag2361
ag2362
ag2363
ag2364
ag2365
ag2366
ag2367
ag2368
ag111
ag2369
ag2370
ag2371
ag2372
ag54
aS'ill'
p2377
aS'sit'
p2378
aS'closer'
p2379
aS'if'
p2380
aS'youd'
p2381
aS'like'
p2382
asg21
(lp2383
g2377
ag2378
ag2379
ag2380
ag2381
ag2382
asba(iMeme
Meme
p2384
(dp2385
g3
(lp2386
S'chemistry'
p2387
aS'cat'
p2388
aS'wants'
p2389
aS'to'
p2390
aS'know'
p2391
ag1670
aS'if'
p2392
aS'schrodingers'
p2393
aS'cat'
p2394
aS'walks'
p2395
aS'into'
p2396
ag31
aS'bar'
p2397
asg11
S'chemistry cat wants to know: if schrodingers cat walks into a bar'
p2398
sg13
S' is it there?'
p2399
sg15
Vscience-cat
p2400
sg17
(lp2401
g2387
ag2388
ag2389
ag2390
ag2391
ag1670
ag2392
ag2393
ag2394
ag2395
ag2396
ag31
ag2397
aS'is'
p2402
aS'it'
p2403
aS'there'
p2404
ag54
asg21
(lp2405
g2402
ag2403
ag2404
ag54
asba(iMeme
Meme
p2406
(dp2407
g3
(lp2408
S'happy'
p2409
aS'birthday'
p2410
ag10
asg11
S'happy birthday!'
p2411
sg13
S' lithium americium!'
p2412
sg15
Vscience-cat
p2413
sg17
(lp2414
g2409
ag2410
ag10
aS'lithium'
p2415
aS'americium'
p2416
ag10
asg21
(lp2417
g2415
ag2416
ag10
asba(iMeme
Meme
p2418
(dp2419
g3
(lp2420
S'what'
p2421
aS'did'
p2422
aS'the'
p2423
aS'bartender'
p2424
aS'say'
p2425
aS'when'
p2426
aS'oxygen'
p2427
asg11
S'what did the bartender say when oxygen'
p2428
sg13
S' hydrogen'
p2429
sg15
Vscience-cat
p2430
sg17
(lp2431
g2421
ag2422
ag2423
ag2424
ag2425
ag2426
ag2427
aS'hydrogen'
p2432
asg21
(lp2433
g2432
asba(iMeme
Meme
p2434
(dp2435
g3
(lp2436
S'fat'
p2437
aS'people'
p2438
asg11
S'fat people'
p2439
sg13
S' sterically hindered'
p2440
sg15
Vscience-cat
p2441
sg17
(lp2442
g2437
ag2438
aS'sterically'
p2443
aS'hindered'
p2444
asg21
(lp2445
g2443
ag2444
asba(iMeme
Meme
p2446
(dp2447
g3
(lp2448
S'my'
p2449
aS'favorite'
p2450
aS'mechanism'
p2451
aS'is'
p2452
aS'backside'
p2453
aS'attack'
p2454
ag111
asg11
S'my favorite mechanism is backside attack.'
p2455
sg13
S' and you?'
p2456
sg15
Vscience-cat
p2457
sg17
(lp2458
g2449
ag2450
ag2451
ag2452
ag2453
ag2454
ag111
aS'and'
p2459
aS'you'
p2460
ag54
asg21
(lp2461
g2459
ag2460
ag54
asba(iMeme
Meme
p2462
(dp2463
g3
(lp2464
S'wan'
p2465
aS'na'
p2466
aS'hear'
p2467
ag31
aS'joke'
p2468
aS'about'
p2469
aS'star'
p2470
aS'wars'
p2471
ag54
asg11
S'wanna hear a joke about  star wars ?'
p2472
sg13
S' c3po'
p2473
sg15
Vscience-cat
p2474
sg17
(lp2475
g2465
ag2466
ag2467
ag31
ag2468
ag2469
ag2470
ag2471
ag54
aS'c3po'
p2476
asg21
(lp2477
g2476
asba(iMeme
Meme
p2478
(dp2479
g3
(lp2480
S'science'
p2481
aS'cat'
p2482
aS'everywhere'
p2483
asg11
S'science cat everywhere'
p2484
sg13
S' immediately ra ge'
p2485
sg15
Vscience-cat
p2486
sg17
(lp2487
g2481
ag2482
ag2483
aS'immediately'
p2488
aS'ra'
p2489
aS'ge'
p2490
asg21
(lp2491
g2488
ag2489
ag2490
asba(iMeme
Meme
p2492
(dp2493
g3
(lp2494
S'c2h5oh'
p2495
ag54
asg11
S'c2h5oh?'
p2496
sg13
S' ill have that on the rocks'
p2497
sg15
Vscience-cat
p2498
sg17
(lp2499
g2495
ag54
aS'ill'
p2500
aS'have'
p2501
aS'that'
p2502
aS'on'
p2503
aS'the'
p2504
aS'rocks'
p2505
asg21
(lp2506
g2500
ag2501
ag2502
ag2503
ag2504
ag2505
asba(iMeme
Meme
p2507
(dp2508
g3
(lp2509
S'old'
p2510
aS'chemists'
p2511
aS'never'
p2512
aS'die'
p2513
asg11
S'old chemists never die'
p2514
sg13
S' they just fail to react'
p2515
sg15
Vscience-cat
p2516
sg17
(lp2517
g2510
ag2511
ag2512
ag2513
aS'they'
p2518
aS'just'
p2519
aS'fail'
p2520
aS'to'
p2521
aS'react'
p2522
asg21
(lp2523
g2518
ag2519
ag2520
ag2521
ag2522
asba(iMeme
Meme
p2524
(dp2525
g3
(lp2526
S'experiments'
p2527
asg11
S'experiments'
p2528
sg13
S' like a boss (y)'
p2529
sg15
Vscience-cat
p2530
sg17
(lp2531
g2527
aS'like'
p2532
ag31
aS'boss'
p2533
ag2209
aS'y'
p2534
ag2211
asg21
(lp2535
g2532
ag31
ag2533
ag2209
ag2534
ag2211
asba(iMeme
Meme
p2536
(dp2537
g3
(lp2538
S'cmo'
p2539
aS'se'
p2540
aS'suicida'
p2541
aS'un'
p2542
aS'electrn'
p2543
ag54
asg11
S'cmo se suicida un electrn?'
p2544
sg13
S' tirndose de un puente de hidrgen'
p2545
sg15
Vscience-cat
p2546
sg17
(lp2547
g2539
ag2540
ag2541
ag2542
ag2543
ag54
aS'tirndose'
p2548
aS'de'
p2549
aS'un'
p2550
aS'puente'
p2551
aS'de'
p2552
aS'hidrgen'
p2553
asg21
(lp2554
g2548
ag2549
ag2550
ag2551
ag2552
ag2553
asba(iMeme
Meme
p2555
(dp2556
g3
(lp2557
g182
aS'dont'
p2558
aS'do'
p2559
aS'science'
p2560
asg11
S'i dont do science'
p2561
sg13
S' to be cute'
p2562
sg15
Vscience-cat
p2563
sg17
(lp2564
g182
ag2558
ag2559
ag2560
aS'to'
p2565
aS'be'
p2566
aS'cute'
p2567
asg21
(lp2568
g2565
ag2566
ag2567
asba(iMeme
Meme
p2569
(dp2570
g3
(lp2571
g182
aS'can'
p2572
aS'haz'
p2573
aS'bad'
p2574
aS'chemistry'
p2575
aS'joke'
p2576
aS'written'
p2577
aS'here'
p2578
ag54
asg11
S'i can haz bad chemistry joke written here?'
p2579
sg13
S' na'
p2580
sg15
Vscience-cat
p2581
sg17
(lp2582
g182
ag2572
ag2573
ag2574
ag2575
ag2576
ag2577
ag2578
ag54
aS'na'
p2583
asg21
(lp2584
g2583
asba(iMeme
Meme
p2585
(dp2586
g3
(lp2587
S'dubstep'
p2588
aS'during'
p2589
aS'chemistry'
p2590
asg11
S'dubstep during chemistry'
p2591
sg13
S' drop the base'
p2592
sg15
Vscience-cat
p2593
sg17
(lp2594
g2588
ag2589
ag2590
aS'drop'
p2595
aS'the'
p2596
aS'base'
p2597
asg21
(lp2598
g2595
ag2596
ag2597
asba(iMeme
Meme
p2599
(dp2600
g3
(lp2601
S'why'
p2602
aS'do'
p2603
aS'chemists'
p2604
aS'call'
p2605
aS'helium'
p2606
asg11
S'why do chemists call helium'
p2607
sg13
S' curium and barium the medical elements?'
p2608
sg15
Vscience-cat
p2609
sg17
(lp2610
g2602
ag2603
ag2604
ag2605
ag2606
aS'curium'
p2611
aS'and'
p2612
aS'barium'
p2613
aS'the'
p2614
aS'medical'
p2615
aS'elements'
p2616
ag54
asg21
(lp2617
g2611
ag2612
ag2613
ag2614
ag2615
ag2616
ag54
asba(iMeme
Meme
p2618
(dp2619
g3
(lp2620
g182
aS'told'
p2621
aS'popeye'
p2622
ag31
aS'joke'
p2623
aS'about'
p2624
aS'silver'
p2625
asg11
S'i told popeye a joke about silver'
p2626
sg13
S' he went agagagagag'
p2627
sg15
Vscience-cat
p2628
sg17
(lp2629
g182
ag2621
ag2622
ag31
ag2623
ag2624
ag2625
aS'he'
p2630
aS'went'
p2631
aS'agagagagag'
p2632
asg21
(lp2633
g2630
ag2631
ag2632
asba(iMeme
Meme
p2634
(dp2635
g3
(lp2636
S'the'
p2637
aS'effect'
p2638
aS'of'
p2639
ag31
aS'catalyst'
p2640
aS'in'
p2641
ag31
aS'hypothetical'
p2642
aS'exothermic'
p2643
aS'chemical'
p2644
aS'reaction'
p2645
aS'x'
p2646
ag2212
ag2534
aS'to'
p2647
aS'give'
p2648
aS'z'
p2649
ag111
aS'the'
p2650
aS'presence'
p2651
aS'of'
p2652
asg11
S'the effect of a catalyst in a hypothetical exothermic chemical reaction x + y to give z. the presence of'
p2653
sg13
S' fuck it.  lets make some e.'
p2654
sg15
Vscience-cat
p2655
sg17
(lp2656
g2637
ag2638
ag2639
ag31
ag2640
ag2641
ag31
ag2642
ag2643
ag2644
ag2645
ag2646
ag2212
ag2534
ag2647
ag2648
ag2649
ag111
ag2650
ag2651
ag2652
aS'fuck'
p2657
aS'it'
p2658
ag111
aS'lets'
p2659
aS'make'
p2660
aS'some'
p2661
aS'e'
p2662
ag111
asg21
(lp2663
g2657
ag2658
ag111
ag2659
ag2660
ag2661
ag2662
ag111
asba(iMeme
Meme
p2664
(dp2665
g3
(lp2666
S'ridge'
p2667
aS'had'
p2668
aS'some'
p2669
aS'good'
p2670
aS'jokes'
p2671
asg11
S'ridge had some good jokes'
p2672
sg13
S' but now they'
p2673
sg15
Vscience-cat
p2674
sg17
(lp2675
g2667
ag2668
ag2669
ag2670
ag2671
aS'but'
p2676
aS'now'
p2677
aS'they'
p2678
asg21
(lp2679
g2676
ag2677
ag2678
asba(iMeme
Meme
p2680
(dp2681
g3
(lp2682
S'im'
p2683
aS'looking'
p2684
aS'for'
p2685
aS'the'
p2686
aS'guy'
p2687
aS'who'
p2688
aS'shot'
p2689
aS'my'
p2690
aS'proactinium'
p2691
aS'tungsten'
p2692
asg11
S'im looking for the guy who shot my proactinium tungsten'
p2693
sg13
S' paw'
p2694
sg15
Vscience-cat
p2695
sg17
(lp2696
g2683
ag2684
ag2685
ag2686
ag2687
ag2688
ag2689
ag2690
ag2691
ag2692
aS'paw'
p2697
asg21
(lp2698
g2697
asba(iMeme
Meme
p2699
(dp2700
g3
(lp2701
S'wan'
p2702
aS'na'
p2703
aS'hear'
p2704
ag31
aS'joke'
p2705
aS'about'
p2706
aS'sodium'
p2707
aS'hydride'
p2708
ag54
asg11
S'wanna hear a joke about sodium hydride?'
p2709
sg13
S' nah'
p2710
sg15
Vscience-cat
p2711
sg17
(lp2712
g2702
ag2703
ag2704
ag31
ag2705
ag2706
ag2707
ag2708
ag54
aS'nah'
p2713
asg21
(lp2714
g2713
asba(iMeme
Meme
p2715
(dp2716
g3
(lp2717
S'science'
p2718
aS'cat'
p2719
aS'isnt'
p2720
aS'funny'
p2721
asg11
S'science cat isnt funny'
p2722
sg13
S' you are funny'
p2723
sg15
Vscience-cat
p2724
sg17
(lp2725
g2718
ag2719
ag2720
ag2721
aS'you'
p2726
aS'are'
p2727
aS'funny'
p2728
asg21
(lp2729
g2726
ag2727
ag2728
asba(iMeme
Meme
p2730
(dp2731
g3
(lp2732
S'argon'
p2733
aS'entra'
p2734
ag31
aS'un'
p2735
aS'bar'
p2736
asg11
S'argon entra a un bar'
p2737
sg13
S' el camarero le dice: sal de aqui'
p2738
sg15
Vscience-cat
p2739
sg17
(lp2740
g2733
ag2734
ag31
ag2735
ag2736
aS'el'
p2741
aS'camarero'
p2742
aS'le'
p2743
aS'dice'
p2744
ag1670
aS'sal'
p2745
aS'de'
p2746
aS'aqui'
p2747
asg21
(lp2748
g2741
ag2742
ag2743
ag2744
ag1670
ag2745
ag2746
ag2747
asba(iMeme
Meme
p2749
(dp2750
g3
(lp2751
S'can'
p2752
ag182
aS'tousle'
p2753
aS'you'
p2754
asg11
S'can i tousle you'
p2755
sg13
S' cat professor?'
p2756
sg15
Vscience-cat
p2757
sg17
(lp2758
g2752
ag182
ag2753
ag2754
aS'cat'
p2759
aS'professor'
p2760
ag54
asg21
(lp2761
g2759
ag2760
ag54
asba(iMeme
Meme
p2762
(dp2763
g3
(lp2764
g182
aS'could'
p2765
aS'make'
p2766
ag31
aS'chmestry'
p2767
aS'joke'
p2768
asg11
S'i could make a chmestry joke'
p2769
sg13
S' but why the fuck would i do that'
p2770
sg15
Vscience-cat
p2771
sg17
(lp2772
g182
ag2765
ag2766
ag31
ag2767
ag2768
aS'but'
p2773
aS'why'
p2774
aS'the'
p2775
aS'fuck'
p2776
aS'would'
p2777
ag182
aS'do'
p2778
aS'that'
p2779
asg21
(lp2780
g2773
ag2774
ag2775
ag2776
ag2777
ag182
ag2778
ag2779
asba(iMeme
Meme
p2781
(dp2782
g3
(lp2783
S'tried'
p2784
aS'to'
p2785
aS'tell'
p2786
ag31
aS'scientific'
p2787
aS'joke'
p2788
asg11
S'tried to tell a scientific joke'
p2789
sg13
S' got no reaction.'
p2790
sg15
Vscience-cat
p2791
sg17
(lp2792
g2784
ag2785
ag2786
ag31
ag2787
ag2788
aS'got'
p2793
aS'no'
p2794
aS'reaction'
p2795
ag111
asg21
(lp2796
g2793
ag2794
ag2795
ag111
asba(iMeme
Meme
p2797
(dp2798
g3
(lp2799
S'how'
p2800
aS'does'
p2801
aS'hydrogen'
p2802
aS'iodide'
p2803
aS'introduce'
p2804
aS'itself'
p2805
ag54
asg11
S'how does hydrogen iodide introduce itself?'
p2806
sg13
S' hi'
p2807
sg15
Vscience-cat
p2808
sg17
(lp2809
g2800
ag2801
ag2802
ag2803
ag2804
ag2805
ag54
aS'hi'
p2810
asg21
(lp2811
g2810
asba(iMeme
Meme
p2812
(dp2813
g3
(lp2814
S'what'
p2815
aS'did'
p2816
aS'silver'
p2817
aS'say'
p2818
aS'to'
p2819
aS'gold'
p2820
ag54
asg11
S'what did silver say to gold?'
p2821
sg13
S' au'
p2822
sg15
Vscience-cat
p2823
sg17
(lp2824
g2815
ag2816
ag2817
ag2818
ag2819
ag2820
ag54
aS'au'
p2825
asg21
(lp2826
g2825
asba(iMeme
Meme
p2827
(dp2828
g3
(lp2829
S'wow'
p2830
aS'most'
p2831
aS'of'
p2832
aS'these'
p2833
aS'fucking'
p2834
aS'blow'
p2835
asg11
S'wow most of these fucking blow'
p2836
sg13
S' you fucking neanderthals fuck you'
p2837
sg15
Vscience-cat
p2838
sg17
(lp2839
g2830
ag2831
ag2832
ag2833
ag2834
ag2835
aS'you'
p2840
aS'fucking'
p2841
aS'neanderthals'
p2842
aS'fuck'
p2843
aS'you'
p2844
asg21
(lp2845
g2840
ag2841
ag2842
ag2843
ag2844
asba(iMeme
Meme
p2846
(dp2847
g3
(lp2848
S'wait'
p2849
asg11
S'wait'
p2850
sg13
S' you dont want to hear a joke about flourine and silver?'
p2851
sg15
Vscience-cat
p2852
sg17
(lp2853
g2849
aS'you'
p2854
aS'dont'
p2855
aS'want'
p2856
aS'to'
p2857
aS'hear'
p2858
ag31
aS'joke'
p2859
aS'about'
p2860
aS'flourine'
p2861
aS'and'
p2862
aS'silver'
p2863
ag54
asg21
(lp2864
g2854
ag2855
ag2856
ag2857
ag2858
ag31
ag2859
ag2860
ag2861
ag2862
ag2863
ag54
asba(iMeme
Meme
p2865
(dp2866
g3
(lp2867
S'cuando'
p2868
aS'los'
p2869
aS'de'
p2870
aS'alcoholicos'
p2871
aS'anonimos'
p2872
aS'dicen'
p2873
aS'que'
p2874
aS'el'
p2875
aS'alcohol'
p2876
aS'no'
p2877
aS'es'
p2878
aS'una'
p2879
aS'solucion'
p2880
asg11
S'cuando los de alcoholicos anonimos dicen que el alcohol no es una solucion'
p2881
sg13
S' es por que no saben un pomo de quimica'
p2882
sg15
Vscience-cat
p2883
sg17
(lp2884
g2868
ag2869
ag2870
ag2871
ag2872
ag2873
ag2874
ag2875
ag2876
ag2877
ag2878
ag2879
ag2880
aS'es'
p2885
aS'por'
p2886
aS'que'
p2887
aS'no'
p2888
aS'saben'
p2889
aS'un'
p2890
aS'pomo'
p2891
aS'de'
p2892
aS'quimica'
p2893
asg21
(lp2894
g2885
ag2886
ag2887
ag2888
ag2889
ag2890
ag2891
ag2892
ag2893
asba(iMeme
Meme
p2895
(dp2896
g3
(lp2897
S'afraid'
p2898
aS'of'
p2899
aS'science'
p2900
ag54
asg11
S'afraid of science?'
p2901
sg13
S' dont be a pussy'
p2902
sg15
Vscience-cat
p2903
sg17
(lp2904
g2898
ag2899
ag2900
ag54
aS'dont'
p2905
aS'be'
p2906
ag31
aS'pussy'
p2907
asg21
(lp2908
g2905
ag2906
ag31
ag2907
asba(iMeme
Meme
p2909
(dp2910
g3
(lp2911
g182
aS'pour'
p2912
aS'water'
p2913
aS'into'
p2914
aS'acid'
p2915
ag10
asg11
S'i pour water into acid!'
p2916
sg13
S' yeah'
p2917
sg15
Vscience-cat
p2918
sg17
(lp2919
g182
ag2912
ag2913
ag2914
ag2915
ag10
aS'yeah'
p2920
asg21
(lp2921
g2920
asba(iMeme
Meme
p2922
(dp2923
g3
(lp2924
S'now'
p2925
aS'ill'
p2926
aS'pour'
p2927
aS'this'
p2928
aS'beaker'
p2929
aS'of'
p2930
aS'hcl'
p2931
asg11
S'now ill pour this beaker of hcl'
p2932
sg13
S' oh god i have no thumbs it sliped and shattered theres glass everywhere my skin is burning'
p2933
sg15
Vscience-cat
p2934
sg17
(lp2935
g2925
ag2926
ag2927
ag2928
ag2929
ag2930
ag2931
aS'oh'
p2936
aS'god'
p2937
ag182
aS'have'
p2938
aS'no'
p2939
aS'thumbs'
p2940
aS'it'
p2941
aS'sliped'
p2942
aS'and'
p2943
aS'shattered'
p2944
aS'theres'
p2945
aS'glass'
p2946
aS'everywhere'
p2947
aS'my'
p2948
aS'skin'
p2949
aS'is'
p2950
aS'burning'
p2951
asg21
(lp2952
g2936
ag2937
ag182
ag2938
ag2939
ag2940
ag2941
ag2942
ag2943
ag2944
ag2945
ag2946
ag2947
ag2948
ag2949
ag2950
ag2951
asba(iMeme
Meme
p2953
(dp2954
g3
(lp2955
S'im'
p2956
aS'going'
p2957
aS'to'
p2958
aS'knock'
p2959
aS'all'
p2960
aS'this'
p2961
aS'shit'
p2962
aS'off'
p2963
aS'the'
p2964
aS'table'
p2965
ag111
asg11
S'im going to knock all this shit off the table.'
p2966
sg13
S' im a cat.'
p2967
sg15
Vscience-cat
p2968
sg17
(lp2969
g2956
ag2957
ag2958
ag2959
ag2960
ag2961
ag2962
ag2963
ag2964
ag2965
ag111
aS'im'
p2970
ag31
aS'cat'
p2971
ag111
asg21
(lp2972
g2970
ag31
ag2971
ag111
asba(iMeme
Meme
p2973
(dp2974
g3
(lp2975
S'abbreviation'
p2976
aS'for'
p2977
ag31
aS'copper'
p2978
aS'nanotube'
p2979
ag54
asg11
S'abbreviation for a copper nanotube?'
p2980
sg13
S' cunt'
p2981
sg15
Vscience-cat
p2982
sg17
(lp2983
g2976
ag2977
ag31
ag2978
ag2979
ag54
aS'cunt'
p2984
asg21
(lp2985
g2984
asba(iMeme
Meme
p2986
(dp2987
g3
(lp2988
S'so'
p2989
aS'amy'
p2990
aS'winehouse'
p2991
aS'odd'
p2992
ag111
ag111
ag111
asg11
S'so amy winehouse odd. . .'
p2993
sg13
S' too soon?'
p2994
sg15
Vscience-cat
p2995
sg17
(lp2996
g2989
ag2990
ag2991
ag2992
ag111
ag111
ag111
aS'too'
p2997
aS'soon'
p2998
ag54
asg21
(lp2999
g2997
ag2998
ag54
asba(iMeme
Meme
p3000
(dp3001
g3
(lp3002
S'hey'
p3003
aS'mickey'
p3004
aS'mouse'
p3005
asg11
S'hey mickey mouse'
p3006
sg13
S' just wanted you to know . . .'
p3007
sg15
Vscience-cat
p3008
sg17
(lp3009
g3003
ag3004
ag3005
aS'just'
p3010
aS'wanted'
p3011
aS'you'
p3012
aS'to'
p3013
aS'know'
p3014
ag111
ag111
ag111
asg21
(lp3015
g3010
ag3011
ag3012
ag3013
ag3014
ag111
ag111
ag111
asba(iMeme
Meme
p3016
(dp3017
g3
(lp3018
g182
aS'would'
p3019
aS'play'
p3020
aS'another'
p3021
aS'meme'
p3022
asg11
S'i would play another meme'
p3023
sg13
S' but the scientific method tells me to review my experiment'
p3024
sg15
Vscience-cat
p3025
sg17
(lp3026
g182
ag3019
ag3020
ag3021
ag3022
aS'but'
p3027
aS'the'
p3028
aS'scientific'
p3029
aS'method'
p3030
aS'tells'
p3031
aS'me'
p3032
aS'to'
p3033
aS'review'
p3034
aS'my'
p3035
aS'experiment'
p3036
asg21
(lp3037
g3027
ag3028
ag3029
ag3030
ag3031
ag3032
ag3033
ag3034
ag3035
ag3036
asba(iMeme
Meme
p3038
(dp3039
g3
(lp3040
S'fuck'
p3041
aS'bitches'
p3042
asg11
S'fuck bitches'
p3043
sg13
S' get sardines'
p3044
sg15
Vscience-cat
p3045
sg17
(lp3046
g3041
ag3042
aS'get'
p3047
aS'sardines'
p3048
asg21
(lp3049
g3047
ag3048
asba(iMeme
Meme
p3050
(dp3051
g3
(lp3052
S'hipsters'
p3053
aS'like'
p3054
aS'bonds'
p3055
asg11
S'hipsters like bonds'
p3056
sg13
S' ionically'
p3057
sg15
Vscience-cat
p3058
sg17
(lp3059
g3053
ag3054
ag3055
aS'ionically'
p3060
asg21
(lp3061
g3060
asba(iMeme
Meme
p3062
(dp3063
g3
(lp3064
S'dont'
p3065
aS'touch'
p3066
aS'my'
p3067
aS'meth'
p3068
ag10
asg11
S'dont touch my meth!'
p3069
sg13
S' ive got my ion you!!'
p3070
sg15
Vscience-cat
p3071
sg17
(lp3072
g3065
ag3066
ag3067
ag3068
ag10
aS'ive'
p3073
aS'got'
p3074
aS'my'
p3075
aS'ion'
p3076
aS'you'
p3077
ag10
ag10
asg21
(lp3078
g3073
ag3074
ag3075
ag3076
ag3077
ag10
ag10
asba(iMeme
Meme
p3079
(dp3080
g3
(lp3081
S'wan'
p3082
aS'na'
p3083
aS'hear'
p3084
ag31
aS'joke'
p3085
aS'about'
p3086
aS'yttrium'
p3087
ag54
asg11
S'wanna hear a joke about yttrium?'
p3088
sg13
S' y?'
p3089
sg15
Vscience-cat
p3090
sg17
(lp3091
g3082
ag3083
ag3084
ag31
ag3085
ag3086
ag3087
ag54
ag2534
ag54
asg21
(lp3092
g2534
ag54
asba(iMeme
Meme
p3093
(dp3094
g3
(lp3095
S'do'
p3096
ag182
aS'know'
p3097
aS'any'
p3098
aS'jokes'
p3099
aS'about'
p3100
aS'sodium'
p3101
ag54
asg11
S'do i know any jokes about sodium?'
p3102
sg13
S' na'
p3103
sg15
Vscience-cat
p3104
sg17
(lp3105
g3096
ag182
ag3097
ag3098
ag3099
ag3100
ag3101
ag54
aS'na'
p3106
asg21
(lp3107
g3106
asba(iMeme
Meme
p3108
(dp3109
g3
(lp3110
S'cations'
p3111
aS'rules'
p3112
asg11
S'cations rules'
p3113
sg13
S' dogions drool'
p3114
sg15
Vscience-cat
p3115
sg17
(lp3116
g3111
ag3112
aS'dogions'
p3117
aS'drool'
p3118
asg21
(lp3119
g3117
ag3118
asba(iMeme
Meme
p3120
(dp3121
g3
(lp3122
S'what'
p3123
aS'are'
p3124
aS'the'
p3125
aS'most'
p3126
aS'stereotypically'
p3127
aS'german'
p3128
aS'items'
p3129
aS'in'
p3130
aS'the'
p3131
aS'lab'
p3132
ag54
asg11
S'what are the most stereotypically german items in the lab?'
p3133
sg13
S' the glass frits.'
p3134
sg15
Vscience-cat
p3135
sg17
(lp3136
g3123
ag3124
ag3125
ag3126
ag3127
ag3128
ag3129
ag3130
ag3131
ag3132
ag54
aS'the'
p3137
aS'glass'
p3138
aS'frits'
p3139
ag111
asg21
(lp3140
g3137
ag3138
ag3139
ag111
asba(iMeme
Meme
p3141
(dp3142
g3
(lp3143
g182
aS'r'
p3144
aS'science'
p3145
aS'kitty'
p3146
asg11
S'i r science kitty'
p3147
sg13
S' now where did i put those sulferic acid'
p3148
sg15
Vscience-cat
p3149
sg17
(lp3150
g182
ag3144
ag3145
ag3146
aS'now'
p3151
aS'where'
p3152
aS'did'
p3153
ag182
aS'put'
p3154
aS'those'
p3155
aS'sulferic'
p3156
aS'acid'
p3157
asg21
(lp3158
g3151
ag3152
ag3153
ag182
ag3154
ag3155
ag3156
ag3157
asba(iMeme
Meme
p3159
(dp3160
g3
(lp3161
S'bf'
p3162
aS'runs'
p3163
aS'slower'
p3164
aS'than'
p3165
aS'cod'
p3166
asg11
S'bf runs slower than cod'
p3167
sg13
S' elpresador science fact'
p3168
sg15
Vscience-cat
p3169
sg17
(lp3170
g3162
ag3163
ag3164
ag3165
ag3166
aS'elpresador'
p3171
aS'science'
p3172
aS'fact'
p3173
asg21
(lp3174
g3171
ag3172
ag3173
asba(iMeme
Meme
p3175
(dp3176
g3
(lp3177
S'happy'
p3178
aS'birthday'
p3179
asg11
S'happy birthday'
p3180
sg13
S' meow bitch double bond'
p3181
sg15
Vscience-cat
p3182
sg17
(lp3183
g3178
ag3179
aS'meow'
p3184
aS'bitch'
p3185
aS'double'
p3186
aS'bond'
p3187
asg21
(lp3188
g3184
ag3185
ag3186
ag3187
asba(iMeme
Meme
p3189
(dp3190
g3
(lp3191
S'ok'
p3192
aS'the'
p3193
aS'meth'
p3194
aS'is'
p3195
aS'done'
p3196
asg11
S'ok the meth is done'
p3197
sg13
S' now i make profit?!?!'
p3198
sg15
Vscience-cat
p3199
sg17
(lp3200
g3192
ag3193
ag3194
ag3195
ag3196
aS'now'
p3201
ag182
aS'make'
p3202
aS'profit'
p3203
ag54
ag10
ag54
ag10
asg21
(lp3204
g3201
ag182
ag3202
ag3203
ag54
ag10
ag54
ag10
asba(iMeme
Meme
p3205
(dp3206
g3
(lp3207
S'potassium'
p3208
asg11
S'potassium'
p3209
sg13
S' nickel and iron?'
p3210
sg15
Vscience-cat
p3211
sg17
(lp3212
g3208
aS'nickel'
p3213
aS'and'
p3214
aS'iron'
p3215
ag54
asg21
(lp3216
g3213
ag3214
ag3215
ag54
asba(iMeme
Meme
p3217
(dp3218
g3
(lp3219
S'chemistry'
p3220
aS'cat'
p3221
aS'says:'
p3222
asg11
S'chemistry cat says:'
p3223
sg13
S' happy birthday charles!'
p3224
sg15
Vscience-cat
p3225
sg17
(lp3226
g3220
ag3221
ag3222
aS'happy'
p3227
aS'birthday'
p3228
aS'charles'
p3229
ag10
asg21
(lp3230
g3227
ag3228
ag3229
ag10
asba(iMeme
Meme
p3231
(dp3232
g3
(lp3233
S'sandwich'
p3234
aS'sitting'
p3235
aS'too'
p3236
aS'heavy'
p3237
aS'in'
p3238
aS'your'
p3239
aS'stomach'
p3240
ag54
asg11
S'sandwich sitting too heavy in your stomach?'
p3241
sg13
S' well you did ask for the pb & j'
p3242
sg15
Vscience-cat
p3243
sg17
(lp3244
g3234
ag3235
ag3236
ag3237
ag3238
ag3239
ag3240
ag54
aS'well'
p3245
aS'you'
p3246
aS'did'
p3247
aS'ask'
p3248
aS'for'
p3249
aS'the'
p3250
aS'pb'
p3251
aS'&'
p3252
aS'j'
p3253
asg21
(lp3254
g3245
ag3246
ag3247
ag3248
ag3249
ag3250
ag3251
ag3252
ag3253
asba(iMeme
Meme
p3255
(dp3256
g3
(lp3257
S'wan'
p3258
aS'na'
p3259
aS'hear'
p3260
ag31
aS'joke'
p3261
aS'about'
p3262
aS'erbium'
p3263
ag54
asg11
S'wanna hear a joke about erbium?'
p3264
sg13
S' er'
p3265
sg15
Vscience-cat
p3266
sg17
(lp3267
g3258
ag3259
ag3260
ag31
ag3261
ag3262
ag3263
ag54
aS'er'
p3268
asg21
(lp3269
g3268
asba(iMeme
Meme
p3270
(dp3271
g3
(lp3272
g2198
ag2212
aS'na'
p3273
ag2212
aS'na'
p3274
ag2208
asg11
S'o + na + na ='
p3275
sg13
S' my name'
p3276
sg15
Vscience-cat
p3277
sg17
(lp3278
g2198
ag2212
ag3273
ag2212
ag3274
ag2208
aS'my'
p3279
aS'name'
p3280
asg21
(lp3281
g3279
ag3280
asba(iMeme
Meme
p3282
(dp3283
g3
(lp3284
S'you'
p3285
aS'love'
p3286
aS'to'
p3287
aS'work'
p3288
aS'with'
p3289
aS'both'
p3290
aS'lithium'
p3291
aS'and'
p3292
aS'argon'
p3293
ag54
asg11
S'you love to work with both lithium and argon?'
p3294
sg13
S' liar'
p3295
sg15
Vscience-cat
p3296
sg17
(lp3297
g3285
ag3286
ag3287
ag3288
ag3289
ag3290
ag3291
ag3292
ag3293
ag54
aS'liar'
p3298
asg21
(lp3299
g3298
asba(iMeme
Meme
p3300
(dp3301
g3
(lp3302
S'happy'
p3303
aS'birthday'
p3304
asg11
S'happy birthday'
p3305
sg13
S' ian (aka slayer)'
p3306
sg15
Vscience-cat
p3307
sg17
(lp3308
g3303
ag3304
aS'ian'
p3309
ag2209
aS'aka'
p3310
aS'slayer'
p3311
ag2211
asg21
(lp3312
g3309
ag2209
ag3310
ag3311
ag2211
asba(iMeme
Meme
p3313
(dp3314
g3
(lp3315
S'why'
p3316
aS'did'
p3317
aS'the'
p3318
aS'bear'
p3319
aS'dissolve'
p3320
aS'in'
p3321
aS'water'
p3322
asg11
S'why did the bear dissolve in water'
p3323
sg13
S' because it was a polar bear'
p3324
sg15
Vscience-cat
p3325
sg17
(lp3326
g3316
ag3317
ag3318
ag3319
ag3320
ag3321
ag3322
aS'because'
p3327
aS'it'
p3328
aS'was'
p3329
ag31
aS'polar'
p3330
aS'bear'
p3331
asg21
(lp3332
g3327
ag3328
ag3329
ag31
ag3330
ag3331
asba(iMeme
Meme
p3333
(dp3334
g3
(lp3335
S'its'
p3336
aS'science'
p3337
aS'mr'
p3338
ag111
aS'white'
p3339
asg11
S'its science mr. white'
p3340
sg13
S' bitch!'
p3341
sg15
Vscience-cat
p3342
sg17
(lp3343
g3336
ag3337
ag3338
ag111
ag3339
aS'bitch'
p3344
ag10
asg21
(lp3345
g3344
ag10
asba(iMeme
Meme
p3346
(dp3347
g3
(lp3348
S'now'
p3349
aS'ill'
p3350
aS'pour'
p3351
aS'this'
p3352
aS'beaker'
p3353
aS'of'
p3354
aS'hcl'
p3355
asg11
S'now ill pour this beaker of hcl'
p3356
sg13
S' oh god i have no thumbs it slipped and shattered theres glass everywhere my skin is being'
p3357
sg15
Vscience-cat
p3358
sg17
(lp3359
g3349
ag3350
ag3351
ag3352
ag3353
ag3354
ag3355
aS'oh'
p3360
aS'god'
p3361
ag182
aS'have'
p3362
aS'no'
p3363
aS'thumbs'
p3364
aS'it'
p3365
aS'slipped'
p3366
aS'and'
p3367
aS'shattered'
p3368
aS'theres'
p3369
aS'glass'
p3370
aS'everywhere'
p3371
aS'my'
p3372
aS'skin'
p3373
aS'is'
p3374
aS'being'
p3375
asg21
(lp3376
g3360
ag3361
ag182
ag3362
ag3363
ag3364
ag3365
ag3366
ag3367
ag3368
ag3369
ag3370
ag3371
ag3372
ag3373
ag3374
ag3375
asba(iMeme
Meme
p3377
(dp3378
g3
(lp3379
S'hey'
p3380
ag1255
ag10
aS'ure'
p3381
aS'full'
p3382
aS'of'
p3383
aS'beryllium'
p3384
asg11
S'hey u! ure full of beryllium'
p3385
sg13
S' gold & titanium'
p3386
sg15
Vscience-cat
p3387
sg17
(lp3388
g3380
ag1255
ag10
ag3381
ag3382
ag3383
ag3384
aS'gold'
p3389
ag3252
aS'titanium'
p3390
asg21
(lp3391
g3389
ag3252
ag3390
asba(iMeme
Meme
p3392
(dp3393
g3
(lp3394
S'want'
p3395
aS'to'
p3396
aS'use'
p3397
aS'acids'
p3398
aS'and'
p3399
aS'bases'
p3400
asg11
S'want to use acids and bases'
p3401
sg13
S' please dont use bleach'
p3402
sg15
Vscience-cat
p3403
sg17
(lp3404
g3395
ag3396
ag3397
ag3398
ag3399
ag3400
aS'please'
p3405
aS'dont'
p3406
aS'use'
p3407
aS'bleach'
p3408
asg21
(lp3409
g3405
ag3406
ag3407
ag3408
asba(iMeme
Meme
p3410
(dp3411
g3
(lp3412
S'how'
p3413
aS'do'
p3414
aS'you'
p3415
aS'catch'
p3416
aS'the'
p3417
aS'attention'
p3418
aS'of'
p3419
aS'someone'
p3420
aS'with'
p3421
aS'gold'
p3422
ag54
asg11
S'how do you catch the attention of someone with gold?'
p3423
sg13
S' au'
p3424
sg15
Vscience-cat
p3425
sg17
(lp3426
g3413
ag3414
ag3415
ag3416
ag3417
ag3418
ag3419
ag3420
ag3421
ag3422
ag54
aS'au'
p3427
asg21
(lp3428
g3427
asba(iMeme
Meme
p3429
(dp3430
g3
(lp3431
S'open'
p3432
aS'your'
p3433
aS'text'
p3434
aS'books'
p3435
asg11
S'open your text books'
p3436
sg13
S' to page 394.'
p3437
sg15
Vscience-cat
p3438
sg17
(lp3439
g3432
ag3433
ag3434
ag3435
aS'to'
p3440
aS'page'
p3441
aS'394'
p3442
ag111
asg21
(lp3443
g3440
ag3441
ag3442
ag111
asba(iMeme
Meme
p3444
(dp3445
g3
(lp3446
S'curiosity'
p3447
asg11
S'curiosity'
p3448
sg13
S' killed the cat'
p3449
sg15
Vscience-cat
p3450
sg17
(lp3451
g3447
aS'killed'
p3452
aS'the'
p3453
aS'cat'
p3454
asg21
(lp3455
g3452
ag3453
ag3454
asba(iMeme
Meme
p3456
(dp3457
g3
(lp3458
g182
aS'told'
p3459
aS'popeye'
p3460
ag31
aS'joke'
p3461
aS'about'
p3462
aS'silver'
p3463
asg11
S'i told popeye a joke about silver'
p3464
sg13
S' he went ag ag ag ag ag'
p3465
sg15
Vscience-cat
p3466
sg17
(lp3467
g182
ag3459
ag3460
ag31
ag3461
ag3462
ag3463
aS'he'
p3468
aS'went'
p3469
aS'ag'
p3470
aS'ag'
p3471
aS'ag'
p3472
aS'ag'
p3473
aS'ag'
p3474
asg21
(lp3475
g3468
ag3469
ag3470
ag3471
ag3472
ag3473
ag3474
asba(iMeme
Meme
p3476
(dp3477
g3
(lp3478
S'you'
p3479
aS'know'
p3480
aS'what'
p3481
aS'compound'
p3482
aS'is'
p3483
aS'really'
p3484
aS'sic'
p3485
ag54
asg11
S'you know what compound is really sic?'
p3486
sg13
S' carborundum'
p3487
sg15
Vscience-cat
p3488
sg17
(lp3489
g3479
ag3480
ag3481
ag3482
ag3483
ag3484
ag3485
ag54
aS'carborundum'
p3490
asg21
(lp3491
g3490
asba(iMeme
Meme
p3492
(dp3493
g3
(lp3494
S'yeah'
p3495
asg11
S'yeah'
p3496
sg13
S' absolute zero is cool'
p3497
sg15
Vscience-cat
p3498
sg17
(lp3499
g3495
aS'absolute'
p3500
aS'zero'
p3501
aS'is'
p3502
aS'cool'
p3503
asg21
(lp3504
g3500
ag3501
ag3502
ag3503
asba(iMeme
Meme
p3505
(dp3506
g3
(lp3507
S'would'
p3508
aS'you'
p3509
aS'like'
p3510
aS'to'
p3511
aS'hear'
p3512
ag31
aS'science'
p3513
aS'joke'
p3514
ag54
asg11
S'would you like to hear a science joke?'
p3515
sg13
S' no'
p3516
sg15
Vscience-cat
p3517
sg17
(lp3518
g3508
ag3509
ag3510
ag3511
ag3512
ag31
ag3513
ag3514
ag54
aS'no'
p3519
asg21
(lp3520
g3519
asba(iMeme
Meme
p3521
(dp3522
g3
(lp3523
g182
aS'do'
p3524
aS'believe'
p3525
aS'the'
p3526
aS'chemical'
p3527
aS'composition'
p3528
aS'of'
p3529
aS'this'
p3530
aS'food'
p3531
aS'is'
p3532
aS'making'
p3533
aS'me'
p3534
aS'gain'
p3535
aS'weight'
p3536
aS'at'
p3537
aS'an'
p3538
aS'alarming'
p3539
aS'rate'
p3540
ag10
asg11
S'i do believe the chemical composition of this food is making me gain weight at an alarming rate!'
p3541
sg13
S' fatcy  feastahhh!'
p3542
sg15
Vscience-cat
p3543
sg17
(lp3544
g182
ag3524
ag3525
ag3526
ag3527
ag3528
ag3529
ag3530
ag3531
ag3532
ag3533
ag3534
ag3535
ag3536
ag3537
ag3538
ag3539
ag3540
ag10
aS'fatcy'
p3545
aS'feastahhh'
p3546
ag10
asg21
(lp3547
g3545
ag3546
ag10
asba(iMeme
Meme
p3548
(dp3549
g3
(lp3550
S'want'
p3551
aS'to'
p3552
aS'see'
p3553
ag31
aS'chemical'
p3554
aS'reaction'
p3555
ag54
asg11
S'want to see a chemical reaction?'
p3556
sg13
S' 1. robin spann + 1. cce corob = crying like a little girl'
p3557
sg15
Vscience-cat
p3558
sg17
(lp3559
g3551
ag3552
ag3553
ag31
ag3554
ag3555
ag54
aS'1'
p3560
ag111
aS'robin'
p3561
aS'spann'
p3562
ag2212
ag3560
ag111
aS'cce'
p3563
aS'corob'
p3564
ag2208
aS'crying'
p3565
aS'like'
p3566
ag31
aS'little'
p3567
aS'girl'
p3568
asg21
(lp3569
g3560
ag111
ag3561
ag3562
ag2212
ag3560
ag111
ag3563
ag3564
ag2208
ag3565
ag3566
ag31
ag3567
ag3568
asba(iMeme
Meme
p3570
(dp3571
g3
(lp3572
S'fuck'
p3573
aS'it'
p3574
asg11
S'fuck it'
p3575
sg13
S' im making meth'
p3576
sg15
Vscience-cat
p3577
sg17
(lp3578
g3573
ag3574
aS'im'
p3579
aS'making'
p3580
aS'meth'
p3581
asg21
(lp3582
g3579
ag3580
ag3581
asba(iMeme
Meme
p3583
(dp3584
g3
(lp3585
S'what'
p3586
aS'browser'
p3587
aS'do'
p3588
aS'you'
p3589
aS'use'
p3590
asg11
S'what browser do you use'
p3591
sg13
S' i use chromium'
p3592
sg15
Vscience-cat
p3593
sg17
(lp3594
g3586
ag3587
ag3588
ag3589
ag3590
ag182
aS'use'
p3595
aS'chromium'
p3596
asg21
(lp3597
g182
ag3595
ag3596
asba(iMeme
Meme
p3598
(dp3599
g3
(lp3600
S'years'
p3601
aS'of'
p3602
aS'education'
p3603
asg11
S'years of education'
p3604
sg13
S' smart pussy'
p3605
sg15
Vscience-cat
p3606
sg17
(lp3607
g3601
ag3602
ag3603
aS'smart'
p3608
aS'pussy'
p3609
asg21
(lp3610
g3608
ag3609
asba(iMeme
Meme
p3611
(dp3612
g3
(lp3613
S'in'
p3614
aS'assay'
p3615
aS'of'
p3616
aS'blueveinedthrobber'
p3617
ag182
aS'find'
p3618
aS'bismuth'
p3619
asg11
S'in assay of blueveinedthrobber i find bismuth'
p3620
sg13
S' polonium'
p3621
sg15
Vscience-cat
p3622
sg17
(lp3623
g3614
ag3615
ag3616
ag3617
ag182
ag3618
ag3619
aS'polonium'
p3624
asg21
(lp3625
g3624
asba(iMeme
Meme
p3626
(dp3627
g3
(lp3628
S'einstein'
p3629
ag1670
aS'dont'
p3630
aS'worry'
p3631
aS'about'
p3632
aS'your'
p3633
aS'difficulties'
p3634
aS'in'
p3635
aS'maths'
p3636
asg11
S'einstein: dont worry about your difficulties in maths'
p3637
sg13
S' i assure you that mine are greater'
p3638
sg15
Vscience-cat
p3639
sg17
(lp3640
g3629
ag1670
ag3630
ag3631
ag3632
ag3633
ag3634
ag3635
ag3636
ag182
aS'assure'
p3641
aS'you'
p3642
aS'that'
p3643
aS'mine'
p3644
aS'are'
p3645
aS'greater'
p3646
asg21
(lp3647
g182
ag3641
ag3642
ag3643
ag3644
ag3645
ag3646
asba(iMeme
Meme
p3648
(dp3649
g3
(lp3650
S'oh'
p3651
aS'good'
p3652
asg11
S'oh good'
p3653
sg13
S' the meth is almost done'
p3654
sg15
Vscience-cat
p3655
sg17
(lp3656
g3651
ag3652
aS'the'
p3657
aS'meth'
p3658
aS'is'
p3659
aS'almost'
p3660
aS'done'
p3661
asg21
(lp3662
g3657
ag3658
ag3659
ag3660
ag3661
asba(iMeme
Meme
p3663
(dp3664
g3
(lp3665
S'why'
p3666
aS'dont'
p3667
ag182
aS'use'
p3668
aS'molarity'
p3669
aS'to'
p3670
aS'express'
p3671
aS'the'
p3672
aS'concentration'
p3673
aS'of'
p3674
aS'sulfuric'
p3675
aS'acid'
p3676
ag54
asg11
S'why dont i use molarity to express the concentration of sulfuric acid?'
p3677
sg13
S' that would be 2 normal.'
p3678
sg15
Vscience-cat
p3679
sg17
(lp3680
g3666
ag3667
ag182
ag3668
ag3669
ag3670
ag3671
ag3672
ag3673
ag3674
ag3675
ag3676
ag54
aS'that'
p3681
aS'would'
p3682
aS'be'
p3683
aS'2'
p3684
aS'normal'
p3685
ag111
asg21
(lp3686
g3681
ag3682
ag3683
ag3684
ag3685
ag111
asba(iMeme
Meme
p3687
(dp3688
g3
(lp3689
S'thepandaman'
p3690
asg11
S'thepandaman'
p3691
sg13
S' iidid my maths and were all good to go'
p3692
sg15
Vscience-cat
p3693
sg17
(lp3694
g3690
aS'iidid'
p3695
aS'my'
p3696
aS'maths'
p3697
aS'and'
p3698
aS'were'
p3699
aS'all'
p3700
aS'good'
p3701
aS'to'
p3702
aS'go'
p3703
asg21
(lp3704
g3695
ag3696
ag3697
ag3698
ag3699
ag3700
ag3701
ag3702
ag3703
asba(iMeme
Meme
p3705
(dp3706
g3
(lp3707
S'screw'
p3708
aS'you'
p3709
aS'chromium'
p3710
asg11
S'screw you chromium'
p3711
sg13
S' glamel toe is the hardest metal'
p3712
sg15
Vscience-cat
p3713
sg17
(lp3714
g3708
ag3709
ag3710
aS'glamel'
p3715
aS'toe'
p3716
aS'is'
p3717
aS'the'
p3718
aS'hardest'
p3719
aS'metal'
p3720
asg21
(lp3721
g3715
ag3716
ag3717
ag3718
ag3719
ag3720
asba(iMeme
Meme
p3722
(dp3723
g3
(lp3724
S'the'
p3725
aS'most'
p3726
aS'racist'
p3727
aS'group'
p3728
aS'of'
p3729
aS'fruit'
p3730
aS'three'
p3731
aS'bananas'
p3732
asg11
S'the most racist group of fruit three bananas'
p3733
sg13
S' kkk'
p3734
sg15
Vscience-cat
p3735
sg17
(lp3736
g3725
ag3726
ag3727
ag3728
ag3729
ag3730
ag3731
ag3732
aS'kkk'
p3737
asg21
(lp3738
g3737
asba(iMeme
Meme
p3739
(dp3740
g3
(lp3741
S'are'
p3742
aS'we'
p3743
aS'tired'
p3744
aS'of'
p3745
aS'these'
p3746
aS'crappy'
p3747
aS'jokes'
p3748
ag54
asg11
S'are we tired of these crappy jokes?'
p3749
sg13
S' hell ya'
p3750
sg15
Vscience-cat
p3751
sg17
(lp3752
g3742
ag3743
ag3744
ag3745
ag3746
ag3747
ag3748
ag54
aS'hell'
p3753
aS'ya'
p3754
asg21
(lp3755
g3753
ag3754
asba(iMeme
Meme
p3756
(dp3757
g3
(lp3758
S'wan'
p3759
aS'na'
p3760
aS'hear'
p3761
ag31
aS'joke'
p3762
aS'about'
p3763
aS'barium'
p3764
asg11
S'wanna hear a joke about barium'
p3765
sg13
S' cobalt and nitrogen?'
p3766
sg15
Vscience-cat
p3767
sg17
(lp3768
g3759
ag3760
ag3761
ag31
ag3762
ag3763
ag3764
aS'cobalt'
p3769
aS'and'
p3770
aS'nitrogen'
p3771
ag54
asg21
(lp3772
g3769
ag3770
ag3771
ag54
asba(iMeme
Meme
p3773
(dp3774
g3
(lp3775
S'anthony'
p3776
asg11
S'anthony'
p3777
sg13
S' shawn sucks amber cole crock'
p3778
sg15
Vscience-cat
p3779
sg17
(lp3780
g3776
aS'shawn'
p3781
aS'sucks'
p3782
aS'amber'
p3783
aS'cole'
p3784
aS'crock'
p3785
asg21
(lp3786
g3781
ag3782
ag3783
ag3784
ag3785
asba(iMeme
Meme
p3787
(dp3788
g3
(lp3789
S'can'
p3790
ag182
aS'make'
p3791
ag31
aS'joke'
p3792
aS'about'
p3793
aS'nobelium'
p3794
ag54
asg11
S'can i make a joke about nobelium?'
p3795
sg13
S' no'
p3796
sg15
Vscience-cat
p3797
sg17
(lp3798
g3790
ag182
ag3791
ag31
ag3792
ag3793
ag3794
ag54
aS'no'
p3799
asg21
(lp3800
g3799
asba(iMeme
Meme
p3801
(dp3802
g3
(lp3803
S'this'
p3804
aS'page'
p3805
aS'is'
p3806
aS'100'
p3807
aS'%'
p3808
aS'cobalt'
p3809
asg11
S'this page is 100% cobalt'
p3810
sg13
S' radon'
p3811
sg15
Vscience-cat
p3812
sg17
(lp3813
g3804
ag3805
ag3806
ag3807
ag3808
ag3809
aS'radon'
p3814
asg21
(lp3815
g3814
asba(iMeme
Meme
p3816
(dp3817
g3
(lp3818
S'what'
p3819
aS'would'
p3820
aS'you'
p3821
aS'call'
p3822
ag31
aS'clown'
p3823
aS'in'
p3824
aS'jail'
p3825
ag54
asg11
S'what would you call a clown in jail?'
p3826
sg13
S' a silly con. (silicon)'
p3827
sg15
Vscience-cat
p3828
sg17
(lp3829
g3819
ag3820
ag3821
ag3822
ag31
ag3823
ag3824
ag3825
ag54
ag31
aS'silly'
p3830
aS'con'
p3831
ag111
ag2209
aS'silicon'
p3832
ag2211
asg21
(lp3833
g31
ag3830
ag3831
ag111
ag2209
ag3832
ag2211
asba(iMeme
Meme
p3834
(dp3835
g3
(lp3836
S'mix'
p3837
aS'acid'
p3838
aS'and'
p3839
aS'base'
p3840
asg11
S'mix acid and base'
p3841
sg13
S' get new dance style'
p3842
sg15
Vscience-cat
p3843
sg17
(lp3844
g3837
ag3838
ag3839
ag3840
aS'get'
p3845
aS'new'
p3846
aS'dance'
p3847
aS'style'
p3848
asg21
(lp3849
g3845
ag3846
ag3847
ag3848
asba(iMeme
Meme
p3850
(dp3851
g3
(lp3852
S'studying'
p3853
aS'for'
p3854
aS'the'
p3855
aS'chemistry'
p3856
aS'test'
p3857
aS'tomorrow'
p3858
asg11
S'studying for the chemistry test tomorrow'
p3859
sg13
S' concentration= 0m'
p3860
sg15
Vscience-cat
p3861
sg17
(lp3862
g3853
ag3854
ag3855
ag3856
ag3857
ag3858
aS'concentration='
p3863
aS'0m'
p3864
asg21
(lp3865
g3863
ag3864
asba(iMeme
Meme
p3866
(dp3867
g3
(lp3868
S'which'
p3869
aS'element'
p3870
aS'encourages'
p3871
aS'exercise'
p3872
ag54
asg11
S'which element encourages exercise?'
p3873
sg13
S' nobelium'
p3874
sg15
Vscience-cat
p3875
sg17
(lp3876
g3869
ag3870
ag3871
ag3872
ag54
aS'nobelium'
p3877
asg21
(lp3878
g3877
asba(iMeme
Meme
p3879
(dp3880
g3
(lp3881
S'why'
p3882
aS'am'
p3883
ag182
aS'so'
p3884
aS'darn'
p3885
aS'cute'
p3886
ag54
asg11
S'why am i so darn cute?'
p3887
sg13
S' youre like an electron. cannot resist me.'
p3888
sg15
Vscience-cat
p3889
sg17
(lp3890
g3882
ag3883
ag182
ag3884
ag3885
ag3886
ag54
aS'youre'
p3891
aS'like'
p3892
aS'an'
p3893
aS'electron'
p3894
ag111
aS'can'
p3895
aS'not'
p3896
aS'resist'
p3897
aS'me'
p3898
ag111
asg21
(lp3899
g3891
ag3892
ag3893
ag3894
ag111
ag3895
ag3896
ag3897
ag3898
ag111
asba(iMeme
Meme
p3900
(dp3901
g3
(lp3902
S'okay'
p3903
aS'ifap'
p3904
aS'shut'
p3905
asg11
S'okay ifap shut'
p3906
sg13
S' im trying to teach lights something.'
p3907
sg15
Vscience-cat
p3908
sg17
(lp3909
g3903
ag3904
ag3905
aS'im'
p3910
aS'trying'
p3911
aS'to'
p3912
aS'teach'
p3913
aS'lights'
p3914
aS'something'
p3915
ag111
asg21
(lp3916
g3910
ag3911
ag3912
ag3913
ag3914
ag3915
ag111
asba(iMeme
Meme
p3917
(dp3918
g3
(lp3919
S'roman'
p3920
aS'numerals'
p3921
asg11
S'roman numerals'
p3922
sg13
S' is my middle name'
p3923
sg15
Vscience-cat
p3924
sg17
(lp3925
g3920
ag3921
aS'is'
p3926
aS'my'
p3927
aS'middle'
p3928
aS'name'
p3929
asg21
(lp3930
g3926
ag3927
ag3928
ag3929
asba(iMeme
Meme
p3931
(dp3932
g3
(lp3933
S'if'
p3934
aS'the'
p3935
aS'ancient'
p3936
aS'alien'
p3937
aS'guy'
p3938
aS'says'
p3939
aS'so'
p3940
asg11
S'if the ancient alien guy says so'
p3941
sg13
S' it must be so.'
p3942
sg15
Vscience-cat
p3943
sg17
(lp3944
g3934
ag3935
ag3936
ag3937
ag3938
ag3939
ag3940
aS'it'
p3945
aS'must'
p3946
aS'be'
p3947
aS'so'
p3948
ag111
asg21
(lp3949
g3945
ag3946
ag3947
ag3948
ag111
asba(iMeme
Meme
p3950
(dp3951
g3
(lp3952
S'daddy'
p3953
ag1669
ag1670
aS'what'
p3954
aS'is'
p3955
aS'the'
p3956
aS'period'
p3957
aS'name'
p3958
aS'of'
p3959
aS'banana'
p3960
ag54
asg11
S'daddy d: what is the period name of banana?'
p3961
sg13
S' bana2'
p3962
sg15
Vscience-cat
p3963
sg17
(lp3964
g3953
ag1669
ag1670
ag3954
ag3955
ag3956
ag3957
ag3958
ag3959
ag3960
ag54
aS'bana2'
p3965
asg21
(lp3966
g3965
asba(iMeme
Meme
p3967
(dp3968
g3
(lp3969
S'its'
p3970
aS'science'
p3971
asg11
S'its science'
p3972
sg13
S' mr. white'
p3973
sg15
Vscience-cat
p3974
sg17
(lp3975
g3970
ag3971
aS'mr'
p3976
ag111
aS'white'
p3977
asg21
(lp3978
g3976
ag111
ag3977
asba(iMeme
Meme
p3979
(dp3980
g3
(lp3981
S'do'
p3982
aS'you'
p3983
aS'know'
p3984
aS'who'
p3985
aS'my'
p3986
aS'favorite'
p3987
aS'rapper'
p3988
aS'is'
p3989
ag54
asg11
S'do you know who my favorite rapper is?'
p3990
sg13
S' ti'
p3991
sg15
Vscience-cat
p3992
sg17
(lp3993
g3982
ag3983
ag3984
ag3985
ag3986
ag3987
ag3988
ag3989
ag54
aS'ti'
p3994
asg21
(lp3995
g3994
asba(iMeme
Meme
p3996
(dp3997
g3
(lp3998
S'did'
p3999
aS'you'
p4000
aS'notice'
p4001
asg11
S'did you notice'
p4002
sg13
S' the mice and cheese drawings behind me?'
p4003
sg15
Vscience-cat
p4004
sg17
(lp4005
g3999
ag4000
ag4001
aS'the'
p4006
aS'mice'
p4007
aS'and'
p4008
aS'cheese'
p4009
aS'drawings'
p4010
aS'behind'
p4011
aS'me'
p4012
ag54
asg21
(lp4013
g4006
ag4007
ag4008
ag4009
ag4010
ag4011
ag4012
ag54
asba(iMeme
Meme
p4014
(dp4015
g3
(lp4016
S'it'
p4017
aS'is'
p4018
aS'quite'
p4019
aS'simple'
p4020
aS'really'
p4021
ag111
ag111
ag111
asg11
S'it is quite simple really . . .'
p4022
sg13
S' mustangs are for pussys.'
p4023
sg15
Vscience-cat
p4024
sg17
(lp4025
g4017
ag4018
ag4019
ag4020
ag4021
ag111
ag111
ag111
aS'mustangs'
p4026
aS'are'
p4027
aS'for'
p4028
aS'pussys'
p4029
ag111
asg21
(lp4030
g4026
ag4027
ag4028
ag4029
ag111
asba(iMeme
Meme
p4031
(dp4032
g3
(lp4033
S'wan'
p4034
aS'na'
p4035
aS'hear'
p4036
aS'joke'
p4037
aS'about'
p4038
aS'nobelium'
p4039
asg11
S'wanna hear joke about nobelium'
p4040
sg13
S' no'
p4041
sg15
Vscience-cat
p4042
sg17
(lp4043
g4034
ag4035
ag4036
ag4037
ag4038
ag4039
aS'no'
p4044
asg21
(lp4045
g4044
asba(iMeme
Meme
p4046
(dp4047
g3
(lp4048
S'anions'
p4049
aS'arent'
p4050
aS'negative'
p4051
asg11
S'anions arent negative'
p4052
sg13
S' theyre just misunderstood'
p4053
sg15
Vscience-cat
p4054
sg17
(lp4055
g4049
ag4050
ag4051
aS'theyre'
p4056
aS'just'
p4057
aS'misunderstood'
p4058
asg21
(lp4059
g4056
ag4057
ag4058
asba(iMeme
Meme
p4060
(dp4061
g3
(lp4062
S'if'
p4063
aS'you'
p4064
aS'cant'
p4065
aS'helium'
p4066
aS'or'
p4067
aS'curium'
p4068
asg11
S'if you cant helium or curium'
p4069
sg13
S' then barium'
p4070
sg15
Vscience-cat
p4071
sg17
(lp4072
g4063
ag4064
ag4065
ag4066
ag4067
ag4068
aS'then'
p4073
aS'barium'
p4074
asg21
(lp4075
g4073
ag4074
asba(iMeme
Meme
p4076
(dp4077
g3
(lp4078
g182
aS'tried'
p4079
aS'to'
p4080
aS'make'
p4081
ag31
aS'science'
p4082
aS'joke'
p4083
asg11
S'i  tried to make a science joke'
p4084
sg13
S' but all the good ones'
p4085
sg15
Vscience-cat
p4086
sg17
(lp4087
g182
ag4079
ag4080
ag4081
ag31
ag4082
ag4083
aS'but'
p4088
aS'all'
p4089
aS'the'
p4090
aS'good'
p4091
aS'ones'
p4092
asg21
(lp4093
g4088
ag4089
ag4090
ag4091
ag4092
asba(iMeme
Meme
p4094
(dp4095
g3
(lp4096
S'en'
p4097
aS'estos'
p4098
aS'desafortunados'
p4099
aS'momentos'
p4100
asg11
S'en estos desafortunados momentos'
p4101
sg13
S' lo que hay que tener es'
p4102
sg15
Vscience-cat
p4103
sg17
(lp4104
g4097
ag4098
ag4099
ag4100
aS'lo'
p4105
aS'que'
p4106
aS'hay'
p4107
aS'que'
p4108
aS'tener'
p4109
aS'es'
p4110
asg21
(lp4111
g4105
ag4106
ag4107
ag4108
ag4109
ag4110
asba(iMeme
Meme
p4112
(dp4113
g3
(lp4114
S'thanks'
p4115
aS'for'
p4116
aS'attention'
p4117
asg11
S'thanks for attention'
p4118
sg13
S' by: gas mulia team'
p4119
sg15
Vscience-cat
p4120
sg17
(lp4121
g4115
ag4116
ag4117
aS'by'
p4122
ag1670
aS'gas'
p4123
aS'mulia'
p4124
aS'team'
p4125
asg21
(lp4126
g4122
ag1670
ag4123
ag4124
ag4125
asba(iMeme
Meme
p4127
(dp4128
g3
(lp4129
S'thanks'
p4130
aS'for'
p4131
aS'attention'
p4132
asg11
S'thanks for attention'
p4133
sg13
S' by: noble gases team'
p4134
sg15
Vscience-cat
p4135
sg17
(lp4136
g4130
ag4131
ag4132
aS'by'
p4137
ag1670
aS'noble'
p4138
aS'gases'
p4139
aS'team'
p4140
asg21
(lp4141
g4137
ag1670
ag4138
ag4139
ag4140
asba(iMeme
Meme
p4142
(dp4143
g3
(lp4144
S'well'
p4145
aS'my'
p4146
aS'favourite'
p4147
aS'cartoon'
p4148
aS'is'
p4149
aS'sn'
p4150
aS'sn'
p4151
asg11
S'well my favourite cartoon is sn sn'
p4152
sg13
S''
p4153
sg15
Vscience-cat
p4154
sg17
(lp4155
g4145
ag4146
ag4147
ag4148
ag4149
ag4150
ag4151
asg21
(lp4156
sba(iMeme
Meme
p4157
(dp4158
g3
(lp4159
S'*tells'
p4160
aS'helium'
p4161
aS'joke'
p4162
aS'twice*'
p4163
asg11
S'*tells helium joke twice*'
p4164
sg13
S' he he'
p4165
sg15
Vscience-cat
p4166
sg17
(lp4167
g4160
ag4161
ag4162
ag4163
aS'he'
p4168
aS'he'
p4169
asg21
(lp4170
g4168
ag4169
asba(iMeme
Meme
p4171
(dp4172
g3
(lp4173
S'roses'
p4174
aS'are'
p4175
aS'red'
p4176
asg11
S'roses are red'
p4177
sg13
S' violets are blue'
p4178
sg15
Vscience-cat
p4179
sg17
(lp4180
g4174
ag4175
ag4176
aS'violets'
p4181
aS'are'
p4182
aS'blue'
p4183
asg21
(lp4184
g4181
ag4182
ag4183
asba(iMeme
Meme
p4185
(dp4186
g3
(lp4187
S'you'
p4188
aS'know'
p4189
aS'what'
p4190
aS'my'
p4191
aS'least'
p4192
aS'favorite'
p4193
aS'element'
p4194
aS'is'
p4195
ag54
asg11
S'you know what my least favorite element is?'
p4196
sg13
S' u'
p4197
sg15
Vscience-cat
p4198
sg17
(lp4199
g4188
ag4189
ag4190
ag4191
ag4192
ag4193
ag4194
ag4195
ag54
ag1255
asg21
(lp4200
g1255
asba(iMeme
Meme
p4201
(dp4202
g3
(lp4203
S'what'
p4204
aS'have'
p4205
aS'you'
p4206
aS'done'
p4207
aS'today'
p4208
asg11
S'what have you done today'
p4209
sg13
S' to beat isis?'
p4210
sg15
Vscience-cat
p4211
sg17
(lp4212
g4204
ag4205
ag4206
ag4207
ag4208
aS'to'
p4213
aS'beat'
p4214
aS'isis'
p4215
ag54
asg21
(lp4216
g4213
ag4214
ag4215
ag54
asba(iMeme
Meme
p4217
(dp4218
g3
(lp4219
S'bad'
p4220
aS'chemistry'
p4221
aS'puns'
p4222
ag54
asg11
S'bad chemistry puns?'
p4223
sg13
S' it was a noble effort'
p4224
sg15
Vscience-cat
p4225
sg17
(lp4226
g4220
ag4221
ag4222
ag54
aS'it'
p4227
aS'was'
p4228
ag31
aS'noble'
p4229
aS'effort'
p4230
asg21
(lp4231
g4227
ag4228
ag31
ag4229
ag4230
asba(iMeme
Meme
p4232
(dp4233
g3
(lp4234
S'trolling'
p4235
asg11
S'trolling'
p4236
sg13
S' lets make something ;d'
p4237
sg15
Vscience-cat
p4238
sg17
(lp4239
g4235
aS'lets'
p4240
aS'make'
p4241
aS'something'
p4242
aS';'
p4243
ag1669
asg21
(lp4244
g4240
ag4241
ag4242
ag4243
ag1669
asba(iMeme
Meme
p4245
(dp4246
g3
(lp4247
S'now'
p4248
aS'ill'
p4249
aS'pour'
p4250
aS'this'
p4251
aS'beaker'
p4252
aS'of'
p4253
aS'hcl'
p4254
asg11
S'now ill pour this beaker of hcl'
p4255
sg13
S' oh god i have no thumbs it slipped and shattered theres glass everywhere my skin is burnin'
p4256
sg15
Vscience-cat
p4257
sg17
(lp4258
g4248
ag4249
ag4250
ag4251
ag4252
ag4253
ag4254
aS'oh'
p4259
aS'god'
p4260
ag182
aS'have'
p4261
aS'no'
p4262
aS'thumbs'
p4263
aS'it'
p4264
aS'slipped'
p4265
aS'and'
p4266
aS'shattered'
p4267
aS'theres'
p4268
aS'glass'
p4269
aS'everywhere'
p4270
aS'my'
p4271
aS'skin'
p4272
aS'is'
p4273
aS'burnin'
p4274
asg21
(lp4275
g4259
ag4260
ag182
ag4261
ag4262
ag4263
ag4264
ag4265
ag4266
ag4267
ag4268
ag4269
ag4270
ag4271
ag4272
ag4273
ag4274
asba(iMeme
Meme
p4276
(dp4277
g3
(lp4278
S'what'
p4279
aS'do'
p4280
aS'you'
p4281
aS'say'
p4282
aS'to'
p4283
aS'catch'
p4284
aS'the'
p4285
aS'attention'
p4286
aS'of'
p4287
aS'someone'
p4288
aS'with'
p4289
aS'gold'
p4290
ag54
asg11
S'what do you say to catch the attention of someone with gold?'
p4291
sg13
S' au'
p4292
sg15
Vscience-cat
p4293
sg17
(lp4294
g4279
ag4280
ag4281
ag4282
ag4283
ag4284
ag4285
ag4286
ag4287
ag4288
ag4289
ag4290
ag54
aS'au'
p4295
asg21
(lp4296
g4295
asba(iMeme
Meme
p4297
(dp4298
g3
(lp4299
S'theme'
p4300
aS'songs'
p4301
aS'with'
p4302
aS'chemistry'
p4303
ag54
asg11
S'theme songs with chemistry?'
p4304
sg13
S' sodium'
p4305
sg15
Vscience-cat
p4306
sg17
(lp4307
g4300
ag4301
ag4302
ag4303
ag54
aS'sodium'
p4308
asg21
(lp4309
g4308
asba(iMeme
Meme
p4310
(dp4311
g3
(lp4312
S'you'
p4313
aS'should'
p4314
aS'troll'
p4315
aS'with'
p4316
aS'me'
p4317
aS'sometime'
p4318
asg11
S'you should troll with me sometime'
p4319
sg13
S' i sense some real chemistry between us'
p4320
sg15
Vscience-cat
p4321
sg17
(lp4322
g4313
ag4314
ag4315
ag4316
ag4317
ag4318
ag182
aS'sense'
p4323
aS'some'
p4324
aS'real'
p4325
aS'chemistry'
p4326
aS'between'
p4327
aS'us'
p4328
asg21
(lp4329
g182
ag4323
ag4324
ag4325
ag4326
ag4327
ag4328
asba(iMeme
Meme
p4330
(dp4331
g3
(lp4332
S'hydrogen'
p4333
aS'bonding'
p4334
ag54
asg11
S'hydrogen bonding?'
p4335
sg13
S' its so fon!'
p4336
sg15
Vscience-cat
p4337
sg17
(lp4338
g4333
ag4334
ag54
aS'its'
p4339
aS'so'
p4340
aS'fon'
p4341
ag10
asg21
(lp4342
g4339
ag4340
ag4341
ag10
asba(iMeme
Meme
p4343
(dp4344
g3
(lp4345
S'what'
p4346
aS'do'
p4347
aS'you'
p4348
aS'call'
p4349
ag31
aS'positively'
p4350
aS'charged'
p4351
aS'kitten'
p4352
ag54
asg11
S'what do you call a positively charged kitten?'
p4353
sg13
S' a cation'
p4354
sg15
Vscience-cat
p4355
sg17
(lp4356
g4346
ag4347
ag4348
ag4349
ag31
ag4350
ag4351
ag4352
ag54
ag31
aS'cation'
p4357
asg21
(lp4358
g31
ag4357
asba(iMeme
Meme
p4359
(dp4360
g3
(lp4361
S'argon'
p4362
aS'walks'
p4363
aS'into'
p4364
ag31
aS'bar'
p4365
ag111
aS'barkeep'
p4366
aS'says'
p4367
aS'get'
p4368
aS'out'
p4369
ag111
asg11
S'argon walks into a bar. barkeep says get out.'
p4370
sg13
S' argon doesnt react.'
p4371
sg15
Vscience-cat
p4372
sg17
(lp4373
g4362
ag4363
ag4364
ag31
ag4365
ag111
ag4366
ag4367
ag4368
ag4369
ag111
aS'argon'
p4374
aS'doesnt'
p4375
aS'react'
p4376
ag111
asg21
(lp4377
g4374
ag4375
ag4376
ag111
asba(iMeme
Meme
p4378
(dp4379
g3
(lp4380
S'well'
p4381
asg11
S'well'
p4382
sg13
S' that wasnt gay'
p4383
sg15
Vscience-cat
p4384
sg17
(lp4385
g4381
aS'that'
p4386
aS'wasnt'
p4387
aS'gay'
p4388
asg21
(lp4389
g4386
ag4387
ag4388
asba(iMeme
Meme
p4390
(dp4391
g3
(lp4392
S'so'
p4393
aS'you'
p4394
aS'are'
p4395
aS'the'
p4396
aS'destroyer'
p4397
aS'of'
p4398
aS'threads'
p4399
aS'now'
p4400
asg11
S'so you are the destroyer of threads now'
p4401
sg13
S' timon?'
p4402
sg15
Vscience-cat
p4403
sg17
(lp4404
g4393
ag4394
ag4395
ag4396
ag4397
ag4398
ag4399
ag4400
aS'timon'
p4405
ag54
asg21
(lp4406
g4405
ag54
asba(iMeme
Meme
p4407
(dp4408
g3
(lp4409
S'abreviation'
p4410
aS'for'
p4411
aS'copper'
p4412
aS'nanotube'
p4413
ag54
asg11
S'abreviation for copper nanotube?'
p4414
sg13
S' cunt'
p4415
sg15
Vscience-cat
p4416
sg17
(lp4417
g4410
ag4411
ag4412
ag4413
ag54
aS'cunt'
p4418
asg21
(lp4419
g4418
asba(iMeme
Meme
p4420
(dp4421
g3
(lp4422
S'want'
p4423
aS'to'
p4424
aS'hear'
p4425
ag31
aS'joke'
p4426
aS'about'
p4427
aS'arsenic'
p4428
aS'and'
p4429
aS'sulfur'
p4430
ag54
asg11
S'want to hear a joke about arsenic and sulfur?'
p4431
sg13
S' ass'
p4432
sg15
Vscience-cat
p4433
sg17
(lp4434
g4423
ag4424
ag4425
ag31
ag4426
ag4427
ag4428
ag4429
ag4430
ag54
aS'ass'
p4435
asg21
(lp4436
g4435
asba(iMeme
Meme
p4437
(dp4438
g3
(lp4439
S'want'
p4440
aS'to'
p4441
aS'hear'
p4442
ag31
aS'spanish'
p4443
aS'joke'
p4444
aS'about'
p4445
aS'silicon'
p4446
ag54
asg11
S'want to hear a spanish joke about silicon?'
p4447
sg13
S' si'
p4448
sg15
Vscience-cat
p4449
sg17
(lp4450
g4440
ag4441
ag4442
ag31
ag4443
ag4444
ag4445
ag4446
ag54
aS'si'
p4451
asg21
(lp4452
g4451
asba(iMeme
Meme
p4453
(dp4454
g3
(lp4455
g31
aS'funny'
p4456
aS'gaz'
p4457
ag54
asg11
S'a funny gaz ?'
p4458
sg13
S' he  he he'
p4459
sg15
Vscience-cat
p4460
sg17
(lp4461
g31
ag4456
ag4457
ag54
aS'he'
p4462
aS'he'
p4463
aS'he'
p4464
asg21
(lp4465
g4462
ag4463
ag4464
asba(iMeme
Meme
p4466
(dp4467
g3
(lp4468
S'this'
p4469
aS'shit'
p4470
aS'is'
p4471
aS'barium'
p4472
aS'sodium'
p4473
aS'sodium'
p4474
aS'sulfur'
p4475
asg11
S'this shit is barium sodium sodium sulfur'
p4476
sg13
S' ba na na s'
p4477
sg15
Vscience-cat
p4478
sg17
(lp4479
g4469
ag4470
ag4471
ag4472
ag4473
ag4474
ag4475
aS'ba'
p4480
aS'na'
p4481
aS'na'
p4482
aS's'
p4483
asg21
(lp4484
g4480
ag4481
ag4482
ag4483
asba(iMeme
Meme
p4485
(dp4486
g3
(lp4487
S'wan'
p4488
aS'na'
p4489
aS'hear'
p4490
ag31
aS'joke'
p4491
aS'about'
p4492
aS'carbon'
p4493
aS'and'
p4494
aS'astatine'
p4495
asg11
S'wanna hear a joke about carbon and astatine'
p4496
sg13
S' cat'
p4497
sg15
Vscience-cat
p4498
sg17
(lp4499
g4488
ag4489
ag4490
ag31
ag4491
ag4492
ag4493
ag4494
ag4495
aS'cat'
p4500
asg21
(lp4501
g4500
asba(iMeme
Meme
p4502
(dp4503
g3
(lp4504
S'what'
p4505
aS'do'
p4506
aS'you'
p4507
aS'get'
p4508
aS'when'
p4509
aS'you'
p4510
aS'cross'
p4511
ag31
aS'mountain'
p4512
aS'climber'
p4513
aS'and'
p4514
ag31
aS'mosquito'
p4515
ag54
asg11
S'what do you get when you cross a mountain climber and a mosquito?'
p4516
sg13
S' you cant cross a scalar with a vector dummy.'
p4517
sg15
Vscience-cat
p4518
sg17
(lp4519
g4505
ag4506
ag4507
ag4508
ag4509
ag4510
ag4511
ag31
ag4512
ag4513
ag4514
ag31
ag4515
ag54
aS'you'
p4520
aS'cant'
p4521
aS'cross'
p4522
ag31
aS'scalar'
p4523
aS'with'
p4524
ag31
aS'vector'
p4525
aS'dummy'
p4526
ag111
asg21
(lp4527
g4520
ag4521
ag4522
ag31
ag4523
ag4524
ag31
ag4525
ag4526
ag111
asba(iMeme
Meme
p4528
(dp4529
g3
(lp4530
S'chemistry'
p4531
aS'puns'
p4532
asg11
S'chemistry puns'
p4533
sg13
S' shure are phun'
p4534
sg15
Vscience-cat
p4535
sg17
(lp4536
g4531
ag4532
aS'shure'
p4537
aS'are'
p4538
aS'phun'
p4539
asg21
(lp4540
g4537
ag4538
ag4539
asba(iMeme
Meme
p4541
(dp4542
g3
(lp4543
S'liebe'
p4544
aS'bertha'
p4545
asg11
S'liebe bertha'
p4546
sg13
S' bitte comm'
p4547
sg15
Vscience-cat
p4548
sg17
(lp4549
g4544
ag4545
aS'bitte'
p4550
aS'comm'
p4551
asg21
(lp4552
g4550
ag4551
asba(iMeme
Meme
p4553
(dp4554
g3
(lp4555
S'im'
p4556
ag31
aS'fucking'
p4557
aS'cat'
p4558
asg11
S'im a fucking cat'
p4559
sg13
S' & i still make less math errors than you'
p4560
sg15
Vscience-cat
p4561
sg17
(lp4562
g4556
ag31
ag4557
ag4558
ag3252
ag182
aS'still'
p4563
aS'make'
p4564
aS'less'
p4565
aS'math'
p4566
aS'errors'
p4567
aS'than'
p4568
aS'you'
p4569
asg21
(lp4570
g3252
ag182
ag4563
ag4564
ag4565
ag4566
ag4567
ag4568
ag4569
asba(iMeme
Meme
p4571
(dp4572
g3
(lp4573
S'want'
p4574
aS'to'
p4575
aS'hear'
p4576
ag31
aS'joke'
p4577
aS'about'
p4578
aS'potassium'
p4579
ag54
asg11
S'want to hear a joke about potassium?'
p4580
sg13
S' k'
p4581
sg15
Vscience-cat
p4582
sg17
(lp4583
g4574
ag4575
ag4576
ag31
ag4577
ag4578
ag4579
ag54
ag737
asg21
(lp4584
g737
asba(iMeme
Meme
p4585
(dp4586
g3
(lp4587
S'the'
p4588
aS'names'
p4589
aS'bond'
p4590
asg11
S'the names bond'
p4591
sg13
S' metallic bond'
p4592
sg15
Vscience-cat
p4593
sg17
(lp4594
g4588
ag4589
ag4590
aS'metallic'
p4595
aS'bond'
p4596
asg21
(lp4597
g4595
ag4596
asba(iMeme
Meme
p4598
(dp4599
g3
(lp4600
S'chemistry'
p4601
aS'cat'
p4602
aS'says:'
p4603
asg11
S'chemistry cat says:'
p4604
sg13
S' happy birthday big sis!!!!'
p4605
sg15
Vscience-cat
p4606
sg17
(lp4607
g4601
ag4602
ag4603
aS'happy'
p4608
aS'birthday'
p4609
aS'big'
p4610
aS'sis'
p4611
ag10
ag10
ag10
ag10
asg21
(lp4612
g4608
ag4609
ag4610
ag4611
ag10
ag10
ag10
ag10
asba(iMeme
Meme
p4613
(dp4614
g3
(lp4615
S'hate'
p4616
aS'me'
p4617
ag111
asg11
S'hate me.'
p4618
sg13
S' im the one who invented homework.'
p4619
sg15
Vscience-cat
p4620
sg17
(lp4621
g4616
ag4617
ag111
aS'im'
p4622
aS'the'
p4623
aS'one'
p4624
aS'who'
p4625
aS'invented'
p4626
aS'homework'
p4627
ag111
asg21
(lp4628
g4622
ag4623
ag4624
ag4625
ag4626
ag4627
ag111
asba(iMeme
Meme
p4629
(dp4630
g3
(lp4631
S'had'
p4632
ag31
aS'mouse'
p4633
aS'for'
p4634
aS'lunch'
p4635
asg11
S'had a mouse for lunch'
p4636
sg13
S' pepto bismol'
p4637
sg15
Vscience-cat
p4638
sg17
(lp4639
g4632
ag31
ag4633
ag4634
ag4635
aS'pepto'
p4640
aS'bismol'
p4641
asg21
(lp4642
g4640
ag4641
asba(iMeme
Meme
p4643
(dp4644
g3
(lp4645
S'they'
p4646
aS'laughed'
p4647
aS'at'
p4648
aS'me'
p4649
ag10
asg11
S'they laughed at me!'
p4650
sg13
S' i resisted the idea of resistance'
p4651
sg15
Vscience-cat
p4652
sg17
(lp4653
g4646
ag4647
ag4648
ag4649
ag10
ag182
aS'resisted'
p4654
aS'the'
p4655
aS'idea'
p4656
aS'of'
p4657
aS'resistance'
p4658
asg21
(lp4659
g182
ag4654
ag4655
ag4656
ag4657
ag4658
asba(iMeme
Meme
p4660
(dp4661
g3
(lp4662
S'im'
p4663
aS'always'
p4664
aS'down'
p4665
aS'with'
p4666
ag31
aS'little'
p4667
ag4483
ag3252
aS'm'
p4668
asg11
S'im always down with a little s&m'
p4669
sg13
S' samarium that is!!!'
p4670
sg15
Vscience-cat
p4671
sg17
(lp4672
g4663
ag4664
ag4665
ag4666
ag31
ag4667
ag4483
ag3252
ag4668
aS'samarium'
p4673
aS'that'
p4674
aS'is'
p4675
ag10
ag10
ag10
asg21
(lp4676
g4673
ag4674
ag4675
ag10
ag10
ag10
asba(iMeme
Meme
p4677
(dp4678
g3
(lp4679
S'why'
p4680
aS'is'
p4681
aS'my'
p4682
aS'bowtie'
p4683
aS'crooked'
p4684
asg11
S'why is my bowtie crooked'
p4685
sg13
S' i dont know'
p4686
sg15
Vscience-cat
p4687
sg17
(lp4688
g4680
ag4681
ag4682
ag4683
ag4684
ag182
aS'dont'
p4689
aS'know'
p4690
asg21
(lp4691
g182
ag4689
ag4690
asba(iMeme
Meme
p4692
(dp4693
g3
(lp4694
S'hydroxide'
p4695
aS'oh'
p4696
asg11
S'hydroxide  oh'
p4697
sg13
S' the element of surprise'
p4698
sg15
Vscience-cat
p4699
sg17
(lp4700
g4695
ag4696
aS'the'
p4701
aS'element'
p4702
aS'of'
p4703
aS'surprise'
p4704
asg21
(lp4705
g4701
ag4702
ag4703
ag4704
asba(iMeme
Meme
p4706
(dp4707
g3
(lp4708
S'came'
p4709
aS'here'
p4710
aS'for'
p4711
ag31
aS'chemistry'
p4712
aS'joke'
p4713
ag54
asg11
S'came here for a chemistry joke?'
p4714
sg13
S' na'
p4715
sg15
Vscience-cat
p4716
sg17
(lp4717
g4709
ag4710
ag4711
ag31
ag4712
ag4713
ag54
aS'na'
p4718
asg21
(lp4719
g4718
asba(iMeme
Meme
p4720
(dp4721
g3
(lp4722
S'throughout'
p4723
aS'all'
p4724
aS'history'
p4725
ag3252
aS'science'
p4726
aS'combined'
p4727
ag182
aS'for'
p4728
aS'sure'
p4729
aS'know'
p4730
ag3560
aS'thing'
p4731
ag10
asg11
S'throughout all history & science combined i for sure know 1 thing!'
p4732
sg13
S' mike brown is a smart & sexy motherfucker!'
p4733
sg15
Vscience-cat
p4734
sg17
(lp4735
g4723
ag4724
ag4725
ag3252
ag4726
ag4727
ag182
ag4728
ag4729
ag4730
ag3560
ag4731
ag10
aS'mike'
p4736
aS'brown'
p4737
aS'is'
p4738
ag31
aS'smart'
p4739
ag3252
aS'sexy'
p4740
aS'motherfucker'
p4741
ag10
asg21
(lp4742
g4736
ag4737
ag4738
ag31
ag4739
ag3252
ag4740
ag4741
ag10
asba(iMeme
Meme
p4743
(dp4744
g3
(lp4745
S'are'
p4746
aS'you'
p4747
aS'made'
p4748
aS'of'
p4749
aS'copper'
p4750
aS'tellurium'
p4751
ag54
asg11
S'are you made of copper tellurium?'
p4752
sg13
S' because you are cute'
p4753
sg15
Vscience-cat
p4754
sg17
(lp4755
g4746
ag4747
ag4748
ag4749
ag4750
ag4751
ag54
aS'because'
p4756
aS'you'
p4757
aS'are'
p4758
aS'cute'
p4759
asg21
(lp4760
g4756
ag4757
ag4758
ag4759
asba(iMeme
Meme
p4761
(dp4762
g3
(lp4763
S'this'
p4764
aS'crystal'
p4765
aS'is'
p4766
aS'crazy'
p4767
aS'pure'
p4768
asg11
S'this crystal is crazy pure'
p4769
sg13
S' nyah'
p4770
sg15
Vscience-cat
p4771
sg17
(lp4772
g4764
ag4765
ag4766
ag4767
ag4768
aS'nyah'
p4773
asg21
(lp4774
g4773
asba(iMeme
Meme
p4775
(dp4776
g3
(lp4777
S'according'
p4778
aS'to'
p4779
aS'these'
p4780
aS'calculations'
p4781
asg11
S'according to these calculations'
p4782
sg13
S' youre a faggot'
p4783
sg15
Vscience-cat
p4784
sg17
(lp4785
g4778
ag4779
ag4780
ag4781
aS'youre'
p4786
ag31
aS'faggot'
p4787
asg21
(lp4788
g4786
ag31
ag4787
asba(iMeme
Meme
p4789
(dp4790
g3
(lp4791
g182
aS'got'
p4792
aS'4'
p4793
aS'solutions'
p4794
asg11
S'i got 4 solutions'
p4795
sg13
S' and a equilibrium constant aint one of them'
p4796
sg15
Vscience-cat
p4797
sg17
(lp4798
g182
ag4792
ag4793
ag4794
aS'and'
p4799
ag31
aS'equilibrium'
p4800
aS'constant'
p4801
aS'aint'
p4802
aS'one'
p4803
aS'of'
p4804
aS'them'
p4805
asg21
(lp4806
g4799
ag31
ag4800
ag4801
ag4802
ag4803
ag4804
ag4805
asba(iMeme
Meme
p4807
(dp4808
g3
(lp4809
S'hey'
p4810
aS'baby'
p4811
asg11
S'hey baby'
p4812
sg13
S' wanna make chemistry?'
p4813
sg15
Vscience-cat
p4814
sg17
(lp4815
g4810
ag4811
aS'wan'
p4816
aS'na'
p4817
aS'make'
p4818
aS'chemistry'
p4819
ag54
asg21
(lp4820
g4816
ag4817
ag4818
ag4819
ag54
asba(iMeme
Meme
p4821
(dp4822
g3
(lp4823
S'charlie'
p4824
aS'is'
p4825
ag31
aS'chemists'
p4826
aS'son'
p4827
aS'but'
p4828
aS'charlie'
p4829
aS'is'
p4830
aS'no'
p4831
aS'more'
p4832
asg11
S'charlie is a chemists son but charlie is no more'
p4833
sg13
S' cause what he thougt was h2o was h2so4'
p4834
sg15
Vscience-cat
p4835
sg17
(lp4836
g4824
ag4825
ag31
ag4826
ag4827
ag4828
ag4829
ag4830
ag4831
ag4832
aS'cause'
p4837
aS'what'
p4838
aS'he'
p4839
aS'thougt'
p4840
aS'was'
p4841
aS'h2o'
p4842
aS'was'
p4843
aS'h2so4'
p4844
asg21
(lp4845
g4837
ag4838
ag4839
ag4840
ag4841
ag4842
ag4843
ag4844
asba(iMeme
Meme
p4846
(dp4847
g3
(lp4848
S'are'
p4849
aS'you'
p4850
aS'straight'
p4851
asg11
S'are you straight'
p4852
sg13
S' gay or bi?'
p4853
sg15
Vscience-cat
p4854
sg17
(lp4855
g4849
ag4850
ag4851
aS'gay'
p4856
aS'or'
p4857
aS'bi'
p4858
ag54
asg21
(lp4859
g4856
ag4857
ag4858
ag54
asba(iMeme
Meme
p4860
(dp4861
g3
(lp4862
S'happy'
p4863
aS'birthday'
p4864
asg11
S'happy birthday'
p4865
sg13
S' ian and/or slayer'
p4866
sg15
Vscience-cat
p4867
sg17
(lp4868
g4863
ag4864
aS'ian'
p4869
aS'and/or'
p4870
aS'slayer'
p4871
asg21
(lp4872
g4869
ag4870
ag4871
asba(iMeme
Meme
p4873
(dp4874
g3
(lp4875
S'are'
p4876
aS'there'
p4877
aS'any'
p4878
aS'good'
p4879
aS'jokes'
p4880
aS'about'
p4881
aS'sodium'
p4882
ag54
asg11
S'are there any good jokes about sodium?'
p4883
sg13
S' na.'
p4884
sg15
Vscience-cat
p4885
sg17
(lp4886
g4876
ag4877
ag4878
ag4879
ag4880
ag4881
ag4882
ag54
aS'na'
p4887
ag111
asg21
(lp4888
g4887
ag111
asba(iMeme
Meme
p4889
(dp4890
g3
(lp4891
S'how'
p4892
aS'do'
p4893
ag182
aS'know'
p4894
aS'that'
p4895
aS'mike'
p4896
aS'is'
p4897
aS'gay'
p4898
ag54
asg11
S'how do i know that mike is gay?'
p4899
sg13
S' just cuz.'
p4900
sg15
Vscience-cat
p4901
sg17
(lp4902
g4892
ag4893
ag182
ag4894
ag4895
ag4896
ag4897
ag4898
ag54
aS'just'
p4903
aS'cuz'
p4904
ag111
asg21
(lp4905
g4903
ag4904
ag111
asba(iMeme
Meme
p4906
(dp4907
g3
(lp4908
g182
aS'could'
p4909
aS'tell'
p4910
aS'you'
p4911
aS'about'
p4912
aS'lithium'
p4913
ag111
asg11
S'i could tell you about lithium.'
p4914
sg13
S' .but it would be a li'
p4915
sg15
Vscience-cat
p4916
sg17
(lp4917
g182
ag4909
ag4910
ag4911
ag4912
ag4913
ag111
aS'.but'
p4918
aS'it'
p4919
aS'would'
p4920
aS'be'
p4921
ag31
aS'li'
p4922
asg21
(lp4923
g4918
ag4919
ag4920
ag4921
ag31
ag4922
asba(iMeme
Meme
p4924
(dp4925
g3
(lp4926
S'hey'
p4927
aS'you'
p4928
aS'wan'
p4929
aS'na'
p4930
aS'here'
p4931
ag31
aS'joke'
p4932
aS'about'
p4933
aS'covalent'
p4934
aS'bonds'
p4935
ag54
asg11
S'hey you wanna here a joke about covalent bonds?'
p4936
sg13
S' no!!!!!'
p4937
sg15
Vscience-cat
p4938
sg17
(lp4939
g4927
ag4928
ag4929
ag4930
ag4931
ag31
ag4932
ag4933
ag4934
ag4935
ag54
aS'no'
p4940
ag10
ag10
ag10
ag10
ag10
asg21
(lp4941
g4940
ag10
ag10
ag10
ag10
ag10
asba(iMeme
Meme
p4942
(dp4943
g3
(lp4944
S'know'
p4945
aS'any'
p4946
aS'good'
p4947
aS'sodium'
p4948
aS'jokes'
p4949
ag54
asg11
S'know any good sodium jokes?'
p4950
sg13
S' na'
p4951
sg15
Vscience-cat
p4952
sg17
(lp4953
g4945
ag4946
ag4947
ag4948
ag4949
ag54
aS'na'
p4954
asg21
(lp4955
g4954
asba(iMeme
Meme
p4956
(dp4957
g3
(lp4958
S'the'
p4959
aS'names'
p4960
aS'bond'
p4961
ag111
asg11
S'the names bond.'
p4962
sg13
S' polar bond.'
p4963
sg15
Vscience-cat
p4964
sg17
(lp4965
g4959
ag4960
ag4961
ag111
aS'polar'
p4966
aS'bond'
p4967
ag111
asg21
(lp4968
g4966
ag4967
ag111
asba(iMeme
Meme
p4969
(dp4970
g3
(lp4971
S'wan'
p4972
aS'na'
p4973
aS'hear'
p4974
ag31
aS'spanish'
p4975
aS'joke'
p4976
aS'about'
p4977
aS'silicon'
p4978
ag54
asg11
S'wanna hear a spanish joke about silicon?'
p4979
sg13
S' si'
p4980
sg15
Vscience-cat
p4981
sg17
(lp4982
g4972
ag4973
ag4974
ag31
ag4975
ag4976
ag4977
ag4978
ag54
aS'si'
p4983
asg21
(lp4984
g4983
asba(iMeme
Meme
p4985
(dp4986
g3
(lp4987
g182
aS'would'
p4988
aS'never'
p4989
aS'try'
p4990
aS'to'
p4991
aS'poison'
p4992
aS'you'
p4993
asg11
S'i would never try to poison you'
p4994
sg13
S' now eat your pb and jelly sandwich'
p4995
sg15
Vscience-cat
p4996
sg17
(lp4997
g182
ag4988
ag4989
ag4990
ag4991
ag4992
ag4993
aS'now'
p4998
aS'eat'
p4999
aS'your'
p5000
aS'pb'
p5001
aS'and'
p5002
aS'jelly'
p5003
aS'sandwich'
p5004
asg21
(lp5005
g4998
ag4999
ag5000
ag5001
ag5002
ag5003
ag5004
asba(iMeme
Meme
p5006
(dp5007
g3
(lp5008
S'why'
p5009
aS'did'
p5010
aS'silver'
p5011
aS'think'
p5012
aS'he'
p5013
aS'should'
p5014
aS'be'
p5015
aS'at'
p5016
aS'the'
p5017
aS'top'
p5018
aS'of'
p5019
aS'the'
p5020
aS'activity'
p5021
aS'series'
p5022
ag54
asg11
S'why did silver think he should be at the top of the activity series?'
p5023
sg13
S' because hes ag'
p5024
sg15
Vscience-cat
p5025
sg17
(lp5026
g5009
ag5010
ag5011
ag5012
ag5013
ag5014
ag5015
ag5016
ag5017
ag5018
ag5019
ag5020
ag5021
ag5022
ag54
aS'because'
p5027
aS'hes'
p5028
aS'ag'
p5029
asg21
(lp5030
g5027
ag5028
ag5029
asba(iMeme
Meme
p5031
(dp5032
g3
(lp5033
S'your'
p5034
aS'girlfriend'
p5035
aS'is'
p5036
aS'hot'
p5037
ag54
asg11
S'your girlfriend is hot?'
p5038
sg13
S' bromine is hotter'
p5039
sg15
Vscience-cat
p5040
sg17
(lp5041
g5034
ag5035
ag5036
ag5037
ag54
aS'bromine'
p5042
aS'is'
p5043
aS'hotter'
p5044
asg21
(lp5045
g5042
ag5043
ag5044
asba(iMeme
Meme
p5046
(dp5047
g3
(lp5048
S'hey'
p5049
aS'you'
p5050
asg11
S'hey you'
p5051
sg13
S' shut up!'
p5052
sg15
Vscience-cat
p5053
sg17
(lp5054
g5049
ag5050
aS'shut'
p5055
aS'up'
p5056
ag10
asg21
(lp5057
g5055
ag5056
ag10
asba(iMeme
Meme
p5058
(dp5059
g3
(lp5060
S'who'
p5061
aS'said'
p5062
aS'we'
p5063
aS'could'
p5064
aS'hire'
p5065
asg11
S'who said we could hire'
p5066
sg13
S' business cat?'
p5067
sg15
Vscience-cat
p5068
sg17
(lp5069
g5061
ag5062
ag5063
ag5064
ag5065
aS'business'
p5070
aS'cat'
p5071
ag54
asg21
(lp5072
g5070
ag5071
ag54
asba(iMeme
Meme
p5073
(dp5074
g3
(lp5075
S'unionized'
p5076
asg11
S'unionized'
p5077
sg13
S' it has 4 syllables'
p5078
sg15
Vscience-cat
p5079
sg17
(lp5080
g5076
aS'it'
p5081
aS'has'
p5082
ag4793
aS'syllables'
p5083
asg21
(lp5084
g5081
ag5082
ag4793
ag5083
asba(iMeme
Meme
p5085
(dp5086
g3
(lp5087
S'are'
p5088
aS'you'
p5089
aS'made'
p5090
aS'of'
p5091
aS'copper'
p5092
aS'and'
p5093
aS'tellurium'
p5094
ag54
asg11
S'are you made of copper and tellurium?'
p5095
sg13
S' because you are cute'
p5096
sg15
Vscience-cat
p5097
sg17
(lp5098
g5088
ag5089
ag5090
ag5091
ag5092
ag5093
ag5094
ag54
aS'because'
p5099
aS'you'
p5100
aS'are'
p5101
aS'cute'
p5102
asg21
(lp5103
g5099
ag5100
ag5101
ag5102
asba(iMeme
Meme
p5104
(dp5105
g3
(lp5106
S'what'
p5107
aS'would'
p5108
aS'you'
p5109
aS'call'
p5110
ag31
aS'clown'
p5111
aS'in'
p5112
aS'jail'
p5113
ag54
asg11
S'what would you call a clown in jail?'
p5114
sg13
S' silicon'
p5115
sg15
Vscience-cat
p5116
sg17
(lp5117
g5107
ag5108
ag5109
ag5110
ag31
ag5111
ag5112
ag5113
ag54
aS'silicon'
p5118
asg21
(lp5119
g5118
asba(iMeme
Meme
p5120
(dp5121
g3
(lp5122
S'why'
p5123
aS'did'
p5124
aS'the'
p5125
aS'foolish'
p5126
aS'thief'
p5127
aS'go'
p5128
aS'to'
p5129
aS'jail'
p5130
asg11
S'why did the foolish thief go to jail'
p5131
sg13
S' because he was a silly con'
p5132
sg15
Vscience-cat
p5133
sg17
(lp5134
g5123
ag5124
ag5125
ag5126
ag5127
ag5128
ag5129
ag5130
aS'because'
p5135
aS'he'
p5136
aS'was'
p5137
ag31
aS'silly'
p5138
aS'con'
p5139
asg21
(lp5140
g5135
ag5136
ag5137
ag31
ag5138
ag5139
asba(iMeme
Meme
p5141
(dp5142
g3
(lp5143
g182
aS'would'
p5144
aS'like'
p5145
aS'to'
p5146
aS'make'
p5147
aS'another'
p5148
aS'chemistry'
p5149
aS'joke'
p5150
asg11
S'i would like to make another chemistry joke'
p5151
sg13
S' but all the good ones argon.'
p5152
sg15
Vscience-cat
p5153
sg17
(lp5154
g182
ag5144
ag5145
ag5146
ag5147
ag5148
ag5149
ag5150
aS'but'
p5155
aS'all'
p5156
aS'the'
p5157
aS'good'
p5158
aS'ones'
p5159
aS'argon'
p5160
ag111
asg21
(lp5161
g5155
ag5156
ag5157
ag5158
ag5159
ag5160
ag111
asba(iMeme
Meme
p5162
(dp5163
g3
(lp5164
S'hey'
p5165
aS'man'
p5166
asg11
S'hey man'
p5167
sg13
S' you got any sodium hypobromite?'
p5168
sg15
Vscience-cat
p5169
sg17
(lp5170
g5165
ag5166
aS'you'
p5171
aS'got'
p5172
aS'any'
p5173
aS'sodium'
p5174
aS'hypobromite'
p5175
ag54
asg21
(lp5176
g5171
ag5172
ag5173
ag5174
ag5175
ag54
asba(iMeme
Meme
p5177
(dp5178
g3
(lp5179
S'are'
p5180
aS'you'
p5181
aS'made'
p5182
aS'of'
p5183
aS'copper'
p5184
aS'and'
p5185
aS'tellurium'
p5186
ag54
asg11
S'are you made of copper and tellurium?'
p5187
sg13
S' because you are cu te'
p5188
sg15
Vscience-cat
p5189
sg17
(lp5190
g5180
ag5181
ag5182
ag5183
ag5184
ag5185
ag5186
ag54
aS'because'
p5191
aS'you'
p5192
aS'are'
p5193
aS'cu'
p5194
aS'te'
p5195
asg21
(lp5196
g5191
ag5192
ag5193
ag5194
ag5195
asba(iMeme
Meme
p5197
(dp5198
g3
(lp5199
S'the'
p5200
aS'task'
p5201
aS'was'
p5202
aS'to'
p5203
aS'evaluate'
p5204
aS'angle'
p5205
ag111
asg11
S'the task was to evaluate angle.'
p5206
sg13
S' i chose radian measure.'
p5207
sg15
Vscience-cat
p5208
sg17
(lp5209
g5200
ag5201
ag5202
ag5203
ag5204
ag5205
ag111
ag182
aS'chose'
p5210
aS'radian'
p5211
aS'measure'
p5212
ag111
asg21
(lp5213
g182
ag5210
ag5211
ag5212
ag111
asba(iMeme
Meme
p5214
(dp5215
g3
(lp5216
S'you'
p5217
aS'want'
p5218
aS'to'
p5219
aS'have'
p5220
aS'fun'
p5221
aS'making'
p5222
aS'jokes'
p5223
aS'about'
p5224
aS'rgi'
p5225
aS'with'
p5226
aS'me'
p5227
ag54
asg11
S'you want to have fun making jokes about rgi with me?'
p5228
sg13
S' invalid play request'
p5229
sg15
Vscience-cat
p5230
sg17
(lp5231
g5217
ag5218
ag5219
ag5220
ag5221
ag5222
ag5223
ag5224
ag5225
ag5226
ag5227
ag54
aS'invalid'
p5232
aS'play'
p5233
aS'request'
p5234
asg21
(lp5235
g5232
ag5233
ag5234
asba(iMeme
Meme
p5236
(dp5237
g3
(lp5238
S'im'
p5239
ag31
aS'baas'
p5240
asg11
S'im a baas'
p5241
sg13
S' how bout u?'
p5242
sg15
Vscience-cat
p5243
sg17
(lp5244
g5239
ag31
ag5240
aS'how'
p5245
aS'bout'
p5246
ag1255
ag54
asg21
(lp5247
g5245
ag5246
ag1255
ag54
asba(iMeme
Meme
p5248
(dp5249
g3
(lp5250
S'whats'
p5251
aS'the'
p5252
aS'area'
p5253
aS'of'
p5254
asg11
S'whats the area of'
p5255
sg13
S' shut the fuck up?'
p5256
sg15
Vscience-cat
p5257
sg17
(lp5258
g5251
ag5252
ag5253
ag5254
aS'shut'
p5259
aS'the'
p5260
aS'fuck'
p5261
aS'up'
p5262
ag54
asg21
(lp5263
g5259
ag5260
ag5261
ag5262
ag54
asba(iMeme
Meme
p5264
(dp5265
g3
(lp5266
S'calculate'
p5267
aS'the'
p5268
aS'molarity'
p5269
asg11
S'calculate the molarity'
p5270
sg13
S' of my tears on my ap chem test'
p5271
sg15
Vscience-cat
p5272
sg17
(lp5273
g5267
ag5268
ag5269
aS'of'
p5274
aS'my'
p5275
aS'tears'
p5276
aS'on'
p5277
aS'my'
p5278
aS'ap'
p5279
aS'chem'
p5280
aS'test'
p5281
asg21
(lp5282
g5274
ag5275
ag5276
ag5277
ag5278
ag5279
ag5280
ag5281
asba(iMeme
Meme
p5283
(dp5284
g3
(lp5285
S'helium'
p5286
aS'went'
p5287
aS'out'
p5288
aS'to'
p5289
aS'smoke'
p5290
ag31
aS'little'
p5291
asg11
S'helium went out to smoke a little'
p5292
sg13
S' he got high'
p5293
sg15
Vscience-cat
p5294
sg17
(lp5295
g5286
ag5287
ag5288
ag5289
ag5290
ag31
ag5291
aS'he'
p5296
aS'got'
p5297
aS'high'
p5298
asg21
(lp5299
g5296
ag5297
ag5298
asba(iMeme
Meme
p5300
(dp5301
g3
(lp5302
S'what'
p5303
aS'did'
p5304
aS'the'
p5305
aS'nuclear'
p5306
aS'got'
p5307
aS'in'
p5308
aS'his'
p5309
aS'mailbox'
p5310
asg11
S'what did the nuclear got in his mailbox'
p5311
sg13
S' his envelope'
p5312
sg15
Vscience-cat
p5313
sg17
(lp5314
g5303
ag5304
ag5305
ag5306
ag5307
ag5308
ag5309
ag5310
aS'his'
p5315
aS'envelope'
p5316
asg21
(lp5317
g5315
ag5316
asba(iMeme
Meme
p5318
(dp5319
g3
(lp5320
S'what'
p5321
aS'argon'
p5322
aS'say'
p5323
aS'to'
p5324
aS'krypton'
p5325
ag54
asg11
S'what argon say to krypton?'
p5326
sg13
S' ion'
p5327
sg15
Vscience-cat
p5328
sg17
(lp5329
g5321
ag5322
ag5323
ag5324
ag5325
ag54
aS'ion'
p5330
asg21
(lp5331
g5330
asba.