(lp0
(iMeme
Meme
p1
(dp2
S'top_text'
p3
(lp4
S'I'
p5
aS'want'
p6
aS'you'
p7
aS'to'
p8
aS'type'
p9
aS'this'
p10
aS'website'
p11
aS'into'
p12
aS'your'
p13
aS'browser'
p14
aS'.'
p15
asS'top_text_raw'
p16
S'I want you to type this website into your browser. '
p17
sS'bottom_text_raw'
p18
S' www.history.com'
p19
sS'meme_type'
p20
Vscumbag-teacher
p21
sS'all_text'
p22
(lp23
g5
ag6
ag7
ag8
ag9
ag10
ag11
ag12
ag13
ag14
ag15
aS'www.history.com'
p24
asS'bottom_text'
p25
(lp26
g24
asba(iMeme
Meme
p27
(dp28
g3
(lp29
S'Says'
p30
aS'wikipedia'
p31
aS'is'
p32
aS'not'
p33
aS'a'
p34
aS'reliable'
p35
aS'resource'
p36
asg16
S'Says wikipedia is not a reliable resource '
p37
sg18
S' instead has class use 20 year old textbooks'
p38
sg20
Vscumbag-teacher
p39
sg22
(lp40
g30
ag31
ag32
ag33
ag34
ag35
ag36
aS'instead'
p41
aS'has'
p42
aS'class'
p43
aS'use'
p44
aS'20'
p45
aS'year'
p46
aS'old'
p47
aS'textbooks'
p48
asg25
(lp49
g41
ag42
ag43
ag44
ag45
ag46
ag47
ag48
asba(iMeme
Meme
p50
(dp51
g3
(lp52
S'Ok'
p53
aS'class'
p54
aS','
p55
aS'you'
p56
aS'have'
p57
aS'exactly'
p58
aS'50'
p59
aS'minutes'
p60
aS'to'
p61
aS'complete'
p62
aS'this'
p63
aS'exam'
p64
asg16
S'Ok class, you have exactly 50 minutes to complete this exam '
p65
sg18
S" But before you begin, let's all take five minutes to correct the mistakes I made while writing the test"
p66
sg20
Vscumbag-teacher
p67
sg22
(lp68
g53
ag54
ag55
ag56
ag57
ag58
ag59
ag60
ag61
ag62
ag63
ag64
aS'But'
p69
aS'before'
p70
aS'you'
p71
aS'begin'
p72
ag55
aS'let'
p73
aS"'s"
p74
aS'all'
p75
aS'take'
p76
aS'five'
p77
aS'minutes'
p78
aS'to'
p79
aS'correct'
p80
aS'the'
p81
aS'mistakes'
p82
ag5
aS'made'
p83
aS'while'
p84
aS'writing'
p85
aS'the'
p86
aS'test'
p87
asg25
(lp88
g69
ag70
ag71
ag72
ag55
ag73
ag74
ag75
ag76
ag77
ag78
ag79
ag80
ag81
ag82
ag5
ag83
ag84
ag85
ag86
ag87
asba(iMeme
Meme
p89
(dp90
g3
(lp91
S'Multiple'
p92
aS'choice'
p93
aS'question'
p94
aS':'
p95
aS'all'
p96
aS'the'
p97
aS'choices'
p98
aS'are'
p99
aS'correct'
p100
asg16
S'Multiple choice question: all the choices are correct '
p101
sg18
S' You have to choose the most correct one'
p102
sg20
Vscumbag-teacher
p103
sg22
(lp104
g92
ag93
ag94
ag95
ag96
ag97
ag98
ag99
ag100
aS'You'
p105
aS'have'
p106
aS'to'
p107
aS'choose'
p108
aS'the'
p109
aS'most'
p110
aS'correct'
p111
aS'one'
p112
asg25
(lp113
g105
ag106
ag107
ag108
ag109
ag110
ag111
ag112
asba(iMeme
Meme
p114
(dp115
g3
(lp116
S'STand'
p117
aS'up'
p118
aS'to'
p119
aS'those'
p120
aS'who'
p121
aS'bully'
p122
aS'you'
p123
asg16
S'STand up to those who bully you '
p124
sg18
S" Get's you in trouble when you fight back"
p125
sg20
Vscumbag-teacher
p126
sg22
(lp127
g117
ag118
ag119
ag120
ag121
ag122
ag123
aS'Get'
p128
aS"'s"
p129
aS'you'
p130
aS'in'
p131
aS'trouble'
p132
aS'when'
p133
aS'you'
p134
aS'fight'
p135
aS'back'
p136
asg25
(lp137
g128
ag129
ag130
ag131
ag132
ag133
ag134
ag135
ag136
asba(iMeme
Meme
p138
(dp139
g3
(lp140
S'Why'
p141
aS'are'
p142
aS'you'
p143
aS'late'
p144
aS'?'
p145
asg16
S'Why are you late? '
p146
sg18
S" I don't want to hear your excuses"
p147
sg20
Vscumbag-teacher
p148
sg22
(lp149
g141
ag142
ag143
ag144
ag145
ag5
aS'do'
p150
aS"n't"
p151
aS'want'
p152
aS'to'
p153
aS'hear'
p154
aS'your'
p155
aS'excuses'
p156
asg25
(lp157
g5
ag150
ag151
ag152
ag153
ag154
ag155
ag156
asba(iMeme
Meme
p158
(dp159
g3
(lp160
S'students'
p161
aS'complain'
p162
aS'that'
p163
aS'nothing'
p164
aS'she'
p165
aS'taught'
p166
aS'is'
p167
aS'on'
p168
aS'the'
p169
aS'test'
p170
asg16
S'students complain that nothing she taught is on the test '
p171
sg18
S" it's not my job to make sure that you know everything for your test"
p172
sg20
Vscumbag-teacher
p173
sg22
(lp174
g161
ag162
ag163
ag164
ag165
ag166
ag167
ag168
ag169
ag170
aS'it'
p175
aS"'s"
p176
aS'not'
p177
aS'my'
p178
aS'job'
p179
aS'to'
p180
aS'make'
p181
aS'sure'
p182
aS'that'
p183
aS'you'
p184
aS'know'
p185
aS'everything'
p186
aS'for'
p187
aS'your'
p188
aS'test'
p189
asg25
(lp190
g175
ag176
ag177
ag178
ag179
ag180
ag181
ag182
ag183
ag184
ag185
ag186
ag187
ag188
ag189
asba(iMeme
Meme
p191
(dp192
g3
(lp193
S'if'
p194
aS'you'
p195
aS'missed'
p196
aS'the'
p197
aS'bell'
p198
ag55
aS'you'
p199
aS'missed'
p200
aS'class'
p201
ag55
aS'i'
p202
aS'do'
p203
aS"n't"
p204
aS'make'
p205
aS'the'
p206
aS'rules'
p207
asg16
S"if you missed the bell, you missed class, i don't make the rules "
p208
sg18
S" the bell doesn't dismiss you, i dismiss you"
p209
sg20
Vscumbag-teacher
p210
sg22
(lp211
g194
ag195
ag196
ag197
ag198
ag55
ag199
ag200
ag201
ag55
ag202
ag203
ag204
ag205
ag206
ag207
aS'the'
p212
aS'bell'
p213
aS'does'
p214
aS"n't"
p215
aS'dismiss'
p216
aS'you'
p217
ag55
ag202
aS'dismiss'
p218
aS'you'
p219
asg25
(lp220
g212
ag213
ag214
ag215
ag216
ag217
ag55
ag202
ag218
ag219
asba(iMeme
Meme
p221
(dp222
g3
(lp223
S'Does'
p224
aS"n't"
p225
aS'know'
p226
aS'the'
p227
aS'answer'
p228
aS'to'
p229
aS'your'
p230
aS'question'
p231
asg16
S"Doesn't know the answer to your question "
p232
sg18
S' answers question of her own choosing'
p233
sg20
Vscumbag-teacher
p234
sg22
(lp235
g224
ag225
ag226
ag227
ag228
ag229
ag230
ag231
aS'answers'
p236
aS'question'
p237
aS'of'
p238
aS'her'
p239
aS'own'
p240
aS'choosing'
p241
asg25
(lp242
g236
ag237
ag238
ag239
ag240
ag241
asba(iMeme
Meme
p243
(dp244
g3
(lp245
S'Oh'
p246
aS'you'
p247
aS'ca'
p248
aS"n't"
p249
aS'spell'
p250
aS'that'
p251
aS'word'
p252
ag145
asg16
S"Oh you can't spell that word? "
p253
sg18
S' Look it up in this book where words are sorted by spelling'
p254
sg20
Vscumbag-teacher
p255
sg22
(lp256
g246
ag247
ag248
ag249
ag250
ag251
ag252
ag145
aS'Look'
p257
aS'it'
p258
aS'up'
p259
aS'in'
p260
aS'this'
p261
aS'book'
p262
aS'where'
p263
aS'words'
p264
aS'are'
p265
aS'sorted'
p266
aS'by'
p267
aS'spelling'
p268
asg25
(lp269
g257
ag258
ag259
ag260
ag261
ag262
ag263
ag264
ag265
ag266
ag267
ag268
asba(iMeme
Meme
p270
(dp271
g3
(lp272
S'You'
p273
aS'used'
p274
ag34
aS'word'
p275
aS'in'
p276
aS'your'
p277
aS'paper'
p278
aS'that'
p279
ag5
aS'do'
p280
aS"n't"
p281
aS'know'
p282
ag15
asg16
S"You used a word in your paper that I don't know. "
p283
sg18
S" I'm downgrading you for plagiarism."
p284
sg20
Vscumbag-teacher
p285
sg22
(lp286
g273
ag274
ag34
ag275
ag276
ag277
ag278
ag279
ag5
ag280
ag281
ag282
ag15
ag5
aS"'m"
p287
aS'downgrading'
p288
aS'you'
p289
aS'for'
p290
aS'plagiarism'
p291
ag15
asg25
(lp292
g5
ag287
ag288
ag289
ag290
ag291
ag15
asba(iMeme
Meme
p293
(dp294
g3
(lp295
S'This'
p296
aS'paper'
p297
aS'is'
p298
aS'the'
p299
aS'best'
p300
ag202
aS"'ve"
p301
aS'ever'
p302
aS'read'
p303
asg16
S"This paper is the best i've ever read "
p304
sg18
S' 95%. No paper is perfect.'
p305
sg20
Vscumbag-teacher
p306
sg22
(lp307
g296
ag297
ag298
ag299
ag300
ag202
ag301
ag302
ag303
aS'95'
p308
aS'%'
p309
ag15
aS'No'
p310
aS'paper'
p311
aS'is'
p312
aS'perfect'
p313
ag15
asg25
(lp314
g308
ag309
ag15
ag310
ag311
ag312
ag313
ag15
asba(iMeme
Meme
p315
(dp316
g3
(lp317
S'Get'
p318
aS'the'
p319
aS'right'
p320
aS'answer'
p321
asg16
S'Get the right answer '
p322
sg18
S" You didn't use the method I showed you."
p323
sg20
Vscumbag-teacher
p324
sg22
(lp325
g318
ag319
ag320
ag321
aS'You'
p326
aS'did'
p327
aS"n't"
p328
aS'use'
p329
aS'the'
p330
aS'method'
p331
ag5
aS'showed'
p332
aS'you'
p333
ag15
asg25
(lp334
g326
ag327
ag328
ag329
ag330
ag331
ag5
ag332
ag333
ag15
asba(iMeme
Meme
p335
(dp336
g3
(lp337
S'sees'
p338
aS'patient'
p339
aS'student'
p340
aS'raising'
p341
aS'hand'
p342
aS'to'
p343
aS'ask'
p344
ag34
aS'question'
p345
ag55
aS'``'
p346
aS'hold'
p347
aS'your'
p348
aS'questions'
p349
aS'for'
p350
aS'the'
p351
aS'end'
p352
ag15
asg16
S'sees patient student raising hand to ask a question, "hold your questions for the end. '
p353
sg18
S' answers everyone who yells out their question'
p354
sg20
Vscumbag-teacher
p355
sg22
(lp356
g338
ag339
ag340
ag341
ag342
ag343
ag344
ag34
ag345
ag55
ag346
ag347
ag348
ag349
ag350
ag351
ag352
ag15
aS'answers'
p357
aS'everyone'
p358
aS'who'
p359
aS'yells'
p360
aS'out'
p361
aS'their'
p362
aS'question'
p363
asg25
(lp364
g357
ag358
ag359
ag360
ag361
ag362
ag363
asba(iMeme
Meme
p365
(dp366
g3
(lp367
S'It'
p368
aS"'s"
p369
aS'not'
p370
aS'my'
p371
aS'job'
p372
aS'to'
p373
aS'know'
p374
aS'the'
p375
aS'answer'
p376
asg16
S"It's not my job to know the answer "
p377
sg18
S" It's your job to find it"
p378
sg20
Vscumbag-teacher
p379
sg22
(lp380
g368
ag369
ag370
ag371
ag372
ag373
ag374
ag375
ag376
aS'It'
p381
aS"'s"
p382
aS'your'
p383
aS'job'
p384
aS'to'
p385
aS'find'
p386
aS'it'
p387
asg25
(lp388
g381
ag382
ag383
ag384
ag385
ag386
ag387
asba(iMeme
Meme
p389
(dp390
g3
(lp391
g5
aS'have'
p392
aS'graded'
p393
aS'all'
p394
aS'of'
p395
aS'your'
p396
aS'tests'
p397
asg16
S'I have graded all of your tests '
p398
sg18
S" But i can't let you see the grade because one student hasn't taken it yet."
p399
sg20
Vscumbag-teacher
p400
sg22
(lp401
g5
ag392
ag393
ag394
ag395
ag396
ag397
aS'But'
p402
ag202
aS'ca'
p403
aS"n't"
p404
aS'let'
p405
aS'you'
p406
aS'see'
p407
aS'the'
p408
aS'grade'
p409
aS'because'
p410
aS'one'
p411
aS'student'
p412
aS'has'
p413
aS"n't"
p414
aS'taken'
p415
aS'it'
p416
aS'yet'
p417
ag15
asg25
(lp418
g402
ag202
ag403
ag404
ag405
ag406
ag407
ag408
ag409
ag410
ag411
ag412
ag413
ag414
ag415
ag416
ag417
ag15
asba(iMeme
Meme
p419
(dp420
g3
(lp421
S'This'
p422
aS'is'
p423
ag34
aS'college'
p424
aS'course'
p425
aS'and'
p426
aS'will'
p427
aS'be'
p428
aS'taught'
p429
aS'at'
p430
ag34
aS'college'
p431
aS'level'
p432
asg16
S'This is a college course and will be taught at a college level '
p433
sg18
S' now get out your colored pencils and illustrate these vocab words'
p434
sg20
Vscumbag-teacher
p435
sg22
(lp436
g422
ag423
ag34
ag424
ag425
ag426
ag427
ag428
ag429
ag430
ag34
ag431
ag432
aS'now'
p437
aS'get'
p438
aS'out'
p439
aS'your'
p440
aS'colored'
p441
aS'pencils'
p442
aS'and'
p443
aS'illustrate'
p444
aS'these'
p445
aS'vocab'
p446
aS'words'
p447
asg25
(lp448
g437
ag438
ag439
ag440
ag441
ag442
ag443
ag444
ag445
ag446
ag447
asba(iMeme
Meme
p449
(dp450
g3
(lp451
S'Student'
p452
aS'asks'
p453
aS'difficult'
p454
aS'question'
p455
asg16
S'Student asks difficult question '
p456
sg18
S' Proceeds to ignore the question, talk about something completely different, then asks, "Did that answer your question?'
p457
sg20
Vscumbag-teacher
p458
sg22
(lp459
g452
ag453
ag454
ag455
aS'Proceeds'
p460
aS'to'
p461
aS'ignore'
p462
aS'the'
p463
aS'question'
p464
ag55
aS'talk'
p465
aS'about'
p466
aS'something'
p467
aS'completely'
p468
aS'different'
p469
ag55
aS'then'
p470
aS'asks'
p471
ag55
aS'``'
p472
aS'Did'
p473
aS'that'
p474
aS'answer'
p475
aS'your'
p476
aS'question'
p477
ag145
asg25
(lp478
g460
ag461
ag462
ag463
ag464
ag55
ag465
ag466
ag467
ag468
ag469
ag55
ag470
ag471
ag55
ag472
ag473
ag474
ag475
ag476
ag477
ag145
asba(iMeme
Meme
p479
(dp480
g3
(lp481
S'Oh'
p482
aS'you'
p483
aS'do'
p484
aS"n't"
p485
aS'get'
p486
aS'how'
p487
aS'to'
p488
aS'do'
p489
aS'it'
p490
ag145
asg16
S"Oh you don't get how to do it? "
p491
sg18
S' Let me explain it the exact same way I explained it the first time'
p492
sg20
Vscumbag-teacher
p493
sg22
(lp494
g482
ag483
ag484
ag485
ag486
ag487
ag488
ag489
ag490
ag145
aS'Let'
p495
aS'me'
p496
aS'explain'
p497
aS'it'
p498
aS'the'
p499
aS'exact'
p500
aS'same'
p501
aS'way'
p502
ag5
aS'explained'
p503
aS'it'
p504
aS'the'
p505
aS'first'
p506
aS'time'
p507
asg25
(lp508
g495
ag496
ag497
ag498
ag499
ag500
ag501
ag502
ag5
ag503
ag504
ag505
ag506
ag507
asba(iMeme
Meme
p509
(dp510
g3
(lp511
S'Tells'
p512
aS'you'
p513
aS'to'
p514
aS'buy'
p515
aS'binders'
p516
asg16
S'Tells you to buy binders '
p517
sg18
S" Doesn't hole punch papers that she gives  out"
p518
sg20
Vscumbag-teacher
p519
sg22
(lp520
g512
ag513
ag514
ag515
ag516
aS'Does'
p521
aS"n't"
p522
aS'hole'
p523
aS'punch'
p524
aS'papers'
p525
aS'that'
p526
aS'she'
p527
aS'gives'
p528
aS'out'
p529
asg25
(lp530
g521
ag522
ag523
ag524
ag525
ag526
ag527
ag528
ag529
asba(iMeme
Meme
p531
(dp532
g3
(lp533
S'There'
p534
aS"'s"
p535
ag34
aS'stapler'
p536
aS'on'
p537
aS'my'
p538
aS'desk'
p539
ag55
aS'but'
p540
asg16
S"There's a stapler on my desk, but "
p541
sg18
S' your homework must be stapled before you come to class'
p542
sg20
Vscumbag-teacher
p543
sg22
(lp544
g534
ag535
ag34
ag536
ag537
ag538
ag539
ag55
ag540
aS'your'
p545
aS'homework'
p546
aS'must'
p547
aS'be'
p548
aS'stapled'
p549
aS'before'
p550
aS'you'
p551
aS'come'
p552
aS'to'
p553
aS'class'
p554
asg25
(lp555
g545
ag546
ag547
ag548
ag549
ag550
ag551
ag552
ag553
ag554
asba(iMeme
Meme
p556
(dp557
g3
(lp558
S'Yells'
p559
aS'at'
p560
aS'you'
p561
aS'to'
p562
aS'pay'
p563
aS'attention'
p564
asg16
S'Yells at you to pay attention '
p565
sg18
S' goes off course and talks about personal life'
p566
sg20
Vscumbag-teacher
p567
sg22
(lp568
g559
ag560
ag561
ag562
ag563
ag564
aS'goes'
p569
aS'off'
p570
aS'course'
p571
aS'and'
p572
aS'talks'
p573
aS'about'
p574
aS'personal'
p575
aS'life'
p576
asg25
(lp577
g569
ag570
ag571
ag572
ag573
ag574
ag575
ag576
asba(iMeme
Meme
p578
(dp579
g3
(lp580
S'ask'
p581
aS'her'
p582
aS'to'
p583
aS'change'
p584
ag34
aS'grade'
p585
aS'she'
p586
aS'miscalculated'
p587
asg16
S'ask her to change a grade she miscalculated '
p588
sg18
S' looks like you got lucky'
p589
sg20
Vscumbag-teacher
p590
sg22
(lp591
g581
ag582
ag583
ag584
ag34
ag585
ag586
ag587
aS'looks'
p592
aS'like'
p593
aS'you'
p594
aS'got'
p595
aS'lucky'
p596
asg25
(lp597
g592
ag593
ag594
ag595
ag596
asba(iMeme
Meme
p598
(dp599
g3
(lp600
S'you'
p601
aS"'re"
p602
aS'not'
p603
aS'allowed'
p604
aS'soft'
p605
aS'drink'
p606
aS'in'
p607
aS'class'
p608
asg16
S"you're not allowed soft drink in class "
p609
sg18
S' except me and my diet coke'
p610
sg20
Vscumbag-teacher
p611
sg22
(lp612
g601
ag602
ag603
ag604
ag605
ag606
ag607
ag608
aS'except'
p613
aS'me'
p614
aS'and'
p615
aS'my'
p616
aS'diet'
p617
aS'coke'
p618
asg25
(lp619
g613
ag614
ag615
ag616
ag617
ag618
asba(iMeme
Meme
p620
(dp621
g3
(lp622
g5
aS'want'
p623
aS'you'
p624
aS'to'
p625
aS'use'
p626
aS'your'
p627
aS'creativity'
p628
asg16
S'I want you to use your creativity '
p629
sg18
S" Here's a list of things you have to include"
p630
sg20
Vscumbag-teacher
p631
sg22
(lp632
g5
ag623
ag624
ag625
ag626
ag627
ag628
aS'Here'
p633
aS"'s"
p634
ag34
aS'list'
p635
aS'of'
p636
aS'things'
p637
aS'you'
p638
aS'have'
p639
aS'to'
p640
aS'include'
p641
asg25
(lp642
g633
ag634
ag34
ag635
ag636
ag637
ag638
ag639
ag640
ag641
asba(iMeme
Meme
p643
(dp644
g3
(lp645
S'First'
p646
aS'day'
p647
aS'of'
p648
aS'class'
p649
asg16
S'First day of class '
p650
sg18
S' Everyone share something interesting about themselves'
p651
sg20
Vscumbag-teacher
p652
sg22
(lp653
g646
ag647
ag648
ag649
aS'Everyone'
p654
aS'share'
p655
aS'something'
p656
aS'interesting'
p657
aS'about'
p658
aS'themselves'
p659
asg25
(lp660
g654
ag655
ag656
ag657
ag658
ag659
asba(iMeme
Meme
p661
(dp662
g3
(lp663
S'Puts'
p664
aS'powerpoint'
p665
aS'up'
p666
aS'using'
p667
aS'the'
p668
aS'projector'
p669
asg16
S'Puts powerpoint up using the projector '
p670
sg18
S' Reads entire lecture word for word from the powerpoint'
p671
sg20
Vscumbag-teacher
p672
sg22
(lp673
g664
ag665
ag666
ag667
ag668
ag669
aS'Reads'
p674
aS'entire'
p675
aS'lecture'
p676
aS'word'
p677
aS'for'
p678
aS'word'
p679
aS'from'
p680
aS'the'
p681
aS'powerpoint'
p682
asg25
(lp683
g674
ag675
ag676
ag677
ag678
ag679
ag680
ag681
ag682
asba(iMeme
Meme
p684
(dp685
g3
(lp686
S'Is'
p687
aS'getting'
p688
aS'observed'
p689
asg16
S'Is getting observed '
p690
sg18
S' only time the class is engaging and interesting'
p691
sg20
Vscumbag-teacher
p692
sg22
(lp693
g687
ag688
ag689
aS'only'
p694
aS'time'
p695
aS'the'
p696
aS'class'
p697
aS'is'
p698
aS'engaging'
p699
aS'and'
p700
aS'interesting'
p701
asg25
(lp702
g694
ag695
ag696
ag697
ag698
ag699
ag700
ag701
asba(iMeme
Meme
p703
(dp704
g3
(lp705
S'sees'
p706
aS'you'
p707
aS'wasting'
p708
aS'time'
p709
asg16
S'sees you wasting time '
p710
sg18
S' 15 minute lecture on time wasting'
p711
sg20
Vscumbag-teacher
p712
sg22
(lp713
g706
ag707
ag708
ag709
aS'15'
p714
aS'minute'
p715
aS'lecture'
p716
aS'on'
p717
aS'time'
p718
aS'wasting'
p719
asg25
(lp720
g714
ag715
ag716
ag717
ag718
ag719
asba(iMeme
Meme
p721
(dp722
g3
(lp723
S'be'
p724
aS'creative'
p725
aS'for'
p726
aS'top'
p727
aS'marks'
p728
asg16
S'be  creative for top marks '
p729
sg18
S' within these strict guidelines'
p730
sg20
Vscumbag-teacher
p731
sg22
(lp732
g724
ag725
ag726
ag727
ag728
aS'within'
p733
aS'these'
p734
aS'strict'
p735
aS'guidelines'
p736
asg25
(lp737
g733
ag734
ag735
ag736
asba(iMeme
Meme
p738
(dp739
g3
(lp740
S'One'
p741
aS'person'
p742
aS'misbehaving'
p743
asg16
S'One person misbehaving '
p744
sg18
S' punish everyone'
p745
sg20
Vscumbag-teacher
p746
sg22
(lp747
g741
ag742
ag743
aS'punish'
p748
aS'everyone'
p749
asg25
(lp750
g748
ag749
asba(iMeme
Meme
p751
(dp752
g3
(lp753
S'Gives'
p754
aS'Scantron'
p755
aS'test'
p756
asg16
S'Gives Scantron test '
p757
sg18
S' takes a week to grade it'
p758
sg20
Vscumbag-teacher
p759
sg22
(lp760
g754
ag755
ag756
aS'takes'
p761
ag34
aS'week'
p762
aS'to'
p763
aS'grade'
p764
aS'it'
p765
asg25
(lp766
g761
ag34
ag762
ag763
ag764
ag765
asba(iMeme
Meme
p767
(dp768
g3
(lp769
S'Takes'
p770
aS'points'
p771
aS'off'
p772
aS'for'
p773
aS'bad'
p774
aS'handwriting'
p775
asg16
S'Takes points off for bad handwriting '
p776
sg18
S' cant read her handwriting'
p777
sg20
Vscumbag-teacher
p778
sg22
(lp779
g770
ag771
ag772
ag773
ag774
ag775
aS'cant'
p780
aS'read'
p781
aS'her'
p782
aS'handwriting'
p783
asg25
(lp784
g780
ag781
ag782
ag783
asba(iMeme
Meme
p785
(dp786
g3
(lp787
S'Makes'
p788
aS'class'
p789
aS'attendance'
p790
aS'mandatory'
p791
asg16
S'Makes class attendance mandatory '
p792
sg18
S' spends 90% of class telling personal stories'
p793
sg20
Vscumbag-teacher
p794
sg22
(lp795
g788
ag789
ag790
ag791
aS'spends'
p796
aS'90'
p797
ag309
aS'of'
p798
aS'class'
p799
aS'telling'
p800
aS'personal'
p801
aS'stories'
p802
asg25
(lp803
g796
ag797
ag309
ag798
ag799
ag800
ag801
ag802
asba(iMeme
Meme
p804
(dp805
g3
(lp806
S'This'
p807
aS'is'
p808
aS'very'
p809
aS'complicated'
p810
asg16
S'This is very complicated '
p811
sg18
S' Lets go through it quickly'
p812
sg20
Vscumbag-teacher
p813
sg22
(lp814
g807
ag808
ag809
ag810
aS'Lets'
p815
aS'go'
p816
aS'through'
p817
aS'it'
p818
aS'quickly'
p819
asg25
(lp820
g815
ag816
ag817
ag818
ag819
asba(iMeme
Meme
p821
(dp822
g3
(lp823
S'why'
p824
aS'are'
p825
aS'you'
p826
aS'late'
p827
ag145
asg16
S'why are you late? '
p828
sg18
S" I don't want to hear your excuses"
p829
sg20
Vscumbag-teacher
p830
sg22
(lp831
g824
ag825
ag826
ag827
ag145
ag5
aS'do'
p832
aS"n't"
p833
aS'want'
p834
aS'to'
p835
aS'hear'
p836
aS'your'
p837
aS'excuses'
p838
asg25
(lp839
g5
ag832
ag833
ag834
ag835
ag836
ag837
ag838
asba(iMeme
Meme
p840
(dp841
g3
(lp842
S'your'
p843
aS'final'
p844
aS'answer'
p845
aS'was'
p846
aS'correct'
p847
asg16
S'your final answer was correct '
p848
sg18
S' But you lose points for not working it out in my specific way'
p849
sg20
Vscumbag-teacher
p850
sg22
(lp851
g843
ag844
ag845
ag846
ag847
aS'But'
p852
aS'you'
p853
aS'lose'
p854
aS'points'
p855
aS'for'
p856
aS'not'
p857
aS'working'
p858
aS'it'
p859
aS'out'
p860
aS'in'
p861
aS'my'
p862
aS'specific'
p863
aS'way'
p864
asg25
(lp865
g852
ag853
ag854
ag855
ag856
ag857
ag858
ag859
ag860
ag861
ag862
ag863
ag864
asba(iMeme
Meme
p866
(dp867
g3
(lp868
g5
aS'do'
p869
aS"n't"
p870
aS'give'
p871
aS'out'
p872
aS'an'
p873
aS'A+'
p874
asg16
S"I don't give out an A+ "
p875
sg18
S' Because nobody is perfect'
p876
sg20
Vscumbag-teacher
p877
sg22
(lp878
g5
ag869
ag870
ag871
ag872
ag873
ag874
aS'Because'
p879
aS'nobody'
p880
aS'is'
p881
aS'perfect'
p882
asg25
(lp883
g879
ag880
ag881
ag882
asba(iMeme
Meme
p884
(dp885
g3
(lp886
S'Nobody'
p887
aS'leaves'
p888
aS'until'
p889
aS'this'
p890
aS'room'
p891
aS'is'
p892
aS'spotless'
p893
asg16
S'Nobody leaves until this room is spotless '
p894
sg18
S" It's not the janitor's job to clean up after you"
p895
sg20
Vscumbag-teacher
p896
sg22
(lp897
g887
ag888
ag889
ag890
ag891
ag892
ag893
aS'It'
p898
aS"'s"
p899
aS'not'
p900
aS'the'
p901
aS'janitor'
p902
aS"'s"
p903
aS'job'
p904
aS'to'
p905
aS'clean'
p906
aS'up'
p907
aS'after'
p908
aS'you'
p909
asg25
(lp910
g898
ag899
ag900
ag901
ag902
ag903
ag904
ag905
ag906
ag907
ag908
ag909
asba(iMeme
Meme
p911
(dp912
g3
(lp913
S'WEll'
p914
ag55
ag202
aS'lost'
p915
aS'your'
p916
aS'assignment'
p917
asg16
S'WEll, i lost your assignment '
p918
sg18
S" Which means you haven't done it"
p919
sg20
Vscumbag-teacher
p920
sg22
(lp921
g914
ag55
ag202
ag915
ag916
ag917
aS'Which'
p922
aS'means'
p923
aS'you'
p924
aS'have'
p925
aS"n't"
p926
aS'done'
p927
aS'it'
p928
asg25
(lp929
g922
ag923
ag924
ag925
ag926
ag927
ag928
asba(iMeme
Meme
p930
(dp931
g3
(lp932
S'books'
p933
aS'are'
p934
aS'more'
p935
aS'reliable'
p936
aS'than'
p937
aS'the'
p938
aS'internet'
p939
asg16
S'books are more reliable than the internet '
p940
sg18
S' text book says that the soviet union is a country'
p941
sg20
Vscumbag-teacher
p942
sg22
(lp943
g933
ag934
ag935
ag936
ag937
ag938
ag939
aS'text'
p944
aS'book'
p945
aS'says'
p946
aS'that'
p947
aS'the'
p948
aS'soviet'
p949
aS'union'
p950
aS'is'
p951
ag34
aS'country'
p952
asg25
(lp953
g944
ag945
ag946
ag947
ag948
ag949
ag950
ag951
ag34
ag952
asba(iMeme
Meme
p954
(dp955
g3
(lp956
S'You'
p957
aS'ca'
p958
aS"n't"
p959
aS'write'
p960
aS'an'
p961
aS'essay'
p962
aS'the'
p963
aS'day'
p964
aS'before'
p965
aS'it'
p966
aS"'s"
p967
aS'due'
p968
ag15
asg16
S"You can't write an essay the day before it's due. "
p969
sg18
S' This exam has an essay section. You have one hour.'
p970
sg20
Vscumbag-teacher
p971
sg22
(lp972
g957
ag958
ag959
ag960
ag961
ag962
ag963
ag964
ag965
ag966
ag967
ag968
ag15
aS'This'
p973
aS'exam'
p974
aS'has'
p975
aS'an'
p976
aS'essay'
p977
aS'section'
p978
ag15
aS'You'
p979
aS'have'
p980
aS'one'
p981
aS'hour'
p982
ag15
asg25
(lp983
g973
ag974
ag975
ag976
ag977
ag978
ag15
ag979
ag980
ag981
ag982
ag15
asba(iMeme
Meme
p984
(dp985
g3
(lp986
S'Realizes'
p987
aS'she'
p988
aS'is'
p989
aS'wrong'
p990
asg16
S'Realizes she is wrong '
p991
sg18
S' punishes student for arguing'
p992
sg20
Vscumbag-teacher
p993
sg22
(lp994
g987
ag988
ag989
ag990
aS'punishes'
p995
aS'student'
p996
aS'for'
p997
aS'arguing'
p998
asg25
(lp999
g995
ag996
ag997
ag998
asba(iMeme
Meme
p1000
(dp1001
g3
(lp1002
S'lectures'
p1003
aS'class'
p1004
aS'about'
p1005
aS'wasting'
p1006
aS'time'
p1007
asg16
S'lectures class about wasting time '
p1008
sg18
S' for the whole period'
p1009
sg20
Vscumbag-teacher
p1010
sg22
(lp1011
g1003
ag1004
ag1005
ag1006
ag1007
aS'for'
p1012
aS'the'
p1013
aS'whole'
p1014
aS'period'
p1015
asg25
(lp1016
g1012
ag1013
ag1014
ag1015
asba(iMeme
Meme
p1017
(dp1018
g3
(lp1019
S'Use'
p1020
aS'the'
p1021
aS'chart'
p1022
aS'on'
p1023
aS'the'
p1024
aS'front'
p1025
asg16
S'Use the chart on the front  '
p1026
sg18
S' to answer questions 10-30 on the back'
p1027
sg20
Vscumbag-teacher
p1028
sg22
(lp1029
g1020
ag1021
ag1022
ag1023
ag1024
ag1025
aS'to'
p1030
aS'answer'
p1031
aS'questions'
p1032
aS'10-30'
p1033
aS'on'
p1034
aS'the'
p1035
aS'back'
p1036
asg25
(lp1037
g1030
ag1031
ag1032
ag1033
ag1034
ag1035
ag1036
asba(iMeme
Meme
p1038
(dp1039
g3
(lp1040
S'All'
p1041
aS'of'
p1042
aS'your'
p1043
aS'answers'
p1044
aS'are'
p1045
aS'right'
p1046
aS'but'
p1047
aS'you'
p1048
aS'did'
p1049
aS"n't"
p1050
aS'do'
p1051
aS'it'
p1052
aS'the'
p1053
aS'hard'
p1054
aS'way'
p1055
ag145
asg16
S"All of your answers are right but you didn't do it the hard way? "
p1056
sg18
S' Zero points.'
p1057
sg20
Vscumbag-teacher
p1058
sg22
(lp1059
g1041
ag1042
ag1043
ag1044
ag1045
ag1046
ag1047
ag1048
ag1049
ag1050
ag1051
ag1052
ag1053
ag1054
ag1055
ag145
aS'Zero'
p1060
aS'points'
p1061
ag15
asg25
(lp1062
g1060
ag1061
ag15
asba(iMeme
Meme
p1063
(dp1064
g3
(lp1065
S'Wrong'
p1066
aS'font'
p1067
aS'on'
p1068
ag34
aS'paper'
p1069
asg16
S'Wrong font on a paper '
p1070
sg18
S' zero!'
p1071
sg20
Vscumbag-teacher
p1072
sg22
(lp1073
g1066
ag1067
ag1068
ag34
ag1069
aS'zero'
p1074
aS'!'
p1075
asg25
(lp1076
g1074
ag1075
asba(iMeme
Meme
p1077
(dp1078
g3
(lp1079
S'Study'
p1080
aS'finds'
p1081
aS'that'
p1082
aS'starting'
p1083
aS'school'
p1084
aS'later'
p1085
aS'improves'
p1086
aS'ability'
p1087
aS'to'
p1088
aS'learn'
p1089
asg16
S'Study finds that starting school later improves ability to learn '
p1090
sg18
S' School board decides to start school an hour earlier'
p1091
sg20
Vscumbag-teacher
p1092
sg22
(lp1093
g1080
ag1081
ag1082
ag1083
ag1084
ag1085
ag1086
ag1087
ag1088
ag1089
aS'School'
p1094
aS'board'
p1095
aS'decides'
p1096
aS'to'
p1097
aS'start'
p1098
aS'school'
p1099
aS'an'
p1100
aS'hour'
p1101
aS'earlier'
p1102
asg25
(lp1103
g1094
ag1095
ag1096
ag1097
ag1098
ag1099
ag1100
ag1101
ag1102
asba(iMeme
Meme
p1104
(dp1105
g3
(lp1106
S'The'
p1107
aS'bell'
p1108
aS'does'
p1109
aS"n't"
p1110
aS'dismiss'
p1111
aS'you'
p1112
ag55
asg16
S"The bell doesn't dismiss you, "
p1113
sg18
S' i do.'
p1114
sg20
Vscumbag-teacher
p1115
sg22
(lp1116
g1107
ag1108
ag1109
ag1110
ag1111
ag1112
ag55
ag202
aS'do'
p1117
ag15
asg25
(lp1118
g202
ag1117
ag15
asba(iMeme
Meme
p1119
(dp1120
g3
(lp1121
S'Your'
p1122
aS'essay'
p1123
aS'was'
p1124
aS'beautifully'
p1125
aS'written'
p1126
ag55
aS'however'
p1127
ag55
ag5
aS'wished'
p1128
aS'you'
p1129
aS'would'
p1130
aS'have'
p1131
aS'elaborated'
p1132
aS'your'
p1133
aS'arguments'
p1134
ag15
asg16
S'Your essay was beautifully written, however, I wished you would have elaborated your arguments. '
p1135
sg18
S' . . . Essay had 500 word limit.'
p1136
sg20
Vscumbag-teacher
p1137
sg22
(lp1138
g1122
ag1123
ag1124
ag1125
ag1126
ag55
ag1127
ag55
ag5
ag1128
ag1129
ag1130
ag1131
ag1132
ag1133
ag1134
ag15
ag15
ag15
ag15
aS'Essay'
p1139
aS'had'
p1140
aS'500'
p1141
aS'word'
p1142
aS'limit'
p1143
ag15
asg25
(lp1144
g15
ag15
ag15
ag1139
ag1140
ag1141
ag1142
ag1143
ag15
asba(iMeme
Meme
p1145
(dp1146
g3
(lp1147
S'Tells'
p1148
aS'us'
p1149
aS'we'
p1150
aS'are'
p1151
aS'behind'
p1152
asg16
S'Tells us we are behind '
p1153
sg18
S' Lectures for an hour about not studying'
p1154
sg20
Vscumbag-teacher
p1155
sg22
(lp1156
g1148
ag1149
ag1150
ag1151
ag1152
aS'Lectures'
p1157
aS'for'
p1158
aS'an'
p1159
aS'hour'
p1160
aS'about'
p1161
aS'not'
p1162
aS'studying'
p1163
asg25
(lp1164
g1157
ag1158
ag1159
ag1160
ag1161
ag1162
ag1163
asba(iMeme
Meme
p1165
(dp1166
g3
(lp1167
S'May'
p1168
ag202
aS'go'
p1169
aS'to'
p1170
aS'the'
p1171
aS'bathroom'
p1172
ag145
asg16
S'May i go to the bathroom? '
p1173
sg18
S' is it an emergency?'
p1174
sg20
Vscumbag-teacher
p1175
sg22
(lp1176
g1168
ag202
ag1169
ag1170
ag1171
ag1172
ag145
aS'is'
p1177
aS'it'
p1178
aS'an'
p1179
aS'emergency'
p1180
ag145
asg25
(lp1181
g1177
ag1178
ag1179
ag1180
ag145
asba(iMeme
Meme
p1182
(dp1183
g3
(lp1184
S'Asks'
p1185
aS'you'
p1186
aS'to'
p1187
aS'take'
p1188
aS'notes'
p1189
asg16
S'Asks you to take notes '
p1190
sg18
S' speaks as fast as busta rhymes'
p1191
sg20
Vscumbag-teacher
p1192
sg22
(lp1193
g1185
ag1186
ag1187
ag1188
ag1189
aS'speaks'
p1194
aS'as'
p1195
aS'fast'
p1196
aS'as'
p1197
aS'busta'
p1198
aS'rhymes'
p1199
asg25
(lp1200
g1194
ag1195
ag1196
ag1197
ag1198
ag1199
asba(iMeme
Meme
p1201
(dp1202
g3
(lp1203
S'deadlines'
p1204
aS'are'
p1205
aS'non-negotiable'
p1206
asg16
S'deadlines are non-negotiable '
p1207
sg18
S" I'll finish grading your papers whenever i get a chance"
p1208
sg20
Vscumbag-teacher
p1209
sg22
(lp1210
g1204
ag1205
ag1206
ag5
aS"'ll"
p1211
aS'finish'
p1212
aS'grading'
p1213
aS'your'
p1214
aS'papers'
p1215
aS'whenever'
p1216
ag202
aS'get'
p1217
ag34
aS'chance'
p1218
asg25
(lp1219
g5
ag1211
ag1212
ag1213
ag1214
ag1215
ag1216
ag202
ag1217
ag34
ag1218
asba(iMeme
Meme
p1220
(dp1221
g3
(lp1222
S'Stop'
p1223
aS'packing'
p1224
aS'your'
p1225
aS'bags'
p1226
asg16
S'Stop packing your bags '
p1227
sg18
S' We still have 15 seconds left of class!'
p1228
sg20
Vscumbag-teacher
p1229
sg22
(lp1230
g1223
ag1224
ag1225
ag1226
aS'We'
p1231
aS'still'
p1232
aS'have'
p1233
aS'15'
p1234
aS'seconds'
p1235
aS'left'
p1236
aS'of'
p1237
aS'class'
p1238
ag1075
asg25
(lp1239
g1231
ag1232
ag1233
ag1234
ag1235
ag1236
ag1237
ag1238
ag1075
asba(iMeme
Meme
p1240
(dp1241
g3
(lp1242
S'Yells'
p1243
aS'at'
p1244
aS'you'
p1245
aS'if'
p1246
aS'late'
p1247
asg16
S'Yells at you if late '
p1248
sg18
S' Keeps you 5 minutes into next class'
p1249
sg20
Vscumbag-teacher
p1250
sg22
(lp1251
g1243
ag1244
ag1245
ag1246
ag1247
aS'Keeps'
p1252
aS'you'
p1253
aS'5'
p1254
aS'minutes'
p1255
aS'into'
p1256
aS'next'
p1257
aS'class'
p1258
asg25
(lp1259
g1252
ag1253
ag1254
ag1255
ag1256
ag1257
ag1258
asba(iMeme
Meme
p1260
(dp1261
g3
(lp1262
S'Teaches'
p1263
aS'biology'
p1264
asg16
S'Teaches biology '
p1265
sg18
S" I don't personally believe we came from lightning hittin' a puddle like your book tells you."
p1266
sg20
Vscumbag-teacher
p1267
sg22
(lp1268
g1263
ag1264
ag5
aS'do'
p1269
aS"n't"
p1270
aS'personally'
p1271
aS'believe'
p1272
aS'we'
p1273
aS'came'
p1274
aS'from'
p1275
aS'lightning'
p1276
aS'hittin'
p1277
aS"'"
p1278
ag34
aS'puddle'
p1279
aS'like'
p1280
aS'your'
p1281
aS'book'
p1282
aS'tells'
p1283
aS'you'
p1284
ag15
asg25
(lp1285
g5
ag1269
ag1270
ag1271
ag1272
ag1273
ag1274
ag1275
ag1276
ag1277
ag1278
ag34
ag1279
ag1280
ag1281
ag1282
ag1283
ag1284
ag15
asba(iMeme
Meme
p1286
(dp1287
g3
(lp1288
S'You'
p1289
aS'got'
p1290
aS'the'
p1291
aS'right'
p1292
aS'answer'
p1293
ag55
aS'but'
p1294
aS'not'
p1295
aS'the'
p1296
aS'right'
p1297
aS'way'
p1298
aS'to'
p1299
aS'get'
p1300
aS'the'
p1301
aS'answer'
p1302
asg16
S'You got the right answer, but not the right way to get the answer '
p1303
sg18
S" So it's wrong"
p1304
sg20
Vscumbag-teacher
p1305
sg22
(lp1306
g1289
ag1290
ag1291
ag1292
ag1293
ag55
ag1294
ag1295
ag1296
ag1297
ag1298
ag1299
ag1300
ag1301
ag1302
aS'So'
p1307
aS'it'
p1308
aS"'s"
p1309
aS'wrong'
p1310
asg25
(lp1311
g1307
ag1308
ag1309
ag1310
asba(iMeme
Meme
p1312
(dp1313
g3
(lp1314
S'asks'
p1315
aS'question'
p1316
aS'to'
p1317
aS'class'
p1318
asg16
S'asks question to class '
p1319
sg18
S' ignores all students  with hands up'
p1320
sg20
Vscumbag-teacher
p1321
sg22
(lp1322
g1315
ag1316
ag1317
ag1318
aS'ignores'
p1323
aS'all'
p1324
aS'students'
p1325
aS'with'
p1326
aS'hands'
p1327
aS'up'
p1328
asg25
(lp1329
g1323
ag1324
ag1325
ag1326
ag1327
ag1328
asba(iMeme
Meme
p1330
(dp1331
g3
(lp1332
S'Email'
p1333
aS'her'
p1334
aS'to'
p1335
aS'ask'
p1336
aS'whether'
p1337
aS'the'
p1338
aS'assignment'
p1339
aS'is'
p1340
aS'due'
p1341
aS'this'
p1342
aS'week'
p1343
aS'or'
p1344
aS'next'
p1345
asg16
S'Email her to ask whether the assignment is due this week or next '
p1346
sg18
S' She replies "yes'
p1347
sg20
Vscumbag-teacher
p1348
sg22
(lp1349
g1333
ag1334
ag1335
ag1336
ag1337
ag1338
ag1339
ag1340
ag1341
ag1342
ag1343
ag1344
ag1345
aS'She'
p1350
aS'replies'
p1351
aS'``'
p1352
aS'yes'
p1353
asg25
(lp1354
g1350
ag1351
ag1352
ag1353
asba(iMeme
Meme
p1355
(dp1356
g3
(lp1357
S'you'
p1358
aS'ca'
p1359
aS"n't"
p1360
aS'just'
p1361
aS'throw'
p1362
ag34
aS'good'
p1363
aS'essay'
p1364
aS'together'
p1365
aS'in'
p1366
ag34
aS'couple'
p1367
aS'of'
p1368
aS'hours'
p1369
asg16
S"you can't just throw a good essay together in a couple of hours "
p1370
sg18
S' your final exam will be to write an essay in two hours'
p1371
sg20
Vscumbag-teacher
p1372
sg22
(lp1373
g1358
ag1359
ag1360
ag1361
ag1362
ag34
ag1363
ag1364
ag1365
ag1366
ag34
ag1367
ag1368
ag1369
aS'your'
p1374
aS'final'
p1375
aS'exam'
p1376
aS'will'
p1377
aS'be'
p1378
aS'to'
p1379
aS'write'
p1380
aS'an'
p1381
aS'essay'
p1382
aS'in'
p1383
aS'two'
p1384
aS'hours'
p1385
asg25
(lp1386
g1374
ag1375
ag1376
ag1377
ag1378
ag1379
ag1380
ag1381
ag1382
ag1383
ag1384
ag1385
asba(iMeme
Meme
p1387
(dp1388
g3
(lp1389
S'No'
p1390
aS'one'
p1391
aS'gets'
p1392
aS'100'
p1393
ag309
aS'in'
p1394
aS'my'
p1395
aS'class'
p1396
asg16
S'No one gets 100% in my class '
p1397
sg18
S' 100% is perfect, and no one is perfect'
p1398
sg20
Vscumbag-teacher
p1399
sg22
(lp1400
g1390
ag1391
ag1392
ag1393
ag309
ag1394
ag1395
ag1396
aS'100'
p1401
ag309
aS'is'
p1402
aS'perfect'
p1403
ag55
aS'and'
p1404
aS'no'
p1405
aS'one'
p1406
aS'is'
p1407
aS'perfect'
p1408
asg25
(lp1409
g1401
ag309
ag1402
ag1403
ag55
ag1404
ag1405
ag1406
ag1407
ag1408
asba(iMeme
Meme
p1410
(dp1411
g3
(lp1412
S'there'
p1413
aS'are'
p1414
aS'two'
p1415
aS'methods'
p1416
aS'for'
p1417
aS'how'
p1418
aS'to'
p1419
aS'do'
p1420
aS'this'
p1421
asg16
S'there are two methods for how to do this '
p1422
sg18
S" I'm going to teach you the hard one first even though the easy method works fine"
p1423
sg20
Vscumbag-teacher
p1424
sg22
(lp1425
g1413
ag1414
ag1415
ag1416
ag1417
ag1418
ag1419
ag1420
ag1421
ag5
aS"'m"
p1426
aS'going'
p1427
aS'to'
p1428
aS'teach'
p1429
aS'you'
p1430
aS'the'
p1431
aS'hard'
p1432
aS'one'
p1433
aS'first'
p1434
aS'even'
p1435
aS'though'
p1436
aS'the'
p1437
aS'easy'
p1438
aS'method'
p1439
aS'works'
p1440
aS'fine'
p1441
asg25
(lp1442
g5
ag1426
ag1427
ag1428
ag1429
ag1430
ag1431
ag1432
ag1433
ag1434
ag1435
ag1436
ag1437
ag1438
ag1439
ag1440
ag1441
asba(iMeme
Meme
p1443
(dp1444
g3
(lp1445
S'Gives'
p1446
aS'you'
p1447
aS'detention'
p1448
aS'for'
p1449
aS'being'
p1450
aS'late'
p1451
asg16
S'Gives you detention for being late '
p1452
sg18
S' Comes 5 minutes late to your detention'
p1453
sg20
Vscumbag-teacher
p1454
sg22
(lp1455
g1446
ag1447
ag1448
ag1449
ag1450
ag1451
aS'Comes'
p1456
ag1254
aS'minutes'
p1457
aS'late'
p1458
aS'to'
p1459
aS'your'
p1460
aS'detention'
p1461
asg25
(lp1462
g1456
ag1254
ag1457
ag1458
ag1459
ag1460
ag1461
asba(iMeme
Meme
p1463
(dp1464
g3
(lp1465
S'Lectures'
p1466
aS'about'
p1467
aS'wasting'
p1468
aS'time'
p1469
asg16
S'Lectures about wasting time '
p1470
sg18
S' For the whole class period'
p1471
sg20
Vscumbag-teacher
p1472
sg22
(lp1473
g1466
ag1467
ag1468
ag1469
aS'For'
p1474
aS'the'
p1475
aS'whole'
p1476
aS'class'
p1477
aS'period'
p1478
asg25
(lp1479
g1474
ag1475
ag1476
ag1477
ag1478
asba(iMeme
Meme
p1480
(dp1481
g3
(lp1482
S'Participation'
p1483
aS'is'
p1484
ag34
aS'major'
p1485
aS'part'
p1486
aS'of'
p1487
aS'your'
p1488
aS'grade'
p1489
asg16
S'Participation is a major part of your grade '
p1490
sg18
S' participation" = "Do I like you?'
p1491
sg20
Vscumbag-teacher
p1492
sg22
(lp1493
g1483
ag1484
ag34
ag1485
ag1486
ag1487
ag1488
ag1489
aS'participation'
p1494
aS"''"
p1495
aS'='
p1496
aS'``'
p1497
aS'Do'
p1498
ag5
aS'like'
p1499
aS'you'
p1500
ag145
asg25
(lp1501
g1494
ag1495
ag1496
ag1497
ag1498
ag5
ag1499
ag1500
ag145
asba(iMeme
Meme
p1502
(dp1503
g3
(lp1504
S'It'
p1505
aS'does'
p1506
aS"n't"
p1507
aS'matter'
p1508
aS'that'
p1509
aS'you'
p1510
aS'have'
p1511
aS'proven'
p1512
aS'your'
p1513
aS'knowledge'
p1514
aS'of'
p1515
aS'what'
p1516
aS'you'
p1517
aS'need'
p1518
aS'to'
p1519
aS'know'
p1520
asg16
S"It doesn't matter that you have proven your knowledge of what you need to know "
p1521
sg18
S" You didn't do the homework so you won't pass my class"
p1522
sg20
Vscumbag-teacher
p1523
sg22
(lp1524
g1505
ag1506
ag1507
ag1508
ag1509
ag1510
ag1511
ag1512
ag1513
ag1514
ag1515
ag1516
ag1517
ag1518
ag1519
ag1520
aS'You'
p1525
aS'did'
p1526
aS"n't"
p1527
aS'do'
p1528
aS'the'
p1529
aS'homework'
p1530
aS'so'
p1531
aS'you'
p1532
aS'wo'
p1533
aS"n't"
p1534
aS'pass'
p1535
aS'my'
p1536
aS'class'
p1537
asg25
(lp1538
g1525
ag1526
ag1527
ag1528
ag1529
ag1530
ag1531
ag1532
ag1533
ag1534
ag1535
ag1536
ag1537
asba(iMeme
Meme
p1539
(dp1540
g3
(lp1541
S'Oh'
p1542
ag55
aS'you'
p1543
aS'need'
p1544
aS'to'
p1545
aS'go'
p1546
aS'to'
p1547
aS'the'
p1548
aS'bathroom'
p1549
ag145
asg16
S'Oh, you need to go to the bathroom? '
p1550
sg18
S' there are only 20 minutes left in class, you can hold it.'
p1551
sg20
Vscumbag-teacher
p1552
sg22
(lp1553
g1542
ag55
ag1543
ag1544
ag1545
ag1546
ag1547
ag1548
ag1549
ag145
aS'there'
p1554
aS'are'
p1555
aS'only'
p1556
aS'20'
p1557
aS'minutes'
p1558
aS'left'
p1559
aS'in'
p1560
aS'class'
p1561
ag55
aS'you'
p1562
aS'can'
p1563
aS'hold'
p1564
aS'it'
p1565
ag15
asg25
(lp1566
g1554
ag1555
ag1556
ag1557
ag1558
ag1559
ag1560
ag1561
ag55
ag1562
ag1563
ag1564
ag1565
ag15
asba(iMeme
Meme
p1567
(dp1568
g3
(lp1569
S'You'
p1570
aS'wrote'
p1571
ag34
aS'paper'
p1572
aS'on'
p1573
aS'legalizing'
p1574
aS'marijuana'
p1575
ag145
asg16
S'You wrote a paper on legalizing marijuana? '
p1576
sg18
S' Calls your parents, the principal, and the police'
p1577
sg20
Vscumbag-teacher
p1578
sg22
(lp1579
g1570
ag1571
ag34
ag1572
ag1573
ag1574
ag1575
ag145
aS'Calls'
p1580
aS'your'
p1581
aS'parents'
p1582
ag55
aS'the'
p1583
aS'principal'
p1584
ag55
aS'and'
p1585
aS'the'
p1586
aS'police'
p1587
asg25
(lp1588
g1580
ag1581
ag1582
ag55
ag1583
ag1584
ag55
ag1585
ag1586
ag1587
asba(iMeme
Meme
p1589
(dp1590
g3
(lp1591
S'Ask'
p1592
aS'``'
p1593
aS'Can'
p1594
ag5
aS'go'
p1595
aS'to'
p1596
aS'the'
p1597
aS'bathroom'
p1598
ag145
asg16
S'Ask "Can I go to the bathroom? '
p1599
sg18
S" I don't know... can you?"
p1600
sg20
Vscumbag-teacher
p1601
sg22
(lp1602
g1592
ag1593
ag1594
ag5
ag1595
ag1596
ag1597
ag1598
ag145
ag5
aS'do'
p1603
aS"n't"
p1604
aS'know'
p1605
aS'...'
p1606
aS'can'
p1607
aS'you'
p1608
ag145
asg25
(lp1609
g5
ag1603
ag1604
ag1605
ag1606
ag1607
ag1608
ag145
asba(iMeme
Meme
p1610
(dp1611
g3
(lp1612
S'NO'
p1613
aS'drinks'
p1614
aS'in'
p1615
aS'my'
p1616
aS'class'
p1617
asg16
S'NO drinks in my class '
p1618
sg18
S' brings coffee everyday'
p1619
sg20
Vscumbag-teacher
p1620
sg22
(lp1621
g1613
ag1614
ag1615
ag1616
ag1617
aS'brings'
p1622
aS'coffee'
p1623
aS'everyday'
p1624
asg25
(lp1625
g1622
ag1623
ag1624
asba(iMeme
Meme
p1626
(dp1627
g3
(lp1628
S'Gives'
p1629
aS'you'
p1630
ag34
aS'worksheet'
p1631
aS'to'
p1632
aS'fill'
p1633
aS'out'
p1634
aS'during'
p1635
ag34
aS'movie'
p1636
ag15
asg16
S'Gives you a worksheet to fill out during a movie. '
p1637
sg18
S" Questions aren't in order."
p1638
sg20
Vscumbag-teacher
p1639
sg22
(lp1640
g1629
ag1630
ag34
ag1631
ag1632
ag1633
ag1634
ag1635
ag34
ag1636
ag15
aS'Questions'
p1641
aS'are'
p1642
aS"n't"
p1643
aS'in'
p1644
aS'order'
p1645
ag15
asg25
(lp1646
g1641
ag1642
ag1643
ag1644
ag1645
ag15
asba(iMeme
Meme
p1647
(dp1648
g3
(lp1649
S'Enjoy'
p1650
aS'your'
p1651
aS'holiday'
p1652
aS'break'
p1653
ag1075
asg16
S'Enjoy your holiday break! '
p1654
sg18
S' assigns homework and exam is scheduled for first day back'
p1655
sg20
Vscumbag-teacher
p1656
sg22
(lp1657
g1650
ag1651
ag1652
ag1653
ag1075
aS'assigns'
p1658
aS'homework'
p1659
aS'and'
p1660
aS'exam'
p1661
aS'is'
p1662
aS'scheduled'
p1663
aS'for'
p1664
aS'first'
p1665
aS'day'
p1666
aS'back'
p1667
asg25
(lp1668
g1658
ag1659
ag1660
ag1661
ag1662
ag1663
ag1664
ag1665
ag1666
ag1667
asba(iMeme
Meme
p1669
(dp1670
g3
(lp1671
S'Gives'
p1672
ag34
aS'presentation'
p1673
aS'about'
p1674
aS'not'
p1675
aS'plagiarizing'
p1676
aS'information'
p1677
asg16
S'Gives a presentation about not plagiarizing information  '
p1678
sg18
S' Steals presentation'
p1679
sg20
Vscumbag-teacher
p1680
sg22
(lp1681
g1672
ag34
ag1673
ag1674
ag1675
ag1676
ag1677
aS'Steals'
p1682
aS'presentation'
p1683
asg25
(lp1684
g1682
ag1683
asba(iMeme
Meme
p1685
(dp1686
g3
(lp1687
S'okay'
p1688
aS'class'
p1689
aS'let'
p1690
aS"'s"
p1691
aS'watch'
p1692
ag34
aS'movie'
p1693
asg16
S"okay class let's watch a movie "
p1694
sg18
S' leaves mouse hovering over play button'
p1695
sg20
Vscumbag-teacher
p1696
sg22
(lp1697
g1688
ag1689
ag1690
ag1691
ag1692
ag34
ag1693
aS'leaves'
p1698
aS'mouse'
p1699
aS'hovering'
p1700
aS'over'
p1701
aS'play'
p1702
aS'button'
p1703
asg25
(lp1704
g1698
ag1699
ag1700
ag1701
ag1702
ag1703
asba(iMeme
Meme
p1705
(dp1706
g3
(lp1707
S'You'
p1708
aS'wrote'
p1709
aS'this'
p1710
aS'paper'
p1711
aS'exactly'
p1712
aS'as'
p1713
ag5
aS'asked'
p1714
aS'and'
p1715
aS'checked'
p1716
aS'your'
p1717
aS'grammar'
p1718
aS'at'
p1719
aS'the'
p1720
aS'writing'
p1721
aS'center'
p1722
ag145
asg16
S'You wrote this paper exactly as I asked and checked your grammar at the writing center? '
p1723
sg18
S" No paper is perfect, I'll give you 96%"
p1724
sg20
Vscumbag-teacher
p1725
sg22
(lp1726
g1708
ag1709
ag1710
ag1711
ag1712
ag1713
ag5
ag1714
ag1715
ag1716
ag1717
ag1718
ag1719
ag1720
ag1721
ag1722
ag145
aS'No'
p1727
aS'paper'
p1728
aS'is'
p1729
aS'perfect'
p1730
ag55
ag5
aS"'ll"
p1731
aS'give'
p1732
aS'you'
p1733
aS'96'
p1734
ag309
asg25
(lp1735
g1727
ag1728
ag1729
ag1730
ag55
ag5
ag1731
ag1732
ag1733
ag1734
ag309
asba(iMeme
Meme
p1736
(dp1737
g3
(lp1738
S'Gives'
p1739
aS'Opinion'
p1740
aS'Question'
p1741
aS'On'
p1742
aS'Test'
p1743
asg16
S'Gives Opinion Question On Test '
p1744
sg18
S' Marks it wrong for not using her opinion'
p1745
sg20
Vscumbag-teacher
p1746
sg22
(lp1747
g1739
ag1740
ag1741
ag1742
ag1743
aS'Marks'
p1748
aS'it'
p1749
aS'wrong'
p1750
aS'for'
p1751
aS'not'
p1752
aS'using'
p1753
aS'her'
p1754
aS'opinion'
p1755
asg25
(lp1756
g1748
ag1749
ag1750
ag1751
ag1752
ag1753
ag1754
ag1755
asba(iMeme
Meme
p1757
(dp1758
g3
(lp1759
S'Complains'
p1760
aS'that'
p1761
aS'her'
p1762
aS'students'
p1763
aS'are'
p1764
aS'lazy'
p1765
aS'and'
p1766
aS'unmotivated'
p1767
asg16
S'Complains that her students are lazy and unmotivated '
p1768
sg18
S' Teaches exclusively via Powerpoint'
p1769
sg20
Vscumbag-teacher
p1770
sg22
(lp1771
g1760
ag1761
ag1762
ag1763
ag1764
ag1765
ag1766
ag1767
aS'Teaches'
p1772
aS'exclusively'
p1773
aS'via'
p1774
aS'Powerpoint'
p1775
asg25
(lp1776
g1772
ag1773
ag1774
ag1775
asba(iMeme
Meme
p1777
(dp1778
g3
(lp1779
S'Drops'
p1780
aS'letter'
p1781
aS'grade'
p1782
aS'for'
p1783
aS'day'
p1784
aS'late'
p1785
aS'paper'
p1786
asg16
S'Drops letter grade for day late paper '
p1787
sg18
S' Takes 3 weeks to grade scantron test'
p1788
sg20
Vscumbag-teacher
p1789
sg22
(lp1790
g1780
ag1781
ag1782
ag1783
ag1784
ag1785
ag1786
aS'Takes'
p1791
aS'3'
p1792
aS'weeks'
p1793
aS'to'
p1794
aS'grade'
p1795
aS'scantron'
p1796
aS'test'
p1797
asg25
(lp1798
g1791
ag1792
ag1793
ag1794
ag1795
ag1796
ag1797
asba(iMeme
Meme
p1799
(dp1800
g3
(lp1801
S'Creates'
p1802
aS'slide'
p1803
aS'show'
p1804
aS'with'
p1805
aS'important'
p1806
aS'notes'
p1807
asg16
S'Creates slide show with important notes '
p1808
sg18
S' Goes through them lightning fast'
p1809
sg20
Vscumbag-teacher
p1810
sg22
(lp1811
g1802
ag1803
ag1804
ag1805
ag1806
ag1807
aS'Goes'
p1812
aS'through'
p1813
aS'them'
p1814
aS'lightning'
p1815
aS'fast'
p1816
asg25
(lp1817
g1812
ag1813
ag1814
ag1815
ag1816
asba(iMeme
Meme
p1818
(dp1819
g3
(lp1820
S'while'
p1821
aS'you'
p1822
aS'understand'
p1823
aS'everything'
p1824
aS'exceptionally'
p1825
asg16
S'while you understand everything exceptionally '
p1826
sg18
S" you didn't do it my way"
p1827
sg20
Vscumbag-teacher
p1828
sg22
(lp1829
g1821
ag1822
ag1823
ag1824
ag1825
aS'you'
p1830
aS'did'
p1831
aS"n't"
p1832
aS'do'
p1833
aS'it'
p1834
aS'my'
p1835
aS'way'
p1836
asg25
(lp1837
g1830
ag1831
ag1832
ag1833
ag1834
ag1835
ag1836
asba(iMeme
Meme
p1838
(dp1839
g3
(lp1840
S'Gives'
p1841
aS'you'
p1842
aS'extra'
p1843
aS'homework'
p1844
aS'to'
p1845
aS'do'
p1846
aS'over'
p1847
aS'the'
p1848
aS'three'
p1849
aS'day'
p1850
aS'weekend'
p1851
asg16
S'Gives you extra homework to do over the three day weekend '
p1852
sg18
S" doesn't grade last week's test over the three day weekend"
p1853
sg20
Vscumbag-teacher
p1854
sg22
(lp1855
g1841
ag1842
ag1843
ag1844
ag1845
ag1846
ag1847
ag1848
ag1849
ag1850
ag1851
aS'does'
p1856
aS"n't"
p1857
aS'grade'
p1858
aS'last'
p1859
aS'week'
p1860
aS"'s"
p1861
aS'test'
p1862
aS'over'
p1863
aS'the'
p1864
aS'three'
p1865
aS'day'
p1866
aS'weekend'
p1867
asg25
(lp1868
g1856
ag1857
ag1858
ag1859
ag1860
ag1861
ag1862
ag1863
ag1864
ag1865
ag1866
ag1867
asba(iMeme
Meme
p1869
(dp1870
g3
(lp1871
S'we'
p1872
aS'have'
p1873
ag1254
aS'more'
p1874
aS'minutes'
p1875
aS'left'
p1876
aS'in'
p1877
aS'class'
p1878
asg16
S'we have 5 more minutes left in class '
p1879
sg18
S' lets take a look at the next chapter'
p1880
sg20
Vscumbag-teacher
p1881
sg22
(lp1882
g1872
ag1873
ag1254
ag1874
ag1875
ag1876
ag1877
ag1878
aS'lets'
p1883
aS'take'
p1884
ag34
aS'look'
p1885
aS'at'
p1886
aS'the'
p1887
aS'next'
p1888
aS'chapter'
p1889
asg25
(lp1890
g1883
ag1884
ag34
ag1885
ag1886
ag1887
ag1888
ag1889
asba(iMeme
Meme
p1891
(dp1892
g3
(lp1893
S'Promotes'
p1894
aS'creativity'
p1895
asg16
S'Promotes creativity  '
p1896
sg18
S" Fails anyone who doesn't follow directions"
p1897
sg20
Vscumbag-teacher
p1898
sg22
(lp1899
g1894
ag1895
aS'Fails'
p1900
aS'anyone'
p1901
aS'who'
p1902
aS'does'
p1903
aS"n't"
p1904
aS'follow'
p1905
aS'directions'
p1906
asg25
(lp1907
g1900
ag1901
ag1902
ag1903
ag1904
ag1905
ag1906
asba(iMeme
Meme
p1908
(dp1909
g3
(lp1910
S'Punishes'
p1911
aS'those'
p1912
aS'with'
p1913
aS'phones'
p1914
aS'in'
p1915
aS'class'
p1916
ag15
asg16
S'Punishes those with phones in class. '
p1917
sg18
S' Answers her phone in class.'
p1918
sg20
Vscumbag-teacher
p1919
sg22
(lp1920
g1911
ag1912
ag1913
ag1914
ag1915
ag1916
ag15
aS'Answers'
p1921
aS'her'
p1922
aS'phone'
p1923
aS'in'
p1924
aS'class'
p1925
ag15
asg25
(lp1926
g1921
ag1922
ag1923
ag1924
ag1925
ag15
asba(iMeme
Meme
p1927
(dp1928
g3
(lp1929
S'Loses'
p1930
aS'argument'
p1931
aS'with'
p1932
aS'student'
p1933
asg16
S'Loses argument with student '
p1934
sg18
S' Sends him out'
p1935
sg20
Vscumbag-teacher
p1936
sg22
(lp1937
g1930
ag1931
ag1932
ag1933
aS'Sends'
p1938
aS'him'
p1939
aS'out'
p1940
asg25
(lp1941
g1938
ag1939
ag1940
asba(iMeme
Meme
p1942
(dp1943
g3
(lp1944
S'stop'
p1945
aS'packing'
p1946
aS'your'
p1947
aS'bags'
p1948
asg16
S'stop packing your bags '
p1949
sg18
S" there's still five seconds of class left"
p1950
sg20
Vscumbag-teacher
p1951
sg22
(lp1952
g1945
ag1946
ag1947
ag1948
aS'there'
p1953
aS"'s"
p1954
aS'still'
p1955
aS'five'
p1956
aS'seconds'
p1957
aS'of'
p1958
aS'class'
p1959
aS'left'
p1960
asg25
(lp1961
g1953
ag1954
ag1955
ag1956
ag1957
ag1958
ag1959
ag1960
asba(iMeme
Meme
p1962
(dp1963
g3
(lp1964
S'does'
p1965
aS"n't"
p1966
aS'notice'
p1967
aS'other'
p1968
aS'students'
p1969
aS'constantly'
p1970
aS'cheating'
p1971
asg16
S"doesn't notice other students constantly cheating "
p1972
sg18
S' yells at you for not having your book covered'
p1973
sg20
Vscumbag-teacher
p1974
sg22
(lp1975
g1965
ag1966
ag1967
ag1968
ag1969
ag1970
ag1971
aS'yells'
p1976
aS'at'
p1977
aS'you'
p1978
aS'for'
p1979
aS'not'
p1980
aS'having'
p1981
aS'your'
p1982
aS'book'
p1983
aS'covered'
p1984
asg25
(lp1985
g1976
ag1977
ag1978
ag1979
ag1980
ag1981
ag1982
ag1983
ag1984
asba(iMeme
Meme
p1986
(dp1987
g3
(lp1988
S'While'
p1989
aS'that'
p1990
aS'is'
p1991
aS'correct'
p1992
ag55
asg16
S'While that is correct, '
p1993
sg18
S' Its not the *most* correct answer'
p1994
sg20
Vscumbag-teacher
p1995
sg22
(lp1996
g1989
ag1990
ag1991
ag1992
ag55
aS'Its'
p1997
aS'not'
p1998
aS'the'
p1999
aS'*most*'
p2000
aS'correct'
p2001
aS'answer'
p2002
asg25
(lp2003
g1997
ag1998
ag1999
ag2000
ag2001
ag2002
asba(iMeme
Meme
p2004
(dp2005
g3
(lp2006
S'you'
p2007
aS'ca'
p2008
aS"n't"
p2009
aS'figure'
p2010
aS'out'
p2011
aS'#'
p2012
aS'7'
p2013
ag145
asg16
S"you can't figure out #7? "
p2014
sg18
S' come up to the whiteboard and figure it out yourself while the whole class mocks your stupidity'
p2015
sg20
Vscumbag-teacher
p2016
sg22
(lp2017
g2007
ag2008
ag2009
ag2010
ag2011
ag2012
ag2013
ag145
aS'come'
p2018
aS'up'
p2019
aS'to'
p2020
aS'the'
p2021
aS'whiteboard'
p2022
aS'and'
p2023
aS'figure'
p2024
aS'it'
p2025
aS'out'
p2026
aS'yourself'
p2027
aS'while'
p2028
aS'the'
p2029
aS'whole'
p2030
aS'class'
p2031
aS'mocks'
p2032
aS'your'
p2033
aS'stupidity'
p2034
asg25
(lp2035
g2018
ag2019
ag2020
ag2021
ag2022
ag2023
ag2024
ag2025
ag2026
ag2027
ag2028
ag2029
ag2030
ag2031
ag2032
ag2033
ag2034
asba(iMeme
Meme
p2036
(dp2037
g3
(lp2038
S'Spelling'
p2039
aS'counts'
p2040
asg16
S'Spelling counts '
p2041
sg18
S' test has misspelled words on it'
p2042
sg20
Vscumbag-teacher
p2043
sg22
(lp2044
g2039
ag2040
aS'test'
p2045
aS'has'
p2046
aS'misspelled'
p2047
aS'words'
p2048
aS'on'
p2049
aS'it'
p2050
asg25
(lp2051
g2045
ag2046
ag2047
ag2048
ag2049
ag2050
asba(iMeme
Meme
p2052
(dp2053
g3
(lp2054
S'Tells'
p2055
aS'Class'
p2056
aS'to'
p2057
aS'Dissect'
p2058
aS'The'
p2059
aS'Frogs'
p2060
asg16
S'Tells Class to Dissect The Frogs '
p2061
sg18
S' Runs out of time, Tells them to bring it back tommorow'
p2062
sg20
Vscumbag-teacher
p2063
sg22
(lp2064
g2055
ag2056
ag2057
ag2058
ag2059
ag2060
aS'Runs'
p2065
aS'out'
p2066
aS'of'
p2067
aS'time'
p2068
ag55
aS'Tells'
p2069
aS'them'
p2070
aS'to'
p2071
aS'bring'
p2072
aS'it'
p2073
aS'back'
p2074
aS'tommorow'
p2075
asg25
(lp2076
g2065
ag2066
ag2067
ag2068
ag55
ag2069
ag2070
ag2071
ag2072
ag2073
ag2074
ag2075
asba(iMeme
Meme
p2077
(dp2078
g3
(lp2079
S'first'
p2080
aS'day'
p2081
aS'of'
p2082
aS'class'
p2083
asg16
S'first day of class '
p2084
sg18
S' You probably won\'t get an "A" in this course'
p2085
sg20
Vscumbag-teacher
p2086
sg22
(lp2087
g2080
ag2081
ag2082
ag2083
aS'You'
p2088
aS'probably'
p2089
aS'wo'
p2090
aS"n't"
p2091
aS'get'
p2092
aS'an'
p2093
aS'``'
p2094
aS'A'
p2095
aS"''"
p2096
aS'in'
p2097
aS'this'
p2098
aS'course'
p2099
asg25
(lp2100
g2088
ag2089
ag2090
ag2091
ag2092
ag2093
ag2094
ag2095
ag2096
ag2097
ag2098
ag2099
asba(iMeme
Meme
p2101
(dp2102
g3
(lp2103
S'Do'
p2104
aS"n't"
p2105
aS'know'
p2106
aS'how'
p2107
aS'to'
p2108
aS'spell'
p2109
ag34
aS'word'
p2110
ag145
asg16
S"Don't know how to spell a word? "
p2111
sg18
S' Look it up in the dictionary'
p2112
sg20
Vscumbag-teacher
p2113
sg22
(lp2114
g2104
ag2105
ag2106
ag2107
ag2108
ag2109
ag34
ag2110
ag145
aS'Look'
p2115
aS'it'
p2116
aS'up'
p2117
aS'in'
p2118
aS'the'
p2119
aS'dictionary'
p2120
asg25
(lp2121
g2115
ag2116
ag2117
ag2118
ag2119
ag2120
asba(iMeme
Meme
p2122
(dp2123
g3
(lp2124
S'This'
p2125
aS'will'
p2126
aS'be'
p2127
aS'on'
p2128
aS'the'
p2129
aS'test'
p2130
ag1075
asg16
S'This will be on the test! '
p2131
sg18
S" It's not."
p2132
sg20
Vscumbag-teacher
p2133
sg22
(lp2134
g2125
ag2126
ag2127
ag2128
ag2129
ag2130
ag1075
aS'It'
p2135
aS"'s"
p2136
aS'not'
p2137
ag15
asg25
(lp2138
g2135
ag2136
ag2137
ag15
asba(iMeme
Meme
p2139
(dp2140
g3
(lp2141
S'everyone'
p2142
aS'has'
p2143
aS'their'
p2144
aS'hand'
p2145
aS'up'
p2146
aS'but'
p2147
aS'you'
p2148
ag145
asg16
S'everyone has their hand up but you? '
p2149
sg18
S' calls on you anyway'
p2150
sg20
Vscumbag-teacher
p2151
sg22
(lp2152
g2142
ag2143
ag2144
ag2145
ag2146
ag2147
ag2148
ag145
aS'calls'
p2153
aS'on'
p2154
aS'you'
p2155
aS'anyway'
p2156
asg25
(lp2157
g2153
ag2154
ag2155
ag2156
asba(iMeme
Meme
p2158
(dp2159
g3
(lp2160
S'Plans'
p2161
aS'to'
p2162
aS'cancel'
p2163
aS'class'
p2164
asg16
S'Plans to cancel class '
p2165
sg18
S' Sends out email 30 minutes before class'
p2166
sg20
Vscumbag-teacher
p2167
sg22
(lp2168
g2161
ag2162
ag2163
ag2164
aS'Sends'
p2169
aS'out'
p2170
aS'email'
p2171
aS'30'
p2172
aS'minutes'
p2173
aS'before'
p2174
aS'class'
p2175
asg25
(lp2176
g2169
ag2170
ag2171
ag2172
ag2173
ag2174
ag2175
asba(iMeme
Meme
p2177
(dp2178
g3
(lp2179
S'can'
p2180
ag202
aS'go'
p2181
aS'to'
p2182
aS'the'
p2183
aS'bathroom'
p2184
ag145
asg16
S'can i go to the bathroom? '
p2185
sg18
S' idk....can you???'
p2186
sg20
Vscumbag-teacher
p2187
sg22
(lp2188
g2180
ag202
ag2181
ag2182
ag2183
ag2184
ag145
aS'idk'
p2189
aS'...'
p2190
aS'.can'
p2191
aS'you'
p2192
ag145
ag145
ag145
asg25
(lp2193
g2189
ag2190
ag2191
ag2192
ag145
ag145
ag145
asba(iMeme
Meme
p2194
(dp2195
g3
(lp2196
S'student'
p2197
aS'points'
p2198
aS'out'
p2199
ag34
aS'mistake'
p2200
aS'in'
p2201
aS'her'
p2202
aS'exam'
p2203
asg16
S'student points out a mistake in her exam '
p2204
sg18
S' Lectures class about respecting your elders'
p2205
sg20
Vscumbag-teacher
p2206
sg22
(lp2207
g2197
ag2198
ag2199
ag34
ag2200
ag2201
ag2202
ag2203
aS'Lectures'
p2208
aS'class'
p2209
aS'about'
p2210
aS'respecting'
p2211
aS'your'
p2212
aS'elders'
p2213
asg25
(lp2214
g2208
ag2209
ag2210
ag2211
ag2212
ag2213
asba(iMeme
Meme
p2215
(dp2216
g3
(lp2217
S'Marks'
p2218
aS'deducted'
p2219
aS'for'
p2220
aS'not'
p2221
aS'writing'
p2222
aS'units'
p2223
asg16
S'Marks deducted for not writing units '
p2224
sg18
S' Answer is zero'
p2225
sg20
Vscumbag-teacher
p2226
sg22
(lp2227
g2218
ag2219
ag2220
ag2221
ag2222
ag2223
aS'Answer'
p2228
aS'is'
p2229
aS'zero'
p2230
asg25
(lp2231
g2228
ag2229
ag2230
asba(iMeme
Meme
p2232
(dp2233
g3
(lp2234
S'Unfortunately'
p2235
ag5
aS'do'
p2236
aS"n't"
p2237
aS'have'
p2238
aS'your'
p2239
aS'tests'
p2240
aS'back'
p2241
aS'as'
p2242
ag5
aS'still'
p2243
aS'need'
p2244
aS'to'
p2245
aS'grade'
p2246
aS'all'
p2247
aS'45'
p2248
aS'of'
p2249
aS'them'
p2250
asg16
S"Unfortunately I don't have your tests back as I still need to grade all 45 of them "
p2251
sg18
S' scantrons'
p2252
sg20
Vscumbag-teacher
p2253
sg22
(lp2254
g2235
ag5
ag2236
ag2237
ag2238
ag2239
ag2240
ag2241
ag2242
ag5
ag2243
ag2244
ag2245
ag2246
ag2247
ag2248
ag2249
ag2250
aS'scantrons'
p2255
asg25
(lp2256
g2255
asba(iMeme
Meme
p2257
(dp2258
g3
(lp2259
g5
aS'do'
p2260
aS'not'
p2261
aS'accept'
p2262
aS'late'
p2263
aS'work'
p2264
aS'under'
p2265
aS'any'
p2266
aS'circumstances'
p2267
asg16
S'I do not accept late work under any circumstances '
p2268
sg18
S' takes three fucking weeks to grade exams'
p2269
sg20
Vscumbag-teacher
p2270
sg22
(lp2271
g5
ag2260
ag2261
ag2262
ag2263
ag2264
ag2265
ag2266
ag2267
aS'takes'
p2272
aS'three'
p2273
aS'fucking'
p2274
aS'weeks'
p2275
aS'to'
p2276
aS'grade'
p2277
aS'exams'
p2278
asg25
(lp2279
g2272
ag2273
ag2274
ag2275
ag2276
ag2277
ag2278
asba(iMeme
Meme
p2280
(dp2281
g3
(lp2282
S'ASks'
p2283
aS'extrodinarily'
p2284
aS'obvious'
p2285
aS'question'
p2286
asg16
S'ASks extrodinarily obvious question '
p2287
sg18
S" gets angry when there's no enthusiastic answer from everybody in the class"
p2288
sg20
Vscumbag-teacher
p2289
sg22
(lp2290
g2283
ag2284
ag2285
ag2286
aS'gets'
p2291
aS'angry'
p2292
aS'when'
p2293
aS'there'
p2294
aS"'s"
p2295
aS'no'
p2296
aS'enthusiastic'
p2297
aS'answer'
p2298
aS'from'
p2299
aS'everybody'
p2300
aS'in'
p2301
aS'the'
p2302
aS'class'
p2303
asg25
(lp2304
g2291
ag2292
ag2293
ag2294
ag2295
ag2296
ag2297
ag2298
ag2299
ag2300
ag2301
ag2302
ag2303
asba(iMeme
Meme
p2305
(dp2306
g3
(lp2307
S'There'
p2308
aS'is'
p2309
aS'no'
p2310
aS'right'
p2311
aS'or'
p2312
aS'wrong'
p2313
aS'answer'
p2314
aS'as'
p2315
aS'long'
p2316
aS'as'
p2317
aS'you'
p2318
aS'provide'
p2319
aS'support'
p2320
aS'for'
p2321
aS'your'
p2322
aS'claim'
p2323
asg16
S'There is no right or wrong answer as long as you provide support for your claim '
p2324
sg18
S" marks you wrong because you don't share her opinion"
p2325
sg20
Vscumbag-teacher
p2326
sg22
(lp2327
g2308
ag2309
ag2310
ag2311
ag2312
ag2313
ag2314
ag2315
ag2316
ag2317
ag2318
ag2319
ag2320
ag2321
ag2322
ag2323
aS'marks'
p2328
aS'you'
p2329
aS'wrong'
p2330
aS'because'
p2331
aS'you'
p2332
aS'do'
p2333
aS"n't"
p2334
aS'share'
p2335
aS'her'
p2336
aS'opinion'
p2337
asg25
(lp2338
g2328
ag2329
ag2330
ag2331
ag2332
ag2333
ag2334
ag2335
ag2336
ag2337
asba(iMeme
Meme
p2339
(dp2340
g3
(lp2341
S'Just'
p2342
aS'because'
p2343
aS'you'
p2344
aS'guys'
p2345
aS'are'
p2346
aS'going'
p2347
aS'on'
p2348
aS'break'
p2349
asg16
S'Just because you guys are going on break '
p2350
sg18
S' Doesnt mean you dont have homework'
p2351
sg20
Vscumbag-teacher
p2352
sg22
(lp2353
g2342
ag2343
ag2344
ag2345
ag2346
ag2347
ag2348
ag2349
aS'Doesnt'
p2354
aS'mean'
p2355
aS'you'
p2356
aS'dont'
p2357
aS'have'
p2358
aS'homework'
p2359
asg25
(lp2360
g2354
ag2355
ag2356
ag2357
ag2358
ag2359
asba(iMeme
Meme
p2361
(dp2362
g3
(lp2363
S'sends'
p2364
aS'mass'
p2365
aS'email'
p2366
aS'reminding'
p2367
aS'everyone'
p2368
aS'toCome'
p2369
aS'to'
p2370
aS'class'
p2371
aS'on'
p2372
aS'time'
p2373
asg16
S'sends mass email reminding everyone toCome to class on time '
p2374
sg18
S' room is locked, arrives late'
p2375
sg20
Vscumbag-teacher
p2376
sg22
(lp2377
g2364
ag2365
ag2366
ag2367
ag2368
ag2369
ag2370
ag2371
ag2372
ag2373
aS'room'
p2378
aS'is'
p2379
aS'locked'
p2380
ag55
aS'arrives'
p2381
aS'late'
p2382
asg25
(lp2383
g2378
ag2379
ag2380
ag55
ag2381
ag2382
asba(iMeme
Meme
p2384
(dp2385
g3
(lp2386
S'You'
p2387
aS'prove'
p2388
aS'her'
p2389
aS'wrong'
p2390
asg16
S'You prove her wrong '
p2391
sg18
S' Has it out for you for the rest of the year'
p2392
sg20
Vscumbag-teacher
p2393
sg22
(lp2394
g2387
ag2388
ag2389
ag2390
aS'Has'
p2395
aS'it'
p2396
aS'out'
p2397
aS'for'
p2398
aS'you'
p2399
aS'for'
p2400
aS'the'
p2401
aS'rest'
p2402
aS'of'
p2403
aS'the'
p2404
aS'year'
p2405
asg25
(lp2406
g2395
ag2396
ag2397
ag2398
ag2399
ag2400
ag2401
ag2402
ag2403
ag2404
ag2405
asba(iMeme
Meme
p2407
(dp2408
g3
(lp2409
S'entire'
p2410
aS'lesson'
p2411
aS'on'
p2412
aS'projector'
p2413
asg16
S'entire lesson on projector '
p2414
sg18
S" can't figure out how to turn it on"
p2415
sg20
Vscumbag-teacher
p2416
sg22
(lp2417
g2410
ag2411
ag2412
ag2413
aS'ca'
p2418
aS"n't"
p2419
aS'figure'
p2420
aS'out'
p2421
aS'how'
p2422
aS'to'
p2423
aS'turn'
p2424
aS'it'
p2425
aS'on'
p2426
asg25
(lp2427
g2418
ag2419
ag2420
ag2421
ag2422
ag2423
ag2424
ag2425
ag2426
asba(iMeme
Meme
p2428
(dp2429
g3
(lp2430
S'Ask'
p2431
aS'to'
p2432
aS'go'
p2433
aS'to'
p2434
aS'restroom'
p2435
aS'during'
p2436
aS'Spanish'
p2437
aS'class'
p2438
asg16
S'Ask to go to restroom during Spanish class '
p2439
sg18
S' En espanol por favor!'
p2440
sg20
Vscumbag-teacher
p2441
sg22
(lp2442
g2431
ag2432
ag2433
ag2434
ag2435
ag2436
ag2437
ag2438
aS'En'
p2443
aS'espanol'
p2444
aS'por'
p2445
aS'favor'
p2446
ag1075
asg25
(lp2447
g2443
ag2444
ag2445
ag2446
ag1075
asba(iMeme
Meme
p2448
(dp2449
g3
(lp2450
S'Can'
p2451
ag202
aS'go'
p2452
aS'to'
p2453
aS'the'
p2454
aS'bathroom'
p2455
ag145
asg16
S'Can i go to the bathroom? '
p2456
sg18
S' Is it an emergency?'
p2457
sg20
Vscumbag-teacher
p2458
sg22
(lp2459
g2451
ag202
ag2452
ag2453
ag2454
ag2455
ag145
aS'Is'
p2460
aS'it'
p2461
aS'an'
p2462
aS'emergency'
p2463
ag145
asg25
(lp2464
g2460
ag2461
ag2462
ag2463
ag145
asba(iMeme
Meme
p2465
(dp2466
g3
(lp2467
S'Gives'
p2468
aS'you'
p2469
ag34
aS'99'
p2470
ag309
aS'when'
p2471
aS'you'
p2472
aS'got'
p2473
aS'every'
p2474
aS'question'
p2475
aS'right'
p2476
asg16
S'Gives you a 99% when you got every question right '
p2477
sg18
S" there's always room for improvement"
p2478
sg20
Vscumbag-teacher
p2479
sg22
(lp2480
g2468
ag2469
ag34
ag2470
ag309
ag2471
ag2472
ag2473
ag2474
ag2475
ag2476
aS'there'
p2481
aS"'s"
p2482
aS'always'
p2483
aS'room'
p2484
aS'for'
p2485
aS'improvement'
p2486
asg25
(lp2487
g2481
ag2482
ag2483
ag2484
ag2485
ag2486
asba(iMeme
Meme
p2488
(dp2489
g3
(lp2490
S'imposes'
p2491
aS'strict'
p2492
aS'deadlines'
p2493
aS'on'
p2494
aS'assignment'
p2495
asg16
S'imposes strict deadlines on assignment '
p2496
sg18
S' takes a month to grade it, expects you to be patient'
p2497
sg20
Vscumbag-teacher
p2498
sg22
(lp2499
g2491
ag2492
ag2493
ag2494
ag2495
aS'takes'
p2500
ag34
aS'month'
p2501
aS'to'
p2502
aS'grade'
p2503
aS'it'
p2504
ag55
aS'expects'
p2505
aS'you'
p2506
aS'to'
p2507
aS'be'
p2508
aS'patient'
p2509
asg25
(lp2510
g2500
ag34
ag2501
ag2502
ag2503
ag2504
ag55
ag2505
ag2506
ag2507
ag2508
ag2509
asba(iMeme
Meme
p2511
(dp2512
g3
(lp2513
S'Project'
p2514
aS'due'
p2515
asg16
S'Project due '
p2516
sg18
S' the monday after thanksgiving'
p2517
sg20
Vscumbag-teacher
p2518
sg22
(lp2519
g2514
ag2515
aS'the'
p2520
aS'monday'
p2521
aS'after'
p2522
aS'thanksgiving'
p2523
asg25
(lp2524
g2520
ag2521
ag2522
ag2523
asba(iMeme
Meme
p2525
(dp2526
g3
(lp2527
S'May'
p2528
ag5
aS'ask'
p2529
ag34
aS'question'
p2530
ag145
asg16
S'May I ask a question? '
p2531
sg18
S' You just did'
p2532
sg20
Vscumbag-teacher
p2533
sg22
(lp2534
g2528
ag5
ag2529
ag34
ag2530
ag145
aS'You'
p2535
aS'just'
p2536
aS'did'
p2537
asg25
(lp2538
g2535
ag2536
ag2537
asba(iMeme
Meme
p2539
(dp2540
g3
(lp2541
S'Participation'
p2542
aS'is'
p2543
aS'20'
p2544
ag309
aS'of'
p2545
aS'your'
p2546
aS'semester'
p2547
aS'grade'
p2548
asg16
S'Participation is 20% of your semester grade '
p2549
sg18
S' Never calls on you'
p2550
sg20
Vscumbag-teacher
p2551
sg22
(lp2552
g2542
ag2543
ag2544
ag309
ag2545
ag2546
ag2547
ag2548
aS'Never'
p2553
aS'calls'
p2554
aS'on'
p2555
aS'you'
p2556
asg25
(lp2557
g2553
ag2554
ag2555
ag2556
asba(iMeme
Meme
p2558
(dp2559
g3
(lp2560
g5
aS"'ll"
p2561
aS'be'
p2562
aS'handing'
p2563
aS'the'
p2564
aS'exam'
p2565
aS'back'
p2566
aS'today'
p2567
asg16
S"I'll be handing the exam back today "
p2568
sg18
S' After lecture'
p2569
sg20
Vscumbag-teacher
p2570
sg22
(lp2571
g5
ag2561
ag2562
ag2563
ag2564
ag2565
ag2566
ag2567
aS'After'
p2572
aS'lecture'
p2573
asg25
(lp2574
g2572
ag2573
asba(iMeme
Meme
p2575
(dp2576
g3
(lp2577
S'says'
p2578
aS'No'
p2579
aS'cell'
p2580
aS'phones'
p2581
aS'during'
p2582
aS'class'
p2583
asg16
S'says No cell phones during class '
p2584
sg18
S' Her phone rings every damn day'
p2585
sg20
Vscumbag-teacher
p2586
sg22
(lp2587
g2578
ag2579
ag2580
ag2581
ag2582
ag2583
aS'Her'
p2588
aS'phone'
p2589
aS'rings'
p2590
aS'every'
p2591
aS'damn'
p2592
aS'day'
p2593
asg25
(lp2594
g2588
ag2589
ag2590
ag2591
ag2592
ag2593
asba(iMeme
Meme
p2595
(dp2596
g3
(lp2597
S'Sees'
p2598
aS'two'
p2599
aS'students'
p2600
aS'quietly'
p2601
aS'talking'
p2602
asg16
S'Sees two students quietly talking '
p2603
sg18
S" stops teaching to complain for 10 minutes about how disruptive they're being"
p2604
sg20
Vscumbag-teacher
p2605
sg22
(lp2606
g2598
ag2599
ag2600
ag2601
ag2602
aS'stops'
p2607
aS'teaching'
p2608
aS'to'
p2609
aS'complain'
p2610
aS'for'
p2611
aS'10'
p2612
aS'minutes'
p2613
aS'about'
p2614
aS'how'
p2615
aS'disruptive'
p2616
aS'they'
p2617
aS"'re"
p2618
aS'being'
p2619
asg25
(lp2620
g2607
ag2608
ag2609
ag2610
ag2611
ag2612
ag2613
ag2614
ag2615
ag2616
ag2617
ag2618
ag2619
asba(iMeme
Meme
p2621
(dp2622
g3
(lp2623
S'assigns'
p2624
aS'lots'
p2625
aS'of'
p2626
aS'homework'
p2627
asg16
S'assigns lots of homework '
p2628
sg18
S" too lazy to grade, doesn't check it"
p2629
sg20
Vscumbag-teacher
p2630
sg22
(lp2631
g2624
ag2625
ag2626
ag2627
aS'too'
p2632
aS'lazy'
p2633
aS'to'
p2634
aS'grade'
p2635
ag55
aS'does'
p2636
aS"n't"
p2637
aS'check'
p2638
aS'it'
p2639
asg25
(lp2640
g2632
ag2633
ag2634
ag2635
ag55
ag2636
ag2637
ag2638
ag2639
asba(iMeme
Meme
p2641
(dp2642
g3
(lp2643
g1792
aS'day'
p2644
aS'weekend'
p2645
ag145
asg16
S'3 day weekend? '
p2646
sg18
S' 10 times the homework'
p2647
sg20
Vscumbag-teacher
p2648
sg22
(lp2649
g1792
ag2644
ag2645
ag145
aS'10'
p2650
aS'times'
p2651
aS'the'
p2652
aS'homework'
p2653
asg25
(lp2654
g2650
ag2651
ag2652
ag2653
asba(iMeme
Meme
p2655
(dp2656
g3
(lp2657
S'Hmm'
p2658
ag202
aS'dont'
p2659
aS'know'
p2660
aS'the'
p2661
aS'answer'
p2662
aS'to'
p2663
aS'that'
p2664
aS'question'
p2665
asg16
S'Hmm i dont know the answer to that question '
p2666
sg18
S' why dont you write a paper about it and present it to the class tomorrow?'
p2667
sg20
Vscumbag-teacher
p2668
sg22
(lp2669
g2658
ag202
ag2659
ag2660
ag2661
ag2662
ag2663
ag2664
ag2665
aS'why'
p2670
aS'dont'
p2671
aS'you'
p2672
aS'write'
p2673
ag34
aS'paper'
p2674
aS'about'
p2675
aS'it'
p2676
aS'and'
p2677
aS'present'
p2678
aS'it'
p2679
aS'to'
p2680
aS'the'
p2681
aS'class'
p2682
aS'tomorrow'
p2683
ag145
asg25
(lp2684
g2670
ag2671
ag2672
ag2673
ag34
ag2674
ag2675
ag2676
ag2677
ag2678
ag2679
ag2680
ag2681
ag2682
ag2683
ag145
asba(iMeme
Meme
p2685
(dp2686
g3
(lp2687
S'When'
p2688
aS'Asked'
p2689
ag34
aS'Question'
p2690
asg16
S'When Asked a Question '
p2691
sg18
S' Just tells you to look in the book'
p2692
sg20
Vscumbag-teacher
p2693
sg22
(lp2694
g2688
ag2689
ag34
ag2690
aS'Just'
p2695
aS'tells'
p2696
aS'you'
p2697
aS'to'
p2698
aS'look'
p2699
aS'in'
p2700
aS'the'
p2701
aS'book'
p2702
asg25
(lp2703
g2695
ag2696
ag2697
ag2698
ag2699
ag2700
ag2701
ag2702
asba(iMeme
Meme
p2704
(dp2705
g3
(lp2706
S'Says'
p2707
aS'wikipedia'
p2708
aS'is'
p2709
aS'not'
p2710
ag34
aS'reliable'
p2711
aS'resource'
p2712
asg16
S'Says wikipedia is not a reliable resource '
p2713
sg18
S' Opens browser, filled with wikipedia'
p2714
sg20
Vscumbag-teacher
p2715
sg22
(lp2716
g2707
ag2708
ag2709
ag2710
ag34
ag2711
ag2712
aS'Opens'
p2717
aS'browser'
p2718
ag55
aS'filled'
p2719
aS'with'
p2720
aS'wikipedia'
p2721
asg25
(lp2722
g2717
ag2718
ag55
ag2719
ag2720
ag2721
asba(iMeme
Meme
p2723
(dp2724
g3
(lp2725
S'Asks'
p2726
aS'how'
p2727
aS'long'
p2728
aS'the'
p2729
aS'paper'
p2730
aS'should'
p2731
aS'be'
p2732
asg16
S'Asks how long the paper should be '
p2733
sg18
S' As long as It needs to be'
p2734
sg20
Vscumbag-teacher
p2735
sg22
(lp2736
g2726
ag2727
ag2728
ag2729
ag2730
ag2731
ag2732
aS'As'
p2737
aS'long'
p2738
aS'as'
p2739
aS'It'
p2740
aS'needs'
p2741
aS'to'
p2742
aS'be'
p2743
asg25
(lp2744
g2737
ag2738
ag2739
ag2740
ag2741
ag2742
ag2743
asba(iMeme
Meme
p2745
(dp2746
g3
(lp2747
S'Late'
p2748
aS'Again'
p2749
ag145
asg16
S'Late Again? '
p2750
sg18
S' 3 tardies is an absense'
p2751
sg20
Vscumbag-teacher
p2752
sg22
(lp2753
g2748
ag2749
ag145
ag1792
aS'tardies'
p2754
aS'is'
p2755
aS'an'
p2756
aS'absense'
p2757
asg25
(lp2758
g1792
ag2754
ag2755
ag2756
ag2757
asba(iMeme
Meme
p2759
(dp2760
g3
(lp2761
S'Here'
p2762
aS'are'
p2763
aS'your'
p2764
aS'handouts'
p2765
asg16
S'Here are your handouts '
p2766
sg18
S' back sides upside down and stapled in the bottom right corner'
p2767
sg20
Vscumbag-teacher
p2768
sg22
(lp2769
g2762
ag2763
ag2764
ag2765
aS'back'
p2770
aS'sides'
p2771
aS'upside'
p2772
aS'down'
p2773
aS'and'
p2774
aS'stapled'
p2775
aS'in'
p2776
aS'the'
p2777
aS'bottom'
p2778
aS'right'
p2779
aS'corner'
p2780
asg25
(lp2781
g2770
ag2771
ag2772
ag2773
ag2774
ag2775
ag2776
ag2777
ag2778
ag2779
ag2780
asba(iMeme
Meme
p2782
(dp2783
g3
(lp2784
S'You'
p2785
aS'finished'
p2786
aS'your'
p2787
aS'test'
p2788
ag145
aS'Check'
p2789
aS'your'
p2790
aS'answers'
p2791
ag15
aS'You'
p2792
aS'already'
p2793
aS'did'
p2794
aS'that'
p2795
ag145
asg16
S'You finished your test? Check your answers. You already did that? '
p2796
sg18
S' CHECK IT AGAIN'
p2797
sg20
Vscumbag-teacher
p2798
sg22
(lp2799
g2785
ag2786
ag2787
ag2788
ag145
ag2789
ag2790
ag2791
ag15
ag2792
ag2793
ag2794
ag2795
ag145
aS'CHECK'
p2800
aS'IT'
p2801
aS'AGAIN'
p2802
asg25
(lp2803
g2800
ag2801
ag2802
asba(iMeme
Meme
p2804
(dp2805
g3
(lp2806
S'You'
p2807
aS'should'
p2808
aS'have'
p2809
aS'gone'
p2810
aS'to'
p2811
aS'the'
p2812
aS'bathroom'
p2813
aS'during'
p2814
aS'lunch'
p2815
asg16
S'You should have gone to the bathroom during lunch '
p2816
sg18
S' Three periods ago'
p2817
sg20
Vscumbag-teacher
p2818
sg22
(lp2819
g2807
ag2808
ag2809
ag2810
ag2811
ag2812
ag2813
ag2814
ag2815
aS'Three'
p2820
aS'periods'
p2821
aS'ago'
p2822
asg25
(lp2823
g2820
ag2821
ag2822
asba(iMeme
Meme
p2824
(dp2825
g3
(lp2826
S'Does'
p2827
aS"n't"
p2828
aS'let'
p2829
aS'you'
p2830
aS'go'
p2831
aS'to'
p2832
aS'the'
p2833
aS'water'
p2834
aS'fountain'
p2835
ag15
asg16
S"Doesn't let you go to the water fountain. "
p2836
sg18
S' Sucking back a diet pepsi.'
p2837
sg20
Vscumbag-teacher
p2838
sg22
(lp2839
g2827
ag2828
ag2829
ag2830
ag2831
ag2832
ag2833
ag2834
ag2835
ag15
aS'Sucking'
p2840
aS'back'
p2841
ag34
aS'diet'
p2842
aS'pepsi'
p2843
ag15
asg25
(lp2844
g2840
ag2841
ag34
ag2842
ag2843
ag15
asba(iMeme
Meme
p2845
(dp2846
g3
(lp2847
S'Wo'
p2848
aS"n't"
p2849
aS'let'
p2850
aS'you'
p2851
aS'chew'
p2852
aS'gum'
p2853
aS'in'
p2854
aS'class'
p2855
asg16
S"Won't let you chew gum in class "
p2856
sg18
S' her desk has starbucks and cookies on it'
p2857
sg20
Vscumbag-teacher
p2858
sg22
(lp2859
g2848
ag2849
ag2850
ag2851
ag2852
ag2853
ag2854
ag2855
aS'her'
p2860
aS'desk'
p2861
aS'has'
p2862
aS'starbucks'
p2863
aS'and'
p2864
aS'cookies'
p2865
aS'on'
p2866
aS'it'
p2867
asg25
(lp2868
g2860
ag2861
ag2862
ag2863
ag2864
ag2865
ag2866
ag2867
asba(iMeme
Meme
p2869
(dp2870
g3
(lp2871
S'you'
p2872
aS'drove'
p2873
aS'an'
p2874
aS'hour'
p2875
aS'to'
p2876
aS'get'
p2877
aS'to'
p2878
aS'class'
p2879
aS'in'
p2880
aS'the'
p2881
aS'snow'
p2882
ag145
asg16
S'you drove an hour to get to class in the snow? '
p2883
sg18
S' Well, i decided to cancel class by putting a note outside of the door'
p2884
sg20
Vscumbag-teacher
p2885
sg22
(lp2886
g2872
ag2873
ag2874
ag2875
ag2876
ag2877
ag2878
ag2879
ag2880
ag2881
ag2882
ag145
aS'Well'
p2887
ag55
ag202
aS'decided'
p2888
aS'to'
p2889
aS'cancel'
p2890
aS'class'
p2891
aS'by'
p2892
aS'putting'
p2893
ag34
aS'note'
p2894
aS'outside'
p2895
aS'of'
p2896
aS'the'
p2897
aS'door'
p2898
asg25
(lp2899
g2887
ag55
ag202
ag2888
ag2889
ag2890
ag2891
ag2892
ag2893
ag34
ag2894
ag2895
ag2896
ag2897
ag2898
asba(iMeme
Meme
p2900
(dp2901
g3
(lp2902
S'who'
p2903
aS'is'
p2904
aS'giving'
p2905
aS'you'
p2906
aS'the'
p2907
aS'grade'
p2908
asg16
S'who is giving you the grade '
p2909
sg18
S' the textbook or me?'
p2910
sg20
Vscumbag-teacher
p2911
sg22
(lp2912
g2903
ag2904
ag2905
ag2906
ag2907
ag2908
aS'the'
p2913
aS'textbook'
p2914
aS'or'
p2915
aS'me'
p2916
ag145
asg25
(lp2917
g2913
ag2914
ag2915
ag2916
ag145
asba(iMeme
Meme
p2918
(dp2919
g3
(lp2920
g5
aS'do'
p2921
aS"n't"
p2922
aS'care'
p2923
aS'if'
p2924
aS'you'
p2925
aS'were'
p2926
aS'saying'
p2927
aS'``'
p2928
aS'Bless'
p2929
aS'you'
p2930
aS"''"
p2931
aS'to'
p2932
aS'someone'
p2933
aS'who'
p2934
aS'sneezed'
p2935
asg16
S'I don\'t care if you were saying "Bless you" to someone who sneezed '
p2936
sg18
S' you were talking during a test, you get a zero and a detention'
p2937
sg20
Vscumbag-teacher
p2938
sg22
(lp2939
g5
ag2921
ag2922
ag2923
ag2924
ag2925
ag2926
ag2927
ag2928
ag2929
ag2930
ag2931
ag2932
ag2933
ag2934
ag2935
aS'you'
p2940
aS'were'
p2941
aS'talking'
p2942
aS'during'
p2943
ag34
aS'test'
p2944
ag55
aS'you'
p2945
aS'get'
p2946
ag34
aS'zero'
p2947
aS'and'
p2948
ag34
aS'detention'
p2949
asg25
(lp2950
g2940
ag2941
ag2942
ag2943
ag34
ag2944
ag55
ag2945
ag2946
ag34
ag2947
ag2948
ag34
ag2949
asba(iMeme
Meme
p2951
(dp2952
g3
(lp2953
S'Sees'
p2954
aS'the'
p2955
aS'creepy'
p2956
aS'guy'
p2957
aS'in'
p2958
aS'the'
p2959
aS'class'
p2960
aS'has'
p2961
ag34
aS'crush'
p2962
aS'on'
p2963
aS'you'
p2964
asg16
S'Sees the creepy guy in the class has a crush on you '
p2965
sg18
S' pairs you two as partners for the rest of the year'
p2966
sg20
Vscumbag-teacher
p2967
sg22
(lp2968
g2954
ag2955
ag2956
ag2957
ag2958
ag2959
ag2960
ag2961
ag34
ag2962
ag2963
ag2964
aS'pairs'
p2969
aS'you'
p2970
aS'two'
p2971
aS'as'
p2972
aS'partners'
p2973
aS'for'
p2974
aS'the'
p2975
aS'rest'
p2976
aS'of'
p2977
aS'the'
p2978
aS'year'
p2979
asg25
(lp2980
g2969
ag2970
ag2971
ag2972
ag2973
ag2974
ag2975
ag2976
ag2977
ag2978
ag2979
asba(iMeme
Meme
p2981
(dp2982
g3
(lp2983
S'you'
p2984
aS'do'
p2985
aS"n't"
p2986
aS'talk'
p2987
aS'much'
p2988
ag145
asg16
S"you don't talk much? "
p2989
sg18
S" don't worry, I'll break you out of your shell"
p2990
sg20
Vscumbag-teacher
p2991
sg22
(lp2992
g2984
ag2985
ag2986
ag2987
ag2988
ag145
aS'do'
p2993
aS"n't"
p2994
aS'worry'
p2995
ag55
ag5
aS"'ll"
p2996
aS'break'
p2997
aS'you'
p2998
aS'out'
p2999
aS'of'
p3000
aS'your'
p3001
aS'shell'
p3002
asg25
(lp3003
g2993
ag2994
ag2995
ag55
ag5
ag2996
ag2997
ag2998
ag2999
ag3000
ag3001
ag3002
asba(iMeme
Meme
p3004
(dp3005
g3
(lp3006
S'Complains'
p3007
aS'about'
p3008
aS'students'
p3009
aS'on'
p3010
aS'phones'
p3011
aS'in'
p3012
aS'class'
p3013
asg16
S'Complains about students on phones in class '
p3014
sg18
S' spends first thirty minutes of class off topic, talking about her kids'
p3015
sg20
Vscumbag-teacher
p3016
sg22
(lp3017
g3007
ag3008
ag3009
ag3010
ag3011
ag3012
ag3013
aS'spends'
p3018
aS'first'
p3019
aS'thirty'
p3020
aS'minutes'
p3021
aS'of'
p3022
aS'class'
p3023
aS'off'
p3024
aS'topic'
p3025
ag55
aS'talking'
p3026
aS'about'
p3027
aS'her'
p3028
aS'kids'
p3029
asg25
(lp3030
g3018
ag3019
ag3020
ag3021
ag3022
ag3023
ag3024
ag3025
ag55
ag3026
ag3027
ag3028
ag3029
asba(iMeme
Meme
p3031
(dp3032
g3
(lp3033
S'Did'
p3034
aS"n't"
p3035
aS'get'
p3036
aS'your'
p3037
aS'papers'
p3038
aS'graded'
p3039
ag55
ag5
aS'teach'
p3040
aS'other'
p3041
aS'classes'
p3042
aS'too'
p3043
ag15
asg16
S"Didn't get your papers graded, I teach other classes too. "
p3044
sg18
S" You need to finish your work, I don't care if you have other classes."
p3045
sg20
Vscumbag-teacher
p3046
sg22
(lp3047
g3034
ag3035
ag3036
ag3037
ag3038
ag3039
ag55
ag5
ag3040
ag3041
ag3042
ag3043
ag15
aS'You'
p3048
aS'need'
p3049
aS'to'
p3050
aS'finish'
p3051
aS'your'
p3052
aS'work'
p3053
ag55
ag5
aS'do'
p3054
aS"n't"
p3055
aS'care'
p3056
aS'if'
p3057
aS'you'
p3058
aS'have'
p3059
aS'other'
p3060
aS'classes'
p3061
ag15
asg25
(lp3062
g3048
ag3049
ag3050
ag3051
ag3052
ag3053
ag55
ag5
ag3054
ag3055
ag3056
ag3057
ag3058
ag3059
ag3060
ag3061
ag15
asba(iMeme
Meme
p3063
(dp3064
g3
(lp3065
S'always'
p3066
aS'do'
p3067
aS'your'
p3068
aS'best'
p3069
aS'and'
p3070
aS'exceed'
p3071
aS'expectations'
p3072
asg16
S'always do your best and exceed expectations '
p3073
sg18
S" don't get ahead of the class; stay with the rest of us"
p3074
sg20
Vscumbag-teacher
p3075
sg22
(lp3076
g3066
ag3067
ag3068
ag3069
ag3070
ag3071
ag3072
aS'do'
p3077
aS"n't"
p3078
aS'get'
p3079
aS'ahead'
p3080
aS'of'
p3081
aS'the'
p3082
aS'class'
p3083
aS';'
p3084
aS'stay'
p3085
aS'with'
p3086
aS'the'
p3087
aS'rest'
p3088
aS'of'
p3089
aS'us'
p3090
asg25
(lp3091
g3077
ag3078
ag3079
ag3080
ag3081
ag3082
ag3083
ag3084
ag3085
ag3086
ag3087
ag3088
ag3089
ag3090
asba(iMeme
Meme
p3092
(dp3093
g3
(lp3094
S'Expects'
p3095
aS'you'
p3096
aS'to'
p3097
aS'know'
p3098
aS'the'
p3099
aS'most'
p3100
aS'complicated'
p3101
aS'of'
p3102
aS'theorems'
p3103
asg16
S'Expects you to know the most complicated of theorems  '
p3104
sg18
S' Cannot figure out how to turn on the projector'
p3105
sg20
Vscumbag-teacher
p3106
sg22
(lp3107
g3095
ag3096
ag3097
ag3098
ag3099
ag3100
ag3101
ag3102
ag3103
aS'Can'
p3108
aS'not'
p3109
aS'figure'
p3110
aS'out'
p3111
aS'how'
p3112
aS'to'
p3113
aS'turn'
p3114
aS'on'
p3115
aS'the'
p3116
aS'projector'
p3117
asg25
(lp3118
g3108
ag3109
ag3110
ag3111
ag3112
ag3113
ag3114
ag3115
ag3116
ag3117
asba(iMeme
Meme
p3119
(dp3120
g3
(lp3121
S'Makes'
p3122
aS'students'
p3123
aS'buy'
p3124
ag34
aS'600'
p3125
aS'$'
p3126
aS'textbook'
p3127
asg16
S'Makes students buy a 600$ textbook '
p3128
sg18
S' uses it 3 times all year'
p3129
sg20
Vscumbag-teacher
p3130
sg22
(lp3131
g3122
ag3123
ag3124
ag34
ag3125
ag3126
ag3127
aS'uses'
p3132
aS'it'
p3133
ag1792
aS'times'
p3134
aS'all'
p3135
aS'year'
p3136
asg25
(lp3137
g3132
ag3133
ag1792
ag3134
ag3135
ag3136
asba(iMeme
Meme
p3138
(dp3139
g3
(lp3140
S'Every'
p3141
aS'single'
p3142
aS'student'
p3143
aS'failed'
p3144
aS'the'
p3145
aS'test'
p3146
asg16
S'Every single student failed the test '
p3147
sg18
S" You obviously didn't study enough"
p3148
sg20
Vscumbag-teacher
p3149
sg22
(lp3150
g3141
ag3142
ag3143
ag3144
ag3145
ag3146
aS'You'
p3151
aS'obviously'
p3152
aS'did'
p3153
aS"n't"
p3154
aS'study'
p3155
aS'enough'
p3156
asg25
(lp3157
g3151
ag3152
ag3153
ag3154
ag3155
ag3156
asba(iMeme
Meme
p3158
(dp3159
g3
(lp3160
S'This'
p3161
aS'is'
p3162
aS'Cursive'
p3163
asg16
S'This is Cursive '
p3164
sg18
S" You're going to use it for the rest of your life"
p3165
sg20
Vscumbag-teacher
p3166
sg22
(lp3167
g3161
ag3162
ag3163
aS'You'
p3168
aS"'re"
p3169
aS'going'
p3170
aS'to'
p3171
aS'use'
p3172
aS'it'
p3173
aS'for'
p3174
aS'the'
p3175
aS'rest'
p3176
aS'of'
p3177
aS'your'
p3178
aS'life'
p3179
asg25
(lp3180
g3168
ag3169
ag3170
ag3171
ag3172
ag3173
ag3174
ag3175
ag3176
ag3177
ag3178
ag3179
asba(iMeme
Meme
p3181
(dp3182
g3
(lp3183
S'Can'
p3184
ag202
aS'use'
p3185
aS'the'
p3186
aS'restroom'
p3187
ag145
asg16
S'Can i use the restroom? '
p3188
sg18
S" I don't know , can you?"
p3189
sg20
Vscumbag-teacher
p3190
sg22
(lp3191
g3184
ag202
ag3185
ag3186
ag3187
ag145
ag5
aS'do'
p3192
aS"n't"
p3193
aS'know'
p3194
ag55
aS'can'
p3195
aS'you'
p3196
ag145
asg25
(lp3197
g5
ag3192
ag3193
ag3194
ag55
ag3195
ag3196
ag145
asba(iMeme
Meme
p3198
(dp3199
g3
(lp3200
S'You'
p3201
aS'live'
p3202
aS'45'
p3203
aS'minutes'
p3204
aS'away'
p3205
aS'from'
p3206
aS'school'
p3207
ag145
asg16
S'You live 45 minutes away from school? '
p3208
sg18
S' Well, i decided to cancel class with a note on the door'
p3209
sg20
Vscumbag-teacher
p3210
sg22
(lp3211
g3201
ag3202
ag3203
ag3204
ag3205
ag3206
ag3207
ag145
aS'Well'
p3212
ag55
ag202
aS'decided'
p3213
aS'to'
p3214
aS'cancel'
p3215
aS'class'
p3216
aS'with'
p3217
ag34
aS'note'
p3218
aS'on'
p3219
aS'the'
p3220
aS'door'
p3221
asg25
(lp3222
g3212
ag55
ag202
ag3213
ag3214
ag3215
ag3216
ag3217
ag34
ag3218
ag3219
ag3220
ag3221
asba(iMeme
Meme
p3223
(dp3224
g3
(lp3225
S'Over'
p3226
aS'the'
p3227
aS'weekend'
p3228
ag55
aS'Write'
p3229
ag34
aS'1000'
p3230
aS'word'
p3231
aS'essay'
p3232
asg16
S'Over the weekend, Write a 1000 word essay '
p3233
sg18
S' about this twenty word poem'
p3234
sg20
Vscumbag-teacher
p3235
sg22
(lp3236
g3226
ag3227
ag3228
ag55
ag3229
ag34
ag3230
ag3231
ag3232
aS'about'
p3237
aS'this'
p3238
aS'twenty'
p3239
aS'word'
p3240
aS'poem'
p3241
asg25
(lp3242
g3237
ag3238
ag3239
ag3240
ag3241
asba(iMeme
Meme
p3243
(dp3244
g3
(lp3245
S'Only'
p3246
ag1792
aS'questions'
p3247
aS'tonight'
p3248
ag55
aS'class'
p3249
asg16
S'Only 3 questions tonight, class '
p3250
sg18
S' 1a, 1b, 1c, 1d, 1e, 2a, 2b, 2c, 2d, 2e, 3a, 3b, 3c, 3d, 3e'
p3251
sg20
Vscumbag-teacher
p3252
sg22
(lp3253
g3246
ag1792
ag3247
ag3248
ag55
ag3249
aS'1a'
p3254
ag55
aS'1b'
p3255
ag55
aS'1c'
p3256
ag55
aS'1d'
p3257
ag55
aS'1e'
p3258
ag55
aS'2a'
p3259
ag55
aS'2b'
p3260
ag55
aS'2c'
p3261
ag55
aS'2d'
p3262
ag55
aS'2e'
p3263
ag55
aS'3a'
p3264
ag55
aS'3b'
p3265
ag55
aS'3c'
p3266
ag55
aS'3d'
p3267
ag55
aS'3e'
p3268
asg25
(lp3269
g3254
ag55
ag3255
ag55
ag3256
ag55
ag3257
ag55
ag3258
ag55
ag3259
ag55
ag3260
ag55
ag3261
ag55
ag3262
ag55
ag3263
ag55
ag3264
ag55
ag3265
ag55
ag3266
ag55
ag3267
ag55
ag3268
asba(iMeme
Meme
p3270
(dp3271
g3
(lp3272
S'Students'
p3273
ag55
aS'your'
p3274
aS'homework'
p3275
aS'tonight'
p3276
aS'is'
p3277
asg16
S'Students, your homework tonight is '
p3278
sg18
S' p. 267-271 1, 5, 8-15, 17, 21, 24, 25, 27, 29, 30, 31-36, 38, 40, 55, 57, 60, 71, 75, and 89'
p3279
sg20
Vscumbag-teacher
p3280
sg22
(lp3281
g3273
ag55
ag3274
ag3275
ag3276
ag3277
aS'p'
p3282
ag15
aS'267-271'
p3283
aS'1'
p3284
ag55
ag1254
ag55
aS'8-15'
p3285
ag55
aS'17'
p3286
ag55
aS'21'
p3287
ag55
aS'24'
p3288
ag55
aS'25'
p3289
ag55
aS'27'
p3290
ag55
aS'29'
p3291
ag55
aS'30'
p3292
ag55
aS'31-36'
p3293
ag55
aS'38'
p3294
ag55
aS'40'
p3295
ag55
aS'55'
p3296
ag55
aS'57'
p3297
ag55
aS'60'
p3298
ag55
aS'71'
p3299
ag55
aS'75'
p3300
ag55
aS'and'
p3301
aS'89'
p3302
asg25
(lp3303
g3282
ag15
ag3283
ag3284
ag55
ag1254
ag55
ag3285
ag55
ag3286
ag55
ag3287
ag55
ag3288
ag55
ag3289
ag55
ag3290
ag55
ag3291
ag55
ag3292
ag55
ag3293
ag55
ag3294
ag55
ag3295
ag55
ag3296
ag55
ag3297
ag55
ag3298
ag55
ag3299
ag55
ag3300
ag55
ag3301
ag3302
asba(iMeme
Meme
p3304
(dp3305
g3
(lp3306
S'No'
p3307
ag55
aS'you'
p3308
aS'may'
p3309
aS'not'
p3310
aS'go'
p3311
aS'to'
p3312
aS'the'
p3313
aS'bathroom'
p3314
asg16
S'No, you may not go to the bathroom '
p3315
sg18
S" you should've gone during lunch"
p3316
sg20
Vscumbag-teacher
p3317
sg22
(lp3318
g3307
ag55
ag3308
ag3309
ag3310
ag3311
ag3312
ag3313
ag3314
aS'you'
p3319
aS'should'
p3320
aS"'ve"
p3321
aS'gone'
p3322
aS'during'
p3323
aS'lunch'
p3324
asg25
(lp3325
g3319
ag3320
ag3321
ag3322
ag3323
ag3324
asba(iMeme
Meme
p3326
(dp3327
g3
(lp3328
S'One'
p3329
aS'person'
p3330
aS'misbehaves'
p3331
asg16
S'One person misbehaves '
p3332
sg18
S' Everybody gets punished'
p3333
sg20
Vscumbag-teacher
p3334
sg22
(lp3335
g3329
ag3330
ag3331
aS'Everybody'
p3336
aS'gets'
p3337
aS'punished'
p3338
asg25
(lp3339
g3336
ag3337
ag3338
asba(iMeme
Meme
p3340
(dp3341
g3
(lp3342
S'You'
p3343
aS'need'
p3344
aS'this'
p3345
aS'textbook'
p3346
ag55
aS'we'
p3347
aS"'ll"
p3348
aS'use'
p3349
aS'it'
p3350
aS'all'
p3351
aS'the'
p3352
aS'time'
p3353
ag15
asg16
S"You need this textbook, we'll use it all the time. "
p3354
sg18
S' Never uses textbook.'
p3355
sg20
Vscumbag-teacher
p3356
sg22
(lp3357
g3343
ag3344
ag3345
ag3346
ag55
ag3347
ag3348
ag3349
ag3350
ag3351
ag3352
ag3353
ag15
aS'Never'
p3358
aS'uses'
p3359
aS'textbook'
p3360
ag15
asg25
(lp3361
g3358
ag3359
ag3360
ag15
asba(iMeme
Meme
p3362
(dp3363
g3
(lp3364
S'today'
p3365
aS'we'
p3366
aS"'re"
p3367
aS'watching'
p3368
ag34
aS'video'
p3369
asg16
S"today we're watching a video "
p3370
sg18
S' leaves mouse in the middle of the screen'
p3371
sg20
Vscumbag-teacher
p3372
sg22
(lp3373
g3365
ag3366
ag3367
ag3368
ag34
ag3369
aS'leaves'
p3374
aS'mouse'
p3375
aS'in'
p3376
aS'the'
p3377
aS'middle'
p3378
aS'of'
p3379
aS'the'
p3380
aS'screen'
p3381
asg25
(lp3382
g3374
ag3375
ag3376
ag3377
ag3378
ag3379
ag3380
ag3381
asba(iMeme
Meme
p3383
(dp3384
g3
(lp3385
S'Gives'
p3386
aS'you'
p3387
ag34
aS'test'
p3388
asg16
S'Gives you a test '
p3389
sg18
S' doesnt grade it until you take the next one'
p3390
sg20
Vscumbag-teacher
p3391
sg22
(lp3392
g3386
ag3387
ag34
ag3388
aS'doesnt'
p3393
aS'grade'
p3394
aS'it'
p3395
aS'until'
p3396
aS'you'
p3397
aS'take'
p3398
aS'the'
p3399
aS'next'
p3400
aS'one'
p3401
asg25
(lp3402
g3393
ag3394
ag3395
ag3396
ag3397
ag3398
ag3399
ag3400
ag3401
asba(iMeme
Meme
p3403
(dp3404
g3
(lp3405
S'sends'
p3406
aS'class'
p3407
aS'cancellation'
p3408
aS'email'
p3409
asg16
S'sends class cancellation email '
p3410
sg18
S' 15 minutes before class starts'
p3411
sg20
Vscumbag-teacher
p3412
sg22
(lp3413
g3406
ag3407
ag3408
ag3409
aS'15'
p3414
aS'minutes'
p3415
aS'before'
p3416
aS'class'
p3417
aS'starts'
p3418
asg25
(lp3419
g3414
ag3415
ag3416
ag3417
ag3418
asba(iMeme
Meme
p3420
(dp3421
g3
(lp3422
S'Accepts'
p3423
aS'NO'
p3424
aS'late'
p3425
aS'work'
p3426
asg16
S'Accepts NO late work '
p3427
sg18
S' Takes 3 weeks to grade a test'
p3428
sg20
Vscumbag-teacher
p3429
sg22
(lp3430
g3423
ag3424
ag3425
ag3426
aS'Takes'
p3431
ag1792
aS'weeks'
p3432
aS'to'
p3433
aS'grade'
p3434
ag34
aS'test'
p3435
asg25
(lp3436
g3431
ag1792
ag3432
ag3433
ag3434
ag34
ag3435
asba(iMeme
Meme
p3437
(dp3438
g3
(lp3439
S'Watching'
p3440
ag34
aS'video'
p3441
aS'explaining'
p3442
aS'material'
p3443
asg16
S'Watching a video explaining material '
p3444
sg18
S' Loudly talks through it to give a worse explanation'
p3445
sg20
Vscumbag-teacher
p3446
sg22
(lp3447
g3440
ag34
ag3441
ag3442
ag3443
aS'Loudly'
p3448
aS'talks'
p3449
aS'through'
p3450
aS'it'
p3451
aS'to'
p3452
aS'give'
p3453
ag34
aS'worse'
p3454
aS'explanation'
p3455
asg25
(lp3456
g3448
ag3449
ag3450
ag3451
ag3452
ag3453
ag34
ag3454
ag3455
asba(iMeme
Meme
p3457
(dp3458
g3
(lp3459
S'Requires'
p3460
ag34
aS'binder'
p3461
aS'for'
p3462
aS'her'
p3463
aS'class'
p3464
asg16
S'Requires a binder for her class '
p3465
sg18
S" Doesn't hole punch her material"
p3466
sg20
Vscumbag-teacher
p3467
sg22
(lp3468
g3460
ag34
ag3461
ag3462
ag3463
ag3464
aS'Does'
p3469
aS"n't"
p3470
aS'hole'
p3471
aS'punch'
p3472
aS'her'
p3473
aS'material'
p3474
asg25
(lp3475
g3469
ag3470
ag3471
ag3472
ag3473
ag3474
asba(iMeme
Meme
p3476
(dp3477
g3
(lp3478
S'Encourages'
p3479
aS'you'
p3480
aS'to'
p3481
aS'do'
p3482
aS'homework'
p3483
aS'ahead'
p3484
aS'of'
p3485
aS'time'
p3486
asg16
S'Encourages you to do homework ahead of time '
p3487
sg18
S" teaches you the relevant material the day before it's due"
p3488
sg20
Vscumbag-teacher
p3489
sg22
(lp3490
g3479
ag3480
ag3481
ag3482
ag3483
ag3484
ag3485
ag3486
aS'teaches'
p3491
aS'you'
p3492
aS'the'
p3493
aS'relevant'
p3494
aS'material'
p3495
aS'the'
p3496
aS'day'
p3497
aS'before'
p3498
aS'it'
p3499
aS"'s"
p3500
aS'due'
p3501
asg25
(lp3502
g3491
ag3492
ag3493
ag3494
ag3495
ag3496
ag3497
ag3498
ag3499
ag3500
ag3501
asba(iMeme
Meme
p3503
(dp3504
g3
(lp3505
S'Teaches'
p3506
aS'you'
p3507
aS'the'
p3508
aS'most'
p3509
aS'difficult'
p3510
aS'shit'
p3511
aS'ever'
p3512
aS'and'
p3513
aS'assigns'
p3514
aS'homework'
p3515
asg16
S'Teaches you the most difficult shit ever and assigns homework '
p3516
sg18
S' Teaches you the next day the "Easy" method of doing the exact same shit'
p3517
sg20
Vscumbag-teacher
p3518
sg22
(lp3519
g3506
ag3507
ag3508
ag3509
ag3510
ag3511
ag3512
ag3513
ag3514
ag3515
aS'Teaches'
p3520
aS'you'
p3521
aS'the'
p3522
aS'next'
p3523
aS'day'
p3524
aS'the'
p3525
aS'``'
p3526
aS'Easy'
p3527
aS"''"
p3528
aS'method'
p3529
aS'of'
p3530
aS'doing'
p3531
aS'the'
p3532
aS'exact'
p3533
aS'same'
p3534
aS'shit'
p3535
asg25
(lp3536
g3520
ag3521
ag3522
ag3523
ag3524
ag3525
ag3526
ag3527
ag3528
ag3529
ag3530
ag3531
ag3532
ag3533
ag3534
ag3535
asba(iMeme
Meme
p3537
(dp3538
g3
(lp3539
S'Gave'
p3540
aS'you'
p3541
ag34
aS'c'
p3542
aS'on'
p3543
aS'your'
p3544
aS'essay'
p3545
aS'because'
p3546
aS'you'
p3547
aS'were'
p3548
aS'missing'
p3549
aS'important'
p3550
aS'things'
p3551
asg16
S'Gave you a c on your essay because you were missing important things '
p3552
sg18
S' that she taught the class about on the day she returned it'
p3553
sg20
Vscumbag-teacher
p3554
sg22
(lp3555
g3540
ag3541
ag34
ag3542
ag3543
ag3544
ag3545
ag3546
ag3547
ag3548
ag3549
ag3550
ag3551
aS'that'
p3556
aS'she'
p3557
aS'taught'
p3558
aS'the'
p3559
aS'class'
p3560
aS'about'
p3561
aS'on'
p3562
aS'the'
p3563
aS'day'
p3564
aS'she'
p3565
aS'returned'
p3566
aS'it'
p3567
asg25
(lp3568
g3556
ag3557
ag3558
ag3559
ag3560
ag3561
ag3562
ag3563
ag3564
ag3565
ag3566
ag3567
asba(iMeme
Meme
p3569
(dp3570
g3
(lp3571
S'says'
p3572
aS'wikipedia'
p3573
aS'is'
p3574
aS'not'
p3575
ag34
aS'reliable'
p3576
aS'resource'
p3577
asg16
S'says wikipedia is not a reliable resource'
p3578
sg18
S' instead uses 20 year old text books'
p3579
sg20
Vscumbag-teacher
p3580
sg22
(lp3581
g3572
ag3573
ag3574
ag3575
ag34
ag3576
ag3577
aS'instead'
p3582
aS'uses'
p3583
aS'20'
p3584
aS'year'
p3585
aS'old'
p3586
aS'text'
p3587
aS'books'
p3588
asg25
(lp3589
g3582
ag3583
ag3584
ag3585
ag3586
ag3587
ag3588
asba(iMeme
Meme
p3590
(dp3591
g3
(lp3592
S'two'
p3593
aS'students'
p3594
aS'caught'
p3595
aS'talking'
p3596
aS'quietly'
p3597
aS'amongst'
p3598
aS'themselves'
p3599
asg16
S'two students caught talking quietly amongst themselves'
p3600
sg18
S' stops teaching for 30 minutes to complain about how disruptive they have been'
p3601
sg20
Vscumbag-teacher
p3602
sg22
(lp3603
g3593
ag3594
ag3595
ag3596
ag3597
ag3598
ag3599
aS'stops'
p3604
aS'teaching'
p3605
aS'for'
p3606
aS'30'
p3607
aS'minutes'
p3608
aS'to'
p3609
aS'complain'
p3610
aS'about'
p3611
aS'how'
p3612
aS'disruptive'
p3613
aS'they'
p3614
aS'have'
p3615
aS'been'
p3616
asg25
(lp3617
g3604
ag3605
ag3606
ag3607
ag3608
ag3609
ag3610
ag3611
ag3612
ag3613
ag3614
ag3615
ag3616
asba(iMeme
Meme
p3618
(dp3619
g3
(lp3620
S'there'
p3621
aS'are'
p3622
aS'no'
p3623
aS'right'
p3624
aS'or'
p3625
aS'wrong'
p3626
aS'answers'
p3627
aS'as'
p3628
aS'long'
p3629
aS'as'
p3630
aS'you'
p3631
aS'give'
p3632
aS'good'
p3633
aS'reasoning'
p3634
aS'for'
p3635
aS'your'
p3636
aS'ideas'
p3637
asg16
S'there are no right or wrong answers as long as you give good reasoning for your ideas'
p3638
sg18
S' gives you a bad grade because you dont share her opinion'
p3639
sg20
Vscumbag-teacher
p3640
sg22
(lp3641
g3621
ag3622
ag3623
ag3624
ag3625
ag3626
ag3627
ag3628
ag3629
ag3630
ag3631
ag3632
ag3633
ag3634
ag3635
ag3636
ag3637
aS'gives'
p3642
aS'you'
p3643
ag34
aS'bad'
p3644
aS'grade'
p3645
aS'because'
p3646
aS'you'
p3647
aS'dont'
p3648
aS'share'
p3649
aS'her'
p3650
aS'opinion'
p3651
asg25
(lp3652
g3642
ag3643
ag34
ag3644
ag3645
ag3646
ag3647
ag3648
ag3649
ag3650
ag3651
asba(iMeme
Meme
p3653
(dp3654
g3
(lp3655
S'late'
p3656
aS'again'
p3657
ag145
asg16
S'late again?'
p3658
sg18
S' 3 tardies count as an absence'
p3659
sg20
Vscumbag-teacher
p3660
sg22
(lp3661
g3656
ag3657
ag145
ag1792
aS'tardies'
p3662
aS'count'
p3663
aS'as'
p3664
aS'an'
p3665
aS'absence'
p3666
asg25
(lp3667
g1792
ag3662
ag3663
ag3664
ag3665
ag3666
asba(iMeme
Meme
p3668
(dp3669
g3
(lp3670
S'congratulations'
p3671
asg16
S'congratulations'
p3672
sg18
S' youre still retarded!'
p3673
sg20
Vscumbag-teacher
p3674
sg22
(lp3675
g3671
aS'youre'
p3676
aS'still'
p3677
aS'retarded'
p3678
ag1075
asg25
(lp3679
g3676
ag3677
ag3678
ag1075
asba(iMeme
Meme
p3680
(dp3681
g3
(lp3682
S'guess'
p3683
aS'what'
p3684
ag145
asg16
S'guess what?'
p3685
sg18
S' youre gay!'
p3686
sg20
Vscumbag-teacher
p3687
sg22
(lp3688
g3683
ag3684
ag145
aS'youre'
p3689
aS'gay'
p3690
ag1075
asg25
(lp3691
g3689
ag3690
ag1075
asba(iMeme
Meme
p3692
(dp3693
g3
(lp3694
S'yes'
p3695
asg16
S'yes'
p3696
sg18
S' these people have big dicks'
p3697
sg20
Vscumbag-teacher
p3698
sg22
(lp3699
g3695
aS'these'
p3700
aS'people'
p3701
aS'have'
p3702
aS'big'
p3703
aS'dicks'
p3704
asg25
(lp3705
g3700
ag3701
ag3702
ag3703
ag3704
asba(iMeme
Meme
p3706
(dp3707
g3
(lp3708
S'see'
p3709
aS'you'
p3710
aS'look'
p3711
aS'pretty'
p3712
aS'mad'
p3713
asg16
S'see you look pretty mad'
p3714
sg18
S' so why you mad?'
p3715
sg20
Vscumbag-teacher
p3716
sg22
(lp3717
g3709
ag3710
ag3711
ag3712
ag3713
aS'so'
p3718
aS'why'
p3719
aS'you'
p3720
aS'mad'
p3721
ag145
asg25
(lp3722
g3718
ag3719
ag3720
ag3721
ag145
asba(iMeme
Meme
p3723
(dp3724
g3
(lp3725
S'youre'
p3726
aS'rude'
p3727
asg16
S'youre rude'
p3728
sg18
S' its not very nice'
p3729
sg20
Vscumbag-teacher
p3730
sg22
(lp3731
g3726
ag3727
aS'its'
p3732
aS'not'
p3733
aS'very'
p3734
aS'nice'
p3735
asg25
(lp3736
g3732
ag3733
ag3734
ag3735
asba(iMeme
Meme
p3737
(dp3738
g3
(lp3739
S'says'
p3740
aS'quizlets'
p3741
aS'arent'
p3742
aS'important'
p3743
asg16
S'says quizlets arent important'
p3744
sg18
S' bases tests on quizlet'
p3745
sg20
Vscumbag-teacher
p3746
sg22
(lp3747
g3740
ag3741
ag3742
ag3743
aS'bases'
p3748
aS'tests'
p3749
aS'on'
p3750
aS'quizlet'
p3751
asg25
(lp3752
g3748
ag3749
ag3750
ag3751
asba(iMeme
Meme
p3753
(dp3754
g3
(lp3755
S'scumbag'
p3756
aS'teacher'
p3757
asg16
S'scumbag teacher'
p3758
sg18
S' last day of school before the holidays  introduces new topic'
p3759
sg20
Vscumbag-teacher
p3760
sg22
(lp3761
g3756
ag3757
aS'last'
p3762
aS'day'
p3763
aS'of'
p3764
aS'school'
p3765
aS'before'
p3766
aS'the'
p3767
aS'holidays'
p3768
aS'introduces'
p3769
aS'new'
p3770
aS'topic'
p3771
asg25
(lp3772
g3762
ag3763
ag3764
ag3765
ag3766
ag3767
ag3768
ag3769
ag3770
ag3771
asba(iMeme
Meme
p3773
(dp3774
g3
(lp3775
S'you'
p3776
aS'ask'
p3777
aS'stupid'
p3778
aS'question'
p3779
asg16
S'you ask stupid question'
p3780
sg18
S' you get stupid answer jackass'
p3781
sg20
Vscumbag-teacher
p3782
sg22
(lp3783
g3776
ag3777
ag3778
ag3779
aS'you'
p3784
aS'get'
p3785
aS'stupid'
p3786
aS'answer'
p3787
aS'jackass'
p3788
asg25
(lp3789
g3784
ag3785
ag3786
ag3787
ag3788
asba(iMeme
Meme
p3790
(dp3791
g3
(lp3792
S'the'
p3793
aS'bell'
p3794
aS'doesnt'
p3795
aS'dismiss'
p3796
aS'you'
p3797
asg16
S'the bell doesnt dismiss you'
p3798
sg18
S' i do'
p3799
sg20
Vscumbag-teacher
p3800
sg22
(lp3801
g3793
ag3794
ag3795
ag3796
ag3797
ag202
aS'do'
p3802
asg25
(lp3803
g202
ag3802
asba(iMeme
Meme
p3804
(dp3805
g3
(lp3806
S'that'
p3807
aS'is'
p3808
aS'where'
p3809
asg16
S'that is where'
p3810
sg18
S' i got my first blowjob'
p3811
sg20
Vscumbag-teacher
p3812
sg22
(lp3813
g3807
ag3808
ag3809
ag202
aS'got'
p3814
aS'my'
p3815
aS'first'
p3816
aS'blowjob'
p3817
asg25
(lp3818
g202
ag3814
ag3815
ag3816
ag3817
asba(iMeme
Meme
p3819
(dp3820
g3
(lp3821
S'register'
p3822
aS'for'
p3823
aS'classes'
p3824
asg16
S'register for classes'
p3825
sg18
S' online'
p3826
sg20
Vscumbag-teacher
p3827
sg22
(lp3828
g3822
ag3823
ag3824
aS'online'
p3829
asg25
(lp3830
g3829
asba(iMeme
Meme
p3831
(dp3832
g3
(lp3833
S'you'
p3834
aS'get'
p3835
aS'the'
p3836
aS'answer'
p3837
aS'right'
p3838
asg16
S'you get the answer right'
p3839
sg18
S' ill suck your dick'
p3840
sg20
Vscumbag-teacher
p3841
sg22
(lp3842
g3834
ag3835
ag3836
ag3837
ag3838
aS'ill'
p3843
aS'suck'
p3844
aS'your'
p3845
aS'dick'
p3846
asg25
(lp3847
g3843
ag3844
ag3845
ag3846
asba(iMeme
Meme
p3848
(dp3849
g3
(lp3850
S'can'
p3851
ag202
aS'go'
p3852
aS'to'
p3853
aS'the'
p3854
aS'bathroom'
p3855
asg16
S'can i go to the bathroom'
p3856
sg18
S' i dont know'
p3857
sg20
Vscumbag-teacher
p3858
sg22
(lp3859
g3851
ag202
ag3852
ag3853
ag3854
ag3855
ag202
aS'dont'
p3860
aS'know'
p3861
asg25
(lp3862
g202
ag3860
ag3861
asba(iMeme
Meme
p3863
(dp3864
g3
(lp3865
S'youre'
p3866
aS'from'
p3867
aS'mexico'
p3868
ag145
asg16
S'youre from mexico?'
p3869
sg18
S' get out of my classroom?'
p3870
sg20
Vscumbag-teacher
p3871
sg22
(lp3872
g3866
ag3867
ag3868
ag145
aS'get'
p3873
aS'out'
p3874
aS'of'
p3875
aS'my'
p3876
aS'classroom'
p3877
ag145
asg25
(lp3878
g3873
ag3874
ag3875
ag3876
ag3877
ag145
asba(iMeme
Meme
p3879
(dp3880
g3
(lp3881
S'guess'
p3882
aS'what'
p3883
ag145
asg16
S'guess what?'
p3884
sg18
S' niggers are not allowed.'
p3885
sg20
Vscumbag-teacher
p3886
sg22
(lp3887
g3882
ag3883
ag145
aS'niggers'
p3888
aS'are'
p3889
aS'not'
p3890
aS'allowed'
p3891
ag15
asg25
(lp3892
g3888
ag3889
ag3890
ag3891
ag15
asba(iMeme
Meme
p3893
(dp3894
g3
(lp3895
S'this'
p3896
aS'is'
p3897
aS'the'
p3898
aS'country'
p3899
asg16
S'this is the country'
p3900
sg18
S' where niggers came from'
p3901
sg20
Vscumbag-teacher
p3902
sg22
(lp3903
g3896
ag3897
ag3898
ag3899
aS'where'
p3904
aS'niggers'
p3905
aS'came'
p3906
aS'from'
p3907
asg25
(lp3908
g3904
ag3905
ag3906
ag3907
asba(iMeme
Meme
p3909
(dp3910
g3
(lp3911
S'quit'
p3912
aS'stalking'
p3913
aS'me'
p3914
asg16
S'quit stalking me'
p3915
sg18
S' get hobby nicca!'
p3916
sg20
Vscumbag-teacher
p3917
sg22
(lp3918
g3912
ag3913
ag3914
aS'get'
p3919
aS'hobby'
p3920
aS'nicca'
p3921
ag1075
asg25
(lp3922
g3919
ag3920
ag3921
ag1075
asba(iMeme
Meme
p3923
(dp3924
g3
(lp3925
S'and'
p3926
aS'kids..'
p3927
aS'thats'
p3928
aS'why'
p3929
asg16
S'and kids.. thats why'
p3930
sg18
S' your a nigger'
p3931
sg20
Vscumbag-teacher
p3932
sg22
(lp3933
g3926
ag3927
ag3928
ag3929
aS'your'
p3934
ag34
aS'nigger'
p3935
asg25
(lp3936
g3934
ag34
ag3935
asba(iMeme
Meme
p3937
(dp3938
g3
(lp3939
S'excuse'
p3940
aS'me'
p3941
aS'did'
p3942
aS'you'
p3943
aS'say'
p3944
aS'something'
p3945
ag145
asg16
S'excuse me did you say something?'
p3946
sg18
S' what ever it was i couldt be important'
p3947
sg20
Vscumbag-teacher
p3948
sg22
(lp3949
g3940
ag3941
ag3942
ag3943
ag3944
ag3945
ag145
aS'what'
p3950
aS'ever'
p3951
aS'it'
p3952
aS'was'
p3953
ag202
aS'couldt'
p3954
aS'be'
p3955
aS'important'
p3956
asg25
(lp3957
g3950
ag3951
ag3952
ag3953
ag202
ag3954
ag3955
ag3956
asba(iMeme
Meme
p3958
(dp3959
g3
(lp3960
S'gives'
p3961
aS'you'
p3962
ag34
aS'worksheet'
p3963
aS'to'
p3964
aS'fill'
p3965
aS'out'
p3966
aS'while'
p3967
aS'you'
p3968
aS'are'
p3969
aS'watching'
p3970
ag34
aS'movie'
p3971
asg16
S'gives you a worksheet to fill out while you are watching a movie'
p3972
sg18
S' the questions arent in order'
p3973
sg20
Vscumbag-teacher
p3974
sg22
(lp3975
g3961
ag3962
ag34
ag3963
ag3964
ag3965
ag3966
ag3967
ag3968
ag3969
ag3970
ag34
ag3971
aS'the'
p3976
aS'questions'
p3977
aS'arent'
p3978
aS'in'
p3979
aS'order'
p3980
asg25
(lp3981
g3976
ag3977
ag3978
ag3979
ag3980
asba(iMeme
Meme
p3982
(dp3983
g3
(lp3984
S'no'
p3985
aS'money'
p3986
asg16
S'no  money'
p3987
sg18
S' no  honey'
p3988
sg20
Vscumbag-teacher
p3989
sg22
(lp3990
g3985
ag3986
aS'no'
p3991
aS'honey'
p3992
asg25
(lp3993
g3991
ag3992
asba(iMeme
Meme
p3994
(dp3995
g3
(lp3996
S'assigns'
p3997
aS'homework'
p3998
asg16
S'assigns homework'
p3999
sg18
S' forgets to tell you it was cancelled before due date'
p4000
sg20
Vscumbag-teacher
p4001
sg22
(lp4002
g3997
ag3998
aS'forgets'
p4003
aS'to'
p4004
aS'tell'
p4005
aS'you'
p4006
aS'it'
p4007
aS'was'
p4008
aS'cancelled'
p4009
aS'before'
p4010
aS'due'
p4011
aS'date'
p4012
asg25
(lp4013
g4003
ag4004
ag4005
ag4006
ag4007
ag4008
ag4009
ag4010
ag4011
ag4012
asba(iMeme
Meme
p4014
(dp4015
g3
(lp4016
S'see'
p4017
aS'that'
p4018
aS'there'
p4019
aS'on'
p4020
aS'the'
p4021
aS'map'
p4022
ag145
asg16
S'see that there on the map?'
p4023
sg18
S' thats you'
p4024
sg20
Vscumbag-teacher
p4025
sg22
(lp4026
g4017
ag4018
ag4019
ag4020
ag4021
ag4022
ag145
aS'thats'
p4027
aS'you'
p4028
asg25
(lp4029
g4027
ag4028
asba(iMeme
Meme
p4030
(dp4031
g3
(lp4032
S'teaches'
p4033
aS'class'
p4034
ag15
aS'gets'
p4035
aS'off'
p4036
aS'topic'
p4037
asg16
S'teaches class . gets off topic'
p4038
sg18
S' pop quiz and what we just learned that day'
p4039
sg20
Vscumbag-teacher
p4040
sg22
(lp4041
g4033
ag4034
ag15
ag4035
ag4036
ag4037
aS'pop'
p4042
aS'quiz'
p4043
aS'and'
p4044
aS'what'
p4045
aS'we'
p4046
aS'just'
p4047
aS'learned'
p4048
aS'that'
p4049
aS'day'
p4050
asg25
(lp4051
g4042
ag4043
ag4044
ag4045
ag4046
ag4047
ag4048
ag4049
ag4050
asba(iMeme
Meme
p4052
(dp4053
g3
(lp4054
S'you'
p4055
aS'want'
p4056
aS'to'
p4057
aS'learn'
p4058
aS'japanese'
p4059
ag145
asg16
S'you want to learn japanese?'
p4060
sg18
S' dont make me laugh'
p4061
sg20
Vscumbag-teacher
p4062
sg22
(lp4063
g4055
ag4056
ag4057
ag4058
ag4059
ag145
aS'dont'
p4064
aS'make'
p4065
aS'me'
p4066
aS'laugh'
p4067
asg25
(lp4068
g4064
ag4065
ag4066
ag4067
asba(iMeme
Meme
p4069
(dp4070
g3
(lp4071
S'says'
p4072
aS'the'
p4073
aS'internet'
p4074
aS'is'
p4075
ag34
aS'waste'
p4076
aS'of'
p4077
aS'time'
p4078
asg16
S'says the internet is a waste of time'
p4079
sg18
S' is porn star'
p4080
sg20
Vscumbag-teacher
p4081
sg22
(lp4082
g4072
ag4073
ag4074
ag4075
ag34
ag4076
ag4077
ag4078
aS'is'
p4083
aS'porn'
p4084
aS'star'
p4085
asg25
(lp4086
g4083
ag4084
ag4085
asba(iMeme
Meme
p4087
(dp4088
g3
(lp4089
S'says'
p4090
ag15
aS'wikipedia'
p4091
aS'is'
p4092
aS'not'
p4093
ag34
aS'reliable'
p4094
aS'source'
p4095
asg16
S'says. wikipedia is not a reliable source'
p4096
sg18
S' uses 20 year old textbooks'
p4097
sg20
Vscumbag-teacher
p4098
sg22
(lp4099
g4090
ag15
ag4091
ag4092
ag4093
ag34
ag4094
ag4095
aS'uses'
p4100
aS'20'
p4101
aS'year'
p4102
aS'old'
p4103
aS'textbooks'
p4104
asg25
(lp4105
g4100
ag4101
ag4102
ag4103
ag4104
asba(iMeme
Meme
p4106
(dp4107
g3
(lp4108
S'you'
p4109
asg16
S'you'
p4110
sg18
S' can go back to mexico'
p4111
sg20
Vscumbag-teacher
p4112
sg22
(lp4113
g4109
aS'can'
p4114
aS'go'
p4115
aS'back'
p4116
aS'to'
p4117
aS'mexico'
p4118
asg25
(lp4119
g4114
ag4115
ag4116
ag4117
ag4118
asba(iMeme
Meme
p4120
(dp4121
g3
(lp4122
S'ill'
p4123
aS'fuck'
p4124
aS'deh'
p4125
asg16
S'ill fuck deh'
p4126
sg18
S' shit outta ya!'
p4127
sg20
Vscumbag-teacher
p4128
sg22
(lp4129
g4123
ag4124
ag4125
aS'shit'
p4130
aS'outta'
p4131
aS'ya'
p4132
ag1075
asg25
(lp4133
g4130
ag4131
ag4132
ag1075
asba(iMeme
Meme
p4134
(dp4135
g3
(lp4136
S'no'
p4137
aS'swearing'
p4138
aS'in'
p4139
aS'my'
p4140
aS'class'
p4141
asg16
S'no swearing in my class'
p4142
sg18
S' assigns book with swearing in it'
p4143
sg20
Vscumbag-teacher
p4144
sg22
(lp4145
g4137
ag4138
ag4139
ag4140
ag4141
aS'assigns'
p4146
aS'book'
p4147
aS'with'
p4148
aS'swearing'
p4149
aS'in'
p4150
aS'it'
p4151
asg25
(lp4152
g4146
ag4147
ag4148
ag4149
ag4150
ag4151
asba(iMeme
Meme
p4153
(dp4154
g3
(lp4155
S'oh'
p4156
aS'yeah'
p4157
ag145
asg16
S'oh yeah?'
p4158
sg18
S' i could care less'
p4159
sg20
Vscumbag-teacher
p4160
sg22
(lp4161
g4156
ag4157
ag145
ag202
aS'could'
p4162
aS'care'
p4163
aS'less'
p4164
asg25
(lp4165
g202
ag4162
ag4163
ag4164
asba(iMeme
Meme
p4166
(dp4167
g3
(lp4168
S'cocaina'
p4169
asg16
S'cocaina'
p4170
sg18
S' your mom gets it from here'
p4171
sg20
Vscumbag-teacher
p4172
sg22
(lp4173
g4169
aS'your'
p4174
aS'mom'
p4175
aS'gets'
p4176
aS'it'
p4177
aS'from'
p4178
aS'here'
p4179
asg25
(lp4180
g4174
ag4175
ag4176
ag4177
ag4178
ag4179
asba(iMeme
Meme
p4181
(dp4182
g3
(lp4183
S'forget'
p4184
aS'test'
p4185
asg16
S'forget test'
p4186
sg18
S' happy ending?'
p4187
sg20
Vscumbag-teacher
p4188
sg22
(lp4189
g4184
ag4185
aS'happy'
p4190
aS'ending'
p4191
ag145
asg25
(lp4192
g4190
ag4191
ag145
asba(iMeme
Meme
p4193
(dp4194
g3
(lp4195
S'need'
p4196
ag34
aS'helping'
p4197
aS'hand'
p4198
ag145
asg16
S'need a helping hand?'
p4199
sg18
S' bitch slap you when youre not looking.'
p4200
sg20
Vscumbag-teacher
p4201
sg22
(lp4202
g4196
ag34
ag4197
ag4198
ag145
aS'bitch'
p4203
aS'slap'
p4204
aS'you'
p4205
aS'when'
p4206
aS'youre'
p4207
aS'not'
p4208
aS'looking'
p4209
ag15
asg25
(lp4210
g4203
ag4204
ag4205
ag4206
ag4207
ag4208
ag4209
ag15
asba(iMeme
Meme
p4211
(dp4212
g3
(lp4213
S'kelsey'
p4214
aS'wood'
p4215
asg16
S'kelsey wood'
p4216
sg18
S' shut the fuck up you dumb bitch'
p4217
sg20
Vscumbag-teacher
p4218
sg22
(lp4219
g4214
ag4215
aS'shut'
p4220
aS'the'
p4221
aS'fuck'
p4222
aS'up'
p4223
aS'you'
p4224
aS'dumb'
p4225
aS'bitch'
p4226
asg25
(lp4227
g4220
ag4221
ag4222
ag4223
ag4224
ag4225
ag4226
asba(iMeme
Meme
p4228
(dp4229
g3
(lp4230
S'sees'
p4231
aS'student'
p4232
aS'beeing'
p4233
aS'late'
p4234
aS'for'
p4235
aS'class'
p4236
asg16
S'sees student beeing late for class'
p4237
sg18
S' closes classroom door'
p4238
sg20
Vscumbag-teacher
p4239
sg22
(lp4240
g4231
ag4232
ag4233
ag4234
ag4235
ag4236
aS'closes'
p4241
aS'classroom'
p4242
aS'door'
p4243
asg25
(lp4244
g4241
ag4242
ag4243
asba(iMeme
Meme
p4245
(dp4246
g3
(lp4247
S'mrs.harrington'
p4248
asg16
S'mrs.harrington'
p4249
sg18
S' just dont give a fuck'
p4250
sg20
Vscumbag-teacher
p4251
sg22
(lp4252
g4248
aS'just'
p4253
aS'dont'
p4254
aS'give'
p4255
ag34
aS'fuck'
p4256
asg25
(lp4257
g4253
ag4254
ag4255
ag34
ag4256
asba(iMeme
Meme
p4258
(dp4259
g3
(lp4260
S'and'
p4261
aS'this'
p4262
aS'is'
p4263
aS'south'
p4264
aS'america'
p4265
asg16
S'and this is south america'
p4266
sg18
S' where the niggers live'
p4267
sg20
Vscumbag-teacher
p4268
sg22
(lp4269
g4261
ag4262
ag4263
ag4264
ag4265
aS'where'
p4270
aS'the'
p4271
aS'niggers'
p4272
aS'live'
p4273
asg25
(lp4274
g4270
ag4271
ag4272
ag4273
asba(iMeme
Meme
p4275
(dp4276
g3
(lp4277
S'you'
p4278
aS'can'
p4279
aS'be'
p4280
aS'anything'
p4281
aS'you'
p4282
aS'want'
p4283
asg16
S'you can be anything you want'
p4284
sg18
S' youll never get into college with these grades'
p4285
sg20
Vscumbag-teacher
p4286
sg22
(lp4287
g4278
ag4279
ag4280
ag4281
ag4282
ag4283
aS'youll'
p4288
aS'never'
p4289
aS'get'
p4290
aS'into'
p4291
aS'college'
p4292
aS'with'
p4293
aS'these'
p4294
aS'grades'
p4295
asg25
(lp4296
g4288
ag4289
ag4290
ag4291
ag4292
ag4293
ag4294
ag4295
asba(iMeme
Meme
p4297
(dp4298
g3
(lp4299
S'wikipedia'
p4300
aS'isnt'
p4301
ag34
aS'reliable'
p4302
aS'source'
p4303
asg16
S'wikipedia isnt a reliable source'
p4304
sg18
S' here are some 10 year old encyclopedias'
p4305
sg20
Vscumbag-teacher
p4306
sg22
(lp4307
g4300
ag4301
ag34
ag4302
ag4303
aS'here'
p4308
aS'are'
p4309
aS'some'
p4310
aS'10'
p4311
aS'year'
p4312
aS'old'
p4313
aS'encyclopedias'
p4314
asg25
(lp4315
g4308
ag4309
ag4310
ag4311
ag4312
ag4313
ag4314
asba(iMeme
Meme
p4316
(dp4317
g3
(lp4318
S'no'
p4319
aS'texting'
p4320
aS'in'
p4321
aS'class'
p4322
asg16
S'no texting in class'
p4323
sg18
S' texts while everyone is working'
p4324
sg20
Vscumbag-teacher
p4325
sg22
(lp4326
g4319
ag4320
ag4321
ag4322
aS'texts'
p4327
aS'while'
p4328
aS'everyone'
p4329
aS'is'
p4330
aS'working'
p4331
asg25
(lp4332
g4327
ag4328
ag4329
ag4330
ag4331
asba(iMeme
Meme
p4333
(dp4334
g3
(lp4335
g202
aS'have'
p4336
ag34
aS'question'
p4337
aS'miss'
p4338
asg16
S'i have a question miss'
p4339
sg18
S' where is italy located?'
p4340
sg20
Vscumbag-teacher
p4341
sg22
(lp4342
g202
ag4336
ag34
ag4337
ag4338
aS'where'
p4343
aS'is'
p4344
aS'italy'
p4345
aS'located'
p4346
ag145
asg25
(lp4347
g4343
ag4344
ag4345
ag4346
ag145
asba(iMeme
Meme
p4348
(dp4349
g3
(lp4350
S'yells'
p4351
aS'your'
p4352
aS'name'
p4353
aS'like'
p4354
aS'your'
p4355
aS'in'
p4356
aS'trouble'
p4357
asg16
S'yells your name like your in trouble'
p4358
sg18
S' says shes just taking attendance'
p4359
sg20
Vscumbag-teacher
p4360
sg22
(lp4361
g4351
ag4352
ag4353
ag4354
ag4355
ag4356
ag4357
aS'says'
p4362
aS'shes'
p4363
aS'just'
p4364
aS'taking'
p4365
aS'attendance'
p4366
asg25
(lp4367
g4362
ag4363
ag4364
ag4365
ag4366
asba(iMeme
Meme
p4368
(dp4369
g3
(lp4370
S'sorry'
p4371
asg16
S'sorry'
p4372
sg18
S' what was that?'
p4373
sg20
Vscumbag-teacher
p4374
sg22
(lp4375
g4371
aS'what'
p4376
aS'was'
p4377
aS'that'
p4378
ag145
asg25
(lp4379
g4376
ag4377
ag4378
ag145
asba(iMeme
Meme
p4380
(dp4381
g3
(lp4382
S'gives'
p4383
aS'long'
p4384
aS'and'
p4385
aS'pointless'
p4386
aS'explanation'
p4387
aS'about'
p4388
aS'homework'
p4389
aS'until'
p4390
aS'break'
p4391
aS'is'
p4392
aS'over'
p4393
asg16
S'gives long and pointless explanation about homework until break is over'
p4394
sg18
S' oh'
p4395
sg20
Vscumbag-teacher
p4396
sg22
(lp4397
g4383
ag4384
ag4385
ag4386
ag4387
ag4388
ag4389
ag4390
ag4391
ag4392
ag4393
aS'oh'
p4398
asg25
(lp4399
g4398
asba(iMeme
Meme
p4400
(dp4401
g3
(lp4402
g202
aS'like'
p4403
aS'to'
p4404
aS'banter'
p4405
aS'with'
p4406
aS'my'
p4407
aS'classes'
p4408
asg16
S'i like to banter with my classes'
p4409
sg18
S' i go off if i am outwitted'
p4410
sg20
Vscumbag-teacher
p4411
sg22
(lp4412
g202
ag4403
ag4404
ag4405
ag4406
ag4407
ag4408
ag202
aS'go'
p4413
aS'off'
p4414
aS'if'
p4415
ag202
aS'am'
p4416
aS'outwitted'
p4417
asg25
(lp4418
g202
ag4413
ag4414
ag4415
ag202
ag4416
ag4417
asba(iMeme
Meme
p4419
(dp4420
g3
(lp4421
S'says'
p4422
aS'that'
p4423
aS'you'
p4424
aS'will'
p4425
aS'not'
p4426
aS'pass'
p4427
aS'with'
p4428
aS'such'
p4429
aS'bad'
p4430
aS'grades'
p4431
asg16
S'says that you will not pass with such bad grades'
p4432
sg18
S' still passes'
p4433
sg20
Vscumbag-teacher
p4434
sg22
(lp4435
g4422
ag4423
ag4424
ag4425
ag4426
ag4427
ag4428
ag4429
ag4430
ag4431
aS'still'
p4436
aS'passes'
p4437
asg25
(lp4438
g4436
ag4437
asba(iMeme
Meme
p4439
(dp4440
g3
(lp4441
S'the'
p4442
aS'bell'
p4443
aS'doesnt'
p4444
aS'dismiss'
p4445
aS'you'
p4446
asg16
S'the bell doesnt dismiss you'
p4447
sg18
S' i do.'
p4448
sg20
Vscumbag-teacher
p4449
sg22
(lp4450
g4442
ag4443
ag4444
ag4445
ag4446
ag202
aS'do'
p4451
ag15
asg25
(lp4452
g202
ag4451
ag15
asba(iMeme
Meme
p4453
(dp4454
g3
(lp4455
S'hi'
p4456
aS'this'
p4457
aS'is'
p4458
aS'america'
p4459
asg16
S'hi this is america'
p4460
sg18
S' i am teacher'
p4461
sg20
Vscumbag-teacher
p4462
sg22
(lp4463
g4456
ag4457
ag4458
ag4459
ag202
aS'am'
p4464
aS'teacher'
p4465
asg25
(lp4466
g202
ag4464
ag4465
asba(iMeme
Meme
p4467
(dp4468
g3
(lp4469
S'you'
p4470
aS'stole'
p4471
aS'my'
p4472
aS'captions'
p4473
asg16
S'you stole my captions'
p4474
sg18
S' youre a dickhead'
p4475
sg20
Vscumbag-teacher
p4476
sg22
(lp4477
g4470
ag4471
ag4472
ag4473
aS'youre'
p4478
ag34
aS'dickhead'
p4479
asg25
(lp4480
g4478
ag34
ag4479
asba(iMeme
Meme
p4481
(dp4482
g3
(lp4483
g202
aS'teach'
p4484
aS'free'
p4485
aS'speech'
p4486
asg16
S'i teach free speech'
p4487
sg18
S' dont say jesus in my class.'
p4488
sg20
Vscumbag-teacher
p4489
sg22
(lp4490
g202
ag4484
ag4485
ag4486
aS'dont'
p4491
aS'say'
p4492
aS'jesus'
p4493
aS'in'
p4494
aS'my'
p4495
aS'class'
p4496
ag15
asg25
(lp4497
g4491
ag4492
ag4493
ag4494
ag4495
ag4496
ag15
asba(iMeme
Meme
p4498
(dp4499
g3
(lp4500
S'dog'
p4501
aS'ate'
p4502
aS'your'
p4503
aS'homework'
p4504
ag145
asg16
S'dog ate your homework?'
p4505
sg18
S' i kill your dog then fail you'
p4506
sg20
Vscumbag-teacher
p4507
sg22
(lp4508
g4501
ag4502
ag4503
ag4504
ag145
ag202
aS'kill'
p4509
aS'your'
p4510
aS'dog'
p4511
aS'then'
p4512
aS'fail'
p4513
aS'you'
p4514
asg25
(lp4515
g202
ag4509
ag4510
ag4511
ag4512
ag4513
ag4514
asba(iMeme
Meme
p4516
(dp4517
g3
(lp4518
g202
aS'better'
p4519
aS'not'
p4520
aS'catch'
p4521
asg16
S'i better not catch'
p4522
sg18
S' you staring at my ass again'
p4523
sg20
Vscumbag-teacher
p4524
sg22
(lp4525
g202
ag4519
ag4520
ag4521
aS'you'
p4526
aS'staring'
p4527
aS'at'
p4528
aS'my'
p4529
aS'ass'
p4530
aS'again'
p4531
asg25
(lp4532
g4526
ag4527
ag4528
ag4529
ag4530
ag4531
asba(iMeme
Meme
p4533
(dp4534
g3
(lp4535
S'quit'
p4536
aS'looking'
p4537
aS'out'
p4538
aS'the'
p4539
aS'window'
p4540
asg16
S'quit looking out the window'
p4541
sg18
S' im taking ten minutes to write this on the board'
p4542
sg20
Vscumbag-teacher
p4543
sg22
(lp4544
g4536
ag4537
ag4538
ag4539
ag4540
aS'im'
p4545
aS'taking'
p4546
aS'ten'
p4547
aS'minutes'
p4548
aS'to'
p4549
aS'write'
p4550
aS'this'
p4551
aS'on'
p4552
aS'the'
p4553
aS'board'
p4554
asg25
(lp4555
g4545
ag4546
ag4547
ag4548
ag4549
ag4550
ag4551
ag4552
ag4553
ag4554
asba(iMeme
Meme
p4556
(dp4557
g3
(lp4558
S'according'
p4559
aS'to'
p4560
aS'the'
p4561
aS'periodic'
p4562
aS'table'
p4563
asg16
S'according to the periodic table'
p4564
sg18
S' go fuck yourself is now an element'
p4565
sg20
Vscumbag-teacher
p4566
sg22
(lp4567
g4559
ag4560
ag4561
ag4562
ag4563
aS'go'
p4568
aS'fuck'
p4569
aS'yourself'
p4570
aS'is'
p4571
aS'now'
p4572
aS'an'
p4573
aS'element'
p4574
asg25
(lp4575
g4568
ag4569
ag4570
ag4571
ag4572
ag4573
ag4574
asba(iMeme
Meme
p4576
(dp4577
g3
(lp4578
S'ask'
p4579
aS'her'
p4580
aS'can'
p4581
ag202
aS'go'
p4582
aS'to'
p4583
aS'the'
p4584
aS'bathroom'
p4585
asg16
S'ask her can i go to the bathroom'
p4586
sg18
S' i dont know'
p4587
sg20
Vscumbag-teacher
p4588
sg22
(lp4589
g4579
ag4580
ag4581
ag202
ag4582
ag4583
ag4584
ag4585
ag202
aS'dont'
p4590
aS'know'
p4591
asg25
(lp4592
g202
ag4590
ag4591
asba(iMeme
Meme
p4593
(dp4594
g3
(lp4595
S'got'
p4596
aS'every'
p4597
aS'question'
p4598
aS'right'
p4599
asg16
S'got every question right'
p4600
sg18
S' you failed because youre 12'
p4601
sg20
Vscumbag-teacher
p4602
sg22
(lp4603
g4596
ag4597
ag4598
ag4599
aS'you'
p4604
aS'failed'
p4605
aS'because'
p4606
aS'youre'
p4607
aS'12'
p4608
asg25
(lp4609
g4604
ag4605
ag4606
ag4607
ag4608
asba(iMeme
Meme
p4610
(dp4611
g3
(lp4612
S'asks'
p4613
aS'you'
p4614
ag34
aS'question'
p4615
asg16
S'asks you a question'
p4616
sg18
S' asks another student to correct you in front of everyone'
p4617
sg20
Vscumbag-teacher
p4618
sg22
(lp4619
g4613
ag4614
ag34
ag4615
aS'asks'
p4620
aS'another'
p4621
aS'student'
p4622
aS'to'
p4623
aS'correct'
p4624
aS'you'
p4625
aS'in'
p4626
aS'front'
p4627
aS'of'
p4628
aS'everyone'
p4629
asg25
(lp4630
g4620
ag4621
ag4622
ag4623
ag4624
ag4625
ag4626
ag4627
ag4628
ag4629
asba(iMeme
Meme
p4631
(dp4632
g3
(lp4633
S'currently'
p4634
aS'having'
p4635
ag34
aS'bad'
p4636
aS'day'
p4637
asg16
S'currently having a bad day'
p4638
sg18
S' makes sure you will too'
p4639
sg20
Vscumbag-teacher
p4640
sg22
(lp4641
g4634
ag4635
ag34
ag4636
ag4637
aS'makes'
p4642
aS'sure'
p4643
aS'you'
p4644
aS'will'
p4645
aS'too'
p4646
asg25
(lp4647
g4642
ag4643
ag4644
ag4645
ag4646
asba(iMeme
Meme
p4648
(dp4649
g3
(lp4650
S'speaking'
p4651
aS'of'
p4652
aS'data'
p4653
asg16
S'speaking of data'
p4654
sg18
S' have you heard about the three branches of government?'
p4655
sg20
Vscumbag-teacher
p4656
sg22
(lp4657
g4651
ag4652
ag4653
aS'have'
p4658
aS'you'
p4659
aS'heard'
p4660
aS'about'
p4661
aS'the'
p4662
aS'three'
p4663
aS'branches'
p4664
aS'of'
p4665
aS'government'
p4666
ag145
asg25
(lp4667
g4658
ag4659
ag4660
ag4661
ag4662
ag4663
ag4664
ag4665
ag4666
ag145
asba(iMeme
Meme
p4668
(dp4669
g3
(lp4670
g202
aS'only'
p4671
aS'care'
p4672
aS'about'
p4673
aS'the'
p4674
aS'quality'
p4675
aS'of'
p4676
aS'the'
p4677
aS'essay'
p4678
asg16
S'i only care about the quality of the essay'
p4679
sg18
S' not the quantity.'
p4680
sg20
Vscumbag-teacher
p4681
sg22
(lp4682
g202
ag4671
ag4672
ag4673
ag4674
ag4675
ag4676
ag4677
ag4678
aS'not'
p4683
aS'the'
p4684
aS'quantity'
p4685
ag15
asg25
(lp4686
g4683
ag4684
ag4685
ag15
asba(iMeme
Meme
p4687
(dp4688
g3
(lp4689
g202
aS'have'
p4690
ag34
aS'masters'
p4691
aS'degree'
p4692
asg16
S'i have a masters degree'
p4693
sg18
S' but i hate kids'
p4694
sg20
Vscumbag-teacher
p4695
sg22
(lp4696
g202
ag4690
ag34
ag4691
ag4692
aS'but'
p4697
ag202
aS'hate'
p4698
aS'kids'
p4699
asg25
(lp4700
g4697
ag202
ag4698
ag4699
asba(iMeme
Meme
p4701
(dp4702
g3
(lp4703
S'hey'
p4704
aS'edmund'
p4705
asg16
S'hey edmund'
p4706
sg18
S' you can fuck me'
p4707
sg20
Vscumbag-teacher
p4708
sg22
(lp4709
g4704
ag4705
aS'you'
p4710
aS'can'
p4711
aS'fuck'
p4712
aS'me'
p4713
asg25
(lp4714
g4710
ag4711
ag4712
ag4713
asba(iMeme
Meme
p4715
(dp4716
g3
(lp4717
S'calls'
p4718
aS'on'
p4719
aS'the'
p4720
aS'asian'
p4721
aS'kid'
p4722
asg16
S'calls on the asian kid'
p4723
sg18
S' calls him by the other asian kids name'
p4724
sg20
Vscumbag-teacher
p4725
sg22
(lp4726
g4718
ag4719
ag4720
ag4721
ag4722
aS'calls'
p4727
aS'him'
p4728
aS'by'
p4729
aS'the'
p4730
aS'other'
p4731
aS'asian'
p4732
aS'kids'
p4733
aS'name'
p4734
asg25
(lp4735
g4727
ag4728
ag4729
ag4730
ag4731
ag4732
ag4733
ag4734
asba(iMeme
Meme
p4736
(dp4737
g3
(lp4738
S'and'
p4739
aS'you'
p4740
aS'better'
p4741
aS'bring'
p4742
asg16
S'and you better bring'
p4743
sg18
S' back my money bitch'
p4744
sg20
Vscumbag-teacher
p4745
sg22
(lp4746
g4739
ag4740
ag4741
ag4742
aS'back'
p4747
aS'my'
p4748
aS'money'
p4749
aS'bitch'
p4750
asg25
(lp4751
g4747
ag4748
ag4749
ag4750
asba(iMeme
Meme
p4752
(dp4753
g3
(lp4754
S'if'
p4755
aS'u'
p4756
aS'go'
p4757
aS'home'
p4758
aS'with'
p4759
aS'someone'
p4760
aS'who'
p4761
aS'does'
p4762
aS'not'
p4763
aS'have'
p4764
aS'books'
p4765
asg16
S'if u go home with someone who does not have books'
p4766
sg18
S' dont   fuck   them'
p4767
sg20
Vscumbag-teacher
p4768
sg22
(lp4769
g4755
ag4756
ag4757
ag4758
ag4759
ag4760
ag4761
ag4762
ag4763
ag4764
ag4765
aS'dont'
p4770
aS'fuck'
p4771
aS'them'
p4772
asg25
(lp4773
g4770
ag4771
ag4772
asba(iMeme
Meme
p4774
(dp4775
g3
(lp4776
S'got'
p4777
ag34
aS'question'
p4778
ag145
asg16
S'got a question?'
p4779
sg18
S' ask your friends'
p4780
sg20
Vscumbag-teacher
p4781
sg22
(lp4782
g4777
ag34
ag4778
ag145
aS'ask'
p4783
aS'your'
p4784
aS'friends'
p4785
asg25
(lp4786
g4783
ag4784
ag4785
asba(iMeme
Meme
p4787
(dp4788
g3
(lp4789
S'so'
p4790
ag202
aS'heard'
p4791
aS'federer'
p4792
aS'lost'
p4793
asg16
S'so i heard federer lost'
p4794
sg18
S' you mad?'
p4795
sg20
Vscumbag-teacher
p4796
sg22
(lp4797
g4790
ag202
ag4791
ag4792
ag4793
aS'you'
p4798
aS'mad'
p4799
ag145
asg25
(lp4800
g4798
ag4799
ag145
asba(iMeme
Meme
p4801
(dp4802
g3
(lp4803
S'and'
p4804
ag202
aS'was'
p4805
aS'like'
p4806
asg16
S'and i was like'
p4807
sg18
S' why you so obsessed with him?'
p4808
sg20
Vscumbag-teacher
p4809
sg22
(lp4810
g4804
ag202
ag4805
ag4806
aS'why'
p4811
aS'you'
p4812
aS'so'
p4813
aS'obsessed'
p4814
aS'with'
p4815
aS'him'
p4816
ag145
asg25
(lp4817
g4811
ag4812
ag4813
ag4814
ag4815
ag4816
ag145
asba(iMeme
Meme
p4818
(dp4819
g3
(lp4820
S'you'
p4821
aS'must'
p4822
aS'bring'
p4823
aS'your'
p4824
aS'book'
p4825
aS'to'
p4826
aS'class'
p4827
aS'everyday'
p4828
ag1075
asg16
S'you must bring your book to class everyday!'
p4829
sg18
S' never uses textbook.'
p4830
sg20
Vscumbag-teacher
p4831
sg22
(lp4832
g4821
ag4822
ag4823
ag4824
ag4825
ag4826
ag4827
ag4828
ag1075
aS'never'
p4833
aS'uses'
p4834
aS'textbook'
p4835
ag15
asg25
(lp4836
g4833
ag4834
ag4835
ag15
asba(iMeme
Meme
p4837
(dp4838
g3
(lp4839
S'why'
p4840
ag4756
aS'no'
p4841
asg16
S'why u no'
p4842
sg18
S' take head out ass'
p4843
sg20
Vscumbag-teacher
p4844
sg22
(lp4845
g4840
ag4756
ag4841
aS'take'
p4846
aS'head'
p4847
aS'out'
p4848
aS'ass'
p4849
asg25
(lp4850
g4846
ag4847
ag4848
ag4849
asba(iMeme
Meme
p4851
(dp4852
g3
(lp4853
S'bell'
p4854
aS'rings'
p4855
asg16
S'bell rings'
p4856
sg18
S' dont leave heres your homework!'
p4857
sg20
Vscumbag-teacher
p4858
sg22
(lp4859
g4854
ag4855
aS'dont'
p4860
aS'leave'
p4861
aS'heres'
p4862
aS'your'
p4863
aS'homework'
p4864
ag1075
asg25
(lp4865
g4860
ag4861
ag4862
ag4863
ag4864
ag1075
asba(iMeme
Meme
p4866
(dp4867
g3
(lp4868
S'how'
p4869
aS'about'
p4870
aS'you'
p4871
aS'sit'
p4872
aS'down'
p4873
aS'shut'
p4874
aS'up'
p4875
asg16
S'how about you sit down shut up'
p4876
sg18
S' and suck rogers dick kacie!'
p4877
sg20
Vscumbag-teacher
p4878
sg22
(lp4879
g4869
ag4870
ag4871
ag4872
ag4873
ag4874
ag4875
aS'and'
p4880
aS'suck'
p4881
aS'rogers'
p4882
aS'dick'
p4883
aS'kacie'
p4884
ag1075
asg25
(lp4885
g4880
ag4881
ag4882
ag4883
ag4884
ag1075
asba(iMeme
Meme
p4886
(dp4887
g3
(lp4888
S'hey'
p4889
aS'teacher'
p4890
asg16
S'hey teacher'
p4891
sg18
S' if your class makes you cry'
p4892
sg20
Vscumbag-teacher
p4893
sg22
(lp4894
g4889
ag4890
aS'if'
p4895
aS'your'
p4896
aS'class'
p4897
aS'makes'
p4898
aS'you'
p4899
aS'cry'
p4900
asg25
(lp4901
g4895
ag4896
ag4897
ag4898
ag4899
ag4900
asba(iMeme
Meme
p4902
(dp4903
g3
(lp4904
g202
aS'like'
p4905
aS'to'
p4906
aS'banter'
p4907
aS'with'
p4908
aS'my'
p4909
aS'students'
p4910
ag15
asg16
S'i like to banter with my students.'
p4911
sg18
S' i snap when i am outwitted by students with opposing opinions.'
p4912
sg20
Vscumbag-teacher
p4913
sg22
(lp4914
g202
ag4905
ag4906
ag4907
ag4908
ag4909
ag4910
ag15
ag202
aS'snap'
p4915
aS'when'
p4916
ag202
aS'am'
p4917
aS'outwitted'
p4918
aS'by'
p4919
aS'students'
p4920
aS'with'
p4921
aS'opposing'
p4922
aS'opinions'
p4923
ag15
asg25
(lp4924
g202
ag4915
ag4916
ag202
ag4917
ag4918
ag4919
ag4920
ag4921
ag4922
ag4923
ag15
asba(iMeme
Meme
p4925
(dp4926
g3
(lp4927
S'hi'
p4928
aS'this'
p4929
aS'is'
p4930
aS'america'
p4931
asg16
S'hi this is america'
p4932
sg18
S' i live in columbia my dad was vietnamese'
p4933
sg20
Vscumbag-teacher
p4934
sg22
(lp4935
g4928
ag4929
ag4930
ag4931
ag202
aS'live'
p4936
aS'in'
p4937
aS'columbia'
p4938
aS'my'
p4939
aS'dad'
p4940
aS'was'
p4941
aS'vietnamese'
p4942
asg25
(lp4943
g202
ag4936
ag4937
ag4938
ag4939
ag4940
ag4941
ag4942
asba(iMeme
Meme
p4944
(dp4945
g3
(lp4946
S'tells'
p4947
aS'you'
p4948
aS'to'
p4949
aS'pay'
p4950
aS'attention'
p4951
asg16
S'tells you to pay attention'
p4952
sg18
S' asks where she left off last lesson'
p4953
sg20
Vscumbag-teacher
p4954
sg22
(lp4955
g4947
ag4948
ag4949
ag4950
ag4951
aS'asks'
p4956
aS'where'
p4957
aS'she'
p4958
aS'left'
p4959
aS'off'
p4960
aS'last'
p4961
aS'lesson'
p4962
asg25
(lp4963
g4956
ag4957
ag4958
ag4959
ag4960
ag4961
ag4962
asba(iMeme
Meme
p4964
(dp4965
g3
(lp4966
S'shut'
p4967
aS'that'
p4968
aS'slophole'
p4969
asg16
S'shut that slophole'
p4970
sg18
S' so i can fucking teach'
p4971
sg20
Vscumbag-teacher
p4972
sg22
(lp4973
g4967
ag4968
ag4969
aS'so'
p4974
ag202
aS'can'
p4975
aS'fucking'
p4976
aS'teach'
p4977
asg25
(lp4978
g4974
ag202
ag4975
ag4976
ag4977
asba(iMeme
Meme
p4979
(dp4980
g3
(lp4981
S'dont'
p4982
aS'know'
p4983
aS'how'
p4984
aS'to'
p4985
aS'spell'
p4986
ag34
aS'word'
p4987
ag145
asg16
S'dont know how to spell a word?'
p4988
sg18
S' look it up in the dictionary'
p4989
sg20
Vscumbag-teacher
p4990
sg22
(lp4991
g4982
ag4983
ag4984
ag4985
ag4986
ag34
ag4987
ag145
aS'look'
p4992
aS'it'
p4993
aS'up'
p4994
aS'in'
p4995
aS'the'
p4996
aS'dictionary'
p4997
asg25
(lp4998
g4992
ag4993
ag4994
ag4995
ag4996
ag4997
asba(iMeme
Meme
p4999
(dp5000
g3
(lp5001
S'did'
p5002
aS'you'
p5003
aS'say'
p5004
aS'study'
p5005
ag145
asg16
S'did you say study?'
p5006
sg18
S' fuck that; ill become a stripper!'
p5007
sg20
Vscumbag-teacher
p5008
sg22
(lp5009
g5002
ag5003
ag5004
ag5005
ag145
aS'fuck'
p5010
aS'that'
p5011
ag3084
aS'ill'
p5012
aS'become'
p5013
ag34
aS'stripper'
p5014
ag1075
asg25
(lp5015
g5010
ag5011
ag3084
ag5012
ag5013
ag34
ag5014
ag1075
asba(iMeme
Meme
p5016
(dp5017
g3
(lp5018
S'tells'
p5019
aS'you'
p5020
aS'to'
p5021
aS'buy'
p5022
aS'expensive'
p5023
aS'caculator'
p5024
asg16
S'tells you to buy expensive caculator'
p5025
sg18
S' dont use your caculator use your brain'
p5026
sg20
Vscumbag-teacher
p5027
sg22
(lp5028
g5019
ag5020
ag5021
ag5022
ag5023
ag5024
aS'dont'
p5029
aS'use'
p5030
aS'your'
p5031
aS'caculator'
p5032
aS'use'
p5033
aS'your'
p5034
aS'brain'
p5035
asg25
(lp5036
g5029
ag5030
ag5031
ag5032
ag5033
ag5034
ag5035
asba(iMeme
Meme
p5037
(dp5038
g3
(lp5039
S'wikipedia'
p5040
aS'is'
p5041
aS'an'
p5042
aS'unreliable'
p5043
aS'scource'
p5044
asg16
S'wikipedia is an unreliable scource'
p5045
sg18
S' here. use this book with ussr on it'
p5046
sg20
Vscumbag-teacher
p5047
sg22
(lp5048
g5040
ag5041
ag5042
ag5043
ag5044
aS'here'
p5049
ag15
aS'use'
p5050
aS'this'
p5051
aS'book'
p5052
aS'with'
p5053
aS'ussr'
p5054
aS'on'
p5055
aS'it'
p5056
asg25
(lp5057
g5049
ag15
ag5050
ag5051
ag5052
ag5053
ag5054
ag5055
ag5056
asba(iMeme
Meme
p5058
(dp5059
g3
(lp5060
S'late'
p5061
aS'by'
p5062
aS'2'
p5063
aS'seconds'
p5064
ag145
asg16
S'late by 2 seconds?'
p5065
sg18
S' get a tardy pass'
p5066
sg20
Vscumbag-teacher
p5067
sg22
(lp5068
g5061
ag5062
ag5063
ag5064
ag145
aS'get'
p5069
ag34
aS'tardy'
p5070
aS'pass'
p5071
asg25
(lp5072
g5069
ag34
ag5070
ag5071
asba(iMeme
Meme
p5073
(dp5074
g3
(lp5075
S'now'
p5076
aS'that'
p5077
aS'one'
p5078
asg16
S'now that one'
p5079
sg18
S' gets a smiley face'
p5080
sg20
Vscumbag-teacher
p5081
sg22
(lp5082
g5076
ag5077
ag5078
aS'gets'
p5083
ag34
aS'smiley'
p5084
aS'face'
p5085
asg25
(lp5086
g5083
ag34
ag5084
ag5085
asba(iMeme
Meme
p5087
(dp5088
g3
(lp5089
S'youll'
p5090
aS'need'
p5091
aS'this'
p5092
aS'in'
p5093
aS'college'
p5094
asg16
S'youll need this in college'
p5095
sg18
S' yeah right'
p5096
sg20
Vscumbag-teacher
p5097
sg22
(lp5098
g5090
ag5091
ag5092
ag5093
ag5094
aS'yeah'
p5099
aS'right'
p5100
asg25
(lp5101
g5099
ag5100
asba(iMeme
Meme
p5102
(dp5103
g3
(lp5104
S'youre'
p5105
ag34
aS'spic'
p5106
asg16
S'youre a spic'
p5107
sg18
S' you come from this country here'
p5108
sg20
Vscumbag-teacher
p5109
sg22
(lp5110
g5105
ag34
ag5106
aS'you'
p5111
aS'come'
p5112
aS'from'
p5113
aS'this'
p5114
aS'country'
p5115
aS'here'
p5116
asg25
(lp5117
g5111
ag5112
ag5113
ag5114
ag5115
ag5116
asba(iMeme
Meme
p5118
(dp5119
g3
(lp5120
S'you'
p5121
aS'thought'
p5122
aS'he'
p5123
aS'couldnt'
p5124
aS'make'
p5125
aS'it'
p5126
ag145
asg16
S'you thought he couldnt make it?'
p5127
sg18
S' now'
p5128
sg20
Vscumbag-teacher
p5129
sg22
(lp5130
g5121
ag5122
ag5123
ag5124
ag5125
ag5126
ag145
aS'now'
p5131
asg25
(lp5132
g5131
asba(iMeme
Meme
p5133
(dp5134
g3
(lp5135
S'today'
p5136
aS'class'
p5137
aS'we'
p5138
aS'are'
p5139
aS'just'
p5140
aS'having'
p5141
ag34
aS'study'
p5142
aS'hall'
p5143
asg16
S'today class we are just having a study hall'
p5144
sg18
S' after you complete these 50 sheets of shit youve never heard of'
p5145
sg20
Vscumbag-teacher
p5146
sg22
(lp5147
g5136
ag5137
ag5138
ag5139
ag5140
ag5141
ag34
ag5142
ag5143
aS'after'
p5148
aS'you'
p5149
aS'complete'
p5150
aS'these'
p5151
aS'50'
p5152
aS'sheets'
p5153
aS'of'
p5154
aS'shit'
p5155
aS'youve'
p5156
aS'never'
p5157
aS'heard'
p5158
aS'of'
p5159
asg25
(lp5160
g5148
ag5149
ag5150
ag5151
ag5152
ag5153
ag5154
ag5155
ag5156
ag5157
ag5158
ag5159
asba(iMeme
Meme
p5161
(dp5162
g3
(lp5163
S'you'
p5164
aS'ask'
p5165
aS'stupid'
p5166
aS'question'
p5167
asg16
S'you ask stupid question'
p5168
sg18
S' you get stupid answer'
p5169
sg20
Vscumbag-teacher
p5170
sg22
(lp5171
g5164
ag5165
ag5166
ag5167
aS'you'
p5172
aS'get'
p5173
aS'stupid'
p5174
aS'answer'
p5175
asg25
(lp5176
g5172
ag5173
ag5174
ag5175
asba(iMeme
Meme
p5177
(dp5178
g3
(lp5179
S'dont'
p5180
aS'bring'
p5181
aS'that'
p5182
aS'drink'
p5183
aS'in'
p5184
aS'here'
p5185
asg16
S'dont bring that drink in here'
p5186
sg18
S' drinks coffee in front of class'
p5187
sg20
Vscumbag-teacher
p5188
sg22
(lp5189
g5180
ag5181
ag5182
ag5183
ag5184
ag5185
aS'drinks'
p5190
aS'coffee'
p5191
aS'in'
p5192
aS'front'
p5193
aS'of'
p5194
aS'class'
p5195
asg25
(lp5196
g5190
ag5191
ag5192
ag5193
ag5194
ag5195
asba(iMeme
Meme
p5197
(dp5198
g3
(lp5199
g202
aS'teach'
p5200
aS'you'
p5201
asg16
S'i teach you'
p5202
sg18
S' be democrat'
p5203
sg20
Vscumbag-teacher
p5204
sg22
(lp5205
g202
ag5200
ag5201
aS'be'
p5206
aS'democrat'
p5207
asg25
(lp5208
g5206
ag5207
asba(iMeme
Meme
p5209
(dp5210
g3
(lp5211
S'you'
p5212
aS'stole'
p5213
aS'my'
p5214
aS'idea'
p5215
asg16
S'you stole my idea'
p5216
sg18
S' your a fgt'
p5217
sg20
Vscumbag-teacher
p5218
sg22
(lp5219
g5212
ag5213
ag5214
ag5215
aS'your'
p5220
ag34
aS'fgt'
p5221
asg25
(lp5222
g5220
ag34
ag5221
asba(iMeme
Meme
p5223
(dp5224
g3
(lp5225
S'assigns'
p5226
aS'homework'
p5227
asg16
S'assigns homework'
p5228
sg18
S' forget to tell you it was cancelled before due date'
p5229
sg20
Vscumbag-teacher
p5230
sg22
(lp5231
g5226
ag5227
aS'forget'
p5232
aS'to'
p5233
aS'tell'
p5234
aS'you'
p5235
aS'it'
p5236
aS'was'
p5237
aS'cancelled'
p5238
aS'before'
p5239
aS'due'
p5240
aS'date'
p5241
asg25
(lp5242
g5232
ag5233
ag5234
ag5235
ag5236
ag5237
ag5238
ag5239
ag5240
ag5241
asba(iMeme
Meme
p5243
(dp5244
g3
(lp5245
S'look'
p5246
aS'central'
p5247
aS'america'
p5248
asg16
S'look central america'
p5249
sg18
S' not fucking mexico.'
p5250
sg20
Vscumbag-teacher
p5251
sg22
(lp5252
g5246
ag5247
ag5248
aS'not'
p5253
aS'fucking'
p5254
aS'mexico'
p5255
ag15
asg25
(lp5256
g5253
ag5254
ag5255
ag15
asba(iMeme
Meme
p5257
(dp5258
g3
(lp5259
S'study'
p5260
aS'this'
p5261
aS'book'
p5262
aS'lots'
p5263
aS'for'
p5264
aS'exam'
p5265
asg16
S'study this book lots for exam'
p5266
sg18
S' only 2 questions about book on exam'
p5267
sg20
Vscumbag-teacher
p5268
sg22
(lp5269
g5260
ag5261
ag5262
ag5263
ag5264
ag5265
aS'only'
p5270
ag5063
aS'questions'
p5271
aS'about'
p5272
aS'book'
p5273
aS'on'
p5274
aS'exam'
p5275
asg25
(lp5276
g5270
ag5063
ag5271
ag5272
ag5273
ag5274
ag5275
asba(iMeme
Meme
p5277
(dp5278
g3
(lp5279
S'im'
p5280
aS'so'
p5281
aS'exited'
p5282
ag1075
ag1075
ag1075
ag1075
ag1075
asg16
S'im so exited!!!!!'
p5283
sg18
S' my husband put a map in the kitchen'
p5284
sg20
Vscumbag-teacher
p5285
sg22
(lp5286
g5280
ag5281
ag5282
ag1075
ag1075
ag1075
ag1075
ag1075
aS'my'
p5287
aS'husband'
p5288
aS'put'
p5289
ag34
aS'map'
p5290
aS'in'
p5291
aS'the'
p5292
aS'kitchen'
p5293
asg25
(lp5294
g5287
ag5288
ag5289
ag34
ag5290
ag5291
ag5292
ag5293
asba(iMeme
Meme
p5295
(dp5296
g3
(lp5297
g202
aS'get'
p5298
aS'to'
p5299
aS'use'
p5300
aS'sarcasm'
p5301
asg16
S'i get to use sarcasm'
p5302
sg18
S' im like suck it on the inside'
p5303
sg20
Vscumbag-teacher
p5304
sg22
(lp5305
g202
ag5298
ag5299
ag5300
ag5301
aS'im'
p5306
aS'like'
p5307
aS'suck'
p5308
aS'it'
p5309
aS'on'
p5310
aS'the'
p5311
aS'inside'
p5312
asg25
(lp5313
g5306
ag5307
ag5308
ag5309
ag5310
ag5311
ag5312
asba(iMeme
Meme
p5314
(dp5315
g3
(lp5316
g202
aS'dont'
p5317
aS'usually'
p5318
aS'see'
p5319
aS'devo'
p5320
asg16
S'i dont usually see devo'
p5321
sg18
S' but when i do'
p5322
sg20
Vscumbag-teacher
p5323
sg22
(lp5324
g202
ag5317
ag5318
ag5319
ag5320
aS'but'
p5325
aS'when'
p5326
ag202
aS'do'
p5327
asg25
(lp5328
g5325
ag5326
ag202
ag5327
asba(iMeme
Meme
p5329
(dp5330
g3
(lp5331
S'gives'
p5332
aS'you'
p5333
aS'f'
p5334
aS'for'
p5335
aS'turning'
p5336
aS'it'
p5337
aS'in'
p5338
ag34
aS'day'
p5339
aS'late'
p5340
asg16
S'gives you f for turning it in a day late'
p5341
sg18
S' takes a week to grade'
p5342
sg20
Vscumbag-teacher
p5343
sg22
(lp5344
g5332
ag5333
ag5334
ag5335
ag5336
ag5337
ag5338
ag34
ag5339
ag5340
aS'takes'
p5345
ag34
aS'week'
p5346
aS'to'
p5347
aS'grade'
p5348
asg25
(lp5349
g5345
ag34
ag5346
ag5347
ag5348
asba(iMeme
Meme
p5350
(dp5351
g3
(lp5352
S'whos'
p5353
aS'awesome'
p5354
ag145
asg16
S'whos awesome ?'
p5355
sg18
S' zia is'
p5356
sg20
Vscumbag-teacher
p5357
sg22
(lp5358
g5353
ag5354
ag145
aS'zia'
p5359
aS'is'
p5360
asg25
(lp5361
g5359
ag5360
asba(iMeme
Meme
p5362
(dp5363
g3
(lp5364
S'iep'
p5365
ag145
asg16
S'iep?'
p5366
sg18
S' sabaza is a retard.'
p5367
sg20
Vscumbag-teacher
p5368
sg22
(lp5369
g5365
ag145
aS'sabaza'
p5370
aS'is'
p5371
ag34
aS'retard'
p5372
ag15
asg25
(lp5373
g5370
ag5371
ag34
ag5372
ag15
asba(iMeme
Meme
p5374
(dp5375
g3
(lp5376
S'calls'
p5377
aS'on'
p5378
aS'the'
p5379
aS'asian'
p5380
aS'kid'
p5381
asg16
S'calls on the asian kid'
p5382
sg18
S' calls on him by the other asian kids name'
p5383
sg20
Vscumbag-teacher
p5384
sg22
(lp5385
g5377
ag5378
ag5379
ag5380
ag5381
aS'calls'
p5386
aS'on'
p5387
aS'him'
p5388
aS'by'
p5389
aS'the'
p5390
aS'other'
p5391
aS'asian'
p5392
aS'kids'
p5393
aS'name'
p5394
asg25
(lp5395
g5386
ag5387
ag5388
ag5389
ag5390
ag5391
ag5392
ag5393
ag5394
asba(iMeme
Meme
p5396
(dp5397
g3
(lp5398
S'what'
p5399
aS'is'
p5400
ag34
aS'merica'
p5401
asg16
S'what is a merica'
p5402
sg18
S' and how can i get involved'
p5403
sg20
Vscumbag-teacher
p5404
sg22
(lp5405
g5399
ag5400
ag34
ag5401
aS'and'
p5406
aS'how'
p5407
aS'can'
p5408
ag202
aS'get'
p5409
aS'involved'
p5410
asg25
(lp5411
g5406
ag5407
ag5408
ag202
ag5409
ag5410
asba(iMeme
Meme
p5412
(dp5413
g3
(lp5414
S'forgot'
p5415
aS'to'
p5416
aS'hand'
p5417
aS'in'
p5418
aS'your'
p5419
aS'ias'
p5420
ag145
asg16
S'forgot to hand in your ias?'
p5421
sg18
S' then youll just have to try again next year'
p5422
sg20
Vscumbag-teacher
p5423
sg22
(lp5424
g5415
ag5416
ag5417
ag5418
ag5419
ag5420
ag145
aS'then'
p5425
aS'youll'
p5426
aS'just'
p5427
aS'have'
p5428
aS'to'
p5429
aS'try'
p5430
aS'again'
p5431
aS'next'
p5432
aS'year'
p5433
asg25
(lp5434
g5425
ag5426
ag5427
ag5428
ag5429
ag5430
ag5431
ag5432
ag5433
asba(iMeme
Meme
p5435
(dp5436
g3
(lp5437
S'okay'
p5438
aS'now'
p5439
aS'lets'
p5440
aS'try'
p5441
aS'to'
p5442
aS'get'
p5443
ag34
aS'better'
p5444
aS'answer'
p5445
asg16
S'okay now lets try to get a better answer'
p5446
sg18
S' from someone whos not a complete retard'
p5447
sg20
Vscumbag-teacher
p5448
sg22
(lp5449
g5438
ag5439
ag5440
ag5441
ag5442
ag5443
ag34
ag5444
ag5445
aS'from'
p5450
aS'someone'
p5451
aS'whos'
p5452
aS'not'
p5453
ag34
aS'complete'
p5454
aS'retard'
p5455
asg25
(lp5456
g5450
ag5451
ag5452
ag5453
ag34
ag5454
ag5455
asba(iMeme
Meme
p5457
(dp5458
g3
(lp5459
S'faggets'
p5460
aS'like'
p5461
aS'you'
p5462
aS'swears'
p5463
asg16
S'faggets like you swears'
p5464
sg18
S' okay'
p5465
sg20
Vscumbag-teacher
p5466
sg22
(lp5467
g5460
ag5461
ag5462
ag5463
aS'okay'
p5468
asg25
(lp5469
g5468
asba(iMeme
Meme
p5470
(dp5471
g3
(lp5472
S'hi'
p5473
asg16
S'hi'
p5474
sg18
S' im traviss girlfriend'
p5475
sg20
Vscumbag-teacher
p5476
sg22
(lp5477
g5473
aS'im'
p5478
aS'traviss'
p5479
aS'girlfriend'
p5480
asg25
(lp5481
g5478
ag5479
ag5480
asba(iMeme
Meme
p5482
(dp5483
g3
(lp5484
S'doesnt'
p5485
aS'tell'
p5486
aS'class'
p5487
aS'about'
p5488
aS'an'
p5489
aS'assignment'
p5490
aS'due'
p5491
aS'after'
p5492
aS'winter'
p5493
aS'break'
p5494
aS'and'
p5495
aS'expects'
p5496
aS'it'
p5497
aS'to'
p5498
aS'be'
p5499
aS'done'
p5500
ag15
asg16
S'doesnt tell class about an assignment due after winter break and expects it to be done.'
p5501
sg18
S' were not fucking psychic'
p5502
sg20
Vscumbag-teacher
p5503
sg22
(lp5504
g5485
ag5486
ag5487
ag5488
ag5489
ag5490
ag5491
ag5492
ag5493
ag5494
ag5495
ag5496
ag5497
ag5498
ag5499
ag5500
ag15
aS'were'
p5505
aS'not'
p5506
aS'fucking'
p5507
aS'psychic'
p5508
asg25
(lp5509
g5505
ag5506
ag5507
ag5508
asba(iMeme
Meme
p5510
(dp5511
g3
(lp5512
S'havent'
p5513
aS'worked'
p5514
ag145
asg16
S'havent worked ?'
p5515
sg18
S' ultima punishment 7/20'
p5516
sg20
Vscumbag-teacher
p5517
sg22
(lp5518
g5513
ag5514
ag145
aS'ultima'
p5519
aS'punishment'
p5520
aS'7/20'
p5521
asg25
(lp5522
g5519
ag5520
ag5521
asba(iMeme
Meme
p5523
(dp5524
g3
(lp5525
S'one'
p5526
aS'student'
p5527
aS'caught'
p5528
aS'on'
p5529
aS'facebook'
p5530
aS'while'
p5531
aS'taking'
p5532
aS'notes'
p5533
asg16
S'one student caught on facebook while taking notes'
p5534
sg18
S' stops for 30 minutes to complain about how disruptive they have been'
p5535
sg20
Vscumbag-teacher
p5536
sg22
(lp5537
g5526
ag5527
ag5528
ag5529
ag5530
ag5531
ag5532
ag5533
aS'stops'
p5538
aS'for'
p5539
aS'30'
p5540
aS'minutes'
p5541
aS'to'
p5542
aS'complain'
p5543
aS'about'
p5544
aS'how'
p5545
aS'disruptive'
p5546
aS'they'
p5547
aS'have'
p5548
aS'been'
p5549
asg25
(lp5550
g5538
ag5539
ag5540
ag5541
ag5542
ag5543
ag5544
ag5545
ag5546
ag5547
ag5548
ag5549
asba(iMeme
Meme
p5551
(dp5552
g3
(lp5553
S'are'
p5554
aS'you'
p5555
aS'speaking'
p5556
aS'during'
p5557
aS'the'
p5558
aS'class'
p5559
ag145
asg16
S'are you speaking during the class?'
p5560
sg18
S' get out of my class'
p5561
sg20
Vscumbag-teacher
p5562
sg22
(lp5563
g5554
ag5555
ag5556
ag5557
ag5558
ag5559
ag145
aS'get'
p5564
aS'out'
p5565
aS'of'
p5566
aS'my'
p5567
aS'class'
p5568
asg25
(lp5569
g5564
ag5565
ag5566
ag5567
ag5568
asba(iMeme
Meme
p5570
(dp5571
g3
(lp5572
S'the'
p5573
aS'test'
p5574
aS'is'
p5575
aS'tomorrow'
p5576
ag15
asg16
S'the test is tomorrow.'
p5577
sg18
S' oh sorry i meant today.'
p5578
sg20
Vscumbag-teacher
p5579
sg22
(lp5580
g5573
ag5574
ag5575
ag5576
ag15
aS'oh'
p5581
aS'sorry'
p5582
ag202
aS'meant'
p5583
aS'today'
p5584
ag15
asg25
(lp5585
g5581
ag5582
ag202
ag5583
ag5584
ag15
asba(iMeme
Meme
p5586
(dp5587
g3
(lp5588
S'dis'
p5589
aS'is'
p5590
aS'peru'
p5591
asg16
S'dis is peru'
p5592
sg18
S' ees in asia'
p5593
sg20
Vscumbag-teacher
p5594
sg22
(lp5595
g5589
ag5590
ag5591
aS'ees'
p5596
aS'in'
p5597
aS'asia'
p5598
asg25
(lp5599
g5596
ag5597
ag5598
asba(iMeme
Meme
p5600
(dp5601
g3
(lp5602
S'if'
p5603
aS'you'
p5604
aS'support'
p5605
aS'the'
p5606
aS'trolls'
p5607
aS'in'
p5608
aS'detour'
p5609
asg16
S'if you support the trolls in detour'
p5610
sg18
S' you win a free trip here'
p5611
sg20
Vscumbag-teacher
p5612
sg22
(lp5613
g5603
ag5604
ag5605
ag5606
ag5607
ag5608
ag5609
aS'you'
p5614
aS'win'
p5615
ag34
aS'free'
p5616
aS'trip'
p5617
aS'here'
p5618
asg25
(lp5619
g5614
ag5615
ag34
ag5616
ag5617
ag5618
asba(iMeme
Meme
p5620
(dp5621
g3
(lp5622
S'buy'
p5623
aS'this'
p5624
ag3126
aS'80.00'
p5625
aS'calculator'
p5626
aS'its'
p5627
aS'required'
p5628
asg16
S'buy this $80.00 calculator its required'
p5629
sg18
S' but you cant use it on tests quizzes'
p5630
sg20
Vscumbag-teacher
p5631
sg22
(lp5632
g5623
ag5624
ag3126
ag5625
ag5626
ag5627
ag5628
aS'but'
p5633
aS'you'
p5634
aS'cant'
p5635
aS'use'
p5636
aS'it'
p5637
aS'on'
p5638
aS'tests'
p5639
aS'quizzes'
p5640
asg25
(lp5641
g5633
ag5634
ag5635
ag5636
ag5637
ag5638
ag5639
ag5640
asba(iMeme
Meme
p5642
(dp5643
g3
(lp5644
S'what'
p5645
aS'is'
p5646
aS'your'
p5647
aS'opinion'
p5648
aS'about'
p5649
aS'economics'
p5650
ag145
asg16
S'what is your opinion about economics?'
p5651
sg18
S' your opinion is wrong.'
p5652
sg20
Vscumbag-teacher
p5653
sg22
(lp5654
g5645
ag5646
ag5647
ag5648
ag5649
ag5650
ag145
aS'your'
p5655
aS'opinion'
p5656
aS'is'
p5657
aS'wrong'
p5658
ag15
asg25
(lp5659
g5655
ag5656
ag5657
ag5658
ag15
asba(iMeme
Meme
p5660
(dp5661
g3
(lp5662
S'uses'
p5663
aS'engrade'
p5664
asg16
S'uses engrade'
p5665
sg18
S' to post troll comments'
p5666
sg20
Vscumbag-teacher
p5667
sg22
(lp5668
g5663
ag5664
aS'to'
p5669
aS'post'
p5670
aS'troll'
p5671
aS'comments'
p5672
asg25
(lp5673
g5669
ag5670
ag5671
ag5672
asba(iMeme
Meme
p5674
(dp5675
g3
(lp5676
S'dont'
p5677
aS'you'
p5678
aS'get'
p5679
aS'it'
p5680
ag145
asg16
S'dont you get it?'
p5681
sg18
S' towel heads are not my thing! ciao!'
p5682
sg20
Vscumbag-teacher
p5683
sg22
(lp5684
g5677
ag5678
ag5679
ag5680
ag145
aS'towel'
p5685
aS'heads'
p5686
aS'are'
p5687
aS'not'
p5688
aS'my'
p5689
aS'thing'
p5690
ag1075
aS'ciao'
p5691
ag1075
asg25
(lp5692
g5685
ag5686
ag5687
ag5688
ag5689
ag5690
ag1075
ag5691
ag1075
asba(iMeme
Meme
p5693
(dp5694
g3
(lp5695
S'gives'
p5696
aS'homework'
p5697
aS'with'
p5698
aS'no'
p5699
aS'due'
p5700
aS'dates'
p5701
asg16
S'gives homework with no due dates'
p5702
sg18
S' ok class all the work from the whole semester is due next week'
p5703
sg20
Vscumbag-teacher
p5704
sg22
(lp5705
g5696
ag5697
ag5698
ag5699
ag5700
ag5701
aS'ok'
p5706
aS'class'
p5707
aS'all'
p5708
aS'the'
p5709
aS'work'
p5710
aS'from'
p5711
aS'the'
p5712
aS'whole'
p5713
aS'semester'
p5714
aS'is'
p5715
aS'due'
p5716
aS'next'
p5717
aS'week'
p5718
asg25
(lp5719
g5706
ag5707
ag5708
ag5709
ag5710
ag5711
ag5712
ag5713
ag5714
ag5715
ag5716
ag5717
ag5718
asba(iMeme
Meme
p5720
(dp5721
g3
(lp5722
g202
aS'show'
p5723
aS'you'
p5724
asg16
S'i show you'
p5725
sg18
S' how to escpae upcoming totalitarian usa in boat to africa!'
p5726
sg20
Vscumbag-teacher
p5727
sg22
(lp5728
g202
ag5723
ag5724
aS'how'
p5729
aS'to'
p5730
aS'escpae'
p5731
aS'upcoming'
p5732
aS'totalitarian'
p5733
aS'usa'
p5734
aS'in'
p5735
aS'boat'
p5736
aS'to'
p5737
aS'africa'
p5738
ag1075
asg25
(lp5739
g5729
ag5730
ag5731
ag5732
ag5733
ag5734
ag5735
ag5736
ag5737
ag5738
ag1075
asba(iMeme
Meme
p5740
(dp5741
g3
(lp5742
S'ms'
p5743
ag15
aS'robinson'
p5744
asg16
S'ms. robinson'
p5745
sg18
S' asian version'
p5746
sg20
Vscumbag-teacher
p5747
sg22
(lp5748
g5743
ag15
ag5744
aS'asian'
p5749
aS'version'
p5750
asg25
(lp5751
g5749
ag5750
asba(iMeme
Meme
p5752
(dp5753
g3
(lp5754
S'tell'
p5755
aS'teacher'
p5756
aS'you'
p5757
aS'have'
p5758
aS'to'
p5759
aS'use'
p5760
aS'the'
p5761
aS'bathroom'
p5762
aS'for'
p5763
aS'emergency'
p5764
asg16
S'tell teacher you have to use the bathroom for emergency'
p5765
sg18
S' still says no'
p5766
sg20
Vscumbag-teacher
p5767
sg22
(lp5768
g5755
ag5756
ag5757
ag5758
ag5759
ag5760
ag5761
ag5762
ag5763
ag5764
aS'still'
p5769
aS'says'
p5770
aS'no'
p5771
asg25
(lp5772
g5769
ag5770
ag5771
asba(iMeme
Meme
p5773
(dp5774
g3
(lp5775
S'naughty'
p5776
aS'pictures'
p5777
ag145
asg16
S'naughty pictures?'
p5778
sg18
S' you got trolled'
p5779
sg20
Vscumbag-teacher
p5780
sg22
(lp5781
g5776
ag5777
ag145
aS'you'
p5782
aS'got'
p5783
aS'trolled'
p5784
asg25
(lp5785
g5782
ag5783
ag5784
asba(iMeme
Meme
p5786
(dp5787
g3
(lp5788
S'looses'
p5789
aS'argument'
p5790
aS'with'
p5791
aS'student'
p5792
asg16
S'looses argument with student'
p5793
sg18
S' throws him out'
p5794
sg20
Vscumbag-teacher
p5795
sg22
(lp5796
g5789
ag5790
ag5791
ag5792
aS'throws'
p5797
aS'him'
p5798
aS'out'
p5799
asg25
(lp5800
g5797
ag5798
ag5799
asba(iMeme
Meme
p5801
(dp5802
g3
(lp5803
S'looses'
p5804
aS'argument'
p5805
aS'with'
p5806
aS'student'
p5807
asg16
S'looses argument with student'
p5808
sg18
S' throws him out'
p5809
sg20
Vscumbag-teacher
p5810
sg22
(lp5811
g5804
ag5805
ag5806
ag5807
aS'throws'
p5812
aS'him'
p5813
aS'out'
p5814
asg25
(lp5815
g5812
ag5813
ag5814
asba(iMeme
Meme
p5816
(dp5817
g3
(lp5818
S'steve'
p5819
ag15
aS'steve'
p5820
ag15
aS'steve'
p5821
asg16
S'steve. steve. steve'
p5822
sg18
S' you are still retarded.'
p5823
sg20
Vscumbag-teacher
p5824
sg22
(lp5825
g5819
ag15
ag5820
ag15
ag5821
aS'you'
p5826
aS'are'
p5827
aS'still'
p5828
aS'retarded'
p5829
ag15
asg25
(lp5830
g5826
ag5827
ag5828
ag5829
ag15
asba(iMeme
Meme
p5831
(dp5832
g3
(lp5833
S'you'
p5834
aS'failed'
p5835
aS'your'
p5836
aS'test'
p5837
asg16
S'you failed your test'
p5838
sg18
S' see you next year!'
p5839
sg20
Vscumbag-teacher
p5840
sg22
(lp5841
g5834
ag5835
ag5836
ag5837
aS'see'
p5842
aS'you'
p5843
aS'next'
p5844
aS'year'
p5845
ag1075
asg25
(lp5846
g5842
ag5843
ag5844
ag5845
ag1075
asba(iMeme
Meme
p5847
(dp5848
g3
(lp5849
S'six'
p5850
aS'other'
p5851
aS'classes'
p5852
ag145
asg16
S'six other classes?'
p5853
sg18
S' not my problem'
p5854
sg20
Vscumbag-teacher
p5855
sg22
(lp5856
g5850
ag5851
ag5852
ag145
aS'not'
p5857
aS'my'
p5858
aS'problem'
p5859
asg25
(lp5860
g5857
ag5858
ag5859
asba(iMeme
Meme
p5861
(dp5862
g3
(lp5863
g202
aS'lost'
p5864
aS'your'
p5865
aS'homework'
p5866
asg16
S'i lost your homework'
p5867
sg18
S' that means you didnt turn it in'
p5868
sg20
Vscumbag-teacher
p5869
sg22
(lp5870
g202
ag5864
ag5865
ag5866
aS'that'
p5871
aS'means'
p5872
aS'you'
p5873
aS'didnt'
p5874
aS'turn'
p5875
aS'it'
p5876
aS'in'
p5877
asg25
(lp5878
g5871
ag5872
ag5873
ag5874
ag5875
ag5876
ag5877
asba(iMeme
Meme
p5879
(dp5880
g3
(lp5881
S'do'
p5882
aS'10'
p5883
aS'e'
p5884
ag145
asg16
S'do 10 e?'
p5885
sg18
S' po ate statusin: na hapi barkun kjo dhe ne 5 minutsh'
p5886
sg20
Vscumbag-teacher
p5887
sg22
(lp5888
g5882
ag5883
ag5884
ag145
aS'po'
p5889
aS'ate'
p5890
aS'statusin'
p5891
ag95
aS'na'
p5892
aS'hapi'
p5893
aS'barkun'
p5894
aS'kjo'
p5895
aS'dhe'
p5896
aS'ne'
p5897
ag1254
aS'minutsh'
p5898
asg25
(lp5899
g5889
ag5890
ag5891
ag95
ag5892
ag5893
ag5894
ag5895
ag5896
ag5897
ag1254
ag5898
asba(iMeme
Meme
p5900
(dp5901
g3
(lp5902
S'this'
p5903
aS'rite'
p5904
asg16
S'this rite'
p5905
sg18
S' here is asia'
p5906
sg20
Vscumbag-teacher
p5907
sg22
(lp5908
g5903
ag5904
aS'here'
p5909
aS'is'
p5910
aS'asia'
p5911
asg25
(lp5912
g5909
ag5910
ag5911
asba(iMeme
Meme
p5913
(dp5914
g3
(lp5915
g202
aS'fucked'
p5916
asg16
S'i fucked'
p5917
sg18
S' your brother'
p5918
sg20
Vscumbag-teacher
p5919
sg22
(lp5920
g202
ag5916
aS'your'
p5921
aS'brother'
p5922
asg25
(lp5923
g5921
ag5922
asba(iMeme
Meme
p5924
(dp5925
g3
(lp5926
S'hey'
p5927
aS'u..'
p5928
asg16
S'hey u..'
p5929
sg18
S' where u born an idiot?'
p5930
sg20
Vscumbag-teacher
p5931
sg22
(lp5932
g5927
ag5928
aS'where'
p5933
ag4756
aS'born'
p5934
aS'an'
p5935
aS'idiot'
p5936
ag145
asg25
(lp5937
g5933
ag4756
ag5934
ag5935
ag5936
ag145
asba(iMeme
Meme
p5938
(dp5939
g3
(lp5940
S'gives'
p5941
aS'you'
p5942
aS'detention'
p5943
asg16
S'gives you detention'
p5944
sg18
S' shows up 30 minutes late and complains about what youre doing'
p5945
sg20
Vscumbag-teacher
p5946
sg22
(lp5947
g5941
ag5942
ag5943
aS'shows'
p5948
aS'up'
p5949
aS'30'
p5950
aS'minutes'
p5951
aS'late'
p5952
aS'and'
p5953
aS'complains'
p5954
aS'about'
p5955
aS'what'
p5956
aS'youre'
p5957
aS'doing'
p5958
asg25
(lp5959
g5948
ag5949
ag5950
ag5951
ag5952
ag5953
ag5954
ag5955
ag5956
ag5957
ag5958
asba(iMeme
Meme
p5960
(dp5961
g3
(lp5962
S'says'
p5963
aS'no'
p5964
aS'homework'
p5965
aS'until'
p5966
aS'next'
p5967
aS'year'
p5968
asg16
S'says no homework until next year'
p5969
sg18
S' its the last day before christmas break'
p5970
sg20
Vscumbag-teacher
p5971
sg22
(lp5972
g5963
ag5964
ag5965
ag5966
ag5967
ag5968
aS'its'
p5973
aS'the'
p5974
aS'last'
p5975
aS'day'
p5976
aS'before'
p5977
aS'christmas'
p5978
aS'break'
p5979
asg25
(lp5980
g5973
ag5974
ag5975
ag5976
ag5977
ag5978
ag5979
asba(iMeme
Meme
p5981
(dp5982
g3
(lp5983
S'threatens'
p5984
aS'to'
p5985
aS'kick'
p5986
aS'you'
p5987
aS'out'
p5988
aS'for'
p5989
aS'texting'
p5990
asg16
S'threatens to kick you out for texting'
p5991
sg18
S' phone rings loudly in class.'
p5992
sg20
Vscumbag-teacher
p5993
sg22
(lp5994
g5984
ag5985
ag5986
ag5987
ag5988
ag5989
ag5990
aS'phone'
p5995
aS'rings'
p5996
aS'loudly'
p5997
aS'in'
p5998
aS'class'
p5999
ag15
asg25
(lp6000
g5995
ag5996
ag5997
ag5998
ag5999
ag15
asba(iMeme
Meme
p6001
(dp6002
g3
(lp6003
S'has'
p6004
aS'class'
p6005
aS'at'
p6006
aS'4'
p6007
asg16
S'has class at 4'
p6008
sg18
S' comes in at 4:14'
p6009
sg20
Vscumbag-teacher
p6010
sg22
(lp6011
g6004
ag6005
ag6006
ag6007
aS'comes'
p6012
aS'in'
p6013
aS'at'
p6014
aS'4:14'
p6015
asg25
(lp6016
g6012
ag6013
ag6014
ag6015
asba(iMeme
Meme
p6017
(dp6018
g3
(lp6019
S'ive'
p6020
aS'decided'
p6021
aS'this'
p6022
aS'class'
p6023
aS'isnt'
p6024
aS'challenging'
p6025
aS'enough'
p6026
asg16
S'ive decided this class isnt challenging enough'
p6027
sg18
S' from now on lessons will be in german'
p6028
sg20
Vscumbag-teacher
p6029
sg22
(lp6030
g6020
ag6021
ag6022
ag6023
ag6024
ag6025
ag6026
aS'from'
p6031
aS'now'
p6032
aS'on'
p6033
aS'lessons'
p6034
aS'will'
p6035
aS'be'
p6036
aS'in'
p6037
aS'german'
p6038
asg25
(lp6039
g6031
ag6032
ag6033
ag6034
ag6035
ag6036
ag6037
ag6038
asba(iMeme
Meme
p6040
(dp6041
g3
(lp6042
S'as'
p6043
aS'you'
p6044
aS'can'
p6045
aS'see'
p6046
asg16
S'as you can see'
p6047
sg18
S' the americas are fucked'
p6048
sg20
Vscumbag-teacher
p6049
sg22
(lp6050
g6043
ag6044
ag6045
ag6046
aS'the'
p6051
aS'americas'
p6052
aS'are'
p6053
aS'fucked'
p6054
asg25
(lp6055
g6051
ag6052
ag6053
ag6054
asba(iMeme
Meme
p6056
(dp6057
g3
(lp6058
S'q'
p6059
ag95
aS'beauty'
p6060
aS'is'
p6061
aS'on'
p6062
aS'the'
p6063
aS'inside'
p6064
ag145
asg16
S'q: beauty is on the inside?'
p6065
sg18
S' a: nope'
p6066
sg20
Vscumbag-teacher
p6067
sg22
(lp6068
g6059
ag95
ag6060
ag6061
ag6062
ag6063
ag6064
ag145
ag34
ag95
aS'nope'
p6069
asg25
(lp6070
g34
ag95
ag6069
asba(iMeme
Meme
p6071
(dp6072
g3
(lp6073
S'as'
p6074
aS'you'
p6075
aS'can'
p6076
aS'see'
p6077
asg16
S'as you can see'
p6078
sg18
S' the americas are fucked'
p6079
sg20
Vscumbag-teacher
p6080
sg22
(lp6081
g6074
ag6075
ag6076
ag6077
aS'the'
p6082
aS'americas'
p6083
aS'are'
p6084
aS'fucked'
p6085
asg25
(lp6086
g6082
ag6083
ag6084
ag6085
asba(iMeme
Meme
p6087
(dp6088
g3
(lp6089
S'student'
p6090
aS'answers'
p6091
aS'question'
p6092
aS'wrong'
p6093
asg16
S'student answers question wrong'
p6094
sg18
S' gives detention'
p6095
sg20
Vscumbag-teacher
p6096
sg22
(lp6097
g6090
ag6091
ag6092
ag6093
aS'gives'
p6098
aS'detention'
p6099
asg25
(lp6100
g6098
ag6099
asba(iMeme
Meme
p6101
(dp6102
g3
(lp6103
S'just'
p6104
aS'remember'
p6105
asg16
S'just remember'
p6106
sg18
S' i gave a fuck when no when else did'
p6107
sg20
Vscumbag-teacher
p6108
sg22
(lp6109
g6104
ag6105
ag202
aS'gave'
p6110
ag34
aS'fuck'
p6111
aS'when'
p6112
aS'no'
p6113
aS'when'
p6114
aS'else'
p6115
aS'did'
p6116
asg25
(lp6117
g202
ag6110
ag34
ag6111
ag6112
ag6113
ag6114
ag6115
ag6116
asba(iMeme
Meme
p6118
(dp6119
g3
(lp6120
S'the'
p6121
aS'bell'
p6122
aS'doesnt'
p6123
aS'dismiss'
p6124
aS'you'
p6125
asg16
S'the bell doesnt dismiss you'
p6126
sg18
S' i do bitch!!!!'
p6127
sg20
Vscumbag-teacher
p6128
sg22
(lp6129
g6121
ag6122
ag6123
ag6124
ag6125
ag202
aS'do'
p6130
aS'bitch'
p6131
ag1075
ag1075
ag1075
ag1075
asg25
(lp6132
g202
ag6130
ag6131
ag1075
ag1075
ag1075
ag1075
asba(iMeme
Meme
p6133
(dp6134
g3
(lp6135
S'and'
p6136
aS'kunkel'
p6137
aS'says'
p6138
asg16
S'and kunkel says'
p6139
sg18
S' faradays constant'
p6140
sg20
Vscumbag-teacher
p6141
sg22
(lp6142
g6136
ag6137
ag6138
aS'faradays'
p6143
aS'constant'
p6144
asg25
(lp6145
g6143
ag6144
asba(iMeme
Meme
p6146
(dp6147
g3
(lp6148
S'dont'
p6149
aS'know'
p6150
aS'how'
p6151
aS'to'
p6152
aS'go'
p6153
aS'green'
p6154
ag145
asg16
S'dont know how to go green?'
p6155
sg18
S' not my fault. blame it on the curriculum!'
p6156
sg20
Vscumbag-teacher
p6157
sg22
(lp6158
g6149
ag6150
ag6151
ag6152
ag6153
ag6154
ag145
aS'not'
p6159
aS'my'
p6160
aS'fault'
p6161
ag15
aS'blame'
p6162
aS'it'
p6163
aS'on'
p6164
aS'the'
p6165
aS'curriculum'
p6166
ag1075
asg25
(lp6167
g6159
ag6160
ag6161
ag15
ag6162
ag6163
ag6164
ag6165
ag6166
ag1075
asba(iMeme
Meme
p6168
(dp6169
g3
(lp6170
S'inderjit'
p6171
asg16
S'inderjit'
p6172
sg18
S' cover your boner'
p6173
sg20
Vscumbag-teacher
p6174
sg22
(lp6175
g6171
aS'cover'
p6176
aS'your'
p6177
aS'boner'
p6178
asg25
(lp6179
g6176
ag6177
ag6178
asba(iMeme
Meme
p6180
(dp6181
g3
(lp6182
S'gives'
p6183
aS'you'
p6184
aS'vacation'
p6185
asg16
S'gives you vacation'
p6186
sg18
S' tells you to write your dho first'
p6187
sg20
Vscumbag-teacher
p6188
sg22
(lp6189
g6183
ag6184
ag6185
aS'tells'
p6190
aS'you'
p6191
aS'to'
p6192
aS'write'
p6193
aS'your'
p6194
aS'dho'
p6195
aS'first'
p6196
asg25
(lp6197
g6190
ag6191
ag6192
ag6193
ag6194
ag6195
ag6196
asba(iMeme
Meme
p6198
(dp6199
g3
(lp6200
S'spring'
p6201
aS'party'
p6202
aS'weekend'
p6203
ag145
asg16
S'spring party weekend?'
p6204
sg18
S' 10 page paper due on monday'
p6205
sg20
Vscumbag-teacher
p6206
sg22
(lp6207
g6201
ag6202
ag6203
ag145
aS'10'
p6208
aS'page'
p6209
aS'paper'
p6210
aS'due'
p6211
aS'on'
p6212
aS'monday'
p6213
asg25
(lp6214
g6208
ag6209
ag6210
ag6211
ag6212
ag6213
asba(iMeme
Meme
p6215
(dp6216
g3
(lp6217
S'spain'
p6218
ag145
aS'lulz'
p6219
asg16
S'spain? lulz'
p6220
sg18
S' youre from down here'
p6221
sg20
Vscumbag-teacher
p6222
sg22
(lp6223
g6218
ag145
ag6219
aS'youre'
p6224
aS'from'
p6225
aS'down'
p6226
aS'here'
p6227
asg25
(lp6228
g6224
ag6225
ag6226
ag6227
asba(iMeme
Meme
p6229
(dp6230
g3
(lp6231
S'that'
p6232
aS'is'
p6233
ag34
aS'good'
p6234
aS'question'
p6235
asg16
S'that is a good question'
p6236
sg18
S' next?'
p6237
sg20
Vscumbag-teacher
p6238
sg22
(lp6239
g6232
ag6233
ag34
ag6234
ag6235
aS'next'
p6240
ag145
asg25
(lp6241
g6240
ag145
asba(iMeme
Meme
p6242
(dp6243
g3
(lp6244
S'talks'
p6245
aS'shit'
p6246
aS'about'
p6247
aS'students'
p6248
asg16
S'talks shit about students'
p6249
sg18
S' to other students'
p6250
sg20
Vscumbag-teacher
p6251
sg22
(lp6252
g6245
ag6246
ag6247
ag6248
aS'to'
p6253
aS'other'
p6254
aS'students'
p6255
asg25
(lp6256
g6253
ag6254
ag6255
asba(iMeme
Meme
p6257
(dp6258
g3
(lp6259
S'says'
p6260
aS'the'
p6261
aS'internet'
p6262
aS'is'
p6263
ag34
aS'waste'
p6264
aS'of'
p6265
aS'study'
p6266
aS'time'
p6267
asg16
S'says the internet is  a waste of study time'
p6268
sg18
S' fap to her videos each night'
p6269
sg20
Vscumbag-teacher
p6270
sg22
(lp6271
g6260
ag6261
ag6262
ag6263
ag34
ag6264
ag6265
ag6266
ag6267
aS'fap'
p6272
aS'to'
p6273
aS'her'
p6274
aS'videos'
p6275
aS'each'
p6276
aS'night'
p6277
asg25
(lp6278
g6272
ag6273
ag6274
ag6275
ag6276
ag6277
asba(iMeme
Meme
p6279
(dp6280
g3
(lp6281
S'got'
p6282
aS'anything'
p6283
aS'else'
p6284
aS'nikhil'
p6285
ag145
asg16
S'got anything else nikhil?'
p6286
sg18
S' dont think so.'
p6287
sg20
Vscumbag-teacher
p6288
sg22
(lp6289
g6282
ag6283
ag6284
ag6285
ag145
aS'dont'
p6290
aS'think'
p6291
aS'so'
p6292
ag15
asg25
(lp6293
g6290
ag6291
ag6292
ag15
asba(iMeme
Meme
p6294
(dp6295
g3
(lp6296
S'doesnt'
p6297
aS'know'
p6298
aS'your'
p6299
aS'name'
p6300
asg16
S'doesnt know your name'
p6301
sg18
S' calls you pal'
p6302
sg20
Vscumbag-teacher
p6303
sg22
(lp6304
g6297
ag6298
ag6299
ag6300
aS'calls'
p6305
aS'you'
p6306
aS'pal'
p6307
asg25
(lp6308
g6305
ag6306
ag6307
asba(iMeme
Meme
p6309
(dp6310
g3
(lp6311
S'quantitative'
p6312
aS'data'
p6313
asg16
S'quantitative data'
p6314
sg18
S' quaaannnttiittyyy = numbers'
p6315
sg20
Vscumbag-teacher
p6316
sg22
(lp6317
g6312
ag6313
aS'quaaannnttiittyyy'
p6318
ag1496
aS'numbers'
p6319
asg25
(lp6320
g6318
ag1496
ag6319
asba(iMeme
Meme
p6321
(dp6322
g3
(lp6323
S'lets'
p6324
aS'make'
p6325
aS'this'
p6326
aS'exercise'
p6327
asg16
S'lets make this exercise'
p6328
sg18
S' just for practice'
p6329
sg20
Vscumbag-teacher
p6330
sg22
(lp6331
g6324
ag6325
ag6326
ag6327
aS'just'
p6332
aS'for'
p6333
aS'practice'
p6334
asg25
(lp6335
g6332
ag6333
ag6334
asba(iMeme
Meme
p6336
(dp6337
g3
(lp6338
S'snacks'
p6339
ag145
asg16
S'snacks?'
p6340
sg18
S' i hope you brought enough for everyone'
p6341
sg20
Vscumbag-teacher
p6342
sg22
(lp6343
g6339
ag145
ag202
aS'hope'
p6344
aS'you'
p6345
aS'brought'
p6346
aS'enough'
p6347
aS'for'
p6348
aS'everyone'
p6349
asg25
(lp6350
g202
ag6344
ag6345
ag6346
ag6347
ag6348
ag6349
asba(iMeme
Meme
p6351
(dp6352
g3
(lp6353
S'explains'
p6354
aS'one'
p6355
aS'section'
p6356
asg16
S'explains one section'
p6357
sg18
S' skips the rest and gives a test.'
p6358
sg20
Vscumbag-teacher
p6359
sg22
(lp6360
g6354
ag6355
ag6356
aS'skips'
p6361
aS'the'
p6362
aS'rest'
p6363
aS'and'
p6364
aS'gives'
p6365
ag34
aS'test'
p6366
ag15
asg25
(lp6367
g6361
ag6362
ag6363
ag6364
ag6365
ag34
ag6366
ag15
asba(iMeme
Meme
p6368
(dp6369
g3
(lp6370
S'im'
p6371
aS'dont'
p6372
aS'like'
p6373
aS'to'
p6374
aS'give'
p6375
aS'my'
p6376
aS'students'
p6377
ag34
aS'lot'
p6378
aS'of'
p6379
aS'homework'
p6380
asg16
S'im dont like to give my students a lot of homework'
p6381
sg18
S' gives a lot of homework.'
p6382
sg20
Vscumbag-teacher
p6383
sg22
(lp6384
g6371
ag6372
ag6373
ag6374
ag6375
ag6376
ag6377
ag34
ag6378
ag6379
ag6380
aS'gives'
p6385
ag34
aS'lot'
p6386
aS'of'
p6387
aS'homework'
p6388
ag15
asg25
(lp6389
g6385
ag34
ag6386
ag6387
ag6388
ag15
asba(iMeme
Meme
p6390
(dp6391
g3
(lp6392
S'you'
p6393
aS'are'
p6394
aS'talking'
p6395
asg16
S'you are talking'
p6396
sg18
S' you must be done with work'
p6397
sg20
Vscumbag-teacher
p6398
sg22
(lp6399
g6393
ag6394
ag6395
aS'you'
p6400
aS'must'
p6401
aS'be'
p6402
aS'done'
p6403
aS'with'
p6404
aS'work'
p6405
asg25
(lp6406
g6400
ag6401
ag6402
ag6403
ag6404
ag6405
asba(iMeme
Meme
p6407
(dp6408
g3
(lp6409
g202
aS'worked'
p6410
aS'hard'
p6411
aS'to'
p6412
aS'pay'
p6413
aS'my'
p6414
aS'own'
p6415
aS'tuition'
p6416
ag15
asg16
S'i worked hard to pay my own tuition.'
p6417
sg18
S' made dancer of the year twice at strip club.'
p6418
sg20
Vscumbag-teacher
p6419
sg22
(lp6420
g202
ag6410
ag6411
ag6412
ag6413
ag6414
ag6415
ag6416
ag15
aS'made'
p6421
aS'dancer'
p6422
aS'of'
p6423
aS'the'
p6424
aS'year'
p6425
aS'twice'
p6426
aS'at'
p6427
aS'strip'
p6428
aS'club'
p6429
ag15
asg25
(lp6430
g6421
ag6422
ag6423
ag6424
ag6425
ag6426
ag6427
ag6428
ag6429
ag15
asba(iMeme
Meme
p6431
(dp6432
g3
(lp6433
S'tells'
p6434
aS'you'
p6435
aS'shes'
p6436
aS'stuck'
p6437
aS'in'
p6438
aS'traffic'
p6439
aS'and'
p6440
aS'will'
p6441
aS'be'
p6442
aS'late'
p6443
aS'for'
p6444
aS'class'
p6445
asg16
S'tells you shes stuck in traffic and will be late for class'
p6446
sg18
S' is actually hanging out in sunday bazaar'
p6447
sg20
Vscumbag-teacher
p6448
sg22
(lp6449
g6434
ag6435
ag6436
ag6437
ag6438
ag6439
ag6440
ag6441
ag6442
ag6443
ag6444
ag6445
aS'is'
p6450
aS'actually'
p6451
aS'hanging'
p6452
aS'out'
p6453
aS'in'
p6454
aS'sunday'
p6455
aS'bazaar'
p6456
asg25
(lp6457
g6450
ag6451
ag6452
ag6453
ag6454
ag6455
ag6456
asba(iMeme
Meme
p6458
(dp6459
g3
(lp6460
g34
aS'graphing'
p6461
aS'calculater'
p6462
aS'is'
p6463
aS'missing'
p6464
asg16
S'a graphing calculater is missing'
p6465
sg18
S' goes threw the 5 stages of grief'
p6466
sg20
Vscumbag-teacher
p6467
sg22
(lp6468
g34
ag6461
ag6462
ag6463
ag6464
aS'goes'
p6469
aS'threw'
p6470
aS'the'
p6471
ag1254
aS'stages'
p6472
aS'of'
p6473
aS'grief'
p6474
asg25
(lp6475
g6469
ag6470
ag6471
ag1254
ag6472
ag6473
ag6474
asba(iMeme
Meme
p6476
(dp6477
g3
(lp6478
S'group'
p6479
aS'assignment'
p6480
asg16
S'group assignment'
p6481
sg18
S' flips shit cause hears talking'
p6482
sg20
Vscumbag-teacher
p6483
sg22
(lp6484
g6479
ag6480
aS'flips'
p6485
aS'shit'
p6486
aS'cause'
p6487
aS'hears'
p6488
aS'talking'
p6489
asg25
(lp6490
g6485
ag6486
ag6487
ag6488
ag6489
asba(iMeme
Meme
p6491
(dp6492
g3
(lp6493
S'megaupload'
p6494
aS'dead'
p6495
ag145
asg16
S'megaupload dead?'
p6496
sg18
S' fuck you ive got piratebay'
p6497
sg20
Vscumbag-teacher
p6498
sg22
(lp6499
g6494
ag6495
ag145
aS'fuck'
p6500
aS'you'
p6501
aS'ive'
p6502
aS'got'
p6503
aS'piratebay'
p6504
asg25
(lp6505
g6500
ag6501
ag6502
ag6503
ag6504
asba(iMeme
Meme
p6506
(dp6507
g3
(lp6508
S'lost'
p6509
aS'assignment'
p6510
asg16
S'lost assignment'
p6511
sg18
S' claims you never submiddet it'
p6512
sg20
Vscumbag-teacher
p6513
sg22
(lp6514
g6509
ag6510
aS'claims'
p6515
aS'you'
p6516
aS'never'
p6517
aS'submiddet'
p6518
aS'it'
p6519
asg25
(lp6520
g6515
ag6516
ag6517
ag6518
ag6519
asba(iMeme
Meme
p6521
(dp6522
g3
(lp6523
S'you'
p6524
aS'thought'
p6525
aS'he'
p6526
aS'couldnt'
p6527
aS'make'
p6528
aS'it'
p6529
ag145
asg16
S'you thought he couldnt make it?'
p6530
sg18
S' see'
p6531
sg20
Vscumbag-teacher
p6532
sg22
(lp6533
g6524
ag6525
ag6526
ag6527
ag6528
ag6529
ag145
aS'see'
p6534
asg25
(lp6535
g6534
asba(iMeme
Meme
p6536
(dp6537
g3
(lp6538
S'we'
p6539
aS'want'
p6540
aS'you'
p6541
aS'to'
p6542
aS'learn'
p6543
ag34
aS'lot'
p6544
asg16
S'we want you to learn a lot'
p6545
sg18
S' so we count homework as lowest grade'
p6546
sg20
Vscumbag-teacher
p6547
sg22
(lp6548
g6539
ag6540
ag6541
ag6542
ag6543
ag34
ag6544
aS'so'
p6549
aS'we'
p6550
aS'count'
p6551
aS'homework'
p6552
aS'as'
p6553
aS'lowest'
p6554
aS'grade'
p6555
asg25
(lp6556
g6549
ag6550
ag6551
ag6552
ag6553
ag6554
ag6555
asba(iMeme
Meme
p6557
(dp6558
g3
(lp6559
S'its'
p6560
aS'your'
p6561
aS'birthday'
p6562
ag145
asg16
S'its your birthday?'
p6563
sg18
S' heres a bit'
p6564
sg20
Vscumbag-teacher
p6565
sg22
(lp6566
g6560
ag6561
ag6562
ag145
aS'heres'
p6567
ag34
aS'bit'
p6568
asg25
(lp6569
g6567
ag34
ag6568
asba(iMeme
Meme
p6570
(dp6571
g3
(lp6572
S'complete'
p6573
aS'assingment'
p6574
aS'for'
p6575
ag34
aS'reward'
p6576
asg16
S'complete assingment for a reward'
p6577
sg18
S' learning is its own reward'
p6578
sg20
Vscumbag-teacher
p6579
sg22
(lp6580
g6573
ag6574
ag6575
ag34
ag6576
aS'learning'
p6581
aS'is'
p6582
aS'its'
p6583
aS'own'
p6584
aS'reward'
p6585
asg25
(lp6586
g6581
ag6582
ag6583
ag6584
ag6585
asba(iMeme
Meme
p6587
(dp6588
g3
(lp6589
S'content'
p6590
aS'tutoring'
p6591
ag145
asg16
S'content tutoring?'
p6592
sg18
S' fuck you'
p6593
sg20
Vscumbag-teacher
p6594
sg22
(lp6595
g6590
ag6591
ag145
aS'fuck'
p6596
aS'you'
p6597
asg25
(lp6598
g6596
ag6597
asba(iMeme
Meme
p6599
(dp6600
g3
(lp6601
S'bitch'
p6602
aS'high'
p6603
aS'as'
p6604
aS'fuck'
p6605
asg16
S'bitch high as fuck'
p6606
sg18
S' talking shit and shit'
p6607
sg20
Vscumbag-teacher
p6608
sg22
(lp6609
g6602
ag6603
ag6604
ag6605
aS'talking'
p6610
aS'shit'
p6611
aS'and'
p6612
aS'shit'
p6613
asg25
(lp6614
g6610
ag6611
ag6612
ag6613
asba(iMeme
Meme
p6615
(dp6616
g3
(lp6617
S'now'
p6618
aS'kids'
p6619
asg16
S'now kids'
p6620
sg18
S' who want happy ending?'
p6621
sg20
Vscumbag-teacher
p6622
sg22
(lp6623
g6618
ag6619
aS'who'
p6624
aS'want'
p6625
aS'happy'
p6626
aS'ending'
p6627
ag145
asg25
(lp6628
g6624
ag6625
ag6626
ag6627
ag145
asba(iMeme
Meme
p6629
(dp6630
g3
(lp6631
S'comes'
p6632
aS'late'
p6633
aS'to'
p6634
aS'every'
p6635
aS'class'
p6636
asg16
S'comes late to every class'
p6637
sg18
S' will not let you in if you are 5 minutes late'
p6638
sg20
Vscumbag-teacher
p6639
sg22
(lp6640
g6632
ag6633
ag6634
ag6635
ag6636
aS'will'
p6641
aS'not'
p6642
aS'let'
p6643
aS'you'
p6644
aS'in'
p6645
aS'if'
p6646
aS'you'
p6647
aS'are'
p6648
ag1254
aS'minutes'
p6649
aS'late'
p6650
asg25
(lp6651
g6641
ag6642
ag6643
ag6644
ag6645
ag6646
ag6647
ag6648
ag1254
ag6649
ag6650
asba(iMeme
Meme
p6652
(dp6653
g3
(lp6654
S'asks'
p6655
aS'for'
p6656
aS'homework'
p6657
asg16
S'asks for homework'
p6658
sg18
S' yells at class for one student not having it.'
p6659
sg20
Vscumbag-teacher
p6660
sg22
(lp6661
g6655
ag6656
ag6657
aS'yells'
p6662
aS'at'
p6663
aS'class'
p6664
aS'for'
p6665
aS'one'
p6666
aS'student'
p6667
aS'not'
p6668
aS'having'
p6669
aS'it'
p6670
ag15
asg25
(lp6671
g6662
ag6663
ag6664
ag6665
ag6666
ag6667
ag6668
ag6669
ag6670
ag15
asba(iMeme
Meme
p6672
(dp6673
g3
(lp6674
S'really'
p6675
aS'likes'
p6676
aS'your'
p6677
aS'paper'
p6678
asg16
S'really likes your paper'
p6679
sg18
S' gives you a d'
p6680
sg20
Vscumbag-teacher
p6681
sg22
(lp6682
g6675
ag6676
ag6677
ag6678
aS'gives'
p6683
aS'you'
p6684
ag34
aS'd'
p6685
asg25
(lp6686
g6683
ag6684
ag34
ag6685
asba(iMeme
Meme
p6687
(dp6688
g3
(lp6689
S'assigns'
p6690
aS'long'
p6691
aS'ass'
p6692
aS'book'
p6693
asg16
S'assigns long ass book'
p6694
sg18
S' expects you to finish it tomorrow'
p6695
sg20
Vscumbag-teacher
p6696
sg22
(lp6697
g6690
ag6691
ag6692
ag6693
aS'expects'
p6698
aS'you'
p6699
aS'to'
p6700
aS'finish'
p6701
aS'it'
p6702
aS'tomorrow'
p6703
asg25
(lp6704
g6698
ag6699
ag6700
ag6701
ag6702
ag6703
asba(iMeme
Meme
p6705
(dp6706
g3
(lp6707
S'its'
p6708
aS'your'
p6709
aS'birthday'
p6710
asg16
S'its your birthday'
p6711
sg18
S' heres a philosophy dissertation'
p6712
sg20
Vscumbag-teacher
p6713
sg22
(lp6714
g6708
ag6709
ag6710
aS'heres'
p6715
ag34
aS'philosophy'
p6716
aS'dissertation'
p6717
asg25
(lp6718
g6715
ag34
ag6716
ag6717
asba(iMeme
Meme
p6719
(dp6720
g3
(lp6721
S'fails'
p6722
aS'you'
p6723
aS'beacuse'
p6724
aS'they'
p6725
aS'dont'
p6726
aS'like'
p6727
aS'you'
p6728
aS'as'
p6729
ag34
aS'person'
p6730
asg16
S'fails you beacuse they dont like you as a person'
p6731
sg18
S' so your fucked for the rest of the year'
p6732
sg20
Vscumbag-teacher
p6733
sg22
(lp6734
g6722
ag6723
ag6724
ag6725
ag6726
ag6727
ag6728
ag6729
ag34
ag6730
aS'so'
p6735
aS'your'
p6736
aS'fucked'
p6737
aS'for'
p6738
aS'the'
p6739
aS'rest'
p6740
aS'of'
p6741
aS'the'
p6742
aS'year'
p6743
asg25
(lp6744
g6735
ag6736
ag6737
ag6738
ag6739
ag6740
ag6741
ag6742
ag6743
asba(iMeme
Meme
p6745
(dp6746
g3
(lp6747
S'goes'
p6748
aS'on'
p6749
aS'and'
p6750
aS'on'
p6751
aS'complaining'
p6752
aS'about'
p6753
aS'plagiarism'
p6754
asg16
S'goes on and on complaining about plagiarism'
p6755
sg18
S' plagiarizes everyday on her powerpoint'
p6756
sg20
Vscumbag-teacher
p6757
sg22
(lp6758
g6748
ag6749
ag6750
ag6751
ag6752
ag6753
ag6754
aS'plagiarizes'
p6759
aS'everyday'
p6760
aS'on'
p6761
aS'her'
p6762
aS'powerpoint'
p6763
asg25
(lp6764
g6759
ag6760
ag6761
ag6762
ag6763
asba(iMeme
Meme
p6765
(dp6766
g3
(lp6767
S'one'
p6768
aS'person'
p6769
aS'misbehaves'
p6770
asg16
S'one person  misbehaves'
p6771
sg18
S' punish evryone'
p6772
sg20
Vscumbag-teacher
p6773
sg22
(lp6774
g6768
ag6769
ag6770
aS'punish'
p6775
aS'evryone'
p6776
asg25
(lp6777
g6775
ag6776
asba(iMeme
Meme
p6778
(dp6779
g3
(lp6780
S'quit'
p6781
aS'stalking'
p6782
aS'me'
p6783
asg16
S'quit stalking me'
p6784
sg18
S' get a hobby'
p6785
sg20
Vscumbag-teacher
p6786
sg22
(lp6787
g6781
ag6782
ag6783
aS'get'
p6788
ag34
aS'hobby'
p6789
asg25
(lp6790
g6788
ag34
ag6789
asba(iMeme
Meme
p6791
(dp6792
g3
(lp6793
S'emails'
p6794
aS'teacher'
p6795
aS'with'
p6796
aS'question'
p6797
aS'on'
p6798
aS'monday'
p6799
asg16
S'emails teacher with question on monday'
p6800
sg18
S' replies'
p6801
sg20
Vscumbag-teacher
p6802
sg22
(lp6803
g6794
ag6795
ag6796
ag6797
ag6798
ag6799
aS'replies'
p6804
asg25
(lp6805
g6804
asba(iMeme
Meme
p6806
(dp6807
g3
(lp6808
S'some'
p6809
aS'people'
p6810
asg16
S'some people'
p6811
sg18
S' just want to watch the world learn'
p6812
sg20
Vscumbag-teacher
p6813
sg22
(lp6814
g6809
ag6810
aS'just'
p6815
aS'want'
p6816
aS'to'
p6817
aS'watch'
p6818
aS'the'
p6819
aS'world'
p6820
aS'learn'
p6821
asg25
(lp6822
g6815
ag6816
ag6817
ag6818
ag6819
ag6820
ag6821
asba(iMeme
Meme
p6823
(dp6824
g3
(lp6825
S'this'
p6826
aS'is'
p6827
aS'my'
p6828
aS'thread'
p6829
aS'nicca'
p6830
asg16
S'this is my thread nicca'
p6831
sg18
S' ha igu mashquulin shangooloow'
p6832
sg20
Vscumbag-teacher
p6833
sg22
(lp6834
g6826
ag6827
ag6828
ag6829
ag6830
aS'ha'
p6835
aS'igu'
p6836
aS'mashquulin'
p6837
aS'shangooloow'
p6838
asg25
(lp6839
g6835
ag6836
ag6837
ag6838
asba(iMeme
Meme
p6840
(dp6841
g3
(lp6842
S'doesnt'
p6843
aS'let'
p6844
aS'student'
p6845
aS'use'
p6846
aS'the'
p6847
aS'bathroom'
p6848
asg16
S'doesnt let student use the bathroom'
p6849
sg18
S' yells at them when they shit themself'
p6850
sg20
Vscumbag-teacher
p6851
sg22
(lp6852
g6843
ag6844
ag6845
ag6846
ag6847
ag6848
aS'yells'
p6853
aS'at'
p6854
aS'them'
p6855
aS'when'
p6856
aS'they'
p6857
aS'shit'
p6858
aS'themself'
p6859
asg25
(lp6860
g6853
ag6854
ag6855
ag6856
ag6857
ag6858
ag6859
asba(iMeme
Meme
p6861
(dp6862
g3
(lp6863
S'tries'
p6864
aS'to'
p6865
aS'explain'
p6866
aS'something'
p6867
asg16
S'tries to explain something'
p6868
sg18
S' doesnt understand it herself'
p6869
sg20
Vscumbag-teacher
p6870
sg22
(lp6871
g6864
ag6865
ag6866
ag6867
aS'doesnt'
p6872
aS'understand'
p6873
aS'it'
p6874
aS'herself'
p6875
asg25
(lp6876
g6872
ag6873
ag6874
ag6875
asba(iMeme
Meme
p6877
(dp6878
g3
(lp6879
S'excuse'
p6880
aS'me'
p6881
asg16
S'excuse me'
p6882
sg18
S' im talking.'
p6883
sg20
Vscumbag-teacher
p6884
sg22
(lp6885
g6880
ag6881
aS'im'
p6886
aS'talking'
p6887
ag15
asg25
(lp6888
g6886
ag6887
ag15
asba(iMeme
Meme
p6889
(dp6890
g3
(lp6891
S'when'
p6892
aS'ilewis'
p6893
aS'post'
p6894
aS'on'
p6895
aS'kyles'
p6896
aS'topics'
p6897
asg16
S'when ilewis post on kyles topics'
p6898
sg18
S' hes always trolling'
p6899
sg20
Vscumbag-teacher
p6900
sg22
(lp6901
g6892
ag6893
ag6894
ag6895
ag6896
ag6897
aS'hes'
p6902
aS'always'
p6903
aS'trolling'
p6904
asg25
(lp6905
g6902
ag6903
ag6904
asba(iMeme
Meme
p6906
(dp6907
g3
(lp6908
S'too'
p6909
aS'fast'
p6910
ag145
asg16
S'too fast?'
p6911
sg18
S' lets go faster'
p6912
sg20
Vscumbag-teacher
p6913
sg22
(lp6914
g6909
ag6910
ag145
aS'lets'
p6915
aS'go'
p6916
aS'faster'
p6917
asg25
(lp6918
g6915
ag6916
ag6917
asba(iMeme
Meme
p6919
(dp6920
g3
(lp6921
S'say'
p6922
aS'wikipedia'
p6923
aS'is'
p6924
aS'not'
p6925
ag34
aS'reliable'
p6926
aS'resource'
p6927
asg16
S'say wikipedia is not a reliable resource'
p6928
sg18
S' instead uses 2'
p6929
sg20
Vscumbag-teacher
p6930
sg22
(lp6931
g6922
ag6923
ag6924
ag6925
ag34
ag6926
ag6927
aS'instead'
p6932
aS'uses'
p6933
ag5063
asg25
(lp6934
g6932
ag6933
ag5063
asba(iMeme
Meme
p6935
(dp6936
g3
(lp6937
S'scolds'
p6938
aS'you'
p6939
aS'for'
p6940
aS'not'
p6941
aS'studying'
p6942
aS'ahead'
p6943
aS'of'
p6944
aS'time'
p6945
asg16
S'scolds you for not studying ahead of time'
p6946
sg18
S' 90% of test is over last lecture'
p6947
sg20
Vscumbag-teacher
p6948
sg22
(lp6949
g6938
ag6939
ag6940
ag6941
ag6942
ag6943
ag6944
ag6945
aS'90'
p6950
ag309
aS'of'
p6951
aS'test'
p6952
aS'is'
p6953
aS'over'
p6954
aS'last'
p6955
aS'lecture'
p6956
asg25
(lp6957
g6950
ag309
ag6951
ag6952
ag6953
ag6954
ag6955
ag6956
asba(iMeme
Meme
p6958
(dp6959
g3
(lp6960
S'write'
p6961
aS'10'
p6962
aS'essays'
p6963
asg16
S'write 10 essays'
p6964
sg18
S' i want it tommorow'
p6965
sg20
Vscumbag-teacher
p6966
sg22
(lp6967
g6961
ag6962
ag6963
ag202
aS'want'
p6968
aS'it'
p6969
aS'tommorow'
p6970
asg25
(lp6971
g202
ag6968
ag6969
ag6970
asba(iMeme
Meme
p6972
(dp6973
g3
(lp6974
S'cant'
p6975
aS'find'
p6976
aS'material'
p6977
aS'on'
p6978
ag34
aS'page'
p6979
asg16
S'cant find material on a page'
p6980
sg18
S' tell her which page its on'
p6981
sg20
Vscumbag-teacher
p6982
sg22
(lp6983
g6975
ag6976
ag6977
ag6978
ag34
ag6979
aS'tell'
p6984
aS'her'
p6985
aS'which'
p6986
aS'page'
p6987
aS'its'
p6988
aS'on'
p6989
asg25
(lp6990
g6984
ag6985
ag6986
ag6987
ag6988
ag6989
asba(iMeme
Meme
p6991
(dp6992
g3
(lp6993
S'never'
p6994
aS'tell'
p6995
aS'ur'
p6996
aS'problems'
p6997
aS'to'
p6998
aS'anyone'
p6999
asg16
S'never tell ur problems to anyone'
p7000
sg18
S' 20% dont care & the other 80% r glad u have them'
p7001
sg20
Vscumbag-teacher
p7002
sg22
(lp7003
g6994
ag6995
ag6996
ag6997
ag6998
ag6999
aS'20'
p7004
ag309
aS'dont'
p7005
aS'care'
p7006
aS'&'
p7007
aS'the'
p7008
aS'other'
p7009
aS'80'
p7010
ag309
aS'r'
p7011
aS'glad'
p7012
ag4756
aS'have'
p7013
aS'them'
p7014
asg25
(lp7015
g7004
ag309
ag7005
ag7006
ag7007
ag7008
ag7009
ag7010
ag309
ag7011
ag7012
ag4756
ag7013
ag7014
asba(iMeme
Meme
p7016
(dp7017
g3
(lp7018
S'erases'
p7019
aS'entire'
p7020
aS'board'
p7021
asg16
S'erases entire board'
p7022
sg18
S' uses half of it'
p7023
sg20
Vscumbag-teacher
p7024
sg22
(lp7025
g7019
ag7020
ag7021
aS'uses'
p7026
aS'half'
p7027
aS'of'
p7028
aS'it'
p7029
asg25
(lp7030
g7026
ag7027
ag7028
ag7029
asba(iMeme
Meme
p7031
(dp7032
g3
(lp7033
S'has'
p7034
ag5063
aS'college'
p7035
aS'degrees'
p7036
asg16
S'has 2 college degrees'
p7037
sg18
S' glorified babysitter'
p7038
sg20
Vscumbag-teacher
p7039
sg22
(lp7040
g7034
ag5063
ag7035
ag7036
aS'glorified'
p7041
aS'babysitter'
p7042
asg25
(lp7043
g7041
ag7042
asba(iMeme
Meme
p7044
(dp7045
g3
(lp7046
g202
aS'happen'
p7047
aS'know'
p7048
aS'osm'
p7049
asg16
S'i happen know osm'
p7050
sg18
S' europe is here!'
p7051
sg20
Vscumbag-teacher
p7052
sg22
(lp7053
g202
ag7047
ag7048
ag7049
aS'europe'
p7054
aS'is'
p7055
aS'here'
p7056
ag1075
asg25
(lp7057
g7054
ag7055
ag7056
ag1075
asba(iMeme
Meme
p7058
(dp7059
g3
(lp7060
S'say'
p7061
aS'youll'
p7062
aS'be'
p7063
aS'out'
p7064
aS'of'
p7065
aS'school'
p7066
aS'tomorrow'
p7067
asg16
S'say youll be out of school tomorrow'
p7068
sg18
S' still marked absent'
p7069
sg20
Vscumbag-teacher
p7070
sg22
(lp7071
g7061
ag7062
ag7063
ag7064
ag7065
ag7066
ag7067
aS'still'
p7072
aS'marked'
p7073
aS'absent'
p7074
asg25
(lp7075
g7072
ag7073
ag7074
asba(iMeme
Meme
p7076
(dp7077
g3
(lp7078
S'no'
p7079
aS'work'
p7080
aS'no'
p7081
aS'study'
p7082
ag145
asg16
S'no work no study?'
p7083
sg18
S' no pain no gain'
p7084
sg20
Vscumbag-teacher
p7085
sg22
(lp7086
g7079
ag7080
ag7081
ag7082
ag145
aS'no'
p7087
aS'pain'
p7088
aS'no'
p7089
aS'gain'
p7090
asg25
(lp7091
g7087
ag7088
ag7089
ag7090
asba(iMeme
Meme
p7092
(dp7093
g3
(lp7094
S'you'
p7095
aS'are'
p7096
ag34
asg16
S'you are a'
p7097
sg18
S' tyler beasley arent you'
p7098
sg20
Vscumbag-teacher
p7099
sg22
(lp7100
g7095
ag7096
ag34
aS'tyler'
p7101
aS'beasley'
p7102
aS'arent'
p7103
aS'you'
p7104
asg25
(lp7105
g7101
ag7102
ag7103
ag7104
asba(iMeme
Meme
p7106
(dp7107
g3
(lp7108
S'yes'
p7109
ag1075
ag1075
asg16
S'yes!!'
p7110
sg18
S' you are a totally mother fucker'
p7111
sg20
Vscumbag-teacher
p7112
sg22
(lp7113
g7109
ag1075
ag1075
aS'you'
p7114
aS'are'
p7115
ag34
aS'totally'
p7116
aS'mother'
p7117
aS'fucker'
p7118
asg25
(lp7119
g7114
ag7115
ag34
ag7116
ag7117
ag7118
asba(iMeme
Meme
p7120
(dp7121
g3
(lp7122
S'shume'
p7123
aS'mire'
p7124
aS'per'
p7125
aS'sot'
p7126
ag1075
asg16
S'shume mire per sot !'
p7127
sg18
S' ulu '
p7128
sg20
Vscumbag-teacher
p7129
sg22
(lp7130
g7123
ag7124
ag7125
ag7126
ag1075
aS'ulu'
p7131
asg25
(lp7132
g7131
asba(iMeme
Meme
p7133
(dp7134
g3
(lp7135
S'doesnt'
p7136
aS'accept'
p7137
aS'late'
p7138
aS'papers'
p7139
asg16
S'doesnt accept late papers'
p7140
sg18
S' takes 2 months to grade them'
p7141
sg20
Vscumbag-teacher
p7142
sg22
(lp7143
g7136
ag7137
ag7138
ag7139
aS'takes'
p7144
ag5063
aS'months'
p7145
aS'to'
p7146
aS'grade'
p7147
aS'them'
p7148
asg25
(lp7149
g7144
ag5063
ag7145
ag7146
ag7147
ag7148
asba(iMeme
Meme
p7150
(dp7151
g3
(lp7152
S'so'
p7153
asg16
S'so'
p7154
sg18
S' whats this class called again?'
p7155
sg20
Vscumbag-teacher
p7156
sg22
(lp7157
g7153
aS'whats'
p7158
aS'this'
p7159
aS'class'
p7160
aS'called'
p7161
aS'again'
p7162
ag145
asg25
(lp7163
g7158
ag7159
ag7160
ag7161
ag7162
ag145
asba(iMeme
Meme
p7164
(dp7165
g3
(lp7166
S'ask'
p7167
aS'her'
p7168
aS'where'
p7169
aS'china'
p7170
aS'is'
p7171
asg16
S'ask her where china is'
p7172
sg18
S' points to venezuela'
p7173
sg20
Vscumbag-teacher
p7174
sg22
(lp7175
g7167
ag7168
ag7169
ag7170
ag7171
aS'points'
p7176
aS'to'
p7177
aS'venezuela'
p7178
asg25
(lp7179
g7176
ag7177
ag7178
asba(iMeme
Meme
p7180
(dp7181
g3
(lp7182
g202
aS'dont'
p7183
aS'usually'
p7184
aS'teach'
p7185
asg16
S'i dont usually teach'
p7186
sg18
S' but when i do its out of a 20 year old book'
p7187
sg20
Vscumbag-teacher
p7188
sg22
(lp7189
g202
ag7183
ag7184
ag7185
aS'but'
p7190
aS'when'
p7191
ag202
aS'do'
p7192
aS'its'
p7193
aS'out'
p7194
aS'of'
p7195
ag34
aS'20'
p7196
aS'year'
p7197
aS'old'
p7198
aS'book'
p7199
asg25
(lp7200
g7190
ag7191
ag202
ag7192
ag7193
ag7194
ag7195
ag34
ag7196
ag7197
ag7198
ag7199
asba(iMeme
Meme
p7201
(dp7202
g3
(lp7203
g202
aS'ask'
p7204
aS'you'
p7205
aS'everyday'
p7206
aS'how'
p7207
aS'you'
p7208
aS'are'
p7209
ag15
asg16
S'i ask you everyday how you are.'
p7210
sg18
S' but i am never interested.'
p7211
sg20
Vscumbag-teacher
p7212
sg22
(lp7213
g202
ag7204
ag7205
ag7206
ag7207
ag7208
ag7209
ag15
aS'but'
p7214
ag202
aS'am'
p7215
aS'never'
p7216
aS'interested'
p7217
ag15
asg25
(lp7218
g7214
ag202
ag7215
ag7216
ag7217
ag15
asba(iMeme
Meme
p7219
(dp7220
g3
(lp7221
g202
aS'have'
p7222
aS'the'
p7223
aS'pussy'
p7224
asg16
S'i have the pussy'
p7225
sg18
S' i make the rules'
p7226
sg20
Vscumbag-teacher
p7227
sg22
(lp7228
g202
ag7222
ag7223
ag7224
ag202
aS'make'
p7229
aS'the'
p7230
aS'rules'
p7231
asg25
(lp7232
g202
ag7229
ag7230
ag7231
asba(iMeme
Meme
p7233
(dp7234
g3
(lp7235
S'this'
p7236
aS'is'
p7237
aS'south'
p7238
aS'america'
p7239
asg16
S'this is south america'
p7240
sg18
S' where myself and other asians live'
p7241
sg20
Vscumbag-teacher
p7242
sg22
(lp7243
g7236
ag7237
ag7238
ag7239
aS'where'
p7244
aS'myself'
p7245
aS'and'
p7246
aS'other'
p7247
aS'asians'
p7248
aS'live'
p7249
asg25
(lp7250
g7244
ag7245
ag7246
ag7247
ag7248
ag7249
asba(iMeme
Meme
p7251
(dp7252
g3
(lp7253
g202
aS'dont'
p7254
aS'give'
p7255
aS'out'
p7256
aS'grades'
p7257
ag15
aS'you'
p7258
aS'earn'
p7259
aS'them'
p7260
ag15
asg16
S'i dont give out grades. you earn them.'
p7261
sg18
S' fails you for fun.'
p7262
sg20
Vscumbag-teacher
p7263
sg22
(lp7264
g202
ag7254
ag7255
ag7256
ag7257
ag15
ag7258
ag7259
ag7260
ag15
aS'fails'
p7265
aS'you'
p7266
aS'for'
p7267
aS'fun'
p7268
ag15
asg25
(lp7269
g7265
ag7266
ag7267
ag7268
ag15
asba(iMeme
Meme
p7270
(dp7271
g3
(lp7272
S'youre'
p7273
aS'website'
p7274
asg16
S'youre website'
p7275
sg18
S' deserves an a+'
p7276
sg20
Vscumbag-teacher
p7277
sg22
(lp7278
g7273
ag7274
aS'deserves'
p7279
aS'an'
p7280
aS'a+'
p7281
asg25
(lp7282
g7279
ag7280
ag7281
asba(iMeme
Meme
p7283
(dp7284
g3
(lp7285
S'you'
p7286
aS'will'
p7287
aS'be'
p7288
aS'punished'
p7289
aS'if'
p7290
ag202
aS'catch'
p7291
aS'you'
p7292
aS'bullying'
p7293
ag1075
asg16
S'you will be punished if i catch you bullying!'
p7294
sg18
S' doesnt do anything'
p7295
sg20
Vscumbag-teacher
p7296
sg22
(lp7297
g7286
ag7287
ag7288
ag7289
ag7290
ag202
ag7291
ag7292
ag7293
ag1075
aS'doesnt'
p7298
aS'do'
p7299
aS'anything'
p7300
asg25
(lp7301
g7298
ag7299
ag7300
asba(iMeme
Meme
p7302
(dp7303
g3
(lp7304
S'one'
p7305
aS'person'
p7306
aS'talking'
p7307
asg16
S'one person talking'
p7308
sg18
S' gives a 30 minute speech on africa to make us feel bad'
p7309
sg20
Vscumbag-teacher
p7310
sg22
(lp7311
g7305
ag7306
ag7307
aS'gives'
p7312
ag34
aS'30'
p7313
aS'minute'
p7314
aS'speech'
p7315
aS'on'
p7316
aS'africa'
p7317
aS'to'
p7318
aS'make'
p7319
aS'us'
p7320
aS'feel'
p7321
aS'bad'
p7322
asg25
(lp7323
g7312
ag34
ag7313
ag7314
ag7315
ag7316
ag7317
ag7318
ag7319
ag7320
ag7321
ag7322
asba(iMeme
Meme
p7324
(dp7325
g3
(lp7326
S'oh'
p7327
asg16
S'oh'
p7328
sg18
S' so you just learned this hard lesson yesterday?'
p7329
sg20
Vscumbag-teacher
p7330
sg22
(lp7331
g7327
aS'so'
p7332
aS'you'
p7333
aS'just'
p7334
aS'learned'
p7335
aS'this'
p7336
aS'hard'
p7337
aS'lesson'
p7338
aS'yesterday'
p7339
ag145
asg25
(lp7340
g7332
ag7333
ag7334
ag7335
ag7336
ag7337
ag7338
ag7339
ag145
asba(iMeme
Meme
p7341
(dp7342
g3
(lp7343
S'wrong'
p7344
asg16
S'wrong'
p7345
sg18
S' now hold still'
p7346
sg20
Vscumbag-teacher
p7347
sg22
(lp7348
g7344
aS'now'
p7349
aS'hold'
p7350
aS'still'
p7351
asg25
(lp7352
g7349
ag7350
ag7351
asba(iMeme
Meme
p7353
(dp7354
g3
(lp7355
S'assigns'
p7356
aS'1chan'
p7357
aS'homework'
p7358
asg16
S'assigns 1chan homework'
p7359
sg18
S' expects it next day'
p7360
sg20
Vscumbag-teacher
p7361
sg22
(lp7362
g7356
ag7357
ag7358
aS'expects'
p7363
aS'it'
p7364
aS'next'
p7365
aS'day'
p7366
asg25
(lp7367
g7363
ag7364
ag7365
ag7366
asba(iMeme
Meme
p7368
(dp7369
g3
(lp7370
S'as'
p7371
aS'you'
p7372
aS'can'
p7373
aS'see'
p7374
asg16
S'as you can see'
p7375
sg18
S' nagkakamot ng y*gb*ls si gurltrand!'
p7376
sg20
Vscumbag-teacher
p7377
sg22
(lp7378
g7371
ag7372
ag7373
ag7374
aS'nagkakamot'
p7379
aS'ng'
p7380
aS'y*gb*ls'
p7381
aS'si'
p7382
aS'gurltrand'
p7383
ag1075
asg25
(lp7384
g7379
ag7380
ag7381
ag7382
ag7383
ag1075
asba(iMeme
Meme
p7385
(dp7386
g3
(lp7387
S'says'
p7388
aS'you'
p7389
aS'have'
p7390
aS'to'
p7391
aS'write'
p7392
aS'one'
p7393
aS'page'
p7394
asg16
S'says you have to write one page'
p7395
sg18
S' doesnt tell you have to read 38 pages to do the assignment'
p7396
sg20
Vscumbag-teacher
p7397
sg22
(lp7398
g7388
ag7389
ag7390
ag7391
ag7392
ag7393
ag7394
aS'doesnt'
p7399
aS'tell'
p7400
aS'you'
p7401
aS'have'
p7402
aS'to'
p7403
aS'read'
p7404
aS'38'
p7405
aS'pages'
p7406
aS'to'
p7407
aS'do'
p7408
aS'the'
p7409
aS'assignment'
p7410
asg25
(lp7411
g7399
ag7400
ag7401
ag7402
ag7403
ag7404
ag7405
ag7406
ag7407
ag7408
ag7409
ag7410
asba(iMeme
Meme
p7412
(dp7413
g3
(lp7414
S'oh'
p7415
aS'you'
p7416
aS'have'
p7417
ag34
aS'mitt'
p7418
aS'romney'
p7419
aS'sticker'
p7420
aS'on'
p7421
aS'your'
p7422
aS'car'
p7423
ag145
asg16
S'oh you have a mitt romney sticker on your car?'
p7424
sg18
S' you must be quite the politician'
p7425
sg20
Vscumbag-teacher
p7426
sg22
(lp7427
g7415
ag7416
ag7417
ag34
ag7418
ag7419
ag7420
ag7421
ag7422
ag7423
ag145
aS'you'
p7428
aS'must'
p7429
aS'be'
p7430
aS'quite'
p7431
aS'the'
p7432
aS'politician'
p7433
asg25
(lp7434
g7428
ag7429
ag7430
ag7431
ag7432
ag7433
asba(iMeme
Meme
p7435
(dp7436
g3
(lp7437
S'entire'
p7438
aS'lesson'
p7439
aS'on'
p7440
aS'smartboard'
p7441
asg16
S'entire lesson on smartboard'
p7442
sg18
S' doesnt know how to turn it on'
p7443
sg20
Vscumbag-teacher
p7444
sg22
(lp7445
g7438
ag7439
ag7440
ag7441
aS'doesnt'
p7446
aS'know'
p7447
aS'how'
p7448
aS'to'
p7449
aS'turn'
p7450
aS'it'
p7451
aS'on'
p7452
asg25
(lp7453
g7446
ag7447
ag7448
ag7449
ag7450
ag7451
ag7452
asba(iMeme
Meme
p7454
(dp7455
g3
(lp7456
S'wishes'
p7457
aS'happy'
p7458
aS'new'
p7459
aS'year'
p7460
asg16
S'wishes happy new year'
p7461
sg18
S' gives test next day'
p7462
sg20
Vscumbag-teacher
p7463
sg22
(lp7464
g7457
ag7458
ag7459
ag7460
aS'gives'
p7465
aS'test'
p7466
aS'next'
p7467
aS'day'
p7468
asg25
(lp7469
g7465
ag7466
ag7467
ag7468
asba(iMeme
Meme
p7470
(dp7471
g3
(lp7472
S'for'
p7473
aS'some'
p7474
aS'reason'
p7475
aS'the'
p7476
aS'heating'
p7477
aS'is'
p7478
aS'off'
p7479
aS'in'
p7480
aS'winter'
p7481
asg16
S'for some reason the heating is off in winter'
p7482
sg18
S' well let you hear your scarfs and hats but not your coats'
p7483
sg20
Vscumbag-teacher
p7484
sg22
(lp7485
g7473
ag7474
ag7475
ag7476
ag7477
ag7478
ag7479
ag7480
ag7481
aS'well'
p7486
aS'let'
p7487
aS'you'
p7488
aS'hear'
p7489
aS'your'
p7490
aS'scarfs'
p7491
aS'and'
p7492
aS'hats'
p7493
aS'but'
p7494
aS'not'
p7495
aS'your'
p7496
aS'coats'
p7497
asg25
(lp7498
g7486
ag7487
ag7488
ag7489
ag7490
ag7491
ag7492
ag7493
ag7494
ag7495
ag7496
ag7497
asba(iMeme
Meme
p7499
(dp7500
g3
(lp7501
S'what'
p7502
aS'did'
p7503
aS'you'
p7504
aS'say'
p7505
ag145
ag145
ag145
asg16
S'what did you say???'
p7506
sg18
S' bitch please'
p7507
sg20
Vscumbag-teacher
p7508
sg22
(lp7509
g7502
ag7503
ag7504
ag7505
ag145
ag145
ag145
aS'bitch'
p7510
aS'please'
p7511
asg25
(lp7512
g7510
ag7511
asba(iMeme
Meme
p7513
(dp7514
g3
(lp7515
S'actually'
p7516
aS'my'
p7517
aS'exact'
p7518
aS'words'
p7519
aS'were'
p7520
asg16
S'actually my exact words were'
p7521
sg18
S' i f***ing hate you!'
p7522
sg20
Vscumbag-teacher
p7523
sg22
(lp7524
g7516
ag7517
ag7518
ag7519
ag7520
ag202
aS'f***ing'
p7525
aS'hate'
p7526
aS'you'
p7527
ag1075
asg25
(lp7528
g202
ag7525
ag7526
ag7527
ag1075
asba(iMeme
Meme
p7529
(dp7530
g3
(lp7531
S'edward'
p7532
asg16
S'edward'
p7533
sg18
S' do you believe in god?'
p7534
sg20
Vscumbag-teacher
p7535
sg22
(lp7536
g7532
aS'do'
p7537
aS'you'
p7538
aS'believe'
p7539
aS'in'
p7540
aS'god'
p7541
ag145
asg25
(lp7542
g7537
ag7538
ag7539
ag7540
ag7541
ag145
asba(iMeme
Meme
p7543
(dp7544
g3
(lp7545
S'gets'
p7546
aS'corrected'
p7547
aS'on'
p7548
ag34
aS'test'
p7549
aS'answer'
p7550
asg16
S'gets corrected on a test answer'
p7551
sg18
S' calls you jojo'
p7552
sg20
Vscumbag-teacher
p7553
sg22
(lp7554
g7546
ag7547
ag7548
ag34
ag7549
ag7550
aS'calls'
p7555
aS'you'
p7556
aS'jojo'
p7557
asg25
(lp7558
g7555
ag7556
ag7557
asba(iMeme
Meme
p7559
(dp7560
g3
(lp7561
S'scumbag'
p7562
aS'teacher'
p7563
asg16
S'scumbag teacher'
p7564
sg18
S' changes date of exam for tomorrow  tells students at 11:00 pm'
p7565
sg20
Vscumbag-teacher
p7566
sg22
(lp7567
g7562
ag7563
aS'changes'
p7568
aS'date'
p7569
aS'of'
p7570
aS'exam'
p7571
aS'for'
p7572
aS'tomorrow'
p7573
aS'tells'
p7574
aS'students'
p7575
aS'at'
p7576
aS'11:00'
p7577
aS'pm'
p7578
asg25
(lp7579
g7568
ag7569
ag7570
ag7571
ag7572
ag7573
ag7574
ag7575
ag7576
ag7577
ag7578
asba(iMeme
Meme
p7580
(dp7581
g3
(lp7582
S'doesnt'
p7583
aS'accept'
p7584
aS'late'
p7585
aS'papers'
p7586
asg16
S'doesnt accept late papers'
p7587
sg18
S' takes 3 weeks to grade them'
p7588
sg20
Vscumbag-teacher
p7589
sg22
(lp7590
g7583
ag7584
ag7585
ag7586
aS'takes'
p7591
ag1792
aS'weeks'
p7592
aS'to'
p7593
aS'grade'
p7594
aS'them'
p7595
asg25
(lp7596
g7591
ag1792
ag7592
ag7593
ag7594
ag7595
asba(iMeme
Meme
p7597
(dp7598
g3
(lp7599
S'saliem'
p7600
asg16
S'saliem'
p7601
sg18
S' its not from me'
p7602
sg20
Vscumbag-teacher
p7603
sg22
(lp7604
g7600
aS'its'
p7605
aS'not'
p7606
aS'from'
p7607
aS'me'
p7608
asg25
(lp7609
g7605
ag7606
ag7607
ag7608
asba(iMeme
Meme
p7610
(dp7611
g3
(lp7612
S'two'
p7613
aS'people'
p7614
aS'are'
p7615
aS'talking'
p7616
ag145
asg16
S'two people are talking?'
p7617
sg18
S' lets punish the whole class'
p7618
sg20
Vscumbag-teacher
p7619
sg22
(lp7620
g7613
ag7614
ag7615
ag7616
ag145
aS'lets'
p7621
aS'punish'
p7622
aS'the'
p7623
aS'whole'
p7624
aS'class'
p7625
asg25
(lp7626
g7621
ag7622
ag7623
ag7624
ag7625
asba(iMeme
Meme
p7627
(dp7628
g3
(lp7629
S'jill'
p7630
ag1075
ag1075
ag1075
ag1075
asg16
S'jill!!!!'
p7631
sg18
S' i came to see you!'
p7632
sg20
Vscumbag-teacher
p7633
sg22
(lp7634
g7630
ag1075
ag1075
ag1075
ag1075
ag202
aS'came'
p7635
aS'to'
p7636
aS'see'
p7637
aS'you'
p7638
ag1075
asg25
(lp7639
g202
ag7635
ag7636
ag7637
ag7638
ag1075
asba(iMeme
Meme
p7640
(dp7641
g3
(lp7642
g4756
aS'think'
p7643
aS'im'
p7644
ag34
aS'bitch'
p7645
asg16
S'u think im a bitch'
p7646
sg18
S' u should look at that sluty bitch next to u'
p7647
sg20
Vscumbag-teacher
p7648
sg22
(lp7649
g4756
ag7643
ag7644
ag34
ag7645
ag4756
aS'should'
p7650
aS'look'
p7651
aS'at'
p7652
aS'that'
p7653
aS'sluty'
p7654
aS'bitch'
p7655
aS'next'
p7656
aS'to'
p7657
ag4756
asg25
(lp7658
g4756
ag7650
ag7651
ag7652
ag7653
ag7654
ag7655
ag7656
ag7657
ag4756
asba(iMeme
Meme
p7659
(dp7660
g3
(lp7661
S'calls'
p7662
aS'on'
p7663
aS'the'
p7664
aS'asian'
p7665
aS'kid'
p7666
asg16
S'calls on the asian kid'
p7667
sg18
S' kills him by the other asian kids name'
p7668
sg20
Vscumbag-teacher
p7669
sg22
(lp7670
g7662
ag7663
ag7664
ag7665
ag7666
aS'kills'
p7671
aS'him'
p7672
aS'by'
p7673
aS'the'
p7674
aS'other'
p7675
aS'asian'
p7676
aS'kids'
p7677
aS'name'
p7678
asg25
(lp7679
g7671
ag7672
ag7673
ag7674
ag7675
ag7676
ag7677
ag7678
asba(iMeme
Meme
p7680
(dp7681
g3
(lp7682
S'now'
p7683
aS'kids'
p7684
asg16
S'now kids'
p7685
sg18
S' who want to get laid'
p7686
sg20
Vscumbag-teacher
p7687
sg22
(lp7688
g7683
ag7684
aS'who'
p7689
aS'want'
p7690
aS'to'
p7691
aS'get'
p7692
aS'laid'
p7693
asg25
(lp7694
g7689
ag7690
ag7691
ag7692
ag7693
asba(iMeme
Meme
p7695
(dp7696
g3
(lp7697
S'this'
p7698
aS'will'
p7699
aS'be'
p7700
aS'on'
p7701
aS'the'
p7702
aS'test'
p7703
asg16
S'this will be on the test'
p7704
sg18
S' not on the test'
p7705
sg20
Vscumbag-teacher
p7706
sg22
(lp7707
g7698
ag7699
ag7700
ag7701
ag7702
ag7703
aS'not'
p7708
aS'on'
p7709
aS'the'
p7710
aS'test'
p7711
asg25
(lp7712
g7708
ag7709
ag7710
ag7711
asba(iMeme
Meme
p7713
(dp7714
g3
(lp7715
S'newton'
p7716
aS'craig'
p7717
aS'caballero'
p7718
asg16
S'newton craig caballero'
p7719
sg18
S' you are cute!!'
p7720
sg20
Vscumbag-teacher
p7721
sg22
(lp7722
g7716
ag7717
ag7718
aS'you'
p7723
aS'are'
p7724
aS'cute'
p7725
ag1075
ag1075
asg25
(lp7726
g7723
ag7724
ag7725
ag1075
ag1075
asba(iMeme
Meme
p7727
(dp7728
g3
(lp7729
S'iep'
p7730
ag145
asg16
S'iep?'
p7731
sg18
S' sabazan is a retard.'
p7732
sg20
Vscumbag-teacher
p7733
sg22
(lp7734
g7730
ag145
aS'sabazan'
p7735
aS'is'
p7736
ag34
aS'retard'
p7737
ag15
asg25
(lp7738
g7735
ag7736
ag34
ag7737
ag15
asba(iMeme
Meme
p7739
(dp7740
g3
(lp7741
S'excuse'
p7742
aS'me'
p7743
asg16
S'excuse me'
p7744
sg18
S' im talking.'
p7745
sg20
Vscumbag-teacher
p7746
sg22
(lp7747
g7742
ag7743
aS'im'
p7748
aS'talking'
p7749
ag15
asg25
(lp7750
g7748
ag7749
ag15
asba(iMeme
Meme
p7751
(dp7752
g3
(lp7753
S'doesnt'
p7754
aS'post'
p7755
aS'homework'
p7756
aS'on'
p7757
aS'rjenda'
p7758
asg16
S'doesnt post homework on rjenda'
p7759
sg18
S' expects you to do it'
p7760
sg20
Vscumbag-teacher
p7761
sg22
(lp7762
g7754
ag7755
ag7756
ag7757
ag7758
aS'expects'
p7763
aS'you'
p7764
aS'to'
p7765
aS'do'
p7766
aS'it'
p7767
asg25
(lp7768
g7763
ag7764
ag7765
ag7766
ag7767
asba(iMeme
Meme
p7769
(dp7770
g3
(lp7771
S'passe'
p7772
aS'moins'
p7773
aS'de'
p7774
aS'deux'
p7775
aS'minutes'
p7776
aS'sur'
p7777
aS'un'
p7778
aS'sujet'
p7779
ag15
asg16
S'passe moins de deux minutes sur un sujet.'
p7780
sg18
S' base 50 % de lexamen final sur ce sujet'
p7781
sg20
Vscumbag-teacher
p7782
sg22
(lp7783
g7772
ag7773
ag7774
ag7775
ag7776
ag7777
ag7778
ag7779
ag15
aS'base'
p7784
aS'50'
p7785
ag309
aS'de'
p7786
aS'lexamen'
p7787
aS'final'
p7788
aS'sur'
p7789
aS'ce'
p7790
aS'sujet'
p7791
asg25
(lp7792
g7784
ag7785
ag309
ag7786
ag7787
ag7788
ag7789
ag7790
ag7791
asba(iMeme
Meme
p7793
(dp7794
g3
(lp7795
g202
aS'wan'
p7796
aS'na'
p7797
aS'suck'
p7798
aS'your'
p7799
asg16
S'i wanna suck your'
p7800
sg18
S' ..sucker!'
p7801
sg20
Vscumbag-teacher
p7802
sg22
(lp7803
g202
ag7796
ag7797
ag7798
ag7799
aS'..sucker'
p7804
ag1075
asg25
(lp7805
g7804
ag1075
asba(iMeme
Meme
p7806
(dp7807
g3
(lp7808
S'you'
p7809
aS'kids'
p7810
aS'arent'
p7811
aS'certified'
p7812
aS'to'
p7813
aS'make'
p7814
aS'ap'
p7815
aS'questions'
p7816
ag145
asg16
S'you kids arent certified to make ap questions?'
p7817
sg18
S' oh well its a grade anyway lol'
p7818
sg20
Vscumbag-teacher
p7819
sg22
(lp7820
g7809
ag7810
ag7811
ag7812
ag7813
ag7814
ag7815
ag7816
ag145
aS'oh'
p7821
aS'well'
p7822
aS'its'
p7823
ag34
aS'grade'
p7824
aS'anyway'
p7825
aS'lol'
p7826
asg25
(lp7827
g7821
ag7822
ag7823
ag34
ag7824
ag7825
ag7826
asba(iMeme
Meme
p7828
(dp7829
g3
(lp7830
S'bottle'
p7831
aS'of'
p7832
aS'water'
p7833
ag145
asg16
S'bottle of water?'
p7834
sg18
S' must be vodka'
p7835
sg20
Vscumbag-teacher
p7836
sg22
(lp7837
g7831
ag7832
ag7833
ag145
aS'must'
p7838
aS'be'
p7839
aS'vodka'
p7840
asg25
(lp7841
g7838
ag7839
ag7840
asba(iMeme
Meme
p7842
(dp7843
g3
(lp7844
S'dont'
p7845
aS'ask'
p7846
aS'how'
p7847
aS'old'
p7848
ag202
aS'am'
p7849
asg16
S'dont ask how old i am'
p7850
sg18
S' unless youre obama'
p7851
sg20
Vscumbag-teacher
p7852
sg22
(lp7853
g7845
ag7846
ag7847
ag7848
ag202
ag7849
aS'unless'
p7854
aS'youre'
p7855
aS'obama'
p7856
asg25
(lp7857
g7854
ag7855
ag7856
asba(iMeme
Meme
p7858
(dp7859
g3
(lp7860
S'when'
p7861
ag202
aS'post'
p7862
aS'on'
p7863
aS'kyles'
p7864
aS'topics'
p7865
asg16
S'when i post on kyles topics'
p7866
sg18
S' there are always milestones'
p7867
sg20
Vscumbag-teacher
p7868
sg22
(lp7869
g7861
ag202
ag7862
ag7863
ag7864
ag7865
aS'there'
p7870
aS'are'
p7871
aS'always'
p7872
aS'milestones'
p7873
asg25
(lp7874
g7870
ag7871
ag7872
ag7873
asba(iMeme
Meme
p7875
(dp7876
g3
(lp7877
S'makes'
p7878
aS'only'
p7879
aS'one'
p7880
aS'exam'
p7881
aS'date'
p7882
asg16
S'makes only one exam date'
p7883
sg18
S' gives results in the last day of term'
p7884
sg20
Vscumbag-teacher
p7885
sg22
(lp7886
g7878
ag7879
ag7880
ag7881
ag7882
aS'gives'
p7887
aS'results'
p7888
aS'in'
p7889
aS'the'
p7890
aS'last'
p7891
aS'day'
p7892
aS'of'
p7893
aS'term'
p7894
asg25
(lp7895
g7887
ag7888
ag7889
ag7890
ag7891
ag7892
ag7893
ag7894
asba(iMeme
Meme
p7896
(dp7897
g3
(lp7898
S'makes'
p7899
aS'beautiful'
p7900
aS'essay'
p7901
aS'to'
p7902
aS'make'
p7903
aS'up'
p7904
aS'for'
p7905
aS'absence'
p7906
asg16
S'makes beautiful essay to make up for absence'
p7907
sg18
S' assigns whole project on top'
p7908
sg20
Vscumbag-teacher
p7909
sg22
(lp7910
g7899
ag7900
ag7901
ag7902
ag7903
ag7904
ag7905
ag7906
aS'assigns'
p7911
aS'whole'
p7912
aS'project'
p7913
aS'on'
p7914
aS'top'
p7915
asg25
(lp7916
g7911
ag7912
ag7913
ag7914
ag7915
asba(iMeme
Meme
p7917
(dp7918
g3
(lp7919
S'tells'
p7920
aS'you'
p7921
aS'never'
p7922
aS'to'
p7923
aS'duplicate'
p7924
aS'anything'
p7925
ag3084
asg16
S'tells you never to duplicate anything;'
p7926
sg18
S' says duplicate 20 times'
p7927
sg20
Vscumbag-teacher
p7928
sg22
(lp7929
g7920
ag7921
ag7922
ag7923
ag7924
ag7925
ag3084
aS'says'
p7930
aS'duplicate'
p7931
aS'20'
p7932
aS'times'
p7933
asg25
(lp7934
g7930
ag7931
ag7932
ag7933
asba(iMeme
Meme
p7935
(dp7936
g3
(lp7937
g4756
aS'have'
p7938
ag5063
aS'days'
p7939
aS'to'
p7940
aS'make'
p7941
ag34
aS'summury'
p7942
asg16
S'u have 2 days to make a summury'
p7943
sg18
S' of us gdp from 1790 to 2010'
p7944
sg20
Vscumbag-teacher
p7945
sg22
(lp7946
g4756
ag7938
ag5063
ag7939
ag7940
ag7941
ag34
ag7942
aS'of'
p7947
aS'us'
p7948
aS'gdp'
p7949
aS'from'
p7950
aS'1790'
p7951
aS'to'
p7952
aS'2010'
p7953
asg25
(lp7954
g7947
ag7948
ag7949
ag7950
ag7951
ag7952
ag7953
asba(iMeme
Meme
p7955
(dp7956
g3
(lp7957
S'meme'
p7958
aS'tuesdays'
p7959
ag145
asg16
S'meme tuesdays?'
p7960
sg18
S' nicknames make me feel special'
p7961
sg20
Vscumbag-teacher
p7962
sg22
(lp7963
g7958
ag7959
ag145
aS'nicknames'
p7964
aS'make'
p7965
aS'me'
p7966
aS'feel'
p7967
aS'special'
p7968
asg25
(lp7969
g7964
ag7965
ag7966
ag7967
ag7968
asba(iMeme
Meme
p7970
(dp7971
g3
(lp7972
S'internets'
p7973
aS'back'
p7974
aS'at'
p7975
aS'the'
p7976
aS'nc'
p7977
ag1075
ag1075
ag1075
asg16
S'internets back at the nc!!!'
p7978
sg18
S' just in time for fin'
p7979
sg20
Vscumbag-teacher
p7980
sg22
(lp7981
g7973
ag7974
ag7975
ag7976
ag7977
ag1075
ag1075
ag1075
aS'just'
p7982
aS'in'
p7983
aS'time'
p7984
aS'for'
p7985
aS'fin'
p7986
asg25
(lp7987
g7982
ag7983
ag7984
ag7985
ag7986
asba(iMeme
Meme
p7988
(dp7989
g3
(lp7990
S'fuck'
p7991
aS'your'
p7992
aS'teacher'
p7993
asg16
S'fuck your teacher'
p7994
sg18
S' its da only way to learn !'
p7995
sg20
Vscumbag-teacher
p7996
sg22
(lp7997
g7991
ag7992
ag7993
aS'its'
p7998
aS'da'
p7999
aS'only'
p8000
aS'way'
p8001
aS'to'
p8002
aS'learn'
p8003
ag1075
asg25
(lp8004
g7998
ag7999
ag8000
ag8001
ag8002
ag8003
ag1075
asba(iMeme
Meme
p8005
(dp8006
g3
(lp8007
S'what'
p8008
aS'if'
p8009
aS'iim'
p8010
ag3284
asg16
S'what if iim 1'
p8011
sg18
S'000 yrs old?'
p8012
sg20
Vscumbag-teacher
p8013
sg22
(lp8014
g8008
ag8009
ag8010
ag3284
aS'000'
p8015
aS'yrs'
p8016
aS'old'
p8017
ag145
asg25
(lp8018
g8015
ag8016
ag8017
ag145
asba(iMeme
Meme
p8019
(dp8020
g3
(lp8021
S'give'
p8022
ag34
aS'question'
p8023
aS'on'
p8024
ag34
aS'subject'
p8025
aS'she'
p8026
aS'never'
p8027
aS'teached'
p8028
asg16
S'give a question on a subject she never teached'
p8029
sg18
S' blamed you for not studying'
p8030
sg20
Vscumbag-teacher
p8031
sg22
(lp8032
g8022
ag34
ag8023
ag8024
ag34
ag8025
ag8026
ag8027
ag8028
aS'blamed'
p8033
aS'you'
p8034
aS'for'
p8035
aS'not'
p8036
aS'studying'
p8037
asg25
(lp8038
g8033
ag8034
ag8035
ag8036
ag8037
asba(iMeme
Meme
p8039
(dp8040
g3
(lp8041
S'jeo'
p8042
asg16
S'jeo'
p8043
sg18
S' problem with the color negro'
p8044
sg20
Vscumbag-teacher
p8045
sg22
(lp8046
g8042
aS'problem'
p8047
aS'with'
p8048
aS'the'
p8049
aS'color'
p8050
aS'negro'
p8051
asg25
(lp8052
g8047
ag8048
ag8049
ag8050
ag8051
asba(iMeme
Meme
p8053
(dp8054
g3
(lp8055
S'hey'
p8056
aS'you..'
p8057
asg16
S'hey you..'
p8058
sg18
S' shat the fackkkk up.'
p8059
sg20
Vscumbag-teacher
p8060
sg22
(lp8061
g8056
ag8057
aS'shat'
p8062
aS'the'
p8063
aS'fackkkk'
p8064
aS'up'
p8065
ag15
asg25
(lp8066
g8062
ag8063
ag8064
ag8065
ag15
asba(iMeme
Meme
p8067
(dp8068
g3
(lp8069
S'if'
p8070
ag202
aS'see'
p8071
aS'your'
p8072
aS'phone'
p8073
ag202
aS'will'
p8074
aS'take'
p8075
aS'it'
p8076
aS'for'
p8077
aS'the'
p8078
aS'rest'
p8079
aS'of'
p8080
aS'the'
p8081
aS'year'
p8082
asg16
S'if i see your phone i will take it for the rest of the year'
p8083
sg18
S' spends half of the class talking on hers'
p8084
sg20
Vscumbag-teacher
p8085
sg22
(lp8086
g8070
ag202
ag8071
ag8072
ag8073
ag202
ag8074
ag8075
ag8076
ag8077
ag8078
ag8079
ag8080
ag8081
ag8082
aS'spends'
p8087
aS'half'
p8088
aS'of'
p8089
aS'the'
p8090
aS'class'
p8091
aS'talking'
p8092
aS'on'
p8093
aS'hers'
p8094
asg25
(lp8095
g8087
ag8088
ag8089
ag8090
ag8091
ag8092
ag8093
ag8094
asba(iMeme
Meme
p8096
(dp8097
g3
(lp8098
S'what'
p8099
aS'are'
p8100
aS'you'
p8101
aS'looking'
p8102
aS'at'
p8103
ag145
asg16
S'what are you looking at?'
p8104
sg18
S' study'
p8105
sg20
Vscumbag-teacher
p8106
sg22
(lp8107
g8099
ag8100
ag8101
ag8102
ag8103
ag145
aS'study'
p8108
asg25
(lp8109
g8108
asba(iMeme
Meme
p8110
(dp8111
g3
(lp8112
S'kyel'
p8113
aS'taylor'
p8114
aS'byron'
p8115
asg16
S'kyel taylor byron'
p8116
sg18
S' is small talk ur like durin class'
p8117
sg20
Vscumbag-teacher
p8118
sg22
(lp8119
g8113
ag8114
ag8115
aS'is'
p8120
aS'small'
p8121
aS'talk'
p8122
aS'ur'
p8123
aS'like'
p8124
aS'durin'
p8125
aS'class'
p8126
asg25
(lp8127
g8120
ag8121
ag8122
ag8123
ag8124
ag8125
ag8126
asba(iMeme
Meme
p8128
(dp8129
g3
(lp8130
S'see'
p8131
aS'this'
p8132
aS'country'
p8133
aS'here'
p8134
aS'on'
p8135
aS'the'
p8136
aS'map'
p8137
ag145
asg16
S'see this country here on the map?'
p8138
sg18
S' write a 50 page paper on it'
p8139
sg20
Vscumbag-teacher
p8140
sg22
(lp8141
g8131
ag8132
ag8133
ag8134
ag8135
ag8136
ag8137
ag145
aS'write'
p8142
ag34
aS'50'
p8143
aS'page'
p8144
aS'paper'
p8145
aS'on'
p8146
aS'it'
p8147
asg25
(lp8148
g8142
ag34
ag8143
ag8144
ag8145
ag8146
ag8147
asba(iMeme
Meme
p8149
(dp8150
g3
(lp8151
S'for'
p8152
aS'some'
p8153
aS'reason'
p8154
aS'theres'
p8155
aS'no'
p8156
aS'running'
p8157
aS'water'
p8158
asg16
S'for some reason theres no running water'
p8159
sg18
S' doesnt cancel school'
p8160
sg20
Vscumbag-teacher
p8161
sg22
(lp8162
g8152
ag8153
ag8154
ag8155
ag8156
ag8157
ag8158
aS'doesnt'
p8163
aS'cancel'
p8164
aS'school'
p8165
asg25
(lp8166
g8163
ag8164
ag8165
asba(iMeme
Meme
p8167
(dp8168
g3
(lp8169
S'acho'
p8170
aS'incrvel'
p8171
ag34
aS'vossa'
p8172
aS'irresponsabilidade'
p8173
ag1075
asg16
S'acho incrvel a vossa irresponsabilidade! '
p8174
sg18
S' no mete avisos no blackboard para inscrio no segundo teste'
p8175
sg20
Vscumbag-teacher
p8176
sg22
(lp8177
g8170
ag8171
ag34
ag8172
ag8173
ag1075
aS'no'
p8178
aS'mete'
p8179
aS'avisos'
p8180
aS'no'
p8181
aS'blackboard'
p8182
aS'para'
p8183
aS'inscrio'
p8184
aS'no'
p8185
aS'segundo'
p8186
aS'teste'
p8187
asg25
(lp8188
g8178
ag8179
ag8180
ag8181
ag8182
ag8183
ag8184
ag8185
ag8186
ag8187
asba(iMeme
Meme
p8189
(dp8190
g3
(lp8191
S'you'
p8192
aS'better'
p8193
aS'be'
p8194
asg16
S'you better be'
p8195
sg18
S' talking about the work'
p8196
sg20
Vscumbag-teacher
p8197
sg22
(lp8198
g8192
ag8193
ag8194
aS'talking'
p8199
aS'about'
p8200
aS'the'
p8201
aS'work'
p8202
asg25
(lp8203
g8199
ag8200
ag8201
ag8202
asba(iMeme
Meme
p8204
(dp8205
g3
(lp8206
S'dissapears'
p8207
aS'half'
p8208
aS'semester'
p8209
asg16
S'dissapears half semester'
p8210
sg18
S' gives you homework'
p8211
sg20
Vscumbag-teacher
p8212
sg22
(lp8213
g8207
ag8208
ag8209
aS'gives'
p8214
aS'you'
p8215
aS'homework'
p8216
asg25
(lp8217
g8214
ag8215
ag8216
asba(iMeme
Meme
p8218
(dp8219
g3
(lp8220
g202
aS'dont'
p8221
aS'know'
p8222
aS'if'
p8223
aS'shes'
p8224
ag34
aS'bad'
p8225
aS'teacher'
p8226
asg16
S'i dont know if shes a bad teacher'
p8227
sg18
S' but im starting to hate the bitch on the picture'
p8228
sg20
Vscumbag-teacher
p8229
sg22
(lp8230
g202
ag8221
ag8222
ag8223
ag8224
ag34
ag8225
ag8226
aS'but'
p8231
aS'im'
p8232
aS'starting'
p8233
aS'to'
p8234
aS'hate'
p8235
aS'the'
p8236
aS'bitch'
p8237
aS'on'
p8238
aS'the'
p8239
aS'picture'
p8240
asg25
(lp8241
g8231
ag8232
ag8233
ag8234
ag8235
ag8236
ag8237
ag8238
ag8239
ag8240
asba(iMeme
Meme
p8242
(dp8243
g3
(lp8244
S'give'
p8245
aS'class'
p8246
aS'skript'
p8247
asg16
S'give class skript'
p8248
sg18
S' gets totaly hated!!!!!'
p8249
sg20
Vscumbag-teacher
p8250
sg22
(lp8251
g8245
ag8246
ag8247
aS'gets'
p8252
aS'totaly'
p8253
aS'hated'
p8254
ag1075
ag1075
ag1075
ag1075
ag1075
asg25
(lp8255
g8252
ag8253
ag8254
ag1075
ag1075
ag1075
ag1075
ag1075
asba(iMeme
Meme
p8256
(dp8257
g3
(lp8258
S'sorry'
p8259
aS'im'
p8260
aS'late'
p8261
ag15
aS'but'
p8262
aS'thats'
p8263
aS'okay'
p8264
ag15
asg16
S'sorry im late. but thats okay.'
p8265
sg18
S' if youre late'
p8266
sg20
Vscumbag-teacher
p8267
sg22
(lp8268
g8259
ag8260
ag8261
ag15
ag8262
ag8263
ag8264
ag15
aS'if'
p8269
aS'youre'
p8270
aS'late'
p8271
asg25
(lp8272
g8269
ag8270
ag8271
asba(iMeme
Meme
p8273
(dp8274
g3
(lp8275
S'you'
p8276
aS'need'
p8277
ag1254
aS'steps'
p8278
aS'in'
p8279
aS'physics'
p8280
ag145
asg16
S'you need 5 steps in physics?'
p8281
sg18
S' i use 1 step'
p8282
sg20
Vscumbag-teacher
p8283
sg22
(lp8284
g8276
ag8277
ag1254
ag8278
ag8279
ag8280
ag145
ag202
aS'use'
p8285
ag3284
aS'step'
p8286
asg25
(lp8287
g202
ag8285
ag3284
ag8286
asba(iMeme
Meme
p8288
(dp8289
g3
(lp8290
S'student'
p8291
aS'proves'
p8292
aS'her'
p8293
aS'wrong'
p8294
asg16
S'student proves her wrong'
p8295
sg18
S' is out to get them for the rest of the year'
p8296
sg20
Vscumbag-teacher
p8297
sg22
(lp8298
g8291
ag8292
ag8293
ag8294
aS'is'
p8299
aS'out'
p8300
aS'to'
p8301
aS'get'
p8302
aS'them'
p8303
aS'for'
p8304
aS'the'
p8305
aS'rest'
p8306
aS'of'
p8307
aS'the'
p8308
aS'year'
p8309
asg25
(lp8310
g8299
ag8300
ag8301
ag8302
ag8303
ag8304
ag8305
ag8306
ag8307
ag8308
ag8309
asba(iMeme
Meme
p8311
(dp8312
g3
(lp8313
S'you'
p8314
aS'can'
p8315
aS'always'
p8316
aS'pass'
p8317
aS'my'
p8318
aS'quizzes'
p8319
asg16
S'you can always pass my quizzes'
p8320
sg18
S' gives two question quiz'
p8321
sg20
Vscumbag-teacher
p8322
sg22
(lp8323
g8314
ag8315
ag8316
ag8317
ag8318
ag8319
aS'gives'
p8324
aS'two'
p8325
aS'question'
p8326
aS'quiz'
p8327
asg25
(lp8328
g8324
ag8325
ag8326
ag8327
asba(iMeme
Meme
p8329
(dp8330
g3
(lp8331
S'it'
p8332
aS'doesnt'
p8333
aS'matter'
p8334
aS'when'
p8335
aS'you'
p8336
aS'get'
p8337
aS'to'
p8338
aS'family'
p8339
asg16
S'it doesnt matter when you get to family'
p8340
sg18
S' just as long as its on time'
p8341
sg20
Vscumbag-teacher
p8342
sg22
(lp8343
g8332
ag8333
ag8334
ag8335
ag8336
ag8337
ag8338
ag8339
aS'just'
p8344
aS'as'
p8345
aS'long'
p8346
aS'as'
p8347
aS'its'
p8348
aS'on'
p8349
aS'time'
p8350
asg25
(lp8351
g8344
ag8345
ag8346
ag8347
ag8348
ag8349
ag8350
asba(iMeme
Meme
p8352
(dp8353
g3
(lp8354
S'referral'
p8355
aS'for'
p8356
aS'tardiness'
p8357
asg16
S'referral for tardiness'
p8358
sg18
S' the bell rang .0024 seconds ago'
p8359
sg20
Vscumbag-teacher
p8360
sg22
(lp8361
g8355
ag8356
ag8357
aS'the'
p8362
aS'bell'
p8363
aS'rang'
p8364
aS'.0024'
p8365
aS'seconds'
p8366
aS'ago'
p8367
asg25
(lp8368
g8362
ag8363
ag8364
ag8365
ag8366
ag8367
asba(iMeme
Meme
p8369
(dp8370
g3
(lp8371
S'lost'
p8372
aS'assignment'
p8373
asg16
S'lost assignment'
p8374
sg18
S' claims you never submitted it'
p8375
sg20
Vscumbag-teacher
p8376
sg22
(lp8377
g8372
ag8373
aS'claims'
p8378
aS'you'
p8379
aS'never'
p8380
aS'submitted'
p8381
aS'it'
p8382
asg25
(lp8383
g8378
ag8379
ag8380
ag8381
ag8382
asba(iMeme
Meme
p8384
(dp8385
g3
(lp8386
S'dont'
p8387
aS'pack'
p8388
aS'up'
p8389
asg16
S'dont pack up'
p8390
sg18
S' class is not over when the bell rings'
p8391
sg20
Vscumbag-teacher
p8392
sg22
(lp8393
g8387
ag8388
ag8389
aS'class'
p8394
aS'is'
p8395
aS'not'
p8396
aS'over'
p8397
aS'when'
p8398
aS'the'
p8399
aS'bell'
p8400
aS'rings'
p8401
asg25
(lp8402
g8394
ag8395
ag8396
ag8397
ag8398
ag8399
ag8400
ag8401
asba(iMeme
Meme
p8403
(dp8404
g3
(lp8405
S'rambles'
p8406
aS'on'
p8407
aS'about'
p8408
aS'nothing'
p8409
asg16
S'rambles on about nothing'
p8410
sg18
S' expects you to learn'
p8411
sg20
Vscumbag-teacher
p8412
sg22
(lp8413
g8406
ag8407
ag8408
ag8409
aS'expects'
p8414
aS'you'
p8415
aS'to'
p8416
aS'learn'
p8417
asg25
(lp8418
g8414
ag8415
ag8416
ag8417
asba(iMeme
Meme
p8419
(dp8420
g3
(lp8421
S'no'
p8422
aS'you'
p8423
aS'cant'
p8424
aS'go'
p8425
aS'to'
p8426
aS'the'
p8427
aS'bathroom'
p8428
asg16
S'no you cant go to the bathroom'
p8429
sg18
S' this is a regents class'
p8430
sg20
Vscumbag-teacher
p8431
sg22
(lp8432
g8422
ag8423
ag8424
ag8425
ag8426
ag8427
ag8428
aS'this'
p8433
aS'is'
p8434
ag34
aS'regents'
p8435
aS'class'
p8436
asg25
(lp8437
g8433
ag8434
ag34
ag8435
ag8436
asba(iMeme
Meme
p8438
(dp8439
g3
(lp8440
S'had'
p8441
ag34
aS'fight'
p8442
aS'with'
p8443
aS'husband'
p8444
asg16
S'had a fight with husband'
p8445
sg18
S' takes it out on cody'
p8446
sg20
Vscumbag-teacher
p8447
sg22
(lp8448
g8441
ag34
ag8442
ag8443
ag8444
aS'takes'
p8449
aS'it'
p8450
aS'out'
p8451
aS'on'
p8452
aS'cody'
p8453
asg25
(lp8454
g8449
ag8450
ag8451
ag8452
ag8453
asba(iMeme
Meme
p8455
(dp8456
g3
(lp8457
S'says'
p8458
aS'homework'
p8459
aS'is'
p8460
aS'due'
p8461
aS'next'
p8462
aS'class'
p8463
asg16
S'says homework is due next class'
p8464
sg18
S' doesnt even look at it'
p8465
sg20
Vscumbag-teacher
p8466
sg22
(lp8467
g8458
ag8459
ag8460
ag8461
ag8462
ag8463
aS'doesnt'
p8468
aS'even'
p8469
aS'look'
p8470
aS'at'
p8471
aS'it'
p8472
asg25
(lp8473
g8468
ag8469
ag8470
ag8471
ag8472
asba(iMeme
Meme
p8474
(dp8475
g3
(lp8476
S'ms.wardak'
p8477
aS'says'
p8478
aS'not'
p8479
aS'to'
p8480
aS'pack'
p8481
aS'up'
p8482
asg16
S'ms.wardak says not to pack up'
p8483
sg18
S' theres 24 seconds left of the period..'
p8484
sg20
Vscumbag-teacher
p8485
sg22
(lp8486
g8477
ag8478
ag8479
ag8480
ag8481
ag8482
aS'theres'
p8487
aS'24'
p8488
aS'seconds'
p8489
aS'left'
p8490
aS'of'
p8491
aS'the'
p8492
aS'period..'
p8493
asg25
(lp8494
g8487
ag8488
ag8489
ag8490
ag8491
ag8492
ag8493
asba(iMeme
Meme
p8495
(dp8496
g3
(lp8497
S'masters'
p8498
aS'degree'
p8499
ag95
aS'come'
p8500
aS'to'
p8501
aS'school'
p8502
aS'only'
p8503
ag1792
aS'days'
p8504
ag34
aS'week'
p8505
asg16
S'masters degree: come to school only 3 days a week'
p8506
sg18
S' assigns reading 8 days a week'
p8507
sg20
Vscumbag-teacher
p8508
sg22
(lp8509
g8498
ag8499
ag95
ag8500
ag8501
ag8502
ag8503
ag1792
ag8504
ag34
ag8505
aS'assigns'
p8510
aS'reading'
p8511
aS'8'
p8512
aS'days'
p8513
ag34
aS'week'
p8514
asg25
(lp8515
g8510
ag8511
ag8512
ag8513
ag34
ag8514
asba(iMeme
Meme
p8516
(dp8517
g3
(lp8518
S'student'
p8519
aS'used'
p8520
aS'all'
p8521
aS'6'
p8522
aS'allowable'
p8523
aS'absences'
p8524
asg16
S'student used all 6 allowable absences'
p8525
sg18
S' youre done mr. llanza'
p8526
sg20
Vscumbag-teacher
p8527
sg22
(lp8528
g8519
ag8520
ag8521
ag8522
ag8523
ag8524
aS'youre'
p8529
aS'done'
p8530
aS'mr'
p8531
ag15
aS'llanza'
p8532
asg25
(lp8533
g8529
ag8530
ag8531
ag15
ag8532
asba(iMeme
Meme
p8534
(dp8535
g3
(lp8536
S'now'
p8537
aS'nowits'
p8538
aS'9am'
p8539
asg16
S'now nowits 9am'
p8540
sg18
S' get to work yall!'
p8541
sg20
Vscumbag-teacher
p8542
sg22
(lp8543
g8537
ag8538
ag8539
aS'get'
p8544
aS'to'
p8545
aS'work'
p8546
aS'yall'
p8547
ag1075
asg25
(lp8548
g8544
ag8545
ag8546
ag8547
ag1075
asba(iMeme
Meme
p8549
(dp8550
g3
(lp8551
S'\\hey'
p8552
aS'teacher'
p8553
asg16
S'\\hey teacher'
p8554
sg18
S' can i copy and paste thi'
p8555
sg20
Vscumbag-teacher
p8556
sg22
(lp8557
g8552
ag8553
aS'can'
p8558
ag202
aS'copy'
p8559
aS'and'
p8560
aS'paste'
p8561
aS'thi'
p8562
asg25
(lp8563
g8558
ag202
ag8559
ag8560
ag8561
ag8562
asba.