(lp0
(iMeme
Meme
p1
(dp2
S'top_text'
p3
(lp4
S'im'
p5
aS'still'
p6
aS'looking'
p7
asS'top_text_raw'
p8
S'im still looking'
p9
sS'bottom_text_raw'
p10
S' for a fuck to give'
p11
sS'meme_type'
p12
Vserial-killer-george
p13
sS'all_text'
p14
(lp15
g5
ag6
ag7
aS'for'
p16
aS'a'
p17
aS'fuck'
p18
aS'to'
p19
aS'give'
p20
asS'bottom_text'
p21
(lp22
g16
ag17
ag18
ag19
ag20
asba(iMeme
Meme
p23
(dp24
g3
(lp25
S'curiosity'
p26
asg8
S'curiosity'
p27
sg10
S' killed the cat and buried it in a shallow grave'
p28
sg12
Vserial-killer-george
p29
sg14
(lp30
g26
aS'killed'
p31
aS'the'
p32
aS'cat'
p33
aS'and'
p34
aS'buried'
p35
aS'it'
p36
aS'in'
p37
ag17
aS'shallow'
p38
aS'grave'
p39
asg21
(lp40
g31
ag32
ag33
ag34
ag35
ag36
ag37
ag17
ag38
ag39
asba(iMeme
Meme
p41
(dp42
g3
(lp43
S'and'
p44
aS'then'
p45
asg8
S'and then'
p46
sg10
S' you hide the body :)'
p47
sg12
Vserial-killer-george
p48
sg14
(lp49
g44
ag45
aS'you'
p50
aS'hide'
p51
aS'the'
p52
aS'body'
p53
aS':'
p54
aS')'
p55
asg21
(lp56
g50
ag51
ag52
ag53
ag54
ag55
asba(iMeme
Meme
p57
(dp58
g3
(lp59
S'i'
p60
aS'think'
p61
ag60
aS'be'
p62
aS'funny'
p63
asg8
S'i think i be funny'
p64
sg10
S' gravedigging be funny'
p65
sg12
Vserial-killer-george
p66
sg14
(lp67
g60
ag61
ag60
ag62
ag63
aS'gravedigging'
p68
aS'be'
p69
aS'funny'
p70
asg21
(lp71
g68
ag69
ag70
asba(iMeme
Meme
p72
(dp73
g3
(lp74
S'they'
p75
aS'will'
p76
aS'never'
p77
asg8
S'they will never'
p78
sg10
S' find your body'
p79
sg12
Vserial-killer-george
p80
sg14
(lp81
g75
ag76
ag77
aS'find'
p82
aS'your'
p83
aS'body'
p84
asg21
(lp85
g82
ag83
ag84
asba(iMeme
Meme
p86
(dp87
g3
(lp88
S'fuck'
p89
aS'me'
p90
asg8
S'fuck me'
p91
sg10
S' in the butt'
p92
sg12
Vserial-killer-george
p93
sg14
(lp94
g89
ag90
aS'in'
p95
aS'the'
p96
aS'butt'
p97
asg21
(lp98
g95
ag96
ag97
asba(iMeme
Meme
p99
(dp100
g3
(lp101
S'all'
p102
ag60
aS'wanted'
p103
aS'was'
p104
asg8
S'all i wanted was'
p105
sg10
S' the yellow hat'
p106
sg12
Vserial-killer-george
p107
sg14
(lp108
g102
ag60
ag103
ag104
aS'the'
p109
aS'yellow'
p110
aS'hat'
p111
asg21
(lp112
g109
ag110
ag111
asba(iMeme
Meme
p113
(dp114
g3
(lp115
S'tide'
p116
asg8
S'tide'
p117
sg10
S' i know kujo burried aped somewhere around here..'
p118
sg12
Vserial-killer-george
p119
sg14
(lp120
g116
ag60
aS'know'
p121
aS'kujo'
p122
aS'burried'
p123
aS'aped'
p124
aS'somewhere'
p125
aS'around'
p126
aS'here..'
p127
asg21
(lp128
g60
ag121
ag122
ag123
ag124
ag125
ag126
ag127
asba(iMeme
Meme
p129
(dp130
g3
(lp131
S'they'
p132
aS'said'
p133
ag60
aS'can'
p134
aS'be'
p135
aS'anything'
p136
asg8
S'they said i can be anything'
p137
sg10
S' so i became a grave digger'
p138
sg12
Vserial-killer-george
p139
sg14
(lp140
g132
ag133
ag60
ag134
ag135
ag136
aS'so'
p141
ag60
aS'became'
p142
ag17
aS'grave'
p143
aS'digger'
p144
asg21
(lp145
g141
ag60
ag142
ag17
ag143
ag144
asba(iMeme
Meme
p146
(dp147
g3
(lp148
S'it'
p149
aS'rubs'
p150
aS'the'
p151
aS'lotion'
p152
aS'on'
p153
aS'its'
p154
aS'skin'
p155
asg8
S'it rubs the lotion on its skin'
p156
sg10
S' or it gets the hose again'
p157
sg12
Vserial-killer-george
p158
sg14
(lp159
g149
ag150
ag151
ag152
ag153
ag154
ag155
aS'or'
p160
aS'it'
p161
aS'gets'
p162
aS'the'
p163
aS'hose'
p164
aS'again'
p165
asg21
(lp166
g160
ag161
ag162
ag163
ag164
ag165
asba(iMeme
Meme
p167
(dp168
g3
(lp169
S'curious'
p170
aS'george'
p171
ag54
aS'on'
p172
ag17
aS'search'
p173
asg8
S'curious george: on a search'
p174
sg10
S' for egg heads!'
p175
sg12
Vserial-killer-george
p176
sg14
(lp177
g170
ag171
ag54
ag172
ag17
ag173
aS'for'
p178
aS'egg'
p179
aS'heads'
p180
aS'!'
p181
asg21
(lp182
g178
ag179
ag180
ag181
asba(iMeme
Meme
p183
(dp184
g3
(lp185
S'digging'
p186
ag17
aS'hole'
p187
aS'.'
p188
asg8
S'digging a hole.'
p189
sg10
S' for your mom!!'
p190
sg12
Vserial-killer-george
p191
sg14
(lp192
g186
ag17
ag187
ag188
aS'for'
p193
aS'your'
p194
aS'mom'
p195
ag181
ag181
asg21
(lp196
g193
ag194
ag195
ag181
ag181
asba(iMeme
Meme
p197
(dp198
g3
(lp199
S'where'
p200
aS'the'
p201
aS'fucks'
p202
asg8
S'where the fucks'
p203
sg10
S' my banana'
p204
sg12
Vserial-killer-george
p205
sg14
(lp206
g200
ag201
ag202
aS'my'
p207
aS'banana'
p208
asg21
(lp209
g207
ag208
asba(iMeme
Meme
p210
(dp211
g3
(lp212
S'rise'
p213
aS'of'
p214
aS'planet'
p215
aS'of'
p216
aS'the'
p217
aS'apes'
p218
asg8
S'rise of planet of the apes'
p219
sg10
S' changed my life'
p220
sg12
Vserial-killer-george
p221
sg14
(lp222
g213
ag214
ag215
ag216
ag217
ag218
aS'changed'
p223
aS'my'
p224
aS'life'
p225
asg21
(lp226
g223
ag224
ag225
asba(iMeme
Meme
p227
(dp228
g3
(lp229
S'the'
p230
aS'cops'
p231
aS'are'
p232
aS'coming'
p233
ag181
aS'..'
p234
asg8
S'the cops are coming!..'
p235
sg10
S' .. must hide dead hooker.'
p236
sg12
Vserial-killer-george
p237
sg14
(lp238
g230
ag231
ag232
ag233
ag181
ag234
aS'..'
p239
aS'must'
p240
aS'hide'
p241
aS'dead'
p242
aS'hooker'
p243
ag188
asg21
(lp244
g239
ag240
ag241
ag242
ag243
ag188
asba(iMeme
Meme
p245
(dp246
g3
(lp247
S'ill'
p248
aS'hide'
p249
aS'the'
p250
aS'bananas'
p251
asg8
S'ill hide the bananas'
p252
sg10
S' in madeiras hole!'
p253
sg12
Vserial-killer-george
p254
sg14
(lp255
g248
ag249
ag250
ag251
aS'in'
p256
aS'madeiras'
p257
aS'hole'
p258
ag181
asg21
(lp259
g256
ag257
ag258
ag181
asba(iMeme
Meme
p260
(dp261
g3
(lp262
S'curiosity'
p263
aS'killed'
p264
aS'the'
p265
aS'cat'
p266
asg8
S'curiosity killed the cat'
p267
sg10
S' no'
p268
sg12
Vserial-killer-george
p269
sg14
(lp270
g263
ag264
ag265
ag266
aS'no'
p271
asg21
(lp272
g271
asba(iMeme
Meme
p273
(dp274
g3
(lp275
S'the'
p276
aS'man'
p277
aS'in'
p278
aS'the'
p279
aS'yellow'
p280
aS'hat'
p281
asg8
S'the man in the yellow hat'
p282
sg10
S' forgot the bananas this week'
p283
sg12
Vserial-killer-george
p284
sg14
(lp285
g276
ag277
ag278
ag279
ag280
ag281
aS'forgot'
p286
aS'the'
p287
aS'bananas'
p288
aS'this'
p289
aS'week'
p290
asg21
(lp291
g286
ag287
ag288
ag289
ag290
asba(iMeme
Meme
p292
(dp293
g3
(lp294
S'ive'
p295
aS'been'
p296
aS'digging'
p297
aS'all'
p298
aS'day'
p299
asg8
S'ive been digging all day'
p300
sg10
S' and i still havent found a fuck to give'
p301
sg12
Vserial-killer-george
p302
sg14
(lp303
g295
ag296
ag297
ag298
ag299
aS'and'
p304
ag60
aS'still'
p305
aS'havent'
p306
aS'found'
p307
ag17
aS'fuck'
p308
aS'to'
p309
aS'give'
p310
asg21
(lp311
g304
ag60
ag305
ag306
ag307
ag17
ag308
ag309
ag310
asba(iMeme
Meme
p312
(dp313
g3
(lp314
S'starting'
p315
ag17
aS'poke'
p316
aS'war'
p317
aS'?'
p318
asg8
S'starting a poke war?'
p319
sg10
S' ill fucking bury you'
p320
sg12
Vserial-killer-george
p321
sg14
(lp322
g315
ag17
ag316
ag317
ag318
aS'ill'
p323
aS'fucking'
p324
aS'bury'
p325
aS'you'
p326
asg21
(lp327
g323
ag324
ag325
ag326
asba(iMeme
Meme
p328
(dp329
g3
(lp330
S'chimchim'
p331
aS'jacked'
p332
aS'me'
p333
asg8
S'chimchim jacked me'
p334
sg10
S' off with his feet!'
p335
sg12
Vserial-killer-george
p336
sg14
(lp337
g331
ag332
ag333
aS'off'
p338
aS'with'
p339
aS'his'
p340
aS'feet'
p341
ag181
asg21
(lp342
g338
ag339
ag340
ag341
ag181
asba(iMeme
Meme
p343
(dp344
g3
(lp345
S'tryna'
p346
aS'get'
p347
aS'clever'
p348
aS'with'
p349
aS'george'
p350
asg8
S'tryna get clever with george'
p351
sg10
S' huh man in the yellow retarded hat'
p352
sg12
Vserial-killer-george
p353
sg14
(lp354
g346
ag347
ag348
ag349
ag350
aS'huh'
p355
aS'man'
p356
aS'in'
p357
aS'the'
p358
aS'yellow'
p359
aS'retarded'
p360
aS'hat'
p361
asg21
(lp362
g355
ag356
ag357
ag358
ag359
ag360
ag361
asba(iMeme
Meme
p363
(dp364
g3
(lp365
S'george'
p366
aS'loves'
p367
aS'digging'
p368
aS'holes'
p369
asg8
S'george loves digging holes'
p370
sg10
S''
p371
sg12
Vserial-killer-george
p372
sg14
(lp373
g366
ag367
ag368
ag369
asg21
(lp374
sba(iMeme
Meme
p375
(dp376
g3
(lp377
S'what'
p378
ag318
asg8
S'what?'
p379
sg10
S' bitch didnt give back my bananas'
p380
sg12
Vserial-killer-george
p381
sg14
(lp382
g378
ag318
aS'bitch'
p383
aS'didnt'
p384
aS'give'
p385
aS'back'
p386
aS'my'
p387
aS'bananas'
p388
asg21
(lp389
g383
ag384
ag385
ag386
ag387
ag388
asba(iMeme
Meme
p390
(dp391
g3
(lp392
g60
aS'just'
p393
aS'wan'
p394
aS'na'
p395
aS'know'
p396
asg8
S'i just wanna know'
p397
sg10
S' where the gold at?'
p398
sg12
Vserial-killer-george
p399
sg14
(lp400
g60
ag393
ag394
ag395
ag396
aS'where'
p401
aS'the'
p402
aS'gold'
p403
aS'at'
p404
ag318
asg21
(lp405
g401
ag402
ag403
ag404
ag318
asba(iMeme
Meme
p406
(dp407
g3
(lp408
S'oh'
p409
aS'wait'
p410
asg8
S'oh wait'
p411
sg10
S' theres already a dead body here'
p412
sg12
Vserial-killer-george
p413
sg14
(lp414
g409
ag410
aS'theres'
p415
aS'already'
p416
ag17
aS'dead'
p417
aS'body'
p418
aS'here'
p419
asg21
(lp420
g415
ag416
ag17
ag417
ag418
ag419
asba(iMeme
Meme
p421
(dp422
g3
(lp423
S'1943'
p424
asg8
S'1943'
p425
sg10
S' podzi sucht papa & mama'
p426
sg12
Vserial-killer-george
p427
sg14
(lp428
g424
aS'podzi'
p429
aS'sucht'
p430
aS'papa'
p431
aS'&'
p432
aS'mama'
p433
asg21
(lp434
g429
ag430
ag431
ag432
ag433
asba(iMeme
Meme
p435
(dp436
g3
(lp437
S'que'
p438
aS'no'
p439
aS'comas'
p440
aS'carne'
p441
asg8
S'que no comas carne'
p442
sg10
S' me deca'
p443
sg12
Vserial-killer-george
p444
sg14
(lp445
g438
ag439
ag440
ag441
aS'me'
p446
aS'deca'
p447
asg21
(lp448
g446
ag447
asba(iMeme
Meme
p449
(dp450
g3
(lp451
S'thats'
p452
aS'what'
p453
aS'you'
p454
aS'get'
p455
asg8
S'thats what you get'
p456
sg10
S' for taking my sombreo'
p457
sg12
Vserial-killer-george
p458
sg14
(lp459
g452
ag453
ag454
ag455
aS'for'
p460
aS'taking'
p461
aS'my'
p462
aS'sombreo'
p463
asg21
(lp464
g460
ag461
ag462
ag463
asba(iMeme
Meme
p465
(dp466
g3
(lp467
S'man'
p468
aS'in'
p469
aS'the'
p470
aS'yellow'
p471
aS'hat'
p472
ag318
asg8
S'man in the yellow hat?'
p473
sg10
S' whos that?'
p474
sg12
Vserial-killer-george
p475
sg14
(lp476
g468
ag469
ag470
ag471
ag472
ag318
aS'whos'
p477
aS'that'
p478
ag318
asg21
(lp479
g477
ag478
ag318
asba(iMeme
Meme
p480
(dp481
g3
(lp482
S'thats'
p483
aS'good'
p484
aS'enough'
p485
asg8
S'thats good enough'
p486
sg10
S' right next to garfield'
p487
sg12
Vserial-killer-george
p488
sg14
(lp489
g483
ag484
ag485
aS'right'
p490
aS'next'
p491
aS'to'
p492
aS'garfield'
p493
asg21
(lp494
g490
ag491
ag492
ag493
asba(iMeme
Meme
p495
(dp496
g3
(lp497
g60
aS'told'
p498
aS'your'
p499
aS'krab'
p500
aS'ass..i'
p501
aS'told'
p502
aS'ya'
p503
asg8
S'i told your krab ass..i told ya'
p504
sg10
S' blood gang bitch'
p505
sg12
Vserial-killer-george
p506
sg14
(lp507
g60
ag498
ag499
ag500
ag501
ag502
ag503
aS'blood'
p508
aS'gang'
p509
aS'bitch'
p510
asg21
(lp511
g508
ag509
ag510
asba(iMeme
Meme
p512
(dp513
g3
(lp514
S'dug'
p515
aS'this'
p516
aS'hole'
p517
asg8
S'dug this hole'
p518
sg10
S' bury you here'
p519
sg12
Vserial-killer-george
p520
sg14
(lp521
g515
ag516
ag517
aS'bury'
p522
aS'you'
p523
aS'here'
p524
asg21
(lp525
g522
ag523
ag524
asba(iMeme
Meme
p526
(dp527
g3
(lp528
g60
aS'am'
p529
ag17
aS'naked'
p530
aS'monkey'
p531
aS'in'
p532
aS'town'
p533
asg8
S'i am a naked monkey in town'
p534
sg10
S' and im digging a hole. . .'
p535
sg12
Vserial-killer-george
p536
sg14
(lp537
g60
ag529
ag17
ag530
ag531
ag532
ag533
aS'and'
p538
aS'im'
p539
aS'digging'
p540
ag17
aS'hole'
p541
ag188
ag188
ag188
asg21
(lp542
g538
ag539
ag540
ag17
ag541
ag188
ag188
ag188
asba(iMeme
Meme
p543
(dp544
g3
(lp545
S'digging'
p546
ag17
aS'whole'
p547
asg8
S'digging a whole'
p548
sg10
S' hold on mom ill fuck you in a minute'
p549
sg12
Vserial-killer-george
p550
sg14
(lp551
g546
ag17
ag547
aS'hold'
p552
aS'on'
p553
aS'mom'
p554
aS'ill'
p555
aS'fuck'
p556
aS'you'
p557
aS'in'
p558
ag17
aS'minute'
p559
asg21
(lp560
g552
ag553
ag554
ag555
ag556
ag557
ag558
ag17
ag559
asba(iMeme
Meme
p561
(dp562
g3
(lp563
S'your'
p564
aS'dead'
p565
ag188
asg8
S'your dead.'
p566
sg10
S' now im going home.'
p567
sg12
Vserial-killer-george
p568
sg14
(lp569
g564
ag565
ag188
aS'now'
p570
aS'im'
p571
aS'going'
p572
aS'home'
p573
ag188
asg21
(lp574
g570
ag571
ag572
ag573
ag188
asba(iMeme
Meme
p575
(dp576
g3
(lp577
S'no'
p578
aS'one'
p579
aS'will'
p580
aS'ever'
p581
aS'find'
p582
aS'the'
p583
aS'secret'
p584
aS'entrance'
p585
aS'to'
p586
asg8
S'no one will ever find the secret entrance to'
p587
sg10
S' monkey world'
p588
sg12
Vserial-killer-george
p589
sg14
(lp590
g578
ag579
ag580
ag581
ag582
ag583
ag584
ag585
ag586
aS'monkey'
p591
aS'world'
p592
asg21
(lp593
g591
ag592
asba(iMeme
Meme
p594
(dp595
g3
(lp596
S'rebecca'
p597
aS'black'
p598
asg8
S'rebecca black'
p599
sg10
S' long time no hear'
p600
sg12
Vserial-killer-george
p601
sg14
(lp602
g597
ag598
aS'long'
p603
aS'time'
p604
aS'no'
p605
aS'hear'
p606
asg21
(lp607
g603
ag604
ag605
ag606
asba(iMeme
Meme
p608
(dp609
g3
(lp610
g54
ag55
asg8
S':)'
p611
sg10
S' northside looks better underground'
p612
sg12
Vserial-killer-george
p613
sg14
(lp614
g54
ag55
aS'northside'
p615
aS'looks'
p616
aS'better'
p617
aS'underground'
p618
asg21
(lp619
g615
ag616
ag617
ag618
asba(iMeme
Meme
p620
(dp621
g3
(lp622
S'shit'
p623
ag60
aS'know'
p624
aS'that'
p625
asg8
S'shit i know that'
p626
sg10
S' i put the weed here'
p627
sg12
Vserial-killer-george
p628
sg14
(lp629
g623
ag60
ag624
ag625
ag60
aS'put'
p630
aS'the'
p631
aS'weed'
p632
aS'here'
p633
asg21
(lp634
g60
ag630
ag631
ag632
ag633
asba(iMeme
Meme
p635
(dp636
g3
(lp637
S'make'
p638
aS'red'
p639
aS'hat'
p640
asg8
S'make red hat'
p641
sg10
S' hide remains'
p642
sg12
Vserial-killer-george
p643
sg14
(lp644
g638
ag639
ag640
aS'hide'
p645
aS'remains'
p646
asg21
(lp647
g645
ag646
asba(iMeme
Meme
p648
(dp649
g3
(lp650
S'boxer'
p651
asg8
S'boxer'
p652
sg10
S' was the admiration of everybody.'
p653
sg12
Vserial-killer-george
p654
sg14
(lp655
g651
aS'was'
p656
aS'the'
p657
aS'admiration'
p658
aS'of'
p659
aS'everybody'
p660
ag188
asg21
(lp661
g656
ag657
ag658
ag659
ag660
ag188
asba(iMeme
Meme
p662
(dp663
g3
(lp664
S'finally'
p665
ag181
ag181
ag181
ag181
ag181
asg8
S'finally!!!!!'
p666
sg10
S' thats the last time a hewson trolled me!!!!'
p667
sg12
Vserial-killer-george
p668
sg14
(lp669
g665
ag181
ag181
ag181
ag181
ag181
aS'thats'
p670
aS'the'
p671
aS'last'
p672
aS'time'
p673
ag17
aS'hewson'
p674
aS'trolled'
p675
aS'me'
p676
ag181
ag181
ag181
ag181
asg21
(lp677
g670
ag671
ag672
ag673
ag17
ag674
ag675
ag676
ag181
ag181
ag181
ag181
asba(iMeme
Meme
p678
(dp679
g3
(lp680
S'george'
p681
aS'was'
p682
aS'curious'
p683
asg8
S'george was curious'
p684
sg10
S' how long will it take for that bitch to decompose'
p685
sg12
Vserial-killer-george
p686
sg14
(lp687
g681
ag682
ag683
aS'how'
p688
aS'long'
p689
aS'will'
p690
aS'it'
p691
aS'take'
p692
aS'for'
p693
aS'that'
p694
aS'bitch'
p695
aS'to'
p696
aS'decompose'
p697
asg21
(lp698
g688
ag689
ag690
ag691
ag692
ag693
ag694
ag695
ag696
ag697
asba(iMeme
Meme
p699
(dp700
g3
(lp701
S'this'
p702
aS'looks'
p703
aS'like'
p704
ag17
aS'good'
p705
aS'spot'
p706
ag188
asg8
S'this looks like a good spot.'
p707
sg10
S' to bury the man in the yellow hat'
p708
sg12
Vserial-killer-george
p709
sg14
(lp710
g702
ag703
ag704
ag17
ag705
ag706
ag188
aS'to'
p711
aS'bury'
p712
aS'the'
p713
aS'man'
p714
aS'in'
p715
aS'the'
p716
aS'yellow'
p717
aS'hat'
p718
asg21
(lp719
g711
ag712
ag713
ag714
ag715
ag716
ag717
ag718
asba(iMeme
Meme
p720
(dp721
g3
(lp722
S'burying'
p723
aS'all'
p724
aS'the'
p725
asg8
S'burying all the'
p726
sg10
S' niggas that say i have a small dick'
p727
sg12
Vserial-killer-george
p728
sg14
(lp729
g723
ag724
ag725
aS'niggas'
p730
aS'that'
p731
aS'say'
p732
ag60
aS'have'
p733
ag17
aS'small'
p734
aS'dick'
p735
asg21
(lp736
g730
ag731
ag732
ag60
ag733
ag17
ag734
ag735
asba(iMeme
Meme
p737
(dp738
g3
(lp739
S'it'
p740
aS'rebases'
p741
aS'the'
p742
aS'change'
p743
aS'again'
p744
asg8
S'it rebases the change again'
p745
sg10
S' or it gets the merge denied'
p746
sg12
Vserial-killer-george
p747
sg14
(lp748
g740
ag741
ag742
ag743
ag744
aS'or'
p749
aS'it'
p750
aS'gets'
p751
aS'the'
p752
aS'merge'
p753
aS'denied'
p754
asg21
(lp755
g749
ag750
ag751
ag752
ag753
ag754
asba(iMeme
Meme
p756
(dp757
g3
(lp758
S'people'
p759
aS'called'
p760
aS'me'
p761
aS'crazy'
p762
asg8
S'people called me crazy'
p763
sg10
S' thats why im digging'
p764
sg12
Vserial-killer-george
p765
sg14
(lp766
g759
ag760
ag761
ag762
aS'thats'
p767
aS'why'
p768
aS'im'
p769
aS'digging'
p770
asg21
(lp771
g767
ag768
ag769
ag770
asba(iMeme
Meme
p772
(dp773
g3
(lp774
S'pfandpiraten'
p775
asg8
S'pfandpiraten'
p776
sg10
S' you never know how they look like !'
p777
sg12
Vserial-killer-george
p778
sg14
(lp779
g775
aS'you'
p780
aS'never'
p781
aS'know'
p782
aS'how'
p783
aS'they'
p784
aS'look'
p785
aS'like'
p786
ag181
asg21
(lp787
g780
ag781
ag782
ag783
ag784
ag785
ag786
ag181
asba(iMeme
Meme
p788
(dp789
g3
(lp790
S'en'
p791
aS'mis'
p792
aS'tiempos'
p793
asg8
S'en mis tiempos'
p794
sg10
S' de necrofilico'
p795
sg12
Vserial-killer-george
p796
sg14
(lp797
g791
ag792
ag793
aS'de'
p798
aS'necrofilico'
p799
asg21
(lp800
g798
ag799
asba(iMeme
Meme
p801
(dp802
g3
(lp803
S'que'
p804
aS'no'
p805
aS'comas'
p806
aS'carne'
p807
asg8
S'que no comas carne'
p808
sg10
S' me decia'
p809
sg12
Vserial-killer-george
p810
sg14
(lp811
g804
ag805
ag806
ag807
aS'me'
p812
aS'decia'
p813
asg21
(lp814
g812
ag813
asba(iMeme
Meme
p815
(dp816
g3
(lp817
S'bai'
p818
aS'momma'
p819
asg8
S'bai momma'
p820
sg10
S' bai papa'
p821
sg12
Vserial-killer-george
p822
sg14
(lp823
g818
ag819
aS'bai'
p824
aS'papa'
p825
asg21
(lp826
g824
ag825
asba(iMeme
Meme
p827
(dp828
g3
(lp829
S'theyll'
p830
aS'never'
p831
aS'find'
p832
aS'your'
p833
aS'body'
p834
ag188
asg8
S'theyll never find your body.'
p835
sg10
S' ever.'
p836
sg12
Vserial-killer-george
p837
sg14
(lp838
g830
ag831
ag832
ag833
ag834
ag188
aS'ever'
p839
ag188
asg21
(lp840
g839
ag188
asba(iMeme
Meme
p841
(dp842
g3
(lp843
S'todavia'
p844
aS'estoy'
p845
aS'buscando'
p846
asg8
S'todavia estoy buscando'
p847
sg10
S' el intento de hombre que eres'
p848
sg12
Vserial-killer-george
p849
sg14
(lp850
g844
ag845
ag846
aS'el'
p851
aS'intento'
p852
aS'de'
p853
aS'hombre'
p854
aS'que'
p855
aS'eres'
p856
asg21
(lp857
g851
ag852
ag853
ag854
ag855
ag856
asba(iMeme
Meme
p858
(dp859
g3
(lp860
S'killing'
p861
aS'random'
p862
aS'passers'
p863
aS'by'
p864
asg8
S'killing random passers by'
p865
sg10
S' diggy diggy hole.'
p866
sg12
Vserial-killer-george
p867
sg14
(lp868
g861
ag862
ag863
ag864
aS'diggy'
p869
aS'diggy'
p870
aS'hole'
p871
ag188
asg21
(lp872
g869
ag870
ag871
ag188
asba(iMeme
Meme
p873
(dp874
g3
(lp875
S'still'
p876
aS'looking'
p877
asg8
S'still looking'
p878
sg10
S' for a fuck to give'
p879
sg12
Vserial-killer-george
p880
sg14
(lp881
g876
ag877
aS'for'
p882
ag17
aS'fuck'
p883
aS'to'
p884
aS'give'
p885
asg21
(lp886
g882
ag17
ag883
ag884
ag885
asba(iMeme
Meme
p887
(dp888
g3
(lp889
g60
aS'guess'
p890
aS'you'
p891
aS'can'
p892
aS'kill'
p893
ag17
aS'man'
p894
aS'with'
p895
ag17
aS'pencil'
p896
asg8
S'i guess you can kill a man with a pencil'
p897
sg10
S' now you know.'
p898
sg12
Vserial-killer-george
p899
sg14
(lp900
g60
ag890
ag891
ag892
ag893
ag17
ag894
ag895
ag17
ag896
aS'now'
p901
aS'you'
p902
aS'know'
p903
ag188
asg21
(lp904
g901
ag902
ag903
ag188
asba(iMeme
Meme
p905
(dp906
g3
(lp907
S'oh'
p908
aS'hey'
p909
aS'steve'
p910
ag54
aS'd'
p911
asg8
S'oh hey steve :d'
p912
sg10
S' what was that ? oh nothing just diggin this to put you in'
p913
sg12
Vserial-killer-george
p914
sg14
(lp915
g908
ag909
ag910
ag54
ag911
aS'what'
p916
aS'was'
p917
aS'that'
p918
ag318
aS'oh'
p919
aS'nothing'
p920
aS'just'
p921
aS'diggin'
p922
aS'this'
p923
aS'to'
p924
aS'put'
p925
aS'you'
p926
aS'in'
p927
asg21
(lp928
g916
ag917
ag918
ag318
ag919
ag920
ag921
ag922
ag923
ag924
ag925
ag926
ag927
asba(iMeme
Meme
p929
(dp930
g3
(lp931
S'look'
p932
aS'what'
p933
aS'goerge'
p934
aS'found'
p935
asg8
S'look what goerge found'
p936
sg10
S' its the 1%'
p937
sg12
Vserial-killer-george
p938
sg14
(lp939
g932
ag933
ag934
ag935
aS'its'
p940
aS'the'
p941
aS'1'
p942
aS'%'
p943
asg21
(lp944
g940
ag941
ag942
ag943
asba(iMeme
Meme
p945
(dp946
g3
(lp947
S'crap'
p948
asg8
S'crap'
p949
sg10
S' this is body t46r2'
p950
sg12
Vserial-killer-george
p951
sg14
(lp952
g948
aS'this'
p953
aS'is'
p954
aS'body'
p955
aS't46r2'
p956
asg21
(lp957
g953
ag954
ag955
ag956
asba(iMeme
Meme
p958
(dp959
g3
(lp960
S'si'
p961
aS'no'
p962
aS'hay'
p963
aS'profesores'
p964
asg8
S'si no hay profesores'
p965
sg10
S' no hay mas examenes!'
p966
sg12
Vserial-killer-george
p967
sg14
(lp968
g961
ag962
ag963
ag964
aS'no'
p969
aS'hay'
p970
aS'mas'
p971
aS'examenes'
p972
ag181
asg21
(lp973
g969
ag970
ag971
ag972
ag181
asba(iMeme
Meme
p974
(dp975
g3
(lp976
S'wait'
p977
aS'im'
p978
aS'burying'
p979
aS'him'
p980
ag181
ag318
ag181
asg8
S'wait im burying him!?!'
p981
sg10
S' i thought he was at the bottom of the ocean!'
p982
sg12
Vserial-killer-george
p983
sg14
(lp984
g977
ag978
ag979
ag980
ag181
ag318
ag181
ag60
aS'thought'
p985
aS'he'
p986
aS'was'
p987
aS'at'
p988
aS'the'
p989
aS'bottom'
p990
aS'of'
p991
aS'the'
p992
aS'ocean'
p993
ag181
asg21
(lp994
g60
ag985
ag986
ag987
ag988
ag989
ag990
ag991
ag992
ag993
ag181
asba(iMeme
Meme
p995
(dp996
g3
(lp997
S'mike'
p998
aS'mike'
p999
aS'see'
p1000
asg8
S'mike mike see'
p1001
sg10
S' mike mike do'
p1002
sg12
Vserial-killer-george
p1003
sg14
(lp1004
g998
ag999
ag1000
aS'mike'
p1005
aS'mike'
p1006
aS'do'
p1007
asg21
(lp1008
g1005
ag1006
ag1007
asba(iMeme
Meme
p1009
(dp1010
g3
(lp1011
S'wanted'
p1012
aS'to'
p1013
aS'play'
p1014
ag17
aS'game'
p1015
asg8
S'wanted to play a game'
p1016
sg10
S' hide and seek'
p1017
sg12
Vserial-killer-george
p1018
sg14
(lp1019
g1012
ag1013
ag1014
ag17
ag1015
aS'hide'
p1020
aS'and'
p1021
aS'seek'
p1022
asg21
(lp1023
g1020
ag1021
ag1022
asba(iMeme
Meme
p1024
(dp1025
g3
(lp1026
S'this'
p1027
aS'is'
p1028
aS'where'
p1029
asg8
S'this is where'
p1030
sg10
S' the trolls will bury every other creature'
p1031
sg12
Vserial-killer-george
p1032
sg14
(lp1033
g1027
ag1028
ag1029
aS'the'
p1034
aS'trolls'
p1035
aS'will'
p1036
aS'bury'
p1037
aS'every'
p1038
aS'other'
p1039
aS'creature'
p1040
asg21
(lp1041
g1034
ag1035
ag1036
ag1037
ag1038
ag1039
ag1040
asba(iMeme
Meme
p1042
(dp1043
g3
(lp1044
S'finally'
p1045
ag181
ag181
ag181
ag181
ag181
asg8
S'finally!!!!!'
p1046
sg10
S' thats the last hewson down!!!'
p1047
sg12
Vserial-killer-george
p1048
sg14
(lp1049
g1045
ag181
ag181
ag181
ag181
ag181
aS'thats'
p1050
aS'the'
p1051
aS'last'
p1052
aS'hewson'
p1053
aS'down'
p1054
ag181
ag181
ag181
asg21
(lp1055
g1050
ag1051
ag1052
ag1053
ag1054
ag181
ag181
ag181
asba(iMeme
Meme
p1056
(dp1057
g3
(lp1058
S'im'
p1059
aS'still'
p1060
aS'looking'
p1061
asg8
S'im still looking'
p1062
sg10
S' for all the necks fat fucks speaks about'
p1063
sg12
Vserial-killer-george
p1064
sg14
(lp1065
g1059
ag1060
ag1061
aS'for'
p1066
aS'all'
p1067
aS'the'
p1068
aS'necks'
p1069
aS'fat'
p1070
aS'fucks'
p1071
aS'speaks'
p1072
aS'about'
p1073
asg21
(lp1074
g1066
ag1067
ag1068
ag1069
ag1070
ag1071
ag1072
ag1073
asba(iMeme
Meme
p1075
(dp1076
g3
(lp1077
S'now'
p1078
ag60
aS'got'
p1079
aS'ta'
p1080
aS'dig'
p1081
aS'this'
p1082
aS'whole'
p1083
aS'cause'
p1084
asg8
S'now i gotta dig this whole cause'
p1085
sg10
S' the man in the yellow suit be tellin'
p1086
sg12
Vserial-killer-george
p1087
sg14
(lp1088
g1078
ag60
ag1079
ag1080
ag1081
ag1082
ag1083
ag1084
aS'the'
p1089
aS'man'
p1090
aS'in'
p1091
aS'the'
p1092
aS'yellow'
p1093
aS'suit'
p1094
aS'be'
p1095
aS'tellin'
p1096
asg21
(lp1097
g1089
ag1090
ag1091
ag1092
ag1093
ag1094
ag1095
ag1096
asba(iMeme
Meme
p1098
(dp1099
g3
(lp1100
S'fuck'
p1101
aS'you'
p1102
ag181
asg8
S'fuck you!'
p1103
sg10
S' and your yellow hat bitch!'
p1104
sg12
Vserial-killer-george
p1105
sg14
(lp1106
g1101
ag1102
ag181
aS'and'
p1107
aS'your'
p1108
aS'yellow'
p1109
aS'hat'
p1110
aS'bitch'
p1111
ag181
asg21
(lp1112
g1107
ag1108
ag1109
ag1110
ag1111
ag181
asba(iMeme
Meme
p1113
(dp1114
g3
(lp1115
S'oh'
p1116
asg8
S'oh'
p1117
sg10
S' u want 2 see what i buried'
p1118
sg12
Vserial-killer-george
p1119
sg14
(lp1120
g1116
aS'u'
p1121
aS'want'
p1122
aS'2'
p1123
aS'see'
p1124
aS'what'
p1125
ag60
aS'buried'
p1126
asg21
(lp1127
g1121
ag1122
ag1123
ag1124
ag1125
ag60
ag1126
asba(iMeme
Meme
p1128
(dp1129
g3
(lp1130
S'my'
p1131
aS'dealer'
p1132
aS'forgot'
p1133
aS'my'
p1134
aS'weed'
p1135
asg8
S'my dealer forgot my weed'
p1136
sg10
S' had to kill him!'
p1137
sg12
Vserial-killer-george
p1138
sg14
(lp1139
g1131
ag1132
ag1133
ag1134
ag1135
aS'had'
p1140
aS'to'
p1141
aS'kill'
p1142
aS'him'
p1143
ag181
asg21
(lp1144
g1140
ag1141
ag1142
ag1143
ag181
asba(iMeme
Meme
p1145
(dp1146
g3
(lp1147
S'remember:'
p1148
asg8
S'remember:'
p1149
sg10
S' this is the future.'
p1150
sg12
Vserial-killer-george
p1151
sg14
(lp1152
g1148
aS'this'
p1153
aS'is'
p1154
aS'the'
p1155
aS'future'
p1156
ag188
asg21
(lp1157
g1153
ag1154
ag1155
ag1156
ag188
asba(iMeme
Meme
p1158
(dp1159
g3
(lp1160
S'failed'
p1161
aS'the'
p1162
aS'ib'
p1163
ag318
asg8
S'failed the ib?'
p1164
sg10
S' become a hitman instead'
p1165
sg12
Vserial-killer-george
p1166
sg14
(lp1167
g1161
ag1162
ag1163
ag318
aS'become'
p1168
ag17
aS'hitman'
p1169
aS'instead'
p1170
asg21
(lp1171
g1168
ag17
ag1169
ag1170
asba(iMeme
Meme
p1172
(dp1173
g3
(lp1174
S'michelle'
p1175
aS'do'
p1176
asg8
S'michelle do'
p1177
sg10
S' george see'
p1178
sg12
Vserial-killer-george
p1179
sg14
(lp1180
g1175
ag1176
aS'george'
p1181
aS'see'
p1182
asg21
(lp1183
g1181
ag1182
asba(iMeme
Meme
p1184
(dp1185
g3
(lp1186
S'bitch'
p1187
aS'found'
p1188
asg8
S'bitch found'
p1189
sg10
S' my bananas'
p1190
sg12
Vserial-killer-george
p1191
sg14
(lp1192
g1187
ag1188
aS'my'
p1193
aS'bananas'
p1194
asg21
(lp1195
g1193
ag1194
asba(iMeme
Meme
p1196
(dp1197
g3
(lp1198
S'yo'
p1199
aS'jim'
p1200
asg8
S'yo jim'
p1201
sg10
S' my monkey is gonna fuckin bury you'
p1202
sg12
Vserial-killer-george
p1203
sg14
(lp1204
g1199
ag1200
aS'my'
p1205
aS'monkey'
p1206
aS'is'
p1207
aS'gon'
p1208
aS'na'
p1209
aS'fuckin'
p1210
aS'bury'
p1211
aS'you'
p1212
asg21
(lp1213
g1205
ag1206
ag1207
ag1208
ag1209
ag1210
ag1211
ag1212
asba(iMeme
Meme
p1214
(dp1215
g3
(lp1216
g60
aS'will'
p1217
aS'keep'
p1218
aS'looking'
p1219
asg8
S'i will keep looking'
p1220
sg10
S' for faraz bhaii'
p1221
sg12
Vserial-killer-george
p1222
sg14
(lp1223
g60
ag1217
ag1218
ag1219
aS'for'
p1224
aS'faraz'
p1225
aS'bhaii'
p1226
asg21
(lp1227
g1224
ag1225
ag1226
asba(iMeme
Meme
p1228
(dp1229
g3
(lp1230
S'still'
p1231
aS'looking'
p1232
asg8
S'still looking'
p1233
sg10
S' for a fuk to give'
p1234
sg12
Vserial-killer-george
p1235
sg14
(lp1236
g1231
ag1232
aS'for'
p1237
ag17
aS'fuk'
p1238
aS'to'
p1239
aS'give'
p1240
asg21
(lp1241
g1237
ag17
ag1238
ag1239
ag1240
asba(iMeme
Meme
p1242
(dp1243
g3
(lp1244
S'bitch'
p1245
asg8
S'bitch'
p1246
sg10
S' you aint see nothin'
p1247
sg12
Vserial-killer-george
p1248
sg14
(lp1249
g1245
aS'you'
p1250
aS'aint'
p1251
aS'see'
p1252
aS'nothin'
p1253
asg21
(lp1254
g1250
ag1251
ag1252
ag1253
asba(iMeme
Meme
p1255
(dp1256
g3
(lp1257
S'dont'
p1258
aS'give'
p1259
aS'up'
p1260
asg8
S'dont give up'
p1261
sg10
S' keep working at it'
p1262
sg12
Vserial-killer-george
p1263
sg14
(lp1264
g1258
ag1259
ag1260
aS'keep'
p1265
aS'working'
p1266
aS'at'
p1267
aS'it'
p1268
asg21
(lp1269
g1265
ag1266
ag1267
ag1268
asba(iMeme
Meme
p1270
(dp1271
g3
(lp1272
S'welcome'
p1273
aS'home'
p1274
asg8
S'welcome home'
p1275
sg10
S' man with yellow hat'
p1276
sg12
Vserial-killer-george
p1277
sg14
(lp1278
g1273
ag1274
aS'man'
p1279
aS'with'
p1280
aS'yellow'
p1281
aS'hat'
p1282
asg21
(lp1283
g1279
ag1280
ag1281
ag1282
asba(iMeme
Meme
p1284
(dp1285
g3
(lp1286
S'ive'
p1287
aS'been'
p1288
aS'searching'
p1289
asg8
S'ive been searching'
p1290
sg10
S' so long'
p1291
sg12
Vserial-killer-george
p1292
sg14
(lp1293
g1287
ag1288
ag1289
aS'so'
p1294
aS'long'
p1295
asg21
(lp1296
g1294
ag1295
asba(iMeme
Meme
p1297
(dp1298
g3
(lp1299
S'sometimes'
p1300
ag60
aS'stay'
p1301
aS'up'
p1302
aS'late'
p1303
aS'at'
p1304
aS'night'
p1305
aS'digging'
p1306
aS'holes'
p1307
asg8
S'sometimes i stay up late at night digging holes'
p1308
sg10
S' to keep the neighbors wondering'
p1309
sg12
Vserial-killer-george
p1310
sg14
(lp1311
g1300
ag60
ag1301
ag1302
ag1303
ag1304
ag1305
ag1306
ag1307
aS'to'
p1312
aS'keep'
p1313
aS'the'
p1314
aS'neighbors'
p1315
aS'wondering'
p1316
asg21
(lp1317
g1312
ag1313
ag1314
ag1315
ag1316
asba(iMeme
Meme
p1318
(dp1319
g3
(lp1320
S'burying'
p1321
aS'all'
p1322
aS'the'
p1323
aS'people'
p1324
asg8
S'burying all the people'
p1325
sg10
S' that says i have a small dick'
p1326
sg12
Vserial-killer-george
p1327
sg14
(lp1328
g1321
ag1322
ag1323
ag1324
aS'that'
p1329
aS'says'
p1330
ag60
aS'have'
p1331
ag17
aS'small'
p1332
aS'dick'
p1333
asg21
(lp1334
g1329
ag1330
ag60
ag1331
ag17
ag1332
ag1333
asba(iMeme
Meme
p1335
(dp1336
g3
(lp1337
S'put'
p1338
aS'in'
p1339
aS'work'
p1340
asg8
S'put in work'
p1341
sg10
S' put em in the dirt'
p1342
sg12
Vserial-killer-george
p1343
sg14
(lp1344
g1338
ag1339
ag1340
aS'put'
p1345
aS'em'
p1346
aS'in'
p1347
aS'the'
p1348
aS'dirt'
p1349
asg21
(lp1350
g1345
ag1346
ag1347
ag1348
ag1349
asba(iMeme
Meme
p1351
(dp1352
g3
(lp1353
S'finally..'
p1354
asg8
S'finally..'
p1355
sg10
S' the hat is mine!'
p1356
sg12
Vserial-killer-george
p1357
sg14
(lp1358
g1354
aS'the'
p1359
aS'hat'
p1360
aS'is'
p1361
aS'mine'
p1362
ag181
asg21
(lp1363
g1359
ag1360
ag1361
ag1362
ag181
asba(iMeme
Meme
p1364
(dp1365
g3
(lp1366
S'no'
p1367
aS'more'
p1368
aS'coach'
p1369
asg8
S'no more coach'
p1370
sg10
S' no more practice'
p1371
sg12
Vserial-killer-george
p1372
sg14
(lp1373
g1367
ag1368
ag1369
aS'no'
p1374
aS'more'
p1375
aS'practice'
p1376
asg21
(lp1377
g1374
ag1375
ag1376
asba.