(lp0
(iMeme
Meme
p1
(dp2
S'top_text'
p3
(lp4
S'I'
p5
aS'do'
p6
aS"n't"
p7
aS'have'
p8
aS'fast'
p9
aS'internet'
p10
aS'and'
p11
aS'do'
p12
aS"n't"
p13
aS'want'
p14
aS'to'
p15
aS'deal'
p16
aS'with'
p17
aS'buffering'
p18
aS'every'
p19
aS'2'
p20
aS'minutes'
p21
asS'top_text_raw'
p22
S"I don't have fast internet and don't want to deal with buffering every 2 minutes "
p23
sS'bottom_text_raw'
p24
S' fuck me right? '
p25
sS'meme_type'
p26
Vseth-from-superbad
p27
sS'all_text'
p28
(lp29
g5
ag6
ag7
ag8
ag9
ag10
ag11
ag12
ag13
ag14
ag15
ag16
ag17
ag18
ag19
ag20
ag21
aS'fuck'
p30
aS'me'
p31
aS'right'
p32
aS'?'
p33
asS'bottom_text'
p34
(lp35
g30
ag31
ag32
ag33
asba(iMeme
Meme
p36
(dp37
g3
(lp38
S'Come'
p39
aS'at'
p40
asg22
S'Come at  '
p41
sg24
S' me bro! '
p42
sg26
Vseth-from-superbad
p43
sg28
(lp44
g39
ag40
aS'me'
p45
aS'bro'
p46
aS'!'
p47
asg34
(lp48
g45
ag46
ag47
asba(iMeme
Meme
p49
(dp50
g3
(lp51
S'Trying'
p52
aS'to'
p53
aS'have'
p54
aS'fun'
p55
aS'in'
p56
aS'airmech'
p57
asg22
S'Trying to have fun in airmech '
p58
sg24
S' Fuck me, right? '
p59
sg26
Vseth-from-superbad
p60
sg28
(lp61
g52
ag53
ag54
ag55
ag56
ag57
aS'Fuck'
p62
aS'me'
p63
aS','
p64
aS'right'
p65
ag33
asg34
(lp66
g62
ag63
ag64
ag65
ag33
asba(iMeme
Meme
p67
(dp68
g3
(lp69
g5
aS'only'
p70
aS'graduated'
p71
aS'law'
p72
aS'school'
p73
ag64
aS'sat'
p74
aS'for'
p75
aS'the'
p76
aS'bar'
p77
ag64
aS'and'
p78
aS'interned'
p79
aS'both'
p80
aS'summers'
p81
asg22
S'I only graduated law school, sat for the bar, and interned both summers '
p82
sg24
S' fuck me, right? '
p83
sg26
Vseth-from-superbad
p84
sg28
(lp85
g5
ag70
ag71
ag72
ag73
ag64
ag74
ag75
ag76
ag77
ag64
ag78
ag79
ag80
ag81
aS'fuck'
p86
aS'me'
p87
ag64
aS'right'
p88
ag33
asg34
(lp89
g86
ag87
ag64
ag88
ag33
asba(iMeme
Meme
p90
(dp91
g3
(lp92
S'When'
p93
ag5
aS'actually'
p94
aS'have'
p95
aS'time'
p96
aS'to'
p97
aS'play'
p98
aS'games'
p99
ag64
ag5
aS'do'
p100
aS"n't"
p101
aS'want'
p102
aS'to'
p103
aS'wander'
p104
aS'around'
p105
aS'in'
p106
aS'dark'
p107
aS'souls'
p108
aS'for'
p109
aS'30'
p110
aS'minutes'
p111
aS'before'
p112
aS'actually'
p113
aS'doing'
p114
aS'anything'
p115
aS'...'
p116
asg22
S"When I actually have time to play games, I don't want to wander around in dark souls for 30 minutes before actually doing anything... "
p117
sg24
S' FUCK ME, RIGHT? '
p118
sg26
Vseth-from-superbad
p119
sg28
(lp120
g93
ag5
ag94
ag95
ag96
ag97
ag98
ag99
ag64
ag5
ag100
ag101
ag102
ag103
ag104
ag105
ag106
ag107
ag108
ag109
ag110
ag111
ag112
ag113
ag114
ag115
ag116
aS'FUCK'
p121
aS'ME'
p122
ag64
aS'RIGHT'
p123
ag33
asg34
(lp124
g121
ag122
ag64
ag123
ag33
asba(iMeme
Meme
p125
(dp126
g3
(lp127
S'Eddie'
p128
asg22
S'Eddie  '
p129
sg24
S' at the bbq '
p130
sg26
Vseth-from-superbad
p131
sg28
(lp132
g128
aS'at'
p133
aS'the'
p134
aS'bbq'
p135
asg34
(lp136
g133
ag134
ag135
asba(iMeme
Meme
p137
(dp138
g3
(lp139
S'Eddie'
p140
asg22
S'Eddie  '
p141
sg24
S' at the bbq '
p142
sg26
Vseth-from-superbad
p143
sg28
(lp144
g140
aS'at'
p145
aS'the'
p146
aS'bbq'
p147
asg34
(lp148
g145
ag146
ag147
asba(iMeme
Meme
p149
(dp150
g3
(lp151
g5
aS'try'
p152
aS'to'
p153
aS'post'
p154
aS'awesome'
p155
aS'questions'
p156
aS'and'
p157
aS'avoid'
p158
aS'posting'
p159
aS'cats'
p160
aS'and'
p161
aS'boobies'
p162
asg22
S'I try to post awesome questions and avoid posting cats and boobies '
p163
sg24
S' Fuck me right? '
p164
sg26
Vseth-from-superbad
p165
sg28
(lp166
g5
ag152
ag153
ag154
ag155
ag156
ag157
ag158
ag159
ag160
ag161
ag162
aS'Fuck'
p167
aS'me'
p168
aS'right'
p169
ag33
asg34
(lp170
g167
ag168
ag169
ag33
asba(iMeme
Meme
p171
(dp172
g3
(lp173
g5
aS'genuinely'
p174
aS'do'
p175
aS"n't"
p176
aS'understand'
p177
aS'it'
p178
aS'.'
p179
asg22
S"I genuinely don't understand it. "
p180
sg24
S' Fuck me, right? '
p181
sg26
Vseth-from-superbad
p182
sg28
(lp183
g5
ag174
ag175
ag176
ag177
ag178
ag179
aS'Fuck'
p184
aS'me'
p185
ag64
aS'right'
p186
ag33
asg34
(lp187
g184
ag185
ag64
ag186
ag33
asba(iMeme
Meme
p188
(dp189
g3
(lp190
g5
aS'just'
p191
aS'wanted'
p192
aS'to'
p193
aS'rest'
p194
aS'after'
p195
aS'getting'
p196
aS'back'
p197
aS'from'
p198
aS'my'
p199
aS'major'
p200
aS'surgery'
p201
aS'instead'
p202
aS'of'
p203
aS'cleaning'
p204
aS'the'
p205
aS'entire'
p206
aS'house'
p207
asg22
S'I just wanted to rest after getting back from my major surgery instead of cleaning the entire house '
p208
sg24
S' Fuck me, right? '
p209
sg26
Vseth-from-superbad
p210
sg28
(lp211
g5
ag191
ag192
ag193
ag194
ag195
ag196
ag197
ag198
ag199
ag200
ag201
ag202
ag203
ag204
ag205
ag206
ag207
aS'Fuck'
p212
aS'me'
p213
ag64
aS'right'
p214
ag33
asg34
(lp215
g212
ag213
ag64
ag214
ag33
asba(iMeme
Meme
p216
(dp217
g3
(lp218
g5
aS'prefer'
p219
aS'regular'
p220
aS'oreos'
p221
aS'ove'
p222
aS'double'
p223
aS'stuffed'
p224
ag179
asg22
S'I prefer regular oreos ove double stuffed. '
p225
sg24
S' Fuck me right? '
p226
sg26
Vseth-from-superbad
p227
sg28
(lp228
g5
ag219
ag220
ag221
ag222
ag223
ag224
ag179
aS'Fuck'
p229
aS'me'
p230
aS'right'
p231
ag33
asg34
(lp232
g229
ag230
ag231
ag33
asba(iMeme
Meme
p233
(dp234
g3
(lp235
S'i'
p236
aS'bought'
p237
aS'my'
p238
aS'black'
p239
aS'ops2'
p240
aS'profile'
p241
aS'...'
p242
asg22
S'i bought my black ops2 profile... '
p243
sg24
S' ...fuck me rite... '
p244
sg26
Vseth-from-superbad
p245
sg28
(lp246
g236
ag237
ag238
ag239
ag240
ag241
ag242
aS'...'
p247
aS'fuck'
p248
aS'me'
p249
aS'rite'
p250
aS'...'
p251
asg34
(lp252
g247
ag248
ag249
ag250
ag251
asba(iMeme
Meme
p253
(dp254
g3
(lp255
S'then'
p256
ag236
aS'was'
p257
aS'like'
p258
ag64
asg22
S'then i was like, '
p259
sg24
S' "400$ an hour? What am i, Laura bush?" '
p260
sg26
Vseth-from-superbad
p261
sg28
(lp262
g256
ag236
ag257
ag258
ag64
aS'``'
p263
aS'400'
p264
aS'$'
p265
aS'an'
p266
aS'hour'
p267
ag33
aS'What'
p268
aS'am'
p269
ag236
ag64
aS'Laura'
p270
aS'bush'
p271
ag33
aS"''"
p272
asg34
(lp273
g263
ag264
ag265
ag266
ag267
ag33
ag268
ag269
ag236
ag64
ag270
ag271
ag33
ag272
asba(iMeme
Meme
p274
(dp275
g3
(lp276
S'allison'
p277
aS'thinks'
p278
aS'that'
p279
aS'she'
p280
aS'is'
p281
aS'da'
p282
aS'boss'
p283
asg22
S'allison thinks that she is da boss '
p284
sg24
S" ha ha don't make me gig "
p285
sg26
Vseth-from-superbad
p286
sg28
(lp287
g277
ag278
ag279
ag280
ag281
ag282
ag283
aS'ha'
p288
aS'ha'
p289
aS'do'
p290
aS"n't"
p291
aS'make'
p292
aS'me'
p293
aS'gig'
p294
asg34
(lp295
g288
ag289
ag290
ag291
ag292
ag293
ag294
asba(iMeme
Meme
p296
(dp297
g3
(lp298
S'It'
p299
aS'annoys'
p300
aS'me'
p301
aS'but'
p302
aS'still'
p303
aS'makes'
p304
aS'me'
p305
aS'laugh'
p306
aS'when'
p307
aS'people'
p308
aS'do'
p309
aS"n't"
p310
aS'use'
p311
aS'the'
p312
aS'apostrophe'
p313
aS'in'
p314
aS'this'
p315
aS'meme'
p316
asg22
S"It annoys me but still makes me laugh when people don't use the apostrophe in this meme  "
p317
sg24
S' Fuck me, right? '
p318
sg26
Vseth-from-superbad
p319
sg28
(lp320
g299
ag300
ag301
ag302
ag303
ag304
ag305
ag306
ag307
ag308
ag309
ag310
ag311
ag312
ag313
ag314
ag315
ag316
aS'Fuck'
p321
aS'me'
p322
ag64
aS'right'
p323
ag33
asg34
(lp324
g321
ag322
ag64
ag323
ag33
asba(iMeme
Meme
p325
(dp326
g3
(lp327
g5
aS'study'
p328
aS'in'
p329
aS'rchv,12th'
p330
aS'grade'
p331
asg22
S'I study in rchv,12th grade '
p332
sg24
S' Fuck Me,right '
p333
sg26
Vseth-from-superbad
p334
sg28
(lp335
g5
ag328
ag329
ag330
ag331
aS'Fuck'
p336
aS'Me'
p337
ag64
aS'right'
p338
asg34
(lp339
g336
ag337
ag64
ag338
asba(iMeme
Meme
p340
(dp341
g3
(lp342
g5
aS'actually'
p343
aS'like'
p344
aS'the'
p345
aS'Mod'
p346
aS'Flair'
p347
asg22
S'I actually like the Mod Flair '
p348
sg24
S' Fuck me, right? '
p349
sg26
Vseth-from-superbad
p350
sg28
(lp351
g5
ag343
ag344
ag345
ag346
ag347
aS'Fuck'
p352
aS'me'
p353
ag64
aS'right'
p354
ag33
asg34
(lp355
g352
ag353
ag64
ag354
ag33
asba(iMeme
Meme
p356
(dp357
g3
(lp358
g236
aS'just'
p359
aS'read'
p360
aS'tickld'
p361
ag64
aS'but'
p362
aS'do'
p363
aS"n't"
p364
aS'actually'
p365
aS'make'
p366
aS'any'
p367
aS'memes'
p368
asg22
S"i just read tickld, but don't actually make any memes "
p369
sg24
S' FUCK ME RIGHT? '
p370
sg26
Vseth-from-superbad
p371
sg28
(lp372
g236
ag359
ag360
ag361
ag64
ag362
ag363
ag364
ag365
ag366
ag367
ag368
aS'FUCK'
p373
aS'ME'
p374
aS'RIGHT'
p375
ag33
asg34
(lp376
g373
ag374
ag375
ag33
asba(iMeme
Meme
p377
(dp378
g3
(lp379
S'paddy'
p380
aS':'
p381
aS'ive'
p382
aS'a'
p383
aS'small'
p384
aS'cock'
p385
aS'and'
p386
aS'what'
p387
asg22
S'paddy: ive a small cock and what '
p388
sg24
S'  '
p389
sg26
Vseth-from-superbad
p390
sg28
(lp391
g380
ag381
ag382
ag383
ag384
ag385
ag386
ag387
asg34
(lp392
sba(iMeme
Meme
p393
(dp394
g3
(lp395
g5
aS'do'
p396
aS"n't"
p397
aS'mind'
p398
aS'getting'
p399
aS'up'
p400
aS'and'
p401
aS'going'
p402
aS'to'
p403
aS'work'
p404
asg22
S"I don't mind getting up and going to work "
p405
sg24
S' Fuck me, right? '
p406
sg26
Vseth-from-superbad
p407
sg28
(lp408
g5
ag396
ag397
ag398
ag399
ag400
ag401
ag402
ag403
ag404
aS'Fuck'
p409
aS'me'
p410
ag64
aS'right'
p411
ag33
asg34
(lp412
g409
ag410
ag64
ag411
ag33
asba(iMeme
Meme
p413
(dp414
g3
(lp415
g5
aS'always'
p416
aS'thought'
p417
aS'that'
p418
aS'jonah'
p419
aS'hill'
p420
aS"'s"
p421
aS'character'
p422
aS'was'
p423
aS'holding'
p424
aS'the'
p425
aS'beer'
p426
asg22
S"I always thought that jonah hill's character was holding the beer "
p427
sg24
S' fuck me, right? '
p428
sg26
Vseth-from-superbad
p429
sg28
(lp430
g5
ag416
ag417
ag418
ag419
ag420
ag421
ag422
ag423
ag424
ag425
ag426
aS'fuck'
p431
aS'me'
p432
ag64
aS'right'
p433
ag33
asg34
(lp434
g431
ag432
ag64
ag433
ag33
asba(iMeme
Meme
p435
(dp436
g3
(lp437
g236
aS'hate'
p438
aS'using'
p439
aS'curse'
p440
aS'words'
p441
asg22
S'i hate using curse words '
p442
sg24
S' fuck me right '
p443
sg26
Vseth-from-superbad
p444
sg28
(lp445
g236
ag438
ag439
ag440
ag441
aS'fuck'
p446
aS'me'
p447
aS'right'
p448
asg34
(lp449
g446
ag447
ag448
asba(iMeme
Meme
p450
(dp451
g3
(lp452
g236
aS"'m"
p453
aS'not'
p454
aS'on'
p455
aS'reddit'
p456
aS'every'
p457
aS'single'
p458
aS'day'
p459
aS'of'
p460
aS'my'
p461
aS'life'
p462
aS'and'
p463
aS'dont'
p464
aS'know'
p465
aS'whats'
p466
aS'always'
p467
aS'on'
p468
aS'the'
p469
aS'front'
p470
aS'page'
p471
ag64
asg22
S"i'm not on reddit every single day of my life and dont know whats always on the front page, "
p472
sg24
S' fuck me right? '
p473
sg26
Vseth-from-superbad
p474
sg28
(lp475
g236
ag453
ag454
ag455
ag456
ag457
ag458
ag459
ag460
ag461
ag462
ag463
ag464
ag465
ag466
ag467
ag468
ag469
ag470
ag471
ag64
aS'fuck'
p476
aS'me'
p477
aS'right'
p478
ag33
asg34
(lp479
g476
ag477
ag478
ag33
asba(iMeme
Meme
p480
(dp481
g3
(lp482
g5
aS'hate'
p483
aS'using'
p484
aS'curse'
p485
aS'words'
p486
asg22
S'I hate using curse words '
p487
sg24
S'  '
p488
sg26
Vseth-from-superbad
p489
sg28
(lp490
g5
ag483
ag484
ag485
ag486
asg34
(lp491
sba(iMeme
Meme
p492
(dp493
g3
(lp494
S'its'
p495
aS'2100'
p496
aS'and'
p497
ag236
aS'wan'
p498
aS'na'
p499
aS'get'
p500
aS'released'
p501
aS'from'
p502
aS'work'
p503
asg22
S'its 2100 and i wanna get released from work '
p504
sg24
S' fuck me right? '
p505
sg26
Vseth-from-superbad
p506
sg28
(lp507
g495
ag496
ag497
ag236
ag498
ag499
ag500
ag501
ag502
ag503
aS'fuck'
p508
aS'me'
p509
aS'right'
p510
ag33
asg34
(lp511
g508
ag509
ag510
ag33
asba(iMeme
Meme
p512
(dp513
g3
(lp514
g5
aS'just'
p515
aS'think'
p516
aS'every'
p517
aS'person'
p518
aS'is'
p519
aS'individually'
p520
aS'responsible'
p521
aS'to'
p522
aS'have'
p523
aS'marketable'
p524
aS'skills'
p525
asg22
S'I just think every person is individually responsible to have marketable skills '
p526
sg24
S'  '
p527
sg26
Vseth-from-superbad
p528
sg28
(lp529
g5
ag515
ag516
ag517
ag518
ag519
ag520
ag521
ag522
ag523
ag524
ag525
asg34
(lp530
sba(iMeme
Meme
p531
(dp532
g3
(lp533
S'You'
p534
aS'get'
p535
aS'role'
p536
aS'call'
p537
aS'but'
p538
aS'get'
p539
aS'to'
p540
aS'miss'
p541
aS'out'
p542
ag33
asg22
S'You get role call but get to miss out? '
p543
sg24
S' Fuck me, right? '
p544
sg26
Vseth-from-superbad
p545
sg28
(lp546
g534
ag535
ag536
ag537
ag538
ag539
ag540
ag541
ag542
ag33
aS'Fuck'
p547
aS'me'
p548
ag64
aS'right'
p549
ag33
asg34
(lp550
g547
ag548
ag64
ag549
ag33
asba(iMeme
Meme
p551
(dp552
g3
(lp553
g5
aS'do'
p554
aS"n't"
p555
aS'think'
p556
aS'Internet'
p557
aS'Privacy'
p558
aS'and'
p559
aS'surveillance'
p560
aS'is'
p561
ag383
aS'cut'
p562
aS'and'
p563
aS'dry'
p564
aS'issue'
p565
asg22
S"I don't think Internet Privacy and surveillance is a cut and dry issue "
p566
sg24
S' Fuck me right? '
p567
sg26
Vseth-from-superbad
p568
sg28
(lp569
g5
ag554
ag555
ag556
ag557
ag558
ag559
ag560
ag561
ag383
ag562
ag563
ag564
ag565
aS'Fuck'
p570
aS'me'
p571
aS'right'
p572
ag33
asg34
(lp573
g570
ag571
ag572
ag33
asba(iMeme
Meme
p574
(dp575
g3
(lp576
S'Just'
p577
aS'realized'
p578
ag236
aS'do'
p579
aS"n't"
p580
aS'have'
p581
aS'as'
p582
aS'many'
p583
aS'friends'
p584
aS'as'
p585
ag236
aS'thought'
p586
asg22
S"Just realized i don't have as many friends as i thought "
p587
sg24
S' Fuck me right '
p588
sg26
Vseth-from-superbad
p589
sg28
(lp590
g577
ag578
ag236
ag579
ag580
ag581
ag582
ag583
ag584
ag585
ag236
ag586
aS'Fuck'
p591
aS'me'
p592
aS'right'
p593
asg34
(lp594
g591
ag592
ag593
asba(iMeme
Meme
p595
(dp596
g3
(lp597
g5
aS'like'
p598
aS'to'
p599
aS'dance'
p600
aS'like'
p601
ag383
aS'normal'
p602
aS'human'
p603
aS'being'
p604
asg22
S'I like to dance like a normal human being '
p605
sg24
S' fuck me, right?! '
p606
sg26
Vseth-from-superbad
p607
sg28
(lp608
g5
ag598
ag599
ag600
ag601
ag383
ag602
ag603
ag604
aS'fuck'
p609
aS'me'
p610
ag64
aS'right'
p611
ag33
ag47
asg34
(lp612
g609
ag610
ag64
ag611
ag33
ag47
asba(iMeme
Meme
p613
(dp614
g3
(lp615
S'haha'
p616
aS'why'
p617
aS'the'
p618
aS'fuck'
p619
aS'...'
p620
asg22
S'haha why the fuck... '
p621
sg24
S' is damion banging that chicks knee '
p622
sg26
Vseth-from-superbad
p623
sg28
(lp624
g616
ag617
ag618
ag619
ag620
aS'is'
p625
aS'damion'
p626
aS'banging'
p627
aS'that'
p628
aS'chicks'
p629
aS'knee'
p630
asg34
(lp631
g625
ag626
ag627
ag628
ag629
ag630
asba(iMeme
Meme
p632
(dp633
g3
(lp634
S'yes'
p635
asg22
S'yes '
p636
sg24
S' My first time having sex,  '
p637
sg26
Vseth-from-superbad
p638
sg28
(lp639
g635
aS'My'
p640
aS'first'
p641
aS'time'
p642
aS'having'
p643
aS'sex'
p644
ag64
asg34
(lp645
g640
ag641
ag642
ag643
ag644
ag64
asba(iMeme
Meme
p646
(dp647
g3
(lp648
S'Tell'
p649
ag383
aS'girl'
p650
aS'you'
p651
aS'would'
p652
aS'like'
p653
aS'to'
p654
aS'get'
p655
aS'to'
p656
aS'know'
p657
aS'her'
p658
aS'better'
p659
asg22
S'Tell a girl you would like to get to know her better '
p660
sg24
S' Fuck Me, right? '
p661
sg26
Vseth-from-superbad
p662
sg28
(lp663
g649
ag383
ag650
ag651
ag652
ag653
ag654
ag655
ag656
ag657
ag658
ag659
aS'Fuck'
p664
aS'Me'
p665
ag64
aS'right'
p666
ag33
asg34
(lp667
g664
ag665
ag64
ag666
ag33
asba(iMeme
Meme
p668
(dp669
g3
(lp670
S'Raised'
p671
aS'to'
p672
aS'not'
p673
aS'call'
p674
aS'women'
p675
aS'bitches'
p676
aS'and'
p677
aS'hoes'
p678
asg22
S'Raised to not call women bitches and hoes '
p679
sg24
S' fuck  '
p680
sg26
Vseth-from-superbad
p681
sg28
(lp682
g671
ag672
ag673
ag674
ag675
ag676
ag677
ag678
aS'fuck'
p683
asg34
(lp684
g683
asba(iMeme
Meme
p685
(dp686
g3
(lp687
S'my'
p688
aS'feelings'
p689
aS'towards'
p690
aS'women'
p691
aS'are'
p692
aS'based'
p693
aS'on'
p694
aS'how'
p695
ag5
aS"'ve"
p696
aS'been'
p697
aS'treated'
p698
asg22
S"my feelings towards women are based on how I've been treated "
p699
sg24
S' fuck me, right? '
p700
sg26
Vseth-from-superbad
p701
sg28
(lp702
g688
ag689
ag690
ag691
ag692
ag693
ag694
ag695
ag5
ag696
ag697
ag698
aS'fuck'
p703
aS'me'
p704
ag64
aS'right'
p705
ag33
asg34
(lp706
g703
ag704
ag64
ag705
ag33
asba(iMeme
Meme
p707
(dp708
g3
(lp709
S'she'
p710
aS'told'
p711
aS'me'
p712
aS'im'
p713
aS'ugly'
p714
asg22
S'she told me im ugly '
p715
sg24
S' fuck her, right? '
p716
sg26
Vseth-from-superbad
p717
sg28
(lp718
g710
ag711
ag712
ag713
ag714
aS'fuck'
p719
aS'her'
p720
ag64
aS'right'
p721
ag33
asg34
(lp722
g719
ag720
ag64
ag721
ag33
asba(iMeme
Meme
p723
(dp724
g3
(lp725
S'Slept'
p726
aS'before'
p727
aS'f6oor'
p728
ag64
aS'wOke'
p729
aS'up'
p730
aS'after'
p731
aS's7oor'
p732
asg22
S'Slept before f6oor, wOke up after s7oor '
p733
sg24
S' Fuck me right? '
p734
sg26
Vseth-from-superbad
p735
sg28
(lp736
g726
ag727
ag728
ag64
ag729
ag730
ag731
ag732
aS'Fuck'
p737
aS'me'
p738
aS'right'
p739
ag33
asg34
(lp740
g737
ag738
ag739
ag33
asba(iMeme
Meme
p741
(dp742
g3
(lp743
g5
aS'do'
p744
aS"n't"
p745
aS'want'
p746
aS'you'
p747
aS'texting'
p748
aS'and'
p749
aS'driving'
p750
aS'while'
p751
ag5
aS"'m"
p752
aS'in'
p753
aS'the'
p754
aS'passenger'
p755
aS'seat'
p756
asg22
S"I don't want you texting and driving while I'm in the passenger seat "
p757
sg24
S' Fuck me, right? '
p758
sg26
Vseth-from-superbad
p759
sg28
(lp760
g5
ag744
ag745
ag746
ag747
ag748
ag749
ag750
ag751
ag5
ag752
ag753
ag754
ag755
ag756
aS'Fuck'
p761
aS'me'
p762
ag64
aS'right'
p763
ag33
asg34
(lp764
g761
ag762
ag64
ag763
ag33
asba(iMeme
Meme
p765
(dp766
g3
(lp767
g5
aS'just'
p768
aS'want'
p769
aS'to'
p770
aS'play'
p771
aS'MO'
p772
aS'without'
p773
aS'having'
p774
aS'to'
p775
aS'crutch'
p776
aS'on'
p777
aS'pets'
p778
asg22
S'I just want to play MO without having to crutch on pets '
p779
sg24
S' Fuck me, right? '
p780
sg26
Vseth-from-superbad
p781
sg28
(lp782
g5
ag768
ag769
ag770
ag771
ag772
ag773
ag774
ag775
ag776
ag777
ag778
aS'Fuck'
p783
aS'me'
p784
ag64
aS'right'
p785
ag33
asg34
(lp786
g783
ag784
ag64
ag785
ag33
asba(iMeme
Meme
p787
(dp788
g3
(lp789
g236
aS'just'
p790
aS'do'
p791
aS"n't"
p792
aS'want'
p793
aS'people'
p794
ag5
aS'never'
p795
aS'met'
p796
aS'vaporized'
p797
aS'on'
p798
aS'my'
p799
aS'tax'
p800
aS'dollar'
p801
asg22
S"i just don't want people I never met vaporized on my tax dollar "
p802
sg24
S' fuck me right? '
p803
sg26
Vseth-from-superbad
p804
sg28
(lp805
g236
ag790
ag791
ag792
ag793
ag794
ag5
ag795
ag796
ag797
ag798
ag799
ag800
ag801
aS'fuck'
p806
aS'me'
p807
aS'right'
p808
ag33
asg34
(lp809
g806
ag807
ag808
ag33
asba(iMeme
Meme
p810
(dp811
g3
(lp812
g5
aS'thought'
p813
aS'there'
p814
aS'was'
p815
aS'porn'
p816
aS'in'
p817
aS'this'
p818
aS'folder'
p819
asg22
S'I thought there was porn in this folder '
p820
sg24
S' Fuck me right? '
p821
sg26
Vseth-from-superbad
p822
sg28
(lp823
g5
ag813
ag814
ag815
ag816
ag817
ag818
ag819
aS'Fuck'
p824
aS'me'
p825
aS'right'
p826
ag33
asg34
(lp827
g824
ag825
ag826
ag33
asba(iMeme
Meme
p828
(dp829
g3
(lp830
g236
aS'prefer'
p831
aS'regular'
p832
aS'oreos'
p833
aS'over'
p834
aS'double'
p835
aS'stuff'
p836
asg22
S'i prefer regular oreos over double stuff '
p837
sg24
S' fuck me right? '
p838
sg26
Vseth-from-superbad
p839
sg28
(lp840
g236
ag831
ag832
ag833
ag834
ag835
ag836
aS'fuck'
p841
aS'me'
p842
aS'right'
p843
ag33
asg34
(lp844
g841
ag842
ag843
ag33
asba(iMeme
Meme
p845
(dp846
g3
(lp847
S'im'
p848
aS'lucky'
p849
asg22
S'im lucky  '
p850
sg24
S' im with five hot chicks '
p851
sg26
Vseth-from-superbad
p852
sg28
(lp853
g848
ag849
aS'im'
p854
aS'with'
p855
aS'five'
p856
aS'hot'
p857
aS'chicks'
p858
asg34
(lp859
g854
ag855
ag856
ag857
ag858
asba(iMeme
Meme
p860
(dp861
g3
(lp862
g5
aS"'m"
p863
aS'trying'
p864
aS'to'
p865
aS'save'
p866
aS'YOUR'
p867
aS'Life'
p868
asg22
S"I'm trying to save YOUR Life "
p869
sg24
S' Fuck me, right? '
p870
sg26
Vseth-from-superbad
p871
sg28
(lp872
g5
ag863
ag864
ag865
ag866
ag867
ag868
aS'Fuck'
p873
aS'me'
p874
ag64
aS'right'
p875
ag33
asg34
(lp876
g873
ag874
ag64
ag875
ag33
asba(iMeme
Meme
p877
(dp878
g3
(lp879
S'Going'
p880
aS'vegeterian'
p881
aS'for'
p882
aS'health'
p883
aS'and'
p884
aS'personal'
p885
aS'ethical'
p886
aS'reasons'
p887
asg22
S'Going vegeterian for health and personal ethical reasons '
p888
sg24
S' fuck me right? '
p889
sg26
Vseth-from-superbad
p890
sg28
(lp891
g880
ag881
ag882
ag883
ag884
ag885
ag886
ag887
aS'fuck'
p892
aS'me'
p893
aS'right'
p894
ag33
asg34
(lp895
g892
ag893
ag894
ag33
asba(iMeme
Meme
p896
(dp897
g3
(lp898
S'My'
p899
aS'arm'
p900
aS'is'
p901
asg22
S'My arm is '
p902
sg24
S' Ghettoooo! '
p903
sg26
Vseth-from-superbad
p904
sg28
(lp905
g899
ag900
ag901
aS'Ghettoooo'
p906
ag47
asg34
(lp907
g906
ag47
asba(iMeme
Meme
p908
(dp909
g3
(lp910
g236
aS'thought'
p911
aS'that'
p912
aS'girl'
p913
aS'at'
p914
aS'school'
p915
aS'was'
p916
aS'into'
p917
aS'me'
p918
asg22
S'i thought that girl at school was into me '
p919
sg24
S' fuck me, right '
p920
sg26
Vseth-from-superbad
p921
sg28
(lp922
g236
ag911
ag912
ag913
ag914
ag915
ag916
ag917
ag918
aS'fuck'
p923
aS'me'
p924
ag64
aS'right'
p925
asg34
(lp926
g923
ag924
ag64
ag925
asba(iMeme
Meme
p927
(dp928
g3
(lp929
S'Do'
p930
aS"n't"
p931
aS'have'
p932
aS'pdp'
p933
asg22
S"Don't have pdp "
p934
sg24
S' fuck me right? '
p935
sg26
Vseth-from-superbad
p936
sg28
(lp937
g930
ag931
ag932
ag933
aS'fuck'
p938
aS'me'
p939
aS'right'
p940
ag33
asg34
(lp941
g938
ag939
ag940
ag33
asba(iMeme
Meme
p942
(dp943
g3
(lp944
S'just'
p945
aS'want'
p946
aS'to'
p947
aS'make'
p948
aS'it'
p949
aS'through'
p950
aS'``'
p951
aS'that'
p952
aS'time'
p953
aS'of'
p954
aS'the'
p955
aS'month'
p956
aS"''"
p957
aS'without'
p958
aS'my'
p959
aS'wife'
p960
aS'turning'
p961
aS'into'
p962
ag383
aS'demon'
p963
aS'from'
p964
aS'hell'
p965
asg22
S'just want to make it through "that time of the month" without my wife turning into a demon from hell '
p966
sg24
S' fuck me, right? '
p967
sg26
Vseth-from-superbad
p968
sg28
(lp969
g945
ag946
ag947
ag948
ag949
ag950
ag951
ag952
ag953
ag954
ag955
ag956
ag957
ag958
ag959
ag960
ag961
ag962
ag383
ag963
ag964
ag965
aS'fuck'
p970
aS'me'
p971
ag64
aS'right'
p972
ag33
asg34
(lp973
g970
ag971
ag64
ag972
ag33
asba(iMeme
Meme
p974
(dp975
g3
(lp976
S'esra'
p977
aS'is'
p978
aS'turks'
p979
asg22
S'esra is turks '
p980
sg24
S' geloof der al hmar '
p981
sg26
Vseth-from-superbad
p982
sg28
(lp983
g977
ag978
ag979
aS'geloof'
p984
aS'der'
p985
aS'al'
p986
aS'hmar'
p987
asg34
(lp988
g984
ag985
ag986
ag987
asba(iMeme
Meme
p989
(dp990
g3
(lp991
S'fada'
p992
aS'u'
p993
aS'can'
p994
aS'belive'
p995
aS'my'
p996
aS'mother'
p997
aS'tell'
p998
aS'me'
p999
aS'doe'
p1000
aS'go'
p1001
aS'jam'
p1002
asg22
S'fada u can belive my mother tell me doe go jam '
p1003
sg24
S' wtf mamzel thinking i a lil boy man '
p1004
sg26
Vseth-from-superbad
p1005
sg28
(lp1006
g992
ag993
ag994
ag995
ag996
ag997
ag998
ag999
ag1000
ag1001
ag1002
aS'wtf'
p1007
aS'mamzel'
p1008
aS'thinking'
p1009
ag236
ag383
aS'lil'
p1010
aS'boy'
p1011
aS'man'
p1012
asg34
(lp1013
g1007
ag1008
ag1009
ag236
ag383
ag1010
ag1011
ag1012
asba(iMeme
Meme
p1014
(dp1015
g3
(lp1016
S'fada'
p1017
ag993
aS'can'
p1018
aS'belive'
p1019
aS'my'
p1020
aS'mother'
p1021
aS'tell'
p1022
aS'me'
p1023
aS'do'
p1024
aS'go'
p1025
aS'jam'
p1026
asg22
S'fada u can belive my mother tell me do go jam '
p1027
sg24
S' wtf mamzel thing i a lil boy man '
p1028
sg26
Vseth-from-superbad
p1029
sg28
(lp1030
g1017
ag993
ag1018
ag1019
ag1020
ag1021
ag1022
ag1023
ag1024
ag1025
ag1026
aS'wtf'
p1031
aS'mamzel'
p1032
aS'thing'
p1033
ag236
ag383
aS'lil'
p1034
aS'boy'
p1035
aS'man'
p1036
asg34
(lp1037
g1031
ag1032
ag1033
ag236
ag383
ag1034
ag1035
ag1036
asba(iMeme
Meme
p1038
(dp1039
g3
(lp1040
g5
aS'started'
p1041
ag383
aS'meme'
p1042
aS'war'
p1043
ag5
aS'ca'
p1044
aS"n't"
p1045
aS'win'
p1046
asg22
S"I started a meme war I can't win "
p1047
sg24
S' Fuck me, right? '
p1048
sg26
Vseth-from-superbad
p1049
sg28
(lp1050
g5
ag1041
ag383
ag1042
ag1043
ag5
ag1044
ag1045
ag1046
aS'Fuck'
p1051
aS'me'
p1052
ag64
aS'right'
p1053
ag33
asg34
(lp1054
g1051
ag1052
ag64
ag1053
ag33
asba(iMeme
Meme
p1055
(dp1056
g3
(lp1057
S'Raised'
p1058
aS'to'
p1059
aS'not'
p1060
aS'call'
p1061
aS'women'
p1062
aS'bitches'
p1063
aS'and'
p1064
aS'hoes'
p1065
asg22
S'Raised to not call women bitches and hoes '
p1066
sg24
S' fuck me, right? '
p1067
sg26
Vseth-from-superbad
p1068
sg28
(lp1069
g1058
ag1059
ag1060
ag1061
ag1062
ag1063
ag1064
ag1065
aS'fuck'
p1070
aS'me'
p1071
ag64
aS'right'
p1072
ag33
asg34
(lp1073
g1070
ag1071
ag64
ag1072
ag33
asba(iMeme
Meme
p1074
(dp1075
g3
(lp1076
g5
aS"'m"
p1077
ag383
aS'Columbus'
p1078
aS'Crew'
p1079
aS'supporter'
p1080
asg22
S"I'm a Columbus Crew supporter "
p1081
sg24
S' Fuck me, right? '
p1082
sg26
Vseth-from-superbad
p1083
sg28
(lp1084
g5
ag1077
ag383
ag1078
ag1079
ag1080
aS'Fuck'
p1085
aS'me'
p1086
ag64
aS'right'
p1087
ag33
asg34
(lp1088
g1085
ag1086
ag64
ag1087
ag33
asba(iMeme
Meme
p1089
(dp1090
g3
(lp1091
S'if'
p1092
ag383
aS'cannibal'
p1093
aS'wants'
p1094
aS'to'
p1095
aS'cut'
p1096
aS'me'
p1097
aS'or'
p1098
aS'fuck'
p1099
aS'me'
p1100
ag64
aS'what'
p1101
aS'will'
p1102
ag236
aS'say'
p1103
asg22
S'if a cannibal wants to cut me or fuck me, what will i say '
p1104
sg24
S' fuck me right? '
p1105
sg26
Vseth-from-superbad
p1106
sg28
(lp1107
g1092
ag383
ag1093
ag1094
ag1095
ag1096
ag1097
ag1098
ag1099
ag1100
ag64
ag1101
ag1102
ag236
ag1103
aS'fuck'
p1108
aS'me'
p1109
aS'right'
p1110
ag33
asg34
(lp1111
g1108
ag1109
ag1110
ag33
asba(iMeme
Meme
p1112
(dp1113
g3
(lp1114
S'EJ'
p1115
aS'Emmanuel'
p1116
aS'completes'
p1117
aS'16'
p1118
aS'passes'
p1119
aS'for'
p1120
aS'79'
p1121
aS'yards'
p1122
asg22
S'EJ Emmanuel completes 16 passes for 79 yards '
p1123
sg24
S' Fuck Me Right? '
p1124
sg26
Vseth-from-superbad
p1125
sg28
(lp1126
g1115
ag1116
ag1117
ag1118
ag1119
ag1120
ag1121
ag1122
aS'Fuck'
p1127
aS'Me'
p1128
aS'Right'
p1129
ag33
asg34
(lp1130
g1127
ag1128
ag1129
ag33
asba(iMeme
Meme
p1131
(dp1132
g3
(lp1133
S'daud'
p1134
aS'dosent'
p1135
aS'need'
p1136
ag383
aS'teacher..'
p1137
asg22
S'daud dosent need a teacher.. '
p1138
sg24
S' aint that the funniest shhhh lol '
p1139
sg26
Vseth-from-superbad
p1140
sg28
(lp1141
g1134
ag1135
ag1136
ag383
ag1137
aS'aint'
p1142
aS'that'
p1143
aS'the'
p1144
aS'funniest'
p1145
aS'shhhh'
p1146
aS'lol'
p1147
asg34
(lp1148
g1142
ag1143
ag1144
ag1145
ag1146
ag1147
asba(iMeme
Meme
p1149
(dp1150
g3
(lp1151
S'why'
p1152
aS'would'
p1153
ag236
aS'touch'
p1154
aS'them'
p1155
aS'titties'
p1156
aS'when'
p1157
asg22
S'why would i touch them titties when '
p1158
sg24
S'  i have bigger ones right hereee! '
p1159
sg26
Vseth-from-superbad
p1160
sg28
(lp1161
g1152
ag1153
ag236
ag1154
ag1155
ag1156
ag1157
ag236
aS'have'
p1162
aS'bigger'
p1163
aS'ones'
p1164
aS'right'
p1165
aS'hereee'
p1166
ag47
asg34
(lp1167
g236
ag1162
ag1163
ag1164
ag1165
ag1166
ag47
asba(iMeme
Meme
p1168
(dp1169
g3
(lp1170
S'if'
p1171
ag383
aS'cannibal'
p1172
aS'wants'
p1173
aS'to'
p1174
aS'cut'
p1175
aS'me'
p1176
aS'or'
p1177
aS'fuck'
p1178
aS'me'
p1179
ag64
aS'what'
p1180
aS'will'
p1181
ag236
aS'say'
p1182
asg22
S'if a cannibal wants to cut me or fuck me, what will i say '
p1183
sg24
S' fuck me right '
p1184
sg26
Vseth-from-superbad
p1185
sg28
(lp1186
g1171
ag383
ag1172
ag1173
ag1174
ag1175
ag1176
ag1177
ag1178
ag1179
ag64
ag1180
ag1181
ag236
ag1182
aS'fuck'
p1187
aS'me'
p1188
aS'right'
p1189
asg34
(lp1190
g1187
ag1188
ag1189
asba(iMeme
Meme
p1191
(dp1192
g3
(lp1193
g5
aS'do'
p1194
aS"n't"
p1195
aS'have'
p1196
ag383
aS'bubblegum'
p1197
asg22
S"I don't have a bubblegum "
p1198
sg24
S' fuck me, right!? '
p1199
sg26
Vseth-from-superbad
p1200
sg28
(lp1201
g5
ag1194
ag1195
ag1196
ag383
ag1197
aS'fuck'
p1202
aS'me'
p1203
ag64
aS'right'
p1204
ag47
ag33
asg34
(lp1205
g1202
ag1203
ag64
ag1204
ag47
ag33
asba(iMeme
Meme
p1206
(dp1207
g3
(lp1208
g5
aS'shift'
p1209
aS'nervously'
p1210
aS'from'
p1211
aS'foot'
p1212
aS'to'
p1213
aS'foot'
p1214
aS'when'
p1215
ag236
aS'roast'
p1216
aS'James'
p1217
aS'Franco'
p1218
asg22
S'I shift nervously from foot to foot when i roast James Franco '
p1219
sg24
S' Fuck (step left) me (step) right? '
p1220
sg26
Vseth-from-superbad
p1221
sg28
(lp1222
g5
ag1209
ag1210
ag1211
ag1212
ag1213
ag1214
ag1215
ag236
ag1216
ag1217
ag1218
aS'Fuck'
p1223
aS'('
p1224
aS'step'
p1225
aS'left'
p1226
aS')'
p1227
aS'me'
p1228
ag1224
aS'step'
p1229
ag1227
aS'right'
p1230
ag33
asg34
(lp1231
g1223
ag1224
ag1225
ag1226
ag1227
ag1228
ag1224
ag1229
ag1227
ag1230
ag33
asba(iMeme
Meme
p1232
(dp1233
g3
(lp1234
g236
aS'spent'
p1235
aS'my'
p1236
aS'time'
p1237
aS'getting'
p1238
aS'straight'
p1239
ag383
aS"'s"
p1240
aS'in'
p1241
aS'high'
p1242
aS'school'
p1243
aS'and'
p1244
aS'college'
p1245
asg22
S"i spent my time getting straight a's in high school and college "
p1246
sg24
S' fuck me, right? '
p1247
sg26
Vseth-from-superbad
p1248
sg28
(lp1249
g236
ag1235
ag1236
ag1237
ag1238
ag1239
ag383
ag1240
ag1241
ag1242
ag1243
ag1244
ag1245
aS'fuck'
p1250
aS'me'
p1251
ag64
aS'right'
p1252
ag33
asg34
(lp1253
g1250
ag1251
ag64
ag1252
ag33
asba(iMeme
Meme
p1254
(dp1255
g3
(lp1256
g236
aS'want'
p1257
aS'to'
p1258
aS'go'
p1259
aS'to'
p1260
aS'sleep'
p1261
aS'in'
p1262
aS'the'
p1263
aS'middle'
p1264
aS'of'
p1265
aS'the'
p1266
aS'day'
p1267
aS'after'
p1268
aS'missing'
p1269
aS'up'
p1270
aS'on'
p1271
ag383
aS'lot'
p1272
aS'of'
p1273
aS'sleep'
p1274
aS'to'
p1275
aS'study'
p1276
aS'for'
p1277
aS'exams'
p1278
asg22
S'i want to go to sleep in the middle of the day after missing up on a lot of sleep to study for exams '
p1279
sg24
S' fuck me, right? '
p1280
sg26
Vseth-from-superbad
p1281
sg28
(lp1282
g236
ag1257
ag1258
ag1259
ag1260
ag1261
ag1262
ag1263
ag1264
ag1265
ag1266
ag1267
ag1268
ag1269
ag1270
ag1271
ag383
ag1272
ag1273
ag1274
ag1275
ag1276
ag1277
ag1278
aS'fuck'
p1283
aS'me'
p1284
ag64
aS'right'
p1285
ag33
asg34
(lp1286
g1283
ag1284
ag64
ag1285
ag33
asba(iMeme
Meme
p1287
(dp1288
g3
(lp1289
S'when'
p1290
aS'you'
p1291
aS'see'
p1292
aS'your'
p1293
aS'teacher'
p1294
aS'at'
p1295
asg22
S'when you see your teacher at '
p1296
sg24
S' the store and she talks to you '
p1297
sg26
Vseth-from-superbad
p1298
sg28
(lp1299
g1290
ag1291
ag1292
ag1293
ag1294
ag1295
aS'the'
p1300
aS'store'
p1301
aS'and'
p1302
aS'she'
p1303
aS'talks'
p1304
aS'to'
p1305
aS'you'
p1306
asg34
(lp1307
g1300
ag1301
ag1302
ag1303
ag1304
ag1305
ag1306
asba(iMeme
Meme
p1308
(dp1309
g3
(lp1310
g5
aS'do'
p1311
aS"n't"
p1312
aS'like'
p1313
aS'bitches'
p1314
asg22
S"I don't like bitches "
p1315
sg24
S'  '
p1316
sg26
Vseth-from-superbad
p1317
sg28
(lp1318
g5
ag1311
ag1312
ag1313
ag1314
asg34
(lp1319
sba(iMeme
Meme
p1320
(dp1321
g3
(lp1322
S'Trying'
p1323
aS'to'
p1324
aS'have'
p1325
aS'fun'
p1326
aS'in'
p1327
aS'airmech'
p1328
asg22
S'Trying to have fun in airmech '
p1329
sg24
S' Fuck me, right? '
p1330
sg26
Vseth-from-superbad
p1331
sg28
(lp1332
g1323
ag1324
ag1325
ag1326
ag1327
ag1328
aS'Fuck'
p1333
aS'me'
p1334
ag64
aS'right'
p1335
ag33
asg34
(lp1336
g1333
ag1334
ag64
ag1335
ag33
asba(iMeme
Meme
p1337
(dp1338
g3
(lp1339
S'Breakfast'
p1340
aS'&'
p1341
aS'lunch'
p1342
aS'in'
p1343
aS'one'
p1344
aS'box'
p1345
ag47
asg22
S'Breakfast & lunch in one box! '
p1346
sg24
S' you score major points! i might even fill your box.... '
p1347
sg26
Vseth-from-superbad
p1348
sg28
(lp1349
g1340
ag1341
ag1342
ag1343
ag1344
ag1345
ag47
aS'you'
p1350
aS'score'
p1351
aS'major'
p1352
aS'points'
p1353
ag47
ag236
aS'might'
p1354
aS'even'
p1355
aS'fill'
p1356
aS'your'
p1357
aS'box'
p1358
aS'...'
p1359
ag179
asg34
(lp1360
g1350
ag1351
ag1352
ag1353
ag47
ag236
ag1354
ag1355
ag1356
ag1357
ag1358
ag1359
ag179
asba(iMeme
Meme
p1361
(dp1362
g3
(lp1363
g236
aS'want'
p1364
aS'to'
p1365
aS'study'
p1366
aS'hard'
p1367
aS'enough'
p1368
aS'to'
p1369
aS'pass'
p1370
aS'my'
p1371
aS'classes'
p1372
aS'and'
p1373
aS'not'
p1374
aS'sacrifice'
p1375
aS'sleep'
p1376
aS'or'
p1377
aS'social'
p1378
aS'life'
p1379
asg22
S'i want to study hard enough to pass my classes and not sacrifice sleep or social life '
p1380
sg24
S' fuck me, right? '
p1381
sg26
Vseth-from-superbad
p1382
sg28
(lp1383
g236
ag1364
ag1365
ag1366
ag1367
ag1368
ag1369
ag1370
ag1371
ag1372
ag1373
ag1374
ag1375
ag1376
ag1377
ag1378
ag1379
aS'fuck'
p1384
aS'me'
p1385
ag64
aS'right'
p1386
ag33
asg34
(lp1387
g1384
ag1385
ag64
ag1386
ag33
asba(iMeme
Meme
p1388
(dp1389
g3
(lp1390
S'What'
p1391
ag383
aS'douche'
p1392
asg22
S'What a douche '
p1393
sg24
S' He wants a console that plays games '
p1394
sg26
Vseth-from-superbad
p1395
sg28
(lp1396
g1391
ag383
ag1392
aS'He'
p1397
aS'wants'
p1398
ag383
aS'console'
p1399
aS'that'
p1400
aS'plays'
p1401
aS'games'
p1402
asg34
(lp1403
g1397
ag1398
ag383
ag1399
ag1400
ag1401
ag1402
asba(iMeme
Meme
p1404
(dp1405
g3
(lp1406
S'im'
p1407
ag383
aS'toronto'
p1408
aS'fan'
p1409
asg22
S'im a toronto fan '
p1410
sg24
S' fuck me right? '
p1411
sg26
Vseth-from-superbad
p1412
sg28
(lp1413
g1407
ag383
ag1408
ag1409
aS'fuck'
p1414
aS'me'
p1415
aS'right'
p1416
ag33
asg34
(lp1417
g1414
ag1415
ag1416
ag33
asba(iMeme
Meme
p1418
(dp1419
g3
(lp1420
g5
aS'use'
p1421
aS'the'
p1422
aS'start'
p1423
aS'menu'
p1424
ag179
asg22
S'I use the start menu. '
p1425
sg24
S' fuck me, right? '
p1426
sg26
Vseth-from-superbad
p1427
sg28
(lp1428
g5
ag1421
ag1422
ag1423
ag1424
ag179
aS'fuck'
p1429
aS'me'
p1430
ag64
aS'right'
p1431
ag33
asg34
(lp1432
g1429
ag1430
ag64
ag1431
ag33
asba(iMeme
Meme
p1433
(dp1434
g3
(lp1435
S'want'
p1436
aS'to'
p1437
aS'hit'
p1438
aS'30t'
p1439
aS'but'
p1440
aS'cant'
p1441
aS'be'
p1442
aS'arsed'
p1443
asg22
S'want to hit 30t but cant be arsed '
p1444
sg24
S' fuck me, right?? '
p1445
sg26
Vseth-from-superbad
p1446
sg28
(lp1447
g1436
ag1437
ag1438
ag1439
ag1440
ag1441
ag1442
ag1443
aS'fuck'
p1448
aS'me'
p1449
ag64
aS'right'
p1450
ag33
ag33
asg34
(lp1451
g1448
ag1449
ag64
ag1450
ag33
ag33
asba(iMeme
Meme
p1452
(dp1453
g3
(lp1454
g236
aS'like'
p1455
aS'granola'
p1456
ag64
aS'and'
p1457
ag236
aS'eat'
p1458
aS'moderately'
p1459
aS'healthy'
p1460
asg22
S'i like granola, and i eat moderately healthy '
p1461
sg24
S' fuck me right? '
p1462
sg26
Vseth-from-superbad
p1463
sg28
(lp1464
g236
ag1455
ag1456
ag64
ag1457
ag236
ag1458
ag1459
ag1460
aS'fuck'
p1465
aS'me'
p1466
aS'right'
p1467
ag33
asg34
(lp1468
g1465
ag1466
ag1467
ag33
asba(iMeme
Meme
p1469
(dp1470
g3
(lp1471
S'wanted'
p1472
aS'to'
p1473
aS'spend'
p1474
aS'last'
p1475
aS'couple'
p1476
aS'of'
p1477
aS'days'
p1478
aS'of'
p1479
aS'college'
p1480
aS'with'
p1481
aS'the'
p1482
aS'community'
p1483
ag236
aS'invested'
p1484
aS'in'
p1485
aS'for'
p1486
aS'the'
p1487
aS'last'
p1488
aS'three'
p1489
aS'years'
p1490
asg22
S'wanted to spend last couple of days of college with the community i invested in for the last three years '
p1491
sg24
S' screw me right '
p1492
sg26
Vseth-from-superbad
p1493
sg28
(lp1494
g1472
ag1473
ag1474
ag1475
ag1476
ag1477
ag1478
ag1479
ag1480
ag1481
ag1482
ag1483
ag236
ag1484
ag1485
ag1486
ag1487
ag1488
ag1489
ag1490
aS'screw'
p1495
aS'me'
p1496
aS'right'
p1497
asg34
(lp1498
g1495
ag1496
ag1497
asba(iMeme
Meme
p1499
(dp1500
g3
(lp1501
g236
aS'wanted'
p1502
aS'to'
p1503
aS'spend'
p1504
aS'last'
p1505
aS'couple'
p1506
aS'of'
p1507
aS'days'
p1508
aS'with'
p1509
aS'the'
p1510
aS'community'
p1511
ag236
aS'invested'
p1512
aS'in'
p1513
aS'for'
p1514
aS'the'
p1515
aS'last'
p1516
aS'two'
p1517
aS'years'
p1518
asg22
S'i wanted to spend last couple of days with the community i invested in for the last two years '
p1519
sg24
S' screw me right? '
p1520
sg26
Vseth-from-superbad
p1521
sg28
(lp1522
g236
ag1502
ag1503
ag1504
ag1505
ag1506
ag1507
ag1508
ag1509
ag1510
ag1511
ag236
ag1512
ag1513
ag1514
ag1515
ag1516
ag1517
ag1518
aS'screw'
p1523
aS'me'
p1524
aS'right'
p1525
ag33
asg34
(lp1526
g1523
ag1524
ag1525
ag33
asba(iMeme
Meme
p1527
(dp1528
g3
(lp1529
g5
aS"'m"
p1530
aS'level'
p1531
aS'5'
p1532
asg22
S"I'm level 5 "
p1533
sg24
S' fuck me, right? '
p1534
sg26
Vseth-from-superbad
p1535
sg28
(lp1536
g5
ag1530
ag1531
ag1532
aS'fuck'
p1537
aS'me'
p1538
ag64
aS'right'
p1539
ag33
asg34
(lp1540
g1537
ag1538
ag64
ag1539
ag33
asba(iMeme
Meme
p1541
(dp1542
g3
(lp1543
g5
aS"'m"
p1544
aS'playing'
p1545
aS'at'
p1546
aS'riva'
p1547
aS'tonight'
p1548
asg22
S"I'm playing at riva tonight "
p1549
sg24
S' Fuck me right! '
p1550
sg26
Vseth-from-superbad
p1551
sg28
(lp1552
g5
ag1544
ag1545
ag1546
ag1547
ag1548
aS'Fuck'
p1553
aS'me'
p1554
aS'right'
p1555
ag47
asg34
(lp1556
g1553
ag1554
ag1555
ag47
asba(iMeme
Meme
p1557
(dp1558
g3
(lp1559
g236
aS'think'
p1560
aS'stealing'
p1561
aS'10k'
p1562
aS'worth'
p1563
aS'of'
p1564
aS'goods'
p1565
aS'from'
p1566
aS'any'
p1567
aS'business'
p1568
aS'is'
p1569
aS'wrong'
p1570
asg22
S'i think stealing 10k worth of goods from any business is wrong '
p1571
sg24
S' fuck me, right? '
p1572
sg26
Vseth-from-superbad
p1573
sg28
(lp1574
g236
ag1560
ag1561
ag1562
ag1563
ag1564
ag1565
ag1566
ag1567
ag1568
ag1569
ag1570
aS'fuck'
p1575
aS'me'
p1576
ag64
aS'right'
p1577
ag33
asg34
(lp1578
g1575
ag1576
ag64
ag1577
ag33
asba(iMeme
Meme
p1579
(dp1580
g3
(lp1581
S'if'
p1582
ag383
aS'cannibal'
p1583
aS'wants'
p1584
aS'to'
p1585
aS'cut'
p1586
aS'me'
p1587
aS'or'
p1588
aS'fuck'
p1589
aS'me'
p1590
ag64
aS'what'
p1591
aS'will'
p1592
ag236
aS'say'
p1593
asg22
S'if a cannibal wants to cut me or fuck me, what will i say '
p1594
sg24
S' fuck me right? '
p1595
sg26
Vseth-from-superbad
p1596
sg28
(lp1597
g1582
ag383
ag1583
ag1584
ag1585
ag1586
ag1587
ag1588
ag1589
ag1590
ag64
ag1591
ag1592
ag236
ag1593
aS'fuck'
p1598
aS'me'
p1599
aS'right'
p1600
ag33
asg34
(lp1601
g1598
ag1599
ag1600
ag33
asba(iMeme
Meme
p1602
(dp1603
g3
(lp1604
g5
aS'have'
p1605
ag383
aS'hard'
p1606
aS'time'
p1607
aS'trusting'
p1608
aS'females'
p1609
asg22
S'I have a hard time trusting females '
p1610
sg24
S' fuck me,right? '
p1611
sg26
Vseth-from-superbad
p1612
sg28
(lp1613
g5
ag1605
ag383
ag1606
ag1607
ag1608
ag1609
aS'fuck'
p1614
aS'me'
p1615
ag64
aS'right'
p1616
ag33
asg34
(lp1617
g1614
ag1615
ag64
ag1616
ag33
asba(iMeme
Meme
p1618
(dp1619
g3
(lp1620
g5
aS'just'
p1621
aS'want'
p1622
aS'to'
p1623
aS'forget'
p1624
aS'everything'
p1625
ag64
aS'and'
p1626
aS'start'
p1627
aS'fresh'
p1628
ag179
asg22
S'I just want to forget everything, and start fresh. '
p1629
sg24
S' fuck me, right? '
p1630
sg26
Vseth-from-superbad
p1631
sg28
(lp1632
g5
ag1621
ag1622
ag1623
ag1624
ag1625
ag64
ag1626
ag1627
ag1628
ag179
aS'fuck'
p1633
aS'me'
p1634
ag64
aS'right'
p1635
ag33
asg34
(lp1636
g1633
ag1634
ag64
ag1635
ag33
asba(iMeme
Meme
p1637
(dp1638
g3
(lp1639
S'You'
p1640
aS'getting'
p1641
aS'ganked'
p1642
aS'is'
p1643
aS'my'
p1644
aS'fault'
p1645
asg22
S'You getting ganked is my fault '
p1646
sg24
S' fuck me, right? '
p1647
sg26
Vseth-from-superbad
p1648
sg28
(lp1649
g1640
ag1641
ag1642
ag1643
ag1644
ag1645
aS'fuck'
p1650
aS'me'
p1651
ag64
aS'right'
p1652
ag33
asg34
(lp1653
g1650
ag1651
ag64
ag1652
ag33
asba(iMeme
Meme
p1654
(dp1655
g3
(lp1656
S'Formation'
p1657
aS'has'
p1658
aS'been'
p1659
aS'postponed'
p1660
asg22
S'Formation has been postponed '
p1661
sg24
S' Fuck me, right? '
p1662
sg26
Vseth-from-superbad
p1663
sg28
(lp1664
g1657
ag1658
ag1659
ag1660
aS'Fuck'
p1665
aS'me'
p1666
ag64
aS'right'
p1667
ag33
asg34
(lp1668
g1665
ag1666
ag64
ag1667
ag33
asba(iMeme
Meme
p1669
(dp1670
g3
(lp1671
S'steve'
p1672
aS'says'
p1673
asg22
S'steve says  '
p1674
sg24
S" 'im not aloud no more burgers' "
p1675
sg26
Vseth-from-superbad
p1676
sg28
(lp1677
g1672
ag1673
aS"'im"
p1678
aS'not'
p1679
aS'aloud'
p1680
aS'no'
p1681
aS'more'
p1682
aS'burgers'
p1683
aS"'"
p1684
asg34
(lp1685
g1678
ag1679
ag1680
ag1681
ag1682
ag1683
ag1684
asba(iMeme
Meme
p1686
(dp1687
g3
(lp1688
g5
aS'take'
p1689
aS'my'
p1690
aS'time'
p1691
aS'to'
p1692
aS'make'
p1693
aS'sure'
p1694
aS'your'
p1695
aS'potentially'
p1696
aS'lethal'
p1697
aS'medications'
p1698
aS'are'
p1699
aS'correct'
p1700
aS'...'
p1701
asg22
S'I take my time to make sure your potentially lethal medications are correct... '
p1702
sg24
S' Fuck me, Right? '
p1703
sg26
Vseth-from-superbad
p1704
sg28
(lp1705
g5
ag1689
ag1690
ag1691
ag1692
ag1693
ag1694
ag1695
ag1696
ag1697
ag1698
ag1699
ag1700
ag1701
aS'Fuck'
p1706
aS'me'
p1707
ag64
aS'Right'
p1708
ag33
asg34
(lp1709
g1706
ag1707
ag64
ag1708
ag33
asba(iMeme
Meme
p1710
(dp1711
g3
(lp1712
S'Did'
p1713
aS"n't"
p1714
aS'kiss'
p1715
aS'my'
p1716
aS'girlfriend'
p1717
aS'goodbye'
p1718
asg22
S"Didn't kiss my girlfriend goodbye "
p1719
sg24
S' fuck me right '
p1720
sg26
Vseth-from-superbad
p1721
sg28
(lp1722
g1713
ag1714
ag1715
ag1716
ag1717
ag1718
aS'fuck'
p1723
aS'me'
p1724
aS'right'
p1725
asg34
(lp1726
g1723
ag1724
ag1725
asba(iMeme
Meme
p1727
(dp1728
g3
(lp1729
S'who'
p1730
aS'the'
p1731
aS'fucks'
p1732
aS'jimmy'
p1733
aS'savile'
p1734
asg22
S'who the fucks jimmy savile '
p1735
sg24
S'  '
p1736
sg26
Vseth-from-superbad
p1737
sg28
(lp1738
g1730
ag1731
ag1732
ag1733
ag1734
asg34
(lp1739
sba(iMeme
Meme
p1740
(dp1741
g3
(lp1742
S'When'
p1743
aS'you'
p1744
aS'say'
p1745
aS'you'
p1746
aS"'re"
p1747
aS'going'
p1748
aS'to'
p1749
aS'do'
p1750
aS'something'
p1751
ag64
ag5
aS'think'
p1752
aS'it'
p1753
aS'means'
p1754
aS'you'
p1755
aS"'re"
p1756
aS'actually'
p1757
aS'going'
p1758
aS'to'
p1759
aS'do'
p1760
aS'it'
p1761
asg22
S"When you say you're going to do something, I think it means you're actually going to do it "
p1762
sg24
S' fuck me, right? '
p1763
sg26
Vseth-from-superbad
p1764
sg28
(lp1765
g1743
ag1744
ag1745
ag1746
ag1747
ag1748
ag1749
ag1750
ag1751
ag64
ag5
ag1752
ag1753
ag1754
ag1755
ag1756
ag1757
ag1758
ag1759
ag1760
ag1761
aS'fuck'
p1766
aS'me'
p1767
ag64
aS'right'
p1768
ag33
asg34
(lp1769
g1766
ag1767
ag64
ag1768
ag33
asba(iMeme
Meme
p1770
(dp1771
g3
(lp1772
S'told'
p1773
aS'someone'
p1774
aS'was'
p1775
aS'pretty'
p1776
ag64
aS'Got'
p1777
aS'downvoted'
p1778
asg22
S'told someone was pretty, Got downvoted '
p1779
sg24
S' Fuck me, right? '
p1780
sg26
Vseth-from-superbad
p1781
sg28
(lp1782
g1773
ag1774
ag1775
ag1776
ag64
ag1777
ag1778
aS'Fuck'
p1783
aS'me'
p1784
ag64
aS'right'
p1785
ag33
asg34
(lp1786
g1783
ag1784
ag64
ag1785
ag33
asba(iMeme
Meme
p1787
(dp1788
g3
(lp1789
S'Where'
p1790
aS"'s"
p1791
aS'the'
p1792
aS'party'
p1793
ag33
asg22
S"Where's the party? "
p1794
sg24
S" Wait, what's A party? "
p1795
sg26
Vseth-from-superbad
p1796
sg28
(lp1797
g1790
ag1791
ag1792
ag1793
ag33
aS'Wait'
p1798
ag64
aS'what'
p1799
aS"'s"
p1800
aS'A'
p1801
aS'party'
p1802
ag33
asg34
(lp1803
g1798
ag64
ag1799
ag1800
ag1801
ag1802
ag33
asba(iMeme
Meme
p1804
(dp1805
g3
(lp1806
g236
aS'got'
p1807
aS'period'
p1808
aS'blood'
p1809
aS'on'
p1810
aS'my'
p1811
aS'leg'
p1812
ag33
asg22
S'i got period blood on my leg? '
p1813
sg24
S' nigga i aint worried bout nun '
p1814
sg26
Vseth-from-superbad
p1815
sg28
(lp1816
g236
ag1807
ag1808
ag1809
ag1810
ag1811
ag1812
ag33
aS'nigga'
p1817
ag236
aS'aint'
p1818
aS'worried'
p1819
aS'bout'
p1820
aS'nun'
p1821
asg34
(lp1822
g1817
ag236
ag1818
ag1819
ag1820
ag1821
asba(iMeme
Meme
p1823
(dp1824
g3
(lp1825
g5
aS"'m"
p1826
aS'atheist'
p1827
aS'but'
p1828
aS'celebrate'
p1829
aS'easter'
p1830
aS'to'
p1831
aS'get'
p1832
aS'toys'
p1833
aS'and'
p1834
aS'candy'
p1835
asg22
S"I'm atheist but celebrate easter to get toys and candy "
p1836
sg24
S' FUck me, right? '
p1837
sg26
Vseth-from-superbad
p1838
sg28
(lp1839
g5
ag1826
ag1827
ag1828
ag1829
ag1830
ag1831
ag1832
ag1833
ag1834
ag1835
aS'FUck'
p1840
aS'me'
p1841
ag64
aS'right'
p1842
ag33
asg34
(lp1843
g1840
ag1841
ag64
ag1842
ag33
asba(iMeme
Meme
p1844
(dp1845
g3
(lp1846
g5
aS'care'
p1847
aS'for'
p1848
aS'my'
p1849
aS'friends'
p1850
asg22
S'I care for my friends '
p1851
sg24
S' Fuck me, right? '
p1852
sg26
Vseth-from-superbad
p1853
sg28
(lp1854
g5
ag1847
ag1848
ag1849
ag1850
aS'Fuck'
p1855
aS'me'
p1856
ag64
aS'right'
p1857
ag33
asg34
(lp1858
g1855
ag1856
ag64
ag1857
ag33
asba(iMeme
Meme
p1859
(dp1860
g3
(lp1861
g5
aS"'m"
p1862
aS'just'
p1863
aS'trying'
p1864
aS'to'
p1865
aS'make'
p1866
aS'sure'
p1867
aS'you'
p1868
aS'do'
p1869
aS"n't"
p1870
aS'get'
p1871
aS'embarrassed'
p1872
ag64
aS'reprimanded'
p1873
ag64
aS'or'
p1874
aS'fired'
p1875
asg22
S"I'm just trying to make sure you don't get embarrassed, reprimanded, or fired  "
p1876
sg24
S' Fuck me, right? '
p1877
sg26
Vseth-from-superbad
p1878
sg28
(lp1879
g5
ag1862
ag1863
ag1864
ag1865
ag1866
ag1867
ag1868
ag1869
ag1870
ag1871
ag1872
ag64
ag1873
ag64
ag1874
ag1875
aS'Fuck'
p1880
aS'me'
p1881
ag64
aS'right'
p1882
ag33
asg34
(lp1883
g1880
ag1881
ag64
ag1882
ag33
asba(iMeme
Meme
p1884
(dp1885
g3
(lp1886
S'Actually'
p1887
aS'wants'
p1888
aS'to'
p1889
aS'be'
p1890
aS'food'
p1891
aS'rep'
p1892
asg22
S'Actually wants to be food rep '
p1893
sg24
S' Fuck me right                             Vote Baileigh '
p1894
sg26
Vseth-from-superbad
p1895
sg28
(lp1896
g1887
ag1888
ag1889
ag1890
ag1891
ag1892
aS'Fuck'
p1897
aS'me'
p1898
aS'right'
p1899
aS'Vote'
p1900
aS'Baileigh'
p1901
asg34
(lp1902
g1897
ag1898
ag1899
ag1900
ag1901
asba(iMeme
Meme
p1903
(dp1904
g3
(lp1905
g5
aS'expect'
p1906
aS'people'
p1907
aS'who'
p1908
aS'run'
p1909
aS'companies'
p1910
aS'to'
p1911
aS'me'
p1912
aS'somewhat'
p1913
aS'mature'
p1914
ag179
asg22
S'I expect people who run companies to me somewhat mature.  '
p1915
sg24
S' FUCK ME, RIGHT!? '
p1916
sg26
Vseth-from-superbad
p1917
sg28
(lp1918
g5
ag1906
ag1907
ag1908
ag1909
ag1910
ag1911
ag1912
ag1913
ag1914
ag179
aS'FUCK'
p1919
aS'ME'
p1920
ag64
aS'RIGHT'
p1921
ag47
ag33
asg34
(lp1922
g1919
ag1920
ag64
ag1921
ag47
ag33
asba(iMeme
Meme
p1923
(dp1924
g3
(lp1925
g5
aS'was'
p1926
aS'only'
p1927
ag383
aS'stable'
p1928
aS'man'
p1929
aS'in'
p1930
aS'your'
p1931
aS'life'
p1932
ag47
aS'You'
p1933
aS'loved'
p1934
aS'you'
p1935
aS'and'
p1936
aS'your'
p1937
aS'daughter'
p1938
aS'unconditionally'
p1939
ag47
asg22
S'I was only a stable man in your life! You loved you and your daughter unconditionally! '
p1940
sg24
S' Fuck Me, Right? '
p1941
sg26
Vseth-from-superbad
p1942
sg28
(lp1943
g5
ag1926
ag1927
ag383
ag1928
ag1929
ag1930
ag1931
ag1932
ag47
ag1933
ag1934
ag1935
ag1936
ag1937
ag1938
ag1939
ag47
aS'Fuck'
p1944
aS'Me'
p1945
ag64
aS'Right'
p1946
ag33
asg34
(lp1947
g1944
ag1945
ag64
ag1946
ag33
asba(iMeme
Meme
p1948
(dp1949
g3
(lp1950
g5
aS"'m"
p1951
aS'worried'
p1952
aS'for'
p1953
aS'humanity'
p1954
asg22
S"I'm worried for humanity  "
p1955
sg24
S' fuck me, right?! '
p1956
sg26
Vseth-from-superbad
p1957
sg28
(lp1958
g5
ag1951
ag1952
ag1953
ag1954
aS'fuck'
p1959
aS'me'
p1960
ag64
aS'right'
p1961
ag33
ag47
asg34
(lp1962
g1959
ag1960
ag64
ag1961
ag33
ag47
asba(iMeme
Meme
p1963
(dp1964
g3
(lp1965
S'Guy'
p1966
aS'asked'
p1967
aS'me'
p1968
aS'why'
p1969
ag5
aS'would'
p1970
aS"n't"
p1971
aS'go'
p1972
aS'out'
p1973
aS'with'
p1974
aS'him'
p1975
ag179
ag5
aS'was'
p1976
aS'honest'
p1977
aS'and'
p1978
aS'said'
p1979
ag5
aS"'m"
p1980
aS'not'
p1981
aS'into'
p1982
aS'Asians'
p1983
ag179
asg22
S"Guy asked me why I wouldn't go out with him. I was honest and said I'm not into Asians. "
p1984
sg24
S" Now he tell's everyone I'm racist. Fuck me Right for being honest.  "
p1985
sg26
Vseth-from-superbad
p1986
sg28
(lp1987
g1966
ag1967
ag1968
ag1969
ag5
ag1970
ag1971
ag1972
ag1973
ag1974
ag1975
ag179
ag5
ag1976
ag1977
ag1978
ag1979
ag5
ag1980
ag1981
ag1982
ag1983
ag179
aS'Now'
p1988
aS'he'
p1989
aS'tell'
p1990
aS"'s"
p1991
aS'everyone'
p1992
ag5
aS"'m"
p1993
aS'racist'
p1994
ag179
aS'Fuck'
p1995
aS'me'
p1996
aS'Right'
p1997
aS'for'
p1998
aS'being'
p1999
aS'honest'
p2000
ag179
asg34
(lp2001
g1988
ag1989
ag1990
ag1991
ag1992
ag5
ag1993
ag1994
ag179
ag1995
ag1996
ag1997
ag1998
ag1999
ag2000
ag179
asba(iMeme
Meme
p2002
(dp2003
g3
(lp2004
g5
aS'want'
p2005
aS'to'
p2006
aS'make'
p2007
aS'the'
p2008
aS'woman'
p2009
aS'who'
p2010
aS'can'
p2011
aS'stand'
p2012
aS'to'
p2013
aS'let'
p2014
aS'me'
p2015
aS'stick'
p2016
aS'my'
p2017
aS'dick'
p2018
aS'inside'
p2019
aS'of'
p2020
aS'her'
p2021
aS'happy'
p2022
ag179
asg22
S'I want to make the woman who can stand to let me stick my dick inside of her happy. '
p2023
sg24
S' Fuck me, right? '
p2024
sg26
Vseth-from-superbad
p2025
sg28
(lp2026
g5
ag2005
ag2006
ag2007
ag2008
ag2009
ag2010
ag2011
ag2012
ag2013
ag2014
ag2015
ag2016
ag2017
ag2018
ag2019
ag2020
ag2021
ag2022
ag179
aS'Fuck'
p2027
aS'me'
p2028
ag64
aS'right'
p2029
ag33
asg34
(lp2030
g2027
ag2028
ag64
ag2029
ag33
asba(iMeme
Meme
p2031
(dp2032
g3
(lp2033
g5
aS'was'
p2034
aS'just'
p2035
aS'trying'
p2036
aS'to'
p2037
aS'be'
p2038
ag383
aS'nice'
p2039
aS'neighbor'
p2040
ag179
asg22
S'I was just trying to be a nice neighbor. '
p2041
sg24
S' Fuck me right '
p2042
sg26
Vseth-from-superbad
p2043
sg28
(lp2044
g5
ag2034
ag2035
ag2036
ag2037
ag2038
ag383
ag2039
ag2040
ag179
aS'Fuck'
p2045
aS'me'
p2046
aS'right'
p2047
asg34
(lp2048
g2045
ag2046
ag2047
asba(iMeme
Meme
p2049
(dp2050
g3
(lp2051
S'Actually'
p2052
aS'wants'
p2053
aS'to'
p2054
aS'be'
p2055
aS'food'
p2056
aS'rep'
p2057
asg22
S'Actually wants to be food rep '
p2058
sg24
S' Fuck me riight      Vote Baileigh '
p2059
sg26
Vseth-from-superbad
p2060
sg28
(lp2061
g2052
ag2053
ag2054
ag2055
ag2056
ag2057
aS'Fuck'
p2062
aS'me'
p2063
aS'riight'
p2064
aS'Vote'
p2065
aS'Baileigh'
p2066
asg34
(lp2067
g2062
ag2063
ag2064
ag2065
ag2066
asba(iMeme
Meme
p2068
(dp2069
g3
(lp2070
S'Actually'
p2071
aS'wants'
p2072
aS'to'
p2073
aS'be'
p2074
aS'food'
p2075
aS'rep'
p2076
asg22
S'Actually wants to be food rep '
p2077
sg24
S' Fuck me right             Vote Baileigh '
p2078
sg26
Vseth-from-superbad
p2079
sg28
(lp2080
g2071
ag2072
ag2073
ag2074
ag2075
ag2076
aS'Fuck'
p2081
aS'me'
p2082
aS'right'
p2083
aS'Vote'
p2084
aS'Baileigh'
p2085
asg34
(lp2086
g2081
ag2082
ag2083
ag2084
ag2085
asba(iMeme
Meme
p2087
(dp2088
g3
(lp2089
S'Of'
p2090
aS'course'
p2091
aS'it'
p2092
aS"'s"
p2093
aS'sunny'
p2094
aS'today'
p2095
asg22
S"Of course it's sunny today "
p2096
sg24
S' FUCK ME, RIGHT? '
p2097
sg26
Vseth-from-superbad
p2098
sg28
(lp2099
g2090
ag2091
ag2092
ag2093
ag2094
ag2095
aS'FUCK'
p2100
aS'ME'
p2101
ag64
aS'RIGHT'
p2102
ag33
asg34
(lp2103
g2100
ag2101
ag64
ag2102
ag33
asba(iMeme
Meme
p2104
(dp2105
g3
(lp2106
g5
aS'totally'
p2107
aS'control'
p2108
asg22
S'I totally control '
p2109
sg24
S' how much i smiled today '
p2110
sg26
Vseth-from-superbad
p2111
sg28
(lp2112
g5
ag2107
ag2108
aS'how'
p2113
aS'much'
p2114
ag236
aS'smiled'
p2115
aS'today'
p2116
asg34
(lp2117
g2113
ag2114
ag236
ag2115
ag2116
asba(iMeme
Meme
p2118
(dp2119
g3
(lp2120
S'Of'
p2121
aS'course'
p2122
aS'it'
p2123
aS"'s"
p2124
aS'sunny'
p2125
aS'today'
p2126
asg22
S"Of course it's sunny today "
p2127
sg24
S' FUCK ME, RIGHT!? '
p2128
sg26
Vseth-from-superbad
p2129
sg28
(lp2130
g2121
ag2122
ag2123
ag2124
ag2125
ag2126
aS'FUCK'
p2131
aS'ME'
p2132
ag64
aS'RIGHT'
p2133
ag47
ag33
asg34
(lp2134
g2131
ag2132
ag64
ag2133
ag47
ag33
asba(iMeme
Meme
p2135
(dp2136
g3
(lp2137
g5
aS'just'
p2138
aS'wanted'
p2139
ag383
aS'peaceful'
p2140
aS'night'
p2141
aS'of'
p2142
aS'sleep'
p2143
asg22
S'I just wanted a peaceful night of sleep  '
p2144
sg24
S' F*** me right? '
p2145
sg26
Vseth-from-superbad
p2146
sg28
(lp2147
g5
ag2138
ag2139
ag383
ag2140
ag2141
ag2142
ag2143
aS'F***'
p2148
aS'me'
p2149
aS'right'
p2150
ag33
asg34
(lp2151
g2148
ag2149
ag2150
ag33
asba(iMeme
Meme
p2152
(dp2153
g3
(lp2154
g5
aS'just'
p2155
aS'want'
p2156
aS'to'
p2157
aS'walk'
p2158
aS'properly'
p2159
aS'again'
p2160
asg22
S'I just want to walk properly again '
p2161
sg24
S' Fuck me, right? '
p2162
sg26
Vseth-from-superbad
p2163
sg28
(lp2164
g5
ag2155
ag2156
ag2157
ag2158
ag2159
ag2160
aS'Fuck'
p2165
aS'me'
p2166
ag64
aS'right'
p2167
ag33
asg34
(lp2168
g2165
ag2166
ag64
ag2167
ag33
asba(iMeme
Meme
p2169
(dp2170
g3
(lp2171
g5
aS"'m"
p2172
aS'just'
p2173
aS'trying'
p2174
aS'to'
p2175
aS'help'
p2176
aS'the'
p2177
aS'customer'
p2178
asg22
S"I'm just trying to help the customer "
p2179
sg24
S' Eff me right '
p2180
sg26
Vseth-from-superbad
p2181
sg28
(lp2182
g5
ag2172
ag2173
ag2174
ag2175
ag2176
ag2177
ag2178
aS'Eff'
p2183
aS'me'
p2184
aS'right'
p2185
asg34
(lp2186
g2183
ag2184
ag2185
asba(iMeme
Meme
p2187
(dp2188
g3
(lp2189
g5
aS"'m"
p2190
aS'actually'
p2191
aS'excited'
p2192
aS'for'
p2193
aS'the'
p2194
aS'new'
p2195
aS'Doctor'
p2196
ag179
asg22
S"I'm actually excited for the new Doctor. "
p2197
sg24
S' Fuck me, right? '
p2198
sg26
Vseth-from-superbad
p2199
sg28
(lp2200
g5
ag2190
ag2191
ag2192
ag2193
ag2194
ag2195
ag2196
ag179
aS'Fuck'
p2201
aS'me'
p2202
ag64
aS'right'
p2203
ag33
asg34
(lp2204
g2201
ag2202
ag64
ag2203
ag33
asba(iMeme
Meme
p2205
(dp2206
g3
(lp2207
S'my'
p2208
aS'feelings'
p2209
aS'towards'
p2210
aS'women'
p2211
aS'are'
p2212
aS'based'
p2213
aS'on'
p2214
aS'how'
p2215
ag5
aS"'ve"
p2216
aS'been'
p2217
aS'treated'
p2218
asg22
S"my feelings towards women are based on how I've been treated "
p2219
sg24
S' fuck me, right? '
p2220
sg26
Vseth-from-superbad
p2221
sg28
(lp2222
g2208
ag2209
ag2210
ag2211
ag2212
ag2213
ag2214
ag2215
ag5
ag2216
ag2217
ag2218
aS'fuck'
p2223
aS'me'
p2224
ag64
aS'right'
p2225
ag33
asg34
(lp2226
g2223
ag2224
ag64
ag2225
ag33
asba(iMeme
Meme
p2227
(dp2228
g3
(lp2229
g5
aS'actually'
p2230
aS'treat'
p2231
aS'girls'
p2232
aS'good'
p2233
asg22
S'I actually treat girls good '
p2234
sg24
S' fuck me, right? '
p2235
sg26
Vseth-from-superbad
p2236
sg28
(lp2237
g5
ag2230
ag2231
ag2232
ag2233
aS'fuck'
p2238
aS'me'
p2239
ag64
aS'right'
p2240
ag33
asg34
(lp2241
g2238
ag2239
ag64
ag2240
ag33
asba(iMeme
Meme
p2242
(dp2243
g3
(lp2244
g5
aS'have'
p2245
ag383
aS'hard'
p2246
aS'time'
p2247
aS'trusting'
p2248
aS'females'
p2249
asg22
S'I have a hard time trusting females '
p2250
sg24
S' fuck me,right? '
p2251
sg26
Vseth-from-superbad
p2252
sg28
(lp2253
g5
ag2245
ag383
ag2246
ag2247
ag2248
ag2249
aS'fuck'
p2254
aS'me'
p2255
ag64
aS'right'
p2256
ag33
asg34
(lp2257
g2254
ag2255
ag64
ag2256
ag33
asba(iMeme
Meme
p2258
(dp2259
g3
(lp2260
g5
aS'actually'
p2261
aS'treat'
p2262
aS'girls'
p2263
aS'good'
p2264
asg22
S'I actually treat girls good '
p2265
sg24
S' fuck me, right? '
p2266
sg26
Vseth-from-superbad
p2267
sg28
(lp2268
g5
ag2261
ag2262
ag2263
ag2264
aS'fuck'
p2269
aS'me'
p2270
ag64
aS'right'
p2271
ag33
asg34
(lp2272
g2269
ag2270
ag64
ag2271
ag33
asba(iMeme
Meme
p2273
(dp2274
g3
(lp2275
g5
aS'actually'
p2276
aS'treat'
p2277
aS'girls'
p2278
aS'right'
p2279
asg22
S'I actually treat girls right '
p2280
sg24
S' fuck me, right?  '
p2281
sg26
Vseth-from-superbad
p2282
sg28
(lp2283
g5
ag2276
ag2277
ag2278
ag2279
aS'fuck'
p2284
aS'me'
p2285
ag64
aS'right'
p2286
ag33
asg34
(lp2287
g2284
ag2285
ag64
ag2286
ag33
asba(iMeme
Meme
p2288
(dp2289
g3
(lp2290
S'cant'
p2291
aS'even'
p2292
aS'get'
p2293
ag383
aS'quote'
p2294
asg22
S'cant even get a quote '
p2295
sg24
S' to clean the masjid LMAO '
p2296
sg26
Vseth-from-superbad
p2297
sg28
(lp2298
g2291
ag2292
ag2293
ag383
ag2294
aS'to'
p2299
aS'clean'
p2300
aS'the'
p2301
aS'masjid'
p2302
aS'LMAO'
p2303
asg34
(lp2304
g2299
ag2300
ag2301
ag2302
ag2303
asba(iMeme
Meme
p2305
(dp2306
g3
(lp2307
S'just'
p2308
aS'trying'
p2309
aS'to'
p2310
aS'salvage'
p2311
aS'my'
p2312
aS'democracy'
p2313
asg22
S'just trying to salvage my democracy '
p2314
sg24
S' fuck me right? '
p2315
sg26
Vseth-from-superbad
p2316
sg28
(lp2317
g2308
ag2309
ag2310
ag2311
ag2312
ag2313
aS'fuck'
p2318
aS'me'
p2319
aS'right'
p2320
ag33
asg34
(lp2321
g2318
ag2319
ag2320
ag33
asba(iMeme
Meme
p2322
(dp2323
g3
(lp2324
g5
aS'have'
p2325
aS'responsibilities'
p2326
aS'and'
p2327
aS'obligations'
p2328
aS'that'
p2329
aS'require'
p2330
ag236
aS'get'
p2331
aS'some'
p2332
aS'semblance'
p2333
aS'of'
p2334
aS'sleep'
p2335
asg22
S'I have responsibilities and obligations that require i get some semblance of sleep '
p2336
sg24
S' Fuck me, right? '
p2337
sg26
Vseth-from-superbad
p2338
sg28
(lp2339
g5
ag2325
ag2326
ag2327
ag2328
ag2329
ag2330
ag236
ag2331
ag2332
ag2333
ag2334
ag2335
aS'Fuck'
p2340
aS'me'
p2341
ag64
aS'right'
p2342
ag33
asg34
(lp2343
g2340
ag2341
ag64
ag2342
ag33
asba(iMeme
Meme
p2344
(dp2345
g3
(lp2346
S'she'
p2347
aS'told'
p2348
aS'me'
p2349
aS'im'
p2350
aS'ugly'
p2351
asg22
S'she told me im ugly '
p2352
sg24
S' fuck her, right? '
p2353
sg26
Vseth-from-superbad
p2354
sg28
(lp2355
g2347
ag2348
ag2349
ag2350
ag2351
aS'fuck'
p2356
aS'her'
p2357
ag64
aS'right'
p2358
ag33
asg34
(lp2359
g2356
ag2357
ag64
ag2358
ag33
asba(iMeme
Meme
p2360
(dp2361
g3
(lp2362
g5
aS'have'
p2363
aS"n't"
p2364
aS'used'
p2365
ag383
aS'condom'
p2366
aS'my'
p2367
aS'whole'
p2368
aS'life'
p2369
asg22
S"I haven't used a condom my whole life "
p2370
sg24
S' I know, fuck me right '
p2371
sg26
Vseth-from-superbad
p2372
sg28
(lp2373
g5
ag2363
ag2364
ag2365
ag383
ag2366
ag2367
ag2368
ag2369
ag5
aS'know'
p2374
ag64
aS'fuck'
p2375
aS'me'
p2376
aS'right'
p2377
asg34
(lp2378
g5
ag2374
ag64
ag2375
ag2376
ag2377
asba(iMeme
Meme
p2379
(dp2380
g3
(lp2381
g236
aS'prefer'
p2382
aS'regular'
p2383
aS'oreos'
p2384
aS'over'
p2385
aS'double'
p2386
aS'stuf'
p2387
asg22
S'i prefer regular oreos over double stuf '
p2388
sg24
S' fuck me right? '
p2389
sg26
Vseth-from-superbad
p2390
sg28
(lp2391
g236
ag2382
ag2383
ag2384
ag2385
ag2386
ag2387
aS'fuck'
p2392
aS'me'
p2393
aS'right'
p2394
ag33
asg34
(lp2395
g2392
ag2393
ag2394
ag33
asba(iMeme
Meme
p2396
(dp2397
g3
(lp2398
g5
aS'got'
p2399
aS'away'
p2400
aS'from'
p2401
aS'ghostface'
p2402
asg22
S'I got away from ghostface '
p2403
sg24
S' fuck me right? '
p2404
sg26
Vseth-from-superbad
p2405
sg28
(lp2406
g5
ag2399
ag2400
ag2401
ag2402
aS'fuck'
p2407
aS'me'
p2408
aS'right'
p2409
ag33
asg34
(lp2410
g2407
ag2408
ag2409
ag33
asba(iMeme
Meme
p2411
(dp2412
g3
(lp2413
sg22
S' '
p2414
sg24
S' this weed is good right '
p2415
sg26
Vseth-from-superbad
p2416
sg28
(lp2417
S'this'
p2418
aS'weed'
p2419
aS'is'
p2420
aS'good'
p2421
aS'right'
p2422
asg34
(lp2423
g2418
ag2419
ag2420
ag2421
ag2422
asba(iMeme
Meme
p2424
(dp2425
g3
(lp2426
S'comes'
p2427
aS'back'
p2428
aS'with'
p2429
aS'x'
p2430
asg22
S'comes back with x'
p2431
sg24
S'factor level 3 vergil '
p2432
sg26
Vseth-from-superbad
p2433
sg28
(lp2434
g2427
ag2428
ag2429
ag2430
aS'factor'
p2435
aS'level'
p2436
aS'3'
p2437
aS'vergil'
p2438
asg34
(lp2439
g2435
ag2436
ag2437
ag2438
asba(iMeme
Meme
p2440
(dp2441
g3
(lp2442
g236
aS'am'
p2443
aS'high'
p2444
asg22
S'i am high '
p2445
sg24
S' off twinkes '
p2446
sg26
Vseth-from-superbad
p2447
sg28
(lp2448
g236
ag2443
ag2444
aS'off'
p2449
aS'twinkes'
p2450
asg34
(lp2451
g2449
ag2450
asba(iMeme
Meme
p2452
(dp2453
g3
(lp2454
g236
asg22
S'i  '
p2455
sg24
S' look like peter '
p2456
sg26
Vseth-from-superbad
p2457
sg28
(lp2458
g236
aS'look'
p2459
aS'like'
p2460
aS'peter'
p2461
asg34
(lp2462
g2459
ag2460
ag2461
asba(iMeme
Meme
p2463
(dp2464
g3
(lp2465
g236
aS'thought'
p2466
aS'we'
p2467
aS'moved'
p2468
aS'on'
p2469
aS'time'
p2470
asg22
S'i thought we moved on time '
p2471
sg24
S' fuck me right? '
p2472
sg26
Vseth-from-superbad
p2473
sg28
(lp2474
g236
ag2466
ag2467
ag2468
ag2469
ag2470
aS'fuck'
p2475
aS'me'
p2476
aS'right'
p2477
ag33
asg34
(lp2478
g2475
ag2476
ag2477
ag33
asba(iMeme
Meme
p2479
(dp2480
g3
(lp2481
g5
aS'trick'
p2482
aS'shot'
p2483
aS'with'
p2484
aS'anyone'
p2485
asg22
S'I trick shot with anyone  '
p2486
sg24
S' Fuck me right '
p2487
sg26
Vseth-from-superbad
p2488
sg28
(lp2489
g5
ag2482
ag2483
ag2484
ag2485
aS'Fuck'
p2490
aS'me'
p2491
aS'right'
p2492
asg34
(lp2493
g2490
ag2491
ag2492
asba(iMeme
Meme
p2494
(dp2495
g3
(lp2496
g5
aS'like'
p2497
aS'going'
p2498
aS'the'
p2499
aS'speed'
p2500
aS'limit'
p2501
aS'because'
p2502
aS'it'
p2503
aS'saves'
p2504
aS'gas'
p2505
aS'and'
p2506
ag5
aS'feel'
p2507
aS'like'
p2508
aS'it'
p2509
aS"'s"
p2510
ag383
aS'reasonable'
p2511
aS'speed'
p2512
asg22
S"I like going the speed limit because it saves gas and I feel like it's a reasonable speed "
p2513
sg24
S' fuck me, right '
p2514
sg26
Vseth-from-superbad
p2515
sg28
(lp2516
g5
ag2497
ag2498
ag2499
ag2500
ag2501
ag2502
ag2503
ag2504
ag2505
ag2506
ag5
ag2507
ag2508
ag2509
ag2510
ag383
ag2511
ag2512
aS'fuck'
p2517
aS'me'
p2518
ag64
aS'right'
p2519
asg34
(lp2520
g2517
ag2518
ag64
ag2519
asba(iMeme
Meme
p2521
(dp2522
g3
(lp2523
S'Actually'
p2524
aS'wants'
p2525
aS'to'
p2526
aS'be'
p2527
aS'food'
p2528
aS'rep'
p2529
asg22
S'Actually wants to be food rep '
p2530
sg24
S' Fuck me right                   Vote Baileigh '
p2531
sg26
Vseth-from-superbad
p2532
sg28
(lp2533
g2524
ag2525
ag2526
ag2527
ag2528
ag2529
aS'Fuck'
p2534
aS'me'
p2535
aS'right'
p2536
aS'Vote'
p2537
aS'Baileigh'
p2538
asg34
(lp2539
g2534
ag2535
ag2536
ag2537
ag2538
asba(iMeme
Meme
p2540
(dp2541
g3
(lp2542
g236
aS'want'
p2543
aS'to'
p2544
aS'use'
p2545
aS"'y"
p2546
ag993
aS'no'
p2547
ag1684
asg22
S"i want to use 'y u no' "
p2548
sg24
S' fuck me, wright? '
p2549
sg26
Vseth-from-superbad
p2550
sg28
(lp2551
g236
ag2543
ag2544
ag2545
ag2546
ag993
ag2547
ag1684
aS'fuck'
p2552
aS'me'
p2553
ag64
aS'wright'
p2554
ag33
asg34
(lp2555
g2552
ag2553
ag64
ag2554
ag33
asba(iMeme
Meme
p2556
(dp2557
g3
(lp2558
g236
aS'only'
p2559
aS'had'
p2560
aS'one'
p2561
aS'exam'
p2562
aS'to'
p2563
aS'retake'
p2564
asg22
S'i only had one exam to retake '
p2565
sg24
S' fuck me, right? '
p2566
sg26
Vseth-from-superbad
p2567
sg28
(lp2568
g236
ag2559
ag2560
ag2561
ag2562
ag2563
ag2564
aS'fuck'
p2569
aS'me'
p2570
ag64
aS'right'
p2571
ag33
asg34
(lp2572
g2569
ag2570
ag64
ag2571
ag33
asba(iMeme
Meme
p2573
(dp2574
g3
(lp2575
S'Just'
p2576
aS'wanted'
p2577
aS'to'
p2578
aS'play'
p2579
aS'strategically'
p2580
aS'on'
p2581
aS'BF3'
p2582
asg22
S'Just wanted to play strategically on BF3 '
p2583
sg24
S' Fuck me, right? '
p2584
sg26
Vseth-from-superbad
p2585
sg28
(lp2586
g2576
ag2577
ag2578
ag2579
ag2580
ag2581
ag2582
aS'Fuck'
p2587
aS'me'
p2588
ag64
aS'right'
p2589
ag33
asg34
(lp2590
g2587
ag2588
ag64
ag2589
ag33
asba(iMeme
Meme
p2591
(dp2592
g3
(lp2593
S'free'
p2594
aS'cell'
p2595
aS'phones'
p2596
ag64
aS'free'
p2597
aS'healthcare'
p2598
ag64
aS'free'
p2599
aS'education'
p2600
ag64
aS'free'
p2601
aS'housing'
p2602
ag64
aS'free'
p2603
aS'internet'
p2604
asg22
S'free cell phones, free healthcare, free education, free housing, free internet '
p2605
sg24
S' why even work at all? the government can just print money and give it to people '
p2606
sg26
Vseth-from-superbad
p2607
sg28
(lp2608
g2594
ag2595
ag2596
ag64
ag2597
ag2598
ag64
ag2599
ag2600
ag64
ag2601
ag2602
ag64
ag2603
ag2604
aS'why'
p2609
aS'even'
p2610
aS'work'
p2611
aS'at'
p2612
aS'all'
p2613
ag33
aS'the'
p2614
aS'government'
p2615
aS'can'
p2616
aS'just'
p2617
aS'print'
p2618
aS'money'
p2619
aS'and'
p2620
aS'give'
p2621
aS'it'
p2622
aS'to'
p2623
aS'people'
p2624
asg34
(lp2625
g2609
ag2610
ag2611
ag2612
ag2613
ag33
ag2614
ag2615
ag2616
ag2617
ag2618
ag2619
ag2620
ag2621
ag2622
ag2623
ag2624
asba(iMeme
Meme
p2626
(dp2627
g3
(lp2628
g5
aS'think'
p2629
aS'we'
p2630
aS'should'
p2631
aS'try'
p2632
aS'to'
p2633
aS'stop'
p2634
aS'oppression'
p2635
asg22
S'I think we should try to stop oppression '
p2636
sg24
S' Fuck me, right? '
p2637
sg26
Vseth-from-superbad
p2638
sg28
(lp2639
g5
ag2629
ag2630
ag2631
ag2632
ag2633
ag2634
ag2635
aS'Fuck'
p2640
aS'me'
p2641
ag64
aS'right'
p2642
ag33
asg34
(lp2643
g2640
ag2641
ag64
ag2642
ag33
asba(iMeme
Meme
p2644
(dp2645
g3
(lp2646
S'Already'
p2647
aS'doing'
p2648
aS'all'
p2649
aS'the'
p2650
aS'upgrades'
p2651
asg22
S'Already doing all the upgrades '
p2652
sg24
S' Fuck me right? '
p2653
sg26
Vseth-from-superbad
p2654
sg28
(lp2655
g2647
ag2648
ag2649
ag2650
ag2651
aS'Fuck'
p2656
aS'me'
p2657
aS'right'
p2658
ag33
asg34
(lp2659
g2656
ag2657
ag2658
ag33
asba(iMeme
Meme
p2660
(dp2661
g3
(lp2662
S'Different'
p2663
aS'People'
p2664
aS'like'
p2665
aS'to'
p2666
aS'use'
p2667
aS'different'
p2668
aS'pictures'
p2669
asg22
S'Different People like to use different pictures '
p2670
sg24
S' Fuck us, right! '
p2671
sg26
Vseth-from-superbad
p2672
sg28
(lp2673
g2663
ag2664
ag2665
ag2666
ag2667
ag2668
ag2669
aS'Fuck'
p2674
aS'us'
p2675
ag64
aS'right'
p2676
ag47
asg34
(lp2677
g2674
ag2675
ag64
ag2676
ag47
asba(iMeme
Meme
p2678
(dp2679
g3
(lp2680
g5
aS'miss'
p2681
aS'you'
p2682
aS'guys..'
p2683
asg22
S'I miss you guys.. '
p2684
sg24
S' Fuck me, Right?! '
p2685
sg26
Vseth-from-superbad
p2686
sg28
(lp2687
g5
ag2681
ag2682
ag2683
aS'Fuck'
p2688
aS'me'
p2689
ag64
aS'Right'
p2690
ag33
ag47
asg34
(lp2691
g2688
ag2689
ag64
ag2690
ag33
ag47
asba(iMeme
Meme
p2692
(dp2693
g3
(lp2694
g5
aS'thought'
p2695
aS'the'
p2696
aS'cod'
p2697
aS'ghost'
p2698
aS'MP'
p2699
aS'looked'
p2700
aS'cool'
p2701
asg22
S'I thought the cod ghost MP looked cool '
p2702
sg24
S' fuck me right? '
p2703
sg26
Vseth-from-superbad
p2704
sg28
(lp2705
g5
ag2695
ag2696
ag2697
ag2698
ag2699
ag2700
ag2701
aS'fuck'
p2706
aS'me'
p2707
aS'right'
p2708
ag33
asg34
(lp2709
g2706
ag2707
ag2708
ag33
asba(iMeme
Meme
p2710
(dp2711
g3
(lp2712
g5
aS'actually'
p2713
aS'take'
p2714
aS'relationships'
p2715
aS'seriously'
p2716
asg22
S'I actually take relationships seriously  '
p2717
sg24
S' Fuck me, right? '
p2718
sg26
Vseth-from-superbad
p2719
sg28
(lp2720
g5
ag2713
ag2714
ag2715
ag2716
aS'Fuck'
p2721
aS'me'
p2722
ag64
aS'right'
p2723
ag33
asg34
(lp2724
g2721
ag2722
ag64
ag2723
ag33
asba(iMeme
Meme
p2725
(dp2726
g3
(lp2727
S'the'
p2728
aS'sun'
p2729
aS'would'
p2730
aS'have'
p2731
aS'to'
p2732
aS'be'
p2733
aS'out'
p2734
aS'today'
p2735
asg22
S'the sun would have to be out today '
p2736
sg24
S' FUCK ME, RIGHT? '
p2737
sg26
Vseth-from-superbad
p2738
sg28
(lp2739
g2728
ag2729
ag2730
ag2731
ag2732
ag2733
ag2734
ag2735
aS'FUCK'
p2740
aS'ME'
p2741
ag64
aS'RIGHT'
p2742
ag33
asg34
(lp2743
g2740
ag2741
ag64
ag2742
ag33
asba(iMeme
Meme
p2744
(dp2745
g3
(lp2746
g5
aS'prefer'
p2747
aS'to'
p2748
aS'take'
p2749
ag383
aS'shower'
p2750
aS'without'
p2751
aS'getting'
p2752
aS'pissed'
p2753
aS'on'
p2754
ag179
asg22
S'I prefer to take a shower without getting pissed on. '
p2755
sg24
S' FUCK ME, RIGHT? '
p2756
sg26
Vseth-from-superbad
p2757
sg28
(lp2758
g5
ag2747
ag2748
ag2749
ag383
ag2750
ag2751
ag2752
ag2753
ag2754
ag179
aS'FUCK'
p2759
aS'ME'
p2760
ag64
aS'RIGHT'
p2761
ag33
asg34
(lp2762
g2759
ag2760
ag64
ag2761
ag33
asba(iMeme
Meme
p2763
(dp2764
g3
(lp2765
S'Of'
p2766
aS'course'
p2767
aS'it'
p2768
aS"'s"
p2769
aS'sunny'
p2770
aS'today'
p2771
asg22
S"Of course it's sunny today "
p2772
sg24
S' FUCK ME, RIGHT? '
p2773
sg26
Vseth-from-superbad
p2774
sg28
(lp2775
g2766
ag2767
ag2768
ag2769
ag2770
ag2771
aS'FUCK'
p2776
aS'ME'
p2777
ag64
aS'RIGHT'
p2778
ag33
asg34
(lp2779
g2776
ag2777
ag64
ag2778
ag33
asba(iMeme
Meme
p2780
(dp2781
g3
(lp2782
g236
aS"'m"
p2783
aS'nice'
p2784
aS'and'
p2785
aS'polite'
p2786
aS'to'
p2787
aS'people'
p2788
aS'from'
p2789
aS'the'
p2790
aS'internet'
p2791
asg22
S"i'm nice and polite to people from the internet "
p2792
sg24
S' fuck me, right? '
p2793
sg26
Vseth-from-superbad
p2794
sg28
(lp2795
g236
ag2783
ag2784
ag2785
ag2786
ag2787
ag2788
ag2789
ag2790
ag2791
aS'fuck'
p2796
aS'me'
p2797
ag64
aS'right'
p2798
ag33
asg34
(lp2799
g2796
ag2797
ag64
ag2798
ag33
asba(iMeme
Meme
p2800
(dp2801
g3
(lp2802
S'Candy'
p2803
aS'is'
p2804
aS'dandy'
p2805
asg22
S'Candy is dandy  '
p2806
sg24
S' but liquor is quicker. '
p2807
sg26
Vseth-from-superbad
p2808
sg28
(lp2809
g2803
ag2804
ag2805
aS'but'
p2810
aS'liquor'
p2811
aS'is'
p2812
aS'quicker'
p2813
ag179
asg34
(lp2814
g2810
ag2811
ag2812
ag2813
ag179
asba(iMeme
Meme
p2815
(dp2816
g3
(lp2817
g5
aS'love'
p2818
aS'my'
p2819
aS'girlfriend'
p2820
asg22
S'I love my girlfriend '
p2821
sg24
S' fuck me right ? '
p2822
sg26
Vseth-from-superbad
p2823
sg28
(lp2824
g5
ag2818
ag2819
ag2820
aS'fuck'
p2825
aS'me'
p2826
aS'right'
p2827
ag33
asg34
(lp2828
g2825
ag2826
ag2827
ag33
asba(iMeme
Meme
p2829
(dp2830
g3
(lp2831
g5
aS'broke'
p2832
aS'with'
p2833
ag383
aS'guy'
p2834
aS'because'
p2835
aS'he'
p2836
aS'would'
p2837
aS'consistently'
p2838
aS'slap'
p2839
aS'my'
p2840
aS'ass'
p2841
aS'in'
p2842
aS'front'
p2843
aS'of'
p2844
aS'my'
p2845
aS'friends'
p2846
aS'and'
p2847
aS'treat'
p2848
aS'me'
p2849
aS'like'
p2850
ag383
aS'POSSESSION'
p2851
asg22
S'I broke with a guy because he would consistently slap my ass in front of my friends and treat me like a POSSESSION  '
p2852
sg24
S' fuck me right '
p2853
sg26
Vseth-from-superbad
p2854
sg28
(lp2855
g5
ag2832
ag2833
ag383
ag2834
ag2835
ag2836
ag2837
ag2838
ag2839
ag2840
ag2841
ag2842
ag2843
ag2844
ag2845
ag2846
ag2847
ag2848
ag2849
ag2850
ag383
ag2851
aS'fuck'
p2856
aS'me'
p2857
aS'right'
p2858
asg34
(lp2859
g2856
ag2857
ag2858
asba(iMeme
Meme
p2860
(dp2861
g3
(lp2862
g5
aS'just'
p2863
aS'want'
p2864
aS'some'
p2865
aS'plot'
p2866
aS'holes'
p2867
aS'filled'
p2868
asg22
S'I just want some plot holes filled '
p2869
sg24
S' Fuck me, Right? '
p2870
sg26
Vseth-from-superbad
p2871
sg28
(lp2872
g5
ag2863
ag2864
ag2865
ag2866
ag2867
ag2868
aS'Fuck'
p2873
aS'me'
p2874
ag64
aS'Right'
p2875
ag33
asg34
(lp2876
g2873
ag2874
ag64
ag2875
ag33
asba(iMeme
Meme
p2877
(dp2878
g3
(lp2879
g236
aS"'m"
p2880
aS'an'
p2881
aS'american'
p2882
aS'and'
p2883
aS'actually'
p2884
aS'proud'
p2885
aS'about'
p2886
aS'it'
p2887
asg22
S"i'm an american and actually proud about it "
p2888
sg24
S' fuck me right? '
p2889
sg26
Vseth-from-superbad
p2890
sg28
(lp2891
g236
ag2880
ag2881
ag2882
ag2883
ag2884
ag2885
ag2886
ag2887
aS'fuck'
p2892
aS'me'
p2893
aS'right'
p2894
ag33
asg34
(lp2895
g2892
ag2893
ag2894
ag33
asba(iMeme
Meme
p2896
(dp2897
g3
(lp2898
S'Jeg'
p2899
aS'kan'
p2900
aS'faktisk'
p2901
aS'godt'
p2902
aS'lide'
p2903
aS'at'
p2904
asg22
S'Jeg kan faktisk godt lide at '
p2905
sg24
S' fuck me, right? '
p2906
sg26
Vseth-from-superbad
p2907
sg28
(lp2908
g2899
ag2900
ag2901
ag2902
ag2903
ag2904
aS'fuck'
p2909
aS'me'
p2910
ag64
aS'right'
p2911
ag33
asg34
(lp2912
g2909
ag2910
ag64
ag2911
ag33
asba(iMeme
Meme
p2913
(dp2914
g3
(lp2915
S'my'
p2916
aS'parents'
p2917
aS'are'
p2918
aS'loded'
p2919
aS'and'
p2920
aS'like'
p2921
aS'to'
p2922
aS'give'
p2923
aS'me'
p2924
aS'EXPENSIVE'
p2925
aS'stuff'
p2926
asg22
S'my parents are loded and like to give me EXPENSIVE stuff '
p2927
sg24
S' Fuck me right? '
p2928
sg26
Vseth-from-superbad
p2929
sg28
(lp2930
g2916
ag2917
ag2918
ag2919
ag2920
ag2921
ag2922
ag2923
ag2924
ag2925
ag2926
aS'Fuck'
p2931
aS'me'
p2932
aS'right'
p2933
ag33
asg34
(lp2934
g2931
ag2932
ag2933
ag33
asba(iMeme
Meme
p2935
(dp2936
g3
(lp2937
S'My'
p2938
aS'parents'
p2939
aS'are'
p2940
aS'loaded'
p2941
aS'and'
p2942
aS'like'
p2943
aS'to'
p2944
aS'give'
p2945
aS'me'
p2946
aS'expensive'
p2947
aS'things'
p2948
asg22
S'My parents are loaded and like to give me expensive things '
p2949
sg24
S' Fuck me right? '
p2950
sg26
Vseth-from-superbad
p2951
sg28
(lp2952
g2938
ag2939
ag2940
ag2941
ag2942
ag2943
ag2944
ag2945
ag2946
ag2947
ag2948
aS'Fuck'
p2953
aS'me'
p2954
aS'right'
p2955
ag33
asg34
(lp2956
g2953
ag2954
ag2955
ag33
asba(iMeme
Meme
p2957
(dp2958
g3
(lp2959
g5
aS'wanted'
p2960
aS'to'
p2961
aS'let'
p2962
aS'people'
p2963
aS'know'
p2964
aS'about'
p2965
aS'something'
p2966
aS'that'
p2967
aS'might'
p2968
aS'help'
p2969
aS'them'
p2970
asg22
S'I wanted to let people know about something that might help them '
p2971
sg24
S' fuck me, right? '
p2972
sg26
Vseth-from-superbad
p2973
sg28
(lp2974
g5
ag2960
ag2961
ag2962
ag2963
ag2964
ag2965
ag2966
ag2967
ag2968
ag2969
ag2970
aS'fuck'
p2975
aS'me'
p2976
ag64
aS'right'
p2977
ag33
asg34
(lp2978
g2975
ag2976
ag64
ag2977
ag33
asba(iMeme
Meme
p2979
(dp2980
g3
(lp2981
g236
aS'do'
p2982
aS"n't"
p2983
aS'like'
p2984
aS'dubstep'
p2985
asg22
S"i don't like dubstep "
p2986
sg24
S' fuck me, right? '
p2987
sg26
Vseth-from-superbad
p2988
sg28
(lp2989
g236
ag2982
ag2983
ag2984
ag2985
aS'fuck'
p2990
aS'me'
p2991
ag64
aS'right'
p2992
ag33
asg34
(lp2993
g2990
ag2991
ag64
ag2992
ag33
asba(iMeme
Meme
p2994
(dp2995
g3
(lp2996
S'Did'
p2997
aS"n't"
p2998
aS'like'
p2999
aS'the'
p3000
aS'new'
p3001
aS'daft'
p3002
aS'punk'
p3003
aS'album'
p3004
asg22
S"Didn't like the new daft punk album "
p3005
sg24
S' fuck me, right ? '
p3006
sg26
Vseth-from-superbad
p3007
sg28
(lp3008
g2997
ag2998
ag2999
ag3000
ag3001
ag3002
ag3003
ag3004
aS'fuck'
p3009
aS'me'
p3010
ag64
aS'right'
p3011
ag33
asg34
(lp3012
g3009
ag3010
ag64
ag3011
ag33
asba(iMeme
Meme
p3013
(dp3014
g3
(lp3015
g236
aS"'d"
p3016
aS'rather'
p3017
aS'not'
p3018
aS'have'
p3019
aS'seizures'
p3020
asg22
S"i'd rather not have seizures "
p3021
sg24
S' fuck Me, right? '
p3022
sg26
Vseth-from-superbad
p3023
sg28
(lp3024
g236
ag3016
ag3017
ag3018
ag3019
ag3020
aS'fuck'
p3025
aS'Me'
p3026
ag64
aS'right'
p3027
ag33
asg34
(lp3028
g3025
ag3026
ag64
ag3027
ag33
asba(iMeme
Meme
p3029
(dp3030
g3
(lp3031
g5
aS'want'
p3032
aS'to'
p3033
aS'watch'
p3034
aS'the'
p3035
aS'cutscenes'
p3036
asg22
S'I want to watch the cutscenes '
p3037
sg24
S' FUCK ME RIGHT? '
p3038
sg26
Vseth-from-superbad
p3039
sg28
(lp3040
g5
ag3032
ag3033
ag3034
ag3035
ag3036
aS'FUCK'
p3041
aS'ME'
p3042
aS'RIGHT'
p3043
ag33
asg34
(lp3044
g3041
ag3042
ag3043
ag33
asba(iMeme
Meme
p3045
(dp3046
g3
(lp3047
S'finish'
p3048
aS'taking'
p3049
ag383
aS'#'
p3050
ag20
aS'at'
p3051
aS'work'
p3052
ag179
aS'Stand'
p3053
aS'up'
p3054
aS'and'
p3055
aS'before'
p3056
ag5
aS'flush'
p3057
aS'my'
p3058
aS'keys'
p3059
aS'and'
p3060
aS'new'
p3061
aS'phone'
p3062
aS'fall'
p3063
aS'in'
p3064
aS'the'
p3065
aS'toilet'
p3066
ag179
asg22
S'finish taking a #2 at work. Stand up and before I flush my keys and new phone fall in the toilet. '
p3067
sg24
S' Fuck me, right? '
p3068
sg26
Vseth-from-superbad
p3069
sg28
(lp3070
g3048
ag3049
ag383
ag3050
ag20
ag3051
ag3052
ag179
ag3053
ag3054
ag3055
ag3056
ag5
ag3057
ag3058
ag3059
ag3060
ag3061
ag3062
ag3063
ag3064
ag3065
ag3066
ag179
aS'Fuck'
p3071
aS'me'
p3072
ag64
aS'right'
p3073
ag33
asg34
(lp3074
g3071
ag3072
ag64
ag3073
ag33
asba(iMeme
Meme
p3075
(dp3076
g3
(lp3077
S'all'
p3078
ag236
aS'did'
p3079
aS'was'
p3080
aS'say'
p3081
aS'lisa'
p3082
aS'sosa'
p3083
aS"'s"
p3084
aS'guestlist'
p3085
aS'at'
p3086
aS'the'
p3087
aS'door'
p3088
aS'and'
p3089
ag236
aS'got'
p3090
aS'in'
p3091
aS'for'
p3092
aS'free'
p3093
aS'at'
p3094
aS'mamajuanas'
p3095
aS'queens'
p3096
ag179
asg22
S"all i did was say lisa sosa's guestlist at the door and i got in for free at mamajuanas queens.  "
p3097
sg24
S' it was that simple. '
p3098
sg26
Vseth-from-superbad
p3099
sg28
(lp3100
g3078
ag236
ag3079
ag3080
ag3081
ag3082
ag3083
ag3084
ag3085
ag3086
ag3087
ag3088
ag3089
ag236
ag3090
ag3091
ag3092
ag3093
ag3094
ag3095
ag3096
ag179
aS'it'
p3101
aS'was'
p3102
aS'that'
p3103
aS'simple'
p3104
ag179
asg34
(lp3105
g3101
ag3102
ag3103
ag3104
ag179
asba(iMeme
Meme
p3106
(dp3107
g3
(lp3108
g5
aS'was'
p3109
aS'only'
p3110
ag383
aS'stable'
p3111
aS'Man'
p3112
aS'in'
p3113
aS'your'
p3114
aS'life'
p3115
ag179
aS'Who'
p3116
aS'loved'
p3117
aS'you'
p3118
aS'and'
p3119
aS'your'
p3120
aS'daughter'
p3121
aS'unconditionally'
p3122
ag47
asg22
S'I was only a stable Man in your life. Who loved you and your daughter unconditionally!  '
p3123
sg24
S' Fuck Me, Right? '
p3124
sg26
Vseth-from-superbad
p3125
sg28
(lp3126
g5
ag3109
ag3110
ag383
ag3111
ag3112
ag3113
ag3114
ag3115
ag179
ag3116
ag3117
ag3118
ag3119
ag3120
ag3121
ag3122
ag47
aS'Fuck'
p3127
aS'Me'
p3128
ag64
aS'Right'
p3129
ag33
asg34
(lp3130
g3127
ag3128
ag64
ag3129
ag33
asba(iMeme
Meme
p3131
(dp3132
g3
(lp3133
g5
aS'was'
p3134
aS'just'
p3135
aS'letting'
p3136
aS'everybody'
p3137
aS'know'
p3138
aS'OP'
p3139
aS'is'
p3140
aS'carma'
p3141
aS'whoring'
p3142
asg22
S'I was just letting everybody know OP is carma whoring '
p3143
sg24
S' Fuck me right?! '
p3144
sg26
Vseth-from-superbad
p3145
sg28
(lp3146
g5
ag3134
ag3135
ag3136
ag3137
ag3138
ag3139
ag3140
ag3141
ag3142
aS'Fuck'
p3147
aS'me'
p3148
aS'right'
p3149
ag33
ag47
asg34
(lp3150
g3147
ag3148
ag3149
ag33
ag47
asba(iMeme
Meme
p3151
(dp3152
g3
(lp3153
g5
aS'actually'
p3154
aS'want'
p3155
aS'to'
p3156
aS'spend'
p3157
aS'my'
p3158
aS'summer'
p3159
aS'vacation'
p3160
aS'resting'
p3161
ag47
asg22
S'I actually want to spend my summer vacation resting! '
p3162
sg24
S' Fuck me, right? '
p3163
sg26
Vseth-from-superbad
p3164
sg28
(lp3165
g5
ag3154
ag3155
ag3156
ag3157
ag3158
ag3159
ag3160
ag3161
ag47
aS'Fuck'
p3166
aS'me'
p3167
ag64
aS'right'
p3168
ag33
asg34
(lp3169
g3166
ag3167
ag64
ag3168
ag33
asba(iMeme
Meme
p3170
(dp3171
g3
(lp3172
S'Please'
p3173
aS'do'
p3174
aS"n't"
p3175
aS'fuck'
p3176
aS'me'
p3177
aS'wrong'
p3178
asg22
S"Please don't fuck me wrong "
p3179
sg24
S'  '
p3180
sg26
Vseth-from-superbad
p3181
sg28
(lp3182
g3173
ag3174
ag3175
ag3176
ag3177
ag3178
asg34
(lp3183
sba(iMeme
Meme
p3184
(dp3185
g3
(lp3186
S'Do'
p3187
aS"n't"
p3188
aS'Fuck'
p3189
aS'me'
p3190
aS'wrong'
p3191
asg22
S"Don't Fuck me wrong "
p3192
sg24
S'  '
p3193
sg26
Vseth-from-superbad
p3194
sg28
(lp3195
g3187
ag3188
ag3189
ag3190
ag3191
asg34
(lp3196
sba(iMeme
Meme
p3197
(dp3198
g3
(lp3199
S'First'
p3200
aS'billet'
p3201
aS'out'
p3202
aS'of'
p3203
aS'basic'
p3204
aS'is'
p3205
ag383
aS'378'
p3206
asg22
S'First billet out of basic is a 378 '
p3207
sg24
S' Fuck me right? '
p3208
sg26
Vseth-from-superbad
p3209
sg28
(lp3210
g3200
ag3201
ag3202
ag3203
ag3204
ag3205
ag383
ag3206
aS'Fuck'
p3211
aS'me'
p3212
aS'right'
p3213
ag33
asg34
(lp3214
g3211
ag3212
ag3213
ag33
asba(iMeme
Meme
p3215
(dp3216
g3
(lp3217
g5
aS'just'
p3218
aS'want'
p3219
aS'to'
p3220
aS'earn'
p3221
ag383
aS'fair'
p3222
aS'wage'
p3223
ag64
aS'and'
p3224
aS'be'
p3225
aS'able'
p3226
aS'to'
p3227
aS'eat'
p3228
aS'and'
p3229
aS'live'
p3230
aS'comfortablly'
p3231
aS'for'
p3232
aS'the'
p3233
aS'amount'
p3234
aS'of'
p3235
aS'work'
p3236
ag5
aS'do'
p3237
asg22
S'I just want to earn a fair wage, and be able to eat and live comfortablly for the amount of work I do '
p3238
sg24
S' Fuck me, right? '
p3239
sg26
Vseth-from-superbad
p3240
sg28
(lp3241
g5
ag3218
ag3219
ag3220
ag3221
ag383
ag3222
ag3223
ag64
ag3224
ag3225
ag3226
ag3227
ag3228
ag3229
ag3230
ag3231
ag3232
ag3233
ag3234
ag3235
ag3236
ag5
ag3237
aS'Fuck'
p3242
aS'me'
p3243
ag64
aS'right'
p3244
ag33
asg34
(lp3245
g3242
ag3243
ag64
ag3244
ag33
asba(iMeme
Meme
p3246
(dp3247
g3
(lp3248
g5
aS'just'
p3249
aS'wan'
p3250
aS'na'
p3251
aS'think'
p3252
aS'of'
p3253
aS'something'
p3254
aS'original'
p3255
aS'and'
p3256
aS'funny'
p3257
aS'for'
p3258
aS'my'
p3259
aS'cakeday'
p3260
aS'post'
p3261
asg22
S'I just wanna think of something original and funny for my cakeday post '
p3262
sg24
S' Fuck me right '
p3263
sg26
Vseth-from-superbad
p3264
sg28
(lp3265
g5
ag3249
ag3250
ag3251
ag3252
ag3253
ag3254
ag3255
ag3256
ag3257
ag3258
ag3259
ag3260
ag3261
aS'Fuck'
p3266
aS'me'
p3267
aS'right'
p3268
asg34
(lp3269
g3266
ag3267
ag3268
asba(iMeme
Meme
p3270
(dp3271
g3
(lp3272
S'if'
p3273
ag383
aS'manager'
p3274
aS'wants'
p3275
aS'to'
p3276
aS'cut'
p3277
aS'me'
p3278
aS'or'
p3279
aS'fuck'
p3280
aS'me'
p3281
ag64
aS'what'
p3282
aS'will'
p3283
ag236
aS'say'
p3284
asg22
S'if a manager wants to cut me or fuck me, what will i say '
p3285
sg24
S' fuck me right? '
p3286
sg26
Vseth-from-superbad
p3287
sg28
(lp3288
g3273
ag383
ag3274
ag3275
ag3276
ag3277
ag3278
ag3279
ag3280
ag3281
ag64
ag3282
ag3283
ag236
ag3284
aS'fuck'
p3289
aS'me'
p3290
aS'right'
p3291
ag33
asg34
(lp3292
g3289
ag3290
ag3291
ag33
asba(iMeme
Meme
p3293
(dp3294
g3
(lp3295
S'Arranging'
p3296
ag383
aS'social'
p3297
aS'gathering'
p3298
asg22
S'Arranging a social gathering '
p3299
sg24
S' Everybody cumz! '
p3300
sg26
Vseth-from-superbad
p3301
sg28
(lp3302
g3296
ag383
ag3297
ag3298
aS'Everybody'
p3303
aS'cumz'
p3304
ag47
asg34
(lp3305
g3303
ag3304
ag47
asba(iMeme
Meme
p3306
(dp3307
g3
(lp3308
g5
aS'am'
p3309
aS'not'
p3310
aS'on'
p3311
aS'supplements..'
p3312
asg22
S'I am not on supplements.. '
p3313
sg24
S' FUCK ME RIGHT?? '
p3314
sg26
Vseth-from-superbad
p3315
sg28
(lp3316
g5
ag3309
ag3310
ag3311
ag3312
aS'FUCK'
p3317
aS'ME'
p3318
aS'RIGHT'
p3319
ag33
ag33
asg34
(lp3320
g3317
ag3318
ag3319
ag33
ag33
asba(iMeme
Meme
p3321
(dp3322
g3
(lp3323
g5
aS"'m"
p3324
aS'actually'
p3325
aS'glad'
p3326
aS'they'
p3327
aS'casted'
p3328
aS'an'
p3329
aS'older'
p3330
aS'actor'
p3331
aS'to'
p3332
aS'play'
p3333
aS'the'
p3334
aS'Twelfth'
p3335
aS'Doctor'
p3336
ag47
asg22
S"I'm actually glad they casted an older actor to play the Twelfth Doctor! "
p3337
sg24
S' Fuck me, right? '
p3338
sg26
Vseth-from-superbad
p3339
sg28
(lp3340
g5
ag3324
ag3325
ag3326
ag3327
ag3328
ag3329
ag3330
ag3331
ag3332
ag3333
ag3334
ag3335
ag3336
ag47
aS'Fuck'
p3341
aS'me'
p3342
ag64
aS'right'
p3343
ag33
asg34
(lp3344
g3341
ag3342
ag64
ag3343
ag33
asba(iMeme
Meme
p3345
(dp3346
g3
(lp3347
g5
aS'misspelled'
p3348
aS'something'
p3349
asg22
S'I misspelled something '
p3350
sg24
S' fuck me right? '
p3351
sg26
Vseth-from-superbad
p3352
sg28
(lp3353
g5
ag3348
ag3349
aS'fuck'
p3354
aS'me'
p3355
aS'right'
p3356
ag33
asg34
(lp3357
g3354
ag3355
ag3356
ag33
asba(iMeme
Meme
p3358
(dp3359
g3
(lp3360
g5
aS'just'
p3361
aS'moved'
p3362
aS'to'
p3363
aS'Kansas'
p3364
aS'City'
p3365
asg22
S'I just moved to Kansas City '
p3366
sg24
S' Fuck me, right?! '
p3367
sg26
Vseth-from-superbad
p3368
sg28
(lp3369
g5
ag3361
ag3362
ag3363
ag3364
ag3365
aS'Fuck'
p3370
aS'me'
p3371
ag64
aS'right'
p3372
ag33
ag47
asg34
(lp3373
g3370
ag3371
ag64
ag3372
ag33
ag47
asba(iMeme
Meme
p3374
(dp3375
g3
(lp3376
S'Trying'
p3377
aS'to'
p3378
aS'follow'
p3379
aS'html5'
p3380
aS'conventions'
p3381
asg22
S'Trying to follow html5 conventions '
p3382
sg24
S' fuck me right? '
p3383
sg26
Vseth-from-superbad
p3384
sg28
(lp3385
g3377
ag3378
ag3379
ag3380
ag3381
aS'fuck'
p3386
aS'me'
p3387
aS'right'
p3388
ag33
asg34
(lp3389
g3386
ag3387
ag3388
ag33
asba(iMeme
Meme
p3390
(dp3391
g3
(lp3392
g5
aS'wan'
p3393
aS'na'
p3394
aS'play'
p3395
aS'some'
p3396
aS'learning'
p3397
aS'video'
p3398
aS'games'
p3399
asg22
S'I wanna play some learning video games '
p3400
sg24
S' fuck me right! '
p3401
sg26
Vseth-from-superbad
p3402
sg28
(lp3403
g5
ag3393
ag3394
ag3395
ag3396
ag3397
ag3398
ag3399
aS'fuck'
p3404
aS'me'
p3405
aS'right'
p3406
ag47
asg34
(lp3407
g3404
ag3405
ag3406
ag47
asba(iMeme
Meme
p3408
(dp3409
g3
(lp3410
S'did'
p3411
aS"n't"
p3412
aS'do'
p3413
aS'my'
p3414
aS'pdp'
p3415
asg22
S"didn't do my pdp "
p3416
sg24
S' fuck me, right? '
p3417
sg26
Vseth-from-superbad
p3418
sg28
(lp3419
g3411
ag3412
ag3413
ag3414
ag3415
aS'fuck'
p3420
aS'me'
p3421
ag64
aS'right'
p3422
ag33
asg34
(lp3423
g3420
ag3421
ag64
ag3422
ag33
asba(iMeme
Meme
p3424
(dp3425
g3
(lp3426
g5
aS'have'
p3427
aS'to'
p3428
aS'pay'
p3429
aS'my'
p3430
aS'bills'
p3431
asg22
S'I have to pay my bills '
p3432
sg24
S' Fuck me, right? '
p3433
sg26
Vseth-from-superbad
p3434
sg28
(lp3435
g5
ag3427
ag3428
ag3429
ag3430
ag3431
aS'Fuck'
p3436
aS'me'
p3437
ag64
aS'right'
p3438
ag33
asg34
(lp3439
g3436
ag3437
ag64
ag3438
ag33
asba(iMeme
Meme
p3440
(dp3441
g3
(lp3442
S'Try'
p3443
aS'to'
p3444
aS'bring'
p3445
aS'along'
p3446
ag383
aS'girl'
p3447
aS'that'
p3448
aS'sucks'
p3449
aS'my'
p3450
aS'dick'
p3451
asg22
S'Try to bring along a girl that sucks my dick '
p3452
sg24
S' Fuck me right!? '
p3453
sg26
Vseth-from-superbad
p3454
sg28
(lp3455
g3443
ag3444
ag3445
ag3446
ag383
ag3447
ag3448
ag3449
ag3450
ag3451
aS'Fuck'
p3456
aS'me'
p3457
aS'right'
p3458
ag47
ag33
asg34
(lp3459
g3456
ag3457
ag3458
ag47
ag33
asba(iMeme
Meme
p3460
(dp3461
g3
(lp3462
S'to'
p3463
aS'much'
p3464
aS'flair'
p3465
aS'for'
p3466
aS'one'
p3467
aS'powerpoint'
p3468
ag33
asg22
S'to much flair for one powerpoint? '
p3469
sg24
S' i know right!? '
p3470
sg26
Vseth-from-superbad
p3471
sg28
(lp3472
g3463
ag3464
ag3465
ag3466
ag3467
ag3468
ag33
ag236
aS'know'
p3473
aS'right'
p3474
ag47
ag33
asg34
(lp3475
g236
ag3473
ag3474
ag47
ag33
asba(iMeme
Meme
p3476
(dp3477
g3
(lp3478
g5
aS'prefer'
p3479
aS'rgular'
p3480
aS'oreos'
p3481
aS'over'
p3482
aS'double'
p3483
aS'stuf'
p3484
asg22
S'I prefer rgular oreos over double stuf '
p3485
sg24
S' Fuck me right? '
p3486
sg26
Vseth-from-superbad
p3487
sg28
(lp3488
g5
ag3479
ag3480
ag3481
ag3482
ag3483
ag3484
aS'Fuck'
p3489
aS'me'
p3490
aS'right'
p3491
ag33
asg34
(lp3492
g3489
ag3490
ag3491
ag33
asba(iMeme
Meme
p3493
(dp3494
g3
(lp3495
g236
aS'do'
p3496
aS"n't"
p3497
aS'want'
p3498
aS'to'
p3499
aS'break'
p3500
aS'the'
p3501
aS'law'
p3502
aS'but'
p3503
ag236
aS'want'
p3504
aS'to'
p3505
aS'pass'
p3506
aS'someone'
p3507
aS'who'
p3508
aS'is'
p3509
aS'driving'
p3510
aS'really'
p3511
aS'slow'
p3512
asg22
S"i don't want to break the law but i want to pass someone who is driving really slow "
p3513
sg24
S' fuck me, right?? '
p3514
sg26
Vseth-from-superbad
p3515
sg28
(lp3516
g236
ag3496
ag3497
ag3498
ag3499
ag3500
ag3501
ag3502
ag3503
ag236
ag3504
ag3505
ag3506
ag3507
ag3508
ag3509
ag3510
ag3511
ag3512
aS'fuck'
p3517
aS'me'
p3518
ag64
aS'right'
p3519
ag33
ag33
asg34
(lp3520
g3517
ag3518
ag64
ag3519
ag33
ag33
asba(iMeme
Meme
p3521
(dp3522
g3
(lp3523
g236
aS'say'
p3524
aS'hello'
p3525
aS'and'
p3526
aS'you'
p3527
aS'still'
p3528
aS'dont'
p3529
aS'respond'
p3530
asg22
S'i say hello and you still dont respond '
p3531
sg24
S' fuck me, right? '
p3532
sg26
Vseth-from-superbad
p3533
sg28
(lp3534
g236
ag3524
ag3525
ag3526
ag3527
ag3528
ag3529
ag3530
aS'fuck'
p3535
aS'me'
p3536
ag64
aS'right'
p3537
ag33
asg34
(lp3538
g3535
ag3536
ag64
ag3537
ag33
asba(iMeme
Meme
p3539
(dp3540
g3
(lp3541
S'all'
p3542
ag236
aS'want'
p3543
aS'is'
p3544
aS'my'
p3545
aS'lunch'
p3546
aS'before'
p3547
aS'my'
p3548
aS'break'
p3549
aS'is'
p3550
aS'over'
p3551
asg22
S'all i want is my lunch before my break is over '
p3552
sg24
S' Fuck me, right? '
p3553
sg26
Vseth-from-superbad
p3554
sg28
(lp3555
g3542
ag236
ag3543
ag3544
ag3545
ag3546
ag3547
ag3548
ag3549
ag3550
ag3551
aS'Fuck'
p3556
aS'me'
p3557
ag64
aS'right'
p3558
ag33
asg34
(lp3559
g3556
ag3557
ag64
ag3558
ag33
asba(iMeme
Meme
p3560
(dp3561
g3
(lp3562
g5
aS'paid'
p3563
ag265
aS'26.50'
p3564
aS'in'
p3565
aS'ticketing'
p3566
aS'fees'
p3567
asg22
S'I paid $26.50 in ticketing fees '
p3568
sg24
S' fuck me, right? '
p3569
sg26
Vseth-from-superbad
p3570
sg28
(lp3571
g5
ag3563
ag265
ag3564
ag3565
ag3566
ag3567
aS'fuck'
p3572
aS'me'
p3573
ag64
aS'right'
p3574
ag33
asg34
(lp3575
g3572
ag3573
ag64
ag3574
ag33
asba(iMeme
Meme
p3576
(dp3577
g3
(lp3578
S'your'
p3579
aS'jokes'
p3580
aS'are'
p3581
aS"n't"
p3582
aS'funny'
p3583
asg22
S"your jokes aren't funny "
p3584
sg24
S' but mine are '
p3585
sg26
Vseth-from-superbad
p3586
sg28
(lp3587
g3579
ag3580
ag3581
ag3582
ag3583
aS'but'
p3588
aS'mine'
p3589
aS'are'
p3590
asg34
(lp3591
g3588
ag3589
ag3590
asba(iMeme
Meme
p3592
(dp3593
g3
(lp3594
g236
aS'shout'
p3595
aS'instead'
p3596
aS'of'
p3597
aS'talking'
p3598
asg22
S'i shout instead of talking '
p3599
sg24
S' fuck me, right? '
p3600
sg26
Vseth-from-superbad
p3601
sg28
(lp3602
g236
ag3595
ag3596
ag3597
ag3598
aS'fuck'
p3603
aS'me'
p3604
ag64
aS'right'
p3605
ag33
asg34
(lp3606
g3603
ag3604
ag64
ag3605
ag33
asba(iMeme
Meme
p3607
(dp3608
g3
(lp3609
g236
aS"'m"
p3610
aS'in'
p3611
aS'the'
p3612
aS'left'
p3613
aS'lane'
p3614
aS'for'
p3615
aS'30'
p3616
aS'seconds'
p3617
aS'going'
p3618
aS'the'
p3619
aS'absolute'
p3620
aS'maximum'
p3621
aS'legal'
p3622
aS'speed'
p3623
aS'passing'
p3624
aS'someone'
p3625
aS'going'
p3626
aS'much'
p3627
aS'slower'
p3628
asg22
S"i'm in the left lane for 30 seconds going the absolute maximum legal speed passing someone going much slower "
p3629
sg24
S' fuck me, right??? '
p3630
sg26
Vseth-from-superbad
p3631
sg28
(lp3632
g236
ag3610
ag3611
ag3612
ag3613
ag3614
ag3615
ag3616
ag3617
ag3618
ag3619
ag3620
ag3621
ag3622
ag3623
ag3624
ag3625
ag3626
ag3627
ag3628
aS'fuck'
p3633
aS'me'
p3634
ag64
aS'right'
p3635
ag33
ag33
ag33
asg34
(lp3636
g3633
ag3634
ag64
ag3635
ag33
ag33
ag33
asba(iMeme
Meme
p3637
(dp3638
g3
(lp3639
g5
aS"'m"
p3640
aS'trying'
p3641
aS'to'
p3642
aS'save'
p3643
aS'money'
p3644
aS'so'
p3645
ag5
aS'can'
p3646
aS'pay'
p3647
aS'off'
p3648
aS'my'
p3649
aS'debt'
p3650
ag64
aS'go'
p3651
aS'back'
p3652
aS'to'
p3653
aS'school'
p3654
ag64
aS'and'
p3655
aS'raise'
p3656
aS'my'
p3657
aS'credit'
p3658
aS'score'
p3659
asg22
S"I'm trying to save money so I can pay off my debt, go back to school, and raise my credit score "
p3660
sg24
S' Fuck me, right? '
p3661
sg26
Vseth-from-superbad
p3662
sg28
(lp3663
g5
ag3640
ag3641
ag3642
ag3643
ag3644
ag3645
ag5
ag3646
ag3647
ag3648
ag3649
ag3650
ag64
ag3651
ag3652
ag3653
ag3654
ag64
ag3655
ag3656
ag3657
ag3658
ag3659
aS'Fuck'
p3664
aS'me'
p3665
ag64
aS'right'
p3666
ag33
asg34
(lp3667
g3664
ag3665
ag64
ag3666
ag33
asba(iMeme
Meme
p3668
(dp3669
g3
(lp3670
g5
aS"'m"
p3671
aS'worried'
p3672
aS'for'
p3673
aS'humanity'
p3674
asg22
S"I'm worried for humanity  "
p3675
sg24
S' fuck me, right?! '
p3676
sg26
Vseth-from-superbad
p3677
sg28
(lp3678
g5
ag3671
ag3672
ag3673
ag3674
aS'fuck'
p3679
aS'me'
p3680
ag64
aS'right'
p3681
ag33
ag47
asg34
(lp3682
g3679
ag3680
ag64
ag3681
ag33
ag47
asba(iMeme
Meme
p3683
(dp3684
g3
(lp3685
g5
aS'do'
p3686
aS"n't"
p3687
aS'want'
p3688
aS'to'
p3689
aS'tailgate'
p3690
aS'you'
p3691
aS'and'
p3692
aS'ride'
p3693
aS'my'
p3694
aS'brakes'
p3695
aS'hard'
p3696
aS'on'
p3697
aS'my'
p3698
aS'motorcycle'
p3699
ag179
asg22
S"I don't want to tailgate you and ride my brakes hard on my motorcycle. "
p3700
sg24
S' Fuck me, right? '
p3701
sg26
Vseth-from-superbad
p3702
sg28
(lp3703
g5
ag3686
ag3687
ag3688
ag3689
ag3690
ag3691
ag3692
ag3693
ag3694
ag3695
ag3696
ag3697
ag3698
ag3699
ag179
aS'Fuck'
p3704
aS'me'
p3705
ag64
aS'right'
p3706
ag33
asg34
(lp3707
g3704
ag3705
ag64
ag3706
ag33
asba(iMeme
Meme
p3708
(dp3709
g3
(lp3710
S'We'
p3711
aS'met'
p3712
aS'on'
p3713
ag383
aS'dating'
p3714
aS'site'
p3715
aS'and'
p3716
ag5
aS'actually'
p3717
aS'want'
p3718
aS'to'
p3719
aS'go'
p3720
aS'on'
p3721
ag383
aS'date'
p3722
asg22
S'We met on a dating site and I actually want to go on a date '
p3723
sg24
S' Fuck me, right? '
p3724
sg26
Vseth-from-superbad
p3725
sg28
(lp3726
g3711
ag3712
ag3713
ag383
ag3714
ag3715
ag3716
ag5
ag3717
ag3718
ag3719
ag3720
ag3721
ag383
ag3722
aS'Fuck'
p3727
aS'me'
p3728
ag64
aS'right'
p3729
ag33
asg34
(lp3730
g3727
ag3728
ag64
ag3729
ag33
asba(iMeme
Meme
p3731
(dp3732
g3
(lp3733
g5
aS'made'
p3734
aS'uh'
p3735
aS'funni'
p3736
aS'maymay'
p3737
asg22
S'I made uh funni maymay '
p3738
sg24
S' did you...lel kek? '
p3739
sg26
Vseth-from-superbad
p3740
sg28
(lp3741
g5
ag3734
ag3735
ag3736
ag3737
aS'did'
p3742
aS'you'
p3743
aS'...'
p3744
aS'lel'
p3745
aS'kek'
p3746
ag33
asg34
(lp3747
g3742
ag3743
ag3744
ag3745
ag3746
ag33
asba(iMeme
Meme
p3748
(dp3749
g3
(lp3750
S'Cool'
p3751
aS'ignore'
p3752
aS'my'
p3753
aS'text'
p3754
asg22
S'Cool ignore my text '
p3755
sg24
S' Fuck me right? '
p3756
sg26
Vseth-from-superbad
p3757
sg28
(lp3758
g3751
ag3752
ag3753
ag3754
aS'Fuck'
p3759
aS'me'
p3760
aS'right'
p3761
ag33
asg34
(lp3762
g3759
ag3760
ag3761
ag33
asba(iMeme
Meme
p3763
(dp3764
g3
(lp3765
g5
aS'actually'
p3766
aS'like'
p3767
aS'funny'
p3768
aS'and'
p3769
aS'insightful'
p3770
aS'ideas'
p3771
asg22
S'I actually like funny and insightful ideas '
p3772
sg24
S' Fuck me, right '
p3773
sg26
Vseth-from-superbad
p3774
sg28
(lp3775
g5
ag3766
ag3767
ag3768
ag3769
ag3770
ag3771
aS'Fuck'
p3776
aS'me'
p3777
ag64
aS'right'
p3778
asg34
(lp3779
g3776
ag3777
ag64
ag3778
asba(iMeme
Meme
p3780
(dp3781
g3
(lp3782
S'Oh'
p3783
aS'yeah'
p3784
ag64
asg22
S'Oh yeah, '
p3785
sg24
S' Fuck me, right? '
p3786
sg26
Vseth-from-superbad
p3787
sg28
(lp3788
g3783
ag3784
ag64
aS'Fuck'
p3789
aS'me'
p3790
ag64
aS'right'
p3791
ag33
asg34
(lp3792
g3789
ag3790
ag64
ag3791
ag33
asba(iMeme
Meme
p3793
(dp3794
g3
(lp3795
S'when'
p3796
aS'your'
p3797
aS'crush'
p3798
asg22
S'when your crush  '
p3799
sg24
S' and his gf break up '
p3800
sg26
Vseth-from-superbad
p3801
sg28
(lp3802
g3796
ag3797
ag3798
aS'and'
p3803
aS'his'
p3804
aS'gf'
p3805
aS'break'
p3806
aS'up'
p3807
asg34
(lp3808
g3803
ag3804
ag3805
ag3806
ag3807
asba(iMeme
Meme
p3809
(dp3810
g3
(lp3811
S'this'
p3812
aS'still'
p3813
aS'is'
p3814
aS"n't"
p3815
aS'my'
p3816
aS'final'
p3817
aS'form'
p3818
asg22
S"this still isn't my final form "
p3819
sg24
S' fuck me, right? '
p3820
sg26
Vseth-from-superbad
p3821
sg28
(lp3822
g3812
ag3813
ag3814
ag3815
ag3816
ag3817
ag3818
aS'fuck'
p3823
aS'me'
p3824
ag64
aS'right'
p3825
ag33
asg34
(lp3826
g3823
ag3824
ag64
ag3825
ag33
asba(iMeme
Meme
p3827
(dp3828
g3
(lp3829
g5
aS'like'
p3830
aS'the'
p3831
aS'new'
p3832
aS'patch'
p3833
aS'treyarch'
p3834
aS'made'
p3835
asg22
S'I like the new patch treyarch made '
p3836
sg24
S' fuck me, right? '
p3837
sg26
Vseth-from-superbad
p3838
sg28
(lp3839
g5
ag3830
ag3831
ag3832
ag3833
ag3834
ag3835
aS'fuck'
p3840
aS'me'
p3841
ag64
aS'right'
p3842
ag33
asg34
(lp3843
g3840
ag3841
ag64
ag3842
ag33
asba(iMeme
Meme
p3844
(dp3845
g3
(lp3846
S'aww'
p3847
aS'aye'
p3848
asg22
S'aww aye '
p3849
sg24
S' hink yer a funny cunt '
p3850
sg26
Vseth-from-superbad
p3851
sg28
(lp3852
g3847
ag3848
aS'hink'
p3853
aS'yer'
p3854
ag383
aS'funny'
p3855
aS'cunt'
p3856
asg34
(lp3857
g3853
ag3854
ag383
ag3855
ag3856
asba(iMeme
Meme
p3858
(dp3859
g3
(lp3860
g5
aS'actually'
p3861
aS'want'
p3862
aS'to'
p3863
aS'get'
p3864
ag383
aS'job'
p3865
aS'and'
p3866
aS'get'
p3867
aS'off'
p3868
aS'assistance'
p3869
asg22
S'I actually want to get a job and get off assistance '
p3870
sg24
S' FUck me, right? '
p3871
sg26
Vseth-from-superbad
p3872
sg28
(lp3873
g5
ag3861
ag3862
ag3863
ag3864
ag383
ag3865
ag3866
ag3867
ag3868
ag3869
aS'FUck'
p3874
aS'me'
p3875
ag64
aS'right'
p3876
ag33
asg34
(lp3877
g3874
ag3875
ag64
ag3876
ag33
asba(iMeme
Meme
p3878
(dp3879
g3
(lp3880
g5
aS'actually'
p3881
aS'want'
p3882
aS'to'
p3883
aS'get'
p3884
ag383
aS'job'
p3885
aS'and'
p3886
aS'get'
p3887
aS'off'
p3888
aS'of'
p3889
aS'unemployment'
p3890
asg22
S'I actually want to get a job and get off of unemployment '
p3891
sg24
S' fuck me, right? '
p3892
sg26
Vseth-from-superbad
p3893
sg28
(lp3894
g5
ag3881
ag3882
ag3883
ag3884
ag383
ag3885
ag3886
ag3887
ag3888
ag3889
ag3890
aS'fuck'
p3895
aS'me'
p3896
ag64
aS'right'
p3897
ag33
asg34
(lp3898
g3895
ag3896
ag64
ag3897
ag33
asba(iMeme
Meme
p3899
(dp3900
g3
(lp3901
g5
aS'got'
p3902
aS'the'
p3903
aS'app'
p3904
asg22
S'I got the app '
p3905
sg24
S' fuck me right? '
p3906
sg26
Vseth-from-superbad
p3907
sg28
(lp3908
g5
ag3902
ag3903
ag3904
aS'fuck'
p3909
aS'me'
p3910
aS'right'
p3911
ag33
asg34
(lp3912
g3909
ag3910
ag3911
ag33
asba(iMeme
Meme
p3913
(dp3914
g3
(lp3915
g236
aS'know'
p3916
asg22
S'i know '
p3917
sg24
S' fuck me right? '
p3918
sg26
Vseth-from-superbad
p3919
sg28
(lp3920
g236
ag3916
aS'fuck'
p3921
aS'me'
p3922
aS'right'
p3923
ag33
asg34
(lp3924
g3921
ag3922
ag3923
ag33
asba(iMeme
Meme
p3925
(dp3926
g3
(lp3927
g5
aS'think'
p3928
aS'body'
p3929
aS'builders'
p3930
aS'of'
p3931
aS'any'
p3932
aS'seX'
p3933
aS'are'
p3934
aS'disturbing'
p3935
aS'to'
p3936
aS'look'
p3937
aS'at'
p3938
asg22
S'I think body builders of any seX are disturbing to look at '
p3939
sg24
S' Fuck me right? '
p3940
sg26
Vseth-from-superbad
p3941
sg28
(lp3942
g5
ag3928
ag3929
ag3930
ag3931
ag3932
ag3933
ag3934
ag3935
ag3936
ag3937
ag3938
aS'Fuck'
p3943
aS'me'
p3944
aS'right'
p3945
ag33
asg34
(lp3946
g3943
ag3944
ag3945
ag33
asba(iMeme
Meme
p3947
(dp3948
g3
(lp3949
sg22
S' '
p3950
sg24
S' these drinks are good right '
p3951
sg26
Vseth-from-superbad
p3952
sg28
(lp3953
S'these'
p3954
aS'drinks'
p3955
aS'are'
p3956
aS'good'
p3957
aS'right'
p3958
asg34
(lp3959
g3954
ag3955
ag3956
ag3957
ag3958
asba(iMeme
Meme
p3960
(dp3961
g3
(lp3962
g5
aS'love'
p3963
aS'camping'
p3964
asg22
S'I love camping '
p3965
sg24
S' Fuck me Right? '
p3966
sg26
Vseth-from-superbad
p3967
sg28
(lp3968
g5
ag3963
ag3964
aS'Fuck'
p3969
aS'me'
p3970
aS'Right'
p3971
ag33
asg34
(lp3972
g3969
ag3970
ag3971
ag33
asba(iMeme
Meme
p3973
(dp3974
g3
(lp3975
g5
aS'actually'
p3976
aS'like'
p3977
aS'MRE'
p3978
aS"'s"
p3979
aS'food'
p3980
asg22
S"I actually like MRE's food "
p3981
sg24
S' Fuck me, right? '
p3982
sg26
Vseth-from-superbad
p3983
sg28
(lp3984
g5
ag3976
ag3977
ag3978
ag3979
ag3980
aS'Fuck'
p3985
aS'me'
p3986
ag64
aS'right'
p3987
ag33
asg34
(lp3988
g3985
ag3986
ag64
ag3987
ag33
asba(iMeme
Meme
p3989
(dp3990
g3
(lp3991
S'so'
p3992
ag236
aS'snuck'
p3993
aS'fruit'
p3994
aS'into'
p3995
aS'my'
p3996
aS'pocket'
p3997
asg22
S'so i snuck fruit into my pocket '
p3998
sg24
S' and still took 2 juices '
p3999
sg26
Vseth-from-superbad
p4000
sg28
(lp4001
g3992
ag236
ag3993
ag3994
ag3995
ag3996
ag3997
aS'and'
p4002
aS'still'
p4003
aS'took'
p4004
ag20
aS'juices'
p4005
asg34
(lp4006
g4002
ag4003
ag4004
ag20
ag4005
asba(iMeme
Meme
p4007
(dp4008
g3
(lp4009
S'test'
p4010
asg22
S'test '
p4011
sg24
S' fuck me right? '
p4012
sg26
Vseth-from-superbad
p4013
sg28
(lp4014
g4010
aS'fuck'
p4015
aS'me'
p4016
aS'right'
p4017
ag33
asg34
(lp4018
g4015
ag4016
ag4017
ag33
asba(iMeme
Meme
p4019
(dp4020
g3
(lp4021
g5
aS"'m"
p4022
aS'actually'
p4023
aS'working'
p4024
asg22
S"I'm actually working "
p4025
sg24
S' fuck me right? '
p4026
sg26
Vseth-from-superbad
p4027
sg28
(lp4028
g5
ag4022
ag4023
ag4024
aS'fuck'
p4029
aS'me'
p4030
aS'right'
p4031
ag33
asg34
(lp4032
g4029
ag4030
ag4031
ag33
asba(iMeme
Meme
p4033
(dp4034
g3
(lp4035
S'Boyfriend'
p4036
aS'of'
p4037
aS'1'
p4038
aS'year'
p4039
aS'dumps'
p4040
aS'me'
p4041
aS'for'
p4042
aS'being'
p4043
aS'too'
p4044
aS'nice'
p4045
asg22
S'Boyfriend of 1 year dumps me for being too nice '
p4046
sg24
S' fuck me right? '
p4047
sg26
Vseth-from-superbad
p4048
sg28
(lp4049
g4036
ag4037
ag4038
ag4039
ag4040
ag4041
ag4042
ag4043
ag4044
ag4045
aS'fuck'
p4050
aS'me'
p4051
aS'right'
p4052
ag33
asg34
(lp4053
g4050
ag4051
ag4052
ag33
asba(iMeme
Meme
p4054
(dp4055
g3
(lp4056
g5
aS'actually'
p4057
aS'prefer'
p4058
aS'leaving'
p4059
aS'the'
p4060
aS'lights'
p4061
aS'off'
p4062
aS'if'
p4063
aS'there'
p4064
aS'are'
p4065
aS'windows'
p4066
asg22
S'I actually prefer leaving the lights off if there are windows '
p4067
sg24
S' Fuck me, right?  '
p4068
sg26
Vseth-from-superbad
p4069
sg28
(lp4070
g5
ag4057
ag4058
ag4059
ag4060
ag4061
ag4062
ag4063
ag4064
ag4065
ag4066
aS'Fuck'
p4071
aS'me'
p4072
ag64
aS'right'
p4073
ag33
asg34
(lp4074
g4071
ag4072
ag64
ag4073
ag33
asba(iMeme
Meme
p4075
(dp4076
g3
(lp4077
S'blood'
p4078
aS'on'
p4079
aS'the'
p4080
aS'dancefloor'
p4081
aS'sucks'
p4082
aS'would'
p4083
aS'you'
p4084
aS'agree'
p4085
aS'mr.hill'
p4086
asg22
S'blood on the dancefloor sucks would you agree mr.hill '
p4087
sg24
S' FUCK YEAH I DO '
p4088
sg26
Vseth-from-superbad
p4089
sg28
(lp4090
g4078
ag4079
ag4080
ag4081
ag4082
ag4083
ag4084
ag4085
ag4086
aS'FUCK'
p4091
aS'YEAH'
p4092
ag5
aS'DO'
p4093
asg34
(lp4094
g4091
ag4092
ag5
ag4093
asba(iMeme
Meme
p4095
(dp4096
g3
(lp4097
g5
aS'expect'
p4098
aS'not'
p4099
aS'to'
p4100
aS'be'
p4101
aS'killed'
p4102
aS'after'
p4103
aS'eat'
p4104
aS'bread'
p4105
aS'and'
p4106
aS'salt'
p4107
asg22
S'I expect not to be killed after eat bread and salt  '
p4108
sg24
S'  '
p4109
sg26
Vseth-from-superbad
p4110
sg28
(lp4111
g5
ag4098
ag4099
ag4100
ag4101
ag4102
ag4103
ag4104
ag4105
ag4106
ag4107
asg34
(lp4112
sba(iMeme
Meme
p4113
(dp4114
g3
(lp4115
S'How'
p4116
aS'did'
p4117
ag993
aS'like'
p4118
aS'my'
p4119
aS'pic'
p4120
aS'so'
p4121
aS'fast'
p4122
asg22
S'How did u like my pic so fast  '
p4123
sg24
S" Oops I forgot u don't have a job  "
p4124
sg26
Vseth-from-superbad
p4125
sg28
(lp4126
g4116
ag4117
ag993
ag4118
ag4119
ag4120
ag4121
ag4122
aS'Oops'
p4127
ag5
aS'forgot'
p4128
ag993
aS'do'
p4129
aS"n't"
p4130
aS'have'
p4131
ag383
aS'job'
p4132
asg34
(lp4133
g4127
ag5
ag4128
ag993
ag4129
ag4130
ag4131
ag383
ag4132
asba(iMeme
Meme
p4134
(dp4135
g3
(lp4136
S'what'
p4137
aS'you'
p4138
aS'think'
p4139
aS'highschool'
p4140
aS'is'
p4141
aS'like'
p4142
asg22
S'what you think highschool is like '
p4143
sg24
S' its actually just a superbad sequel '
p4144
sg26
Vseth-from-superbad
p4145
sg28
(lp4146
g4137
ag4138
ag4139
ag4140
ag4141
ag4142
aS'its'
p4147
aS'actually'
p4148
aS'just'
p4149
ag383
aS'superbad'
p4150
aS'sequel'
p4151
asg34
(lp4152
g4147
ag4148
ag4149
ag383
ag4150
ag4151
asba(iMeme
Meme
p4153
(dp4154
g3
(lp4155
g5
aS"'m"
p4156
aS'an'
p4157
aS'older'
p4158
aS'user'
p4159
aS'on'
p4160
aS'rrrather'
p4161
asg22
S"I'm an older user on rrrather "
p4162
sg24
S' FUCK ME, RIGHT?!? '
p4163
sg26
Vseth-from-superbad
p4164
sg28
(lp4165
g5
ag4156
ag4157
ag4158
ag4159
ag4160
ag4161
aS'FUCK'
p4166
aS'ME'
p4167
ag64
aS'RIGHT'
p4168
ag33
ag47
ag33
asg34
(lp4169
g4166
ag4167
ag64
ag4168
ag33
ag47
ag33
asba(iMeme
Meme
p4170
(dp4171
g3
(lp4172
g5
aS"'m"
p4173
aS'just'
p4174
aS'trying'
p4175
aS'to'
p4176
aS'stop'
p4177
aS'plagiarism'
p4178
aS'give'
p4179
aS'credit'
p4180
aS'to'
p4181
aS'the'
p4182
aS'guy'
p4183
aS'who'
p4184
aS'did'
p4185
aS'the'
p4186
aS'work'
p4187
asg22
S"I'm just trying to stop plagiarism give credit to the guy who did the work "
p4188
sg24
S' Fuck me, Right? '
p4189
sg26
Vseth-from-superbad
p4190
sg28
(lp4191
g5
ag4173
ag4174
ag4175
ag4176
ag4177
ag4178
ag4179
ag4180
ag4181
ag4182
ag4183
ag4184
ag4185
ag4186
ag4187
aS'Fuck'
p4192
aS'me'
p4193
ag64
aS'Right'
p4194
ag33
asg34
(lp4195
g4192
ag4193
ag64
ag4194
ag33
asba(iMeme
Meme
p4196
(dp4197
g3
(lp4198
S'my'
p4199
aS'second'
p4200
aS'base'
p4201
aS'and'
p4202
aS'people'
p4203
aS'ask'
p4204
aS'if'
p4205
aS'it'
p4206
aS"'s"
p4207
aS'my'
p4208
aS'first'
p4209
asg22
S"my second base and people ask if it's my first "
p4210
sg24
S' fuck me, right? '
p4211
sg26
Vseth-from-superbad
p4212
sg28
(lp4213
g4199
ag4200
ag4201
ag4202
ag4203
ag4204
ag4205
ag4206
ag4207
ag4208
ag4209
aS'fuck'
p4214
aS'me'
p4215
ag64
aS'right'
p4216
ag33
asg34
(lp4217
g4214
ag4215
ag64
ag4216
ag33
asba(iMeme
Meme
p4218
(dp4219
g3
(lp4220
g5
aS'love'
p4221
aS'you'
p4222
asg22
S'I love you '
p4223
sg24
S' fuck me, right? '
p4224
sg26
Vseth-from-superbad
p4225
sg28
(lp4226
g5
ag4221
ag4222
aS'fuck'
p4227
aS'me'
p4228
ag64
aS'right'
p4229
ag33
asg34
(lp4230
g4227
ag4228
ag64
ag4229
ag33
asba(iMeme
Meme
p4231
(dp4232
g3
(lp4233
g5
aS'wanted'
p4234
aS'to'
p4235
aS'provide'
p4236
aS'quality'
p4237
aS'customer'
p4238
aS'service'
p4239
asg22
S'I wanted to provide quality customer service '
p4240
sg24
S' Fuck me, right? '
p4241
sg26
Vseth-from-superbad
p4242
sg28
(lp4243
g5
ag4234
ag4235
ag4236
ag4237
ag4238
ag4239
aS'Fuck'
p4244
aS'me'
p4245
ag64
aS'right'
p4246
ag33
asg34
(lp4247
g4244
ag4245
ag64
ag4246
ag33
asba(iMeme
Meme
p4248
(dp4249
g3
(lp4250
S'what'
p4251
aS'no'
p4252
ag236
aS'didnt'
p4253
aS'do'
p4254
aS'that'
p4255
asg22
S'what no i didnt do that '
p4256
sg24
S'  '
p4257
sg26
Vseth-from-superbad
p4258
sg28
(lp4259
g4251
ag4252
ag236
ag4253
ag4254
ag4255
asg34
(lp4260
sba(iMeme
Meme
p4261
(dp4262
g3
(lp4263
g236
aS'think'
p4264
aS'you'
p4265
aS'should'
p4266
aS'be'
p4267
aS'able'
p4268
aS'to'
p4269
aS'marry'
p4270
aS'whoever'
p4271
aS'you'
p4272
aS'love'
p4273
asg22
S'i think you should be able to marry whoever you love '
p4274
sg24
S' fuck me right? '
p4275
sg26
Vseth-from-superbad
p4276
sg28
(lp4277
g236
ag4264
ag4265
ag4266
ag4267
ag4268
ag4269
ag4270
ag4271
ag4272
ag4273
aS'fuck'
p4278
aS'me'
p4279
aS'right'
p4280
ag33
asg34
(lp4281
g4278
ag4279
ag4280
ag33
asba(iMeme
Meme
p4282
(dp4283
g3
(lp4284
g5
aS'do'
p4285
aS"n't"
p4286
aS'want'
p4287
aS'my'
p4288
aS'new'
p4289
aS'car'
p4290
aS'scratched'
p4291
aS'and'
p4292
aS'dented'
p4293
aS'up'
p4294
asg22
S"I don't want my new car scratched and dented up "
p4295
sg24
S' fuck me, right? '
p4296
sg26
Vseth-from-superbad
p4297
sg28
(lp4298
g5
ag4285
ag4286
ag4287
ag4288
ag4289
ag4290
ag4291
ag4292
ag4293
ag4294
aS'fuck'
p4299
aS'me'
p4300
ag64
aS'right'
p4301
ag33
asg34
(lp4302
g4299
ag4300
ag64
ag4301
ag33
asba(iMeme
Meme
p4303
(dp4304
g3
(lp4305
g236
aS'like'
p4306
aS'more'
p4307
aS'than'
p4308
aS'one'
p4309
aS'genre'
p4310
aS'of'
p4311
aS'music'
p4312
asg22
S'i like more than one genre  of music  '
p4313
sg24
S' fuck me right '
p4314
sg26
Vseth-from-superbad
p4315
sg28
(lp4316
g236
ag4306
ag4307
ag4308
ag4309
ag4310
ag4311
ag4312
aS'fuck'
p4317
aS'me'
p4318
aS'right'
p4319
asg34
(lp4320
g4317
ag4318
ag4319
asba(iMeme
Meme
p4321
(dp4322
g3
(lp4323
g5
aS"'m"
p4324
aS'happy'
p4325
aS'my'
p4326
aS'friend'
p4327
aS"'s"
p4328
aS'relationship'
p4329
aS'failed'
p4330
asg22
S"I'm happy my friend's relationship failed "
p4331
sg24
S' Fuck me RIght '
p4332
sg26
Vseth-from-superbad
p4333
sg28
(lp4334
g5
ag4324
ag4325
ag4326
ag4327
ag4328
ag4329
ag4330
aS'Fuck'
p4335
aS'me'
p4336
aS'RIght'
p4337
asg34
(lp4338
g4335
ag4336
ag4337
asba(iMeme
Meme
p4339
(dp4340
g3
(lp4341
g5
aS'think'
p4342
aS'there'
p4343
aS'is'
p4344
aS'far'
p4345
aS'too'
p4346
aS'much'
p4347
aS'pointless'
p4348
aS'vulgarity'
p4349
aS'in'
p4350
aS'the'
p4351
aS'world'
p4352
ag179
asg22
S'I think there is far too much pointless vulgarity in the world.  '
p4353
sg24
S' Too bad for me, right?  '
p4354
sg26
Vseth-from-superbad
p4355
sg28
(lp4356
g5
ag4342
ag4343
ag4344
ag4345
ag4346
ag4347
ag4348
ag4349
ag4350
ag4351
ag4352
ag179
aS'Too'
p4357
aS'bad'
p4358
aS'for'
p4359
aS'me'
p4360
ag64
aS'right'
p4361
ag33
asg34
(lp4362
g4357
ag4358
ag4359
ag4360
ag64
ag4361
ag33
asba(iMeme
Meme
p4363
(dp4364
g3
(lp4365
g236
aS'just'
p4366
aS'want'
p4367
aS'to'
p4368
aS'browse'
p4369
aS'half'
p4370
ag383
aS'page'
p4371
aS'in'
p4372
aS'/r/til'
p4373
aS'and'
p4374
aS'not'
p4375
aS'be'
p4376
aS'exposed'
p4377
aS'to'
p4378
ag383
aS'repost'
p4379
asg22
S'i just want to browse half a page in /r/til and not be exposed to a repost '
p4380
sg24
S' Fuck me, Right? '
p4381
sg26
Vseth-from-superbad
p4382
sg28
(lp4383
g236
ag4366
ag4367
ag4368
ag4369
ag4370
ag383
ag4371
ag4372
ag4373
ag4374
ag4375
ag4376
ag4377
ag4378
ag383
ag4379
aS'Fuck'
p4384
aS'me'
p4385
ag64
aS'Right'
p4386
ag33
asg34
(lp4387
g4384
ag4385
ag64
ag4386
ag33
asba(iMeme
Meme
p4388
(dp4389
g3
(lp4390
S'hahahahaha'
p4391
asg22
S'hahahahaha '
p4392
sg24
S' my right ear and arm are missing '
p4393
sg26
Vseth-from-superbad
p4394
sg28
(lp4395
g4391
aS'my'
p4396
aS'right'
p4397
aS'ear'
p4398
aS'and'
p4399
aS'arm'
p4400
aS'are'
p4401
aS'missing'
p4402
asg34
(lp4403
g4396
ag4397
ag4398
ag4399
ag4400
ag4401
ag4402
asba(iMeme
Meme
p4404
(dp4405
g3
(lp4406
S'coached'
p4407
aS'me'
p4408
aS'for'
p4409
aS'an'
p4410
aS'error'
p4411
aS'where'
p4412
aS'it'
p4413
aS'the'
p4414
aS'protocol'
p4415
aS'was'
p4416
aS'not'
p4417
aS'even'
p4418
aS'clear'
p4419
aS'and'
p4420
aS'confusing'
p4421
aS'...'
p4422
asg22
S'coached me for an error where it the protocol was not even clear and confusing... '
p4423
sg24
S' markdown me right? '
p4424
sg26
Vseth-from-superbad
p4425
sg28
(lp4426
g4407
ag4408
ag4409
ag4410
ag4411
ag4412
ag4413
ag4414
ag4415
ag4416
ag4417
ag4418
ag4419
ag4420
ag4421
ag4422
aS'markdown'
p4427
aS'me'
p4428
aS'right'
p4429
ag33
asg34
(lp4430
g4427
ag4428
ag4429
ag33
asba(iMeme
Meme
p4431
(dp4432
g3
(lp4433
S'Told'
p4434
aS'OP'
p4435
aS'she'
p4436
aS'was'
p4437
aS'pretty'
p4438
ag64
aS'got'
p4439
aS'downvoted'
p4440
asg22
S'Told OP she was pretty, got downvoted '
p4441
sg24
S' Fuck me, right? '
p4442
sg26
Vseth-from-superbad
p4443
sg28
(lp4444
g4434
ag4435
ag4436
ag4437
ag4438
ag64
ag4439
ag4440
aS'Fuck'
p4445
aS'me'
p4446
ag64
aS'right'
p4447
ag33
asg34
(lp4448
g4445
ag4446
ag64
ag4447
ag33
asba(iMeme
Meme
p4449
(dp4450
g3
(lp4451
g236
aS'dont'
p4452
aS'want'
p4453
aS'to'
p4454
aS'go'
p4455
aS'to'
p4456
aS'Off'
p4457
aS'the'
p4458
aS'grid'
p4459
aS'because'
p4460
aS'its'
p4461
aS'so'
p4462
aS'expensive'
p4463
aS'and'
p4464
ag236
aS"'m"
p4465
ag383
aS'college'
p4466
aS'student'
p4467
asg22
S"i dont want to go to Off the grid because its so expensive and i'm a college student "
p4468
sg24
S' fuck me, right? '
p4469
sg26
Vseth-from-superbad
p4470
sg28
(lp4471
g236
ag4452
ag4453
ag4454
ag4455
ag4456
ag4457
ag4458
ag4459
ag4460
ag4461
ag4462
ag4463
ag4464
ag236
ag4465
ag383
ag4466
ag4467
aS'fuck'
p4472
aS'me'
p4473
ag64
aS'right'
p4474
ag33
asg34
(lp4475
g4472
ag4473
ag64
ag4474
ag33
asba(iMeme
Meme
p4476
(dp4477
g3
(lp4478
g5
aS'stick'
p4479
aS'my'
p4480
aS'boners'
p4481
aS'in'
p4482
aS'my'
p4483
aS'waistband'
p4484
aS'because'
p4485
aS'Of'
p4486
aS'this'
p4487
aS'movie'
p4488
asg22
S'I stick my boners in my waistband because Of this movie '
p4489
sg24
S' Fuck me right? '
p4490
sg26
Vseth-from-superbad
p4491
sg28
(lp4492
g5
ag4479
ag4480
ag4481
ag4482
ag4483
ag4484
ag4485
ag4486
ag4487
ag4488
aS'Fuck'
p4493
aS'me'
p4494
aS'right'
p4495
ag33
asg34
(lp4496
g4493
ag4494
ag4495
ag33
asba(iMeme
Meme
p4497
(dp4498
g3
(lp4499
S'Trying'
p4500
aS'out'
p4501
aS'vegetarian'
p4502
aS'diet'
p4503
aS'for'
p4504
aS'health'
p4505
aS'and'
p4506
aS'personal'
p4507
aS'ethical'
p4508
aS'reasons'
p4509
asg22
S'Trying out vegetarian diet for health and personal ethical reasons '
p4510
sg24
S' Fuck me right? '
p4511
sg26
Vseth-from-superbad
p4512
sg28
(lp4513
g4500
ag4501
ag4502
ag4503
ag4504
ag4505
ag4506
ag4507
ag4508
ag4509
aS'Fuck'
p4514
aS'me'
p4515
aS'right'
p4516
ag33
asg34
(lp4517
g4514
ag4515
ag4516
ag33
asba(iMeme
Meme
p4518
(dp4519
g3
(lp4520
S'seriously'
p4521
asg22
S'seriously '
p4522
sg24
S' funk yo 3g coverage '
p4523
sg26
Vseth-from-superbad
p4524
sg28
(lp4525
g4521
aS'funk'
p4526
aS'yo'
p4527
aS'3g'
p4528
aS'coverage'
p4529
asg34
(lp4530
g4526
ag4527
ag4528
ag4529
asba(iMeme
Meme
p4531
(dp4532
g3
(lp4533
g236
aS'wear'
p4534
aS'nice'
p4535
aS'clothes'
p4536
asg22
S'i wear nice clothes '
p4537
sg24
S' fuck me right '
p4538
sg26
Vseth-from-superbad
p4539
sg28
(lp4540
g236
ag4534
ag4535
ag4536
aS'fuck'
p4541
aS'me'
p4542
aS'right'
p4543
asg34
(lp4544
g4541
ag4542
ag4543
asba(iMeme
Meme
p4545
(dp4546
g3
(lp4547
g5
aS'think'
p4548
ag383
aS'physical'
p4549
aS'attracTion'
p4550
aS'is'
p4551
aS'important'
p4552
aS'in'
p4553
ag383
aS'relaTionshIp'
p4554
asg22
S'I think a physical attracTion is important in a relaTionshIp  '
p4555
sg24
S' FuCk me right? '
p4556
sg26
Vseth-from-superbad
p4557
sg28
(lp4558
g5
ag4548
ag383
ag4549
ag4550
ag4551
ag4552
ag4553
ag383
ag4554
aS'FuCk'
p4559
aS'me'
p4560
aS'right'
p4561
ag33
asg34
(lp4562
g4559
ag4560
ag4561
ag33
asba(iMeme
Meme
p4563
(dp4564
g3
(lp4565
S'just'
p4566
aS'giving'
p4567
aS'you'
p4568
aS'the'
p4569
aS'opportunity'
p4570
aS'to'
p4571
aS'give'
p4572
aS'feedback'
p4573
asg22
S'just giving you the opportunity to give feedback '
p4574
sg24
S' fuck me, right? '
p4575
sg26
Vseth-from-superbad
p4576
sg28
(lp4577
g4566
ag4567
ag4568
ag4569
ag4570
ag4571
ag4572
ag4573
aS'fuck'
p4578
aS'me'
p4579
ag64
aS'right'
p4580
ag33
asg34
(lp4581
g4578
ag4579
ag64
ag4580
ag33
asba(iMeme
Meme
p4582
(dp4583
g3
(lp4584
S'Calling'
p4585
aS'to'
p4586
aS'complain'
p4587
aS'about'
p4588
aS'an'
p4589
aS'officers'
p4590
aS'illegal'
p4591
aS'action'
p4592
aS'gets'
p4593
aS'multiple'
p4594
aS'people'
p4595
aS'banned'
p4596
aS'and'
p4597
aS'censored'
p4598
asg22
S'Calling to complain about an officers illegal action gets multiple people banned and censored '
p4599
sg24
S' Fuck us, right? '
p4600
sg26
Vseth-from-superbad
p4601
sg28
(lp4602
g4585
ag4586
ag4587
ag4588
ag4589
ag4590
ag4591
ag4592
ag4593
ag4594
ag4595
ag4596
ag4597
ag4598
aS'Fuck'
p4603
aS'us'
p4604
ag64
aS'right'
p4605
ag33
asg34
(lp4606
g4603
ag4604
ag64
ag4605
ag33
asba(iMeme
Meme
p4607
(dp4608
g3
(lp4609
S'dont'
p4610
aS'stop'
p4611
asg22
S'dont stop '
p4612
sg24
S' the party '
p4613
sg26
Vseth-from-superbad
p4614
sg28
(lp4615
g4610
ag4611
aS'the'
p4616
aS'party'
p4617
asg34
(lp4618
g4616
ag4617
asba(iMeme
Meme
p4619
(dp4620
g3
(lp4621
S'Best'
p4622
aS'night'
p4623
aS'ever'
p4624
asg22
S'Best night ever '
p4625
sg24
S' Gets hit by 2 cars, a baseball bat, almost busted and gives hot girl a black eye '
p4626
sg26
Vseth-from-superbad
p4627
sg28
(lp4628
g4622
ag4623
ag4624
aS'Gets'
p4629
aS'hit'
p4630
aS'by'
p4631
ag20
aS'cars'
p4632
ag64
ag383
aS'baseball'
p4633
aS'bat'
p4634
ag64
aS'almost'
p4635
aS'busted'
p4636
aS'and'
p4637
aS'gives'
p4638
aS'hot'
p4639
aS'girl'
p4640
ag383
aS'black'
p4641
aS'eye'
p4642
asg34
(lp4643
g4629
ag4630
ag4631
ag20
ag4632
ag64
ag383
ag4633
ag4634
ag64
ag4635
ag4636
ag4637
ag4638
ag4639
ag4640
ag383
ag4641
ag4642
asba(iMeme
Meme
p4644
(dp4645
g3
(lp4646
S'finish'
p4647
aS'taking'
p4648
ag383
aS'deuce'
p4649
ag179
ag5
aS'stand'
p4650
aS'up'
p4651
aS'and'
p4652
aS'before'
p4653
aS'flushing'
p4654
aS'the'
p4655
aS'toilet'
p4656
aS'my'
p4657
aS'keys'
p4658
aS'and'
p4659
aS'phone'
p4660
aS'fall'
p4661
aS'in'
p4662
ag179
asg22
S'finish taking a deuce. I stand up and before flushing the toilet my keys and phone fall in . '
p4663
sg24
S' Fuck me, right? '
p4664
sg26
Vseth-from-superbad
p4665
sg28
(lp4666
g4647
ag4648
ag383
ag4649
ag179
ag5
ag4650
ag4651
ag4652
ag4653
ag4654
ag4655
ag4656
ag4657
ag4658
ag4659
ag4660
ag4661
ag4662
ag179
aS'Fuck'
p4667
aS'me'
p4668
ag64
aS'right'
p4669
ag33
asg34
(lp4670
g4667
ag4668
ag64
ag4669
ag33
asba(iMeme
Meme
p4671
(dp4672
g3
(lp4673
S'Whaaatttt'
p4674
ag47
ag47
ag47
ag47
ag47
ag47
asg22
S'Whaaatttt !!!!!! '
p4675
sg24
S' No Smoke !!!! Shahzaib u should make some concern about  '
p4676
sg26
Vseth-from-superbad
p4677
sg28
(lp4678
g4674
ag47
ag47
ag47
ag47
ag47
ag47
aS'No'
p4679
aS'Smoke'
p4680
ag47
ag47
ag47
ag47
aS'Shahzaib'
p4681
ag993
aS'should'
p4682
aS'make'
p4683
aS'some'
p4684
aS'concern'
p4685
aS'about'
p4686
asg34
(lp4687
g4679
ag4680
ag47
ag47
ag47
ag47
ag4681
ag993
ag4682
ag4683
ag4684
ag4685
ag4686
asba(iMeme
Meme
p4688
(dp4689
g3
(lp4690
S'That'
p4691
aS'look'
p4692
aS'when'
p4693
ag383
aS'honda'
p4694
aS'trys'
p4695
aS'to'
p4696
aS'race'
p4697
aS'your'
p4698
asg22
S'That look when a honda trys to race your  '
p4699
sg24
S' mustang '
p4700
sg26
Vseth-from-superbad
p4701
sg28
(lp4702
g4691
ag4692
ag4693
ag383
ag4694
ag4695
ag4696
ag4697
ag4698
aS'mustang'
p4703
asg34
(lp4704
g4703
asba(iMeme
Meme
p4705
(dp4706
g3
(lp4707
g5
aS'double'
p4708
aS'babied'
p4709
ag383
aS'blind'
p4710
aS'guy'
p4711
ag47
asg22
S'I double babied a blind guy! '
p4712
sg24
S' do people like me yet? '
p4713
sg26
Vseth-from-superbad
p4714
sg28
(lp4715
g5
ag4708
ag4709
ag383
ag4710
ag4711
ag47
aS'do'
p4716
aS'people'
p4717
aS'like'
p4718
aS'me'
p4719
aS'yet'
p4720
ag33
asg34
(lp4721
g4716
ag4717
ag4718
ag4719
ag4720
ag33
asba(iMeme
Meme
p4722
(dp4723
g3
(lp4724
g236
aS'trick'
p4725
aS'shot'
p4726
aS'with'
p4727
aS'anyone'
p4728
aS'who'
p4729
aS'wants'
p4730
aS'to'
p4731
asg22
S'i trick shot with anyone who wants to '
p4732
sg24
S' Fuck me right '
p4733
sg26
Vseth-from-superbad
p4734
sg28
(lp4735
g236
ag4725
ag4726
ag4727
ag4728
ag4729
ag4730
ag4731
aS'Fuck'
p4736
aS'me'
p4737
aS'right'
p4738
asg34
(lp4739
g4736
ag4737
ag4738
asba(iMeme
Meme
p4740
(dp4741
g3
(lp4742
S'Try'
p4743
aS'to'
p4744
aS'get'
p4745
aS'laid'
p4746
aS'on'
p4747
aS'the'
p4748
aS'internet'
p4749
aS'but'
p4750
asg22
S'Try to get laid on the internet but '
p4751
sg24
S' Fuck me right? '
p4752
sg26
Vseth-from-superbad
p4753
sg28
(lp4754
g4743
ag4744
ag4745
ag4746
ag4747
ag4748
ag4749
ag4750
aS'Fuck'
p4755
aS'me'
p4756
aS'right'
p4757
ag33
asg34
(lp4758
g4755
ag4756
ag4757
ag33
asba(iMeme
Meme
p4759
(dp4760
g3
(lp4761
S'has'
p4762
aS'to'
p4763
aS'wait'
p4764
aS'in'
p4765
aS'line'
p4766
aS'for'
p4767
aS'30'
p4768
aS'minutes'
p4769
aS'for'
p4770
aS'Mitch'
p4771
aS"'s"
p4772
aS'food'
p4773
asg22
S"has to wait in line for 30 minutes for Mitch's food "
p4774
sg24
S' fuck me right?  '
p4775
sg26
Vseth-from-superbad
p4776
sg28
(lp4777
g4762
ag4763
ag4764
ag4765
ag4766
ag4767
ag4768
ag4769
ag4770
ag4771
ag4772
ag4773
aS'fuck'
p4778
aS'me'
p4779
aS'right'
p4780
ag33
asg34
(lp4781
g4778
ag4779
ag4780
ag33
asba(iMeme
Meme
p4782
(dp4783
g3
(lp4784
S'FUck'
p4785
aS'me'
p4786
aS'right'
p4787
ag33
asg22
S'FUck me right? '
p4788
sg24
S" I don't know how to make image macros "
p4789
sg26
Vseth-from-superbad
p4790
sg28
(lp4791
g4785
ag4786
ag4787
ag33
ag5
aS'do'
p4792
aS"n't"
p4793
aS'know'
p4794
aS'how'
p4795
aS'to'
p4796
aS'make'
p4797
aS'image'
p4798
aS'macros'
p4799
asg34
(lp4800
g5
ag4792
ag4793
ag4794
ag4795
ag4796
ag4797
ag4798
ag4799
asba(iMeme
Meme
p4801
(dp4802
g3
(lp4803
g5
aS'like'
p4804
aS'jonah'
p4805
aS'hill'
p4806
asg22
S'I like jonah hill '
p4807
sg24
S' fuck me right '
p4808
sg26
Vseth-from-superbad
p4809
sg28
(lp4810
g5
ag4804
ag4805
ag4806
aS'fuck'
p4811
aS'me'
p4812
aS'right'
p4813
asg34
(lp4814
g4811
ag4812
ag4813
asba(iMeme
Meme
p4815
(dp4816
g3
(lp4817
S'bio212'
p4818
aS'with'
p4819
aS'Johnson'
p4820
asg22
S'bio212 with Johnson '
p4821
sg24
S' fuck me, right?  '
p4822
sg26
Vseth-from-superbad
p4823
sg28
(lp4824
g4818
ag4819
ag4820
aS'fuck'
p4825
aS'me'
p4826
ag64
aS'right'
p4827
ag33
asg34
(lp4828
g4825
ag4826
ag64
ag4827
ag33
asba(iMeme
Meme
p4829
(dp4830
g3
(lp4831
g5
aS'miss'
p4832
aS'you'
p4833
aS'guys..'
p4834
asg22
S'I miss you guys.. '
p4835
sg24
S' Fuck me, Right?!?! '
p4836
sg26
Vseth-from-superbad
p4837
sg28
(lp4838
g5
ag4832
ag4833
ag4834
aS'Fuck'
p4839
aS'me'
p4840
ag64
aS'Right'
p4841
ag33
ag47
ag33
ag47
asg34
(lp4842
g4839
ag4840
ag64
ag4841
ag33
ag47
ag33
ag47
asba(iMeme
Meme
p4843
(dp4844
g3
(lp4845
g5
aS'just'
p4846
aS'wan'
p4847
aS'na'
p4848
aS'hang'
p4849
aS'out'
p4850
aS'with'
p4851
aS'my'
p4852
aS'friends'
p4853
ag64
aS'drink'
p4854
aS'and'
p4855
aS'watch'
p4856
aS'the'
p4857
aS'playoFfs'
p4858
asg22
S'I just wanna hang out with my friends, drink and watch the playoFfs '
p4859
sg24
S' Fuck me, right? '
p4860
sg26
Vseth-from-superbad
p4861
sg28
(lp4862
g5
ag4846
ag4847
ag4848
ag4849
ag4850
ag4851
ag4852
ag4853
ag64
ag4854
ag4855
ag4856
ag4857
ag4858
aS'Fuck'
p4863
aS'me'
p4864
ag64
aS'right'
p4865
ag33
asg34
(lp4866
g4863
ag4864
ag64
ag4865
ag33
asba(iMeme
Meme
p4867
(dp4868
g3
(lp4869
g5
aS'love'
p4870
aS'what'
p4871
aS'the'
p4872
aS'humidity'
p4873
aS'has'
p4874
aS'done'
p4875
aS'to'
p4876
aS'my'
p4877
aS'hair'
p4878
asg22
S'I love what the humidity has done to my hair '
p4879
sg24
S' said no one ever '
p4880
sg26
Vseth-from-superbad
p4881
sg28
(lp4882
g5
ag4870
ag4871
ag4872
ag4873
ag4874
ag4875
ag4876
ag4877
ag4878
aS'said'
p4883
aS'no'
p4884
aS'one'
p4885
aS'ever'
p4886
asg34
(lp4887
g4883
ag4884
ag4885
ag4886
asba(iMeme
Meme
p4888
(dp4889
g3
(lp4890
S'im'
p4891
ag383
aS'virgin'
p4892
aS'and'
p4893
aS'never'
p4894
aS'had'
p4895
ag383
aS'girlfriend'
p4896
aS'and'
p4897
aS'my'
p4898
aS'self'
p4899
aS'esteem'
p4900
aS'barley'
p4901
aS'exists'
p4902
asg22
S'im a virgin and never had a girlfriend and my self esteem barley exists '
p4903
sg24
S' fuck me...! please ? '
p4904
sg26
Vseth-from-superbad
p4905
sg28
(lp4906
g4891
ag383
ag4892
ag4893
ag4894
ag4895
ag383
ag4896
ag4897
ag4898
ag4899
ag4900
ag4901
ag4902
aS'fuck'
p4907
aS'me'
p4908
aS'...'
p4909
ag47
aS'please'
p4910
ag33
asg34
(lp4911
g4907
ag4908
ag4909
ag47
ag4910
ag33
asba(iMeme
Meme
p4912
(dp4913
g3
(lp4914
S'all'
p4915
ag236
aS'did'
p4916
aS'was'
p4917
aS'say'
p4918
aS'lisa'
p4919
aS'sos'
p4920
aS"'s"
p4921
aS'list'
p4922
aS'at'
p4923
aS'the'
p4924
aS'door'
p4925
aS'and'
p4926
ag236
aS'gt'
p4927
aS'for'
p4928
aS'free'
p4929
aS'at'
p4930
aS'mamajuanas'
p4931
asg22
S"all i did was say lisa sos's list at the door and i gt  for free at mamajuanas "
p4932
sg24
S' it was that simple.  '
p4933
sg26
Vseth-from-superbad
p4934
sg28
(lp4935
g4915
ag236
ag4916
ag4917
ag4918
ag4919
ag4920
ag4921
ag4922
ag4923
ag4924
ag4925
ag4926
ag236
ag4927
ag4928
ag4929
ag4930
ag4931
aS'it'
p4936
aS'was'
p4937
aS'that'
p4938
aS'simple'
p4939
ag179
asg34
(lp4940
g4936
ag4937
ag4938
ag4939
ag179
asba(iMeme
Meme
p4941
(dp4942
g3
(lp4943
S'all'
p4944
ag5
aS'want'
p4945
aS'is'
p4946
aS'some'
p4947
aS'friends'
p4948
asg22
S'all I want is some friends '
p4949
sg24
S' Fuck me, right? '
p4950
sg26
Vseth-from-superbad
p4951
sg28
(lp4952
g4944
ag5
ag4945
ag4946
ag4947
ag4948
aS'Fuck'
p4953
aS'me'
p4954
ag64
aS'right'
p4955
ag33
asg34
(lp4956
g4953
ag4954
ag64
ag4955
ag33
asba(iMeme
Meme
p4957
(dp4958
g3
(lp4959
S'hey'
p4960
aS'evan'
p4961
aS'ur'
p4962
asg22
S'hey evan ur  '
p4963
sg24
S' weiner is showing put it away '
p4964
sg26
Vseth-from-superbad
p4965
sg28
(lp4966
g4960
ag4961
ag4962
aS'weiner'
p4967
aS'is'
p4968
aS'showing'
p4969
aS'put'
p4970
aS'it'
p4971
aS'away'
p4972
asg34
(lp4973
g4967
ag4968
ag4969
ag4970
ag4971
ag4972
asba(iMeme
Meme
p4974
(dp4975
g3
(lp4976
S'so'
p4977
aS'pro'
p4978
ag64
aS'nooBs'
p4979
aS'thinks'
p4980
ag236
aS'camp'
p4981
asg22
S'so pro, nooBs thinks i camp '
p4982
sg24
S' fuck me right? '
p4983
sg26
Vseth-from-superbad
p4984
sg28
(lp4985
g4977
ag4978
ag64
ag4979
ag4980
ag236
ag4981
aS'fuck'
p4986
aS'me'
p4987
aS'right'
p4988
ag33
asg34
(lp4989
g4986
ag4987
ag4988
ag33
asba(iMeme
Meme
p4990
(dp4991
g3
(lp4992
g5
aS'know'
p4993
ag383
aS'girl'
p4994
aS'who'
p4995
aS"'cosplays"
p4996
ag1684
asg22
S"I know a girl who 'cosplays' "
p4997
sg24
S' Fuck her right? '
p4998
sg26
Vseth-from-superbad
p4999
sg28
(lp5000
g5
ag4993
ag383
ag4994
ag4995
ag4996
ag1684
aS'Fuck'
p5001
aS'her'
p5002
aS'right'
p5003
ag33
asg34
(lp5004
g5001
ag5002
ag5003
ag33
asba(iMeme
Meme
p5005
(dp5006
g3
(lp5007
S'Oh'
p5008
aS'my'
p5009
aS'god'
p5010
asg22
S'Oh my god '
p5011
sg24
S' why do i care '
p5012
sg26
Vseth-from-superbad
p5013
sg28
(lp5014
g5008
ag5009
ag5010
aS'why'
p5015
aS'do'
p5016
ag236
aS'care'
p5017
asg34
(lp5018
g5015
ag5016
ag236
ag5017
asba(iMeme
Meme
p5019
(dp5020
g3
(lp5021
g236
aS'think'
p5022
aS'godneys'
p5023
aS'full'
p5024
aS'of'
p5025
aS'shit'
p5026
asg22
S'i think godneys full of shit '
p5027
sg24
S' fuck me, right?? '
p5028
sg26
Vseth-from-superbad
p5029
sg28
(lp5030
g236
ag5022
ag5023
ag5024
ag5025
ag5026
aS'fuck'
p5031
aS'me'
p5032
ag64
aS'right'
p5033
ag33
ag33
asg34
(lp5034
g5031
ag5032
ag64
ag5033
ag33
ag33
asba(iMeme
Meme
p5035
(dp5036
g3
(lp5037
S'Try'
p5038
aS'to'
p5039
aS'boost'
p5040
aS'office'
p5041
aS'morale'
p5042
asg22
S'Try to boost office morale '
p5043
sg24
S' fuck me right? '
p5044
sg26
Vseth-from-superbad
p5045
sg28
(lp5046
g5038
ag5039
ag5040
ag5041
ag5042
aS'fuck'
p5047
aS'me'
p5048
aS'right'
p5049
ag33
asg34
(lp5050
g5047
ag5048
ag5049
ag33
asba(iMeme
Meme
p5051
(dp5052
g3
(lp5053
S'Come'
p5054
aS'to'
p5055
aS'reddit'
p5056
aS'brewery'
p5057
aS'tour'
p5058
aS'and'
p5059
aS'do'
p5060
aS"n't"
p5061
aS'drink'
p5062
aS'because'
p5063
ag236
aS"'m"
p5064
aS'on'
p5065
aS'probation'
p5066
asg22
S"Come to reddit brewery tour and don't drink because i'm on probation "
p5067
sg24
S' fuck me, right? '
p5068
sg26
Vseth-from-superbad
p5069
sg28
(lp5070
g5054
ag5055
ag5056
ag5057
ag5058
ag5059
ag5060
ag5061
ag5062
ag5063
ag236
ag5064
ag5065
ag5066
aS'fuck'
p5071
aS'me'
p5072
ag64
aS'right'
p5073
ag33
asg34
(lp5074
g5071
ag5072
ag64
ag5073
ag33
asba(iMeme
Meme
p5075
(dp5076
g3
(lp5077
g5
aS'actually'
p5078
aS'like'
p5079
aS'm.r.e'
p5080
aS'food'
p5081
asg22
S'I actually like m.r.e food '
p5082
sg24
S' Fuck me, right? '
p5083
sg26
Vseth-from-superbad
p5084
sg28
(lp5085
g5
ag5078
ag5079
ag5080
ag5081
aS'Fuck'
p5086
aS'me'
p5087
ag64
aS'right'
p5088
ag33
asg34
(lp5089
g5086
ag5087
ag64
ag5088
ag33
asba(iMeme
Meme
p5090
(dp5091
g3
(lp5092
g5
aS'ca'
p5093
aS"n't"
p5094
aS'get'
p5095
aS'into'
p5096
aS'Game'
p5097
aS'of'
p5098
aS'Thrones'
p5099
ag179
asg22
S"I can't get into Game of Thrones. "
p5100
sg24
S' Fuck me,right? '
p5101
sg26
Vseth-from-superbad
p5102
sg28
(lp5103
g5
ag5093
ag5094
ag5095
ag5096
ag5097
ag5098
ag5099
ag179
aS'Fuck'
p5104
aS'me'
p5105
ag64
aS'right'
p5106
ag33
asg34
(lp5107
g5104
ag5105
ag64
ag5106
ag33
asba(iMeme
Meme
p5108
(dp5109
g3
(lp5110
S'cabin'
p5111
aS'inthe'
p5112
aS'woods'
p5113
aS'wasnt'
p5114
aS'bad'
p5115
asg22
S'cabin inthe woods wasnt bad '
p5116
sg24
S' robot scorpions...Fuck Me RIght? '
p5117
sg26
Vseth-from-superbad
p5118
sg28
(lp5119
g5111
ag5112
ag5113
ag5114
ag5115
aS'robot'
p5120
aS'scorpions'
p5121
aS'...'
p5122
aS'Fuck'
p5123
aS'Me'
p5124
aS'RIght'
p5125
ag33
asg34
(lp5126
g5120
ag5121
ag5122
ag5123
ag5124
ag5125
ag33
asba(iMeme
Meme
p5127
(dp5128
g3
(lp5129
g5
aS'try'
p5130
aS'not'
p5131
aS'to'
p5132
aS'act'
p5133
aS'like'
p5134
ag383
aS'bitch'
p5135
aS'to'
p5136
aS'my'
p5137
aS'boyfriend'
p5138
aS'or'
p5139
aS'anyone'
p5140
aS'else'
p5141
aS'when'
p5142
ag5
aS"'m"
p5143
aS'on'
p5144
aS'my'
p5145
aS'period'
p5146
asg22
S"I try not to act like a bitch to my boyfriend or anyone else when I'm on my period "
p5147
sg24
S' Fuck me, right? '
p5148
sg26
Vseth-from-superbad
p5149
sg28
(lp5150
g5
ag5130
ag5131
ag5132
ag5133
ag5134
ag383
ag5135
ag5136
ag5137
ag5138
ag5139
ag5140
ag5141
ag5142
ag5
ag5143
ag5144
ag5145
ag5146
aS'Fuck'
p5151
aS'me'
p5152
ag64
aS'right'
p5153
ag33
asg34
(lp5154
g5151
ag5152
ag64
ag5153
ag33
asba(iMeme
Meme
p5155
(dp5156
g3
(lp5157
S'Wrong'
p5158
aS'hole'
p5159
ag33
asg22
S'Wrong hole? '
p5160
sg24
S' Fuck me right? '
p5161
sg26
Vseth-from-superbad
p5162
sg28
(lp5163
g5158
ag5159
ag33
aS'Fuck'
p5164
aS'me'
p5165
aS'right'
p5166
ag33
asg34
(lp5167
g5164
ag5165
ag5166
ag33
asba(iMeme
Meme
p5168
(dp5169
g3
(lp5170
S'taking'
p5171
ag383
aS'dump'
p5172
aS'at'
p5173
aS'work'
p5174
aS'with'
p5175
aS'my'
p5176
aS'jacket'
p5177
aS'on'
p5178
ag64
aS'finish'
p5179
aS'wiping'
p5180
ag64
aS'stand'
p5181
aS'up'
p5182
aS'and'
p5183
aS'my'
p5184
aS'keys'
p5185
aS'an'
p5186
aS'phone'
p5187
aS'fall'
p5188
aS'in'
p5189
aS'the'
p5190
aS'toilet'
p5191
asg22
S'taking a dump at work with my jacket on, finish wiping, stand up and my keys an phone fall in the toilet '
p5192
sg24
S'  '
p5193
sg26
Vseth-from-superbad
p5194
sg28
(lp5195
g5171
ag383
ag5172
ag5173
ag5174
ag5175
ag5176
ag5177
ag5178
ag64
ag5179
ag5180
ag64
ag5181
ag5182
ag5183
ag5184
ag5185
ag5186
ag5187
ag5188
ag5189
ag5190
ag5191
asg34
(lp5196
sba(iMeme
Meme
p5197
(dp5198
g3
(lp5199
g5
aS'like'
p5200
aS'texting'
p5201
aS'you'
p5202
aS'pictures'
p5203
aS'of'
p5204
aS'Michael'
p5205
aS'Cera'
p5206
asg22
S'I like texting you pictures of Michael Cera '
p5207
sg24
S' Fuck me, Right? '
p5208
sg26
Vseth-from-superbad
p5209
sg28
(lp5210
g5
ag5200
ag5201
ag5202
ag5203
ag5204
ag5205
ag5206
aS'Fuck'
p5211
aS'me'
p5212
ag64
aS'Right'
p5213
ag33
asg34
(lp5214
g5211
ag5212
ag64
ag5213
ag33
asba(iMeme
Meme
p5215
(dp5216
g3
(lp5217
g5
aS"'m"
p5218
aS'excited'
p5219
aS'about'
p5220
aS'the'
p5221
aS'xbox'
p5222
aS'one'
p5223
asg22
S"I'm excited about the xbox one "
p5224
sg24
S' fuck me, right? '
p5225
sg26
Vseth-from-superbad
p5226
sg28
(lp5227
g5
ag5218
ag5219
ag5220
ag5221
ag5222
ag5223
aS'fuck'
p5228
aS'me'
p5229
ag64
aS'right'
p5230
ag33
asg34
(lp5231
g5228
ag5229
ag64
ag5230
ag33
asba(iMeme
Meme
p5232
(dp5233
g3
(lp5234
g5
aS'actually'
p5235
aS'treat'
p5236
aS'girls'
p5237
aS'right'
p5238
asg22
S'I actually treat girls right '
p5239
sg24
S' fuck me, right?  '
p5240
sg26
Vseth-from-superbad
p5241
sg28
(lp5242
g5
ag5235
ag5236
ag5237
ag5238
aS'fuck'
p5243
aS'me'
p5244
ag64
aS'right'
p5245
ag33
asg34
(lp5246
g5243
ag5244
ag64
ag5245
ag33
asba(iMeme
Meme
p5247
(dp5248
g3
(lp5249
g236
aS'went'
p5250
aS'outside'
p5251
aS'yesterday'
p5252
aS'to'
p5253
aS'have'
p5254
aS'fun'
p5255
asg22
S'i went outside yesterday to have fun '
p5256
sg24
S' fuck me, right '
p5257
sg26
Vseth-from-superbad
p5258
sg28
(lp5259
g236
ag5250
ag5251
ag5252
ag5253
ag5254
ag5255
aS'fuck'
p5260
aS'me'
p5261
ag64
aS'right'
p5262
asg34
(lp5263
g5260
ag5261
ag64
ag5262
asba(iMeme
Meme
p5264
(dp5265
g3
(lp5266
S'what'
p5267
aS'micheal'
p5268
aS'is'
p5269
aS'gay'
p5270
ag33
asg22
S'what micheal is gay?  '
p5271
sg24
S' jk i knew it '
p5272
sg26
Vseth-from-superbad
p5273
sg28
(lp5274
g5267
ag5268
ag5269
ag5270
ag33
aS'jk'
p5275
ag236
aS'knew'
p5276
aS'it'
p5277
asg34
(lp5278
g5275
ag236
ag5276
ag5277
asba(iMeme
Meme
p5279
(dp5280
g3
(lp5281
g5
aS'eat'
p5282
aS'chicken'
p5283
aS'with'
p5284
aS'cake'
p5285
asg22
S'I eat chicken with cake '
p5286
sg24
S' fuck me right? '
p5287
sg26
Vseth-from-superbad
p5288
sg28
(lp5289
g5
ag5282
ag5283
ag5284
ag5285
aS'fuck'
p5290
aS'me'
p5291
aS'right'
p5292
ag33
asg34
(lp5293
g5290
ag5291
ag5292
ag33
asba(iMeme
Meme
p5294
(dp5295
g3
(lp5296
S'Big'
p5297
aS'dirty'
p5298
aS'stinking'
p5299
aS'bass'
p5300
asg22
S'Big dirty stinking bass '
p5301
sg24
S" I'm the bassline junkie "
p5302
sg26
Vseth-from-superbad
p5303
sg28
(lp5304
g5297
ag5298
ag5299
ag5300
ag5
aS"'m"
p5305
aS'the'
p5306
aS'bassline'
p5307
aS'junkie'
p5308
asg34
(lp5309
g5
ag5305
ag5306
ag5307
ag5308
asba(iMeme
Meme
p5310
(dp5311
g3
(lp5312
g236
aS'do'
p5313
aS"n't"
p5314
aS'find'
p5315
aS'jennifer'
p5316
aS'lawrence'
p5317
aS'attractive'
p5318
asg22
S"i don't find jennifer lawrence attractive "
p5319
sg24
S' fuck me, right? '
p5320
sg26
Vseth-from-superbad
p5321
sg28
(lp5322
g236
ag5313
ag5314
ag5315
ag5316
ag5317
ag5318
aS'fuck'
p5323
aS'me'
p5324
ag64
aS'right'
p5325
ag33
asg34
(lp5326
g5323
ag5324
ag64
ag5325
ag33
asba(iMeme
Meme
p5327
(dp5328
g3
(lp5329
S'ashu'
p5330
aS'bole'
p5331
aS'to'
p5332
asg22
S'ashu bole to '
p5333
sg24
S' chuuu hai '
p5334
sg26
Vseth-from-superbad
p5335
sg28
(lp5336
g5330
ag5331
ag5332
aS'chuuu'
p5337
aS'hai'
p5338
asg34
(lp5339
g5337
ag5338
asba(iMeme
Meme
p5340
(dp5341
g3
(lp5342
S'my'
p5343
aS'reaction'
p5344
aS'seeing'
p5345
aS'the'
p5346
aS'unban'
p5347
aS'post'
p5348
asg22
S'my reaction seeing the unban post '
p5349
sg24
S' of the hacker whom i banned!! '
p5350
sg26
Vseth-from-superbad
p5351
sg28
(lp5352
g5343
ag5344
ag5345
ag5346
ag5347
ag5348
aS'of'
p5353
aS'the'
p5354
aS'hacker'
p5355
aS'whom'
p5356
ag236
aS'banned'
p5357
ag47
ag47
asg34
(lp5358
g5353
ag5354
ag5355
ag5356
ag236
ag5357
ag47
ag47
asba(iMeme
Meme
p5359
(dp5360
g3
(lp5361
S'my'
p5362
aS'dad'
p5363
aS'bought'
p5364
aS'me'
p5365
aS'car'
p5366
aS'before'
p5367
aS'exams'
p5368
asg22
S'my dad bought me car before exams '
p5369
sg24
S' fuck me right? '
p5370
sg26
Vseth-from-superbad
p5371
sg28
(lp5372
g5362
ag5363
ag5364
ag5365
ag5366
ag5367
ag5368
aS'fuck'
p5373
aS'me'
p5374
aS'right'
p5375
ag33
asg34
(lp5376
g5373
ag5374
ag5375
ag33
asba(iMeme
Meme
p5377
(dp5378
g3
(lp5379
S'Im'
p5380
aS'17'
p5381
asg22
S'Im 17 '
p5382
sg24
S' fuck me right? '
p5383
sg26
Vseth-from-superbad
p5384
sg28
(lp5385
g5380
ag5381
aS'fuck'
p5386
aS'me'
p5387
aS'right'
p5388
ag33
asg34
(lp5389
g5386
ag5387
ag5388
ag33
asba(iMeme
Meme
p5390
(dp5391
g3
(lp5392
g5
aS'have'
p5393
aS'no'
p5394
aS'lunch'
p5395
aS'and'
p5396
aS'no'
p5397
aS'break'
p5398
aS'today'
p5399
asg22
S'I have no lunch and no break today '
p5400
sg24
S' fuck me right? '
p5401
sg26
Vseth-from-superbad
p5402
sg28
(lp5403
g5
ag5393
ag5394
ag5395
ag5396
ag5397
ag5398
ag5399
aS'fuck'
p5404
aS'me'
p5405
aS'right'
p5406
ag33
asg34
(lp5407
g5404
ag5405
ag5406
ag33
asba(iMeme
Meme
p5408
(dp5409
g3
(lp5410
g5
aS'do'
p5411
aS"n't"
p5412
aS'like'
p5413
aS'having'
p5414
aS'large'
p5415
aS'breast'
p5416
asg22
S"I don't like having large breast "
p5417
sg24
S' fuck me, right? '
p5418
sg26
Vseth-from-superbad
p5419
sg28
(lp5420
g5
ag5411
ag5412
ag5413
ag5414
ag5415
ag5416
aS'fuck'
p5421
aS'me'
p5422
ag64
aS'right'
p5423
ag33
asg34
(lp5424
g5421
ag5422
ag64
ag5423
ag33
asba(iMeme
Meme
p5425
(dp5426
g3
(lp5427
S'Kali'
p5428
aS'ate'
p5429
aS'all'
p5430
aS'my'
p5431
aS'food'
p5432
aS'again'
p5433
ag179
asg22
S'Kali ate all my food again. '
p5434
sg24
S' Fuck Me, Right? '
p5435
sg26
Vseth-from-superbad
p5436
sg28
(lp5437
g5428
ag5429
ag5430
ag5431
ag5432
ag5433
ag179
aS'Fuck'
p5438
aS'Me'
p5439
ag64
aS'Right'
p5440
ag33
asg34
(lp5441
g5438
ag5439
ag64
ag5440
ag33
asba(iMeme
Meme
p5442
(dp5443
g3
(lp5444
g5
aS'love'
p5445
aS'you'
p5446
asg22
S'I love you '
p5447
sg24
S' fuck me right? '
p5448
sg26
Vseth-from-superbad
p5449
sg28
(lp5450
g5
ag5445
ag5446
aS'fuck'
p5451
aS'me'
p5452
aS'right'
p5453
ag33
asg34
(lp5454
g5451
ag5452
ag5453
ag33
asba(iMeme
Meme
p5455
(dp5456
g3
(lp5457
S'thursday'
p5458
asg22
S'thursday '
p5459
sg24
S' fuck me right '
p5460
sg26
Vseth-from-superbad
p5461
sg28
(lp5462
g5458
aS'fuck'
p5463
aS'me'
p5464
aS'right'
p5465
asg34
(lp5466
g5463
ag5464
ag5465
asba(iMeme
Meme
p5467
(dp5468
g3
(lp5469
S'Yea'
p5470
aS'boy'
p5471
ag47
ag47
ag47
asg22
S'Yea boy!!! '
p5472
sg24
S' Just had sex for the first time!!! '
p5473
sg26
Vseth-from-superbad
p5474
sg28
(lp5475
g5470
ag5471
ag47
ag47
ag47
aS'Just'
p5476
aS'had'
p5477
aS'sex'
p5478
aS'for'
p5479
aS'the'
p5480
aS'first'
p5481
aS'time'
p5482
ag47
ag47
ag47
asg34
(lp5483
g5476
ag5477
ag5478
ag5479
ag5480
ag5481
ag5482
ag47
ag47
ag47
asba(iMeme
Meme
p5484
(dp5485
g3
(lp5486
S'Has'
p5487
aS'no'
p5488
aS'balls'
p5489
aS'to'
p5490
aS'talk'
p5491
aS'to'
p5492
aS'gIrl'
p5493
asg22
S'Has no balls to talk to gIrl '
p5494
sg24
S' F**k me right?  '
p5495
sg26
Vseth-from-superbad
p5496
sg28
(lp5497
g5487
ag5488
ag5489
ag5490
ag5491
ag5492
ag5493
aS'F**k'
p5498
aS'me'
p5499
aS'right'
p5500
ag33
asg34
(lp5501
g5498
ag5499
ag5500
ag33
asba(iMeme
Meme
p5502
(dp5503
g3
(lp5504
g5
aS"'m"
p5505
aS'in'
p5506
aS'the'
p5507
aS'left'
p5508
aS'lane'
p5509
aS'for'
p5510
aS'30'
p5511
aS'second'
p5512
aS'going'
p5513
aS'the'
p5514
aS'maximum'
p5515
aS'legal'
p5516
aS'speed'
p5517
aS'passing'
p5518
aS'someone'
p5519
aS'going'
p5520
aS'much'
p5521
aS'slower'
p5522
asg22
S"I'm in the left lane for 30 second going the maximum legal speed passing someone going much slower "
p5523
sg24
S' Fuck me, right??? '
p5524
sg26
Vseth-from-superbad
p5525
sg28
(lp5526
g5
ag5505
ag5506
ag5507
ag5508
ag5509
ag5510
ag5511
ag5512
ag5513
ag5514
ag5515
ag5516
ag5517
ag5518
ag5519
ag5520
ag5521
ag5522
aS'Fuck'
p5527
aS'me'
p5528
ag64
aS'right'
p5529
ag33
ag33
ag33
asg34
(lp5530
g5527
ag5528
ag64
ag5529
ag33
ag33
ag33
asba(iMeme
Meme
p5531
(dp5532
g3
(lp5533
g5
aS'think'
p5534
aS'its'
p5535
aS'wrong'
p5536
aS'to'
p5537
aS'steal'
p5538
aS'10k'
p5539
aS'from'
p5540
ag383
aS'hotel'
p5541
ag64
aS'even'
p5542
aS'if'
p5543
aS'it'
p5544
aS'is'
p5545
aS'their'
p5546
aS'fault'
p5547
asg22
S'I think its wrong to steal 10k from a hotel, even if it is their fault '
p5548
sg24
S' fuck me, right? '
p5549
sg26
Vseth-from-superbad
p5550
sg28
(lp5551
g5
ag5534
ag5535
ag5536
ag5537
ag5538
ag5539
ag5540
ag383
ag5541
ag64
ag5542
ag5543
ag5544
ag5545
ag5546
ag5547
aS'fuck'
p5552
aS'me'
p5553
ag64
aS'right'
p5554
ag33
asg34
(lp5555
g5552
ag5553
ag64
ag5554
ag33
asba(iMeme
Meme
p5556
(dp5557
g3
(lp5558
S'finish'
p5559
aS'taking'
p5560
ag383
aS'deuce'
p5561
ag179
ag5
aS'stand'
p5562
aS'up'
p5563
aS'and'
p5564
aS'before'
p5565
aS'flushing'
p5566
aS'the'
p5567
aS'toilet'
p5568
aS'my'
p5569
aS'keys'
p5570
aS'and'
p5571
aS'phone'
p5572
aS'fall'
p5573
aS'in'
p5574
ag179
asg22
S'finish taking a deuce. I stand up and before flushing the toilet my keys and phone fall in . '
p5575
sg24
S' fuck me, right '
p5576
sg26
Vseth-from-superbad
p5577
sg28
(lp5578
g5559
ag5560
ag383
ag5561
ag179
ag5
ag5562
ag5563
ag5564
ag5565
ag5566
ag5567
ag5568
ag5569
ag5570
ag5571
ag5572
ag5573
ag5574
ag179
aS'fuck'
p5579
aS'me'
p5580
ag64
aS'right'
p5581
asg34
(lp5582
g5579
ag5580
ag64
ag5581
asba(iMeme
Meme
p5583
(dp5584
g3
(lp5585
g236
aS'chose'
p5586
aS'my'
p5587
aS'team'
p5588
aS'based'
p5589
aS'on'
p5590
aS'pokemon'
p5591
ag236
aS'thought'
p5592
aS'were'
p5593
aS'cool'
p5594
asg22
S'i chose my team based on pokemon i thought were cool  '
p5595
sg24
S' fuck me, right? '
p5596
sg26
Vseth-from-superbad
p5597
sg28
(lp5598
g236
ag5586
ag5587
ag5588
ag5589
ag5590
ag5591
ag236
ag5592
ag5593
ag5594
aS'fuck'
p5599
aS'me'
p5600
ag64
aS'right'
p5601
ag33
asg34
(lp5602
g5599
ag5600
ag64
ag5601
ag33
asba(iMeme
Meme
p5603
(dp5604
g3
(lp5605
g5
aS'do'
p5606
aS"n't"
p5607
aS'care'
p5608
aS'for'
p5609
aS'Borderlands'
p5610
aS'or'
p5611
aS'bioshock'
p5612
ag179
asg22
S"I don't care for Borderlands or bioshock. "
p5613
sg24
S' fuck me, right? '
p5614
sg26
Vseth-from-superbad
p5615
sg28
(lp5616
g5
ag5606
ag5607
ag5608
ag5609
ag5610
ag5611
ag5612
ag179
aS'fuck'
p5617
aS'me'
p5618
ag64
aS'right'
p5619
ag33
asg34
(lp5620
g5617
ag5618
ag64
ag5619
ag33
asba(iMeme
Meme
p5621
(dp5622
g3
(lp5623
S'She'
p5624
aS'talked'
p5625
aS'to'
p5626
aS'me'
p5627
asg22
S'She talked to me  '
p5628
sg24
S" She want's the D "
p5629
sg26
Vseth-from-superbad
p5630
sg28
(lp5631
g5624
ag5625
ag5626
ag5627
aS'She'
p5632
aS'want'
p5633
aS"'s"
p5634
aS'the'
p5635
aS'D'
p5636
asg34
(lp5637
g5632
ag5633
ag5634
ag5635
ag5636
asba(iMeme
Meme
p5638
(dp5639
g3
(lp5640
g5
aS'actually'
p5641
aS'care'
p5642
aS'about'
p5643
aS'you'
p5644
aS'...'
p5645
aS'alot'
p5646
asg22
S'I actually care about you... alot '
p5647
sg24
S' fuck me right? '
p5648
sg26
Vseth-from-superbad
p5649
sg28
(lp5650
g5
ag5641
ag5642
ag5643
ag5644
ag5645
ag5646
aS'fuck'
p5651
aS'me'
p5652
aS'right'
p5653
ag33
asg34
(lp5654
g5651
ag5652
ag5653
ag33
asba(iMeme
Meme
p5655
(dp5656
g3
(lp5657
g5
aS'just'
p5658
aS'want'
p5659
aS'to'
p5660
aS'drink'
p5661
aS'instead'
p5662
aS'of'
p5663
aS'sit'
p5664
aS'in'
p5665
aS'health'
p5666
aS'assessment'
p5667
asg22
S'I just want to drink instead of sit in health assessment '
p5668
sg24
S' Fuck me, Right? '
p5669
sg26
Vseth-from-superbad
p5670
sg28
(lp5671
g5
ag5658
ag5659
ag5660
ag5661
ag5662
ag5663
ag5664
ag5665
ag5666
ag5667
aS'Fuck'
p5672
aS'me'
p5673
ag64
aS'Right'
p5674
ag33
asg34
(lp5675
g5672
ag5673
ag64
ag5674
ag33
asba(iMeme
Meme
p5676
(dp5677
g3
(lp5678
g5
aS'want'
p5679
aS'to'
p5680
aS'contribute'
p5681
aS'to'
p5682
aS'multiple'
p5683
aS'discussions'
p5684
aS'that'
p5685
aS'interest'
p5686
aS'me'
p5687
asg22
S'I want to contribute to multiple discussions that interest me '
p5688
sg24
S' Fuck me right? '
p5689
sg26
Vseth-from-superbad
p5690
sg28
(lp5691
g5
ag5679
ag5680
ag5681
ag5682
ag5683
ag5684
ag5685
ag5686
ag5687
aS'Fuck'
p5692
aS'me'
p5693
aS'right'
p5694
ag33
asg34
(lp5695
g5692
ag5693
ag5694
ag33
asba(iMeme
Meme
p5696
(dp5697
g3
(lp5698
S'trying'
p5699
aS'to'
p5700
aS'establish'
p5701
ag383
aS'connection'
p5702
aS'with'
p5703
aS'someone'
p5704
aS'who'
p5705
aS'is'
p5706
aS'going'
p5707
aS'through'
p5708
aS'the'
p5709
aS'same'
p5710
aS'thing'
p5711
aS'as'
p5712
aS'me'
p5713
asg22
S'trying to establish a connection with someone who is going through the same thing as me '
p5714
sg24
S' fuck me, right? '
p5715
sg26
Vseth-from-superbad
p5716
sg28
(lp5717
g5699
ag5700
ag5701
ag383
ag5702
ag5703
ag5704
ag5705
ag5706
ag5707
ag5708
ag5709
ag5710
ag5711
ag5712
ag5713
aS'fuck'
p5718
aS'me'
p5719
ag64
aS'right'
p5720
ag33
asg34
(lp5721
g5718
ag5719
ag64
ag5720
ag33
asba(iMeme
Meme
p5722
(dp5723
g3
(lp5724
S'raised'
p5725
aS'knowing'
p5726
aS'not'
p5727
aS'to'
p5728
aS'call'
p5729
aS'women'
p5730
aS'bitches'
p5731
aS'and'
p5732
aS'hoes'
p5733
asg22
S'raised knowing not to call women bitches and hoes '
p5734
sg24
S' fuck me, right? '
p5735
sg26
Vseth-from-superbad
p5736
sg28
(lp5737
g5725
ag5726
ag5727
ag5728
ag5729
ag5730
ag5731
ag5732
ag5733
aS'fuck'
p5738
aS'me'
p5739
ag64
aS'right'
p5740
ag33
asg34
(lp5741
g5738
ag5739
ag64
ag5740
ag33
asba(iMeme
Meme
p5742
(dp5743
g3
(lp5744
g236
aS'hate'
p5745
aS'dr'
p5746
aS'who'
p5747
asg22
S'i hate dr who '
p5748
sg24
S' fuck me right? '
p5749
sg26
Vseth-from-superbad
p5750
sg28
(lp5751
g236
ag5745
ag5746
ag5747
aS'fuck'
p5752
aS'me'
p5753
aS'right'
p5754
ag33
asg34
(lp5755
g5752
ag5753
ag5754
ag33
asba(iMeme
Meme
p5756
(dp5757
g3
(lp5758
S'finish'
p5759
aS'taking'
p5760
ag383
ag3050
ag20
aS'at'
p5761
aS'work'
p5762
ag179
aS'Stand'
p5763
aS'up'
p5764
aS'and'
p5765
aS'before'
p5766
ag5
aS'flush'
p5767
aS'my'
p5768
aS'keys'
p5769
aS'and'
p5770
aS'new'
p5771
aS'phone'
p5772
aS'fall'
p5773
aS'in'
p5774
aS'the'
p5775
aS'toilet'
p5776
ag179
asg22
S'finish taking a #2 at work. Stand up and before I flush my keys and new phone fall in the toilet. '
p5777
sg24
S' Fuck me, right? '
p5778
sg26
Vseth-from-superbad
p5779
sg28
(lp5780
g5759
ag5760
ag383
ag3050
ag20
ag5761
ag5762
ag179
ag5763
ag5764
ag5765
ag5766
ag5
ag5767
ag5768
ag5769
ag5770
ag5771
ag5772
ag5773
ag5774
ag5775
ag5776
ag179
aS'Fuck'
p5781
aS'me'
p5782
ag64
aS'right'
p5783
ag33
asg34
(lp5784
g5781
ag5782
ag64
ag5783
ag33
asba(iMeme
Meme
p5785
(dp5786
g3
(lp5787
g5
aS'just'
p5788
aS'miss'
p5789
aS'posting'
p5790
aS'pics'
p5791
asg22
S'I just miss posting pics '
p5792
sg24
S' fuck me, right?  '
p5793
sg26
Vseth-from-superbad
p5794
sg28
(lp5795
g5
ag5788
ag5789
ag5790
ag5791
aS'fuck'
p5796
aS'me'
p5797
ag64
aS'right'
p5798
ag33
asg34
(lp5799
g5796
ag5797
ag64
ag5798
ag33
asba(iMeme
Meme
p5800
(dp5801
g3
(lp5802
g5
aS'actually'
p5803
aS'enjoy'
p5804
aS'leg'
p5805
aS'day'
p5806
asg22
S'I actually enjoy leg day '
p5807
sg24
S' Fuck me right? '
p5808
sg26
Vseth-from-superbad
p5809
sg28
(lp5810
g5
ag5803
ag5804
ag5805
ag5806
aS'Fuck'
p5811
aS'me'
p5812
aS'right'
p5813
ag33
asg34
(lp5814
g5811
ag5812
ag5813
ag33
asba(iMeme
Meme
p5815
(dp5816
g3
(lp5817
g236
aS"'d"
p5818
aS'rather'
p5819
aS'lift'
p5820
aS'than'
p5821
aS'love'
p5822
asg22
S"i'd rather lift than love "
p5823
sg24
S' fuck me, right?  '
p5824
sg26
Vseth-from-superbad
p5825
sg28
(lp5826
g236
ag5818
ag5819
ag5820
ag5821
ag5822
aS'fuck'
p5827
aS'me'
p5828
ag64
aS'right'
p5829
ag33
asg34
(lp5830
g5827
ag5828
ag64
ag5829
ag33
asba(iMeme
Meme
p5831
(dp5832
g3
(lp5833
g236
aS"'d"
p5834
aS'rather'
p5835
aS'lift'
p5836
aS'than'
p5837
aS'love'
p5838
asg22
S"i'd rather lift than love "
p5839
sg24
S' fuck me, right?  '
p5840
sg26
Vseth-from-superbad
p5841
sg28
(lp5842
g236
ag5834
ag5835
ag5836
ag5837
ag5838
aS'fuck'
p5843
aS'me'
p5844
ag64
aS'right'
p5845
ag33
asg34
(lp5846
g5843
ag5844
ag64
ag5845
ag33
asba(iMeme
Meme
p5847
(dp5848
g3
(lp5849
S'idgaf'
p5850
ag179
asg22
S'idgaf. '
p5851
sg24
S' My name is michael and i have a small dick '
p5852
sg26
Vseth-from-superbad
p5853
sg28
(lp5854
g5850
ag179
aS'My'
p5855
aS'name'
p5856
aS'is'
p5857
aS'michael'
p5858
aS'and'
p5859
ag236
aS'have'
p5860
ag383
aS'small'
p5861
aS'dick'
p5862
asg34
(lp5863
g5855
ag5856
ag5857
ag5858
ag5859
ag236
ag5860
ag383
ag5861
ag5862
asba(iMeme
Meme
p5864
(dp5865
g3
(lp5866
g5
aS'show'
p5867
aS'up'
p5868
aS'to'
p5869
ag383
aS'meeting'
p5870
aS'prepared'
p5871
aS'and'
p5872
aS'on'
p5873
aS'time'
p5874
asg22
S'I show up to a meeting prepared and on time '
p5875
sg24
S' Fuck me, Right? '
p5876
sg26
Vseth-from-superbad
p5877
sg28
(lp5878
g5
ag5867
ag5868
ag5869
ag383
ag5870
ag5871
ag5872
ag5873
ag5874
aS'Fuck'
p5879
aS'me'
p5880
ag64
aS'Right'
p5881
ag33
asg34
(lp5882
g5879
ag5880
ag64
ag5881
ag33
asba(iMeme
Meme
p5883
(dp5884
g3
(lp5885
S'Lsat'
p5886
aS'with'
p5887
aS'target'
p5888
aS'finder'
p5889
aS'and'
p5890
aS'SUPPRESSOR'
p5891
aS'is'
p5892
aS'the'
p5893
aS'best'
p5894
aS'in'
p5895
aS'black'
p5896
aS'ops'
p5897
ag20
asg22
S'Lsat with target finder and SUPPRESSOR is the best in black ops 2  '
p5898
sg24
S' fuck me right? '
p5899
sg26
Vseth-from-superbad
p5900
sg28
(lp5901
g5886
ag5887
ag5888
ag5889
ag5890
ag5891
ag5892
ag5893
ag5894
ag5895
ag5896
ag5897
ag20
aS'fuck'
p5902
aS'me'
p5903
aS'right'
p5904
ag33
asg34
(lp5905
g5902
ag5903
ag5904
ag33
asba(iMeme
Meme
p5906
(dp5907
g3
(lp5908
g236
aS'like'
p5909
aS'my'
p5910
aS'brains'
p5911
asg22
S'i like my brains '
p5912
sg24
S' fuck me right? '
p5913
sg26
Vseth-from-superbad
p5914
sg28
(lp5915
g236
ag5909
ag5910
ag5911
aS'fuck'
p5916
aS'me'
p5917
aS'right'
p5918
ag33
asg34
(lp5919
g5916
ag5917
ag5918
ag33
asba(iMeme
Meme
p5920
(dp5921
g3
(lp5922
g5
aS'tune'
p5923
aS'in'
p5924
aS'to'
p5925
aS'the'
p5926
aS'History'
p5927
aS'Channel'
p5928
aS'to'
p5929
aS'watch'
p5930
aS'shows'
p5931
aS'about'
p5932
aS'history'
p5933
ag64
aS'not'
p5934
aS'reality'
p5935
aS'shows'
p5936
ag179
asg22
S'I tune in to the History Channel to watch shows about history, not reality shows. '
p5937
sg24
S' Fuck me, right? '
p5938
sg26
Vseth-from-superbad
p5939
sg28
(lp5940
g5
ag5923
ag5924
ag5925
ag5926
ag5927
ag5928
ag5929
ag5930
ag5931
ag5932
ag5933
ag64
ag5934
ag5935
ag5936
ag179
aS'Fuck'
p5941
aS'me'
p5942
ag64
aS'right'
p5943
ag33
asg34
(lp5944
g5941
ag5942
ag64
ag5943
ag33
asba(iMeme
Meme
p5945
(dp5946
g3
(lp5947
g236
aS'just'
p5948
aS'want'
p5949
aS'to'
p5950
aS'make'
p5951
aS'sure'
p5952
aS'your'
p5953
aS'not'
p5954
aS'pregnant'
p5955
asg22
S'i just want to make sure your not pregnant '
p5956
sg24
S' fuck me, right? '
p5957
sg26
Vseth-from-superbad
p5958
sg28
(lp5959
g236
ag5948
ag5949
ag5950
ag5951
ag5952
ag5953
ag5954
ag5955
aS'fuck'
p5960
aS'me'
p5961
ag64
aS'right'
p5962
ag33
asg34
(lp5963
g5960
ag5961
ag64
ag5962
ag33
asba(iMeme
Meme
p5964
(dp5965
g3
(lp5966
S'taking'
p5967
ag383
aS'dump'
p5968
aS'at'
p5969
aS'work'
p5970
aS'with'
p5971
aS'my'
p5972
aS'jacket'
p5973
aS'on'
p5974
ag64
aS'finish'
p5975
aS'wiping'
p5976
ag64
aS'stand'
p5977
aS'up'
p5978
aS'and'
p5979
aS'my'
p5980
aS'keys'
p5981
aS'an'
p5982
aS'phone'
p5983
aS'fall'
p5984
aS'in'
p5985
aS'the'
p5986
aS'toilet'
p5987
asg22
S'taking a dump at work with my jacket on, finish wiping, stand up and my keys an phone fall in the toilet '
p5988
sg24
S' Fuck me, right? '
p5989
sg26
Vseth-from-superbad
p5990
sg28
(lp5991
g5967
ag383
ag5968
ag5969
ag5970
ag5971
ag5972
ag5973
ag5974
ag64
ag5975
ag5976
ag64
ag5977
ag5978
ag5979
ag5980
ag5981
ag5982
ag5983
ag5984
ag5985
ag5986
ag5987
aS'Fuck'
p5992
aS'me'
p5993
ag64
aS'right'
p5994
ag33
asg34
(lp5995
g5992
ag5993
ag64
ag5994
ag33
asba(iMeme
Meme
p5996
(dp5997
g3
(lp5998
g5
aS'studY'
p5999
aS'in'
p6000
aS'rchv'
p6001
asg22
S'I studY in rchv '
p6002
sg24
S' Fuck me,right '
p6003
sg26
Vseth-from-superbad
p6004
sg28
(lp6005
g5
ag5999
ag6000
ag6001
aS'Fuck'
p6006
aS'me'
p6007
ag64
aS'right'
p6008
asg34
(lp6009
g6006
ag6007
ag64
ag6008
asba(iMeme
Meme
p6010
(dp6011
g3
(lp6012
g5
aS'want'
p6013
aS'to'
p6014
aS'see'
p6015
aS'funny'
p6016
aS'stuff'
p6017
ag64
aS'not'
p6018
aS'douche'
p6019
aS'bags'
p6020
aS'confessing'
p6021
aS'stuff'
p6022
asg22
S'I want to see funny stuff, not douche bags confessing stuff '
p6023
sg24
S' Fuck me, Right? '
p6024
sg26
Vseth-from-superbad
p6025
sg28
(lp6026
g5
ag6013
ag6014
ag6015
ag6016
ag6017
ag64
ag6018
ag6019
ag6020
ag6021
ag6022
aS'Fuck'
p6027
aS'me'
p6028
ag64
aS'Right'
p6029
ag33
asg34
(lp6030
g6027
ag6028
ag64
ag6029
ag33
asba(iMeme
Meme
p6031
(dp6032
g3
(lp6033
g5
aS'want'
p6034
aS'to'
p6035
aS'wait'
p6036
aS'until'
p6037
ag5
aS"'m"
p6038
aS'married'
p6039
aS'and'
p6040
aS'financially'
p6041
aS'stable'
p6042
aS'to'
p6043
aS'have'
p6044
aS'kids'
p6045
asg22
S"I want to wait until I'm married and financially stable to have kids "
p6046
sg24
S' Fuck me, right? '
p6047
sg26
Vseth-from-superbad
p6048
sg28
(lp6049
g5
ag6034
ag6035
ag6036
ag6037
ag5
ag6038
ag6039
ag6040
ag6041
ag6042
ag6043
ag6044
ag6045
aS'Fuck'
p6050
aS'me'
p6051
ag64
aS'right'
p6052
ag33
asg34
(lp6053
g6050
ag6051
ag64
ag6052
ag33
asba(iMeme
Meme
p6054
(dp6055
g3
(lp6056
g5
aS'believe'
p6057
aS'we'
p6058
aS'should'
p6059
aS'have'
p6060
aS'respect'
p6061
aS'for'
p6062
aS'the'
p6063
aS'animals'
p6064
aS'we'
p6065
aS'kill'
p6066
asg22
S'I believe we should have respect for the animals we kill  '
p6067
sg24
S' fuck me, right? '
p6068
sg26
Vseth-from-superbad
p6069
sg28
(lp6070
g5
ag6057
ag6058
ag6059
ag6060
ag6061
ag6062
ag6063
ag6064
ag6065
ag6066
aS'fuck'
p6071
aS'me'
p6072
ag64
aS'right'
p6073
ag33
asg34
(lp6074
g6071
ag6072
ag64
ag6073
ag33
asba(iMeme
Meme
p6075
(dp6076
g3
(lp6077
g236
aS'do'
p6078
aS'nothing'
p6079
aS'but'
p6080
aS'have'
p6081
aS'everything'
p6082
asg22
S'i do nothing but have everything '
p6083
sg24
S' fuck me, right? '
p6084
sg26
Vseth-from-superbad
p6085
sg28
(lp6086
g236
ag6078
ag6079
ag6080
ag6081
ag6082
aS'fuck'
p6087
aS'me'
p6088
ag64
aS'right'
p6089
ag33
asg34
(lp6090
g6087
ag6088
ag64
ag6089
ag33
asba(iMeme
Meme
p6091
(dp6092
g3
(lp6093
g5
aS'miss'
p6094
aS'you'
p6095
aS'guys'
p6096
aS'alot'
p6097
asg22
S'I miss you guys alot '
p6098
sg24
S' Fuck me right? '
p6099
sg26
Vseth-from-superbad
p6100
sg28
(lp6101
g5
ag6094
ag6095
ag6096
ag6097
aS'Fuck'
p6102
aS'me'
p6103
aS'right'
p6104
ag33
asg34
(lp6105
g6102
ag6103
ag6104
ag33
asba(iMeme
Meme
p6106
(dp6107
g3
(lp6108
g5
aS'do'
p6109
aS"n't"
p6110
aS'want'
p6111
aS'to'
p6112
aS'fuck'
p6113
aS'up'
p6114
aS'your'
p6115
aS'new'
p6116
aS'relationship'
p6117
aS'by'
p6118
aS'being'
p6119
aS'friends'
p6120
aS'with'
p6121
aS'you'
p6122
asg22
S"I don't want to fuck up your new relationship by being friends with you "
p6123
sg24
S' Fuck me, right? '
p6124
sg26
Vseth-from-superbad
p6125
sg28
(lp6126
g5
ag6109
ag6110
ag6111
ag6112
ag6113
ag6114
ag6115
ag6116
ag6117
ag6118
ag6119
ag6120
ag6121
ag6122
aS'Fuck'
p6127
aS'me'
p6128
ag64
aS'right'
p6129
ag33
asg34
(lp6130
g6127
ag6128
ag64
ag6129
ag33
asba(iMeme
Meme
p6131
(dp6132
g3
(lp6133
g5
aS'also'
p6134
aS'like'
p6135
aS'pussy'
p6136
asg22
S'I also like pussy '
p6137
sg24
S' Fuck me, right? '
p6138
sg26
Vseth-from-superbad
p6139
sg28
(lp6140
g5
ag6134
ag6135
ag6136
aS'Fuck'
p6141
aS'me'
p6142
ag64
aS'right'
p6143
ag33
asg34
(lp6144
g6141
ag6142
ag64
ag6143
ag33
asba(iMeme
Meme
p6145
(dp6146
g3
(lp6147
S'Roommate'
p6148
aS"'s"
p6149
aS'girlfriend'
p6150
aS'stays'
p6151
aS'over'
p6152
aS'every'
p6153
aS'weekend'
p6154
aS'to'
p6155
aS'have'
p6156
aS'sex'
p6157
ag179
ag5
aS'ask'
p6158
aS'her'
p6159
aS'to'
p6160
aS'come'
p6161
aS'over'
p6162
aS'every'
p6163
aS'other'
p6164
aS'weekend'
p6165
ag179
aS'She'
p6166
aS'tells'
p6167
aS'me'
p6168
aS'to'
p6169
aS'suck'
p6170
aS'it'
p6171
aS'up'
p6172
ag179
asg22
S"Roommate's girlfriend stays over every weekend to have sex. I ask her to come over every other weekend. She tells me to suck it up. "
p6173
sg24
S' fuck me, right? '
p6174
sg26
Vseth-from-superbad
p6175
sg28
(lp6176
g6148
ag6149
ag6150
ag6151
ag6152
ag6153
ag6154
ag6155
ag6156
ag6157
ag179
ag5
ag6158
ag6159
ag6160
ag6161
ag6162
ag6163
ag6164
ag6165
ag179
ag6166
ag6167
ag6168
ag6169
ag6170
ag6171
ag6172
ag179
aS'fuck'
p6177
aS'me'
p6178
ag64
aS'right'
p6179
ag33
asg34
(lp6180
g6177
ag6178
ag64
ag6179
ag33
asba(iMeme
Meme
p6181
(dp6182
g3
(lp6183
g5
aS"'m"
p6184
aS'charming'
p6185
ag64
aS'intelligent'
p6186
ag64
aS'and'
p6187
aS'am'
p6188
aS'really'
p6189
aS'nice'
p6190
ag179
asg22
S"I'm charming, intelligent, and am really nice.  "
p6191
sg24
S' Fuck me, right?  '
p6192
sg26
Vseth-from-superbad
p6193
sg28
(lp6194
g5
ag6184
ag6185
ag64
ag6186
ag64
ag6187
ag6188
ag6189
ag6190
ag179
aS'Fuck'
p6195
aS'me'
p6196
ag64
aS'right'
p6197
ag33
asg34
(lp6198
g6195
ag6196
ag64
ag6197
ag33
asba(iMeme
Meme
p6199
(dp6200
g3
(lp6201
g236
aS'just'
p6202
aS'want'
p6203
aS'the'
p6204
aS'audio'
p6205
aS'from'
p6206
aS'my'
p6207
aS'youtube'
p6208
aS'app'
p6209
aS'to'
p6210
aS'keep'
p6211
aS'playing'
p6212
aS'after'
p6213
ag236
aS'shut'
p6214
aS'my'
p6215
aS'phone'
p6216
aS'screen'
p6217
aS'off'
p6218
asg22
S'i just want the audio from my youtube app to keep playing after i shut my phone screen off '
p6219
sg24
S' fuck me right? '
p6220
sg26
Vseth-from-superbad
p6221
sg28
(lp6222
g236
ag6202
ag6203
ag6204
ag6205
ag6206
ag6207
ag6208
ag6209
ag6210
ag6211
ag6212
ag6213
ag236
ag6214
ag6215
ag6216
ag6217
ag6218
aS'fuck'
p6223
aS'me'
p6224
aS'right'
p6225
ag33
asg34
(lp6226
g6223
ag6224
ag6225
ag33
asba(iMeme
Meme
p6227
(dp6228
g3
(lp6229
g5
aS"'m"
p6230
aS'just'
p6231
aS'trying'
p6232
aS'to'
p6233
aS'do'
p6234
aS'my'
p6235
aS'job'
p6236
aS'as'
p6237
aS'politely'
p6238
aS'as'
p6239
aS'possible'
p6240
asg22
S"I'm just trying to do my job as politely as possible "
p6241
sg24
S' Fuck me, right? '
p6242
sg26
Vseth-from-superbad
p6243
sg28
(lp6244
g5
ag6230
ag6231
ag6232
ag6233
ag6234
ag6235
ag6236
ag6237
ag6238
ag6239
ag6240
aS'Fuck'
p6245
aS'me'
p6246
ag64
aS'right'
p6247
ag33
asg34
(lp6248
g6245
ag6246
ag64
ag6247
ag33
asba(iMeme
Meme
p6249
(dp6250
g3
(lp6251
g5
aS'always'
p6252
aS'thought'
p6253
aS'that'
p6254
aS'jonah'
p6255
aS'hill'
p6256
aS"'s"
p6257
aS'character'
p6258
aS'was'
p6259
aS'holding'
p6260
aS'the'
p6261
aS'beer'
p6262
asg22
S"I always thought that jonah hill's character was holding the beer "
p6263
sg24
S' fuck me, right? '
p6264
sg26
Vseth-from-superbad
p6265
sg28
(lp6266
g5
ag6252
ag6253
ag6254
ag6255
ag6256
ag6257
ag6258
ag6259
ag6260
ag6261
ag6262
aS'fuck'
p6267
aS'me'
p6268
ag64
aS'right'
p6269
ag33
asg34
(lp6270
g6267
ag6268
ag64
ag6269
ag33
asba(iMeme
Meme
p6271
(dp6272
g3
(lp6273
g5
aS'do'
p6274
aS"n't"
p6275
aS'think'
p6276
aS'woman'
p6277
aS'are'
p6278
aS'better'
p6279
aS'than'
p6280
aS'men'
p6281
asg22
S"I don't think woman are better than men "
p6282
sg24
S' Fuck me, right? '
p6283
sg26
Vseth-from-superbad
p6284
sg28
(lp6285
g5
ag6274
ag6275
ag6276
ag6277
ag6278
ag6279
ag6280
ag6281
aS'Fuck'
p6286
aS'me'
p6287
ag64
aS'right'
p6288
ag33
asg34
(lp6289
g6286
ag6287
ag64
ag6288
ag33
asba(iMeme
Meme
p6290
(dp6291
g3
(lp6292
g5
aS'just'
p6293
aS'want'
p6294
aS'to'
p6295
aS'lose'
p6296
aS'weight'
p6297
aS'and'
p6298
aS'be'
p6299
aS'healthy'
p6300
asg22
S'I just want to lose weight and be healthy  '
p6301
sg24
S' Fuck me, Right? '
p6302
sg26
Vseth-from-superbad
p6303
sg28
(lp6304
g5
ag6293
ag6294
ag6295
ag6296
ag6297
ag6298
ag6299
ag6300
aS'Fuck'
p6305
aS'me'
p6306
ag64
aS'Right'
p6307
ag33
asg34
(lp6308
g6305
ag6306
ag64
ag6307
ag33
asba(iMeme
Meme
p6309
(dp6310
g3
(lp6311
S'My'
p6312
aS'ex'
p6313
aS'and'
p6314
ag5
aS'actually'
p6315
aS'had'
p6316
ag383
aS'nice'
p6317
aS'break'
p6318
aS'up'
p6319
aS'and'
p6320
aS'are'
p6321
aS'still'
p6322
aS'best'
p6323
aS'friends'
p6324
asg22
S'My ex and I actually had a nice break up and are still best friends  '
p6325
sg24
S' Fuck me right?  '
p6326
sg26
Vseth-from-superbad
p6327
sg28
(lp6328
g6312
ag6313
ag6314
ag5
ag6315
ag6316
ag383
ag6317
ag6318
ag6319
ag6320
ag6321
ag6322
ag6323
ag6324
aS'Fuck'
p6329
aS'me'
p6330
aS'right'
p6331
ag33
asg34
(lp6332
g6329
ag6330
ag6331
ag33
asba.