(lp0
(iMeme
Meme
p1
(dp2
S'top_text'
p3
(lp4
S'got'
p5
aS'bmw'
p6
aS'instead'
p7
aS'of'
p8
aS'range'
p9
aS'rover'
p10
asS'top_text_raw'
p11
S'got bmw instead of range rover '
p12
sS'bottom_text_raw'
p13
S' furious'
p14
sS'meme_type'
p15
Vsheltered-suburban-kid
p16
sS'all_text'
p17
(lp18
g5
ag6
ag7
ag8
ag9
ag10
aS'furious'
p19
asS'bottom_text'
p20
(lp21
g19
asba(iMeme
Meme
p22
(dp23
g3
(lp24
S'Has'
p25
aS'a'
p26
aS'bf'
p27
aS','
p28
ag26
aS'lot'
p29
aS'of'
p30
aS'friends'
p31
ag28
ag26
aS'lot'
p32
aS'of'
p33
aS'money'
p34
aS'and'
p35
ag26
aS'happy'
p36
aS'family'
p37
asg11
S'Has a bf, a lot of friends, a lot of money and a happy family '
p38
sg13
S' omg i hate my life'
p39
sg15
Vsheltered-suburban-kid
p40
sg17
(lp41
g25
ag26
ag27
ag28
ag26
ag29
ag30
ag31
ag28
ag26
ag32
ag33
ag34
ag35
ag26
ag36
ag37
aS'omg'
p42
aS'i'
p43
aS'hate'
p44
aS'my'
p45
aS'life'
p46
asg20
(lp47
g42
ag43
ag44
ag45
ag46
asba(iMeme
Meme
p48
(dp49
g3
(lp50
S'Sneaks'
p51
ag26
aS'cigarette'
p52
asg11
S'Sneaks a cigarette '
p53
sg13
S" OMG I'm so high"
p54
sg15
Vsheltered-suburban-kid
p55
sg17
(lp56
g51
ag26
ag52
aS'OMG'
p57
aS'I'
p58
aS"'m"
p59
aS'so'
p60
aS'high'
p61
asg20
(lp62
g57
ag58
ag59
ag60
ag61
asba(iMeme
Meme
p63
(dp64
g3
(lp65
S'oh'
p66
ag28
ag43
aS"'m"
p67
aS'from'
p68
aS'chicago'
p69
asg11
S"oh, i'm from chicago "
p70
sg13
S' has lived in hinsdale  all her life'
p71
sg15
Vsheltered-suburban-kid
p72
sg17
(lp73
g66
ag28
ag43
ag67
ag68
ag69
aS'has'
p74
aS'lived'
p75
aS'in'
p76
aS'hinsdale'
p77
aS'all'
p78
aS'her'
p79
aS'life'
p80
asg20
(lp81
g74
ag75
ag76
ag77
ag78
ag79
ag80
asba(iMeme
Meme
p82
(dp83
g3
(lp84
S'starts'
p85
aS'dating'
p86
aS'an'
p87
aS'unemployed'
p88
aS'20-year'
p89
aS'old'
p90
asg11
S'starts dating an unemployed 20-year old '
p91
sg13
S" omg, i'm so mature"
p92
sg15
Vsheltered-suburban-kid
p93
sg17
(lp94
g85
ag86
ag87
ag88
ag89
ag90
aS'omg'
p95
ag28
ag43
aS"'m"
p96
aS'so'
p97
aS'mature'
p98
asg20
(lp99
g95
ag28
ag43
ag96
ag97
ag98
asba(iMeme
Meme
p100
(dp101
g3
(lp102
S'gets'
p103
aS'drunk'
p104
aS'at'
p105
aS'dave'
p106
aS'matthews'
p107
aS'concert'
p108
asg11
S'gets drunk at dave matthews concert '
p109
sg13
S" 'I bet this is what woodstock was like.'"
p110
sg15
Vsheltered-suburban-kid
p111
sg17
(lp112
g103
ag104
ag105
ag106
ag107
ag108
aS"'I"
p113
aS'bet'
p114
aS'this'
p115
aS'is'
p116
aS'what'
p117
aS'woodstock'
p118
aS'was'
p119
aS'like'
p120
aS'.'
p121
aS"'"
p122
asg20
(lp123
g113
ag114
ag115
ag116
ag117
ag118
ag119
ag120
ag121
ag122
asba(iMeme
Meme
p124
(dp125
g3
(lp126
S'weed'
p127
aS'is'
p128
aS'bad'
p129
ag121
asg11
S'weed is bad. '
p130
sg13
S' sucks dick for xanax'
p131
sg15
Vsheltered-suburban-kid
p132
sg17
(lp133
g127
ag128
ag129
ag121
aS'sucks'
p134
aS'dick'
p135
aS'for'
p136
aS'xanax'
p137
asg20
(lp138
g134
ag135
ag136
ag137
asba(iMeme
Meme
p139
(dp140
g3
(lp141
g43
aS'do'
p142
aS"n't"
p143
aS'get'
p144
aS'why'
p145
aS'there'
p146
aS'are'
p147
aS'poor'
p148
aS'people'
p149
asg11
S"i don't get why there are poor people "
p150
sg13
S" can't they just get a job or something"
p151
sg15
Vsheltered-suburban-kid
p152
sg17
(lp153
g43
ag142
ag143
ag144
ag145
ag146
ag147
ag148
ag149
aS'ca'
p154
aS"n't"
p155
aS'they'
p156
aS'just'
p157
aS'get'
p158
ag26
aS'job'
p159
aS'or'
p160
aS'something'
p161
asg20
(lp162
g154
ag155
ag156
ag157
ag158
ag26
ag159
ag160
ag161
asba(iMeme
Meme
p163
(dp164
g3
(lp165
S'Listens'
p166
aS'to'
p167
aS'one'
p168
aS'eminem'
p169
aS'song'
p170
asg11
S'Listens to one eminem song '
p171
sg13
S" I'm so street"
p172
sg15
Vsheltered-suburban-kid
p173
sg17
(lp174
g166
ag167
ag168
ag169
ag170
ag58
aS"'m"
p175
aS'so'
p176
aS'street'
p177
asg20
(lp178
g58
ag175
ag176
ag177
asba(iMeme
Meme
p179
(dp180
g3
(lp181
S'summer'
p182
aS'camp'
p183
aS'time'
p184
asg11
S'summer camp time '
p185
sg13
S' perfects handjob'
p186
sg15
Vsheltered-suburban-kid
p187
sg17
(lp188
g182
ag183
ag184
aS'perfects'
p189
aS'handjob'
p190
asg20
(lp191
g189
ag190
asba(iMeme
Meme
p192
(dp193
g3
(lp194
S'Feels'
p195
aS'``'
p196
aS'Independent'
p197
aS"''"
p198
aS'in'
p199
aS'her'
p200
aS'own'
p201
aS'apartment'
p202
asg11
S'Feels "Independent" in her own apartment '
p203
sg13
S" daddy's paying for it"
p204
sg15
Vsheltered-suburban-kid
p205
sg17
(lp206
g195
ag196
ag197
ag198
ag199
ag200
ag201
ag202
aS'daddy'
p207
aS"'s"
p208
aS'paying'
p209
aS'for'
p210
aS'it'
p211
asg20
(lp212
g207
ag208
ag209
ag210
ag211
asba(iMeme
Meme
p213
(dp214
g3
(lp215
g43
aS"'m"
p216
aS'applying'
p217
aS'to'
p218
aS'harvard'
p219
ag28
aS'yale'
p220
ag28
aS'and'
p221
aS'stanford'
p222
asg11
S"i'm applying to harvard, yale, and stanford "
p223
sg13
S' ends up going to arizona state'
p224
sg15
Vsheltered-suburban-kid
p225
sg17
(lp226
g43
ag216
ag217
ag218
ag219
ag28
ag220
ag28
ag221
ag222
aS'ends'
p227
aS'up'
p228
aS'going'
p229
aS'to'
p230
aS'arizona'
p231
aS'state'
p232
asg20
(lp233
g227
ag228
ag229
ag230
ag231
ag232
asba(iMeme
Meme
p234
(dp235
g3
(lp236
S'sees'
p237
ag26
aS'hookah'
p238
aS'bong'
p239
asg11
S'sees a hookah bong '
p240
sg13
S" omg aren't those illegal??"
p241
sg15
Vsheltered-suburban-kid
p242
sg17
(lp243
g237
ag26
ag238
ag239
aS'omg'
p244
aS'are'
p245
aS"n't"
p246
aS'those'
p247
aS'illegal'
p248
aS'?'
p249
ag249
asg20
(lp250
g244
ag245
ag246
ag247
ag248
ag249
ag249
asba(iMeme
Meme
p251
(dp252
g3
(lp253
S'that'
p254
aS'man'
p255
aS'is'
p256
aS'wearing'
p257
aS'flannel'
p258
asg11
S'that man is wearing flannel '
p259
sg13
S' he must be homeless'
p260
sg15
Vsheltered-suburban-kid
p261
sg17
(lp262
g254
ag255
ag256
ag257
ag258
aS'he'
p263
aS'must'
p264
aS'be'
p265
aS'homeless'
p266
asg20
(lp267
g263
ag264
ag265
ag266
asba(iMeme
Meme
p268
(dp269
g3
(lp270
S'Talking'
p271
aS'to'
p272
aS'kids'
p273
aS'from'
p274
aS'the'
p275
aS'city'
p276
aS'for'
p277
aS'the'
p278
aS'first'
p279
aS'time'
p280
ag121
asg11
S'Talking to kids from the city for the first time. '
p281
sg13
S' urban dictionary.com help me!'
p282
sg15
Vsheltered-suburban-kid
p283
sg17
(lp284
g271
ag272
ag273
ag274
ag275
ag276
ag277
ag278
ag279
ag280
ag121
aS'urban'
p285
aS'dictionary.com'
p286
aS'help'
p287
aS'me'
p288
aS'!'
p289
asg20
(lp290
g285
ag286
ag287
ag288
ag289
asba(iMeme
Meme
p291
(dp292
g3
(lp293
S'complains'
p294
aS'about'
p295
aS'having'
p296
aS'to'
p297
aS'buy'
p298
aS'lunch'
p299
asg11
S'complains about having to buy lunch '
p300
sg13
S" with her mom's lunch money"
p301
sg15
Vsheltered-suburban-kid
p302
sg17
(lp303
g294
ag295
ag296
ag297
ag298
ag299
aS'with'
p304
aS'her'
p305
aS'mom'
p306
aS"'s"
p307
aS'lunch'
p308
aS'money'
p309
asg20
(lp310
g304
ag305
ag306
ag307
ag308
ag309
asba(iMeme
Meme
p311
(dp312
g3
(lp313
S'Sheltering'
p314
aS'mom'
p315
aS'unplugs'
p316
aS'printer'
p317
aS'to'
p318
aS'take'
p319
aS'away'
p320
aS'internet'
p321
asg11
S'Sheltering mom unplugs printer to take away internet '
p322
sg13
S' OMG the internets gone'
p323
sg15
Vsheltered-suburban-kid
p324
sg17
(lp325
g314
ag315
ag316
ag317
ag318
ag319
ag320
ag321
aS'OMG'
p326
aS'the'
p327
aS'internets'
p328
aS'gone'
p329
asg20
(lp330
g326
ag327
ag328
ag329
asba(iMeme
Meme
p331
(dp332
g3
(lp333
S'drives'
p334
aS'suv'
p335
aS'with'
p336
aS'bose'
p337
aS'sound'
p338
aS'system'
p339
asg11
S'drives suv with bose sound system '
p340
sg13
S' listens to ke$ha on cell phone speaker'
p341
sg15
Vsheltered-suburban-kid
p342
sg17
(lp343
g334
ag335
ag336
ag337
ag338
ag339
aS'listens'
p344
aS'to'
p345
aS'ke'
p346
aS'$'
p347
aS'ha'
p348
aS'on'
p349
aS'cell'
p350
aS'phone'
p351
aS'speaker'
p352
asg20
(lp353
g344
ag345
ag346
ag347
ag348
ag349
ag350
ag351
ag352
asba(iMeme
Meme
p354
(dp355
g3
(lp356
g43
aS'ca'
p357
aS"n't"
p358
aS'wait'
p359
aS'for'
p360
aS'college'
p361
asg11
S"i can't wait for college "
p362
sg13
S" so i can find out what it's like to be a lesbian"
p363
sg15
Vsheltered-suburban-kid
p364
sg17
(lp365
g43
ag357
ag358
ag359
ag360
ag361
aS'so'
p366
ag43
aS'can'
p367
aS'find'
p368
aS'out'
p369
aS'what'
p370
aS'it'
p371
aS"'s"
p372
aS'like'
p373
aS'to'
p374
aS'be'
p375
ag26
aS'lesbian'
p376
asg20
(lp377
g366
ag43
ag367
ag368
ag369
ag370
ag371
ag372
ag373
ag374
ag375
ag26
ag376
asba(iMeme
Meme
p378
(dp379
g3
(lp380
S'parents'
p381
aS'give'
p382
aS'her'
p383
ag26
aS'car'
p384
asg11
S'parents give her a car '
p385
sg13
S' complains to carless friend about the color'
p386
sg15
Vsheltered-suburban-kid
p387
sg17
(lp388
g381
ag382
ag383
ag26
ag384
aS'complains'
p389
aS'to'
p390
aS'carless'
p391
aS'friend'
p392
aS'about'
p393
aS'the'
p394
aS'color'
p395
asg20
(lp396
g389
ag390
ag391
ag392
ag393
ag394
ag395
asba(iMeme
Meme
p397
(dp398
g3
(lp399
S'wrecks'
p400
aS'car'
p401
aS'while'
p402
aS'texting'
p403
asg11
S'wrecks car while texting '
p404
sg13
S' daddy will buy me another'
p405
sg15
Vsheltered-suburban-kid
p406
sg17
(lp407
g400
ag401
ag402
ag403
aS'daddy'
p408
aS'will'
p409
aS'buy'
p410
aS'me'
p411
aS'another'
p412
asg20
(lp413
g408
ag409
ag410
ag411
ag412
asba(iMeme
Meme
p414
(dp415
g3
(lp416
g58
aS"'m"
p417
aS'totally'
p418
aS'the'
p419
aS'weird'
p420
aS'one'
p421
aS'at'
p422
aS'school'
p423
asg11
S"I'm totally the weird one at school "
p424
sg13
S" I'm in Cheerleading And drama"
p425
sg15
Vsheltered-suburban-kid
p426
sg17
(lp427
g58
ag417
ag418
ag419
ag420
ag421
ag422
ag423
ag58
aS"'m"
p428
aS'in'
p429
aS'Cheerleading'
p430
aS'And'
p431
aS'drama'
p432
asg20
(lp433
g58
ag428
ag429
ag430
ag431
ag432
asba(iMeme
Meme
p434
(dp435
g3
(lp436
S'phone'
p437
aS'is'
p438
aS'out'
p439
aS'of'
p440
aS'date'
p441
asg11
S'phone is out of date '
p442
sg13
S' breaks phone to get a better one'
p443
sg15
Vsheltered-suburban-kid
p444
sg17
(lp445
g437
ag438
ag439
ag440
ag441
aS'breaks'
p446
aS'phone'
p447
aS'to'
p448
aS'get'
p449
ag26
aS'better'
p450
aS'one'
p451
asg20
(lp452
g446
ag447
ag448
ag449
ag26
ag450
ag451
asba(iMeme
Meme
p453
(dp454
g3
(lp455
S'knows'
p456
aS'lyrics'
p457
aS'to'
p458
aS'every'
p459
aS'lil'
p460
aS'wayne'
p461
aS'song'
p462
asg11
S'knows lyrics to every lil wayne song '
p463
sg13
S' has no black friends'
p464
sg15
Vsheltered-suburban-kid
p465
sg17
(lp466
g456
ag457
ag458
ag459
ag460
ag461
ag462
aS'has'
p467
aS'no'
p468
aS'black'
p469
aS'friends'
p470
asg20
(lp471
g467
ag468
ag469
ag470
asba(iMeme
Meme
p472
(dp473
g3
(lp474
g58
aS"'m"
p475
aS'pretty'
p476
aS'wild'
p477
asg11
S"I'm pretty wild "
p478
sg13
S' I had like four red bulls last week'
p479
sg15
Vsheltered-suburban-kid
p480
sg17
(lp481
g58
ag475
ag476
ag477
ag58
aS'had'
p482
aS'like'
p483
aS'four'
p484
aS'red'
p485
aS'bulls'
p486
aS'last'
p487
aS'week'
p488
asg20
(lp489
g58
ag482
ag483
ag484
ag485
ag486
ag487
ag488
asba(iMeme
Meme
p490
(dp491
g3
(lp492
S'sees'
p493
aS'black'
p494
aS'person'
p495
asg11
S'sees black person '
p496
sg13
S' in the ghetto'
p497
sg15
Vsheltered-suburban-kid
p498
sg17
(lp499
g493
ag494
ag495
aS'in'
p500
aS'the'
p501
aS'ghetto'
p502
asg20
(lp503
g500
ag501
ag502
asba(iMeme
Meme
p504
(dp505
g3
(lp506
S'A'
p507
aS'new'
p508
aS'BMW'
p509
ag249
ag249
ag249
asg11
S'A new BMW??? '
p510
sg13
S" oh..it's only a 3-series"
p511
sg15
Vsheltered-suburban-kid
p512
sg17
(lp513
g507
ag508
ag509
ag249
ag249
ag249
aS'oh..it'
p514
aS"'s"
p515
aS'only'
p516
ag26
aS'3-series'
p517
asg20
(lp518
g514
ag515
ag516
ag26
ag517
asba(iMeme
Meme
p519
(dp520
g3
(lp521
S'gets'
p522
ag26
aS'brand'
p523
aS'new'
p524
aS'mercedes'
p525
aS'for'
p526
aS'birthday'
p527
asg11
S'gets a brand new mercedes for birthday '
p528
sg13
S' omg mom i wanted it convertible'
p529
sg15
Vsheltered-suburban-kid
p530
sg17
(lp531
g522
ag26
ag523
ag524
ag525
ag526
ag527
aS'omg'
p532
aS'mom'
p533
ag43
aS'wanted'
p534
aS'it'
p535
aS'convertible'
p536
asg20
(lp537
g532
ag533
ag43
ag534
ag535
ag536
asba(iMeme
Meme
p538
(dp539
g3
(lp540
S'parents'
p541
aS'lose'
p542
aS'jobs'
p543
ag28
aS'home'
p544
aS'gets'
p545
aS'foreclosed'
p546
ag28
aS'credit'
p547
aS'cards'
p548
aS'cut'
p549
aS'up'
p550
asg11
S'parents lose jobs, home gets foreclosed, credit cards cut up '
p551
sg13
S' still gets her italy vacation'
p552
sg15
Vsheltered-suburban-kid
p553
sg17
(lp554
g541
ag542
ag543
ag28
ag544
ag545
ag546
ag28
ag547
ag548
ag549
ag550
aS'still'
p555
aS'gets'
p556
aS'her'
p557
aS'italy'
p558
aS'vacation'
p559
asg20
(lp560
g555
ag556
ag557
ag558
ag559
asba(iMeme
Meme
p561
(dp562
g3
(lp563
g58
aS'like'
p564
aS'this'
p565
aS'really'
p566
aS'obscure'
p567
aS'band'
p568
asg11
S'I like this really obscure band '
p569
sg13
S" They're called The Smiths"
p570
sg15
Vsheltered-suburban-kid
p571
sg17
(lp572
g58
ag564
ag565
ag566
ag567
ag568
aS'They'
p573
aS"'re"
p574
aS'called'
p575
aS'The'
p576
aS'Smiths'
p577
asg20
(lp578
g573
ag574
ag575
ag576
ag577
asba(iMeme
Meme
p579
(dp580
g3
(lp581
S'Lived'
p582
aS'in'
p583
aS'``'
p584
aS'the'
p585
aS'city'
p586
aS"''"
p587
aS'until'
p588
ag58
aS'was'
p589
aS'2'
p590
asg11
S'Lived in "the city" until I was 2 '
p591
sg13
S' Street Smart'
p592
sg15
Vsheltered-suburban-kid
p593
sg17
(lp594
g582
ag583
ag584
ag585
ag586
ag587
ag588
ag58
ag589
ag590
aS'Street'
p595
aS'Smart'
p596
asg20
(lp597
g595
ag596
asba(iMeme
Meme
p598
(dp599
g3
(lp600
S'enters'
p601
aS'the'
p602
aS'mall'
p603
asg11
S'enters the mall '
p604
sg13
S' Goes straight to Hollister'
p605
sg15
Vsheltered-suburban-kid
p606
sg17
(lp607
g601
ag602
ag603
aS'Goes'
p608
aS'straight'
p609
aS'to'
p610
aS'Hollister'
p611
asg20
(lp612
g608
ag609
ag610
ag611
asba(iMeme
Meme
p613
(dp614
g3
(lp615
S'likes'
p616
aS'one'
p617
aS'song'
p618
aS'by'
p619
aS'korn'
p620
aS'and'
p621
aS'has'
p622
ag26
aS'friend'
p623
aS'that'
p624
aS'smokes'
p625
asg11
S'likes one song by korn and has a friend that smokes '
p626
sg13
S' Omg you guys im so hardcore.'
p627
sg15
Vsheltered-suburban-kid
p628
sg17
(lp629
g616
ag617
ag618
ag619
ag620
ag621
ag622
ag26
ag623
ag624
ag625
aS'Omg'
p630
aS'you'
p631
aS'guys'
p632
aS'im'
p633
aS'so'
p634
aS'hardcore'
p635
ag121
asg20
(lp636
g630
ag631
ag632
ag633
ag634
ag635
ag121
asba(iMeme
Meme
p637
(dp638
g3
(lp639
g58
aS"'ve"
p640
aS'got'
p641
aS'it'
p642
aS'pretty'
p643
aS'rough'
p644
asg11
S"I've got it pretty rough "
p645
sg13
S' My mom made me get a job in high school'
p646
sg15
Vsheltered-suburban-kid
p647
sg17
(lp648
g58
ag640
ag641
ag642
ag643
ag644
aS'My'
p649
aS'mom'
p650
aS'made'
p651
aS'me'
p652
aS'get'
p653
ag26
aS'job'
p654
aS'in'
p655
aS'high'
p656
aS'school'
p657
asg20
(lp658
g649
ag650
ag651
ag652
ag653
ag26
ag654
ag655
ag656
ag657
asba(iMeme
Meme
p659
(dp660
g3
(lp661
S'You'
p662
aS'have'
p663
aS'crabs'
p664
ag249
asg11
S'You have crabs? '
p665
sg13
S' I love seafood!'
p666
sg15
Vsheltered-suburban-kid
p667
sg17
(lp668
g662
ag663
ag664
ag249
ag58
aS'love'
p669
aS'seafood'
p670
ag289
asg20
(lp671
g58
ag669
ag670
ag289
asba(iMeme
Meme
p672
(dp673
g3
(lp674
S'Sees'
p675
aS'Minority'
p676
aS'Woman'
p677
asg11
S'Sees Minority Woman '
p678
sg13
S' Hands her list of shit to clean'
p679
sg15
Vsheltered-suburban-kid
p680
sg17
(lp681
g675
ag676
ag677
aS'Hands'
p682
aS'her'
p683
aS'list'
p684
aS'of'
p685
aS'shit'
p686
aS'to'
p687
aS'clean'
p688
asg20
(lp689
g682
ag683
ag684
ag685
ag686
ag687
ag688
asba(iMeme
Meme
p690
(dp691
g3
(lp692
S'Says'
p693
aS'she'
p694
aS'works'
p695
aS'hard'
p696
aS'for'
p697
aS'the'
p698
aS'things'
p699
aS'she'
p700
aS'has'
p701
ag28
asg11
S'Says she works hard for the things she has, '
p702
sg13
S' Dad pays rent and car note each month.'
p703
sg15
Vsheltered-suburban-kid
p704
sg17
(lp705
g693
ag694
ag695
ag696
ag697
ag698
ag699
ag700
ag701
ag28
aS'Dad'
p706
aS'pays'
p707
aS'rent'
p708
aS'and'
p709
aS'car'
p710
aS'note'
p711
aS'each'
p712
aS'month'
p713
ag121
asg20
(lp714
g706
ag707
ag708
ag709
ag710
ag711
ag712
ag713
ag121
asba(iMeme
Meme
p715
(dp716
g3
(lp717
S'3'
p718
aS'summer'
p719
aS'homes'
p720
asg11
S'3 summer homes '
p721
sg13
S" Omg we're so poor"
p722
sg15
Vsheltered-suburban-kid
p723
sg17
(lp724
g718
ag719
ag720
aS'Omg'
p725
aS'we'
p726
aS"'re"
p727
aS'so'
p728
aS'poor'
p729
asg20
(lp730
g725
ag726
ag727
ag728
ag729
asba(iMeme
Meme
p731
(dp732
g3
(lp733
S'cant'
p734
aS'have'
p735
ag26
aS'new'
p736
aS'dress'
p737
asg11
S'cant have a new dress '
p738
sg13
S' omg i hate my life'
p739
sg15
Vsheltered-suburban-kid
p740
sg17
(lp741
g734
ag735
ag26
ag736
ag737
aS'omg'
p742
ag43
aS'hate'
p743
aS'my'
p744
aS'life'
p745
asg20
(lp746
g742
ag43
ag743
ag744
ag745
asba(iMeme
Meme
p747
(dp748
g3
(lp749
S'omg'
p750
aS'guys'
p751
aS'im'
p752
aS'sooo'
p753
aS'fat'
p754
aS'and'
p755
aS'gross'
p756
ag289
asg11
S'omg guys im sooo fat and gross!'
p757
sg13
S' size 3.'
p758
sg15
Vsheltered-suburban-kid
p759
sg17
(lp760
g750
ag751
ag752
ag753
ag754
ag755
ag756
ag289
aS'size'
p761
ag718
ag121
asg20
(lp762
g761
ag718
ag121
asba(iMeme
Meme
p763
(dp764
g3
(lp765
S'if'
p766
aS'youre'
p767
aS'spoiled'
p768
aS'and'
p769
aS'you'
p770
aS'know'
p771
aS'it'
p772
asg11
S'if youre spoiled and you know it'
p773
sg13
S' clap your hands'
p774
sg15
Vsheltered-suburban-kid
p775
sg17
(lp776
g766
ag767
ag768
ag769
ag770
ag771
ag772
aS'clap'
p777
aS'your'
p778
aS'hands'
p779
asg20
(lp780
g777
ag778
ag779
asba(iMeme
Meme
p781
(dp782
g3
(lp783
S'has'
p784
ag26
aS'bf'
p785
asg11
S'has a bf'
p786
sg13
S' a lot of friends'
p787
sg15
Vsheltered-suburban-kid
p788
sg17
(lp789
g784
ag26
ag785
ag26
aS'lot'
p790
aS'of'
p791
aS'friends'
p792
asg20
(lp793
g26
ag790
ag791
ag792
asba(iMeme
Meme
p794
(dp795
g3
(lp796
S'what'
p797
aS'is'
p798
aS'fapping'
p799
ag249
asg11
S'what is fapping?'
p800
sg13
S' is it shaking your hips?'
p801
sg15
Vsheltered-suburban-kid
p802
sg17
(lp803
g797
ag798
ag799
ag249
aS'is'
p804
aS'it'
p805
aS'shaking'
p806
aS'your'
p807
aS'hips'
p808
ag249
asg20
(lp809
g804
ag805
ag806
ag807
ag808
ag249
asba(iMeme
Meme
p810
(dp811
g3
(lp812
S'smokes'
p813
aS'one'
p814
aS'cigarette'
p815
asg11
S'smokes one cigarette'
p816
sg13
S' omg im so high'
p817
sg15
Vsheltered-suburban-kid
p818
sg17
(lp819
g813
ag814
ag815
aS'omg'
p820
aS'im'
p821
aS'so'
p822
aS'high'
p823
asg20
(lp824
g820
ag821
ag822
ag823
asba(iMeme
Meme
p825
(dp826
g3
(lp827
S'this'
p828
aS'is'
p829
aS'the'
p830
aS'bad'
p831
aS'part'
p832
aS'of'
p833
aS'town'
p834
asg11
S'this is the bad part of town'
p835
sg13
S' it has a kmart'
p836
sg15
Vsheltered-suburban-kid
p837
sg17
(lp838
g828
ag829
ag830
ag831
ag832
ag833
ag834
aS'it'
p839
aS'has'
p840
ag26
aS'kmart'
p841
asg20
(lp842
g839
ag840
ag26
ag841
asba(iMeme
Meme
p843
(dp844
g3
(lp845
S'see'
p846
aS'homeless'
p847
aS'veteran'
p848
aS'on'
p849
aS'the'
p850
aS'street'
p851
asg11
S'see homeless veteran on the street'
p852
sg13
S' avoid eye contact to keep a dollar'
p853
sg15
Vsheltered-suburban-kid
p854
sg17
(lp855
g846
ag847
ag848
ag849
ag850
ag851
aS'avoid'
p856
aS'eye'
p857
aS'contact'
p858
aS'to'
p859
aS'keep'
p860
ag26
aS'dollar'
p861
asg20
(lp862
g856
ag857
ag858
ag859
ag860
ag26
ag861
asba(iMeme
Meme
p863
(dp864
g3
(lp865
S'sees'
p866
ag26
aS'black'
p867
aS'person'
p868
asg11
S'sees a black person'
p869
sg13
S' omg were in the ghetto'
p870
sg15
Vsheltered-suburban-kid
p871
sg17
(lp872
g866
ag26
ag867
ag868
aS'omg'
p873
aS'were'
p874
aS'in'
p875
aS'the'
p876
aS'ghetto'
p877
asg20
(lp878
g873
ag874
ag875
ag876
ag877
asba(iMeme
Meme
p879
(dp880
g3
(lp881
S'wrecks'
p882
aS'car'
p883
aS'while'
p884
aS'texting'
p885
asg11
S'wrecks car while texting'
p886
sg13
S' daddy will buy me another one'
p887
sg15
Vsheltered-suburban-kid
p888
sg17
(lp889
g882
ag883
ag884
ag885
aS'daddy'
p890
aS'will'
p891
aS'buy'
p892
aS'me'
p893
aS'another'
p894
aS'one'
p895
asg20
(lp896
g890
ag891
ag892
ag893
ag894
ag895
asba(iMeme
Meme
p897
(dp898
g3
(lp899
g43
aS'dont'
p900
aS'need'
p901
ag26
aS'public'
p902
aS'restroom'
p903
asg11
S'i dont need a public restroom'
p904
sg13
S' girls never pooop'
p905
sg15
Vsheltered-suburban-kid
p906
sg17
(lp907
g43
ag900
ag901
ag26
ag902
ag903
aS'girls'
p908
aS'never'
p909
aS'pooop'
p910
asg20
(lp911
g908
ag909
ag910
asba(iMeme
Meme
p912
(dp913
g3
(lp914
S'you'
p915
aS'guys'
p916
aS'im'
p917
aS'so'
p918
aS'effing'
p919
aS'fat'
p920
asg11
S'you guys im so effing fat'
p921
sg13
S' 94 pounds'
p922
sg15
Vsheltered-suburban-kid
p923
sg17
(lp924
g915
ag916
ag917
ag918
ag919
ag920
aS'94'
p925
aS'pounds'
p926
asg20
(lp927
g925
ag926
asba(iMeme
Meme
p928
(dp929
g3
(lp930
S'hears'
p931
aS'one'
p932
aS'eminem'
p933
aS'song'
p934
asg11
S'hears one eminem song'
p935
sg13
S' omg im so gangster'
p936
sg15
Vsheltered-suburban-kid
p937
sg17
(lp938
g931
ag932
ag933
ag934
aS'omg'
p939
aS'im'
p940
aS'so'
p941
aS'gangster'
p942
asg20
(lp943
g939
ag940
ag941
ag942
asba(iMeme
Meme
p944
(dp945
g3
(lp946
S'my'
p947
aS'ipad'
p948
asg11
S'my ipad'
p949
sg13
S' has no usb port!'
p950
sg15
Vsheltered-suburban-kid
p951
sg17
(lp952
g947
ag948
aS'has'
p953
aS'no'
p954
aS'usb'
p955
aS'port'
p956
ag289
asg20
(lp957
g953
ag954
ag955
ag956
ag289
asba(iMeme
Meme
p958
(dp959
g3
(lp960
S'omg'
p961
asg11
S'omg'
p962
sg13
S' an african prince is going to give me millions!'
p963
sg15
Vsheltered-suburban-kid
p964
sg17
(lp965
g961
aS'an'
p966
aS'african'
p967
aS'prince'
p968
aS'is'
p969
aS'going'
p970
aS'to'
p971
aS'give'
p972
aS'me'
p973
aS'millions'
p974
ag289
asg20
(lp975
g966
ag967
ag968
ag969
ag970
ag971
ag972
ag973
ag974
ag289
asba(iMeme
Meme
p976
(dp977
g3
(lp978
S'ive'
p979
aS'got'
p980
ag26
aS'hard'
p981
aS'life'
p982
asg11
S'ive got a hard life'
p983
sg13
S' parents made me get a job in highschool'
p984
sg15
Vsheltered-suburban-kid
p985
sg17
(lp986
g979
ag980
ag26
ag981
ag982
aS'parents'
p987
aS'made'
p988
aS'me'
p989
aS'get'
p990
ag26
aS'job'
p991
aS'in'
p992
aS'highschool'
p993
asg20
(lp994
g987
ag988
ag989
ag990
ag26
ag991
ag992
ag993
asba(iMeme
Meme
p995
(dp996
g3
(lp997
S'starts'
p998
aS'dating'
p999
aS'20'
p1000
aS'year'
p1001
aS'old'
p1002
aS'unemployed'
p1003
aS'male'
p1004
asg11
S'starts dating 20 year old unemployed male'
p1005
sg13
S' omg im so mature'
p1006
sg15
Vsheltered-suburban-kid
p1007
sg17
(lp1008
g998
ag999
ag1000
ag1001
ag1002
ag1003
ag1004
aS'omg'
p1009
aS'im'
p1010
aS'so'
p1011
aS'mature'
p1012
asg20
(lp1013
g1009
ag1010
ag1011
ag1012
asba(iMeme
Meme
p1014
(dp1015
g3
(lp1016
S'takes'
p1017
aS'one'
p1018
aS'sip'
p1019
asg11
S'takes one sip'
p1020
sg13
S' omg im so wasted someone fuck me'
p1021
sg15
Vsheltered-suburban-kid
p1022
sg17
(lp1023
g1017
ag1018
ag1019
aS'omg'
p1024
aS'im'
p1025
aS'so'
p1026
aS'wasted'
p1027
aS'someone'
p1028
aS'fuck'
p1029
aS'me'
p1030
asg20
(lp1031
g1024
ag1025
ag1026
ag1027
ag1028
ag1029
ag1030
asba(iMeme
Meme
p1032
(dp1033
g3
(lp1034
S'going'
p1035
aS'to'
p1036
aS'europe'
p1037
asg11
S'going to europe'
p1038
sg13
S' with no cell phone fml.'
p1039
sg15
Vsheltered-suburban-kid
p1040
sg17
(lp1041
g1035
ag1036
ag1037
aS'with'
p1042
aS'no'
p1043
aS'cell'
p1044
aS'phone'
p1045
aS'fml'
p1046
ag121
asg20
(lp1047
g1042
ag1043
ag1044
ag1045
ag1046
ag121
asba(iMeme
Meme
p1048
(dp1049
g3
(lp1050
g43
aS'met'
p1051
aS'my'
p1052
aS'soulmate'
p1053
ag289
asg11
S'i met my soulmate!'
p1054
sg13
S' his name is douchebag steve!'
p1055
sg15
Vsheltered-suburban-kid
p1056
sg17
(lp1057
g43
ag1051
ag1052
ag1053
ag289
aS'his'
p1058
aS'name'
p1059
aS'is'
p1060
aS'douchebag'
p1061
aS'steve'
p1062
ag289
asg20
(lp1063
g1058
ag1059
ag1060
ag1061
ag1062
ag289
asba(iMeme
Meme
p1064
(dp1065
g3
(lp1066
S'things'
p1067
aS'saying'
p1068
aS'omg'
p1069
aS'poor'
p1070
aS'starving'
p1071
aS'kids'
p1072
aS'in'
p1073
aS'africa'
p1074
asg11
S'things saying omg poor starving kids in africa'
p1075
sg13
S' is somehow helping starving kids in africa'
p1076
sg15
Vsheltered-suburban-kid
p1077
sg17
(lp1078
g1067
ag1068
ag1069
ag1070
ag1071
ag1072
ag1073
ag1074
aS'is'
p1079
aS'somehow'
p1080
aS'helping'
p1081
aS'starving'
p1082
aS'kids'
p1083
aS'in'
p1084
aS'africa'
p1085
asg20
(lp1086
g1079
ag1080
ag1081
ag1082
ag1083
ag1084
ag1085
asba(iMeme
Meme
p1087
(dp1088
g3
(lp1089
S'lost'
p1090
aS'all'
p1091
aS'my'
p1092
aS'contacts'
p1093
asg11
S'lost all my contacts'
p1094
sg13
S' worst day ever'
p1095
sg15
Vsheltered-suburban-kid
p1096
sg17
(lp1097
g1090
ag1091
ag1092
ag1093
aS'worst'
p1098
aS'day'
p1099
aS'ever'
p1100
asg20
(lp1101
g1098
ag1099
ag1100
asba(iMeme
Meme
p1102
(dp1103
g3
(lp1104
S'got'
p1105
aS'blackout'
p1106
aS'drunk'
p1107
aS'last'
p1108
aS'night'
p1109
ag121
asg11
S'got blackout drunk last night.'
p1110
sg13
S' therefore it didnt happen.'
p1111
sg15
Vsheltered-suburban-kid
p1112
sg17
(lp1113
g1105
ag1106
ag1107
ag1108
ag1109
ag121
aS'therefore'
p1114
aS'it'
p1115
aS'didnt'
p1116
aS'happen'
p1117
ag121
asg20
(lp1118
g1114
ag1115
ag1116
ag1117
ag121
asba(iMeme
Meme
p1119
(dp1120
g3
(lp1121
S'phone'
p1122
aS'taken'
p1123
aS'away'
p1124
aS'for'
p1125
aS'the'
p1126
aS'weekend'
p1127
asg11
S'phone taken away for the weekend'
p1128
sg13
S' fml life is so unfair!'
p1129
sg15
Vsheltered-suburban-kid
p1130
sg17
(lp1131
g1122
ag1123
ag1124
ag1125
ag1126
ag1127
aS'fml'
p1132
aS'life'
p1133
aS'is'
p1134
aS'so'
p1135
aS'unfair'
p1136
ag289
asg20
(lp1137
g1132
ag1133
ag1134
ag1135
ag1136
ag289
asba(iMeme
Meme
p1138
(dp1139
g3
(lp1140
S'got'
p1141
aS'bmw'
p1142
aS'instead'
p1143
aS'of'
p1144
aS'range'
p1145
aS'rover'
p1146
asg11
S'got bmw instead of range rover'
p1147
sg13
S' furious'
p1148
sg15
Vsheltered-suburban-kid
p1149
sg17
(lp1150
g1141
ag1142
ag1143
ag1144
ag1145
ag1146
aS'furious'
p1151
asg20
(lp1152
g1151
asba(iMeme
Meme
p1153
(dp1154
g3
(lp1155
S'im'
p1156
aS'not'
p1157
aS'rich'
p1158
ag43
aS'swear'
p1159
asg11
S'im not rich i swear'
p1160
sg13
S' you can even ask my maid'
p1161
sg15
Vsheltered-suburban-kid
p1162
sg17
(lp1163
g1156
ag1157
ag1158
ag43
ag1159
aS'you'
p1164
aS'can'
p1165
aS'even'
p1166
aS'ask'
p1167
aS'my'
p1168
aS'maid'
p1169
asg20
(lp1170
g1164
ag1165
ag1166
ag1167
ag1168
ag1169
asba(iMeme
Meme
p1171
(dp1172
g3
(lp1173
S'freshmen'
p1174
aS'can'
p1175
aS'not'
p1176
aS'have'
p1177
aS'cars'
p1178
aS'on'
p1179
aS'campus'
p1180
asg11
S'freshmen cannot have cars on campus'
p1181
sg13
S' wait i cannot bring my lexus?'
p1182
sg15
Vsheltered-suburban-kid
p1183
sg17
(lp1184
g1174
ag1175
ag1176
ag1177
ag1178
ag1179
ag1180
aS'wait'
p1185
ag43
aS'can'
p1186
aS'not'
p1187
aS'bring'
p1188
aS'my'
p1189
aS'lexus'
p1190
ag249
asg20
(lp1191
g1185
ag43
ag1186
ag1187
ag1188
ag1189
ag1190
ag249
asba(iMeme
Meme
p1192
(dp1193
g3
(lp1194
S'pot'
p1195
aS'is'
p1196
aS'bad'
p1197
asg11
S'pot is bad'
p1198
sg13
S' get drunk every friday'
p1199
sg15
Vsheltered-suburban-kid
p1200
sg17
(lp1201
g1195
ag1196
ag1197
aS'get'
p1202
aS'drunk'
p1203
aS'every'
p1204
aS'friday'
p1205
asg20
(lp1206
g1202
ag1203
ag1204
ag1205
asba(iMeme
Meme
p1207
(dp1208
g3
(lp1209
S'takes'
p1210
aS'one'
p1211
aS'hit'
p1212
aS'of'
p1213
aS'weed'
p1214
asg11
S'takes one hit of weed'
p1215
sg13
S' coughs'
p1216
sg15
Vsheltered-suburban-kid
p1217
sg17
(lp1218
g1210
ag1211
ag1212
ag1213
ag1214
aS'coughs'
p1219
asg20
(lp1220
g1219
asba(iMeme
Meme
p1221
(dp1222
g3
(lp1223
S'daddy'
p1224
aS'took'
p1225
aS'away'
p1226
aS'the'
p1227
aS'credit'
p1228
aS'card'
p1229
asg11
S'daddy took away the credit card'
p1230
sg13
S' memorized the numbers'
p1231
sg15
Vsheltered-suburban-kid
p1232
sg17
(lp1233
g1224
ag1225
ag1226
ag1227
ag1228
ag1229
aS'memorized'
p1234
aS'the'
p1235
aS'numbers'
p1236
asg20
(lp1237
g1234
ag1235
ag1236
asba(iMeme
Meme
p1238
(dp1239
g3
(lp1240
S'black'
p1241
aS'man'
p1242
aS'walks'
p1243
aS'by'
p1244
aS'car'
p1245
asg11
S'black man walks by car'
p1246
sg13
S' lock all the doors'
p1247
sg15
Vsheltered-suburban-kid
p1248
sg17
(lp1249
g1241
ag1242
ag1243
ag1244
ag1245
aS'lock'
p1250
aS'all'
p1251
aS'the'
p1252
aS'doors'
p1253
asg20
(lp1254
g1250
ag1251
ag1252
ag1253
asba(iMeme
Meme
p1255
(dp1256
g3
(lp1257
S'fuck'
p1258
aS'illegal'
p1259
aS'immigrants'
p1260
ag289
asg11
S'fuck illegal immigrants!'
p1261
sg13
S' except rosetta and jose!'
p1262
sg15
Vsheltered-suburban-kid
p1263
sg17
(lp1264
g1258
ag1259
ag1260
ag289
aS'except'
p1265
aS'rosetta'
p1266
aS'and'
p1267
aS'jose'
p1268
ag289
asg20
(lp1269
g1265
ag1266
ag1267
ag1268
ag289
asba(iMeme
Meme
p1270
(dp1271
g3
(lp1272
S'omg'
p1273
ag289
asg11
S'omg!'
p1274
sg13
S' nickleback is the best band ever made!'
p1275
sg15
Vsheltered-suburban-kid
p1276
sg17
(lp1277
g1273
ag289
aS'nickleback'
p1278
aS'is'
p1279
aS'the'
p1280
aS'best'
p1281
aS'band'
p1282
aS'ever'
p1283
aS'made'
p1284
ag289
asg20
(lp1285
g1278
ag1279
ag1280
ag1281
ag1282
ag1283
ag1284
ag289
asba(iMeme
Meme
p1286
(dp1287
g3
(lp1288
g43
aS'dont'
p1289
aS'need'
p1290
ag26
aS'public'
p1291
aS'restroom'
p1292
asg11
S'i dont need a public restroom'
p1293
sg13
S' girld never pooop'
p1294
sg15
Vsheltered-suburban-kid
p1295
sg17
(lp1296
g43
ag1289
ag1290
ag26
ag1291
ag1292
aS'girld'
p1297
aS'never'
p1298
aS'pooop'
p1299
asg20
(lp1300
g1297
ag1298
ag1299
asba(iMeme
Meme
p1301
(dp1302
g3
(lp1303
S'im'
p1304
aS'so'
p1305
aS'white'
p1306
asg11
S'im so white'
p1307
sg13
S' emily kramers my bff'
p1308
sg15
Vsheltered-suburban-kid
p1309
sg17
(lp1310
g1304
ag1305
ag1306
aS'emily'
p1311
aS'kramers'
p1312
aS'my'
p1313
aS'bff'
p1314
asg20
(lp1315
g1311
ag1312
ag1313
ag1314
asba(iMeme
Meme
p1316
(dp1317
g3
(lp1318
S'no'
p1319
aS'wai'
p1320
asg11
S'no wai'
p1321
sg13
S' thats how a blowjob works'
p1322
sg15
Vsheltered-suburban-kid
p1323
sg17
(lp1324
g1319
ag1320
aS'thats'
p1325
aS'how'
p1326
ag26
aS'blowjob'
p1327
aS'works'
p1328
asg20
(lp1329
g1325
ag1326
ag26
ag1327
ag1328
asba(iMeme
Meme
p1330
(dp1331
g3
(lp1332
S'drives'
p1333
aS'last'
p1334
aS'years'
p1335
aS'model'
p1336
aS'of'
p1337
aS'the'
p1338
aS'range'
p1339
aS'rover'
p1340
ag121
asg11
S'drives last years model of the range rover.'
p1341
sg13
S' omg guys im so laaaaammeeeee'
p1342
sg15
Vsheltered-suburban-kid
p1343
sg17
(lp1344
g1333
ag1334
ag1335
ag1336
ag1337
ag1338
ag1339
ag1340
ag121
aS'omg'
p1345
aS'guys'
p1346
aS'im'
p1347
aS'so'
p1348
aS'laaaaammeeeee'
p1349
asg20
(lp1350
g1345
ag1346
ag1347
ag1348
ag1349
asba(iMeme
Meme
p1351
(dp1352
g3
(lp1353
S'internet'
p1354
aS'ad'
p1355
aS'didnt'
p1356
aS'deliver'
p1357
aS'free'
p1358
aS'ipad'
p1359
asg11
S'internet ad didnt deliver free ipad'
p1360
sg13
S' call today tonight'
p1361
sg15
Vsheltered-suburban-kid
p1362
sg17
(lp1363
g1354
ag1355
ag1356
ag1357
ag1358
ag1359
aS'call'
p1364
aS'today'
p1365
aS'tonight'
p1366
asg20
(lp1367
g1364
ag1365
ag1366
asba(iMeme
Meme
p1368
(dp1369
g3
(lp1370
S'sees'
p1371
ag26
aS'black'
p1372
aS'person'
p1373
asg11
S'sees a black person'
p1374
sg13
S' omg were in ghetto'
p1375
sg15
Vsheltered-suburban-kid
p1376
sg17
(lp1377
g1371
ag26
ag1372
ag1373
aS'omg'
p1378
aS'were'
p1379
aS'in'
p1380
aS'ghetto'
p1381
asg20
(lp1382
g1378
ag1379
ag1380
ag1381
asba(iMeme
Meme
p1383
(dp1384
g3
(lp1385
S'this'
p1386
aS'is'
p1387
aS'the'
p1388
aS'bad'
p1389
aS'part'
p1390
aS'of'
p1391
aS'town'
p1392
asg11
S'this is the bad part of town'
p1393
sg13
S''
p1394
sg15
Vsheltered-suburban-kid
p1395
sg17
(lp1396
g1386
ag1387
ag1388
ag1389
ag1390
ag1391
ag1392
asg20
(lp1397
sba(iMeme
Meme
p1398
(dp1399
g3
(lp1400
S'daaaaaaaaaaddy'
p1401
ag289
asg11
S'daaaaaaaaaaddy!'
p1402
sg13
S' my phone died'
p1403
sg15
Vsheltered-suburban-kid
p1404
sg17
(lp1405
g1401
ag289
aS'my'
p1406
aS'phone'
p1407
aS'died'
p1408
asg20
(lp1409
g1406
ag1407
ag1408
asba(iMeme
Meme
p1410
(dp1411
g3
(lp1412
S'im'
p1413
aS'pretty'
p1414
aS'wild'
p1415
asg11
S'im pretty wild'
p1416
sg13
S' i had 4 red bulls yesterday'
p1417
sg15
Vsheltered-suburban-kid
p1418
sg17
(lp1419
g1413
ag1414
ag1415
ag43
aS'had'
p1420
aS'4'
p1421
aS'red'
p1422
aS'bulls'
p1423
aS'yesterday'
p1424
asg20
(lp1425
g43
ag1420
ag1421
ag1422
ag1423
ag1424
asba(iMeme
Meme
p1426
(dp1427
g3
(lp1428
S'even'
p1429
aS'fumier'
p1430
aS'that'
p1431
aS'some'
p1432
aS'of'
p1433
aS'the'
p1434
aS'females'
p1435
aS'get'
p1436
aS'so'
p1437
aS'irritated'
p1438
aS'about'
p1439
aS'some'
p1440
aS'girl'
p1441
aS'wearing'
p1442
ag26
aS'shirt'
p1443
asg11
S'even fumier that some of the females get so irritated about some girl wearing a shirt'
p1444
sg13
S' that says what most of the  pretty teens really think.'
p1445
sg15
Vsheltered-suburban-kid
p1446
sg17
(lp1447
g1429
ag1430
ag1431
ag1432
ag1433
ag1434
ag1435
ag1436
ag1437
ag1438
ag1439
ag1440
ag1441
ag1442
ag26
ag1443
aS'that'
p1448
aS'says'
p1449
aS'what'
p1450
aS'most'
p1451
aS'of'
p1452
aS'the'
p1453
aS'pretty'
p1454
aS'teens'
p1455
aS'really'
p1456
aS'think'
p1457
ag121
asg20
(lp1458
g1448
ag1449
ag1450
ag1451
ag1452
ag1453
ag1454
ag1455
ag1456
ag1457
ag121
asba(iMeme
Meme
p1459
(dp1460
g3
(lp1461
S'whats'
p1462
ag26
aS'shank'
p1463
ag249
asg11
S'whats a shank?'
p1464
sg13
S' lol omg'
p1465
sg15
Vsheltered-suburban-kid
p1466
sg17
(lp1467
g1462
ag26
ag1463
ag249
aS'lol'
p1468
aS'omg'
p1469
asg20
(lp1470
g1468
ag1469
asba(iMeme
Meme
p1471
(dp1472
g3
(lp1473
S'im'
p1474
aS'not'
p1475
aS'rich'
p1476
ag43
aS'swear'
p1477
asg11
S'im not rich i swear'
p1478
sg13
S' i got this car for 30% off at $73'
p1479
sg15
Vsheltered-suburban-kid
p1480
sg17
(lp1481
g1474
ag1475
ag1476
ag43
ag1477
ag43
aS'got'
p1482
aS'this'
p1483
aS'car'
p1484
aS'for'
p1485
aS'30'
p1486
aS'%'
p1487
aS'off'
p1488
aS'at'
p1489
ag347
aS'73'
p1490
asg20
(lp1491
g43
ag1482
ag1483
ag1484
ag1485
ag1486
ag1487
ag1488
ag1489
ag347
ag1490
asba(iMeme
Meme
p1492
(dp1493
g3
(lp1494
S'pot'
p1495
aS'is'
p1496
aS'bad'
p1497
asg11
S'pot is bad'
p1498
sg13
S' gets drunk every friday'
p1499
sg15
Vsheltered-suburban-kid
p1500
sg17
(lp1501
g1495
ag1496
ag1497
aS'gets'
p1502
aS'drunk'
p1503
aS'every'
p1504
aS'friday'
p1505
asg20
(lp1506
g1502
ag1503
ag1504
ag1505
asba(iMeme
Meme
p1507
(dp1508
g3
(lp1509
S'omg'
p1510
ag289
ag289
asg11
S'omg!!'
p1511
sg13
S' school serves lunch?'
p1512
sg15
Vsheltered-suburban-kid
p1513
sg17
(lp1514
g1510
ag289
ag289
aS'school'
p1515
aS'serves'
p1516
aS'lunch'
p1517
ag249
asg20
(lp1518
g1515
ag1516
ag1517
ag249
asba(iMeme
Meme
p1519
(dp1520
g3
(lp1521
S'after'
p1522
ag718
aS'mountain'
p1523
aS'dews'
p1524
asg11
S'after 3 mountain dews'
p1525
sg13
S' im a total spazz today!'
p1526
sg15
Vsheltered-suburban-kid
p1527
sg17
(lp1528
g1522
ag718
ag1523
ag1524
aS'im'
p1529
ag26
aS'total'
p1530
aS'spazz'
p1531
aS'today'
p1532
ag289
asg20
(lp1533
g1529
ag26
ag1530
ag1531
ag1532
ag289
asba(iMeme
Meme
p1534
(dp1535
g3
(lp1536
S'omg'
p1537
aS'hi'
p1538
aS'my'
p1539
aS'names'
p1540
aS'ashley'
p1541
ag289
asg11
S'omg hi my names ashley!'
p1542
sg13
S' is a guy in real life'
p1543
sg15
Vsheltered-suburban-kid
p1544
sg17
(lp1545
g1537
ag1538
ag1539
ag1540
ag1541
ag289
aS'is'
p1546
ag26
aS'guy'
p1547
aS'in'
p1548
aS'real'
p1549
aS'life'
p1550
asg20
(lp1551
g1546
ag26
ag1547
ag1548
ag1549
ag1550
asba(iMeme
Meme
p1552
(dp1553
g3
(lp1554
S'this'
p1555
aS'place'
p1556
aS'is'
p1557
aS'so'
p1558
aS'depressing'
p1559
asg11
S'this place is so depressing'
p1560
sg13
S' its wal'
p1561
sg15
Vsheltered-suburban-kid
p1562
sg17
(lp1563
g1555
ag1556
ag1557
ag1558
ag1559
aS'its'
p1564
aS'wal'
p1565
asg20
(lp1566
g1564
ag1565
asba(iMeme
Meme
p1567
(dp1568
g3
(lp1569
S'he'
p1570
aS'said'
p1571
aS'got'
p1572
aS'ta'
p1573
aS'sweet'
p1574
aS'new'
p1575
aS'ride'
p1576
asg11
S'he said gotta sweet new ride'
p1577
sg13
S' rolls up in a volkswagen'
p1578
sg15
Vsheltered-suburban-kid
p1579
sg17
(lp1580
g1570
ag1571
ag1572
ag1573
ag1574
ag1575
ag1576
aS'rolls'
p1581
aS'up'
p1582
aS'in'
p1583
ag26
aS'volkswagen'
p1584
asg20
(lp1585
g1581
ag1582
ag1583
ag26
ag1584
asba(iMeme
Meme
p1586
(dp1587
g3
(lp1588
S'fallujah'
p1589
ag249
asg11
S'fallujah?'
p1590
sg13
S' no thank you'
p1591
sg15
Vsheltered-suburban-kid
p1592
sg17
(lp1593
g1589
ag249
aS'no'
p1594
aS'thank'
p1595
aS'you'
p1596
asg20
(lp1597
g1594
ag1595
ag1596
asba(iMeme
Meme
p1598
(dp1599
g3
(lp1600
S'other'
p1601
aS'than'
p1602
aS'shopping'
p1603
ag249
asg11
S'other than shopping?'
p1604
sg13
S' what else is there to do?'
p1605
sg15
Vsheltered-suburban-kid
p1606
sg17
(lp1607
g1601
ag1602
ag1603
ag249
aS'what'
p1608
aS'else'
p1609
aS'is'
p1610
aS'there'
p1611
aS'to'
p1612
aS'do'
p1613
ag249
asg20
(lp1614
g1608
ag1609
ag1610
ag1611
ag1612
ag1613
ag249
asba(iMeme
Meme
p1615
(dp1616
g3
(lp1617
S'doesnt'
p1618
aS'know'
p1619
ag26
aS'damn'
p1620
aS'thing'
p1621
aS'about'
p1622
aS'drugs'
p1623
asg11
S'doesnt know a damn thing about drugs'
p1624
sg13
S' wants to be a counselor for addicts'
p1625
sg15
Vsheltered-suburban-kid
p1626
sg17
(lp1627
g1618
ag1619
ag26
ag1620
ag1621
ag1622
ag1623
aS'wants'
p1628
aS'to'
p1629
aS'be'
p1630
ag26
aS'counselor'
p1631
aS'for'
p1632
aS'addicts'
p1633
asg20
(lp1634
g1628
ag1629
ag1630
ag26
ag1631
ag1632
ag1633
asba(iMeme
Meme
p1635
(dp1636
g3
(lp1637
S'this'
p1638
aS'is'
p1639
aS'vicoden'
p1640
asg11
S'this is vicoden'
p1641
sg13
S' usually addicts dilute it and inject through a syringe'
p1642
sg15
Vsheltered-suburban-kid
p1643
sg17
(lp1644
g1638
ag1639
ag1640
aS'usually'
p1645
aS'addicts'
p1646
aS'dilute'
p1647
aS'it'
p1648
aS'and'
p1649
aS'inject'
p1650
aS'through'
p1651
ag26
aS'syringe'
p1652
asg20
(lp1653
g1645
ag1646
ag1647
ag1648
ag1649
ag1650
ag1651
ag26
ag1652
asba(iMeme
Meme
p1654
(dp1655
g3
(lp1656
S'daddy'
p1657
aS'could'
p1658
aS'only'
p1659
aS'get'
p1660
aS'me'
p1661
ag26
aS'seat'
p1662
aS'in'
p1663
aS'coach'
p1664
asg11
S'daddy could only get me a seat in coach'
p1665
sg13
S' im going to die'
p1666
sg15
Vsheltered-suburban-kid
p1667
sg17
(lp1668
g1657
ag1658
ag1659
ag1660
ag1661
ag26
ag1662
ag1663
ag1664
aS'im'
p1669
aS'going'
p1670
aS'to'
p1671
aS'die'
p1672
asg20
(lp1673
g1669
ag1670
ag1671
ag1672
asba(iMeme
Meme
p1674
(dp1675
g3
(lp1676
S'ive'
p1677
aS'only'
p1678
aS'slept'
p1679
aS'with'
p1680
ag590
aS'guys'
p1681
asg11
S'ive only slept with 2 guys'
p1682
sg13
S' given dozens blowjobs'
p1683
sg15
Vsheltered-suburban-kid
p1684
sg17
(lp1685
g1677
ag1678
ag1679
ag1680
ag590
ag1681
aS'given'
p1686
aS'dozens'
p1687
aS'blowjobs'
p1688
asg20
(lp1689
g1686
ag1687
ag1688
asba(iMeme
Meme
p1690
(dp1691
g3
(lp1692
S'turns'
p1693
aS'18'
p1694
asg11
S'turns 18'
p1695
sg13
S' family must be rich or they must hate me'
p1696
sg15
Vsheltered-suburban-kid
p1697
sg17
(lp1698
g1693
ag1694
aS'family'
p1699
aS'must'
p1700
aS'be'
p1701
aS'rich'
p1702
aS'or'
p1703
aS'they'
p1704
aS'must'
p1705
aS'hate'
p1706
aS'me'
p1707
asg20
(lp1708
g1699
ag1700
ag1701
ag1702
ag1703
ag1704
ag1705
ag1706
ag1707
asba(iMeme
Meme
p1709
(dp1710
g3
(lp1711
S'omg'
p1712
aS'skrillex'
p1713
asg11
S'omg skrillex'
p1714
sg13
S' hes such a good rapper'
p1715
sg15
Vsheltered-suburban-kid
p1716
sg17
(lp1717
g1712
ag1713
aS'hes'
p1718
aS'such'
p1719
ag26
aS'good'
p1720
aS'rapper'
p1721
asg20
(lp1722
g1718
ag1719
ag26
ag1720
ag1721
asba(iMeme
Meme
p1723
(dp1724
g3
(lp1725
g26
aS'job'
p1726
ag249
asg11
S'a job?'
p1727
sg13
S' daddy already has one of those.'
p1728
sg15
Vsheltered-suburban-kid
p1729
sg17
(lp1730
g26
ag1726
ag249
aS'daddy'
p1731
aS'already'
p1732
aS'has'
p1733
aS'one'
p1734
aS'of'
p1735
aS'those'
p1736
ag121
asg20
(lp1737
g1731
ag1732
ag1733
ag1734
ag1735
ag1736
ag121
asba(iMeme
Meme
p1738
(dp1739
g3
(lp1740
S'oh'
p1741
aS'look'
p1742
asg11
S'oh look'
p1743
sg13
S' the have hobos here'
p1744
sg15
Vsheltered-suburban-kid
p1745
sg17
(lp1746
g1741
ag1742
aS'the'
p1747
aS'have'
p1748
aS'hobos'
p1749
aS'here'
p1750
asg20
(lp1751
g1747
ag1748
ag1749
ag1750
asba(iMeme
Meme
p1752
(dp1753
g3
(lp1754
S'deanna'
p1755
ag43
aS'beg'
p1756
aS'you'
p1757
asg11
S'deanna i beg you'
p1758
sg13
S' please come on tuesday and i will treat you and simray to mcdonald'
p1759
sg15
Vsheltered-suburban-kid
p1760
sg17
(lp1761
g1755
ag43
ag1756
ag1757
aS'please'
p1762
aS'come'
p1763
aS'on'
p1764
aS'tuesday'
p1765
aS'and'
p1766
ag43
aS'will'
p1767
aS'treat'
p1768
aS'you'
p1769
aS'and'
p1770
aS'simray'
p1771
aS'to'
p1772
aS'mcdonald'
p1773
asg20
(lp1774
g1762
ag1763
ag1764
ag1765
ag1766
ag43
ag1767
ag1768
ag1769
ag1770
ag1771
ag1772
ag1773
asba(iMeme
Meme
p1775
(dp1776
g3
(lp1777
S'of'
p1778
aS'course'
p1779
ag43
aS'walked'
p1780
aS'out'
p1781
ag289
asg11
S'of course i walked out!'
p1782
sg13
S' he was darker than a paper bag!'
p1783
sg15
Vsheltered-suburban-kid
p1784
sg17
(lp1785
g1778
ag1779
ag43
ag1780
ag1781
ag289
aS'he'
p1786
aS'was'
p1787
aS'darker'
p1788
aS'than'
p1789
ag26
aS'paper'
p1790
aS'bag'
p1791
ag289
asg20
(lp1792
g1786
ag1787
ag1788
ag1789
ag26
ag1790
ag1791
ag289
asba(iMeme
Meme
p1793
(dp1794
g3
(lp1795
S'darfur'
p1796
ag249
asg11
S'darfur?'
p1797
sg13
S' im against fur'
p1798
sg15
Vsheltered-suburban-kid
p1799
sg17
(lp1800
g1796
ag249
aS'im'
p1801
aS'against'
p1802
aS'fur'
p1803
asg20
(lp1804
g1801
ag1802
ag1803
asba(iMeme
Meme
p1805
(dp1806
g3
(lp1807
S'im'
p1808
aS'not'
p1809
aS'racist'
p1810
asg11
S'im not racist'
p1811
sg13
S' im just culturally mal'
p1812
sg15
Vsheltered-suburban-kid
p1813
sg17
(lp1814
g1808
ag1809
ag1810
aS'im'
p1815
aS'just'
p1816
aS'culturally'
p1817
aS'mal'
p1818
asg20
(lp1819
g1815
ag1816
ag1817
ag1818
asba(iMeme
Meme
p1820
(dp1821
g3
(lp1822
S'yeah'
p1823
ag289
ag289
ag289
aS'going'
p1824
aS'to'
p1825
aS'europe'
p1826
aS'but..'
p1827
asg11
S'yeah !!! going to europe but..'
p1828
sg13
S' with no cell phone network'
p1829
sg15
Vsheltered-suburban-kid
p1830
sg17
(lp1831
g1823
ag289
ag289
ag289
ag1824
ag1825
ag1826
ag1827
aS'with'
p1832
aS'no'
p1833
aS'cell'
p1834
aS'phone'
p1835
aS'network'
p1836
asg20
(lp1837
g1832
ag1833
ag1834
ag1835
ag1836
asba(iMeme
Meme
p1838
(dp1839
g3
(lp1840
S'my'
p1841
aS'family'
p1842
aS'lost'
p1843
aS'everything'
p1844
aS'from'
p1845
aS'my'
p1846
aS'dads'
p1847
aS'addiction'
p1848
asg11
S'my family lost everything from my dads addiction'
p1849
sg13
S' cable shut off for three days'
p1850
sg15
Vsheltered-suburban-kid
p1851
sg17
(lp1852
g1841
ag1842
ag1843
ag1844
ag1845
ag1846
ag1847
ag1848
aS'cable'
p1853
aS'shut'
p1854
aS'off'
p1855
aS'for'
p1856
aS'three'
p1857
aS'days'
p1858
asg20
(lp1859
g1853
ag1854
ag1855
ag1856
ag1857
ag1858
asba(iMeme
Meme
p1860
(dp1861
g3
(lp1862
S'so'
p1863
ag43
aS'can'
p1864
aS'get'
p1865
aS'more'
p1866
aS'cash'
p1867
aS'back'
p1868
asg11
S'so i can get more cash back'
p1869
sg13
S' by activating the quarterly bonus?'
p1870
sg15
Vsheltered-suburban-kid
p1871
sg17
(lp1872
g1863
ag43
ag1864
ag1865
ag1866
ag1867
ag1868
aS'by'
p1873
aS'activating'
p1874
aS'the'
p1875
aS'quarterly'
p1876
aS'bonus'
p1877
ag249
asg20
(lp1878
g1873
ag1874
ag1875
ag1876
ag1877
ag249
asba(iMeme
Meme
p1879
(dp1880
g3
(lp1881
S'if'
p1882
ag43
aS'have'
p1883
aS'sex'
p1884
asg11
S'if i have sex'
p1885
sg13
S' ill get aids and then die'
p1886
sg15
Vsheltered-suburban-kid
p1887
sg17
(lp1888
g1882
ag43
ag1883
ag1884
aS'ill'
p1889
aS'get'
p1890
aS'aids'
p1891
aS'and'
p1892
aS'then'
p1893
aS'die'
p1894
asg20
(lp1895
g1889
ag1890
ag1891
ag1892
ag1893
ag1894
asba(iMeme
Meme
p1896
(dp1897
g3
(lp1898
g43
aS'applied'
p1899
aS'to'
p1900
aS'harvard'
p1901
asg11
S'i applied to harvard'
p1902
sg13
S' yale'
p1903
sg15
Vsheltered-suburban-kid
p1904
sg17
(lp1905
g43
ag1899
ag1900
ag1901
aS'yale'
p1906
asg20
(lp1907
g1906
asba(iMeme
Meme
p1908
(dp1909
g3
(lp1910
S'you'
p1911
aS'mean'
p1912
ag43
aS'can'
p1913
aS'get'
p1914
aS'more'
p1915
aS'points'
p1916
asg11
S'you mean i can get more points'
p1917
sg13
S' by activating the quarterly bonus'
p1918
sg15
Vsheltered-suburban-kid
p1919
sg17
(lp1920
g1911
ag1912
ag43
ag1913
ag1914
ag1915
ag1916
aS'by'
p1921
aS'activating'
p1922
aS'the'
p1923
aS'quarterly'
p1924
aS'bonus'
p1925
asg20
(lp1926
g1921
ag1922
ag1923
ag1924
ag1925
asba(iMeme
Meme
p1927
(dp1928
g3
(lp1929
S'like'
p1930
aS'omg'
p1931
asg11
S'like omg'
p1932
sg13
S' i didnt know cars need oil?'
p1933
sg15
Vsheltered-suburban-kid
p1934
sg17
(lp1935
g1930
ag1931
ag43
aS'didnt'
p1936
aS'know'
p1937
aS'cars'
p1938
aS'need'
p1939
aS'oil'
p1940
ag249
asg20
(lp1941
g43
ag1936
ag1937
ag1938
ag1939
ag1940
ag249
asba(iMeme
Meme
p1942
(dp1943
g3
(lp1944
S'goes'
p1945
aS'to'
p1946
aS'nebraska'
p1947
asg11
S'goes to nebraska'
p1948
sg13
S' starts every sentence with back in california'
p1949
sg15
Vsheltered-suburban-kid
p1950
sg17
(lp1951
g1945
ag1946
ag1947
aS'starts'
p1952
aS'every'
p1953
aS'sentence'
p1954
aS'with'
p1955
aS'back'
p1956
aS'in'
p1957
aS'california'
p1958
asg20
(lp1959
g1952
ag1953
ag1954
ag1955
ag1956
ag1957
ag1958
asba(iMeme
Meme
p1960
(dp1961
g3
(lp1962
S'your'
p1963
aS'cellphone'
p1964
aS'keeps'
p1965
aS'breaking'
p1966
ag249
asg11
S'your cellphone keeps breaking?'
p1967
sg13
S' why dont you just buy an iphone?'
p1968
sg15
Vsheltered-suburban-kid
p1969
sg17
(lp1970
g1963
ag1964
ag1965
ag1966
ag249
aS'why'
p1971
aS'dont'
p1972
aS'you'
p1973
aS'just'
p1974
aS'buy'
p1975
aS'an'
p1976
aS'iphone'
p1977
ag249
asg20
(lp1978
g1971
ag1972
ag1973
ag1974
ag1975
ag1976
ag1977
ag249
asba(iMeme
Meme
p1979
(dp1980
g3
(lp1981
S'omg'
p1982
ag43
aS'love'
p1983
aS'wonder'
p1984
aS'hitz'
p1985
asg11
S'omg i love wonder hitz'
p1986
sg13
S' doesnt listen to leo xan'
p1987
sg15
Vsheltered-suburban-kid
p1988
sg17
(lp1989
g1982
ag43
ag1983
ag1984
ag1985
aS'doesnt'
p1990
aS'listen'
p1991
aS'to'
p1992
aS'leo'
p1993
aS'xan'
p1994
asg20
(lp1995
g1990
ag1991
ag1992
ag1993
ag1994
asba.