(lp0
(iMeme
Meme
p1
(dp2
S'top_text'
p3
(lp4
S'you'
p5
aS'slipped'
p6
aS'something'
p7
aS'special'
p8
aS'in'
p9
aS'my'
p10
aS'drink'
p11
aS'for'
p12
aS'me'
p13
aS'?'
p14
asS'top_text_raw'
p15
S'you slipped something special in my drink for me?'
p16
sS'bottom_text_raw'
p17
S"aw thanks you're such a sweetheart"
p18
sS'meme_type'
p19
Vsheltered-college-freshman
p20
sS'all_text'
p21
(lp22
g5
ag6
ag7
ag8
ag9
ag10
ag11
ag12
ag13
ag14
aS'aw'
p23
aS'thanks'
p24
aS'you'
p25
aS"'re"
p26
aS'such'
p27
aS'a'
p28
aS'sweetheart'
p29
asS'bottom_text'
p30
(lp31
g23
ag24
ag25
ag26
ag27
ag28
ag29
asba(iMeme
Meme
p32
(dp33
g3
(lp34
S'freshman'
p35
aS'claims'
p36
aS'to'
p37
aS'be'
p38
ag28
aS'virgin'
p39
asg15
S'freshman claims to be a virgin'
p40
sg17
S'puts out on first night'
p41
sg19
Vsheltered-college-freshman
p42
sg21
(lp43
g35
ag36
ag37
ag38
ag28
ag39
aS'puts'
p44
aS'out'
p45
aS'on'
p46
aS'first'
p47
aS'night'
p48
asg30
(lp49
g44
ag45
ag46
ag47
ag48
asba(iMeme
Meme
p50
(dp51
g3
(lp52
S'i'
p53
aS"'m"
p54
aS'going'
p55
aS'to'
p56
aS'become'
p57
ag28
aS'doctor'
p58
asg15
S"i'm going to become a doctor"
p59
sg17
S'becomes a stripper'
p60
sg19
Vsheltered-college-freshman
p61
sg21
(lp62
g53
ag54
ag55
ag56
ag57
ag28
ag58
aS'becomes'
p63
ag28
aS'stripper'
p64
asg30
(lp65
g63
ag28
ag64
asba(iMeme
Meme
p66
(dp67
g3
(lp68
S'computer'
p69
aS'is'
p70
aS'broken'
p71
aS'again'
p72
asg15
S'computer is broken again'
p73
sg17
S'"i\'ll just let geek squad fix it for me"'
p74
sg19
Vsheltered-college-freshman
p75
sg21
(lp76
g69
ag70
ag71
ag72
aS'``'
p77
ag53
aS"'ll"
p78
aS'just'
p79
aS'let'
p80
aS'geek'
p81
aS'squad'
p82
aS'fix'
p83
aS'it'
p84
aS'for'
p85
aS'me'
p86
aS"''"
p87
asg30
(lp88
g77
ag53
ag78
ag79
ag80
ag81
ag82
ag83
ag84
ag85
ag86
ag87
asba(iMeme
Meme
p89
(dp90
g3
(lp91
S'roomies'
p92
aS'with'
p93
aS'bff'
p94
aS'from'
p95
aS'high'
p96
aS'school'
p97
asg15
S'roomies with bff from high school'
p98
sg17
S'hates the bitch in a week'
p99
sg19
Vsheltered-college-freshman
p100
sg21
(lp101
g92
ag93
ag94
ag95
ag96
ag97
aS'hates'
p102
aS'the'
p103
aS'bitch'
p104
aS'in'
p105
ag28
aS'week'
p106
asg30
(lp107
g102
ag103
ag104
ag105
ag28
ag106
asba(iMeme
Meme
p108
(dp109
g3
(lp110
S'just'
p111
aS'the'
p112
aS'tip'
p113
ag14
asg15
S'just the tip?'
p114
sg17
S"i guess it'd be fun to see how it feels"
p115
sg19
Vsheltered-college-freshman
p116
sg21
(lp117
g111
ag112
ag113
ag14
ag53
aS'guess'
p118
aS'it'
p119
aS"'d"
p120
aS'be'
p121
aS'fun'
p122
aS'to'
p123
aS'see'
p124
aS'how'
p125
aS'it'
p126
aS'feels'
p127
asg30
(lp128
g53
ag118
ag119
ag120
ag121
ag122
ag123
ag124
ag125
ag126
ag127
asba(iMeme
Meme
p129
(dp130
g3
(lp131
S'``'
p132
aS'you'
p133
aS'should'
p134
aS'really'
p135
aS'go'
p136
aS'to'
p137
aS'church'
p138
aS'and'
p139
aS'get'
p140
aS'to'
p141
aS'know'
p142
aS'jesus'
p143
aS"''"
p144
asg15
S'"you should really go to church and get to know jesus"'
p145
sg17
S"loves lil' wayne"
p146
sg19
Vsheltered-college-freshman
p147
sg21
(lp148
g132
ag133
ag134
ag135
ag136
ag137
ag138
ag139
ag140
ag141
ag142
ag143
ag144
aS'loves'
p149
aS'lil'
p150
aS"'"
p151
aS'wayne'
p152
asg30
(lp153
g149
ag150
ag151
ag152
asba(iMeme
Meme
p154
(dp155
g3
(lp156
S'is'
p157
ag28
aS'virgin'
p158
asg15
S'is a virgin'
p159
sg17
S'brags about it'
p160
sg19
Vsheltered-college-freshman
p161
sg21
(lp162
g157
ag28
ag158
aS'brags'
p163
aS'about'
p164
aS'it'
p165
asg30
(lp166
g163
ag164
ag165
asba(iMeme
Meme
p167
(dp168
g3
(lp169
S'does'
p170
aS"n't"
p171
aS'believe'
p172
aS'in'
p173
aS'unicorns'
p174
asg15
S"doesn't believe in unicorns"
p175
sg17
S'believes in god'
p176
sg19
Vsheltered-college-freshman
p177
sg21
(lp178
g170
ag171
ag172
ag173
ag174
aS'believes'
p179
aS'in'
p180
aS'god'
p181
asg30
(lp182
g179
ag180
ag181
asba(iMeme
Meme
p183
(dp184
g3
(lp185
S'accepts'
p186
aS'gifts'
p187
aS'and'
p188
aS'rides'
p189
aS'from'
p190
aS'guys'
p191
asg15
S'accepts gifts and rides from guys'
p192
sg17
S'friend zones everyone'
p193
sg19
Vsheltered-college-freshman
p194
sg21
(lp195
g186
ag187
ag188
ag189
ag190
ag191
aS'friend'
p196
aS'zones'
p197
aS'everyone'
p198
asg30
(lp199
g196
ag197
ag198
asba(iMeme
Meme
p200
(dp201
g3
(lp202
S'why'
p203
aS'are'
p204
aS'all'
p205
aS'these'
p206
aS'boys'
p207
aS'asking'
p208
aS'me'
p209
aS'if'
p210
ag53
aS"'m"
p211
aS'``'
p212
aS'dtf'
p213
aS"''"
p214
ag14
asg15
S'why are all these boys asking me if i\'m "dtf"?'
p215
sg17
S'omg, i already have a nickname?'
p216
sg19
Vsheltered-college-freshman
p217
sg21
(lp218
g203
ag204
ag205
ag206
ag207
ag208
ag209
ag210
ag53
ag211
ag212
ag213
ag214
ag14
aS'omg'
p219
aS','
p220
ag53
aS'already'
p221
aS'have'
p222
ag28
aS'nickname'
p223
ag14
asg30
(lp224
g219
ag220
ag53
ag221
ag222
ag28
ag223
ag14
asba(iMeme
Meme
p225
(dp226
g3
(lp227
S'goes'
p228
aS'to'
p229
aS'frat'
p230
aS'party'
p231
asg15
S'goes to frat party'
p232
sg17
S'"why does everyone here find me so interesting?"'
p233
sg19
Vsheltered-college-freshman
p234
sg21
(lp235
g228
ag229
ag230
ag231
aS'``'
p236
aS'why'
p237
aS'does'
p238
aS'everyone'
p239
aS'here'
p240
aS'find'
p241
aS'me'
p242
aS'so'
p243
aS'interesting'
p244
ag14
aS"''"
p245
asg30
(lp246
g236
ag237
ag238
ag239
ag240
ag241
ag242
ag243
ag244
ag14
ag245
asba(iMeme
Meme
p247
(dp248
g3
(lp249
S'you'
p250
aS'want'
p251
aS'to'
p252
aS'give'
p253
aS'me'
p254
ag28
aS'pearl'
p255
aS'necklace'
p256
ag14
asg15
S'you want to give me a pearl necklace?'
p257
sg17
S'wow, you are so nice!'
p258
sg19
Vsheltered-college-freshman
p259
sg21
(lp260
g250
ag251
ag252
ag253
ag254
ag28
ag255
ag256
ag14
aS'wow'
p261
ag220
aS'you'
p262
aS'are'
p263
aS'so'
p264
aS'nice'
p265
aS'!'
p266
asg30
(lp267
g261
ag220
ag262
ag263
ag264
ag265
ag266
asba(iMeme
Meme
p268
(dp269
g3
(lp270
S'ca'
p271
aS"n't"
p272
aS'wait'
p273
aS'to'
p274
aS'move'
p275
aS'away'
p276
aS'for'
p277
aS'college'
p278
asg15
S"can't wait to move away for college"
p279
sg17
S'goes back home every weekend for the first two months'
p280
sg19
Vsheltered-college-freshman
p281
sg21
(lp282
g271
ag272
ag273
ag274
ag275
ag276
ag277
ag278
aS'goes'
p283
aS'back'
p284
aS'home'
p285
aS'every'
p286
aS'weekend'
p287
aS'for'
p288
aS'the'
p289
aS'first'
p290
aS'two'
p291
aS'months'
p292
asg30
(lp293
g283
ag284
ag285
ag286
ag287
ag288
ag289
ag290
ag291
ag292
asba(iMeme
Meme
p294
(dp295
g3
(lp296
S'threeway'
p297
ag14
asg15
S'threeway?'
p298
sg17
S"i don't think my phone has that capability"
p299
sg19
Vsheltered-college-freshman
p300
sg21
(lp301
g297
ag14
ag53
aS'do'
p302
aS"n't"
p303
aS'think'
p304
aS'my'
p305
aS'phone'
p306
aS'has'
p307
aS'that'
p308
aS'capability'
p309
asg30
(lp310
g53
ag302
ag303
ag304
ag305
ag306
ag307
ag308
ag309
asba(iMeme
Meme
p311
(dp312
g3
(lp313
S'``'
p314
ag53
aS'do'
p315
aS"n't"
p316
aS'need'
p317
aS'drugs'
p318
aS'to'
p319
aS'feel'
p320
aS'good'
p321
aS"''"
p322
asg15
S'"i don\'t need drugs to feel good"'
p323
sg17
S'takes zoloft'
p324
sg19
Vsheltered-college-freshman
p325
sg21
(lp326
g314
ag53
ag315
ag316
ag317
ag318
ag319
ag320
ag321
ag322
aS'takes'
p327
aS'zoloft'
p328
asg30
(lp329
g327
ag328
asba(iMeme
Meme
p330
(dp331
g3
(lp332
S'so'
p333
aS'your'
p334
aS'parents'
p335
aS'dont'
p336
aS'pay'
p337
aS'for'
p338
aS'everything'
p339
ag14
asg15
S'so your parents dont pay for everything?'
p340
sg17
S'wow'
p341
sg19
Vsheltered-college-freshman
p342
sg21
(lp343
g333
ag334
ag335
ag336
ag337
ag338
ag339
ag14
aS'wow'
p344
asg30
(lp345
g344
asba(iMeme
Meme
p346
(dp347
g3
(lp348
S'no'
p349
aS'sex'
p350
aS'before'
p351
aS'marriage'
p352
asg15
S'no sex before marriage'
p353
sg17
S'does anal'
p354
sg19
Vsheltered-college-freshman
p355
sg21
(lp356
g349
ag350
ag351
ag352
aS'does'
p357
aS'anal'
p358
asg30
(lp359
g357
ag358
asba(iMeme
Meme
p360
(dp361
g3
(lp362
S'sheltered'
p363
aS'in'
p364
aS'high'
p365
aS'school'
p366
asg15
S'sheltered in high school'
p367
sg17
S'first week of college, gets wasted and sleeps with 7 different people'
p368
sg19
Vsheltered-college-freshman
p369
sg21
(lp370
g363
ag364
ag365
ag366
aS'first'
p371
aS'week'
p372
aS'of'
p373
aS'college'
p374
ag220
aS'gets'
p375
aS'wasted'
p376
aS'and'
p377
aS'sleeps'
p378
aS'with'
p379
aS'7'
p380
aS'different'
p381
aS'people'
p382
asg30
(lp383
g371
ag372
ag373
ag374
ag220
ag375
ag376
ag377
ag378
ag379
ag380
ag381
ag382
asba(iMeme
Meme
p384
(dp385
g3
(lp386
S'grinds'
p387
aS'up'
p388
aS'on'
p389
aS'your'
p390
aS'crotch'
p391
aS'on'
p392
aS'the'
p393
aS'dance'
p394
aS'floor'
p395
aS'all'
p396
aS'night'
p397
aS'...'
p398
asg15
S'grinds up on your crotch on the dance floor all night...'
p399
sg17
S'"sorry, i have a boyfriend"'
p400
sg19
Vsheltered-college-freshman
p401
sg21
(lp402
g387
ag388
ag389
ag390
ag391
ag392
ag393
ag394
ag395
ag396
ag397
ag398
aS'``'
p403
aS'sorry'
p404
ag220
ag53
aS'have'
p405
ag28
aS'boyfriend'
p406
aS"''"
p407
asg30
(lp408
g403
ag404
ag220
ag53
ag405
ag28
ag406
ag407
asba(iMeme
Meme
p409
(dp410
g3
(lp411
S'wan'
p412
aS'na'
p413
aS'smoke'
p414
ag28
aS'bowl'
p415
ag14
asg15
S'wanna smoke a bowl?'
p416
sg17
S"lol that's silly, you can't smoke a bowl"
p417
sg19
Vsheltered-college-freshman
p418
sg21
(lp419
g412
ag413
ag414
ag28
ag415
ag14
aS'lol'
p420
aS'that'
p421
aS"'s"
p422
aS'silly'
p423
ag220
aS'you'
p424
aS'ca'
p425
aS"n't"
p426
aS'smoke'
p427
ag28
aS'bowl'
p428
asg30
(lp429
g420
ag421
ag422
ag423
ag220
ag424
ag425
ag426
ag427
ag28
ag428
asba(iMeme
Meme
p430
(dp431
g3
(lp432
S'pot'
p433
aS'is'
p434
ag28
aS'horrible'
p435
aS'life'
p436
aS'ruining'
p437
aS'drug'
p438
asg15
S'pot is a horrible life ruining drug'
p439
sg17
S'thinks alcohol is not a drug'
p440
sg19
Vsheltered-college-freshman
p441
sg21
(lp442
g433
ag434
ag28
ag435
ag436
ag437
ag438
aS'thinks'
p443
aS'alcohol'
p444
aS'is'
p445
aS'not'
p446
ag28
aS'drug'
p447
asg30
(lp448
g443
ag444
ag445
ag446
ag28
ag447
asba(iMeme
Meme
p449
(dp450
g3
(lp451
S'tea'
p452
aS'bag'
p453
ag14
asg15
S'tea bag?'
p454
sg17
S'no thanks,i drink coffee.'
p455
sg19
Vsheltered-college-freshman
p456
sg21
(lp457
g452
ag453
ag14
aS'no'
p458
aS'thanks'
p459
ag220
ag53
aS'drink'
p460
aS'coffee'
p461
aS'.'
p462
asg30
(lp463
g458
ag459
ag220
ag53
ag460
ag461
ag462
asba(iMeme
Meme
p464
(dp465
g3
(lp466
g28
aS'creampie'
p467
ag14
asg15
S'a creampie?'
p468
sg17
S'why yes i would love a cream-pie!'
p469
sg19
Vsheltered-college-freshman
p470
sg21
(lp471
g28
ag467
ag14
aS'why'
p472
aS'yes'
p473
ag53
aS'would'
p474
aS'love'
p475
ag28
aS'cream-pie'
p476
ag266
asg30
(lp477
g472
ag473
ag53
ag474
ag475
ag28
ag476
ag266
asba(iMeme
Meme
p478
(dp479
g3
(lp480
S'what'
p481
aS"'s"
p482
aS'jungle'
p483
aS'juice'
p484
ag14
aS'that'
p485
aS'sounds'
p486
aS'fun'
p487
asg15
S"what's jungle juice? that sounds fun"
p488
sg17
S'alcohol poisoning'
p489
sg19
Vsheltered-college-freshman
p490
sg21
(lp491
g481
ag482
ag483
ag484
ag14
ag485
ag486
ag487
aS'alcohol'
p492
aS'poisoning'
p493
asg30
(lp494
g492
ag493
asba(iMeme
Meme
p495
(dp496
g3
(lp497
S'says'
p498
aS'ents'
p499
aS'are'
p500
aS'stupid'
p501
asg15
S'says ents are stupid'
p502
sg17
S'gets drunk every weekend'
p503
sg19
Vsheltered-college-freshman
p504
sg21
(lp505
g498
ag499
ag500
ag501
aS'gets'
p506
aS'drunk'
p507
aS'every'
p508
aS'weekend'
p509
asg30
(lp510
g506
ag507
ag508
ag509
asba(iMeme
Meme
p511
(dp512
g3
(lp513
S'girl'
p514
aS'in'
p515
aS'high'
p516
aS'school'
p517
aS'who'
p518
aS'would'
p519
aS"n't"
p520
aS'have'
p521
aS'sex'
p522
aS'because'
p523
aS'she'
p524
aS'was'
p525
aS'saving'
p526
aS'herself'
p527
asg15
S"girl in high school who wouldn't have sex because she was saving herself"
p528
sg17
S'has sex with 27 guys in college'
p529
sg19
Vsheltered-college-freshman
p530
sg21
(lp531
g514
ag515
ag516
ag517
ag518
ag519
ag520
ag521
ag522
ag523
ag524
ag525
ag526
ag527
aS'has'
p532
aS'sex'
p533
aS'with'
p534
aS'27'
p535
aS'guys'
p536
aS'in'
p537
aS'college'
p538
asg30
(lp539
g532
ag533
ag534
ag535
ag536
ag537
ag538
asba(iMeme
Meme
p540
(dp541
g3
(lp542
S'says'
p543
aS'weed'
p544
aS'is'
p545
aS'dangerous'
p546
asg15
S'says weed is dangerous'
p547
sg17
S"smokes cigarettes, drinks every weekend and takes 2 advils and 1 tylenol when she's in pain."
p548
sg19
Vsheltered-college-freshman
p549
sg21
(lp550
g543
ag544
ag545
ag546
aS'smokes'
p551
aS'cigarettes'
p552
ag220
aS'drinks'
p553
aS'every'
p554
aS'weekend'
p555
aS'and'
p556
aS'takes'
p557
aS'2'
p558
aS'advils'
p559
aS'and'
p560
aS'1'
p561
aS'tylenol'
p562
aS'when'
p563
aS'she'
p564
aS"'s"
p565
aS'in'
p566
aS'pain'
p567
ag462
asg30
(lp568
g551
ag552
ag220
ag553
ag554
ag555
ag556
ag557
ag558
ag559
ag560
ag561
ag562
ag563
ag564
ag565
ag566
ag567
ag462
asba(iMeme
Meme
p569
(dp570
g3
(lp571
S'facial'
p572
ag14
asg15
S'facial?'
p573
sg17
S'you give spa treatments in your dorm room?'
p574
sg19
Vsheltered-college-freshman
p575
sg21
(lp576
g572
ag14
aS'you'
p577
aS'give'
p578
aS'spa'
p579
aS'treatments'
p580
aS'in'
p581
aS'your'
p582
aS'dorm'
p583
aS'room'
p584
ag14
asg30
(lp585
g577
ag578
ag579
ag580
ag581
ag582
ag583
ag584
ag14
asba(iMeme
Meme
p586
(dp587
g3
(lp588
S'high'
p589
aS'school'
p590
aS'band'
p591
aS'geek'
p592
asg15
S'high school band geek'
p593
sg17
S'college blowjob queen'
p594
sg19
Vsheltered-college-freshman
p595
sg21
(lp596
g589
ag590
ag591
ag592
aS'college'
p597
aS'blowjob'
p598
aS'queen'
p599
asg30
(lp600
g597
ag598
ag599
asba(iMeme
Meme
p601
(dp602
g3
(lp603
S'frat'
p604
aS'guy'
p605
aS'says'
p606
aS'he'
p607
aS'wants'
p608
aS'to'
p609
aS'borrow'
p610
aS'my'
p611
aS'underwear'
p612
aS'for'
p613
aS'an'
p614
aS'hour'
p615
asg15
S'frat guy says he wants to borrow my underwear for an hour'
p616
sg17
S"what's a guy going to do with a pair of lace panties? lol!"
p617
sg19
Vsheltered-college-freshman
p618
sg21
(lp619
g604
ag605
ag606
ag607
ag608
ag609
ag610
ag611
ag612
ag613
ag614
ag615
aS'what'
p620
aS"'s"
p621
ag28
aS'guy'
p622
aS'going'
p623
aS'to'
p624
aS'do'
p625
aS'with'
p626
ag28
aS'pair'
p627
aS'of'
p628
aS'lace'
p629
aS'panties'
p630
ag14
aS'lol'
p631
ag266
asg30
(lp632
g620
ag621
ag28
ag622
ag623
ag624
ag625
ag626
ag28
ag627
ag628
ag629
ag630
ag14
ag631
ag266
asba(iMeme
Meme
p633
(dp634
g3
(lp635
S'looks'
p636
aS'up'
p637
aS'textbook'
p638
aS'information'
p639
asg15
S'looks up textbook information'
p640
sg17
S'actually buys all required texts'
p641
sg19
Vsheltered-college-freshman
p642
sg21
(lp643
g636
ag637
ag638
ag639
aS'actually'
p644
aS'buys'
p645
aS'all'
p646
aS'required'
p647
aS'texts'
p648
asg30
(lp649
g644
ag645
ag646
ag647
ag648
asba(iMeme
Meme
p650
(dp651
g3
(lp652
S'the'
p653
aS'worship'
p654
aS'team'
p655
aS'used'
p656
aS'the'
p657
aS'sloppy'
p658
aS'wet'
p659
aS'kiss'
p660
aS'line'
p661
aS'...'
p662
asg15
S'the worship team used the sloppy wet kiss line...'
p663
sg17
S'they need to be less worldly and sexually explicit.'
p664
sg19
Vsheltered-college-freshman
p665
sg21
(lp666
g653
ag654
ag655
ag656
ag657
ag658
ag659
ag660
ag661
ag662
aS'they'
p667
aS'need'
p668
aS'to'
p669
aS'be'
p670
aS'less'
p671
aS'worldly'
p672
aS'and'
p673
aS'sexually'
p674
aS'explicit'
p675
ag462
asg30
(lp676
g667
ag668
ag669
ag670
ag671
ag672
ag673
ag674
ag675
ag462
asba(iMeme
Meme
p677
(dp678
g3
(lp679
S'golden'
p680
aS'shower'
p681
ag14
asg15
S'golden shower?'
p682
sg17
S'wow,that must be expensive'
p683
sg19
Vsheltered-college-freshman
p684
sg21
(lp685
g680
ag681
ag14
aS'wow'
p686
ag220
aS'that'
p687
aS'must'
p688
aS'be'
p689
aS'expensive'
p690
asg30
(lp691
g686
ag220
ag687
ag688
ag689
ag690
asba(iMeme
Meme
p692
(dp693
g3
(lp694
S'bc'
p695
aS'offsets'
p696
aS'cycles'
p697
ag462
asg15
S'bc offsets cycles.'
p698
sg17
S'pregnancy scare every month.'
p699
sg19
Vsheltered-college-freshman
p700
sg21
(lp701
g695
ag696
ag697
ag462
aS'pregnancy'
p702
aS'scare'
p703
aS'every'
p704
aS'month'
p705
ag462
asg30
(lp706
g702
ag703
ag704
ag705
ag462
asba(iMeme
Meme
p707
(dp708
g3
(lp709
S'sleeps'
p710
aS'around'
p711
aS'indiscriminately'
p712
ag462
asg15
S'sleeps around indiscriminately.'
p713
sg17
S'pregnancy scare every month.'
p714
sg19
Vsheltered-college-freshman
p715
sg21
(lp716
g710
ag711
ag712
ag462
aS'pregnancy'
p717
aS'scare'
p718
aS'every'
p719
aS'month'
p720
ag462
asg30
(lp721
g717
ag718
ag719
ag720
ag462
asba(iMeme
Meme
p722
(dp723
g3
(lp724
S'gets'
p725
aS'trashed'
p726
aS'at'
p727
aS'party'
p728
asg15
S'gets trashed at party'
p729
sg17
S'turns everyone in to student development'
p730
sg19
Vsheltered-college-freshman
p731
sg21
(lp732
g725
ag726
ag727
ag728
aS'turns'
p733
aS'everyone'
p734
aS'in'
p735
aS'to'
p736
aS'student'
p737
aS'development'
p738
asg30
(lp739
g733
ag734
ag735
ag736
ag737
ag738
asba(iMeme
Meme
p740
(dp741
g3
(lp742
S'gets'
p743
aS'dumped'
p744
aS'on'
p745
ag28
aS'second'
p746
aS'date'
p747
ag462
asg15
S'gets dumped on a second date.'
p748
sg17
S'ponders a life of spiritual abstinence.'
p749
sg19
Vsheltered-college-freshman
p750
sg21
(lp751
g743
ag744
ag745
ag28
ag746
ag747
ag462
aS'ponders'
p752
ag28
aS'life'
p753
aS'of'
p754
aS'spiritual'
p755
aS'abstinence'
p756
ag462
asg30
(lp757
g752
ag28
ag753
ag754
ag755
ag756
ag462
asba(iMeme
Meme
p758
(dp759
g3
(lp760
S'gets'
p761
aS'dumped'
p762
aS'on'
p763
ag28
aS'second'
p764
aS'date'
p765
ag462
asg15
S'gets dumped on a second date.'
p766
sg17
S'ponders a life of spiritual abstinence.'
p767
sg19
Vsheltered-college-freshman
p768
sg21
(lp769
g761
ag762
ag763
ag28
ag764
ag765
ag462
aS'ponders'
p770
ag28
aS'life'
p771
aS'of'
p772
aS'spiritual'
p773
aS'abstinence'
p774
ag462
asg30
(lp775
g770
ag28
ag771
ag772
ag773
ag774
ag462
asba(iMeme
Meme
p776
(dp777
g3
(lp778
S'``'
p779
aS'yeah'
p780
ag53
aS'smoke'
p781
aS'weed'
p782
aS"''"
p783
asg15
S'"yeah i smoke weed"'
p784
sg17
S'swallows the smoke'
p785
sg19
Vsheltered-college-freshman
p786
sg21
(lp787
g779
ag780
ag53
ag781
ag782
ag783
aS'swallows'
p788
aS'the'
p789
aS'smoke'
p790
asg30
(lp791
g788
ag789
ag790
asba(iMeme
Meme
p792
(dp793
g3
(lp794
S'thinks'
p795
aS'state'
p796
aS'kids'
p797
aS'are'
p798
aS'less'
p799
aS'intelligent'
p800
asg15
S'thinks state kids are less intelligent'
p801
sg17
S'is retarded'
p802
sg19
Vsheltered-college-freshman
p803
sg21
(lp804
g795
ag796
ag797
ag798
ag799
ag800
aS'is'
p805
aS'retarded'
p806
asg30
(lp807
g805
ag806
asba(iMeme
Meme
p808
(dp809
g3
(lp810
S'``'
p811
ag53
aS"'m"
p812
aS'not'
p813
aS'sure'
p814
aS'greek'
p815
aS'life'
p816
aS'is'
p817
aS'right'
p818
aS'for'
p819
aS'me'
p820
ag462
aS"''"
p821
asg15
S'"i\'m not sure greek life is right for me."'
p822
sg17
S'rushes in the spring and becomes tryhard sorority girl'
p823
sg19
Vsheltered-college-freshman
p824
sg21
(lp825
g811
ag53
ag812
ag813
ag814
ag815
ag816
ag817
ag818
ag819
ag820
ag462
ag821
aS'rushes'
p826
aS'in'
p827
aS'the'
p828
aS'spring'
p829
aS'and'
p830
aS'becomes'
p831
aS'tryhard'
p832
aS'sorority'
p833
aS'girl'
p834
asg30
(lp835
g826
ag827
ag828
ag829
ag830
ag831
ag832
ag833
ag834
asba(iMeme
Meme
p836
(dp837
g3
(lp838
S'some'
p839
aS'people'
p840
aS'live'
p841
aS'on'
p842
aS'less'
p843
aS'than'
p844
aS'$'
p845
ag561
ag28
aS'day'
p846
ag14
asg15
S'some people live on less than $1 a day?'
p847
sg17
S"omg! that's so cheap!"
p848
sg19
Vsheltered-college-freshman
p849
sg21
(lp850
g839
ag840
ag841
ag842
ag843
ag844
ag845
ag561
ag28
ag846
ag14
aS'omg'
p851
ag266
aS'that'
p852
aS"'s"
p853
aS'so'
p854
aS'cheap'
p855
ag266
asg30
(lp856
g851
ag266
ag852
ag853
ag854
ag855
ag266
asba(iMeme
Meme
p857
(dp858
g3
(lp859
S'secular'
p860
aS'student'
p861
aS'alliance'
p862
ag14
asg15
S'secular student alliance?'
p863
sg17
S'does that mean they worship the devil?'
p864
sg19
Vsheltered-college-freshman
p865
sg21
(lp866
g860
ag861
ag862
ag14
aS'does'
p867
aS'that'
p868
aS'mean'
p869
aS'they'
p870
aS'worship'
p871
aS'the'
p872
aS'devil'
p873
ag14
asg30
(lp874
g867
ag868
ag869
ag870
ag871
ag872
ag873
ag14
asba(iMeme
Meme
p875
(dp876
g3
(lp877
S'``'
p878
aS'im'
p879
aS'so'
p880
aS'considerate'
p881
aS'of'
p882
aS'others'
p883
aS"''"
p884
asg15
S'"im so considerate of others"'
p885
sg17
S'sits at library computer with laptop'
p886
sg19
Vsheltered-college-freshman
p887
sg21
(lp888
g878
ag879
ag880
ag881
ag882
ag883
ag884
aS'sits'
p889
aS'at'
p890
aS'library'
p891
aS'computer'
p892
aS'with'
p893
aS'laptop'
p894
asg30
(lp895
g889
ag890
ag891
ag892
ag893
ag894
asba(iMeme
Meme
p896
(dp897
g3
(lp898
S'``'
p899
aS'im'
p900
aS'so'
p901
aS'considerate'
p902
aS'of'
p903
aS'others'
p904
aS"''"
p905
asg15
S'"im so considerate of others"'
p906
sg17
S'sits at library computer with laptop'
p907
sg19
Vsheltered-college-freshman
p908
sg21
(lp909
g899
ag900
ag901
ag902
ag903
ag904
ag905
aS'sits'
p910
aS'at'
p911
aS'library'
p912
aS'computer'
p913
aS'with'
p914
aS'laptop'
p915
asg30
(lp916
g910
ag911
ag912
ag913
ag914
ag915
asba(iMeme
Meme
p917
(dp918
g3
(lp919
S'does'
p920
aS"n't"
p921
aS'believe'
p922
aS'in'
p923
aS'abortion'
p924
asg15
S"doesn't believe in abortion"
p925
sg17
S'uses a clothes hangar'
p926
sg19
Vsheltered-college-freshman
p927
sg21
(lp928
g920
ag921
ag922
ag923
ag924
aS'uses'
p929
ag28
aS'clothes'
p930
aS'hangar'
p931
asg30
(lp932
g929
ag28
ag930
ag931
asba(iMeme
Meme
p933
(dp934
g3
(lp935
S'does'
p936
aS"n't"
p937
aS'like'
p938
aS'fast'
p939
aS'food'
p940
asg15
S"doesn't like fast food"
p941
sg17
S'because niggers work there'
p942
sg19
Vsheltered-college-freshman
p943
sg21
(lp944
g936
ag937
ag938
ag939
ag940
aS'because'
p945
aS'niggers'
p946
aS'work'
p947
aS'there'
p948
asg30
(lp949
g945
ag946
ag947
ag948
asba(iMeme
Meme
p950
(dp951
g3
(lp952
S'conversation'
p953
aS'starter'
p954
ag14
asg15
S'conversation starter?'
p955
sg17
S"what 's your major"
p956
sg19
Vsheltered-college-freshman
p957
sg21
(lp958
g953
ag954
ag14
aS'what'
p959
aS"'s"
p960
aS'your'
p961
aS'major'
p962
asg30
(lp963
g959
ag960
ag961
ag962
asba(iMeme
Meme
p964
(dp965
g3
(lp966
S'``'
p967
aS'weed'
p968
aS'is'
p969
aS'bad'
p970
aS'for'
p971
aS'you'
p972
ag266
aS"''"
p973
asg15
S'"weed is bad for you!"'
p974
sg17
S'*drinks until she blacks out and gets raped*'
p975
sg19
Vsheltered-college-freshman
p976
sg21
(lp977
g967
ag968
ag969
ag970
ag971
ag972
ag266
ag973
aS'*drinks'
p978
aS'until'
p979
aS'she'
p980
aS'blacks'
p981
aS'out'
p982
aS'and'
p983
aS'gets'
p984
aS'raped*'
p985
asg30
(lp986
g978
ag979
ag980
ag981
ag982
ag983
ag984
ag985
asba(iMeme
Meme
p987
(dp988
g3
(lp989
S'golden'
p990
aS'shower'
p991
ag14
asg15
S'golden shower?'
p992
sg17
S'wow, that must be expensive'
p993
sg19
Vsheltered-college-freshman
p994
sg21
(lp995
g990
ag991
ag14
aS'wow'
p996
ag220
aS'that'
p997
aS'must'
p998
aS'be'
p999
aS'expensive'
p1000
asg30
(lp1001
g996
ag220
ag997
ag998
ag999
ag1000
asba(iMeme
Meme
p1002
(dp1003
g3
(lp1004
S'``'
p1005
aS'why'
p1006
aS'am'
p1007
ag53
aS'so'
p1008
aS'nice'
p1009
aS'to'
p1010
aS'people'
p1011
aS"''"
p1012
asg15
S'"why am i so nice to people"'
p1013
sg17
S'sits at library computer with her laptop'
p1014
sg19
Vsheltered-college-freshman
p1015
sg21
(lp1016
g1005
ag1006
ag1007
ag53
ag1008
ag1009
ag1010
ag1011
ag1012
aS'sits'
p1017
aS'at'
p1018
aS'library'
p1019
aS'computer'
p1020
aS'with'
p1021
aS'her'
p1022
aS'laptop'
p1023
asg30
(lp1024
g1017
ag1018
ag1019
ag1020
ag1021
ag1022
ag1023
asba(iMeme
Meme
p1025
(dp1026
g3
(lp1027
S'gets'
p1028
aS'dumped'
p1029
aS'on'
p1030
aS'their'
p1031
aS'second'
p1032
aS'date'
p1033
ag462
asg15
S'gets dumped on their second date.'
p1034
sg17
S'ponders a life of spiritual abstinence.'
p1035
sg19
Vsheltered-college-freshman
p1036
sg21
(lp1037
g1028
ag1029
ag1030
ag1031
ag1032
ag1033
ag462
aS'ponders'
p1038
ag28
aS'life'
p1039
aS'of'
p1040
aS'spiritual'
p1041
aS'abstinence'
p1042
ag462
asg30
(lp1043
g1038
ag28
ag1039
ag1040
ag1041
ag1042
ag462
asba(iMeme
Meme
p1044
(dp1045
g3
(lp1046
S'never'
p1047
aS'skips'
p1048
asg15
S'never skips'
p1049
sg17
S'brags about it'
p1050
sg19
Vsheltered-college-freshman
p1051
sg21
(lp1052
g1047
ag1048
aS'brags'
p1053
aS'about'
p1054
aS'it'
p1055
asg30
(lp1056
g1053
ag1054
ag1055
asba(iMeme
Meme
p1057
(dp1058
g3
(lp1059
S'girl'
p1060
aS'in'
p1061
aS'high'
p1062
aS'school'
p1063
aS'who'
p1064
aS'called'
p1065
aS'girls'
p1066
aS'who'
p1067
aS'showed'
p1068
ag28
aS'little'
p1069
aS'too'
p1070
aS'much'
p1071
aS'sluts'
p1072
asg15
S'girl in high school who called girls who showed a little too much sluts'
p1073
sg17
S'goes to college and has a shit ton of one night stands.'
p1074
sg19
Vsheltered-college-freshman
p1075
sg21
(lp1076
g1060
ag1061
ag1062
ag1063
ag1064
ag1065
ag1066
ag1067
ag1068
ag28
ag1069
ag1070
ag1071
ag1072
aS'goes'
p1077
aS'to'
p1078
aS'college'
p1079
aS'and'
p1080
aS'has'
p1081
ag28
aS'shit'
p1082
aS'ton'
p1083
aS'of'
p1084
aS'one'
p1085
aS'night'
p1086
aS'stands'
p1087
ag462
asg30
(lp1088
g1077
ag1078
ag1079
ag1080
ag1081
ag28
ag1082
ag1083
ag1084
ag1085
ag1086
ag1087
ag462
asba(iMeme
Meme
p1089
(dp1090
g3
(lp1091
S'got'
p1092
aS'an'
p1093
aS'a+'
p1094
asg15
S'got an a+'
p1095
sg17
S'in sex ed'
p1096
sg19
Vsheltered-college-freshman
p1097
sg21
(lp1098
g1092
ag1093
ag1094
aS'in'
p1099
aS'sex'
p1100
aS'ed'
p1101
asg30
(lp1102
g1099
ag1100
ag1101
asba(iMeme
Meme
p1103
(dp1104
g3
(lp1105
S'entra'
p1106
aS'no'
p1107
aS'ensino'
p1108
aS'superior'
p1109
asg15
S'entra no ensino superior'
p1110
sg17
S'fica logo a ter problemas nas costas e nos joelhos'
p1111
sg19
Vsheltered-college-freshman
p1112
sg21
(lp1113
g1106
ag1107
ag1108
ag1109
aS'fica'
p1114
aS'logo'
p1115
ag28
aS'ter'
p1116
aS'problemas'
p1117
aS'nas'
p1118
aS'costas'
p1119
aS'e'
p1120
aS'nos'
p1121
aS'joelhos'
p1122
asg30
(lp1123
g1114
ag1115
ag28
ag1116
ag1117
ag1118
ag1119
ag1120
ag1121
ag1122
asba(iMeme
Meme
p1124
(dp1125
g3
(lp1126
S'liberals'
p1127
aS'lied'
p1128
ag220
aS'your'
p1129
aS'fine'
p1130
aS'arts'
p1131
aS'degree'
p1132
aS'is'
p1133
aS'worthless'
p1134
asg15
S'liberals lied, your fine arts degree is worthless'
p1135
sg17
S'now you have to believe that rich people are assholes for not inventing a job for you'
p1136
sg19
Vsheltered-college-freshman
p1137
sg21
(lp1138
g1127
ag1128
ag220
ag1129
ag1130
ag1131
ag1132
ag1133
ag1134
aS'now'
p1139
aS'you'
p1140
aS'have'
p1141
aS'to'
p1142
aS'believe'
p1143
aS'that'
p1144
aS'rich'
p1145
aS'people'
p1146
aS'are'
p1147
aS'assholes'
p1148
aS'for'
p1149
aS'not'
p1150
aS'inventing'
p1151
ag28
aS'job'
p1152
aS'for'
p1153
aS'you'
p1154
asg30
(lp1155
g1139
ag1140
ag1141
ag1142
ag1143
ag1144
ag1145
ag1146
ag1147
ag1148
ag1149
ag1150
ag1151
ag28
ag1152
ag1153
ag1154
asba(iMeme
Meme
p1156
(dp1157
g3
(lp1158
S'vows'
p1159
aS'to'
p1160
aS'avoid'
p1161
aS'premarital'
p1162
aS'sex'
p1163
asg15
S'vows to avoid premarital sex'
p1164
sg17
S'offers oral instead'
p1165
sg19
Vsheltered-college-freshman
p1166
sg21
(lp1167
g1159
ag1160
ag1161
ag1162
ag1163
aS'offers'
p1168
aS'oral'
p1169
aS'instead'
p1170
asg30
(lp1171
g1168
ag1169
ag1170
asba(iMeme
Meme
p1172
(dp1173
g3
(lp1174
S'shark'
p1175
aS'club'
p1176
ag14
asg15
S'shark club?'
p1177
sg17
S"sure, i'll join! i love sharks!"
p1178
sg19
Vsheltered-college-freshman
p1179
sg21
(lp1180
g1175
ag1176
ag14
aS'sure'
p1181
ag220
ag53
aS"'ll"
p1182
aS'join'
p1183
ag266
ag53
aS'love'
p1184
aS'sharks'
p1185
ag266
asg30
(lp1186
g1181
ag220
ag53
ag1182
ag1183
ag266
ag53
ag1184
ag1185
ag266
asba(iMeme
Meme
p1187
(dp1188
g3
(lp1189
S'my'
p1190
aS'parents'
p1191
aS'pay'
p1192
aS'for'
p1193
aS'everything'
p1194
asg15
S'my parents pay for everything'
p1195
sg17
S'but all i do is post on mm'
p1196
sg19
Vsheltered-college-freshman
p1197
sg21
(lp1198
g1190
ag1191
ag1192
ag1193
ag1194
aS'but'
p1199
aS'all'
p1200
ag53
aS'do'
p1201
aS'is'
p1202
aS'post'
p1203
aS'on'
p1204
aS'mm'
p1205
asg30
(lp1206
g1199
ag1200
ag53
ag1201
ag1202
ag1203
ag1204
ag1205
asba(iMeme
Meme
p1207
(dp1208
g3
(lp1209
S'goes'
p1210
aS'to'
p1211
aS'lrv'
p1212
asg15
S'goes to lrv'
p1213
sg17
S'drinks water'
p1214
sg19
Vsheltered-college-freshman
p1215
sg21
(lp1216
g1210
ag1211
ag1212
aS'drinks'
p1217
aS'water'
p1218
asg30
(lp1219
g1217
ag1218
asba(iMeme
Meme
p1220
(dp1221
g3
(lp1222
S'went'
p1223
aS'to'
p1224
aS'the'
p1225
aS'green'
p1226
aS'house'
p1227
asg15
S'went to the green house'
p1228
sg17
S'brought a plant'
p1229
sg19
Vsheltered-college-freshman
p1230
sg21
(lp1231
g1223
ag1224
ag1225
ag1226
ag1227
aS'brought'
p1232
ag28
aS'plant'
p1233
asg30
(lp1234
g1232
ag28
ag1233
asba(iMeme
Meme
p1235
(dp1236
g3
(lp1237
S'sex'
p1238
aS'at'
p1239
aS'college'
p1240
ag14
asg15
S'sex at college?'
p1241
sg17
S'no - my dad, uncles, and brothers fuck me'
p1242
sg19
Vsheltered-college-freshman
p1243
sg21
(lp1244
g1238
ag1239
ag1240
ag14
aS'no'
p1245
aS'-'
p1246
aS'my'
p1247
aS'dad'
p1248
ag220
aS'uncles'
p1249
ag220
aS'and'
p1250
aS'brothers'
p1251
aS'fuck'
p1252
aS'me'
p1253
asg30
(lp1254
g1245
ag1246
ag1247
ag1248
ag220
ag1249
ag220
ag1250
ag1251
ag1252
ag1253
asba(iMeme
Meme
p1255
(dp1256
g3
(lp1257
g53
aS'ho'
p1258
aS'to'
p1259
aS'school'
p1260
aS'days'
p1261
asg15
S'i ho to school days'
p1262
sg17
S'and fluff 10-20 guys cocks at night'
p1263
sg19
Vsheltered-college-freshman
p1264
sg21
(lp1265
g53
ag1258
ag1259
ag1260
ag1261
aS'and'
p1266
aS'fluff'
p1267
aS'10-20'
p1268
aS'guys'
p1269
aS'cocks'
p1270
aS'at'
p1271
aS'night'
p1272
asg30
(lp1273
g1266
ag1267
ag1268
ag1269
ag1270
ag1271
ag1272
asba(iMeme
Meme
p1274
(dp1275
g3
(lp1276
S'finally'
p1277
aS'declares'
p1278
aS'major'
p1279
asg15
S'finally declares major'
p1280
sg17
S'art with a minor in philosophy'
p1281
sg19
Vsheltered-college-freshman
p1282
sg21
(lp1283
g1277
ag1278
ag1279
aS'art'
p1284
aS'with'
p1285
ag28
aS'minor'
p1286
aS'in'
p1287
aS'philosophy'
p1288
asg30
(lp1289
g1284
ag1285
ag28
ag1286
ag1287
ag1288
asba(iMeme
Meme
p1290
(dp1291
g3
(lp1292
S'pregnancy'
p1293
aS'scare'
p1294
asg15
S'pregnancy scare'
p1295
sg17
S'every month'
p1296
sg19
Vsheltered-college-freshman
p1297
sg21
(lp1298
g1293
ag1294
aS'every'
p1299
aS'month'
p1300
asg30
(lp1301
g1299
ag1300
asba(iMeme
Meme
p1302
(dp1303
g3
(lp1304
S'girl'
p1305
aS'in'
p1306
aS'high'
p1307
aS'school'
p1308
aS'who'
p1309
aS'said'
p1310
aS'she'
p1311
aS'would'
p1312
aS'never'
p1313
aS'drink'
p1314
aS'until'
p1315
aS'she'
p1316
aS'was'
p1317
aS'21'
p1318
asg15
S'girl in high school who said she would never drink until she was 21'
p1319
sg17
S'gets black out drunk the first night there'
p1320
sg19
Vsheltered-college-freshman
p1321
sg21
(lp1322
g1305
ag1306
ag1307
ag1308
ag1309
ag1310
ag1311
ag1312
ag1313
ag1314
ag1315
ag1316
ag1317
ag1318
aS'gets'
p1323
aS'black'
p1324
aS'out'
p1325
aS'drunk'
p1326
aS'the'
p1327
aS'first'
p1328
aS'night'
p1329
aS'there'
p1330
asg30
(lp1331
g1323
ag1324
ag1325
ag1326
ag1327
ag1328
ag1329
ag1330
asba(iMeme
Meme
p1332
(dp1333
g3
(lp1334
S'vows'
p1335
aS'to'
p1336
aS'avoid'
p1337
aS'premarital'
p1338
aS'sex'
p1339
asg15
S'vows to avoid premarital sex'
p1340
sg17
S'offers oral instead'
p1341
sg19
Vsheltered-college-freshman
p1342
sg21
(lp1343
g1335
ag1336
ag1337
ag1338
ag1339
aS'offers'
p1344
aS'oral'
p1345
aS'instead'
p1346
asg30
(lp1347
g1344
ag1345
ag1346
asba(iMeme
Meme
p1348
(dp1349
g3
(lp1350
S'religion'
p1351
aS'class'
p1352
aS'at'
p1353
aS'baylor'
p1354
ag14
aS'that'
p1355
aS'should'
p1356
aS'be'
p1357
aS'an'
p1358
aS'easy'
p1359
ag28
ag266
ag53
aS"'ve"
p1360
aS'gone'
p1361
aS'to'
p1362
aS'church'
p1363
aS'my'
p1364
aS'whole'
p1365
aS'life'
p1366
ag266
asg15
S"religion class at baylor? that should be an easy a! i've gone to church my whole life!"
p1367
sg17
S'makes c in scriptures and heritage'
p1368
sg19
Vsheltered-college-freshman
p1369
sg21
(lp1370
g1351
ag1352
ag1353
ag1354
ag14
ag1355
ag1356
ag1357
ag1358
ag1359
ag28
ag266
ag53
ag1360
ag1361
ag1362
ag1363
ag1364
ag1365
ag1366
ag266
aS'makes'
p1371
aS'c'
p1372
aS'in'
p1373
aS'scriptures'
p1374
aS'and'
p1375
aS'heritage'
p1376
asg30
(lp1377
g1371
ag1372
ag1373
ag1374
ag1375
ag1376
asba(iMeme
Meme
p1378
(dp1379
g3
(lp1380
S'backyard'
p1381
aS'brawl'
p1382
ag14
asg15
S'backyard brawl?'
p1383
sg17
S"sorry, i don't watch wwf"
p1384
sg19
Vsheltered-college-freshman
p1385
sg21
(lp1386
g1381
ag1382
ag14
aS'sorry'
p1387
ag220
ag53
aS'do'
p1388
aS"n't"
p1389
aS'watch'
p1390
aS'wwf'
p1391
asg30
(lp1392
g1387
ag220
ag53
ag1388
ag1389
ag1390
ag1391
asba(iMeme
Meme
p1393
(dp1394
g3
(lp1395
S'gets'
p1396
aS'dumped'
p1397
aS'on'
p1398
aS'asecond'
p1399
aS'date'
p1400
ag462
asg15
S'gets dumped on asecond date.'
p1401
sg17
S'ponders a life of spiritual abstinence.'
p1402
sg19
Vsheltered-college-freshman
p1403
sg21
(lp1404
g1396
ag1397
ag1398
ag1399
ag1400
ag462
aS'ponders'
p1405
ag28
aS'life'
p1406
aS'of'
p1407
aS'spiritual'
p1408
aS'abstinence'
p1409
ag462
asg30
(lp1410
g1405
ag28
ag1406
ag1407
ag1408
ag1409
ag462
asba(iMeme
Meme
p1411
(dp1412
g3
(lp1413
S'gets'
p1414
aS'trashed'
p1415
aS'at'
p1416
aS'party'
p1417
asg15
S'gets trashed at party'
p1418
sg17
S'turns you in'
p1419
sg19
Vsheltered-college-freshman
p1420
sg21
(lp1421
g1414
ag1415
ag1416
ag1417
aS'turns'
p1422
aS'you'
p1423
aS'in'
p1424
asg30
(lp1425
g1422
ag1423
ag1424
asba(iMeme
Meme
p1426
(dp1427
g3
(lp1428
S'of'
p1429
aS'course'
p1430
ag53
aS'have'
p1431
ag28
aS'4.0'
p1432
asg15
S'of course i have a 4.0'
p1433
sg17
S'why yes, i am an acting major'
p1434
sg19
Vsheltered-college-freshman
p1435
sg21
(lp1436
g1429
ag1430
ag53
ag1431
ag28
ag1432
aS'why'
p1437
aS'yes'
p1438
ag220
ag53
aS'am'
p1439
aS'an'
p1440
aS'acting'
p1441
aS'major'
p1442
asg30
(lp1443
g1437
ag1438
ag220
ag53
ag1439
ag1440
ag1441
ag1442
asba(iMeme
Meme
p1444
(dp1445
g3
(lp1446
S'gangbang'
p1447
ag14
asg15
S'gangbang?'
p1448
sg17
S"as long as there's 8 or 10 big black cocks. sure!"
p1449
sg19
Vsheltered-college-freshman
p1450
sg21
(lp1451
g1447
ag14
aS'as'
p1452
aS'long'
p1453
aS'as'
p1454
aS'there'
p1455
aS"'s"
p1456
aS'8'
p1457
aS'or'
p1458
aS'10'
p1459
aS'big'
p1460
aS'black'
p1461
aS'cocks'
p1462
ag462
aS'sure'
p1463
ag266
asg30
(lp1464
g1452
ag1453
ag1454
ag1455
ag1456
ag1457
ag1458
ag1459
ag1460
ag1461
ag1462
ag462
ag1463
ag266
asba(iMeme
Meme
p1465
(dp1466
g3
(lp1467
S'golden'
p1468
aS'shower'
p1469
ag14
asg15
S'golden shower?'
p1470
sg17
S'wow, that must be expensive'
p1471
sg19
Vsheltered-college-freshman
p1472
sg21
(lp1473
g1468
ag1469
ag14
aS'wow'
p1474
ag220
aS'that'
p1475
aS'must'
p1476
aS'be'
p1477
aS'expensive'
p1478
asg30
(lp1479
g1474
ag220
ag1475
ag1476
ag1477
ag1478
asba(iMeme
Meme
p1480
(dp1481
g3
(lp1482
S'saw'
p1483
aS'an'
p1484
aS'improv'
p1485
aS'show'
p1486
asg15
S'saw an improv show'
p1487
sg17
S'impressed they remembered all those lines'
p1488
sg19
Vsheltered-college-freshman
p1489
sg21
(lp1490
g1483
ag1484
ag1485
ag1486
aS'impressed'
p1491
aS'they'
p1492
aS'remembered'
p1493
aS'all'
p1494
aS'those'
p1495
aS'lines'
p1496
asg30
(lp1497
g1491
ag1492
ag1493
ag1494
ag1495
ag1496
asba(iMeme
Meme
p1498
(dp1499
g3
(lp1500
S'saw'
p1501
aS'an'
p1502
aS'improv'
p1503
aS'show'
p1504
asg15
S'saw an improv show'
p1505
sg17
S'wonders how they remembered all those lines'
p1506
sg19
Vsheltered-college-freshman
p1507
sg21
(lp1508
g1501
ag1502
ag1503
ag1504
aS'wonders'
p1509
aS'how'
p1510
aS'they'
p1511
aS'remembered'
p1512
aS'all'
p1513
aS'those'
p1514
aS'lines'
p1515
asg30
(lp1516
g1509
ag1510
ag1511
ag1512
ag1513
ag1514
ag1515
asba(iMeme
Meme
p1517
(dp1518
g3
(lp1519
S'saw'
p1520
ag28
aS'great'
p1521
aS'impro'
p1522
aS'show'
p1523
asg15
S'saw a great impro show'
p1524
sg17
S'how did they learn all those lines?'
p1525
sg19
Vsheltered-college-freshman
p1526
sg21
(lp1527
g1520
ag28
ag1521
ag1522
ag1523
aS'how'
p1528
aS'did'
p1529
aS'they'
p1530
aS'learn'
p1531
aS'all'
p1532
aS'those'
p1533
aS'lines'
p1534
ag14
asg30
(lp1535
g1528
ag1529
ag1530
ag1531
ag1532
ag1533
ag1534
ag14
asba(iMeme
Meme
p1536
(dp1537
g3
(lp1538
S'can'
p1539
aS'you'
p1540
aS'say'
p1541
aS'...'
p1542
aS'...'
p1543
asg15
S'can you say......'
p1544
sg17
S'fresh meat?!'
p1545
sg19
Vsheltered-college-freshman
p1546
sg21
(lp1547
g1539
ag1540
ag1541
ag1542
ag1543
aS'fresh'
p1548
aS'meat'
p1549
ag14
ag266
asg30
(lp1550
g1548
ag1549
ag14
ag266
asba(iMeme
Meme
p1551
(dp1552
g3
(lp1553
S'my'
p1554
aS'scarf..'
p1555
asg15
S'my scarf..'
p1556
sg17
S'is choking me'
p1557
sg19
Vsheltered-college-freshman
p1558
sg21
(lp1559
g1554
ag1555
aS'is'
p1560
aS'choking'
p1561
aS'me'
p1562
asg30
(lp1563
g1560
ag1561
ag1562
asba(iMeme
Meme
p1564
(dp1565
g3
(lp1566
S'late'
p1567
aS'to'
p1568
aS'class'
p1569
aS'every'
p1570
aS'day'
p1571
asg15
S'late to class          every day'
p1572
sg17
S'latte to class          every day'
p1573
sg19
Vsheltered-college-freshman
p1574
sg21
(lp1575
g1567
ag1568
ag1569
ag1570
ag1571
aS'latte'
p1576
aS'to'
p1577
aS'class'
p1578
aS'every'
p1579
aS'day'
p1580
asg30
(lp1581
g1576
ag1577
ag1578
ag1579
ag1580
asba(iMeme
Meme
p1582
(dp1583
g3
(lp1584
S'late'
p1585
aS'to'
p1586
aS'class'
p1587
aS'every'
p1588
aS'day'
p1589
asg15
S'late to class every day'
p1590
sg17
S'latte to class every day'
p1591
sg19
Vsheltered-college-freshman
p1592
sg21
(lp1593
g1585
ag1586
ag1587
ag1588
ag1589
aS'latte'
p1594
aS'to'
p1595
aS'class'
p1596
aS'every'
p1597
aS'day'
p1598
asg30
(lp1599
g1594
ag1595
ag1596
ag1597
ag1598
asba(iMeme
Meme
p1600
(dp1601
g3
(lp1602
g53
aS'fucked'
p1603
aS'my'
p1604
aS'professor'
p1605
asg15
S'i fucked my professor'
p1606
sg17
S'to get a good grade'
p1607
sg19
Vsheltered-college-freshman
p1608
sg21
(lp1609
g53
ag1603
ag1604
ag1605
aS'to'
p1610
aS'get'
p1611
ag28
aS'good'
p1612
aS'grade'
p1613
asg30
(lp1614
g1610
ag1611
ag28
ag1612
ag1613
asba(iMeme
Meme
p1615
(dp1616
g3
(lp1617
S'buys'
p1618
aS'all'
p1619
aS'required'
p1620
aS'texts'
p1621
asg15
S'buys all required texts'
p1622
sg17
S'from the bookmark'
p1623
sg19
Vsheltered-college-freshman
p1624
sg21
(lp1625
g1618
ag1619
ag1620
ag1621
aS'from'
p1626
aS'the'
p1627
aS'bookmark'
p1628
asg30
(lp1629
g1626
ag1627
ag1628
asba(iMeme
Meme
p1630
(dp1631
g3
(lp1632
S'you'
p1633
aS'think'
p1634
aS'im'
p1635
aS'pretty'
p1636
aS'without'
p1637
aS'any'
p1638
aS'makeup'
p1639
aS'on'
p1640
ag14
asg15
S'you think im pretty without any makeup on?'
p1641
sg17
S'"did i say that?"'
p1642
sg19
Vsheltered-college-freshman
p1643
sg21
(lp1644
g1633
ag1634
ag1635
ag1636
ag1637
ag1638
ag1639
ag1640
ag14
aS'``'
p1645
aS'did'
p1646
ag53
aS'say'
p1647
aS'that'
p1648
ag14
aS"''"
p1649
asg30
(lp1650
g1645
ag1646
ag53
ag1647
ag1648
ag14
ag1649
asba(iMeme
Meme
p1651
(dp1652
g3
(lp1653
S'yoga'
p1654
aS'pants'
p1655
asg15
S'yoga pants'
p1656
sg17
S'and ugg boots'
p1657
sg19
Vsheltered-college-freshman
p1658
sg21
(lp1659
g1654
ag1655
aS'and'
p1660
aS'ugg'
p1661
aS'boots'
p1662
asg30
(lp1663
g1660
ag1661
ag1662
asba(iMeme
Meme
p1664
(dp1665
g3
(lp1666
S'the'
p1667
aS'frat'
p1668
aS'guys'
p1669
aS'want'
p1670
aS'to'
p1671
aS'give'
p1672
aS'me'
p1673
ag28
aS'tour'
p1674
aS'of'
p1675
aS'the'
p1676
aS'upstairs'
p1677
asg15
S'the frat guys want to give me a tour of the upstairs'
p1678
sg17
S'what a great first weekend!'
p1679
sg19
Vsheltered-college-freshman
p1680
sg21
(lp1681
g1667
ag1668
ag1669
ag1670
ag1671
ag1672
ag1673
ag28
ag1674
ag1675
ag1676
ag1677
aS'what'
p1682
ag28
aS'great'
p1683
aS'first'
p1684
aS'weekend'
p1685
ag266
asg30
(lp1686
g1682
ag28
ag1683
ag1684
ag1685
ag266
asba(iMeme
Meme
p1687
(dp1688
g3
(lp1689
S'virgin'
p1690
aS'college'
p1691
aS'freshman'
p1692
aS'convinced'
p1693
aS'she'
p1694
aS"'ll"
p1695
aS'marry'
p1696
aS'her'
p1697
aS'first'
p1698
aS'boyfriend'
p1699
ag462
asg15
S"virgin college freshman convinced she'll marry her first boyfriend."
p1700
sg17
S'fucks 13 guys in college'
p1701
sg19
Vsheltered-college-freshman
p1702
sg21
(lp1703
g1690
ag1691
ag1692
ag1693
ag1694
ag1695
ag1696
ag1697
ag1698
ag1699
ag462
aS'fucks'
p1704
aS'13'
p1705
aS'guys'
p1706
aS'in'
p1707
aS'college'
p1708
asg30
(lp1709
g1704
ag1705
ag1706
ag1707
ag1708
asba(iMeme
Meme
p1710
(dp1711
g3
(lp1712
S'first'
p1713
aS'quarter'
p1714
aS'freshman'
p1715
asg15
S'first quarter freshman'
p1716
sg17
S"ain't what i thought it would be"
p1717
sg19
Vsheltered-college-freshman
p1718
sg21
(lp1719
g1713
ag1714
ag1715
aS'ai'
p1720
aS"n't"
p1721
aS'what'
p1722
ag53
aS'thought'
p1723
aS'it'
p1724
aS'would'
p1725
aS'be'
p1726
asg30
(lp1727
g1720
ag1721
ag1722
ag53
ag1723
ag1724
ag1725
ag1726
asba(iMeme
Meme
p1728
(dp1729
g3
(lp1730
S'maillot'
p1731
aS'allemagne'
p1732
aS'coupe'
p1733
aS'du'
p1734
aS'monde'
p1735
aS'2010'
p1736
asg15
S'maillot allemagne coupe du monde 2010'
p1737
sg17
S'jtbdihnk@gmail.com'
p1738
sg19
Vsheltered-college-freshman
p1739
sg21
(lp1740
g1731
ag1732
ag1733
ag1734
ag1735
ag1736
aS'jtbdihnk'
p1741
aS'@'
p1742
aS'gmail.com'
p1743
asg30
(lp1744
g1741
ag1742
ag1743
asba(iMeme
Meme
p1745
(dp1746
g3
(lp1747
S'joueur'
p1748
aS'foot'
p1749
aS'suede'
p1750
asg15
S'joueur foot suede'
p1751
sg17
S'tnexctmjarj@gmail.com'
p1752
sg19
Vsheltered-college-freshman
p1753
sg21
(lp1754
g1748
ag1749
ag1750
aS'tnexctmjarj'
p1755
ag1742
aS'gmail.com'
p1756
asg30
(lp1757
g1755
ag1742
ag1756
asba(iMeme
Meme
p1758
(dp1759
g3
(lp1760
S'maillot'
p1761
aS'de'
p1762
aS'foot'
p1763
aS'2013'
p1764
asg15
S'maillot de foot 2013'
p1765
sg17
S'muhchwaby@gmail.com'
p1766
sg19
Vsheltered-college-freshman
p1767
sg21
(lp1768
g1761
ag1762
ag1763
ag1764
aS'muhchwaby'
p1769
ag1742
aS'gmail.com'
p1770
asg30
(lp1771
g1769
ag1742
ag1770
asba(iMeme
Meme
p1772
(dp1773
g3
(lp1774
S'maillot'
p1775
aS'lyon'
p1776
aS'2013'
p1777
aS'domicile'
p1778
asg15
S'maillot lyon 2013 domicile'
p1779
sg17
S'hosoybyyuu@gmail.com'
p1780
sg19
Vsheltered-college-freshman
p1781
sg21
(lp1782
g1775
ag1776
ag1777
ag1778
aS'hosoybyyuu'
p1783
ag1742
aS'gmail.com'
p1784
asg30
(lp1785
g1783
ag1742
ag1784
asba(iMeme
Meme
p1786
(dp1787
g3
(lp1788
S'maillot'
p1789
aS'juventus'
p1790
aS'rose'
p1791
aS'pas'
p1792
aS'cher'
p1793
asg15
S'maillot juventus rose pas cher'
p1794
sg17
S'ghosxht@gmail.com'
p1795
sg19
Vsheltered-college-freshman
p1796
sg21
(lp1797
g1789
ag1790
ag1791
ag1792
ag1793
aS'ghosxht'
p1798
ag1742
aS'gmail.com'
p1799
asg30
(lp1800
g1798
ag1742
ag1799
asba(iMeme
Meme
p1801
(dp1802
g3
(lp1803
S'maillot'
p1804
aS'de'
p1805
aS'foot'
p1806
aS'2013'
p1807
asg15
S'maillot de foot 2013'
p1808
sg17
S'gazvtdpx@gmail.com'
p1809
sg19
Vsheltered-college-freshman
p1810
sg21
(lp1811
g1804
ag1805
ag1806
ag1807
aS'gazvtdpx'
p1812
ag1742
aS'gmail.com'
p1813
asg30
(lp1814
g1812
ag1742
ag1813
asba(iMeme
Meme
p1815
(dp1816
g3
(lp1817
S'maillot'
p1818
aS'foot'
p1819
aS'monaco'
p1820
asg15
S'maillot foot monaco'
p1821
sg17
S'fwzywhqetu@gmail.com'
p1822
sg19
Vsheltered-college-freshman
p1823
sg21
(lp1824
g1818
ag1819
ag1820
aS'fwzywhqetu'
p1825
ag1742
aS'gmail.com'
p1826
asg30
(lp1827
g1825
ag1742
ag1826
asba(iMeme
Meme
p1828
(dp1829
g3
(lp1830
S'high'
p1831
aS'school'
p1832
aS'nerd'
p1833
asg15
S'high school nerd'
p1834
sg17
S'blowjob queen'
p1835
sg19
Vsheltered-college-freshman
p1836
sg21
(lp1837
g1831
ag1832
ag1833
aS'blowjob'
p1838
aS'queen'
p1839
asg30
(lp1840
g1838
ag1839
asba(iMeme
Meme
p1841
(dp1842
g3
(lp1843
S'gafas'
p1844
aS'ray'
p1845
aS'ban'
p1846
asg15
S'gafas ray ban'
p1847
sg17
S'awsempnllnx@gmail.com'
p1848
sg19
Vsheltered-college-freshman
p1849
sg21
(lp1850
g1844
ag1845
ag1846
aS'awsempnllnx'
p1851
ag1742
aS'gmail.com'
p1852
asg30
(lp1853
g1851
ag1742
ag1852
asba(iMeme
Meme
p1854
(dp1855
g3
(lp1856
S'gafas'
p1857
aS'ray'
p1858
aS'ban'
p1859
asg15
S'gafas ray ban'
p1860
sg17
S'rvyphg@gmail.com'
p1861
sg19
Vsheltered-college-freshman
p1862
sg21
(lp1863
g1857
ag1858
ag1859
aS'rvyphg'
p1864
ag1742
aS'gmail.com'
p1865
asg30
(lp1866
g1864
ag1742
ag1865
asba(iMeme
Meme
p1867
(dp1868
g3
(lp1869
S'goes'
p1870
aS'to'
p1871
aS'bible'
p1872
aS'study'
p1873
asg15
S'goes to bible study'
p1874
sg17
S'dates jimmy'
p1875
sg19
Vsheltered-college-freshman
p1876
sg21
(lp1877
g1870
ag1871
ag1872
ag1873
aS'dates'
p1878
aS'jimmy'
p1879
asg30
(lp1880
g1878
ag1879
asba(iMeme
Meme
p1881
(dp1882
g3
(lp1883
S'of'
p1884
aS'course'
p1885
aS'you'
p1886
aS'have'
p1887
aS'to'
p1888
aS'go'
p1889
aS'to'
p1890
aS'chapel'
p1891
aS'...'
p1892
asg15
S'of course you have to go to chapel...'
p1893
sg17
S"it's a lutheran university, isn't it?"
p1894
sg19
Vsheltered-college-freshman
p1895
sg21
(lp1896
g1884
ag1885
ag1886
ag1887
ag1888
ag1889
ag1890
ag1891
ag1892
aS'it'
p1897
aS"'s"
p1898
ag28
aS'lutheran'
p1899
aS'university'
p1900
ag220
aS'is'
p1901
aS"n't"
p1902
aS'it'
p1903
ag14
asg30
(lp1904
g1897
ag1898
ag28
ag1899
ag1900
ag220
ag1901
ag1902
ag1903
ag14
asba(iMeme
Meme
p1905
(dp1906
g3
(lp1907
S'happy'
p1908
aS'4/20'
p1909
ag266
asg15
S'happy 4/20!'
p1910
sg17
S'the date cartier set our for canada in 1534'
p1911
sg19
Vsheltered-college-freshman
p1912
sg21
(lp1913
g1908
ag1909
ag266
aS'the'
p1914
aS'date'
p1915
aS'cartier'
p1916
aS'set'
p1917
aS'our'
p1918
aS'for'
p1919
aS'canada'
p1920
aS'in'
p1921
aS'1534'
p1922
asg30
(lp1923
g1914
ag1915
ag1916
ag1917
ag1918
ag1919
ag1920
ag1921
ag1922
asba(iMeme
Meme
p1924
(dp1925
g3
(lp1926
S'happy'
p1927
aS'4/20'
p1928
ag14
asg15
S'happy 4/20?'
p1929
sg17
S'the anniversary of the san francisco earthquake?'
p1930
sg19
Vsheltered-college-freshman
p1931
sg21
(lp1932
g1927
ag1928
ag14
aS'the'
p1933
aS'anniversary'
p1934
aS'of'
p1935
aS'the'
p1936
aS'san'
p1937
aS'francisco'
p1938
aS'earthquake'
p1939
ag14
asg30
(lp1940
g1933
ag1934
ag1935
ag1936
ag1937
ag1938
ag1939
ag14
asba(iMeme
Meme
p1941
(dp1942
g3
(lp1943
S'happy'
p1944
aS'4/20'
p1945
ag14
asg15
S'happy 4/20?'
p1946
sg17
S'the anniversary of the san francisco earthquake?'
p1947
sg19
Vsheltered-college-freshman
p1948
sg21
(lp1949
g1944
ag1945
ag14
aS'the'
p1950
aS'anniversary'
p1951
aS'of'
p1952
aS'the'
p1953
aS'san'
p1954
aS'francisco'
p1955
aS'earthquake'
p1956
ag14
asg30
(lp1957
g1950
ag1951
ag1952
ag1953
ag1954
ag1955
ag1956
ag14
asba(iMeme
Meme
p1958
(dp1959
g3
(lp1960
S'you'
p1961
aS"'re"
p1962
aS'dating'
p1963
ag28
aS'man'
p1964
aS'and'
p1965
aS'he'
p1966
aS'has'
p1967
aS'opinions'
p1968
ag14
asg15
S"you're dating a man and he has opinions?"
p1969
sg17
S"that's a red flag. break it off with that abusive asshole!!!"
p1970
sg19
Vsheltered-college-freshman
p1971
sg21
(lp1972
g1961
ag1962
ag1963
ag28
ag1964
ag1965
ag1966
ag1967
ag1968
ag14
aS'that'
p1973
aS"'s"
p1974
ag28
aS'red'
p1975
aS'flag'
p1976
ag462
aS'break'
p1977
aS'it'
p1978
aS'off'
p1979
aS'with'
p1980
aS'that'
p1981
aS'abusive'
p1982
aS'asshole'
p1983
ag266
ag266
ag266
asg30
(lp1984
g1973
ag1974
ag28
ag1975
ag1976
ag462
ag1977
ag1978
ag1979
ag1980
ag1981
ag1982
ag1983
ag266
ag266
ag266
asba(iMeme
Meme
p1985
(dp1986
g3
(lp1987
S'2008'
p1988
aS'``'
p1989
aS'obama'
p1990
aS'needs'
p1991
aS'our'
p1992
aS'help'
p1993
ag266
aS"''"
p1994
asg15
S'2008  "obama needs our help!"'
p1995
sg17
S'2013  "where\'s all the good paying jobs, obama???"'
p1996
sg19
Vsheltered-college-freshman
p1997
sg21
(lp1998
g1988
ag1989
ag1990
ag1991
ag1992
ag1993
ag266
ag1994
aS'2013'
p1999
aS'``'
p2000
aS'where'
p2001
aS"'s"
p2002
aS'all'
p2003
aS'the'
p2004
aS'good'
p2005
aS'paying'
p2006
aS'jobs'
p2007
ag220
aS'obama'
p2008
ag14
ag14
ag14
aS"''"
p2009
asg30
(lp2010
g1999
ag2000
ag2001
ag2002
ag2003
ag2004
ag2005
ag2006
ag2007
ag220
ag2008
ag14
ag14
ag14
ag2009
asba(iMeme
Meme
p2011
(dp2012
g3
(lp2013
S'wow'
p2014
asg15
S'wow'
p2015
sg17
S'et al has done so much research'
p2016
sg19
Vsheltered-college-freshman
p2017
sg21
(lp2018
g2014
aS'et'
p2019
aS'al'
p2020
aS'has'
p2021
aS'done'
p2022
aS'so'
p2023
aS'much'
p2024
aS'research'
p2025
asg30
(lp2026
g2019
ag2020
ag2021
ag2022
ag2023
ag2024
ag2025
asba(iMeme
Meme
p2027
(dp2028
g3
(lp2029
S'not'
p2030
aS'even'
p2031
aS'in'
p2032
ag28
aS'serious'
p2033
aS'relationship'
p2034
asg15
S'not even in a serious relationship'
p2035
sg17
S'just booked wenatchee photobooth company for the wedding'
p2036
sg19
Vsheltered-college-freshman
p2037
sg21
(lp2038
g2030
ag2031
ag2032
ag28
ag2033
ag2034
aS'just'
p2039
aS'booked'
p2040
aS'wenatchee'
p2041
aS'photobooth'
p2042
aS'company'
p2043
aS'for'
p2044
aS'the'
p2045
aS'wedding'
p2046
asg30
(lp2047
g2039
ag2040
ag2041
ag2042
ag2043
ag2044
ag2045
ag2046
asba(iMeme
Meme
p2048
(dp2049
g3
(lp2050
S'not'
p2051
aS'even'
p2052
aS'in'
p2053
ag28
aS'serious'
p2054
aS'relationship'
p2055
asg15
S'not even in a serious relationship'
p2056
sg17
S'already booked wenatchee photobooth company'
p2057
sg19
Vsheltered-college-freshman
p2058
sg21
(lp2059
g2051
ag2052
ag2053
ag28
ag2054
ag2055
aS'already'
p2060
aS'booked'
p2061
aS'wenatchee'
p2062
aS'photobooth'
p2063
aS'company'
p2064
asg30
(lp2065
g2060
ag2061
ag2062
ag2063
ag2064
asba(iMeme
Meme
p2066
(dp2067
g3
(lp2068
g53
aS'like'
p2069
aS'porn'
p2070
asg15
S'i like porn'
p2071
sg17
S'well, i like making porn'
p2072
sg19
Vsheltered-college-freshman
p2073
sg21
(lp2074
g53
ag2069
ag2070
aS'well'
p2075
ag220
ag53
aS'like'
p2076
aS'making'
p2077
aS'porn'
p2078
asg30
(lp2079
g2075
ag220
ag53
ag2076
ag2077
ag2078
asba(iMeme
Meme
p2080
(dp2081
g3
(lp2082
g53
aS'do'
p2083
aS"n't"
p2084
aS'have'
p2085
aS'sex'
p2086
asg15
S"i don't have sex"
p2087
sg17
S'with anyone but trent'
p2088
sg19
Vsheltered-college-freshman
p2089
sg21
(lp2090
g53
ag2083
ag2084
ag2085
ag2086
aS'with'
p2091
aS'anyone'
p2092
aS'but'
p2093
aS'trent'
p2094
asg30
(lp2095
g2091
ag2092
ag2093
ag2094
asba(iMeme
Meme
p2096
(dp2097
g3
(lp2098
g53
aS'am'
p2099
ag28
aS'virgin'
p2100
asg15
S'i am a virgin'
p2101
sg17
S'i just swallow'
p2102
sg19
Vsheltered-college-freshman
p2103
sg21
(lp2104
g53
ag2099
ag28
ag2100
ag53
aS'just'
p2105
aS'swallow'
p2106
asg30
(lp2107
g53
ag2105
ag2106
asba(iMeme
Meme
p2108
(dp2109
g3
(lp2110
S'keep'
p2111
aS'believing'
p2112
aS'keep'
p2113
aS'trying'
p2114
asg15
S'keep believing keep trying'
p2115
sg17
S'be happy! things will work out!'
p2116
sg19
Vsheltered-college-freshman
p2117
sg21
(lp2118
g2111
ag2112
ag2113
ag2114
aS'be'
p2119
aS'happy'
p2120
ag266
aS'things'
p2121
aS'will'
p2122
aS'work'
p2123
aS'out'
p2124
ag266
asg30
(lp2125
g2119
ag2120
ag266
ag2121
ag2122
ag2123
ag2124
ag266
asba(iMeme
Meme
p2126
(dp2127
g3
(lp2128
g53
aS'do'
p2129
aS"n't"
p2130
aS'see'
p2131
aS'what'
p2132
aS"'s"
p2133
aS'special'
p2134
aS'about'
p2135
aS'4:20'
p2136
ag14
asg15
S"i don't see what's special about 4:20?"
p2137
sg17
S"i'm gonna go smoke some pot and go on xwfed.com instead"
p2138
sg19
Vsheltered-college-freshman
p2139
sg21
(lp2140
g53
ag2129
ag2130
ag2131
ag2132
ag2133
ag2134
ag2135
ag2136
ag14
ag53
aS"'m"
p2141
aS'gon'
p2142
aS'na'
p2143
aS'go'
p2144
aS'smoke'
p2145
aS'some'
p2146
aS'pot'
p2147
aS'and'
p2148
aS'go'
p2149
aS'on'
p2150
aS'xwfed.com'
p2151
aS'instead'
p2152
asg30
(lp2153
g53
ag2141
ag2142
ag2143
ag2144
ag2145
ag2146
ag2147
ag2148
ag2149
ag2150
ag2151
ag2152
asba(iMeme
Meme
p2154
(dp2155
g3
(lp2156
g53
aS'do'
p2157
aS"n't"
p2158
aS'see'
p2159
aS'what'
p2160
aS"'s"
p2161
aS'special'
p2162
aS'about'
p2163
aS'4:20'
p2164
ag14
asg15
S"i don't see what's special about 4:20?"
p2165
sg17
S"i'm gonna go smoke some pot and go on xwfed.com instead"
p2166
sg19
Vsheltered-college-freshman
p2167
sg21
(lp2168
g53
ag2157
ag2158
ag2159
ag2160
ag2161
ag2162
ag2163
ag2164
ag14
ag53
aS"'m"
p2169
aS'gon'
p2170
aS'na'
p2171
aS'go'
p2172
aS'smoke'
p2173
aS'some'
p2174
aS'pot'
p2175
aS'and'
p2176
aS'go'
p2177
aS'on'
p2178
aS'xwfed.com'
p2179
aS'instead'
p2180
asg30
(lp2181
g53
ag2169
ag2170
ag2171
ag2172
ag2173
ag2174
ag2175
ag2176
ag2177
ag2178
ag2179
ag2180
asba(iMeme
Meme
p2182
(dp2183
g3
(lp2184
S'free'
p2185
aS'food'
p2186
ag14
asg15
S'free food?'
p2187
sg17
S"they've got my vote!"
p2188
sg19
Vsheltered-college-freshman
p2189
sg21
(lp2190
g2185
ag2186
ag14
aS'they'
p2191
aS"'ve"
p2192
aS'got'
p2193
aS'my'
p2194
aS'vote'
p2195
ag266
asg30
(lp2196
g2191
ag2192
ag2193
ag2194
ag2195
ag266
asba(iMeme
Meme
p2197
(dp2198
g3
(lp2199
S'if'
p2200
ag53
aS'wish'
p2201
aS'hard'
p2202
aS'enough'
p2203
asg15
S'if i wish hard enough'
p2204
sg17
S'we can buy paper next week'
p2205
sg19
Vsheltered-college-freshman
p2206
sg21
(lp2207
g2200
ag53
ag2201
ag2202
ag2203
aS'we'
p2208
aS'can'
p2209
aS'buy'
p2210
aS'paper'
p2211
aS'next'
p2212
aS'week'
p2213
asg30
(lp2214
g2208
ag2209
ag2210
ag2211
ag2212
ag2213
asba(iMeme
Meme
p2215
(dp2216
g3
(lp2217
S'starts'
p2218
aS'praying'
p2219
aS'yesterday'
p2220
asg15
S'starts praying yesterday'
p2221
sg17
S'brags about it'
p2222
sg19
Vsheltered-college-freshman
p2223
sg21
(lp2224
g2218
ag2219
ag2220
aS'brags'
p2225
aS'about'
p2226
aS'it'
p2227
asg30
(lp2228
g2225
ag2226
ag2227
asba(iMeme
Meme
p2229
(dp2230
g3
(lp2231
S'cool'
p2232
aS'story'
p2233
aS'...'
p2234
asg15
S'cool story...'
p2235
sg17
S"don't tell it again"
p2236
sg19
Vsheltered-college-freshman
p2237
sg21
(lp2238
g2232
ag2233
ag2234
aS'do'
p2239
aS"n't"
p2240
aS'tell'
p2241
aS'it'
p2242
aS'again'
p2243
asg30
(lp2244
g2239
ag2240
ag2241
ag2242
ag2243
asba(iMeme
Meme
p2245
(dp2246
g3
(lp2247
S'cool'
p2248
aS'story..'
p2249
asg15
S'cool story..'
p2250
sg17
S"don't say tell it again"
p2251
sg19
Vsheltered-college-freshman
p2252
sg21
(lp2253
g2248
ag2249
aS'do'
p2254
aS"n't"
p2255
aS'say'
p2256
aS'tell'
p2257
aS'it'
p2258
aS'again'
p2259
asg30
(lp2260
g2254
ag2255
ag2256
ag2257
ag2258
ag2259
asba(iMeme
Meme
p2261
(dp2262
g3
(lp2263
S'having'
p2264
ag28
aS'black'
p2265
aS'president'
p2266
aS'is'
p2267
aS'the'
p2268
aS'same'
p2269
asg15
S'having a black president is the same'
p2270
sg17
S'as having a woman president'
p2271
sg19
Vsheltered-college-freshman
p2272
sg21
(lp2273
g2264
ag28
ag2265
ag2266
ag2267
ag2268
ag2269
aS'as'
p2274
aS'having'
p2275
ag28
aS'woman'
p2276
aS'president'
p2277
asg30
(lp2278
g2274
ag2275
ag28
ag2276
ag2277
asba(iMeme
Meme
p2279
(dp2280
g3
(lp2281
S'``'
p2282
aS'where'
p2283
aS'are'
p2284
aS'you'
p2285
aS'putting'
p2286
asg15
S'"where are you putting'
p2287
sg17
S'the 15 freshman?"'
p2288
sg19
Vsheltered-college-freshman
p2289
sg21
(lp2290
g2282
ag2283
ag2284
ag2285
ag2286
aS'the'
p2291
aS'15'
p2292
aS'freshman'
p2293
ag14
aS"''"
p2294
asg30
(lp2295
g2291
ag2292
ag2293
ag14
ag2294
asba(iMeme
Meme
p2296
(dp2297
g3
(lp2298
S'trusted'
p2299
aS'friendly'
p2300
aS'black'
p2301
aS'fella'
p2302
ag151
asg15
S"trusted friendly black fella'"
p2303
sg17
S'found in dumpster'
p2304
sg19
Vsheltered-college-freshman
p2305
sg21
(lp2306
g2299
ag2300
ag2301
ag2302
ag151
aS'found'
p2307
aS'in'
p2308
aS'dumpster'
p2309
asg30
(lp2310
g2307
ag2308
ag2309
asba(iMeme
Meme
p2311
(dp2312
g3
(lp2313
S'lost'
p2314
aS'in'
p2315
aS'3rd'
p2316
aS'form'
p2317
asg15
S'lost in 3rd form'
p2318
sg17
S'my lips in oral sex'
p2319
sg19
Vsheltered-college-freshman
p2320
sg21
(lp2321
g2314
ag2315
ag2316
ag2317
aS'my'
p2322
aS'lips'
p2323
aS'in'
p2324
aS'oral'
p2325
aS'sex'
p2326
asg30
(lp2327
g2322
ag2323
ag2324
ag2325
ag2326
asba(iMeme
Meme
p2328
(dp2329
g3
(lp2330
S'hgh'
p2331
aS'releaser'
p2332
aS'review'
p2333
asg15
S'hgh releaser review'
p2334
sg17
S'ioqrgb@100mail.com'
p2335
sg19
Vsheltered-college-freshman
p2336
sg21
(lp2337
g2331
ag2332
ag2333
aS'ioqrgb'
p2338
ag1742
aS'100mail.com'
p2339
asg30
(lp2340
g2338
ag1742
ag2339
asba(iMeme
Meme
p2341
(dp2342
g3
(lp2343
S'9'
p2344
aS'electric'
p2345
aS'said'
p2346
aS'they'
p2347
aS"'d"
p2348
aS'give'
p2349
aS'me'
p2350
ag28
aS'facial'
p2351
ag266
asg15
S"9 electric said they'd give me a facial!"
p2352
sg17
S'i wonder if they do pedicures to?'
p2353
sg19
Vsheltered-college-freshman
p2354
sg21
(lp2355
g2344
ag2345
ag2346
ag2347
ag2348
ag2349
ag2350
ag28
ag2351
ag266
ag53
aS'wonder'
p2356
aS'if'
p2357
aS'they'
p2358
aS'do'
p2359
aS'pedicures'
p2360
aS'to'
p2361
ag14
asg30
(lp2362
g53
ag2356
ag2357
ag2358
ag2359
ag2360
ag2361
ag14
asba(iMeme
Meme
p2363
(dp2364
g3
(lp2365
S'get'
p2366
ag28
aS'job'
p2367
aS'nerd'
p2368
asg15
S'get a job nerd'
p2369
sg17
S'i get paid to go to school'
p2370
sg19
Vsheltered-college-freshman
p2371
sg21
(lp2372
g2366
ag28
ag2367
ag2368
ag53
aS'get'
p2373
aS'paid'
p2374
aS'to'
p2375
aS'go'
p2376
aS'to'
p2377
aS'school'
p2378
asg30
(lp2379
g53
ag2373
ag2374
ag2375
ag2376
ag2377
ag2378
asba(iMeme
Meme
p2380
(dp2381
g3
(lp2382
S'financial'
p2383
aS'aid'
p2384
ag14
asg15
S'financial aid?'
p2385
sg17
S"isn't that for poor people?"
p2386
sg19
Vsheltered-college-freshman
p2387
sg21
(lp2388
g2383
ag2384
ag14
aS'is'
p2389
aS"n't"
p2390
aS'that'
p2391
aS'for'
p2392
aS'poor'
p2393
aS'people'
p2394
ag14
asg30
(lp2395
g2389
ag2390
ag2391
ag2392
ag2393
ag2394
ag14
asba(iMeme
Meme
p2396
(dp2397
g3
(lp2398
S'what'
p2399
aS'this'
p2400
aS'school'
p2401
aS'needs'
p2402
aS'is'
p2403
aS'more'
p2404
aS'guns'
p2405
asg15
S'what this school needs is more guns'
p2406
sg17
S'said no hard-working student ever'
p2407
sg19
Vsheltered-college-freshman
p2408
sg21
(lp2409
g2399
ag2400
ag2401
ag2402
ag2403
ag2404
ag2405
aS'said'
p2410
aS'no'
p2411
aS'hard-working'
p2412
aS'student'
p2413
aS'ever'
p2414
asg30
(lp2415
g2410
ag2411
ag2412
ag2413
ag2414
asba(iMeme
Meme
p2416
(dp2417
g3
(lp2418
S'goes'
p2419
aS'to'
p2420
aS'frat'
p2421
aS'party'
p2422
asg15
S'goes to frat party'
p2423
sg17
S'why do all these guys find me so interesting'
p2424
sg19
Vsheltered-college-freshman
p2425
sg21
(lp2426
g2419
ag2420
ag2421
ag2422
aS'why'
p2427
aS'do'
p2428
aS'all'
p2429
aS'these'
p2430
aS'guys'
p2431
aS'find'
p2432
aS'me'
p2433
aS'so'
p2434
aS'interesting'
p2435
asg30
(lp2436
g2427
ag2428
ag2429
ag2430
ag2431
ag2432
ag2433
ag2434
ag2435
asba(iMeme
Meme
p2437
(dp2438
g3
(lp2439
g53
aS'paid'
p2440
aS'all'
p2441
aS'this'
p2442
aS'money'
p2443
asg15
S'i paid all this money'
p2444
sg17
S'so i can tell my teachers i know everything'
p2445
sg19
Vsheltered-college-freshman
p2446
sg21
(lp2447
g53
ag2440
ag2441
ag2442
ag2443
aS'so'
p2448
ag53
aS'can'
p2449
aS'tell'
p2450
aS'my'
p2451
aS'teachers'
p2452
ag53
aS'know'
p2453
aS'everything'
p2454
asg30
(lp2455
g2448
ag53
ag2449
ag2450
ag2451
ag2452
ag53
ag2453
ag2454
asba(iMeme
Meme
p2456
(dp2457
g3
(lp2458
S'you'
p2459
aS'want'
p2460
aS'rights'
p2461
aS'beyond'
p2462
aS'mere'
p2463
aS'``'
p2464
aS'naked'
p2465
aS'possession'
p2466
aS"''"
p2467
ag14
asg15
S'you want rights beyond mere "naked possession"?'
p2468
sg17
S"you're an insecure pervert."
p2469
sg19
Vsheltered-college-freshman
p2470
sg21
(lp2471
g2459
ag2460
ag2461
ag2462
ag2463
ag2464
ag2465
ag2466
ag2467
ag14
aS'you'
p2472
aS"'re"
p2473
aS'an'
p2474
aS'insecure'
p2475
aS'pervert'
p2476
ag462
asg30
(lp2477
g2472
ag2473
ag2474
ag2475
ag2476
ag462
asba(iMeme
Meme
p2478
(dp2479
g3
(lp2480
S'``'
p2481
aS'mom'
p2482
ag53
aS"'m"
p2483
aS'an'
p2484
aS'adult'
p2485
aS'now'
p2486
aS"''"
p2487
asg15
S'"mom i\'m an adult now"'
p2488
sg17
S'"here is my dirty laundry i will be back next weekend"'
p2489
sg19
Vsheltered-college-freshman
p2490
sg21
(lp2491
g2481
ag2482
ag53
ag2483
ag2484
ag2485
ag2486
ag2487
aS'``'
p2492
aS'here'
p2493
aS'is'
p2494
aS'my'
p2495
aS'dirty'
p2496
aS'laundry'
p2497
ag53
aS'will'
p2498
aS'be'
p2499
aS'back'
p2500
aS'next'
p2501
aS'weekend'
p2502
aS"''"
p2503
asg30
(lp2504
g2492
ag2493
ag2494
ag2495
ag2496
ag2497
ag53
ag2498
ag2499
ag2500
ag2501
ag2502
ag2503
asba(iMeme
Meme
p2505
(dp2506
g3
(lp2507
S'``'
p2508
ag53
aS"'m"
p2509
aS'such'
p2510
aS'an'
p2511
aS'adult'
p2512
aS"''"
p2513
asg15
S'"i\'m such an adult"'
p2514
sg17
S"doesn't do laundry all semester and leave it at home for mom over fall break"
p2515
sg19
Vsheltered-college-freshman
p2516
sg21
(lp2517
g2508
ag53
ag2509
ag2510
ag2511
ag2512
ag2513
aS'does'
p2518
aS"n't"
p2519
aS'do'
p2520
aS'laundry'
p2521
aS'all'
p2522
aS'semester'
p2523
aS'and'
p2524
aS'leave'
p2525
aS'it'
p2526
aS'at'
p2527
aS'home'
p2528
aS'for'
p2529
aS'mom'
p2530
aS'over'
p2531
aS'fall'
p2532
aS'break'
p2533
asg30
(lp2534
g2518
ag2519
ag2520
ag2521
ag2522
ag2523
ag2524
ag2525
ag2526
ag2527
ag2528
ag2529
ag2530
ag2531
ag2532
ag2533
asba(iMeme
Meme
p2535
(dp2536
g3
(lp2537
S'``'
p2538
ag53
aS'love'
p2539
aS'macklemore'
p2540
ag266
aS"''"
p2541
asg15
S'"i love macklemore!"'
p2542
sg17
S'has never been to a goodwill'
p2543
sg19
Vsheltered-college-freshman
p2544
sg21
(lp2545
g2538
ag53
ag2539
ag2540
ag266
ag2541
aS'has'
p2546
aS'never'
p2547
aS'been'
p2548
aS'to'
p2549
ag28
aS'goodwill'
p2550
asg30
(lp2551
g2546
ag2547
ag2548
ag2549
ag28
ag2550
asba(iMeme
Meme
p2552
(dp2553
g3
(lp2554
S'``'
p2555
aS'you'
p2556
aS'should'
p2557
aS'really'
p2558
aS'go'
p2559
aS'to'
p2560
aS'church'
p2561
aS'and'
p2562
aS'get'
p2563
aS'to'
p2564
aS'know'
p2565
aS'jesus'
p2566
ag462
aS"''"
p2567
asg15
S'"you should really go to church and get to know jesus."'
p2568
sg17
S'camps out for twilight tickets'
p2569
sg19
Vsheltered-college-freshman
p2570
sg21
(lp2571
g2555
ag2556
ag2557
ag2558
ag2559
ag2560
ag2561
ag2562
ag2563
ag2564
ag2565
ag2566
ag462
ag2567
aS'camps'
p2572
aS'out'
p2573
aS'for'
p2574
aS'twilight'
p2575
aS'tickets'
p2576
asg30
(lp2577
g2572
ag2573
ag2574
ag2575
ag2576
asba(iMeme
Meme
p2578
(dp2579
g3
(lp2580
S'``'
p2581
aS'maybe'
p2582
ag53
aS'should'
p2583
aS'sign'
p2584
aS'up'
p2585
aS'for'
p2586
aS'philosophy'
p2587
aS"''"
p2588
asg15
S'"maybe i should sign up for philosophy"'
p2589
sg17
S'"i really want to learn about how people\'s minds work"'
p2590
sg19
Vsheltered-college-freshman
p2591
sg21
(lp2592
g2581
ag2582
ag53
ag2583
ag2584
ag2585
ag2586
ag2587
ag2588
aS'``'
p2593
ag53
aS'really'
p2594
aS'want'
p2595
aS'to'
p2596
aS'learn'
p2597
aS'about'
p2598
aS'how'
p2599
aS'people'
p2600
aS"'s"
p2601
aS'minds'
p2602
aS'work'
p2603
aS"''"
p2604
asg30
(lp2605
g2593
ag53
ag2594
ag2595
ag2596
ag2597
ag2598
ag2599
ag2600
ag2601
ag2602
ag2603
ag2604
asba(iMeme
Meme
p2606
(dp2607
g3
(lp2608
S'how'
p2609
aS'many'
p2610
aS'kids'
p2611
aS'at'
p2612
aS'gsa'
p2613
aS'smoke'
p2614
ag14
asg15
S'how many kids at gsa smoke?'
p2615
sg17
S'five.'
p2616
sg19
Vsheltered-college-freshman
p2617
sg21
(lp2618
g2609
ag2610
ag2611
ag2612
ag2613
ag2614
ag14
aS'five'
p2619
ag462
asg30
(lp2620
g2619
ag462
asba(iMeme
Meme
p2621
(dp2622
g3
(lp2623
S'sons'
p2624
aS'of'
p2625
aS'anarchy'
p2626
aS'season'
p2627
aS'4'
p2628
asg15
S'sons of anarchy season 4'
p2629
sg17
S'uawahrv@gmail.com'
p2630
sg19
Vsheltered-college-freshman
p2631
sg21
(lp2632
g2624
ag2625
ag2626
ag2627
ag2628
aS'uawahrv'
p2633
ag1742
aS'gmail.com'
p2634
asg30
(lp2635
g2633
ag1742
ag2634
asba(iMeme
Meme
p2636
(dp2637
g3
(lp2638
S'stops'
p2639
aS'eating'
p2640
aS'meat'
p2641
asg15
S'stops eating meat'
p2642
sg17
S'because of how much she gets at night'
p2643
sg19
Vsheltered-college-freshman
p2644
sg21
(lp2645
g2639
ag2640
ag2641
aS'because'
p2646
aS'of'
p2647
aS'how'
p2648
aS'much'
p2649
aS'she'
p2650
aS'gets'
p2651
aS'at'
p2652
aS'night'
p2653
asg30
(lp2654
g2646
ag2647
ag2648
ag2649
ag2650
ag2651
ag2652
ag2653
asba(iMeme
Meme
p2655
(dp2656
g3
(lp2657
g53
aS'have'
p2658
aS'my'
p2659
aS'own'
p2660
aS'place'
p2661
aS'now'
p2662
asg15
S'i have my own place now'
p2663
sg17
S'arbor park'
p2664
sg19
Vsheltered-college-freshman
p2665
sg21
(lp2666
g53
ag2658
ag2659
ag2660
ag2661
ag2662
aS'arbor'
p2667
aS'park'
p2668
asg30
(lp2669
g2667
ag2668
asba(iMeme
Meme
p2670
(dp2671
g3
(lp2672
g53
aS'can'
p2673
aS'help'
p2674
aS'with'
p2675
aS'your'
p2676
aS'bio'
p2677
aS'lab'
p2678
aS'supplies'
p2679
asg15
S'i can help with your bio lab supplies'
p2680
sg17
S"so, you'll need 500 1cc short tip insulin syringes?"
p2681
sg19
Vsheltered-college-freshman
p2682
sg21
(lp2683
g53
ag2673
ag2674
ag2675
ag2676
ag2677
ag2678
ag2679
aS'so'
p2684
ag220
aS'you'
p2685
aS"'ll"
p2686
aS'need'
p2687
aS'500'
p2688
aS'1cc'
p2689
aS'short'
p2690
aS'tip'
p2691
aS'insulin'
p2692
aS'syringes'
p2693
ag14
asg30
(lp2694
g2684
ag220
ag2685
ag2686
ag2687
ag2688
ag2689
ag2690
ag2691
ag2692
ag2693
ag14
asba(iMeme
Meme
p2695
(dp2696
g3
(lp2697
g53
aS'can'
p2698
aS'help'
p2699
aS'with'
p2700
aS'your'
p2701
aS'bio'
p2702
aS'lab'
p2703
aS'supplies'
p2704
ag220
ag53
aS'work'
p2705
aS'at'
p2706
ag28
aS'medical'
p2707
aS'supply'
p2708
aS'store'
p2709
ag462
asg15
S'i can help with your bio lab supplies, i work at a medical supply store.'
p2710
sg17
S"so, you'll need 500 1cc short tip insulin syringes?"
p2711
sg19
Vsheltered-college-freshman
p2712
sg21
(lp2713
g53
ag2698
ag2699
ag2700
ag2701
ag2702
ag2703
ag2704
ag220
ag53
ag2705
ag2706
ag28
ag2707
ag2708
ag2709
ag462
aS'so'
p2714
ag220
aS'you'
p2715
aS"'ll"
p2716
aS'need'
p2717
aS'500'
p2718
aS'1cc'
p2719
aS'short'
p2720
aS'tip'
p2721
aS'insulin'
p2722
aS'syringes'
p2723
ag14
asg30
(lp2724
g2714
ag220
ag2715
ag2716
ag2717
ag2718
ag2719
ag2720
ag2721
ag2722
ag2723
ag14
asba(iMeme
Meme
p2725
(dp2726
g3
(lp2727
g53
aS"'m"
p2728
aS'totally'
p2729
aS'stripping'
p2730
aS'to'
p2731
aS'earn'
p2732
aS'my'
p2733
aS'degree'
p2734
asg15
S"i'm totally stripping to earn my degree"
p2735
sg17
S'(gets degree, still stripping)'
p2736
sg19
Vsheltered-college-freshman
p2737
sg21
(lp2738
g53
ag2728
ag2729
ag2730
ag2731
ag2732
ag2733
ag2734
aS'('
p2739
aS'gets'
p2740
aS'degree'
p2741
ag220
aS'still'
p2742
aS'stripping'
p2743
aS')'
p2744
asg30
(lp2745
g2739
ag2740
ag2741
ag220
ag2742
ag2743
ag2744
asba(iMeme
Meme
p2746
(dp2747
g3
(lp2748
g53
aS"'m"
p2749
aS'voting'
p2750
aS'for'
p2751
aS'romney'
p2752
aS'to'
p2753
aS'change'
p2754
aS'the'
p2755
aS'economy'
p2756
ag266
asg15
S"i'm voting for romney to change the economy!"
p2757
sg17
S'votes for romney, now works fries at mcdonalds'
p2758
sg19
Vsheltered-college-freshman
p2759
sg21
(lp2760
g53
ag2749
ag2750
ag2751
ag2752
ag2753
ag2754
ag2755
ag2756
ag266
aS'votes'
p2761
aS'for'
p2762
aS'romney'
p2763
ag220
aS'now'
p2764
aS'works'
p2765
aS'fries'
p2766
aS'at'
p2767
aS'mcdonalds'
p2768
asg30
(lp2769
g2761
ag2762
ag2763
ag220
ag2764
ag2765
ag2766
ag2767
ag2768
asba(iMeme
Meme
p2770
(dp2771
g3
(lp2772
S'has'
p2773
aS'sex'
p2774
aS'with'
p2775
aS'forty'
p2776
aS'guys'
p2777
aS'while'
p2778
aS'in'
p2779
aS'college'
p2780
asg15
S'has sex with forty guys while in college'
p2781
sg17
S"tells future husband she's a virgin"
p2782
sg19
Vsheltered-college-freshman
p2783
sg21
(lp2784
g2773
ag2774
ag2775
ag2776
ag2777
ag2778
ag2779
ag2780
aS'tells'
p2785
aS'future'
p2786
aS'husband'
p2787
aS'she'
p2788
aS"'s"
p2789
ag28
aS'virgin'
p2790
asg30
(lp2791
g2785
ag2786
ag2787
ag2788
ag2789
ag28
ag2790
asba(iMeme
Meme
p2792
(dp2793
g3
(lp2794
S'technically'
p2795
ag220
ag53
aS"'m"
p2796
ag28
aS'virgin'
p2797
ag266
asg15
S"technically, i'm a virgin!"
p2798
sg17
S'(let about forty dudes have back door-action)'
p2799
sg19
Vsheltered-college-freshman
p2800
sg21
(lp2801
g2795
ag220
ag53
ag2796
ag28
ag2797
ag266
ag2739
aS'let'
p2802
aS'about'
p2803
aS'forty'
p2804
aS'dudes'
p2805
aS'have'
p2806
aS'back'
p2807
aS'door-action'
p2808
ag2744
asg30
(lp2809
g2739
ag2802
ag2803
ag2804
ag2805
ag2806
ag2807
ag2808
ag2744
asba(iMeme
Meme
p2810
(dp2811
g3
(lp2812
g53
aS'can'
p2813
aS'count'
p2814
aS'the'
p2815
aS'guys'
p2816
ag53
aS"'ve"
p2817
aS'been'
p2818
aS'with'
p2819
aS'on'
p2820
aS'one'
p2821
aS'hand'
p2822
aS'...'
p2823
asg15
S"i can count the guys i've been with on one hand..."
p2824
sg17
S'(opens and closes palm) five, ten, fifteen, twenty...'
p2825
sg19
Vsheltered-college-freshman
p2826
sg21
(lp2827
g53
ag2813
ag2814
ag2815
ag2816
ag53
ag2817
ag2818
ag2819
ag2820
ag2821
ag2822
ag2823
ag2739
aS'opens'
p2828
aS'and'
p2829
aS'closes'
p2830
aS'palm'
p2831
ag2744
aS'five'
p2832
ag220
aS'ten'
p2833
ag220
aS'fifteen'
p2834
ag220
aS'twenty'
p2835
aS'...'
p2836
asg30
(lp2837
g2739
ag2828
ag2829
ag2830
ag2831
ag2744
ag2832
ag220
ag2833
ag220
ag2834
ag220
ag2835
ag2836
asba(iMeme
Meme
p2838
(dp2839
g3
(lp2840
S'bitches'
p2841
aS'be'
p2842
aS'like'
p2843
aS'im'
p2844
ag28
aS'good'
p2845
aS'girl'
p2846
asg15
S'bitches be like im a good girl'
p2847
sg17
S'2nd week at college  loving the crew!'
p2848
sg19
Vsheltered-college-freshman
p2849
sg21
(lp2850
g2841
ag2842
ag2843
ag2844
ag28
ag2845
ag2846
aS'2nd'
p2851
aS'week'
p2852
aS'at'
p2853
aS'college'
p2854
aS'loving'
p2855
aS'the'
p2856
aS'crew'
p2857
ag266
asg30
(lp2858
g2851
ag2852
ag2853
ag2854
ag2855
ag2856
ag2857
ag266
asba(iMeme
Meme
p2859
(dp2860
g3
(lp2861
S'my'
p2862
aS'parents'
p2863
aS'paid'
p2864
aS'for'
p2865
aS'my'
p2866
aS'college'
p2867
asg15
S'my parents paid for my college'
p2868
sg17
S'i know i know ill have money but will have white people problems'
p2869
sg19
Vsheltered-college-freshman
p2870
sg21
(lp2871
g2862
ag2863
ag2864
ag2865
ag2866
ag2867
ag53
aS'know'
p2872
ag53
aS'know'
p2873
aS'ill'
p2874
aS'have'
p2875
aS'money'
p2876
aS'but'
p2877
aS'will'
p2878
aS'have'
p2879
aS'white'
p2880
aS'people'
p2881
aS'problems'
p2882
asg30
(lp2883
g53
ag2872
ag53
ag2873
ag2874
ag2875
ag2876
ag2877
ag2878
ag2879
ag2880
ag2881
ag2882
asba(iMeme
Meme
p2884
(dp2885
g3
(lp2886
S'the'
p2887
aS'saint'
p2888
aS'john'
p2889
aS'guys'
p2890
asg15
S'the saint john guys'
p2891
sg17
S"they're so nice to me."
p2892
sg19
Vsheltered-college-freshman
p2893
sg21
(lp2894
g2887
ag2888
ag2889
ag2890
aS'they'
p2895
aS"'re"
p2896
aS'so'
p2897
aS'nice'
p2898
aS'to'
p2899
aS'me'
p2900
ag462
asg30
(lp2901
g2895
ag2896
ag2897
ag2898
ag2899
ag2900
ag462
asba(iMeme
Meme
p2902
(dp2903
g3
(lp2904
g53
aS'go'
p2905
aS'to'
p2906
aS'school'
p2907
asg15
S'i go to school'
p2908
sg17
S'and suck as much cock as i can'
p2909
sg19
Vsheltered-college-freshman
p2910
sg21
(lp2911
g53
ag2905
ag2906
ag2907
aS'and'
p2912
aS'suck'
p2913
aS'as'
p2914
aS'much'
p2915
aS'cock'
p2916
aS'as'
p2917
ag53
aS'can'
p2918
asg30
(lp2919
g2912
ag2913
ag2914
ag2915
ag2916
ag2917
ag53
ag2918
asba(iMeme
Meme
p2920
(dp2921
g3
(lp2922
S'entra'
p2923
aS'no'
p2924
aS'ensino'
p2925
aS'superior'
p2926
asg15
S'entra no ensino superior'
p2927
sg17
S'fica logo com problemas nas costas e nos joelhos'
p2928
sg19
Vsheltered-college-freshman
p2929
sg21
(lp2930
g2923
ag2924
ag2925
ag2926
aS'fica'
p2931
aS'logo'
p2932
aS'com'
p2933
aS'problemas'
p2934
aS'nas'
p2935
aS'costas'
p2936
ag1120
aS'nos'
p2937
aS'joelhos'
p2938
asg30
(lp2939
g2931
ag2932
ag2933
ag2934
ag2935
ag2936
ag1120
ag2937
ag2938
asba(iMeme
Meme
p2940
(dp2941
g3
(lp2942
S'entra'
p2943
aS'no'
p2944
aS'ensino'
p2945
aS'superior'
p2946
asg15
S'entra no ensino superior'
p2947
sg17
S'fica logo com problemas nas costas e nos joelhos'
p2948
sg19
Vsheltered-college-freshman
p2949
sg21
(lp2950
g2943
ag2944
ag2945
ag2946
aS'fica'
p2951
aS'logo'
p2952
aS'com'
p2953
aS'problemas'
p2954
aS'nas'
p2955
aS'costas'
p2956
ag1120
aS'nos'
p2957
aS'joelhos'
p2958
asg30
(lp2959
g2951
ag2952
ag2953
ag2954
ag2955
ag2956
ag1120
ag2957
ag2958
asba(iMeme
Meme
p2960
(dp2961
g3
(lp2962
S'you'
p2963
aS'live'
p2964
aS'in'
p2965
aS'barton-lundgren'
p2966
ag14
asg15
S'you live in barton-lundgren?'
p2967
sg17
S"what's barton-lundgren?"
p2968
sg19
Vsheltered-college-freshman
p2969
sg21
(lp2970
g2963
ag2964
ag2965
ag2966
ag14
aS'what'
p2971
aS"'s"
p2972
aS'barton-lundgren'
p2973
ag14
asg30
(lp2974
g2971
ag2972
ag2973
ag14
asba(iMeme
Meme
p2975
(dp2976
g3
(lp2977
S'weather'
p2978
aS'under'
p2979
aS'100'
p2980
aS'degrees'
p2981
ag14
asg15
S'weather under 100 degrees?'
p2982
sg17
S'time for scarf and boots.'
p2983
sg19
Vsheltered-college-freshman
p2984
sg21
(lp2985
g2978
ag2979
ag2980
ag2981
ag14
aS'time'
p2986
aS'for'
p2987
aS'scarf'
p2988
aS'and'
p2989
aS'boots'
p2990
ag462
asg30
(lp2991
g2986
ag2987
ag2988
ag2989
ag2990
ag462
asba(iMeme
Meme
p2992
(dp2993
g3
(lp2994
S'reality'
p2995
aS':'
p2996
ag53
aS"'m"
p2997
aS'not'
p2998
ag28
aS'bitch'
p2999
ag462
aS'you'
p3000
aS"'re"
p3001
aS'just'
p3002
aS'jealous'
p3003
aS'and'
p3004
aS'pissed'
p3005
aS'that'
p3006
ag53
aS'left'
p3007
aS'your'
p3008
aS'no'
p3009
aS'good'
p3010
ag220
aS'lazy,'
p3011
asg15
S"reality: i'm not a bitch. you're just jealous and pissed that i left your no good, lazy,"
p3012
sg17
S'egotistical, think you know it all ass ,because i knew i could do better, now get over it!'
p3013
sg19
Vsheltered-college-freshman
p3014
sg21
(lp3015
g2995
ag2996
ag53
ag2997
ag2998
ag28
ag2999
ag462
ag3000
ag3001
ag3002
ag3003
ag3004
ag3005
ag3006
ag53
ag3007
ag3008
ag3009
ag3010
ag220
ag3011
aS'egotistical'
p3016
ag220
aS'think'
p3017
aS'you'
p3018
aS'know'
p3019
aS'it'
p3020
aS'all'
p3021
aS'ass'
p3022
ag220
aS'because'
p3023
ag53
aS'knew'
p3024
ag53
aS'could'
p3025
aS'do'
p3026
aS'better'
p3027
ag220
aS'now'
p3028
aS'get'
p3029
aS'over'
p3030
aS'it'
p3031
ag266
asg30
(lp3032
g3016
ag220
ag3017
ag3018
ag3019
ag3020
ag3021
ag3022
ag220
ag3023
ag53
ag3024
ag53
ag3025
ag3026
ag3027
ag220
ag3028
ag3029
ag3030
ag3031
ag266
asba(iMeme
Meme
p3033
(dp3034
g3
(lp3035
S'thinks'
p3036
aS'im'
p3037
aS'creepy'
p3038
asg15
S'thinks im creepy'
p3039
sg17
S'really just shy'
p3040
sg19
Vsheltered-college-freshman
p3041
sg21
(lp3042
g3036
ag3037
ag3038
aS'really'
p3043
aS'just'
p3044
aS'shy'
p3045
asg30
(lp3046
g3043
ag3044
ag3045
asba(iMeme
Meme
p3047
(dp3048
g3
(lp3049
S'did'
p3050
aS"n't"
p3051
aS'study'
p3052
aS'...'
p3053
asg15
S"didn't study..."
p3054
sg17
S'got job asking "do you want fries with that?"'
p3055
sg19
Vsheltered-college-freshman
p3056
sg21
(lp3057
g3050
ag3051
ag3052
ag3053
aS'got'
p3058
aS'job'
p3059
aS'asking'
p3060
aS'``'
p3061
aS'do'
p3062
aS'you'
p3063
aS'want'
p3064
aS'fries'
p3065
aS'with'
p3066
aS'that'
p3067
ag14
aS"''"
p3068
asg30
(lp3069
g3058
ag3059
ag3060
ag3061
ag3062
ag3063
ag3064
ag3065
ag3066
ag3067
ag14
ag3068
asba(iMeme
Meme
p3070
(dp3071
g3
(lp3072
S'gets'
p3073
aS'to'
p3074
aS'campus'
p3075
aS'15'
p3076
aS'minutes'
p3077
aS'before'
p3078
aS'class'
p3079
asg15
S'gets to campus 15 minutes before class'
p3080
sg17
S'expects to find parking'
p3081
sg19
Vsheltered-college-freshman
p3082
sg21
(lp3083
g3073
ag3074
ag3075
ag3076
ag3077
ag3078
ag3079
aS'expects'
p3084
aS'to'
p3085
aS'find'
p3086
aS'parking'
p3087
asg30
(lp3088
g3084
ag3085
ag3086
ag3087
asba(iMeme
Meme
p3089
(dp3090
g3
(lp3091
S'sex'
p3092
aS'den'
p3093
ag14
asg15
S'sex den?'
p3094
sg17
S"what's that"
p3095
sg19
Vsheltered-college-freshman
p3096
sg21
(lp3097
g3092
ag3093
ag14
aS'what'
p3098
aS"'s"
p3099
aS'that'
p3100
asg30
(lp3101
g3098
ag3099
ag3100
asba(iMeme
Meme
p3102
(dp3103
g3
(lp3104
g53
aS'use'
p3105
aS'these'
p3106
aS'books,'
p3107
asg15
S'i use these books,'
p3108
sg17
S'to hide the porn im actually reading.'
p3109
sg19
Vsheltered-college-freshman
p3110
sg21
(lp3111
g53
ag3105
ag3106
ag3107
aS'to'
p3112
aS'hide'
p3113
aS'the'
p3114
aS'porn'
p3115
aS'im'
p3116
aS'actually'
p3117
aS'reading'
p3118
ag462
asg30
(lp3119
g3112
ag3113
ag3114
ag3115
ag3116
ag3117
ag3118
ag462
asba(iMeme
Meme
p3120
(dp3121
g3
(lp3122
g53
aS'ca'
p3123
aS"n't"
p3124
aS'wait'
p3125
aS'to'
p3126
aS'fuck'
p3127
aS'up'
p3128
asg15
S"i can't wait to fuck up"
p3129
sg17
S'julio jones career!!'
p3130
sg19
Vsheltered-college-freshman
p3131
sg21
(lp3132
g53
ag3123
ag3124
ag3125
ag3126
ag3127
ag3128
aS'julio'
p3133
aS'jones'
p3134
aS'career'
p3135
ag266
ag266
asg30
(lp3136
g3133
ag3134
ag3135
ag266
ag266
asba(iMeme
Meme
p3137
(dp3138
g3
(lp3139
S'beta'
p3140
aS'is'
p3141
aS'just'
p3142
aS'early'
p3143
aS'access'
p3144
asg15
S'beta is just early access'
p3145
sg17
S'why cant i log in?'
p3146
sg19
Vsheltered-college-freshman
p3147
sg21
(lp3148
g3140
ag3141
ag3142
ag3143
ag3144
aS'why'
p3149
aS'cant'
p3150
ag53
aS'log'
p3151
aS'in'
p3152
ag14
asg30
(lp3153
g3149
ag3150
ag53
ag3151
ag3152
ag14
asba(iMeme
Meme
p3154
(dp3155
g3
(lp3156
S'woohoo'
p3157
ag266
ag266
aS'first'
p3158
aS'day'
p3159
aS'in'
p3160
aS'college'
p3161
asg15
S'woohoo!! first day in college'
p3162
sg17
S'every guy hits on me'
p3163
sg19
Vsheltered-college-freshman
p3164
sg21
(lp3165
g3157
ag266
ag266
ag3158
ag3159
ag3160
ag3161
aS'every'
p3166
aS'guy'
p3167
aS'hits'
p3168
aS'on'
p3169
aS'me'
p3170
asg30
(lp3171
g3166
ag3167
ag3168
ag3169
ag3170
asba(iMeme
Meme
p3172
(dp3173
g3
(lp3174
S'liberals'
p3175
aS'lied'
p3176
ag220
aS'your'
p3177
aS'fine'
p3178
aS'arts'
p3179
aS'degree'
p3180
aS'is'
p3181
aS'worthless'
p3182
asg15
S'liberals lied, your fine arts degree is worthless'
p3183
sg17
S'now you have to learn that rich people are assholes for not inventing a job for you'
p3184
sg19
Vsheltered-college-freshman
p3185
sg21
(lp3186
g3175
ag3176
ag220
ag3177
ag3178
ag3179
ag3180
ag3181
ag3182
aS'now'
p3187
aS'you'
p3188
aS'have'
p3189
aS'to'
p3190
aS'learn'
p3191
aS'that'
p3192
aS'rich'
p3193
aS'people'
p3194
aS'are'
p3195
aS'assholes'
p3196
aS'for'
p3197
aS'not'
p3198
aS'inventing'
p3199
ag28
aS'job'
p3200
aS'for'
p3201
aS'you'
p3202
asg30
(lp3203
g3187
ag3188
ag3189
ag3190
ag3191
ag3192
ag3193
ag3194
ag3195
ag3196
ag3197
ag3198
ag3199
ag28
ag3200
ag3201
ag3202
asba(iMeme
Meme
p3204
(dp3205
g3
(lp3206
S'liberals'
p3207
aS'lied'
p3208
aS'to'
p3209
aS'you'
p3210
ag220
aS'your'
p3211
aS'degree'
p3212
aS'in'
p3213
aS'fine'
p3214
aS'arts'
p3215
aS'wo'
p3216
aS"n't"
p3217
aS'gain'
p3218
aS'you'
p3219
aS'any'
p3220
aS'useful'
p3221
aS'employment'
p3222
asg15
S"liberals lied to you, your degree in fine arts won't gain you any useful employment"
p3223
sg17
S"but we have rich people to blame cause you can't pay your bill, you idiot!"
p3224
sg19
Vsheltered-college-freshman
p3225
sg21
(lp3226
g3207
ag3208
ag3209
ag3210
ag220
ag3211
ag3212
ag3213
ag3214
ag3215
ag3216
ag3217
ag3218
ag3219
ag3220
ag3221
ag3222
aS'but'
p3227
aS'we'
p3228
aS'have'
p3229
aS'rich'
p3230
aS'people'
p3231
aS'to'
p3232
aS'blame'
p3233
aS'cause'
p3234
aS'you'
p3235
aS'ca'
p3236
aS"n't"
p3237
aS'pay'
p3238
aS'your'
p3239
aS'bill'
p3240
ag220
aS'you'
p3241
aS'idiot'
p3242
ag266
asg30
(lp3243
g3227
ag3228
ag3229
ag3230
ag3231
ag3232
ag3233
ag3234
ag3235
ag3236
ag3237
ag3238
ag3239
ag3240
ag220
ag3241
ag3242
ag266
asba(iMeme
Meme
p3244
(dp3245
g3
(lp3246
S'your'
p3247
aS'degree'
p3248
aS'in'
p3249
aS'african'
p3250
aS'studies'
p3251
aS'wo'
p3252
aS"n't"
p3253
aS'gain'
p3254
aS'you'
p3255
aS'any'
p3256
aS'employment'
p3257
asg15
S"your degree in african studies won't gain you any employment"
p3258
sg17
S'but we have rich people to pay your bill, you waste!'
p3259
sg19
Vsheltered-college-freshman
p3260
sg21
(lp3261
g3247
ag3248
ag3249
ag3250
ag3251
ag3252
ag3253
ag3254
ag3255
ag3256
ag3257
aS'but'
p3262
aS'we'
p3263
aS'have'
p3264
aS'rich'
p3265
aS'people'
p3266
aS'to'
p3267
aS'pay'
p3268
aS'your'
p3269
aS'bill'
p3270
ag220
aS'you'
p3271
aS'waste'
p3272
ag266
asg30
(lp3273
g3262
ag3263
ag3264
ag3265
ag3266
ag3267
ag3268
ag3269
ag3270
ag220
ag3271
ag3272
ag266
asba(iMeme
Meme
p3274
(dp3275
g3
(lp3276
S'your'
p3277
aS'degree'
p3278
aS'in'
p3279
aS'african'
p3280
aS'studies'
p3281
aS'wo'
p3282
aS"n't"
p3283
aS'gain'
p3284
aS'you'
p3285
aS'employment'
p3286
asg15
S"your degree in african studies won't gain you employment"
p3287
sg17
S'but we have rich people to pay your bill, you waste!'
p3288
sg19
Vsheltered-college-freshman
p3289
sg21
(lp3290
g3277
ag3278
ag3279
ag3280
ag3281
ag3282
ag3283
ag3284
ag3285
ag3286
aS'but'
p3291
aS'we'
p3292
aS'have'
p3293
aS'rich'
p3294
aS'people'
p3295
aS'to'
p3296
aS'pay'
p3297
aS'your'
p3298
aS'bill'
p3299
ag220
aS'you'
p3300
aS'waste'
p3301
ag266
asg30
(lp3302
g3291
ag3292
ag3293
ag3294
ag3295
ag3296
ag3297
ag3298
ag3299
ag220
ag3300
ag3301
ag266
asba(iMeme
Meme
p3303
(dp3304
g3
(lp3305
S'yep'
p3306
ag220
aS'we'
p3307
aS'all'
p3308
aS'wish'
p3309
aS'...'
p3310
asg15
S'yep, we all wish...'
p3311
sg17
S'we were as great as kelsie andrews'
p3312
sg19
Vsheltered-college-freshman
p3313
sg21
(lp3314
g3306
ag220
ag3307
ag3308
ag3309
ag3310
aS'we'
p3315
aS'were'
p3316
aS'as'
p3317
aS'great'
p3318
aS'as'
p3319
aS'kelsie'
p3320
aS'andrews'
p3321
asg30
(lp3322
g3315
ag3316
ag3317
ag3318
ag3319
ag3320
ag3321
asba(iMeme
Meme
p3323
(dp3324
g3
(lp3325
S'says'
p3326
aS'she'
p3327
aS'does'
p3328
aS"n't"
p3329
aS'know'
p3330
aS'anything'
p3331
aS'about'
p3332
aS'organic'
p3333
aS'chem'
p3334
asg15
S"says she doesn't know anything about organic chem"
p3335
sg17
S'gets a 97% in the class'
p3336
sg19
Vsheltered-college-freshman
p3337
sg21
(lp3338
g3326
ag3327
ag3328
ag3329
ag3330
ag3331
ag3332
ag3333
ag3334
aS'gets'
p3339
ag28
aS'97'
p3340
aS'%'
p3341
aS'in'
p3342
aS'the'
p3343
aS'class'
p3344
asg30
(lp3345
g3339
ag28
ag3340
ag3341
ag3342
ag3343
ag3344
asba(iMeme
Meme
p3346
(dp3347
g3
(lp3348
g53
aS'come'
p3349
aS'to'
p3350
aS'learn'
p3351
asg15
S'i come to learn'
p3352
sg17
S'how to kill david cameron'
p3353
sg19
Vsheltered-college-freshman
p3354
sg21
(lp3355
g53
ag3349
ag3350
ag3351
aS'how'
p3356
aS'to'
p3357
aS'kill'
p3358
aS'david'
p3359
aS'cameron'
p3360
asg30
(lp3361
g3356
ag3357
ag3358
ag3359
ag3360
asba(iMeme
Meme
p3362
(dp3363
g3
(lp3364
S'if'
p3365
aS'you'
p3366
aS'do'
p3367
aS"n't"
p3368
aS'like'
p3369
aS'my'
p3370
aS'changes'
p3371
asg15
S"if you don't like my changes"
p3372
sg17
S'you can always edit "your face"'
p3373
sg19
Vsheltered-college-freshman
p3374
sg21
(lp3375
g3365
ag3366
ag3367
ag3368
ag3369
ag3370
ag3371
aS'you'
p3376
aS'can'
p3377
aS'always'
p3378
aS'edit'
p3379
aS'``'
p3380
aS'your'
p3381
aS'face'
p3382
aS"''"
p3383
asg30
(lp3384
g3376
ag3377
ag3378
ag3379
ag3380
ag3381
ag3382
ag3383
asba(iMeme
Meme
p3385
(dp3386
g3
(lp3387
S'told'
p3388
aS'parents'
p3389
aS'she'
p3390
aS'was'
p3391
aS'studying'
p3392
aS'art'
p3393
aS'expressions'
p3394
asg15
S'told parents she was studying art expressions'
p3395
sg17
S'thinks cheerleading practice is the class.'
p3396
sg19
Vsheltered-college-freshman
p3397
sg21
(lp3398
g3388
ag3389
ag3390
ag3391
ag3392
ag3393
ag3394
aS'thinks'
p3399
aS'cheerleading'
p3400
aS'practice'
p3401
aS'is'
p3402
aS'the'
p3403
aS'class'
p3404
ag462
asg30
(lp3405
g3399
ag3400
ag3401
ag3402
ag3403
ag3404
ag462
asba(iMeme
Meme
p3406
(dp3407
g3
(lp3408
S'majors'
p3409
aS'in'
p3410
aS'massage'
p3411
aS'therapy'
p3412
asg15
S'majors in massage therapy'
p3413
sg17
S'wants a six figure job'
p3414
sg19
Vsheltered-college-freshman
p3415
sg21
(lp3416
g3409
ag3410
ag3411
ag3412
aS'wants'
p3417
ag28
aS'six'
p3418
aS'figure'
p3419
aS'job'
p3420
asg30
(lp3421
g3417
ag28
ag3418
ag3419
ag3420
asba(iMeme
Meme
p3422
(dp3423
g3
(lp3424
S'what'
p3425
aS'means'
p3426
aS'``'
p3427
aS'rlc'
p3428
aS"''"
p3429
ag14
asg15
S'what means "rlc" ?'
p3430
sg17
S"it's the name of a unil building where epfl students come to disturb"
p3431
sg19
Vsheltered-college-freshman
p3432
sg21
(lp3433
g3425
ag3426
ag3427
ag3428
ag3429
ag14
aS'it'
p3434
aS"'s"
p3435
aS'the'
p3436
aS'name'
p3437
aS'of'
p3438
ag28
aS'unil'
p3439
aS'building'
p3440
aS'where'
p3441
aS'epfl'
p3442
aS'students'
p3443
aS'come'
p3444
aS'to'
p3445
aS'disturb'
p3446
asg30
(lp3447
g3434
ag3435
ag3436
ag3437
ag3438
ag28
ag3439
ag3440
ag3441
ag3442
ag3443
ag3444
ag3445
ag3446
asba(iMeme
Meme
p3448
(dp3449
g3
(lp3450
S'hears'
p3451
aS'about'
p3452
aS'bamboo'
p3453
aS'shack'
p3454
asg15
S'hears about bamboo shack'
p3455
sg17
S'believes all homes are shacks of bamboo'
p3456
sg19
Vsheltered-college-freshman
p3457
sg21
(lp3458
g3451
ag3452
ag3453
ag3454
aS'believes'
p3459
aS'all'
p3460
aS'homes'
p3461
aS'are'
p3462
aS'shacks'
p3463
aS'of'
p3464
aS'bamboo'
p3465
asg30
(lp3466
g3459
ag3460
ag3461
ag3462
ag3463
ag3464
ag3465
asba(iMeme
Meme
p3467
(dp3468
g3
(lp3469
S'you'
p3470
aS'think'
p3471
aS'you'
p3472
aS'got'
p3473
aS'away'
p3474
aS'with'
p3475
aS'leaving'
p3476
asg15
S'you think you got away with leaving'
p3477
sg17
S'leaving early yesterday think again. btw the way nice shoes!'
p3478
sg19
Vsheltered-college-freshman
p3479
sg21
(lp3480
g3470
ag3471
ag3472
ag3473
ag3474
ag3475
ag3476
aS'leaving'
p3481
aS'early'
p3482
aS'yesterday'
p3483
aS'think'
p3484
aS'again'
p3485
ag462
aS'btw'
p3486
aS'the'
p3487
aS'way'
p3488
aS'nice'
p3489
aS'shoes'
p3490
ag266
asg30
(lp3491
g3481
ag3482
ag3483
ag3484
ag3485
ag462
ag3486
ag3487
ag3488
ag3489
ag3490
ag266
asba(iMeme
Meme
p3492
(dp3493
g3
(lp3494
S'you'
p3495
aS'think'
p3496
aS'you'
p3497
aS'got'
p3498
aS'away'
p3499
aS'with'
p3500
asg15
S'you think you got away with'
p3501
sg17
S'leaving early yesterday think again. btw the way shoes'
p3502
sg19
Vsheltered-college-freshman
p3503
sg21
(lp3504
g3495
ag3496
ag3497
ag3498
ag3499
ag3500
aS'leaving'
p3505
aS'early'
p3506
aS'yesterday'
p3507
aS'think'
p3508
aS'again'
p3509
ag462
aS'btw'
p3510
aS'the'
p3511
aS'way'
p3512
aS'shoes'
p3513
asg30
(lp3514
g3505
ag3506
ag3507
ag3508
ag3509
ag462
ag3510
ag3511
ag3512
ag3513
asba(iMeme
Meme
p3515
(dp3516
g3
(lp3517
g53
aS'am'
p3518
aS'going'
p3519
aS'to'
p3520
aS'stab'
p3521
asg15
S'i am going to stab'
p3522
sg17
S'you in the back with my smile'
p3523
sg19
Vsheltered-college-freshman
p3524
sg21
(lp3525
g53
ag3518
ag3519
ag3520
ag3521
aS'you'
p3526
aS'in'
p3527
aS'the'
p3528
aS'back'
p3529
aS'with'
p3530
aS'my'
p3531
aS'smile'
p3532
asg30
(lp3533
g3526
ag3527
ag3528
ag3529
ag3530
ag3531
ag3532
asba(iMeme
Meme
p3534
(dp3535
g3
(lp3536
S'can'
p3537
aS'shut'
p3538
aS'down'
p3539
asg15
S'can shut down'
p3540
sg17
S'just not up'
p3541
sg19
Vsheltered-college-freshman
p3542
sg21
(lp3543
g3537
ag3538
ag3539
aS'just'
p3544
aS'not'
p3545
aS'up'
p3546
asg30
(lp3547
g3544
ag3545
ag3546
asba(iMeme
Meme
p3548
(dp3549
g3
(lp3550
S'gets'
p3551
aS'drunk'
p3552
aS'at'
p3553
aS'marks'
p3554
aS'house'
p3555
aS'for'
p3556
aS'the'
p3557
aS'first'
p3558
aS'time'
p3559
aS'...'
p3560
asg15
S'gets drunk at marks house for the first time...'
p3561
sg17
S'ends up pregnant'
p3562
sg19
Vsheltered-college-freshman
p3563
sg21
(lp3564
g3551
ag3552
ag3553
ag3554
ag3555
ag3556
ag3557
ag3558
ag3559
ag3560
aS'ends'
p3565
aS'up'
p3566
aS'pregnant'
p3567
asg30
(lp3568
g3565
ag3566
ag3567
asba(iMeme
Meme
p3569
(dp3570
g3
(lp3571
S'chaltalians'
p3572
aS'win'
p3573
aS'today'
p3574
aS'...'
p3575
asg15
S'chaltalians win today...'
p3576
sg17
S'means a fuckin winning streak'
p3577
sg19
Vsheltered-college-freshman
p3578
sg21
(lp3579
g3572
ag3573
ag3574
ag3575
aS'means'
p3580
ag28
aS'fuckin'
p3581
aS'winning'
p3582
aS'streak'
p3583
asg30
(lp3584
g3580
ag28
ag3581
ag3582
ag3583
asba(iMeme
Meme
p3585
(dp3586
g3
(lp3587
S'chaltalians'
p3588
aS'win'
p3589
aS'today'
p3590
asg15
S'chaltalians win today'
p3591
sg17
S'its a winning streak?'
p3592
sg19
Vsheltered-college-freshman
p3593
sg21
(lp3594
g3588
ag3589
ag3590
aS'its'
p3595
ag28
aS'winning'
p3596
aS'streak'
p3597
ag14
asg30
(lp3598
g3595
ag28
ag3596
ag3597
ag14
asba(iMeme
Meme
p3599
(dp3600
g3
(lp3601
S'you'
p3602
aS'want'
p3603
aS'to'
p3604
aS'share'
p3605
aS'your'
p3606
aS'testimony'
p3607
aS'with'
p3608
aS'me'
p3609
aS'in'
p3610
aS'the'
p3611
aS'a-frame'
p3612
ag14
asg15
S'you want to share your testimony with me in the a-frame?'
p3613
sg17
S'okay!'
p3614
sg19
Vsheltered-college-freshman
p3615
sg21
(lp3616
g3602
ag3603
ag3604
ag3605
ag3606
ag3607
ag3608
ag3609
ag3610
ag3611
ag3612
ag14
aS'okay'
p3617
ag266
asg30
(lp3618
g3617
ag266
asba(iMeme
Meme
p3619
(dp3620
g3
(lp3621
S'you'
p3622
aS'to'
p3623
aS'want'
p3624
aS'share'
p3625
aS'your'
p3626
aS'testimony'
p3627
aS'with'
p3628
aS'me'
p3629
aS'in'
p3630
aS'the'
p3631
aS'a-frame'
p3632
ag14
asg15
S'you to want share your testimony with me in the a-frame?'
p3633
sg17
S'okay!'
p3634
sg19
Vsheltered-college-freshman
p3635
sg21
(lp3636
g3622
ag3623
ag3624
ag3625
ag3626
ag3627
ag3628
ag3629
ag3630
ag3631
ag3632
ag14
aS'okay'
p3637
ag266
asg30
(lp3638
g3637
ag266
asba(iMeme
Meme
p3639
(dp3640
g3
(lp3641
S'you'
p3642
aS'want'
p3643
aS'share'
p3644
aS'your'
p3645
aS'testimony'
p3646
aS'with'
p3647
aS'me'
p3648
aS'in'
p3649
aS'the'
p3650
aS'a-frame'
p3651
ag14
asg15
S'you want share your testimony with me in the a-frame?'
p3652
sg17
S'okay!'
p3653
sg19
Vsheltered-college-freshman
p3654
sg21
(lp3655
g3642
ag3643
ag3644
ag3645
ag3646
ag3647
ag3648
ag3649
ag3650
ag3651
ag14
aS'okay'
p3656
ag266
asg30
(lp3657
g3656
ag266
asba(iMeme
Meme
p3658
(dp3659
g3
(lp3660
S'saw'
p3661
aS'an'
p3662
aS'improv'
p3663
aS'show'
p3664
asg15
S'saw an improv show'
p3665
sg17
S"didn't realise it was all made up"
p3666
sg19
Vsheltered-college-freshman
p3667
sg21
(lp3668
g3661
ag3662
ag3663
ag3664
aS'did'
p3669
aS"n't"
p3670
aS'realise'
p3671
aS'it'
p3672
aS'was'
p3673
aS'all'
p3674
aS'made'
p3675
aS'up'
p3676
asg30
(lp3677
g3669
ag3670
ag3671
ag3672
ag3673
ag3674
ag3675
ag3676
asba(iMeme
Meme
p3678
(dp3679
g3
(lp3680
S'my'
p3681
aS'scarf..'
p3682
asg15
S'my scarf..'
p3683
sg17
S'is chocking me!'
p3684
sg19
Vsheltered-college-freshman
p3685
sg21
(lp3686
g3681
ag3682
aS'is'
p3687
aS'chocking'
p3688
aS'me'
p3689
ag266
asg30
(lp3690
g3687
ag3688
ag3689
ag266
asba(iMeme
Meme
p3691
(dp3692
g3
(lp3693
S'megan'
p3694
aS'staunton'
p3695
aS'is'
p3696
asg15
S'megan staunton is'
p3697
sg17
S'shetered college freshman'
p3698
sg19
Vsheltered-college-freshman
p3699
sg21
(lp3700
g3694
ag3695
ag3696
aS'shetered'
p3701
aS'college'
p3702
aS'freshman'
p3703
asg30
(lp3704
g3701
ag3702
ag3703
asba(iMeme
Meme
p3705
(dp3706
g3
(lp3707
S'sleeps'
p3708
aS'around'
p3709
aS'indiscriminately'
p3710
asg15
S'sleeps around indiscriminately'
p3711
sg17
S'pregnancy scare every month.'
p3712
sg19
Vsheltered-college-freshman
p3713
sg21
(lp3714
g3708
ag3709
ag3710
aS'pregnancy'
p3715
aS'scare'
p3716
aS'every'
p3717
aS'month'
p3718
ag462
asg30
(lp3719
g3715
ag3716
ag3717
ag3718
ag462
asba(iMeme
Meme
p3720
(dp3721
g3
(lp3722
S'good'
p3723
aS'night'
p3724
aS'in'
p3725
aS'bed'
p3726
ag14
asg15
S'good night in bed?'
p3727
sg17
S"hahaha - i've given you aids."
p3728
sg19
Vsheltered-college-freshman
p3729
sg21
(lp3730
g3723
ag3724
ag3725
ag3726
ag14
aS'hahaha'
p3731
ag1246
ag53
aS"'ve"
p3732
aS'given'
p3733
aS'you'
p3734
aS'aids'
p3735
ag462
asg30
(lp3736
g3731
ag1246
ag53
ag3732
ag3733
ag3734
ag3735
ag462
asba(iMeme
Meme
p3737
(dp3738
g3
(lp3739
S'once'
p3740
ag53
aS'wasnt'
p3741
ag28
aS'bunny'
p3742
aS'corrupter'
p3743
ag220
aS'but'
p3744
aS'now'
p3745
aS'...'
p3746
ag462
asg15
S'once i wasnt a bunny corrupter, but now....'
p3747
sg17
S'i am'
p3748
sg19
Vsheltered-college-freshman
p3749
sg21
(lp3750
g3740
ag53
ag3741
ag28
ag3742
ag3743
ag220
ag3744
ag3745
ag3746
ag462
ag53
aS'am'
p3751
asg30
(lp3752
g53
ag3751
asba(iMeme
Meme
p3753
(dp3754
g3
(lp3755
S'oh'
p3756
aS'hai'
p3757
ag266
ag266
aS'here'
p3758
aS"'s"
p3759
aS'your'
p3760
aS'print'
p3761
aS'job'
p3762
ag220
aS'for'
p3763
aS'you'
p3764
ag266
ag266
asg15
S"oh hai!! here's your print job, for you!!"
p3765
sg17
S'it was it was on the printer!!  curious!'
p3766
sg19
Vsheltered-college-freshman
p3767
sg21
(lp3768
g3756
ag3757
ag266
ag266
ag3758
ag3759
ag3760
ag3761
ag3762
ag220
ag3763
ag3764
ag266
ag266
aS'it'
p3769
aS'was'
p3770
aS'it'
p3771
aS'was'
p3772
aS'on'
p3773
aS'the'
p3774
aS'printer'
p3775
ag266
ag266
aS'curious'
p3776
ag266
asg30
(lp3777
g3769
ag3770
ag3771
ag3772
ag3773
ag3774
ag3775
ag266
ag266
ag3776
ag266
asba(iMeme
Meme
p3778
(dp3779
g3
(lp3780
S'oh'
p3781
aS'hai'
p3782
ag266
ag266
ag266
aS'you'
p3783
aS'just'
p3784
aS'printed'
p3785
aS'this'
p3786
ag266
asg15
S'oh hai!!! you just printed this!'
p3787
sg17
S'i found it on the printer!!  my work here is done now, kay?'
p3788
sg19
Vsheltered-college-freshman
p3789
sg21
(lp3790
g3781
ag3782
ag266
ag266
ag266
ag3783
ag3784
ag3785
ag3786
ag266
ag53
aS'found'
p3791
aS'it'
p3792
aS'on'
p3793
aS'the'
p3794
aS'printer'
p3795
ag266
ag266
aS'my'
p3796
aS'work'
p3797
aS'here'
p3798
aS'is'
p3799
aS'done'
p3800
aS'now'
p3801
ag220
aS'kay'
p3802
ag14
asg30
(lp3803
g53
ag3791
ag3792
ag3793
ag3794
ag3795
ag266
ag266
ag3796
ag3797
ag3798
ag3799
ag3800
ag3801
ag220
ag3802
ag14
asba(iMeme
Meme
p3804
(dp3805
g3
(lp3806
S'oh'
p3807
aS'hai'
p3808
ag266
aS'here'
p3809
aS"'s"
p3810
ag28
aS'document'
p3811
aS'you'
p3812
aS'just'
p3813
aS'printed'
p3814
ag266
ag266
asg15
S"oh hai!  here's a document you just printed!!"
p3815
sg17
S'i found it, for you!!! it was on the printer!...my work here is done now, kay?'
p3816
sg19
Vsheltered-college-freshman
p3817
sg21
(lp3818
g3807
ag3808
ag266
ag3809
ag3810
ag28
ag3811
ag3812
ag3813
ag3814
ag266
ag266
ag53
aS'found'
p3819
aS'it'
p3820
ag220
aS'for'
p3821
aS'you'
p3822
ag266
ag266
ag266
aS'it'
p3823
aS'was'
p3824
aS'on'
p3825
aS'the'
p3826
aS'printer'
p3827
ag266
aS'...'
p3828
aS'my'
p3829
aS'work'
p3830
aS'here'
p3831
aS'is'
p3832
aS'done'
p3833
aS'now'
p3834
ag220
aS'kay'
p3835
ag14
asg30
(lp3836
g53
ag3819
ag3820
ag220
ag3821
ag3822
ag266
ag266
ag266
ag3823
ag3824
ag3825
ag3826
ag3827
ag266
ag3828
ag3829
ag3830
ag3831
ag3832
ag3833
ag3834
ag220
ag3835
ag14
asba(iMeme
Meme
p3837
(dp3838
g3
(lp3839
S'oh'
p3840
aS'hai'
p3841
ag266
aS'here'
p3842
aS"'s"
p3843
ag28
aS'document'
p3844
ag53
aS'discovered'
p3845
aS'--'
p3846
aS'-on'
p3847
aS'the'
p3848
aS'printer'
p3849
aS'--'
p3850
aS'-i'
p3851
aS'think'
p3852
aS'it'
p3853
aS"'s"
p3854
aS'yours'
p3855
ag266
asg15
S"oh hai!  here's a document i discovered---on the printer---i think it's yours!"
p3856
sg17
S'my work here is done now, kay?'
p3857
sg19
Vsheltered-college-freshman
p3858
sg21
(lp3859
g3840
ag3841
ag266
ag3842
ag3843
ag28
ag3844
ag53
ag3845
ag3846
ag3847
ag3848
ag3849
ag3850
ag3851
ag3852
ag3853
ag3854
ag3855
ag266
aS'my'
p3860
aS'work'
p3861
aS'here'
p3862
aS'is'
p3863
aS'done'
p3864
aS'now'
p3865
ag220
aS'kay'
p3866
ag14
asg30
(lp3867
g3860
ag3861
ag3862
ag3863
ag3864
ag3865
ag220
ag3866
ag14
asba(iMeme
Meme
p3868
(dp3869
g3
(lp3870
S'oh'
p3871
aS'hai'
p3872
ag266
ag53
aS'found'
p3873
aS'this'
p3874
aS'print'
p3875
aS'on'
p3876
aS'the'
p3877
aS'printer'
p3878
aS'--'
p3879
ag53
aS'think'
p3880
aS'it'
p3881
aS"'s"
p3882
aS'yours'
p3883
ag266
asg15
S"oh hai!  i found this print on the printer--i think it's yours!"
p3884
sg17
S'my work here is done now, kay?'
p3885
sg19
Vsheltered-college-freshman
p3886
sg21
(lp3887
g3871
ag3872
ag266
ag53
ag3873
ag3874
ag3875
ag3876
ag3877
ag3878
ag3879
ag53
ag3880
ag3881
ag3882
ag3883
ag266
aS'my'
p3888
aS'work'
p3889
aS'here'
p3890
aS'is'
p3891
aS'done'
p3892
aS'now'
p3893
ag220
aS'kay'
p3894
ag14
asg30
(lp3895
g3888
ag3889
ag3890
ag3891
ag3892
ag3893
ag220
ag3894
ag14
asba(iMeme
Meme
p3896
(dp3897
g3
(lp3898
S'guess'
p3899
aS'what'
p3900
asg15
S'guess what'
p3901
sg17
S"i'm on the front of our website!"
p3902
sg19
Vsheltered-college-freshman
p3903
sg21
(lp3904
g3899
ag3900
ag53
aS"'m"
p3905
aS'on'
p3906
aS'the'
p3907
aS'front'
p3908
aS'of'
p3909
aS'our'
p3910
aS'website'
p3911
ag266
asg30
(lp3912
g53
ag3905
ag3906
ag3907
ag3908
ag3909
ag3910
ag3911
ag266
asba(iMeme
Meme
p3913
(dp3914
g3
(lp3915
g220
ag220
aS'is'
p3916
aS'informatikos'
p3917
aS'gausiu'
p3918
aS'bent'
p3919
ag1457
aS"''"
p3920
asg15
S',,is informatikos gausiu bent 8"'
p3921
sg17
S'gauna 4'
p3922
sg19
Vsheltered-college-freshman
p3923
sg21
(lp3924
g220
ag220
ag3916
ag3917
ag3918
ag3919
ag1457
ag3920
aS'gauna'
p3925
ag2628
asg30
(lp3926
g3925
ag2628
asba(iMeme
Meme
p3927
(dp3928
g3
(lp3929
S'bong'
p3930
aS'hits'
p3931
ag14
asg15
S'bong hits?'
p3932
sg17
S"no thanks, i don't play instruments"
p3933
sg19
Vsheltered-college-freshman
p3934
sg21
(lp3935
g3930
ag3931
ag14
aS'no'
p3936
aS'thanks'
p3937
ag220
ag53
aS'do'
p3938
aS"n't"
p3939
aS'play'
p3940
aS'instruments'
p3941
asg30
(lp3942
g3936
ag3937
ag220
ag53
ag3938
ag3939
ag3940
ag3941
asba(iMeme
Meme
p3943
(dp3944
g3
(lp3945
S'arabian'
p3946
aS'gas'
p3947
aS'mask'
p3948
ag14
asg15
S'arabian gas mask?'
p3949
sg17
S'i hope it keeps sand out of their eyes'
p3950
sg19
Vsheltered-college-freshman
p3951
sg21
(lp3952
g3946
ag3947
ag3948
ag14
ag53
aS'hope'
p3953
aS'it'
p3954
aS'keeps'
p3955
aS'sand'
p3956
aS'out'
p3957
aS'of'
p3958
aS'their'
p3959
aS'eyes'
p3960
asg30
(lp3961
g53
ag3953
ag3954
ag3955
ag3956
ag3957
ag3958
ag3959
ag3960
asba(iMeme
Meme
p3962
(dp3963
g3
(lp3964
S'dreams'
p3965
aS'to'
p3966
aS'be'
p3967
ag28
aS'doctor'
p3968
ag462
asg15
S'dreams to be a doctor.'
p3969
sg17
S'marries a doctor.'
p3970
sg19
Vsheltered-college-freshman
p3971
sg21
(lp3972
g3965
ag3966
ag3967
ag28
ag3968
ag462
aS'marries'
p3973
ag28
aS'doctor'
p3974
ag462
asg30
(lp3975
g3973
ag28
ag3974
ag462
asba(iMeme
Meme
p3976
(dp3977
g3
(lp3978
S'``'
p3979
ag53
aS'bet'
p3980
aS'that'
p3981
aS'douche'
p3982
aS'bag'
p3983
aS'with'
p3984
aS'the'
p3985
aS'long'
p3986
aS'hair'
p3987
aS'and'
p3988
aS'leather'
p3989
aS'jacket'
p3990
aS'will'
p3991
aS'never'
p3992
aS'amount'
p3993
aS'to'
p3994
aS'anything'
p3995
ag462
aS"''"
p3996
asg15
S'"i bet that douche bag with the long hair and leather jacket will never amount to anything."'
p3997
sg17
S'he goes to #38 college in the country; she stays in home town.'
p3998
sg19
Vsheltered-college-freshman
p3999
sg21
(lp4000
g3979
ag53
ag3980
ag3981
ag3982
ag3983
ag3984
ag3985
ag3986
ag3987
ag3988
ag3989
ag3990
ag3991
ag3992
ag3993
ag3994
ag3995
ag462
ag3996
aS'he'
p4001
aS'goes'
p4002
aS'to'
p4003
aS'#'
p4004
aS'38'
p4005
aS'college'
p4006
aS'in'
p4007
aS'the'
p4008
aS'country'
p4009
aS';'
p4010
aS'she'
p4011
aS'stays'
p4012
aS'in'
p4013
aS'home'
p4014
aS'town'
p4015
ag462
asg30
(lp4016
g4001
ag4002
ag4003
ag4004
ag4005
ag4006
ag4007
ag4008
ag4009
ag4010
ag4011
ag4012
ag4013
ag4014
ag4015
ag462
asba(iMeme
Meme
p4017
(dp4018
g3
(lp4019
S'never'
p4020
aS'been'
p4021
aS'to'
p4022
aS'prom'
p4023
ag462
asg15
S'never been to prom.'
p4024
sg17
S'but believe me, i still know who black daddy is.'
p4025
sg19
Vsheltered-college-freshman
p4026
sg21
(lp4027
g4020
ag4021
ag4022
ag4023
ag462
aS'but'
p4028
aS'believe'
p4029
aS'me'
p4030
ag220
ag53
aS'still'
p4031
aS'know'
p4032
aS'who'
p4033
aS'black'
p4034
aS'daddy'
p4035
aS'is'
p4036
ag462
asg30
(lp4037
g4028
ag4029
ag4030
ag220
ag53
ag4031
ag4032
ag4033
ag4034
ag4035
ag4036
ag462
asba(iMeme
Meme
p4038
(dp4039
g3
(lp4040
S'``'
p4041
aS'stage'
p4042
aS'management'
p4043
aS'is'
p4044
aS"n't"
p4045
aS'required'
p4046
aS'for'
p4047
aS'my'
p4048
aS'emphasis'
p4049
ag462
aS"''"
p4050
asg15
S'"stage management isn\'t required for my emphasis."'
p4051
sg17
S'volunteers at community theatre'
p4052
sg19
Vsheltered-college-freshman
p4053
sg21
(lp4054
g4041
ag4042
ag4043
ag4044
ag4045
ag4046
ag4047
ag4048
ag4049
ag462
ag4050
aS'volunteers'
p4055
aS'at'
p4056
aS'community'
p4057
aS'theatre'
p4058
asg30
(lp4059
g4055
ag4056
ag4057
ag4058
asba(iMeme
Meme
p4060
(dp4061
g3
(lp4062
g53
aS'do'
p4063
aS"n't"
p4064
aS'know'
p4065
aS'what'
p4066
ag53
aS"'ll"
p4067
aS'major'
p4068
aS'in'
p4069
ag462
asg15
S"i don't know what i'll major in."
p4070
sg17
S'sucking dick perhaps?'
p4071
sg19
Vsheltered-college-freshman
p4072
sg21
(lp4073
g53
ag4063
ag4064
ag4065
ag4066
ag53
ag4067
ag4068
ag4069
ag462
aS'sucking'
p4074
aS'dick'
p4075
aS'perhaps'
p4076
ag14
asg30
(lp4077
g4074
ag4075
ag4076
ag14
asba(iMeme
Meme
p4078
(dp4079
g3
(lp4080
g53
aS'do'
p4081
aS"n't"
p4082
aS'know'
p4083
aS'what'
p4084
aS'il'
p4085
aS'major'
p4086
aS'in'
p4087
ag462
asg15
S"i don't know what il major in."
p4088
sg17
S'sucking dick perhaps?'
p4089
sg19
Vsheltered-college-freshman
p4090
sg21
(lp4091
g53
ag4081
ag4082
ag4083
ag4084
ag4085
ag4086
ag4087
ag462
aS'sucking'
p4092
aS'dick'
p4093
aS'perhaps'
p4094
ag14
asg30
(lp4095
g4092
ag4093
ag4094
ag14
asba(iMeme
Meme
p4096
(dp4097
g3
(lp4098
S'lemon'
p4099
aS'party'
p4100
ag14
asg15
S'lemon party?'
p4101
sg17
S"i'm more of a republican"
p4102
sg19
Vsheltered-college-freshman
p4103
sg21
(lp4104
g4099
ag4100
ag14
ag53
aS"'m"
p4105
aS'more'
p4106
aS'of'
p4107
ag28
aS'republican'
p4108
asg30
(lp4109
g53
ag4105
ag4106
ag4107
ag28
ag4108
asba(iMeme
Meme
p4110
(dp4111
g3
(lp4112
S'studying'
p4113
aS'to'
p4114
aS'be'
p4115
ag28
aS'nurse'
p4116
asg15
S'studying to be a nurse'
p4117
sg17
S'becomes a stripper'
p4118
sg19
Vsheltered-college-freshman
p4119
sg21
(lp4120
g4113
ag4114
ag4115
ag28
ag4116
aS'becomes'
p4121
ag28
aS'stripper'
p4122
asg30
(lp4123
g4121
ag28
ag4122
asba(iMeme
Meme
p4124
(dp4125
g3
(lp4126
S'you'
p4127
aS'mean'
p4128
asg15
S'you mean'
p4129
sg17
S'i actually have to kiss him?'
p4130
sg19
Vsheltered-college-freshman
p4131
sg21
(lp4132
g4127
ag4128
ag53
aS'actually'
p4133
aS'have'
p4134
aS'to'
p4135
aS'kiss'
p4136
aS'him'
p4137
ag14
asg30
(lp4138
g53
ag4133
ag4134
ag4135
ag4136
ag4137
ag14
asba(iMeme
Meme
p4139
(dp4140
g3
(lp4141
S'you'
p4142
aS'mean'
p4143
asg15
S'you mean'
p4144
sg17
S'i have to kiss him on stage?'
p4145
sg19
Vsheltered-college-freshman
p4146
sg21
(lp4147
g4142
ag4143
ag53
aS'have'
p4148
aS'to'
p4149
aS'kiss'
p4150
aS'him'
p4151
aS'on'
p4152
aS'stage'
p4153
ag14
asg30
(lp4154
g53
ag4148
ag4149
ag4150
ag4151
ag4152
ag4153
ag14
asba(iMeme
Meme
p4155
(dp4156
g3
(lp4157
g53
aS'know'
p4158
aS'the'
p4159
aS'whole'
p4160
aS'...'
p4161
asg15
S'i know the whole...'
p4162
sg17
S'basketball team'
p4163
sg19
Vsheltered-college-freshman
p4164
sg21
(lp4165
g53
ag4158
ag4159
ag4160
ag4161
aS'basketball'
p4166
aS'team'
p4167
asg30
(lp4168
g4166
ag4167
asba(iMeme
Meme
p4169
(dp4170
g3
(lp4171
S'gets'
p4172
ag28
aS'dread'
p4173
asg15
S'gets a dread'
p4174
sg17
S"doesn't smoke"
p4175
sg19
Vsheltered-college-freshman
p4176
sg21
(lp4177
g4172
ag28
ag4173
aS'does'
p4178
aS"n't"
p4179
aS'smoke'
p4180
asg30
(lp4181
g4178
ag4179
ag4180
asba(iMeme
Meme
p4182
(dp4183
g3
(lp4184
S'you'
p4185
aS'can'
p4186
aS'totally'
p4187
aS'live'
p4188
ag28
aS'fufilling'
p4189
aS'life'
p4190
aS'without'
p4191
aS'ever'
p4192
aS'expressing'
p4193
aS'your'
p4194
aS'sexuality'
p4195
ag220
aS'getting'
p4196
aS'married'
p4197
aS'to'
p4198
ag28
aS'p'
p4199
asg15
S'you can totally live a fufilling life without ever expressing your sexuality, getting married to a p'
p4200
sg17
S"there's like philosophy and stuff"
p4201
sg19
Vsheltered-college-freshman
p4202
sg21
(lp4203
g4185
ag4186
ag4187
ag4188
ag28
ag4189
ag4190
ag4191
ag4192
ag4193
ag4194
ag4195
ag220
ag4196
ag4197
ag4198
ag28
ag4199
aS'there'
p4204
aS"'s"
p4205
aS'like'
p4206
aS'philosophy'
p4207
aS'and'
p4208
aS'stuff'
p4209
asg30
(lp4210
g4204
ag4205
ag4206
ag4207
ag4208
ag4209
asba(iMeme
Meme
p4211
(dp4212
g3
(lp4213
g53
aS'thought'
p4214
ag53
aS"'d"
p4215
aS'learn'
p4216
aS'to'
p4217
aS'love'
p4218
aS'other'
p4219
aS'cultures'
p4220
aS'at'
p4221
aS'esc'
p4222
asg15
S"i thought i'd learn to love other cultures at esc"
p4223
sg17
S'now i just hate the french'
p4224
sg19
Vsheltered-college-freshman
p4225
sg21
(lp4226
g53
ag4214
ag53
ag4215
ag4216
ag4217
ag4218
ag4219
ag4220
ag4221
ag4222
aS'now'
p4227
ag53
aS'just'
p4228
aS'hate'
p4229
aS'the'
p4230
aS'french'
p4231
asg30
(lp4232
g4227
ag53
ag4228
ag4229
ag4230
ag4231
asba(iMeme
Meme
p4233
(dp4234
g3
(lp4235
S'when'
p4236
aS'watching'
p4237
aS'preferred'
p4238
aS'stock'
p4239
aS'play,'
p4240
asg15
S'when watching preferred stock play,'
p4241
sg17
S'i fingerfuck myself'
p4242
sg19
Vsheltered-college-freshman
p4243
sg21
(lp4244
g4236
ag4237
ag4238
ag4239
ag4240
ag53
aS'fingerfuck'
p4245
aS'myself'
p4246
asg30
(lp4247
g53
ag4245
ag4246
asba(iMeme
Meme
p4248
(dp4249
g3
(lp4250
S'you'
p4251
aS"'re"
p4252
ag28
aS'kept'
p4253
aS'man'
p4254
asg15
S"you're a kept man"
p4255
sg17
S'get your ass back in the kitchen'
p4256
sg19
Vsheltered-college-freshman
p4257
sg21
(lp4258
g4251
ag4252
ag28
ag4253
ag4254
aS'get'
p4259
aS'your'
p4260
aS'ass'
p4261
aS'back'
p4262
aS'in'
p4263
aS'the'
p4264
aS'kitchen'
p4265
asg30
(lp4266
g4259
ag4260
ag4261
ag4262
ag4263
ag4264
ag4265
asba(iMeme
Meme
p4267
(dp4268
g3
(lp4269
g53
aS"'m"
p4270
aS'gon'
p4271
aS'na'
p4272
aS'have'
p4273
aS'sex'
p4274
aS'by'
p4275
aS'50'
p4276
asg15
S"i'm gonna have sex by 50"
p4277
sg17
S'yeah maybe'
p4278
sg19
Vsheltered-college-freshman
p4279
sg21
(lp4280
g53
ag4270
ag4271
ag4272
ag4273
ag4274
ag4275
ag4276
aS'yeah'
p4281
aS'maybe'
p4282
asg30
(lp4283
g4281
ag4282
asba(iMeme
Meme
p4284
(dp4285
g3
(lp4286
S'fisting'
p4287
ag14
asg15
S'fisting?'
p4288
sg17
S"sorry, i'm a pacifist"
p4289
sg19
Vsheltered-college-freshman
p4290
sg21
(lp4291
g4287
ag14
aS'sorry'
p4292
ag220
ag53
aS"'m"
p4293
ag28
aS'pacifist'
p4294
asg30
(lp4295
g4292
ag220
ag53
ag4293
ag28
ag4294
asba(iMeme
Meme
p4296
(dp4297
g3
(lp4298
S'tea'
p4299
aS'bag'
p4300
ag14
asg15
S'tea bag?'
p4301
sg17
S'no thanks i drink coffee'
p4302
sg19
Vsheltered-college-freshman
p4303
sg21
(lp4304
g4299
ag4300
ag14
aS'no'
p4305
aS'thanks'
p4306
ag53
aS'drink'
p4307
aS'coffee'
p4308
asg30
(lp4309
g4305
ag4306
ag53
ag4307
ag4308
asba(iMeme
Meme
p4310
(dp4311
g3
(lp4312
S'``'
p4313
ag53
aS"'m"
p4314
aS'insecure'
p4315
aS'about'
p4316
aS'my'
p4317
aS'body'
p4318
aS"''"
p4319
asg15
S'"i\'m insecure about my body"'
p4320
sg17
S'tans outside the duc windows'
p4321
sg19
Vsheltered-college-freshman
p4322
sg21
(lp4323
g4313
ag53
ag4314
ag4315
ag4316
ag4317
ag4318
ag4319
aS'tans'
p4324
aS'outside'
p4325
aS'the'
p4326
aS'duc'
p4327
aS'windows'
p4328
asg30
(lp4329
g4324
ag4325
ag4326
ag4327
ag4328
asba(iMeme
Meme
p4330
(dp4331
g3
(lp4332
S'slut'
p4333
aS'shames'
p4334
asg15
S'slut shames'
p4335
sg17
S'gets mad when slut shamed'
p4336
sg19
Vsheltered-college-freshman
p4337
sg21
(lp4338
g4333
ag4334
aS'gets'
p4339
aS'mad'
p4340
aS'when'
p4341
aS'slut'
p4342
aS'shamed'
p4343
asg30
(lp4344
g4339
ag4340
ag4341
ag4342
ag4343
asba(iMeme
Meme
p4345
(dp4346
g3
(lp4347
S'western'
p4348
aS'is'
p4349
ag28
aS'dry'
p4350
aS'campus'
p4351
asg15
S'western is a dry campus'
p4352
sg17
S'gets shitfaced first night of the school year'
p4353
sg19
Vsheltered-college-freshman
p4354
sg21
(lp4355
g4348
ag4349
ag28
ag4350
ag4351
aS'gets'
p4356
aS'shitfaced'
p4357
aS'first'
p4358
aS'night'
p4359
aS'of'
p4360
aS'the'
p4361
aS'school'
p4362
aS'year'
p4363
asg30
(lp4364
g4356
ag4357
ag4358
ag4359
ag4360
ag4361
ag4362
ag4363
asba(iMeme
Meme
p4365
(dp4366
g3
(lp4367
S'yes'
p4368
asg15
S'yes'
p4369
sg17
S'that would be correct.'
p4370
sg19
Vsheltered-college-freshman
p4371
sg21
(lp4372
g4368
aS'that'
p4373
aS'would'
p4374
aS'be'
p4375
aS'correct'
p4376
ag462
asg30
(lp4377
g4373
ag4374
ag4375
ag4376
ag462
asba(iMeme
Meme
p4378
(dp4379
g3
(lp4380
S'non'
p4381
aS'traditional'
p4382
aS'student'
p4383
ag14
asg15
S'non traditional student?'
p4384
sg17
S'i believe it!'
p4385
sg19
Vsheltered-college-freshman
p4386
sg21
(lp4387
g4381
ag4382
ag4383
ag14
ag53
aS'believe'
p4388
aS'it'
p4389
ag266
asg30
(lp4390
g53
ag4388
ag4389
ag266
asba(iMeme
Meme
p4391
(dp4392
g3
(lp4393
S'16th'
p4394
aS'street'
p4395
aS'alone'
p4396
ag14
asg15
S'16th street alone?'
p4397
sg17
S"you're lucky you didn't get shot."
p4398
sg19
Vsheltered-college-freshman
p4399
sg21
(lp4400
g4394
ag4395
ag4396
ag14
aS'you'
p4401
aS"'re"
p4402
aS'lucky'
p4403
aS'you'
p4404
aS'did'
p4405
aS"n't"
p4406
aS'get'
p4407
aS'shot'
p4408
ag462
asg30
(lp4409
g4401
ag4402
ag4403
ag4404
ag4405
ag4406
ag4407
ag4408
ag462
asba(iMeme
Meme
p4410
(dp4411
g3
(lp4412
S'wow'
p4413
ag220
aS'you'
p4414
aS"'re"
p4415
ag28
aS'programmer'
p4416
ag14
asg15
S"wow, you're a programmer?"
p4417
sg17
S'what do you do again?'
p4418
sg19
Vsheltered-college-freshman
p4419
sg21
(lp4420
g4413
ag220
ag4414
ag4415
ag28
ag4416
ag14
aS'what'
p4421
aS'do'
p4422
aS'you'
p4423
aS'do'
p4424
aS'again'
p4425
ag14
asg30
(lp4426
g4421
ag4422
ag4423
ag4424
ag4425
ag14
asba(iMeme
Meme
p4427
(dp4428
g3
(lp4429
S'you'
p4430
aS"'re"
p4431
aS'not'
p4432
aS'going'
p4433
aS'on'
p4434
ag28
aS'missions'
p4435
aS'trip'
p4436
ag14
asg15
S"you're not going on a missions trip?"
p4437
sg17
S'then what are you doing in florida on spring break?'
p4438
sg19
Vsheltered-college-freshman
p4439
sg21
(lp4440
g4430
ag4431
ag4432
ag4433
ag4434
ag28
ag4435
ag4436
ag14
aS'then'
p4441
aS'what'
p4442
aS'are'
p4443
aS'you'
p4444
aS'doing'
p4445
aS'in'
p4446
aS'florida'
p4447
aS'on'
p4448
aS'spring'
p4449
aS'break'
p4450
ag14
asg30
(lp4451
g4441
ag4442
ag4443
ag4444
ag4445
ag4446
ag4447
ag4448
ag4449
ag4450
ag14
asba(iMeme
Meme
p4452
(dp4453
g3
(lp4454
S'the'
p4455
aS'weather'
p4456
aS'is'
p4457
aS'so'
p4458
aS'gross'
p4459
aS'today'
p4460
asg15
S'the weather is so gross today'
p4461
sg17
S'no need to worry! the shuttle will take me from rice to the mp!'
p4462
sg19
Vsheltered-college-freshman
p4463
sg21
(lp4464
g4455
ag4456
ag4457
ag4458
ag4459
ag4460
aS'no'
p4465
aS'need'
p4466
aS'to'
p4467
aS'worry'
p4468
ag266
aS'the'
p4469
aS'shuttle'
p4470
aS'will'
p4471
aS'take'
p4472
aS'me'
p4473
aS'from'
p4474
aS'rice'
p4475
aS'to'
p4476
aS'the'
p4477
aS'mp'
p4478
ag266
asg30
(lp4479
g4465
ag4466
ag4467
ag4468
ag266
ag4469
ag4470
ag4471
ag4472
ag4473
ag4474
ag4475
ag4476
ag4477
ag4478
ag266
asba(iMeme
Meme
p4480
(dp4481
g3
(lp4482
S'the'
p4483
aS'weather'
p4484
aS'is'
p4485
aS'so'
p4486
aS'gross'
p4487
aS'today'
p4488
asg15
S'the weather is so gross today'
p4489
sg17
S'no worries! the shuttle will take me from rice to the mp!'
p4490
sg19
Vsheltered-college-freshman
p4491
sg21
(lp4492
g4483
ag4484
ag4485
ag4486
ag4487
ag4488
aS'no'
p4493
aS'worries'
p4494
ag266
aS'the'
p4495
aS'shuttle'
p4496
aS'will'
p4497
aS'take'
p4498
aS'me'
p4499
aS'from'
p4500
aS'rice'
p4501
aS'to'
p4502
aS'the'
p4503
aS'mp'
p4504
ag266
asg30
(lp4505
g4493
ag4494
ag266
ag4495
ag4496
ag4497
ag4498
ag4499
ag4500
ag4501
ag4502
ag4503
ag4504
ag266
asba(iMeme
Meme
p4506
(dp4507
g3
(lp4508
S'go'
p4509
aS'dis'
p4510
aS'nowhere'
p4511
asg15
S'go dis nowhere'
p4512
sg17
S"oh that's nice"
p4513
sg19
Vsheltered-college-freshman
p4514
sg21
(lp4515
g4509
ag4510
ag4511
aS'oh'
p4516
aS'that'
p4517
aS"'s"
p4518
aS'nice'
p4519
asg30
(lp4520
g4516
ag4517
ag4518
ag4519
asba(iMeme
Meme
p4521
(dp4522
g3
(lp4523
S'computer'
p4524
aS'is'
p4525
aS'broken'
p4526
asg15
S'computer is broken'
p4527
sg17
S'have 5 page paper due at midnight.'
p4528
sg19
Vsheltered-college-freshman
p4529
sg21
(lp4530
g4524
ag4525
ag4526
aS'have'
p4531
aS'5'
p4532
aS'page'
p4533
aS'paper'
p4534
aS'due'
p4535
aS'at'
p4536
aS'midnight'
p4537
ag462
asg30
(lp4538
g4531
ag4532
ag4533
ag4534
ag4535
ag4536
ag4537
ag462
asba(iMeme
Meme
p4539
(dp4540
g3
(lp4541
S'whats'
p4542
ag28
aS'clevland'
p4543
aS'steamer'
p4544
ag14
asg15
S'whats a clevland steamer?'
p4545
sg17
S'that sounds wierd'
p4546
sg19
Vsheltered-college-freshman
p4547
sg21
(lp4548
g4542
ag28
ag4543
ag4544
ag14
aS'that'
p4549
aS'sounds'
p4550
aS'wierd'
p4551
asg30
(lp4552
g4549
ag4550
ag4551
asba(iMeme
Meme
p4553
(dp4554
g3
(lp4555
S'never'
p4556
aS'seen'
p4557
ag28
aS'conem'
p4558
aS'in'
p4559
aS'her'
p4560
aS'life'
p4561
asg15
S'never seen a conem in her life'
p4562
sg17
S'makes a baiion dog'
p4563
sg19
Vsheltered-college-freshman
p4564
sg21
(lp4565
g4556
ag4557
ag28
ag4558
ag4559
ag4560
ag4561
aS'makes'
p4566
ag28
aS'baiion'
p4567
aS'dog'
p4568
asg30
(lp4569
g4566
ag28
ag4567
ag4568
asba(iMeme
Meme
p4570
(dp4571
g3
(lp4572
S'dosnt'
p4573
aS'know'
p4574
aS'what'
p4575
aS'foofies'
p4576
aS'are'
p4577
asg15
S'dosnt know what foofies are'
p4578
sg17
S'thinks its ecstasy'
p4579
sg19
Vsheltered-college-freshman
p4580
sg21
(lp4581
g4573
ag4574
ag4575
ag4576
ag4577
aS'thinks'
p4582
aS'its'
p4583
aS'ecstasy'
p4584
asg30
(lp4585
g4582
ag4583
ag4584
asba(iMeme
Meme
p4586
(dp4587
g3
(lp4588
S'lets'
p4589
aS'take'
p4590
aS'our'
p4591
aS'relationship'
p4592
aS'to'
p4593
aS'the'
p4594
aS'next'
p4595
aS'level'
p4596
asg15
S'lets take our relationship to the next level'
p4597
sg17
S"be gentle, i've never calvin walked before"
p4598
sg19
Vsheltered-college-freshman
p4599
sg21
(lp4600
g4589
ag4590
ag4591
ag4592
ag4593
ag4594
ag4595
ag4596
aS'be'
p4601
aS'gentle'
p4602
ag220
ag53
aS"'ve"
p4603
aS'never'
p4604
aS'calvin'
p4605
aS'walked'
p4606
aS'before'
p4607
asg30
(lp4608
g4601
ag4602
ag220
ag53
ag4603
ag4604
ag4605
ag4606
ag4607
asba(iMeme
Meme
p4609
(dp4610
g3
(lp4611
S'lets'
p4612
aS'take'
p4613
aS'our'
p4614
aS'relationship'
p4615
aS'to'
p4616
aS'the'
p4617
aS'next'
p4618
aS'level'
p4619
asg15
S'lets take our relationship to the next level'
p4620
sg17
S'secondline'
p4621
sg19
Vsheltered-college-freshman
p4622
sg21
(lp4623
g4612
ag4613
ag4614
ag4615
ag4616
ag4617
ag4618
ag4619
aS'secondline'
p4624
asg30
(lp4625
g4624
asba(iMeme
Meme
p4626
(dp4627
g3
(lp4628
S'lets'
p4629
aS'take'
p4630
aS'our'
p4631
aS'relationship'
p4632
aS'to'
p4633
aS'the'
p4634
aS'next'
p4635
aS'level'
p4636
asg15
S'lets take our relationship to the next level'
p4637
sg17
S"be gentle, i've never calvin walked before"
p4638
sg19
Vsheltered-college-freshman
p4639
sg21
(lp4640
g4629
ag4630
ag4631
ag4632
ag4633
ag4634
ag4635
ag4636
aS'be'
p4641
aS'gentle'
p4642
ag220
ag53
aS"'ve"
p4643
aS'never'
p4644
aS'calvin'
p4645
aS'walked'
p4646
aS'before'
p4647
asg30
(lp4648
g4641
ag4642
ag220
ag53
ag4643
ag4644
ag4645
ag4646
ag4647
asba(iMeme
Meme
p4649
(dp4650
g3
(lp4651
S'k2'
p4652
ag14
asg15
S'k2?'
p4653
sg17
S'it smells ok, but i prefer sandalwood'
p4654
sg19
Vsheltered-college-freshman
p4655
sg21
(lp4656
g4652
ag14
aS'it'
p4657
aS'smells'
p4658
aS'ok'
p4659
ag220
aS'but'
p4660
ag53
aS'prefer'
p4661
aS'sandalwood'
p4662
asg30
(lp4663
g4657
ag4658
ag4659
ag220
ag4660
ag53
ag4661
ag4662
asba(iMeme
Meme
p4664
(dp4665
g3
(lp4666
g53
aS'found'
p4667
aS'this'
p4668
aS'little'
p4669
aS'oil'
p4670
aS'burner'
p4671
aS'in'
p4672
aS'your'
p4673
aS'backpack'
p4674
asg15
S'i found this little oil burner in your backpack'
p4675
sg17
S"i think it's so cute you're into aromatherapy"
p4676
sg19
Vsheltered-college-freshman
p4677
sg21
(lp4678
g53
ag4667
ag4668
ag4669
ag4670
ag4671
ag4672
ag4673
ag4674
ag53
aS'think'
p4679
aS'it'
p4680
aS"'s"
p4681
aS'so'
p4682
aS'cute'
p4683
aS'you'
p4684
aS"'re"
p4685
aS'into'
p4686
aS'aromatherapy'
p4687
asg30
(lp4688
g53
ag4679
ag4680
ag4681
ag4682
ag4683
ag4684
ag4685
ag4686
ag4687
asba(iMeme
Meme
p4689
(dp4690
g3
(lp4691
S'k2'
p4692
ag14
asg15
S'k2?'
p4693
sg17
S'who knew you could buy incense at gas stations?'
p4694
sg19
Vsheltered-college-freshman
p4695
sg21
(lp4696
g4692
ag14
aS'who'
p4697
aS'knew'
p4698
aS'you'
p4699
aS'could'
p4700
aS'buy'
p4701
aS'incense'
p4702
aS'at'
p4703
aS'gas'
p4704
aS'stations'
p4705
ag14
asg30
(lp4706
g4697
ag4698
ag4699
ag4700
ag4701
ag4702
ag4703
ag4704
ag4705
ag14
asba(iMeme
Meme
p4707
(dp4708
g3
(lp4709
S'opd'
p4710
ag14
asg15
S'opd?'
p4711
sg17
S'is that a band?'
p4712
sg19
Vsheltered-college-freshman
p4713
sg21
(lp4714
g4710
ag14
aS'is'
p4715
aS'that'
p4716
ag28
aS'band'
p4717
ag14
asg30
(lp4718
g4715
ag4716
ag28
ag4717
ag14
asba(iMeme
Meme
p4719
(dp4720
g3
(lp4721
S'yes'
p4722
ag53
aS'live'
p4723
aS'in'
p4724
aS'oakland'
p4725
asg15
S'yes i live in oakland'
p4726
sg17
S'never been to west/ deep east oakland/ east 14'
p4727
sg19
Vsheltered-college-freshman
p4728
sg21
(lp4729
g4722
ag53
ag4723
ag4724
ag4725
aS'never'
p4730
aS'been'
p4731
aS'to'
p4732
aS'west/'
p4733
aS'deep'
p4734
aS'east'
p4735
aS'oakland/'
p4736
aS'east'
p4737
aS'14'
p4738
asg30
(lp4739
g4730
ag4731
ag4732
ag4733
ag4734
ag4735
ag4736
ag4737
ag4738
asba(iMeme
Meme
p4740
(dp4741
g3
(lp4742
S'yes'
p4743
ag53
aS'live'
p4744
aS'in'
p4745
aS'oakland'
p4746
asg15
S'yes i live in oakland'
p4747
sg17
S'never been to west/ deep east oakland/ international'
p4748
sg19
Vsheltered-college-freshman
p4749
sg21
(lp4750
g4743
ag53
ag4744
ag4745
ag4746
aS'never'
p4751
aS'been'
p4752
aS'to'
p4753
aS'west/'
p4754
aS'deep'
p4755
aS'east'
p4756
aS'oakland/'
p4757
aS'international'
p4758
asg30
(lp4759
g4751
ag4752
ag4753
ag4754
ag4755
ag4756
ag4757
ag4758
asba(iMeme
Meme
p4760
(dp4761
g3
(lp4762
S'oakland'
p4763
aS'is'
p4764
aS"n't"
p4765
aS'that'
p4766
aS'bad'
p4767
asg15
S"oakland isn't that bad"
p4768
sg17
S'neighborhood only has burglaries'
p4769
sg19
Vsheltered-college-freshman
p4770
sg21
(lp4771
g4763
ag4764
ag4765
ag4766
ag4767
aS'neighborhood'
p4772
aS'only'
p4773
aS'has'
p4774
aS'burglaries'
p4775
asg30
(lp4776
g4772
ag4773
ag4774
ag4775
asba(iMeme
Meme
p4777
(dp4778
g3
(lp4779
S'oakland'
p4780
aS'is'
p4781
aS"n't"
p4782
aS'that'
p4783
aS'bad'
p4784
asg15
S"oakland isn't that bad"
p4785
sg17
S'never been around violent crime'
p4786
sg19
Vsheltered-college-freshman
p4787
sg21
(lp4788
g4780
ag4781
ag4782
ag4783
ag4784
aS'never'
p4789
aS'been'
p4790
aS'around'
p4791
aS'violent'
p4792
aS'crime'
p4793
asg30
(lp4794
g4789
ag4790
ag4791
ag4792
ag4793
asba(iMeme
Meme
p4795
(dp4796
g3
(lp4797
S'oakland'
p4798
aS"'s"
p4799
aS'such'
p4800
ag28
aS'nice'
p4801
aS'place'
p4802
aS'to'
p4803
aS'live'
p4804
ag266
asg15
S"oakland's such a nice place to live!"
p4805
sg17
S'lives by highway 13'
p4806
sg19
Vsheltered-college-freshman
p4807
sg21
(lp4808
g4798
ag4799
ag4800
ag28
ag4801
ag4802
ag4803
ag4804
ag266
aS'lives'
p4809
aS'by'
p4810
aS'highway'
p4811
aS'13'
p4812
asg30
(lp4813
g4809
ag4810
ag4811
ag4812
asba(iMeme
Meme
p4814
(dp4815
g3
(lp4816
S'yay'
p4817
aS'oakland'
p4818
ag266
asg15
S'yay oakland!'
p4819
sg17
S'never been around violent crime'
p4820
sg19
Vsheltered-college-freshman
p4821
sg21
(lp4822
g4817
ag4818
ag266
aS'never'
p4823
aS'been'
p4824
aS'around'
p4825
aS'violent'
p4826
aS'crime'
p4827
asg30
(lp4828
g4823
ag4824
ag4825
ag4826
ag4827
asba(iMeme
Meme
p4829
(dp4830
g3
(lp4831
S'oakland'
p4832
aS"'s"
p4833
aS'such'
p4834
ag28
aS'nice'
p4835
aS'place'
p4836
aS'to'
p4837
aS'live'
p4838
ag266
asg15
S"oakland's such a nice place to live!"
p4839
sg17
S'lives far above the 580 freeway'
p4840
sg19
Vsheltered-college-freshman
p4841
sg21
(lp4842
g4832
ag4833
ag4834
ag28
ag4835
ag4836
ag4837
ag4838
ag266
aS'lives'
p4843
aS'far'
p4844
aS'above'
p4845
aS'the'
p4846
aS'580'
p4847
aS'freeway'
p4848
asg30
(lp4849
g4843
ag4844
ag4845
ag4846
ag4847
ag4848
asba(iMeme
Meme
p4850
(dp4851
g3
(lp4852
S'oakland'
p4853
aS"'s"
p4854
aS'such'
p4855
ag28
aS'place'
p4856
aS'to'
p4857
aS'live'
p4858
ag266
asg15
S"oakland's such a place to live!"
p4859
sg17
S'lives far above the 580 freeway'
p4860
sg19
Vsheltered-college-freshman
p4861
sg21
(lp4862
g4853
ag4854
ag4855
ag28
ag4856
ag4857
ag4858
ag266
aS'lives'
p4863
aS'far'
p4864
aS'above'
p4865
aS'the'
p4866
aS'580'
p4867
aS'freeway'
p4868
asg30
(lp4869
g4863
ag4864
ag4865
ag4866
ag4867
ag4868
asba(iMeme
Meme
p4870
(dp4871
g3
(lp4872
S'declares'
p4873
aS'nursing'
p4874
aS'major'
p4875
asg15
S'declares nursing major'
p4876
sg17
S'dies'
p4877
sg19
Vsheltered-college-freshman
p4878
sg21
(lp4879
g4873
ag4874
ag4875
aS'dies'
p4880
asg30
(lp4881
g4880
asba(iMeme
Meme
p4882
(dp4883
g3
(lp4884
S'decides'
p4885
aS'to'
p4886
aS'go'
p4887
aS'pre-med'
p4888
asg15
S'decides to go pre-med'
p4889
sg17
S'fails biology and gen chem'
p4890
sg19
Vsheltered-college-freshman
p4891
sg21
(lp4892
g4885
ag4886
ag4887
ag4888
aS'fails'
p4893
aS'biology'
p4894
aS'and'
p4895
aS'gen'
p4896
aS'chem'
p4897
asg30
(lp4898
g4893
ag4894
ag4895
ag4896
ag4897
asba(iMeme
Meme
p4899
(dp4900
g3
(lp4901
S'``'
p4902
aS'this'
p4903
aS'school'
p4904
aS'has'
p4905
aS'really'
p4906
aS'nice'
p4907
aS'equipment'
p4908
aS"''"
p4909
asg15
S'"this school has really nice equipment"'
p4910
sg17
S'you must be from tla'
p4911
sg19
Vsheltered-college-freshman
p4912
sg21
(lp4913
g4902
ag4903
ag4904
ag4905
ag4906
ag4907
ag4908
ag4909
aS'you'
p4914
aS'must'
p4915
aS'be'
p4916
aS'from'
p4917
aS'tla'
p4918
asg30
(lp4919
g4914
ag4915
ag4916
ag4917
ag4918
asba(iMeme
Meme
p4920
(dp4921
g3
(lp4922
S'``'
p4923
aS'this'
p4924
aS'school'
p4925
aS'has'
p4926
aS'really'
p4927
aS'well'
p4928
aS'kept'
p4929
aS'equipment'
p4930
aS"''"
p4931
asg15
S'"this school has really well kept equipment"'
p4932
sg17
S'you must be from tla'
p4933
sg19
Vsheltered-college-freshman
p4934
sg21
(lp4935
g4923
ag4924
ag4925
ag4926
ag4927
ag4928
ag4929
ag4930
ag4931
aS'you'
p4936
aS'must'
p4937
aS'be'
p4938
aS'from'
p4939
aS'tla'
p4940
asg30
(lp4941
g4936
ag4937
ag4938
ag4939
ag4940
asba(iMeme
Meme
p4942
(dp4943
g3
(lp4944
S'oh'
p4945
ag28
aS'soup'
p4946
aS'kitchen'
p4947
aS'in'
p4948
aS'my'
p4949
aS'car'
p4950
ag14
asg15
S'oh a soup kitchen in my car?'
p4951
sg17
S'how charitable'
p4952
sg19
Vsheltered-college-freshman
p4953
sg21
(lp4954
g4945
ag28
ag4946
ag4947
ag4948
ag4949
ag4950
ag14
aS'how'
p4955
aS'charitable'
p4956
asg30
(lp4957
g4955
ag4956
asba(iMeme
Meme
p4958
(dp4959
g3
(lp4960
S'oh'
p4961
ag28
aS'soup'
p4962
aS'kitchen'
p4963
aS'in'
p4964
aS'my'
p4965
aS'car'
p4966
ag14
asg15
S'oh a soup kitchen in my car?'
p4967
sg17
S'how charitable'
p4968
sg19
Vsheltered-college-freshman
p4969
sg21
(lp4970
g4961
ag28
ag4962
ag4963
ag4964
ag4965
ag4966
ag14
aS'how'
p4971
aS'charitable'
p4972
asg30
(lp4973
g4971
ag4972
asba(iMeme
Meme
p4974
(dp4975
g3
(lp4976
g558
aS'girls'
p4977
ag561
aS'cup'
p4978
ag14
asg15
S'2 girls 1 cup?'
p4979
sg17
S"i have a cold, i shouldn't be sharing my drink"
p4980
sg19
Vsheltered-college-freshman
p4981
sg21
(lp4982
g558
ag4977
ag561
ag4978
ag14
ag53
aS'have'
p4983
ag28
aS'cold'
p4984
ag220
ag53
aS'should'
p4985
aS"n't"
p4986
aS'be'
p4987
aS'sharing'
p4988
aS'my'
p4989
aS'drink'
p4990
asg30
(lp4991
g53
ag4983
ag28
ag4984
ag220
ag53
ag4985
ag4986
ag4987
ag4988
ag4989
ag4990
asba(iMeme
Meme
p4992
(dp4993
g3
(lp4994
S'people'
p4995
aS'who'
p4996
aS'drink'
p4997
aS'beer'
p4998
asg15
S'people who drink beer'
p4999
sg17
S"just don't know it's bad for you"
p5000
sg19
Vsheltered-college-freshman
p5001
sg21
(lp5002
g4995
ag4996
ag4997
ag4998
aS'just'
p5003
aS'do'
p5004
aS"n't"
p5005
aS'know'
p5006
aS'it'
p5007
aS"'s"
p5008
aS'bad'
p5009
aS'for'
p5010
aS'you'
p5011
asg30
(lp5012
g5003
ag5004
ag5005
ag5006
ag5007
ag5008
ag5009
ag5010
ag5011
asba(iMeme
Meme
p5013
(dp5014
g3
(lp5015
S'late'
p5016
aS'to'
p5017
aS'class'
p5018
aS'every'
p5019
aS'day'
p5020
asg15
S'late to class               every day'
p5021
sg17
S'latte to class                    every day'
p5022
sg19
Vsheltered-college-freshman
p5023
sg21
(lp5024
g5016
ag5017
ag5018
ag5019
ag5020
aS'latte'
p5025
aS'to'
p5026
aS'class'
p5027
aS'every'
p5028
aS'day'
p5029
asg30
(lp5030
g5025
ag5026
ag5027
ag5028
ag5029
asba(iMeme
Meme
p5031
(dp5032
g3
(lp5033
g53
aS'fucked'
p5034
aS'my'
p5035
aS'professor'
p5036
asg15
S'i fucked my professor'
p5037
sg17
S'to get a passing grade'
p5038
sg19
Vsheltered-college-freshman
p5039
sg21
(lp5040
g53
ag5034
ag5035
ag5036
aS'to'
p5041
aS'get'
p5042
ag28
aS'passing'
p5043
aS'grade'
p5044
asg30
(lp5045
g5041
ag5042
ag28
ag5043
ag5044
asba(iMeme
Meme
p5046
(dp5047
g3
(lp5048
g53
aS'fucked'
p5049
aS'my'
p5050
aS'professor'
p5051
asg15
S'i fucked my professor'
p5052
sg17
S'so i could pass his class'
p5053
sg19
Vsheltered-college-freshman
p5054
sg21
(lp5055
g53
ag5049
ag5050
ag5051
aS'so'
p5056
ag53
aS'could'
p5057
aS'pass'
p5058
aS'his'
p5059
aS'class'
p5060
asg30
(lp5061
g5056
ag53
ag5057
ag5058
ag5059
ag5060
asba(iMeme
Meme
p5062
(dp5063
g3
(lp5064
S'we'
p5065
aS'should'
p5066
aS'totally'
p5067
aS'bang'
p5068
ag266
asg15
S'we should totally bang!'
p5069
sg17
S'oops i meant "hang"'
p5070
sg19
Vsheltered-college-freshman
p5071
sg21
(lp5072
g5065
ag5066
ag5067
ag5068
ag266
aS'oops'
p5073
ag53
aS'meant'
p5074
aS'``'
p5075
aS'hang'
p5076
aS"''"
p5077
asg30
(lp5078
g5073
ag53
ag5074
ag5075
ag5076
ag5077
asba(iMeme
Meme
p5079
(dp5080
g3
(lp5081
S'1507'
p5082
aS'...'
p5083
ag462
aS'b.y.o.b'
p5084
ag462
asg15
S'1507 .... b.y.o.b.'
p5085
sg17
S"bring your own books? i'll be there!"
p5086
sg19
Vsheltered-college-freshman
p5087
sg21
(lp5088
g5082
ag5083
ag462
ag5084
ag462
aS'bring'
p5089
aS'your'
p5090
aS'own'
p5091
aS'books'
p5092
ag14
ag53
aS"'ll"
p5093
aS'be'
p5094
aS'there'
p5095
ag266
asg30
(lp5096
g5089
ag5090
ag5091
ag5092
ag14
ag53
ag5093
ag5094
ag5095
ag266
asba(iMeme
Meme
p5097
(dp5098
g3
(lp5099
S'1507'
p5100
aS'...'
p5101
ag462
aS'b.y.o.b'
p5102
ag462
asg15
S'1507 .... b.y.o.b.'
p5103
sg17
S"bring your own books? i'll be there!"
p5104
sg19
Vsheltered-college-freshman
p5105
sg21
(lp5106
g5100
ag5101
ag462
ag5102
ag462
aS'bring'
p5107
aS'your'
p5108
aS'own'
p5109
aS'books'
p5110
ag14
ag53
aS"'ll"
p5111
aS'be'
p5112
aS'there'
p5113
ag266
asg30
(lp5114
g5107
ag5108
ag5109
ag5110
ag14
ag53
ag5111
ag5112
ag5113
ag266
asba(iMeme
Meme
p5115
(dp5116
g3
(lp5117
S'calvin'
p5118
aS'said'
p5119
aS'he'
p5120
aS'is'
p5121
aS"'like"
p5122
ag28
aS'squirrel'
p5123
ag151
asg15
S"calvin said he is 'like a squirrel'"
p5124
sg17
S'he must really like acorns'
p5125
sg19
Vsheltered-college-freshman
p5126
sg21
(lp5127
g5118
ag5119
ag5120
ag5121
ag5122
ag28
ag5123
ag151
aS'he'
p5128
aS'must'
p5129
aS'really'
p5130
aS'like'
p5131
aS'acorns'
p5132
asg30
(lp5133
g5128
ag5129
ag5130
ag5131
ag5132
asba(iMeme
Meme
p5134
(dp5135
g3
(lp5136
S'wait'
p5137
aS'...'
p5138
asg15
S'wait...'
p5139
sg17
S"when's floatopia this year?"
p5140
sg19
Vsheltered-college-freshman
p5141
sg21
(lp5142
g5137
ag5138
aS'when'
p5143
aS"'s"
p5144
aS'floatopia'
p5145
aS'this'
p5146
aS'year'
p5147
ag14
asg30
(lp5148
g5143
ag5144
ag5145
ag5146
ag5147
ag14
asba(iMeme
Meme
p5149
(dp5150
g3
(lp5151
S'the'
p5152
aS'only'
p5153
aS'student'
p5154
aS'on'
p5155
aS'campus'
p5156
aS'who'
p5157
aS'hasnt'
p5158
aS'missed'
p5159
ag28
aS'single'
p5160
aS'class'
p5161
asg15
S'the only student on campus who hasnt missed a single class'
p5162
sg17
S'still gets an f in givants english class'
p5163
sg19
Vsheltered-college-freshman
p5164
sg21
(lp5165
g5152
ag5153
ag5154
ag5155
ag5156
ag5157
ag5158
ag5159
ag28
ag5160
ag5161
aS'still'
p5166
aS'gets'
p5167
aS'an'
p5168
aS'f'
p5169
aS'in'
p5170
aS'givants'
p5171
aS'english'
p5172
aS'class'
p5173
asg30
(lp5174
g5166
ag5167
ag5168
ag5169
ag5170
ag5171
ag5172
ag5173
asba(iMeme
Meme
p5175
(dp5176
g3
(lp5177
S'the'
p5178
aS'only'
p5179
aS'kid'
p5180
aS'on'
p5181
aS'campus'
p5182
aS'who'
p5183
aS'hasnt'
p5184
aS'missed'
p5185
ag28
aS'single'
p5186
aS'class'
p5187
asg15
S'the only kid on campus who hasnt missed a single class'
p5188
sg17
S'still gets an f in givants english class'
p5189
sg19
Vsheltered-college-freshman
p5190
sg21
(lp5191
g5178
ag5179
ag5180
ag5181
ag5182
ag5183
ag5184
ag5185
ag28
ag5186
ag5187
aS'still'
p5192
aS'gets'
p5193
aS'an'
p5194
ag5169
aS'in'
p5195
aS'givants'
p5196
aS'english'
p5197
aS'class'
p5198
asg30
(lp5199
g5192
ag5193
ag5194
ag5169
ag5195
ag5196
ag5197
ag5198
asba(iMeme
Meme
p5200
(dp5201
g3
(lp5202
S'drinks'
p5203
aS'at'
p5204
aS'p.l.a.s'
p5205
aS'for'
p5206
aS'the'
p5207
aS'first'
p5208
aS'time'
p5209
asg15
S'drinks at p.l.a.s for the first time'
p5210
sg17
S'dies'
p5211
sg19
Vsheltered-college-freshman
p5212
sg21
(lp5213
g5203
ag5204
ag5205
ag5206
ag5207
ag5208
ag5209
aS'dies'
p5214
asg30
(lp5215
g5214
asba(iMeme
Meme
p5216
(dp5217
g3
(lp5218
S'you'
p5219
aS"'re"
p5220
aS'on'
p5221
aS'facebook'
p5222
aS'reading'
p5223
aS'this'
p5224
aS'meme'
p5225
ag14
asg15
S"you're on facebook reading this meme?"
p5226
sg17
S'you must have finished all of your homework!'
p5227
sg19
Vsheltered-college-freshman
p5228
sg21
(lp5229
g5219
ag5220
ag5221
ag5222
ag5223
ag5224
ag5225
ag14
aS'you'
p5230
aS'must'
p5231
aS'have'
p5232
aS'finished'
p5233
aS'all'
p5234
aS'of'
p5235
aS'your'
p5236
aS'homework'
p5237
ag266
asg30
(lp5238
g5230
ag5231
ag5232
ag5233
ag5234
ag5235
ag5236
ag5237
ag266
asba(iMeme
Meme
p5239
(dp5240
g3
(lp5241
S'you'
p5242
aS"'re"
p5243
aS'on'
p5244
aS'face'
p5245
aS'book'
p5246
aS'reading'
p5247
aS'this'
p5248
aS'meme'
p5249
ag14
asg15
S"you're on face book reading this meme?"
p5250
sg17
S'you must have finished all of your homework!'
p5251
sg19
Vsheltered-college-freshman
p5252
sg21
(lp5253
g5242
ag5243
ag5244
ag5245
ag5246
ag5247
ag5248
ag5249
ag14
aS'you'
p5254
aS'must'
p5255
aS'have'
p5256
aS'finished'
p5257
aS'all'
p5258
aS'of'
p5259
aS'your'
p5260
aS'homework'
p5261
ag266
asg30
(lp5262
g5254
ag5255
ag5256
ag5257
ag5258
ag5259
ag5260
ag5261
ag266
asba(iMeme
Meme
p5263
(dp5264
g3
(lp5265
S'you'
p5266
aS"'re"
p5267
aS'on'
p5268
aS'face'
p5269
aS'book'
p5270
aS'reading'
p5271
aS'this'
p5272
aS'meme'
p5273
ag14
asg15
S"you're on face book reading this meme?"
p5274
sg17
S'you must have finished all of your homework!'
p5275
sg19
Vsheltered-college-freshman
p5276
sg21
(lp5277
g5266
ag5267
ag5268
ag5269
ag5270
ag5271
ag5272
ag5273
ag14
aS'you'
p5278
aS'must'
p5279
aS'have'
p5280
aS'finished'
p5281
aS'all'
p5282
aS'of'
p5283
aS'your'
p5284
aS'homework'
p5285
ag266
asg30
(lp5286
g5278
ag5279
ag5280
ag5281
ag5282
ag5283
ag5284
ag5285
ag266
asba(iMeme
Meme
p5287
(dp5288
g3
(lp5289
g53
aS'got'
p5290
aS'pregant'
p5291
aS'in'
p5292
aS'highschool'
p5293
asg15
S'i got pregant in highschool'
p5294
sg17
S'now i go to a community college'
p5295
sg19
Vsheltered-college-freshman
p5296
sg21
(lp5297
g53
ag5290
ag5291
ag5292
ag5293
aS'now'
p5298
ag53
aS'go'
p5299
aS'to'
p5300
ag28
aS'community'
p5301
aS'college'
p5302
asg30
(lp5303
g5298
ag53
ag5299
ag5300
ag28
ag5301
ag5302
asba(iMeme
Meme
p5304
(dp5305
g3
(lp5306
S'invited'
p5307
aS'to'
p5308
aS'memory'
p5309
aS'mall'
p5310
asg15
S'invited to memory mall'
p5311
sg17
S'where are the stores?'
p5312
sg19
Vsheltered-college-freshman
p5313
sg21
(lp5314
g5307
ag5308
ag5309
ag5310
aS'where'
p5315
aS'are'
p5316
aS'the'
p5317
aS'stores'
p5318
ag14
asg30
(lp5319
g5315
ag5316
ag5317
ag5318
ag14
asba(iMeme
Meme
p5320
(dp5321
g3
(lp5322
S'woodburn'
p5323
aS'circle'
p5324
ag14
asg15
S'woodburn circle?'
p5325
sg17
S'we had one of those at camp'
p5326
sg19
Vsheltered-college-freshman
p5327
sg21
(lp5328
g5323
ag5324
ag14
aS'we'
p5329
aS'had'
p5330
aS'one'
p5331
aS'of'
p5332
aS'those'
p5333
aS'at'
p5334
aS'camp'
p5335
asg30
(lp5336
g5329
ag5330
ag5331
ag5332
ag5333
ag5334
ag5335
asba(iMeme
Meme
p5337
(dp5338
g3
(lp5339
S'needs'
p5340
aS'to'
p5341
aS'get'
p5342
aS'from'
p5343
aS'the'
p5344
aS'eateries'
p5345
aS'to'
p5346
aS'walton'
p5347
ag462
asg15
S'needs to get from the eateries to walton.'
p5348
sg17
S'calls see us'
p5349
sg19
Vsheltered-college-freshman
p5350
sg21
(lp5351
g5340
ag5341
ag5342
ag5343
ag5344
ag5345
ag5346
ag5347
ag462
aS'calls'
p5352
aS'see'
p5353
aS'us'
p5354
asg30
(lp5355
g5352
ag5353
ag5354
asba(iMeme
Meme
p5356
(dp5357
g3
(lp5358
S'yeah'
p5359
ag53
aS'was'
p5360
aS'totally'
p5361
aS'straight'
p5362
asg15
S'yeah i was totally straight'
p5363
sg17
S'until i met my sa'
p5364
sg19
Vsheltered-college-freshman
p5365
sg21
(lp5366
g5359
ag53
ag5360
ag5361
ag5362
aS'until'
p5367
ag53
aS'met'
p5368
aS'my'
p5369
aS'sa'
p5370
asg30
(lp5371
g5367
ag53
ag5368
ag5369
ag5370
asba(iMeme
Meme
p5372
(dp5373
g3
(lp5374
S'party'
p5375
aS'at'
p5376
aS'the'
p5377
aS'cellar'
p5378
ag14
asg15
S'party at the cellar?'
p5379
sg17
S'why would i want go to the basement?'
p5380
sg19
Vsheltered-college-freshman
p5381
sg21
(lp5382
g5375
ag5376
ag5377
ag5378
ag14
aS'why'
p5383
aS'would'
p5384
ag53
aS'want'
p5385
aS'go'
p5386
aS'to'
p5387
aS'the'
p5388
aS'basement'
p5389
ag14
asg30
(lp5390
g5383
ag5384
ag53
ag5385
ag5386
ag5387
ag5388
ag5389
ag14
asba(iMeme
Meme
p5391
(dp5392
g3
(lp5393
S'facial'
p5394
ag14
asg15
S'facial?'
p5395
sg17
S"i didn't know temple had a salon!"
p5396
sg19
Vsheltered-college-freshman
p5397
sg21
(lp5398
g5394
ag14
ag53
aS'did'
p5399
aS"n't"
p5400
aS'know'
p5401
aS'temple'
p5402
aS'had'
p5403
ag28
aS'salon'
p5404
ag266
asg30
(lp5405
g53
ag5399
ag5400
ag5401
ag5402
ag5403
ag28
ag5404
ag266
asba(iMeme
Meme
p5406
(dp5407
g3
(lp5408
S'there'
p5409
aS"'s"
p5410
ag28
aS'hill'
p5411
aS'district'
p5412
aS'close'
p5413
aS'by'
p5414
ag14
asg15
S"there's a hill district close by?"
p5415
sg17
S'we should all go sledding there soon!'
p5416
sg19
Vsheltered-college-freshman
p5417
sg21
(lp5418
g5409
ag5410
ag28
ag5411
ag5412
ag5413
ag5414
ag14
aS'we'
p5419
aS'should'
p5420
aS'all'
p5421
aS'go'
p5422
aS'sledding'
p5423
aS'there'
p5424
aS'soon'
p5425
ag266
asg30
(lp5426
g5419
ag5420
ag5421
ag5422
ag5423
ag5424
ag5425
ag266
asba(iMeme
Meme
p5427
(dp5428
g3
(lp5429
S'so'
p5430
aS'there'
p5431
aS"'s"
p5432
ag28
aS'hill'
p5433
aS'district'
p5434
aS'close'
p5435
aS'by'
p5436
ag14
asg15
S"so there's a hill district close by?"
p5437
sg17
S"great! i've been looking for somewhere to go sledding"
p5438
sg19
Vsheltered-college-freshman
p5439
sg21
(lp5440
g5430
ag5431
ag5432
ag28
ag5433
ag5434
ag5435
ag5436
ag14
aS'great'
p5441
ag266
ag53
aS"'ve"
p5442
aS'been'
p5443
aS'looking'
p5444
aS'for'
p5445
aS'somewhere'
p5446
aS'to'
p5447
aS'go'
p5448
aS'sledding'
p5449
asg30
(lp5450
g5441
ag266
ag53
ag5442
ag5443
ag5444
ag5445
ag5446
ag5447
ag5448
ag5449
asba(iMeme
Meme
p5451
(dp5452
g3
(lp5453
S'cut'
p5454
aS'class'
p5455
ag14
asg15
S'cut class?'
p5456
sg17
S'but i have a test on friday'
p5457
sg19
Vsheltered-college-freshman
p5458
sg21
(lp5459
g5454
ag5455
ag14
aS'but'
p5460
ag53
aS'have'
p5461
ag28
aS'test'
p5462
aS'on'
p5463
aS'friday'
p5464
asg30
(lp5465
g5460
ag53
ag5461
ag28
ag5462
ag5463
ag5464
asba(iMeme
Meme
p5466
(dp5467
g3
(lp5468
S'cut'
p5469
aS'class'
p5470
ag14
asg15
S'cut class?'
p5471
sg17
S'but i have a test on friday'
p5472
sg19
Vsheltered-college-freshman
p5473
sg21
(lp5474
g5469
ag5470
ag14
aS'but'
p5475
ag53
aS'have'
p5476
ag28
aS'test'
p5477
aS'on'
p5478
aS'friday'
p5479
asg30
(lp5480
g5475
ag53
ag5476
ag28
ag5477
ag5478
ag5479
asba(iMeme
Meme
p5481
(dp5482
g3
(lp5483
S'plenty'
p5484
aS'of'
p5485
aS'good'
p5486
aS'men'
p5487
aS'at'
p5488
aS'nwc'
p5489
asg15
S'plenty of good men at nwc'
p5490
sg17
S'chooses celibacy'
p5491
sg19
Vsheltered-college-freshman
p5492
sg21
(lp5493
g5484
ag5485
ag5486
ag5487
ag5488
ag5489
aS'chooses'
p5494
aS'celibacy'
p5495
asg30
(lp5496
g5494
ag5495
asba(iMeme
Meme
p5497
(dp5498
g3
(lp5499
S'no'
p5500
aS'good'
p5501
aS'men'
p5502
aS'at'
p5503
aS'nwc'
p5504
asg15
S'no good men at nwc'
p5505
sg17
S'chose celibacy'
p5506
sg19
Vsheltered-college-freshman
p5507
sg21
(lp5508
g5500
ag5501
ag5502
ag5503
ag5504
aS'chose'
p5509
aS'celibacy'
p5510
asg30
(lp5511
g5509
ag5510
asba(iMeme
Meme
p5512
(dp5513
g3
(lp5514
S'omg'
p5515
ag53
aS'love'
p5516
aS'partying'
p5517
asg15
S'omg i love partying'
p5518
sg17
S'whats grinding?'
p5519
sg19
Vsheltered-college-freshman
p5520
sg21
(lp5521
g5515
ag53
ag5516
ag5517
aS'whats'
p5522
aS'grinding'
p5523
ag14
asg30
(lp5524
g5522
ag5523
ag14
asba(iMeme
Meme
p5525
(dp5526
g3
(lp5527
S'goes'
p5528
aS'to'
p5529
aS'library'
p5530
aS'every'
p5531
aS'night'
p5532
asg15
S'goes to library every night'
p5533
sg17
S'gets gang banged in the toilets'
p5534
sg19
Vsheltered-college-freshman
p5535
sg21
(lp5536
g5528
ag5529
ag5530
ag5531
ag5532
aS'gets'
p5537
aS'gang'
p5538
aS'banged'
p5539
aS'in'
p5540
aS'the'
p5541
aS'toilets'
p5542
asg30
(lp5543
g5537
ag5538
ag5539
ag5540
ag5541
ag5542
asba(iMeme
Meme
p5544
(dp5545
g3
(lp5546
S'goes'
p5547
aS'to'
p5548
aS'library'
p5549
aS'every'
p5550
aS'night'
p5551
asg15
S'goes to library every night'
p5552
sg17
S'gets gang banged in the toilets'
p5553
sg19
Vsheltered-college-freshman
p5554
sg21
(lp5555
g5547
ag5548
ag5549
ag5550
ag5551
aS'gets'
p5556
aS'gang'
p5557
aS'banged'
p5558
aS'in'
p5559
aS'the'
p5560
aS'toilets'
p5561
asg30
(lp5562
g5556
ag5557
ag5558
ag5559
ag5560
ag5561
asba(iMeme
Meme
p5563
(dp5564
g3
(lp5565
S'does'
p5566
aS"n't"
p5567
aS'go'
p5568
aS'to'
p5569
aS'lrv'
p5570
asg15
S"doesn't go to lrv"
p5571
sg17
S'get shagged in her room'
p5572
sg19
Vsheltered-college-freshman
p5573
sg21
(lp5574
g5566
ag5567
ag5568
ag5569
ag5570
aS'get'
p5575
aS'shagged'
p5576
aS'in'
p5577
aS'her'
p5578
aS'room'
p5579
asg30
(lp5580
g5575
ag5576
ag5577
ag5578
ag5579
asba(iMeme
Meme
p5581
(dp5582
g3
(lp5583
S'is'
p5584
aS'asked'
p5585
aS'for'
p5586
aS'oxy'
p5587
aS'at'
p5588
aS'richmond'
p5589
aS'and'
p5590
aS'dundas'
p5591
asg15
S'is asked for oxy at richmond and dundas'
p5592
sg17
S'gives hobo freshly bought oxiclean'
p5593
sg19
Vsheltered-college-freshman
p5594
sg21
(lp5595
g5584
ag5585
ag5586
ag5587
ag5588
ag5589
ag5590
ag5591
aS'gives'
p5596
aS'hobo'
p5597
aS'freshly'
p5598
aS'bought'
p5599
aS'oxiclean'
p5600
asg30
(lp5601
g5596
ag5597
ag5598
ag5599
ag5600
asba(iMeme
Meme
p5602
(dp5603
g3
(lp5604
S'party'
p5605
aS'in'
p5606
aS'my'
p5607
aS'room'
p5608
aS'friday'
p5609
aS'night'
p5610
ag266
asg15
S'party in my room friday night!'
p5611
sg17
S'would you rather study for nt, or bsm?'
p5612
sg19
Vsheltered-college-freshman
p5613
sg21
(lp5614
g5605
ag5606
ag5607
ag5608
ag5609
ag5610
ag266
aS'would'
p5615
aS'you'
p5616
aS'rather'
p5617
aS'study'
p5618
aS'for'
p5619
aS'nt'
p5620
ag220
aS'or'
p5621
aS'bsm'
p5622
ag14
asg30
(lp5623
g5615
ag5616
ag5617
ag5618
ag5619
ag5620
ag220
ag5621
ag5622
ag14
asba(iMeme
Meme
p5624
(dp5625
g3
(lp5626
g53
aS"'m"
p5627
aS'going'
p5628
aS'to'
p5629
aS'becker'
p5630
asg15
S"i'm going to becker"
p5631
sg17
S'streams lives shows on beckernet'
p5632
sg19
Vsheltered-college-freshman
p5633
sg21
(lp5634
g53
ag5627
ag5628
ag5629
ag5630
aS'streams'
p5635
aS'lives'
p5636
aS'shows'
p5637
aS'on'
p5638
aS'beckernet'
p5639
asg30
(lp5640
g5635
ag5636
ag5637
ag5638
ag5639
asba(iMeme
Meme
p5641
(dp5642
g3
(lp5643
S'accepted'
p5644
aS'into'
p5645
aS'upcoming'
p5646
aS'freshman'
p5647
aS'class'
p5648
asg15
S'accepted into upcoming freshman class'
p5649
sg17
S'friend requests entire class on facebook'
p5650
sg19
Vsheltered-college-freshman
p5651
sg21
(lp5652
g5644
ag5645
ag5646
ag5647
ag5648
aS'friend'
p5653
aS'requests'
p5654
aS'entire'
p5655
aS'class'
p5656
aS'on'
p5657
aS'facebook'
p5658
asg30
(lp5659
g5653
ag5654
ag5655
ag5656
ag5657
ag5658
asba(iMeme
Meme
p5660
(dp5661
g3
(lp5662
S'takes'
p5663
aS'first'
p5664
aS'hit'
p5665
aS'from'
p5666
aS'bong'
p5667
asg15
S'takes first hit from bong'
p5668
sg17
S'ny downtown hospital'
p5669
sg19
Vsheltered-college-freshman
p5670
sg21
(lp5671
g5663
ag5664
ag5665
ag5666
ag5667
aS'ny'
p5672
aS'downtown'
p5673
aS'hospital'
p5674
asg30
(lp5675
g5672
ag5673
ag5674
asba(iMeme
Meme
p5676
(dp5677
g3
(lp5678
S'``'
p5679
aS'wow'
p5680
ag266
asg15
S'"wow!'
p5681
sg17
S'we have two holloways?"'
p5682
sg19
Vsheltered-college-freshman
p5683
sg21
(lp5684
g5679
ag5680
ag266
aS'we'
p5685
aS'have'
p5686
aS'two'
p5687
aS'holloways'
p5688
ag14
aS"''"
p5689
asg30
(lp5690
g5685
ag5686
ag5687
ag5688
ag14
ag5689
asba(iMeme
Meme
p5691
(dp5692
g3
(lp5693
S'wants'
p5694
aS'to'
p5695
aS'experience'
p5696
aS'new'
p5697
aS'cultures'
p5698
asg15
S'wants to experience new cultures'
p5699
sg17
S'studies abroad in australia'
p5700
sg19
Vsheltered-college-freshman
p5701
sg21
(lp5702
g5694
ag5695
ag5696
ag5697
ag5698
aS'studies'
p5703
aS'abroad'
p5704
aS'in'
p5705
aS'australia'
p5706
asg30
(lp5707
g5703
ag5704
ag5705
ag5706
asba(iMeme
Meme
p5708
(dp5709
g3
(lp5710
S'go'
p5711
aS'to'
p5712
aS'tramps'
p5713
ag14
aS'sure'
p5714
ag266
asg15
S'go to tramps? sure!'
p5715
sg17
S"it's just a name, right?"
p5716
sg19
Vsheltered-college-freshman
p5717
sg21
(lp5718
g5711
ag5712
ag5713
ag14
ag5714
ag266
aS'it'
p5719
aS"'s"
p5720
aS'just'
p5721
ag28
aS'name'
p5722
ag220
aS'right'
p5723
ag14
asg30
(lp5724
g5719
ag5720
ag5721
ag28
ag5722
ag220
ag5723
ag14
asba(iMeme
Meme
p5725
(dp5726
g3
(lp5727
S'walks'
p5728
aS'into'
p5729
aS'the'
p5730
aS'garland'
p5731
aS'razorback'
p5732
aS'shop'
p5733
asg15
S'walks into the garland razorback shop'
p5734
sg17
S'"do you sell razorback clothes here?"'
p5735
sg19
Vsheltered-college-freshman
p5736
sg21
(lp5737
g5728
ag5729
ag5730
ag5731
ag5732
ag5733
aS'``'
p5738
aS'do'
p5739
aS'you'
p5740
aS'sell'
p5741
aS'razorback'
p5742
aS'clothes'
p5743
aS'here'
p5744
ag14
aS"''"
p5745
asg30
(lp5746
g5738
ag5739
ag5740
ag5741
ag5742
ag5743
ag5744
ag14
ag5745
asba(iMeme
Meme
p5747
(dp5748
g3
(lp5749
S'you'
p5750
aS'eat'
p5751
aS'``'
p5752
aS'fat'
p5753
aS'bitches'
p5754
aS"''"
p5755
ag14
asg15
S'you eat "fat bitches"?'
p5756
sg17
S'like "fat dogs"...'
p5757
sg19
Vsheltered-college-freshman
p5758
sg21
(lp5759
g5750
ag5751
ag5752
ag5753
ag5754
ag5755
ag14
aS'like'
p5760
aS'``'
p5761
aS'fat'
p5762
aS'dogs'
p5763
aS"''"
p5764
aS'...'
p5765
asg30
(lp5766
g5760
ag5761
ag5762
ag5763
ag5764
ag5765
asba(iMeme
Meme
p5767
(dp5768
g3
(lp5769
S'had'
p5770
aS'to'
p5771
aS'break'
p5772
aS'up'
p5773
aS'with'
p5774
aS'her'
p5775
aS'boyfriend'
p5776
asg15
S'had to break up with her boyfriend'
p5777
sg17
S'because she found out he was on chapel probation'
p5778
sg19
Vsheltered-college-freshman
p5779
sg21
(lp5780
g5770
ag5771
ag5772
ag5773
ag5774
ag5775
ag5776
aS'because'
p5781
aS'she'
p5782
aS'found'
p5783
aS'out'
p5784
aS'he'
p5785
aS'was'
p5786
aS'on'
p5787
aS'chapel'
p5788
aS'probation'
p5789
asg30
(lp5790
g5781
ag5782
ag5783
ag5784
ag5785
ag5786
ag5787
ag5788
ag5789
asba(iMeme
Meme
p5791
(dp5792
g3
(lp5793
S'sexy'
p5794
aS'sax'
p5795
aS'man'
p5796
ag14
asg15
S'sexy sax man?'
p5797
sg17
S"i'm telling your rd"
p5798
sg19
Vsheltered-college-freshman
p5799
sg21
(lp5800
g5794
ag5795
ag5796
ag14
ag53
aS"'m"
p5801
aS'telling'
p5802
aS'your'
p5803
aS'rd'
p5804
asg30
(lp5805
g53
ag5801
ag5802
ag5803
ag5804
asba(iMeme
Meme
p5806
(dp5807
g3
(lp5808
S'you'
p5809
aS'listen'
p5810
aS'to'
p5811
aS'metal'
p5812
ag14
asg15
S'you listen to metal?'
p5813
sg17
S"but isn't that, like, devil worship or something?"
p5814
sg19
Vsheltered-college-freshman
p5815
sg21
(lp5816
g5809
ag5810
ag5811
ag5812
ag14
aS'but'
p5817
aS'is'
p5818
aS"n't"
p5819
aS'that'
p5820
ag220
aS'like'
p5821
ag220
aS'devil'
p5822
aS'worship'
p5823
aS'or'
p5824
aS'something'
p5825
ag14
asg30
(lp5826
g5817
ag5818
ag5819
ag5820
ag220
ag5821
ag220
ag5822
ag5823
ag5824
ag5825
ag14
asba(iMeme
Meme
p5827
(dp5828
g3
(lp5829
S'gets'
p5830
aS'trashed'
p5831
aS'at'
p5832
aS'party'
p5833
asg15
S'gets trashed at party'
p5834
sg17
S'turns everyone in to student development'
p5835
sg19
Vsheltered-college-freshman
p5836
sg21
(lp5837
g5830
ag5831
ag5832
ag5833
aS'turns'
p5838
aS'everyone'
p5839
aS'in'
p5840
aS'to'
p5841
aS'student'
p5842
aS'development'
p5843
asg30
(lp5844
g5838
ag5839
ag5840
ag5841
ag5842
ag5843
asba(iMeme
Meme
p5845
(dp5846
g3
(lp5847
S'gets'
p5848
aS'trashed'
p5849
aS'at'
p5850
aS'party'
p5851
asg15
S'gets trashed at party'
p5852
sg17
S'turns everyone in to student development'
p5853
sg19
Vsheltered-college-freshman
p5854
sg21
(lp5855
g5848
ag5849
ag5850
ag5851
aS'turns'
p5856
aS'everyone'
p5857
aS'in'
p5858
aS'to'
p5859
aS'student'
p5860
aS'development'
p5861
asg30
(lp5862
g5856
ag5857
ag5858
ag5859
ag5860
ag5861
asba(iMeme
Meme
p5863
(dp5864
g3
(lp5865
S'please'
p5866
aS'invite'
p5867
aS'me'
p5868
asg15
S'please invite me'
p5869
sg17
S'and save me from the gipsy behind'
p5870
sg19
Vsheltered-college-freshman
p5871
sg21
(lp5872
g5866
ag5867
ag5868
aS'and'
p5873
aS'save'
p5874
aS'me'
p5875
aS'from'
p5876
aS'the'
p5877
aS'gipsy'
p5878
aS'behind'
p5879
asg30
(lp5880
g5873
ag5874
ag5875
ag5876
ag5877
ag5878
ag5879
asba(iMeme
Meme
p5881
(dp5882
g3
(lp5883
S'please'
p5884
aS'invite'
p5885
aS'me'
p5886
asg15
S'please invite me'
p5887
sg17
S'and save me from the gipsy behind'
p5888
sg19
Vsheltered-college-freshman
p5889
sg21
(lp5890
g5884
ag5885
ag5886
aS'and'
p5891
aS'save'
p5892
aS'me'
p5893
aS'from'
p5894
aS'the'
p5895
aS'gipsy'
p5896
aS'behind'
p5897
asg30
(lp5898
g5891
ag5892
ag5893
ag5894
ag5895
ag5896
ag5897
asba(iMeme
Meme
p5899
(dp5900
g3
(lp5901
S'please'
p5902
aS'invite'
p5903
aS'me'
p5904
asg15
S'please invite me'
p5905
sg17
S'and save me from the gipsy behind me'
p5906
sg19
Vsheltered-college-freshman
p5907
sg21
(lp5908
g5902
ag5903
ag5904
aS'and'
p5909
aS'save'
p5910
aS'me'
p5911
aS'from'
p5912
aS'the'
p5913
aS'gipsy'
p5914
aS'behind'
p5915
aS'me'
p5916
asg30
(lp5917
g5909
ag5910
ag5911
ag5912
ag5913
ag5914
ag5915
ag5916
asba(iMeme
Meme
p5918
(dp5919
g3
(lp5920
S'asked'
p5921
aS'me'
p5922
aS'out'
p5923
aS'to'
p5924
aS'coffee'
p5925
aS'and'
p5926
aS'cream'
p5927
asg15
S'asked me out to coffee and cream'
p5928
sg17
S'he must be the one'
p5929
sg19
Vsheltered-college-freshman
p5930
sg21
(lp5931
g5921
ag5922
ag5923
ag5924
ag5925
ag5926
ag5927
aS'he'
p5932
aS'must'
p5933
aS'be'
p5934
aS'the'
p5935
aS'one'
p5936
asg30
(lp5937
g5932
ag5933
ag5934
ag5935
ag5936
asba(iMeme
Meme
p5938
(dp5939
g3
(lp5940
S'quadvod'
p5941
ag14
asg15
S'quadvod?'
p5942
sg17
S'i guess i can handle four vodkas'
p5943
sg19
Vsheltered-college-freshman
p5944
sg21
(lp5945
g5941
ag14
ag53
aS'guess'
p5946
ag53
aS'can'
p5947
aS'handle'
p5948
aS'four'
p5949
aS'vodkas'
p5950
asg30
(lp5951
g53
ag5946
ag53
ag5947
ag5948
ag5949
ag5950
asba(iMeme
Meme
p5952
(dp5953
g3
(lp5954
S'there'
p5955
aS'are'
p5956
aS'so'
p5957
aS'many'
p5958
aS'great'
p5959
aS'guys'
p5960
aS'at'
p5961
aS'uwc'
p5962
ag462
aS'they'
p5963
aS"'re"
p5964
aS'funny'
p5965
ag220
aS'smart'
p5966
ag220
aS'and'
p5967
aS'cute'
p5968
ag266
asg15
S"there are so many great guys at uwc. they're funny, smart, and cute!"
p5969
sg17
S"doesn't realize they're all gay."
p5970
sg19
Vsheltered-college-freshman
p5971
sg21
(lp5972
g5955
ag5956
ag5957
ag5958
ag5959
ag5960
ag5961
ag5962
ag462
ag5963
ag5964
ag5965
ag220
ag5966
ag220
ag5967
ag5968
ag266
aS'does'
p5973
aS"n't"
p5974
aS'realize'
p5975
aS'they'
p5976
aS"'re"
p5977
aS'all'
p5978
aS'gay'
p5979
ag462
asg30
(lp5980
g5973
ag5974
ag5975
ag5976
ag5977
ag5978
ag5979
ag462
asba(iMeme
Meme
p5981
(dp5982
g3
(lp5983
S'gets'
p5984
aS'raped'
p5985
aS'outside'
p5986
aS'strom'
p5987
asg15
S'gets raped outside strom'
p5988
sg17
S'remains afraid of niggers'
p5989
sg19
Vsheltered-college-freshman
p5990
sg21
(lp5991
g5984
ag5985
ag5986
ag5987
aS'remains'
p5992
aS'afraid'
p5993
aS'of'
p5994
aS'niggers'
p5995
asg30
(lp5996
g5992
ag5993
ag5994
ag5995
asba(iMeme
Meme
p5997
(dp5998
g3
(lp5999
S'you'
p6000
aS'live'
p6001
aS'on'
p6002
aS'30th'
p6003
aS'and'
p6004
aS'fulton'
p6005
ag14
asg15
S'you live on 30th and fulton?'
p6006
sg17
S'that is soooo far'
p6007
sg19
Vsheltered-college-freshman
p6008
sg21
(lp6009
g6000
ag6001
ag6002
ag6003
ag6004
ag6005
ag14
aS'that'
p6010
aS'is'
p6011
aS'soooo'
p6012
aS'far'
p6013
asg30
(lp6014
g6010
ag6011
ag6012
ag6013
asba(iMeme
Meme
p6015
(dp6016
g3
(lp6017
S'meme'
p6018
ag14
asg15
S'meme?'
p6019
sg17
S"isn't that an animal or something?"
p6020
sg19
Vsheltered-college-freshman
p6021
sg21
(lp6022
g6018
ag14
aS'is'
p6023
aS"n't"
p6024
aS'that'
p6025
aS'an'
p6026
aS'animal'
p6027
aS'or'
p6028
aS'something'
p6029
ag14
asg30
(lp6030
g6023
ag6024
ag6025
ag6026
ag6027
ag6028
ag6029
ag14
asba(iMeme
Meme
p6031
(dp6032
g3
(lp6033
S'what'
p6034
aS"'s"
p6035
ag28
aS'meme'
p6036
ag14
asg15
S"what's a meme?"
p6037
sg17
S'is it an animal?'
p6038
sg19
Vsheltered-college-freshman
p6039
sg21
(lp6040
g6034
ag6035
ag28
ag6036
ag14
aS'is'
p6041
aS'it'
p6042
aS'an'
p6043
aS'animal'
p6044
ag14
asg30
(lp6045
g6041
ag6042
ag6043
ag6044
ag14
asba(iMeme
Meme
p6046
(dp6047
g3
(lp6048
S'told'
p6049
aS'me'
p6050
aS'to'
p6051
aS'make'
p6052
aS'him'
p6053
ag28
aS'sandwich'
p6054
asg15
S'told me to make him a sandwich'
p6055
sg17
S'told him to go die'
p6056
sg19
Vsheltered-college-freshman
p6057
sg21
(lp6058
g6049
ag6050
ag6051
ag6052
ag6053
ag28
ag6054
aS'told'
p6059
aS'him'
p6060
aS'to'
p6061
aS'go'
p6062
aS'die'
p6063
asg30
(lp6064
g6059
ag6060
ag6061
ag6062
ag6063
asba(iMeme
Meme
p6065
(dp6066
g3
(lp6067
g53
aS'think'
p6068
aS'that'
p6069
aS'the'
p6070
aS'happy'
p6071
aS'girls'
p6072
asg15
S'i think that the happy girls'
p6073
sg17
S'are the pretty ones'
p6074
sg19
Vsheltered-college-freshman
p6075
sg21
(lp6076
g53
ag6068
ag6069
ag6070
ag6071
ag6072
aS'are'
p6077
aS'the'
p6078
aS'pretty'
p6079
aS'ones'
p6080
asg30
(lp6081
g6077
ag6078
ag6079
ag6080
asba(iMeme
Meme
p6082
(dp6083
g3
(lp6084
S'erasmus'
p6085
aS'student'
p6086
aS'wants'
p6087
aS'to'
p6088
aS'meet'
p6089
aS'english'
p6090
aS'men'
p6091
asg15
S'erasmus student wants to meet english men'
p6092
sg17
S'gets pregnant first day'
p6093
sg19
Vsheltered-college-freshman
p6094
sg21
(lp6095
g6085
ag6086
ag6087
ag6088
ag6089
ag6090
ag6091
aS'gets'
p6096
aS'pregnant'
p6097
aS'first'
p6098
aS'day'
p6099
asg30
(lp6100
g6096
ag6097
ag6098
ag6099
asba(iMeme
Meme
p6101
(dp6102
g3
(lp6103
S'waves'
p6104
aS'to'
p6105
aS'shirtless'
p6106
aS'msum'
p6107
aS'runners'
p6108
asg15
S'waves to shirtless msum runners'
p6109
sg17
S'beanie stolen'
p6110
sg19
Vsheltered-college-freshman
p6111
sg21
(lp6112
g6104
ag6105
ag6106
ag6107
ag6108
aS'beanie'
p6113
aS'stolen'
p6114
asg30
(lp6115
g6113
ag6114
asba(iMeme
Meme
p6116
(dp6117
g3
(lp6118
S'going'
p6119
aS'clubbing'
p6120
aS'tonight'
p6121
ag266
ag266
ag266
asg15
S'going clubbing tonight!!!'
p6122
sg17
S'spends thursday night in library.'
p6123
sg19
Vsheltered-college-freshman
p6124
sg21
(lp6125
g6119
ag6120
ag6121
ag266
ag266
ag266
aS'spends'
p6126
aS'thursday'
p6127
aS'night'
p6128
aS'in'
p6129
aS'library'
p6130
ag462
asg30
(lp6131
g6126
ag6127
ag6128
ag6129
ag6130
ag462
asba(iMeme
Meme
p6132
(dp6133
g3
(lp6134
g53
aS'just'
p6135
aS'love'
p6136
aS'swinging'
p6137
asg15
S'i just love swinging'
p6138
sg17
S'my keys and special wallet! :d'
p6139
sg19
Vsheltered-college-freshman
p6140
sg21
(lp6141
g53
ag6135
ag6136
ag6137
aS'my'
p6142
aS'keys'
p6143
aS'and'
p6144
aS'special'
p6145
aS'wallet'
p6146
ag266
ag2996
aS'd'
p6147
asg30
(lp6148
g6142
ag6143
ag6144
ag6145
ag6146
ag266
ag2996
ag6147
asba(iMeme
Meme
p6149
(dp6150
g3
(lp6151
S'``'
p6152
aS'party'
p6153
ag1742
aS'the'
p6154
aS'baseball'
p6155
aS'house'
p6156
aS'tonight'
p6157
ag266
aS"''"
p6158
asg15
S'"party @ the baseball house tonight!"'
p6159
sg17
S'gets raped'
p6160
sg19
Vsheltered-college-freshman
p6161
sg21
(lp6162
g6152
ag6153
ag1742
ag6154
ag6155
ag6156
ag6157
ag266
ag6158
aS'gets'
p6163
aS'raped'
p6164
asg30
(lp6165
g6163
ag6164
asba(iMeme
Meme
p6166
(dp6167
g3
(lp6168
S'takes'
p6169
ag2628
aS'shots'
p6170
asg15
S'takes 4 shots'
p6171
sg17
S'ends up in crawford county hospital'
p6172
sg19
Vsheltered-college-freshman
p6173
sg21
(lp6174
g6169
ag2628
ag6170
aS'ends'
p6175
aS'up'
p6176
aS'in'
p6177
aS'crawford'
p6178
aS'county'
p6179
aS'hospital'
p6180
asg30
(lp6181
g6175
ag6176
ag6177
ag6178
ag6179
ag6180
asba(iMeme
Meme
p6182
(dp6183
g3
(lp6184
S'olivet'
p6185
aS'bubble'
p6186
ag14
asg15
S'olivet bubble?'
p6187
sg17
S"i didn't know we had bathtubs"
p6188
sg19
Vsheltered-college-freshman
p6189
sg21
(lp6190
g6185
ag6186
ag14
ag53
aS'did'
p6191
aS"n't"
p6192
aS'know'
p6193
aS'we'
p6194
aS'had'
p6195
aS'bathtubs'
p6196
asg30
(lp6197
g53
ag6191
ag6192
ag6193
ag6194
ag6195
ag6196
asba(iMeme
Meme
p6198
(dp6199
g3
(lp6200
S'wow'
p6201
aS'all'
p6202
aS'these'
p6203
aS'seniors'
p6204
aS'are'
p6205
aS'so'
p6206
aS'nice'
p6207
asg15
S'wow all these seniors are so nice'
p6208
sg17
S'and they are all single too!'
p6209
sg19
Vsheltered-college-freshman
p6210
sg21
(lp6211
g6201
ag6202
ag6203
ag6204
ag6205
ag6206
ag6207
aS'and'
p6212
aS'they'
p6213
aS'are'
p6214
aS'all'
p6215
aS'single'
p6216
aS'too'
p6217
ag266
asg30
(lp6218
g6212
ag6213
ag6214
ag6215
ag6216
ag6217
ag266
asba(iMeme
Meme
p6219
(dp6220
g3
(lp6221
S'hulu'
p6222
ag14
asg15
S'hulu?'
p6223
sg17
S'is that a band?'
p6224
sg19
Vsheltered-college-freshman
p6225
sg21
(lp6226
g6222
ag14
aS'is'
p6227
aS'that'
p6228
ag28
aS'band'
p6229
ag14
asg30
(lp6230
g6227
ag6228
ag28
ag6229
ag14
asba(iMeme
Meme
p6231
(dp6232
g3
(lp6233
S'god'
p6234
aS'bless'
p6235
aS'third'
p6236
aS'world'
p6237
asg15
S'god bless third world'
p6238
sg17
S'their printers work'
p6239
sg19
Vsheltered-college-freshman
p6240
sg21
(lp6241
g6234
ag6235
ag6236
ag6237
aS'their'
p6242
aS'printers'
p6243
aS'work'
p6244
asg30
(lp6245
g6242
ag6243
ag6244
asba(iMeme
Meme
p6246
(dp6247
g3
(lp6248
S'can'
p6249
aS'you'
p6250
aS'hear'
p6251
aS'undeserved'
p6252
aS'venomous'
p6253
aS'bitching'
p6254
ag14
asg15
S'can you hear undeserved venomous bitching?'
p6255
sg17
S'then your drinking coffee in the salty centre.'
p6256
sg19
Vsheltered-college-freshman
p6257
sg21
(lp6258
g6249
ag6250
ag6251
ag6252
ag6253
ag6254
ag14
aS'then'
p6259
aS'your'
p6260
aS'drinking'
p6261
aS'coffee'
p6262
aS'in'
p6263
aS'the'
p6264
aS'salty'
p6265
aS'centre'
p6266
ag462
asg30
(lp6267
g6259
ag6260
ag6261
ag6262
ag6263
ag6264
ag6265
ag6266
ag462
asba(iMeme
Meme
p6268
(dp6269
g3
(lp6270
S'attends'
p6271
aS'cult'
p6272
aS'film'
p6273
aS'society'
p6274
aS'screening'
p6275
asg15
S'attends cult film society screening'
p6276
sg17
S'soul scarred for life'
p6277
sg19
Vsheltered-college-freshman
p6278
sg21
(lp6279
g6271
ag6272
ag6273
ag6274
ag6275
aS'soul'
p6280
aS'scarred'
p6281
aS'for'
p6282
aS'life'
p6283
asg30
(lp6284
g6280
ag6281
ag6282
ag6283
asba(iMeme
Meme
p6285
(dp6286
g3
(lp6287
S'late'
p6288
aS'to'
p6289
aS'class'
p6290
asg15
S'late to class'
p6291
sg17
S'latte to class'
p6292
sg19
Vsheltered-college-freshman
p6293
sg21
(lp6294
g6288
ag6289
ag6290
aS'latte'
p6295
aS'to'
p6296
aS'class'
p6297
asg30
(lp6298
g6295
ag6296
ag6297
asba(iMeme
Meme
p6299
(dp6300
g3
(lp6301
S'comes'
p6302
aS'to'
p6303
aS'ou'
p6304
ag2996
aS"''"
p6305
ag53
aS'do'
p6306
aS"n't"
p6307
aS'drink'
p6308
aS"''"
p6309
asg15
S'comes to ou:"i don\'t drink"'
p6310
sg17
S'leaves after fall quarter: raging alcoholic'
p6311
sg19
Vsheltered-college-freshman
p6312
sg21
(lp6313
g6302
ag6303
ag6304
ag2996
ag6305
ag53
ag6306
ag6307
ag6308
ag6309
aS'leaves'
p6314
aS'after'
p6315
aS'fall'
p6316
aS'quarter'
p6317
ag2996
aS'raging'
p6318
aS'alcoholic'
p6319
asg30
(lp6320
g6314
ag6315
ag6316
ag6317
ag2996
ag6318
ag6319
asba(iMeme
Meme
p6321
(dp6322
g3
(lp6323
S'comes'
p6324
aS'to'
p6325
aS'ou'
p6326
ag2996
aS'``'
p6327
ag53
aS'do'
p6328
aS"n't"
p6329
aS'drink'
p6330
aS"''"
p6331
asg15
S'comes to ou:                                           "i don\'t drink"'
p6332
sg17
S'leaves after fall quarter: raging alcoholic'
p6333
sg19
Vsheltered-college-freshman
p6334
sg21
(lp6335
g6324
ag6325
ag6326
ag2996
ag6327
ag53
ag6328
ag6329
ag6330
ag6331
aS'leaves'
p6336
aS'after'
p6337
aS'fall'
p6338
aS'quarter'
p6339
ag2996
aS'raging'
p6340
aS'alcoholic'
p6341
asg30
(lp6342
g6336
ag6337
ag6338
ag6339
ag2996
ag6340
ag6341
asba(iMeme
Meme
p6343
(dp6344
g3
(lp6345
S'comes'
p6346
aS'to'
p6347
aS'ou'
p6348
ag2996
aS'``'
p6349
ag53
aS'do'
p6350
aS"n't"
p6351
aS'drink'
p6352
aS"''"
p6353
asg15
S'comes to ou:                       "i don\'t drink"'
p6354
sg17
S'leaves after fall quarter: raging alcoholic'
p6355
sg19
Vsheltered-college-freshman
p6356
sg21
(lp6357
g6346
ag6347
ag6348
ag2996
ag6349
ag53
ag6350
ag6351
ag6352
ag6353
aS'leaves'
p6358
aS'after'
p6359
aS'fall'
p6360
aS'quarter'
p6361
ag2996
aS'raging'
p6362
aS'alcoholic'
p6363
asg30
(lp6364
g6358
ag6359
ag6360
ag6361
ag2996
ag6362
ag6363
asba(iMeme
Meme
p6365
(dp6366
g3
(lp6367
S'first'
p6368
aS'year'
p6369
ag2996
aS'business'
p6370
aS'student'
p6371
asg15
S'first year: business student'
p6372
sg17
S'second year: nursing'
p6373
sg19
Vsheltered-college-freshman
p6374
sg21
(lp6375
g6368
ag6369
ag2996
ag6370
ag6371
aS'second'
p6376
aS'year'
p6377
ag2996
aS'nursing'
p6378
asg30
(lp6379
g6376
ag6377
ag2996
ag6378
asba(iMeme
Meme
p6380
(dp6381
g3
(lp6382
S'comes'
p6383
aS'to'
p6384
aS'ou'
p6385
ag2996
aS'``'
p6386
ag53
aS'do'
p6387
aS"n't"
p6388
aS'drink'
p6389
aS"''"
p6390
asg15
S'comes to ou:                       "i don\'t drink"'
p6391
sg17
S'leaves after fall quarter: raging alcoholic'
p6392
sg19
Vsheltered-college-freshman
p6393
sg21
(lp6394
g6383
ag6384
ag6385
ag2996
ag6386
ag53
ag6387
ag6388
ag6389
ag6390
aS'leaves'
p6395
aS'after'
p6396
aS'fall'
p6397
aS'quarter'
p6398
ag2996
aS'raging'
p6399
aS'alcoholic'
p6400
asg30
(lp6401
g6395
ag6396
ag6397
ag6398
ag2996
ag6399
ag6400
asba(iMeme
Meme
p6402
(dp6403
g3
(lp6404
S'comes'
p6405
aS'to'
p6406
aS'ou'
p6407
ag2996
aS'``'
p6408
ag53
aS'do'
p6409
aS"n't"
p6410
aS'drink'
p6411
aS"''"
p6412
asg15
S'comes to ou:          "i don\'t drink"'
p6413
sg17
S'leaves after fall quarter: raging alcoholic'
p6414
sg19
Vsheltered-college-freshman
p6415
sg21
(lp6416
g6405
ag6406
ag6407
ag2996
ag6408
ag53
ag6409
ag6410
ag6411
ag6412
aS'leaves'
p6417
aS'after'
p6418
aS'fall'
p6419
aS'quarter'
p6420
ag2996
aS'raging'
p6421
aS'alcoholic'
p6422
asg30
(lp6423
g6417
ag6418
ag6419
ag6420
ag2996
ag6421
ag6422
asba(iMeme
Meme
p6424
(dp6425
g3
(lp6426
S'``'
p6427
aS'did'
p6428
aS'you'
p6429
aS'go'
p6430
aS'to'
p6431
aS'the'
p6432
aS'soccer'
p6433
aS'game'
p6434
aS'today'
p6435
aS'or'
p6436
aS'are'
p6437
aS'you'
p6438
aS'just'
p6439
aS'wearing'
p6440
aS'the'
p6441
aS'shirt'
p6442
ag14
aS"''"
p6443
asg15
S'"did you go to the soccer game today or are you just wearing the shirt?"'
p6444
sg17
S'soccer season is over'
p6445
sg19
Vsheltered-college-freshman
p6446
sg21
(lp6447
g6427
ag6428
ag6429
ag6430
ag6431
ag6432
ag6433
ag6434
ag6435
ag6436
ag6437
ag6438
ag6439
ag6440
ag6441
ag6442
ag14
ag6443
aS'soccer'
p6448
aS'season'
p6449
aS'is'
p6450
aS'over'
p6451
asg30
(lp6452
g6448
ag6449
ag6450
ag6451
asba(iMeme
Meme
p6453
(dp6454
g3
(lp6455
S'``'
p6456
aS'did'
p6457
aS'you'
p6458
aS'go'
p6459
aS'to'
p6460
aS'the'
p6461
aS'soccer'
p6462
aS'game'
p6463
aS'today'
p6464
ag14
aS"''"
p6465
asg15
S'"did you go to the soccer game today?"'
p6466
sg17
S'soccer season is over'
p6467
sg19
Vsheltered-college-freshman
p6468
sg21
(lp6469
g6456
ag6457
ag6458
ag6459
ag6460
ag6461
ag6462
ag6463
ag6464
ag14
ag6465
aS'soccer'
p6470
aS'season'
p6471
aS'is'
p6472
aS'over'
p6473
asg30
(lp6474
g6470
ag6471
ag6472
ag6473
asba(iMeme
Meme
p6475
(dp6476
g3
(lp6477
S'no'
p6478
ag53
aS'ca'
p6479
aS"n't"
p6480
aS'join'
p6481
aS'chi'
p6482
aS'alpha'
p6483
asg15
S"no i can't join chi alpha"
p6484
sg17
S"i'm prescatarian"
p6485
sg19
Vsheltered-college-freshman
p6486
sg21
(lp6487
g6478
ag53
ag6479
ag6480
ag6481
ag6482
ag6483
ag53
aS"'m"
p6488
aS'prescatarian'
p6489
asg30
(lp6490
g53
ag6488
ag6489
asba(iMeme
Meme
p6491
(dp6492
g3
(lp6493
S'no'
p6494
ag53
aS'ca'
p6495
aS"n't"
p6496
aS'join'
p6497
aS'chi'
p6498
aS'alpha'
p6499
asg15
S"no i can't join chi alpha"
p6500
sg17
S'prescatarian'
p6501
sg19
Vsheltered-college-freshman
p6502
sg21
(lp6503
g6494
ag53
ag6495
ag6496
ag6497
ag6498
ag6499
aS'prescatarian'
p6504
asg30
(lp6505
g6504
asba(iMeme
Meme
p6506
(dp6507
g3
(lp6508
S'turns'
p6509
aS'18'
p6510
asg15
S'turns 18'
p6511
sg17
S'"i finally get mrr\'s special present!"'
p6512
sg19
Vsheltered-college-freshman
p6513
sg21
(lp6514
g6509
ag6510
aS'``'
p6515
ag53
aS'finally'
p6516
aS'get'
p6517
aS'mrr'
p6518
aS"'s"
p6519
aS'special'
p6520
aS'present'
p6521
ag266
aS"''"
p6522
asg30
(lp6523
g6515
ag53
ag6516
ag6517
ag6518
ag6519
ag6520
ag6521
ag266
ag6522
asba(iMeme
Meme
p6524
(dp6525
g3
(lp6526
S'medill'
p6527
aS'student'
p6528
aS'does'
p6529
aS'research'
p6530
asg15
S'medill student does research'
p6531
sg17
S'starts on facebook'
p6532
sg19
Vsheltered-college-freshman
p6533
sg21
(lp6534
g6527
ag6528
ag6529
ag6530
aS'starts'
p6535
aS'on'
p6536
aS'facebook'
p6537
asg30
(lp6538
g6535
ag6536
ag6537
asba(iMeme
Meme
p6539
(dp6540
g3
(lp6541
S'ready'
p6542
aS'for'
p6543
aS'your'
p6544
aS'special'
p6545
aS'gift'
p6546
ag14
asg15
S'ready for your special gift?'
p6547
sg17
S"after all these years i finally get mrr's present!"
p6548
sg19
Vsheltered-college-freshman
p6549
sg21
(lp6550
g6542
ag6543
ag6544
ag6545
ag6546
ag14
aS'after'
p6551
aS'all'
p6552
aS'these'
p6553
aS'years'
p6554
ag53
aS'finally'
p6555
aS'get'
p6556
aS'mrr'
p6557
aS"'s"
p6558
aS'present'
p6559
ag266
asg30
(lp6560
g6551
ag6552
ag6553
ag6554
ag53
ag6555
ag6556
ag6557
ag6558
ag6559
ag266
asba(iMeme
Meme
p6561
(dp6562
g3
(lp6563
S'comes'
p6564
aS'to'
p6565
aS'ou'
p6566
ag2996
aS'``'
p6567
ag53
aS'do'
p6568
aS"n't"
p6569
aS'drink'
p6570
aS"''"
p6571
asg15
S'comes to ou:  "i don\'t drink"'
p6572
sg17
S'leaves after fall quarter: raging alcoholic'
p6573
sg19
Vsheltered-college-freshman
p6574
sg21
(lp6575
g6564
ag6565
ag6566
ag2996
ag6567
ag53
ag6568
ag6569
ag6570
ag6571
aS'leaves'
p6576
aS'after'
p6577
aS'fall'
p6578
aS'quarter'
p6579
ag2996
aS'raging'
p6580
aS'alcoholic'
p6581
asg30
(lp6582
g6576
ag6577
ag6578
ag6579
ag2996
ag6580
ag6581
asba(iMeme
Meme
p6583
(dp6584
g3
(lp6585
S'jesus'
p6586
aS'will'
p6587
aS'save'
p6588
aS'me'
p6589
asg15
S'jesus will save me'
p6590
sg17
S'get raped by kikes'
p6591
sg19
Vsheltered-college-freshman
p6592
sg21
(lp6593
g6586
ag6587
ag6588
ag6589
aS'get'
p6594
aS'raped'
p6595
aS'by'
p6596
aS'kikes'
p6597
asg30
(lp6598
g6594
ag6595
ag6596
ag6597
asba(iMeme
Meme
p6599
(dp6600
g3
(lp6601
S'gets'
p6602
aS'raped'
p6603
aS'in'
p6604
aS'library'
p6605
asg15
S'gets raped in library'
p6606
sg17
S'remains afraid of niggers'
p6607
sg19
Vsheltered-college-freshman
p6608
sg21
(lp6609
g6602
ag6603
ag6604
ag6605
aS'remains'
p6610
aS'afraid'
p6611
aS'of'
p6612
aS'niggers'
p6613
asg30
(lp6614
g6610
ag6611
ag6612
ag6613
asba(iMeme
Meme
p6615
(dp6616
g3
(lp6617
g53
aS'think'
p6618
ag53
aS"'m"
p6619
aS'gon'
p6620
aS'na'
p6621
aS'take'
p6622
asg15
S"i think i'm gonna take"
p6623
sg17
S'intro to arts and sciences'
p6624
sg19
Vsheltered-college-freshman
p6625
sg21
(lp6626
g53
ag6618
ag53
ag6619
ag6620
ag6621
ag6622
aS'intro'
p6627
aS'to'
p6628
aS'arts'
p6629
aS'and'
p6630
aS'sciences'
p6631
asg30
(lp6632
g6627
ag6628
ag6629
ag6630
ag6631
asba(iMeme
Meme
p6633
(dp6634
g3
(lp6635
g53
aS'think'
p6636
aS'im'
p6637
aS'taking'
p6638
asg15
S'i think im taking'
p6639
sg17
S'intro to arts and sciences'
p6640
sg19
Vsheltered-college-freshman
p6641
sg21
(lp6642
g53
ag6636
ag6637
ag6638
aS'intro'
p6643
aS'to'
p6644
aS'arts'
p6645
aS'and'
p6646
aS'sciences'
p6647
asg30
(lp6648
g6643
ag6644
ag6645
ag6646
ag6647
asba(iMeme
Meme
p6649
(dp6650
g3
(lp6651
S'``'
p6652
ag53
aS'do'
p6653
aS"n't"
p6654
aS'like'
p6655
aS'it'
p6656
aS'when'
p6657
aS'guys'
p6658
aS'check'
p6659
aS'me'
p6660
aS'out'
p6661
aS'in'
p6662
aS'the'
p6663
aS'rec'
p6664
aS"''"
p6665
asg15
S'"i don\'t like it when guys check me out in the rec"'
p6666
sg17
S'could not have worn less clothes'
p6667
sg19
Vsheltered-college-freshman
p6668
sg21
(lp6669
g6652
ag53
ag6653
ag6654
ag6655
ag6656
ag6657
ag6658
ag6659
ag6660
ag6661
ag6662
ag6663
ag6664
ag6665
aS'could'
p6670
aS'not'
p6671
aS'have'
p6672
aS'worn'
p6673
aS'less'
p6674
aS'clothes'
p6675
asg30
(lp6676
g6670
ag6671
ag6672
ag6673
ag6674
ag6675
asba(iMeme
Meme
p6677
(dp6678
g3
(lp6679
S'noticed'
p6680
aS'the'
p6681
aS'professor'
p6682
aS'forgot'
p6683
aS'to'
p6684
aS'cover'
p6685
aS'material'
p6686
asg15
S'noticed the professor forgot to cover material'
p6687
sg17
S'tells professor'
p6688
sg19
Vsheltered-college-freshman
p6689
sg21
(lp6690
g6680
ag6681
ag6682
ag6683
ag6684
ag6685
ag6686
aS'tells'
p6691
aS'professor'
p6692
asg30
(lp6693
g6691
ag6692
asba(iMeme
Meme
p6694
(dp6695
g3
(lp6696
S'harry'
p6697
aS'potter'
p6698
ag14
asg15
S'harry potter?'
p6699
sg17
S"isn't witchcraft evil?"
p6700
sg19
Vsheltered-college-freshman
p6701
sg21
(lp6702
g6697
ag6698
ag14
aS'is'
p6703
aS"n't"
p6704
aS'witchcraft'
p6705
aS'evil'
p6706
ag14
asg30
(lp6707
g6703
ag6704
ag6705
ag6706
ag14
asba(iMeme
Meme
p6708
(dp6709
g3
(lp6710
S'you'
p6711
aS'live'
p6712
aS'at'
p6713
aS'moody'
p6714
ag14
asg15
S'you live at moody?'
p6715
sg17
S'wow.'
p6716
sg19
Vsheltered-college-freshman
p6717
sg21
(lp6718
g6711
ag6712
ag6713
ag6714
ag14
aS'wow'
p6719
ag462
asg30
(lp6720
g6719
ag462
asba(iMeme
Meme
p6721
(dp6722
g3
(lp6723
S'invited'
p6724
aS'to'
p6725
aS'breakfast'
p6726
aS'with'
p6727
aS'jogo'
p6728
asg15
S'invited to breakfast with jogo'
p6729
sg17
S'actually finds five friends to go'
p6730
sg19
Vsheltered-college-freshman
p6731
sg21
(lp6732
g6724
ag6725
ag6726
ag6727
ag6728
aS'actually'
p6733
aS'finds'
p6734
aS'five'
p6735
aS'friends'
p6736
aS'to'
p6737
aS'go'
p6738
asg30
(lp6739
g6733
ag6734
ag6735
ag6736
ag6737
ag6738
asba(iMeme
Meme
p6740
(dp6741
g3
(lp6742
S'rides'
p6743
aS'charlie'
p6744
aS"'s"
p6745
aS'charter'
p6746
aS'on'
p6747
aS'tuesday'
p6748
asg15
S"rides charlie's charter on tuesday"
p6749
sg17
S'still gets barfed on'
p6750
sg19
Vsheltered-college-freshman
p6751
sg21
(lp6752
g6743
ag6744
ag6745
ag6746
ag6747
ag6748
aS'still'
p6753
aS'gets'
p6754
aS'barfed'
p6755
aS'on'
p6756
asg30
(lp6757
g6753
ag6754
ag6755
ag6756
asba(iMeme
Meme
p6758
(dp6759
g3
(lp6760
S'rides'
p6761
aS'in'
p6762
aS'charlie'
p6763
aS"'s"
p6764
aS'charter'
p6765
aS'on'
p6766
aS'tuesday'
p6767
asg15
S"rides in charlie's charter on tuesday"
p6768
sg17
S'still gets barfed on somehow'
p6769
sg19
Vsheltered-college-freshman
p6770
sg21
(lp6771
g6761
ag6762
ag6763
ag6764
ag6765
ag6766
ag6767
aS'still'
p6772
aS'gets'
p6773
aS'barfed'
p6774
aS'on'
p6775
aS'somehow'
p6776
asg30
(lp6777
g6772
ag6773
ag6774
ag6775
ag6776
asba(iMeme
Meme
p6778
(dp6779
g3
(lp6780
S'yeah'
p6781
asg15
S'yeah'
p6782
sg17
S'i live in deho'
p6783
sg19
Vsheltered-college-freshman
p6784
sg21
(lp6785
g6781
ag53
aS'live'
p6786
aS'in'
p6787
aS'deho'
p6788
asg30
(lp6789
g53
ag6786
ag6787
ag6788
asba(iMeme
Meme
p6790
(dp6791
g3
(lp6792
S'wears'
p6793
aS'tank'
p6794
aS'top'
p6795
aS'to'
p6796
aS'class'
p6797
asg15
S'wears tank top to class'
p6798
sg17
S"brickyard preacher screams at me that i'm going to hell"
p6799
sg19
Vsheltered-college-freshman
p6800
sg21
(lp6801
g6793
ag6794
ag6795
ag6796
ag6797
aS'brickyard'
p6802
aS'preacher'
p6803
aS'screams'
p6804
aS'at'
p6805
aS'me'
p6806
aS'that'
p6807
ag53
aS"'m"
p6808
aS'going'
p6809
aS'to'
p6810
aS'hell'
p6811
asg30
(lp6812
g6802
ag6803
ag6804
ag6805
ag6806
ag6807
ag53
ag6808
ag6809
ag6810
ag6811
asba(iMeme
Meme
p6813
(dp6814
g3
(lp6815
S'comes'
p6816
aS'to'
p6817
aS'ball'
p6818
aS'state'
p6819
ag2996
aS'``'
p6820
ag53
aS'do'
p6821
aS"n't"
p6822
aS'drink'
p6823
aS"''"
p6824
asg15
S'comes to ball state: "i don\'t drink"'
p6825
sg17
S'leaves after first semester: raging alcoholic'
p6826
sg19
Vsheltered-college-freshman
p6827
sg21
(lp6828
g6816
ag6817
ag6818
ag6819
ag2996
ag6820
ag53
ag6821
ag6822
ag6823
ag6824
aS'leaves'
p6829
aS'after'
p6830
aS'first'
p6831
aS'semester'
p6832
ag2996
aS'raging'
p6833
aS'alcoholic'
p6834
asg30
(lp6835
g6829
ag6830
ag6831
ag6832
ag2996
ag6833
ag6834
asba(iMeme
Meme
p6836
(dp6837
g3
(lp6838
g53
aS'would'
p6839
aS'totally'
p6840
asg15
S'i would totally'
p6841
sg17
S'fuck this girl'
p6842
sg19
Vsheltered-college-freshman
p6843
sg21
(lp6844
g53
ag6839
ag6840
aS'fuck'
p6845
aS'this'
p6846
aS'girl'
p6847
asg30
(lp6848
g6845
ag6846
ag6847
asba(iMeme
Meme
p6849
(dp6850
g3
(lp6851
S'arrives'
p6852
aS'at'
p6853
aS'utsa'
p6854
asg15
S'arrives at utsa'
p6855
sg17
S'thinks all the colored kids are foreigners'
p6856
sg19
Vsheltered-college-freshman
p6857
sg21
(lp6858
g6852
ag6853
ag6854
aS'thinks'
p6859
aS'all'
p6860
aS'the'
p6861
aS'colored'
p6862
aS'kids'
p6863
aS'are'
p6864
aS'foreigners'
p6865
asg30
(lp6866
g6859
ag6860
ag6861
ag6862
ag6863
ag6864
ag6865
asba(iMeme
Meme
p6867
(dp6868
g3
(lp6869
S'pledge'
p6870
aS'calpirg'
p6871
asg15
S'pledge calpirg'
p6872
sg17
S'is that like a frat or something?'
p6873
sg19
Vsheltered-college-freshman
p6874
sg21
(lp6875
g6870
ag6871
aS'is'
p6876
aS'that'
p6877
aS'like'
p6878
ag28
aS'frat'
p6879
aS'or'
p6880
aS'something'
p6881
ag14
asg30
(lp6882
g6876
ag6877
ag6878
ag28
ag6879
ag6880
ag6881
ag14
asba(iMeme
Meme
p6883
(dp6884
g3
(lp6885
S'complains'
p6886
aS'about'
p6887
aS'being'
p6888
aS'bored'
p6889
asg15
S'complains about being bored'
p6890
sg17
S'never leaves campus'
p6891
sg19
Vsheltered-college-freshman
p6892
sg21
(lp6893
g6886
ag6887
ag6888
ag6889
aS'never'
p6894
aS'leaves'
p6895
aS'campus'
p6896
asg30
(lp6897
g6894
ag6895
ag6896
asba(iMeme
Meme
p6898
(dp6899
g3
(lp6900
S'has'
p6901
aS'no-one'
p6902
aS'else'
p6903
asg15
S'has no-one else'
p6904
sg17
S'read "the boat" by nam le?'
p6905
sg19
Vsheltered-college-freshman
p6906
sg21
(lp6907
g6901
ag6902
ag6903
aS'read'
p6908
aS'``'
p6909
aS'the'
p6910
aS'boat'
p6911
aS"''"
p6912
aS'by'
p6913
aS'nam'
p6914
aS'le'
p6915
ag14
asg30
(lp6916
g6908
ag6909
ag6910
ag6911
ag6912
ag6913
ag6914
ag6915
ag14
asba(iMeme
Meme
p6917
(dp6918
g3
(lp6919
S'tke'
p6920
aS'party'
p6921
ag14
asg15
S'tke party?'
p6922
sg17
S'sounds like fun!'
p6923
sg19
Vsheltered-college-freshman
p6924
sg21
(lp6925
g6920
ag6921
ag14
aS'sounds'
p6926
aS'like'
p6927
aS'fun'
p6928
ag266
asg30
(lp6929
g6926
ag6927
ag6928
ag266
asba(iMeme
Meme
p6930
(dp6931
g3
(lp6932
S'ca'
p6933
aS"n't"
p6934
ag53
aS'just'
p6935
aS'major'
p6936
aS'in'
p6937
asg15
S"can't i just major in"
p6938
sg17
S'foundations of leadership?'
p6939
sg19
Vsheltered-college-freshman
p6940
sg21
(lp6941
g6933
ag6934
ag53
ag6935
ag6936
ag6937
aS'foundations'
p6942
aS'of'
p6943
aS'leadership'
p6944
ag14
asg30
(lp6945
g6942
ag6943
ag6944
ag14
asba(iMeme
Meme
p6946
(dp6947
g3
(lp6948
S'cant'
p6949
aS'wait'
p6950
asg15
S'cant wait'
p6951
sg17
S'for raz later'
p6952
sg19
Vsheltered-college-freshman
p6953
sg21
(lp6954
g6949
ag6950
aS'for'
p6955
aS'raz'
p6956
aS'later'
p6957
asg30
(lp6958
g6955
ag6956
ag6957
asba(iMeme
Meme
p6959
(dp6960
g3
(lp6961
S'go'
p6962
aS'on'
p6963
ag28
aS'date'
p6964
ag14
asg15
S'go on a date?'
p6965
sg17
S'sorry im dating jesus'
p6966
sg19
Vsheltered-college-freshman
p6967
sg21
(lp6968
g6962
ag6963
ag28
ag6964
ag14
aS'sorry'
p6969
aS'im'
p6970
aS'dating'
p6971
aS'jesus'
p6972
asg30
(lp6973
g6969
ag6970
ag6971
ag6972
asba(iMeme
Meme
p6974
(dp6975
g3
(lp6976
S'jeff'
p6977
aS'deyo'
p6978
aS'leads'
p6979
aS'worship'
p6980
aS'every'
p6981
aS'day'
p6982
asg15
S'jeff deyo leads worship every day'
p6983
sg17
S'...new people are on campus.'
p6984
sg19
Vsheltered-college-freshman
p6985
sg21
(lp6986
g6977
ag6978
ag6979
ag6980
ag6981
ag6982
aS'...'
p6987
aS'new'
p6988
aS'people'
p6989
aS'are'
p6990
aS'on'
p6991
aS'campus'
p6992
ag462
asg30
(lp6993
g6987
ag6988
ag6989
ag6990
ag6991
ag6992
ag462
asba(iMeme
Meme
p6994
(dp6995
g3
(lp6996
S'asked'
p6997
aS'me'
p6998
aS'out'
p6999
aS'to'
p7000
aS'coffee'
p7001
asg15
S'asked me out to coffee'
p7002
sg17
S'he must be the one'
p7003
sg19
Vsheltered-college-freshman
p7004
sg21
(lp7005
g6997
ag6998
ag6999
ag7000
ag7001
aS'he'
p7006
aS'must'
p7007
aS'be'
p7008
aS'the'
p7009
aS'one'
p7010
asg30
(lp7011
g7006
ag7007
ag7008
ag7009
ag7010
asba(iMeme
Meme
p7012
(dp7013
g3
(lp7014
S'last'
p7015
aS'night'
p7016
aS'was'
p7017
aS'fun'
p7018
asg15
S'last night was fun'
p7019
sg17
S'i got barebacked by 3 guys in purbeck'
p7020
sg19
Vsheltered-college-freshman
p7021
sg21
(lp7022
g7015
ag7016
ag7017
ag7018
ag53
aS'got'
p7023
aS'barebacked'
p7024
aS'by'
p7025
aS'3'
p7026
aS'guys'
p7027
aS'in'
p7028
aS'purbeck'
p7029
asg30
(lp7030
g53
ag7023
ag7024
ag7025
ag7026
ag7027
ag7028
ag7029
asba(iMeme
Meme
p7031
(dp7032
g3
(lp7033
S'gets'
p7034
aS'invited'
p7035
aS'to'
p7036
aS'legacy'
p7037
aS'b.y.o.b'
p7038
aS'party'
p7039
asg15
S'gets invited to legacy b.y.o.b party'
p7040
sg17
S'brings bible'
p7041
sg19
Vsheltered-college-freshman
p7042
sg21
(lp7043
g7034
ag7035
ag7036
ag7037
ag7038
ag7039
aS'brings'
p7044
aS'bible'
p7045
asg30
(lp7046
g7044
ag7045
asba(iMeme
Meme
p7047
(dp7048
g3
(lp7049
g53
aS'hear'
p7050
aS'rutgers'
p7051
aS'is'
p7052
ag28
aS'very'
p7053
aS'prestigious'
p7054
aS'university'
p7055
asg15
S'i hear rutgers is a very prestigious university'
p7056
sg17
S'red bandana kid accepted'
p7057
sg19
Vsheltered-college-freshman
p7058
sg21
(lp7059
g53
ag7050
ag7051
ag7052
ag28
ag7053
ag7054
ag7055
aS'red'
p7060
aS'bandana'
p7061
aS'kid'
p7062
aS'accepted'
p7063
asg30
(lp7064
g7060
ag7061
ag7062
ag7063
asba(iMeme
Meme
p7065
(dp7066
g3
(lp7067
S'it'
p7068
aS"'s"
p7069
aS'so'
p7070
aS'diverse'
p7071
aS'at'
p7072
aS'utsa'
p7073
asg15
S"it's so diverse at utsa"
p7074
sg17
S"it's like glee"
p7075
sg19
Vsheltered-college-freshman
p7076
sg21
(lp7077
g7068
ag7069
ag7070
ag7071
ag7072
ag7073
aS'it'
p7078
aS"'s"
p7079
aS'like'
p7080
aS'glee'
p7081
asg30
(lp7082
g7078
ag7079
ag7080
ag7081
asba(iMeme
Meme
p7083
(dp7084
g3
(lp7085
S'why'
p7086
aS'would'
p7087
aS'he'
p7088
aS'walk'
p7089
aS'down'
p7090
aS'the'
p7091
aS'strand'
p7092
asg15
S'why would he walk down the strand'
p7093
sg17
S'with a chicken in his hand?'
p7094
sg19
Vsheltered-college-freshman
p7095
sg21
(lp7096
g7086
ag7087
ag7088
ag7089
ag7090
ag7091
ag7092
aS'with'
p7097
ag28
aS'chicken'
p7098
aS'in'
p7099
aS'his'
p7100
aS'hand'
p7101
ag14
asg30
(lp7102
g7097
ag28
ag7098
ag7099
ag7100
ag7101
ag14
asba(iMeme
Meme
p7103
(dp7104
g3
(lp7105
S'first'
p7106
aS'linewhy'
p7107
aS'would'
p7108
aS'he'
p7109
aS'walk'
p7110
aS'down'
p7111
aS'the'
p7112
aS'strand'
p7113
asg15
S'first linewhy would he walk down the strand'
p7114
sg17
S'with a chicken in his hand?'
p7115
sg19
Vsheltered-college-freshman
p7116
sg21
(lp7117
g7106
ag7107
ag7108
ag7109
ag7110
ag7111
ag7112
ag7113
aS'with'
p7118
ag28
aS'chicken'
p7119
aS'in'
p7120
aS'his'
p7121
aS'hand'
p7122
ag14
asg30
(lp7123
g7118
ag28
ag7119
ag7120
ag7121
ag7122
ag14
asba(iMeme
Meme
p7124
(dp7125
g3
(lp7126
S'why'
p7127
aS'would'
p7128
aS'he'
p7129
aS'walk'
p7130
aS'down'
p7131
aS'the'
p7132
aS'strand'
p7133
asg15
S'why would he walk down the strand'
p7134
sg17
S'with a chicken in his hand?'
p7135
sg19
Vsheltered-college-freshman
p7136
sg21
(lp7137
g7127
ag7128
ag7129
ag7130
ag7131
ag7132
ag7133
aS'with'
p7138
ag28
aS'chicken'
p7139
aS'in'
p7140
aS'his'
p7141
aS'hand'
p7142
ag14
asg30
(lp7143
g7138
ag28
ag7139
ag7140
ag7141
ag7142
ag14
asba(iMeme
Meme
p7144
(dp7145
g3
(lp7146
S'why'
p7147
aS'would'
p7148
aS'he'
p7149
aS'walk'
p7150
aS'down'
p7151
aS'the'
p7152
aS'strand'
p7153
asg15
S'why would he walk down the strand'
p7154
sg17
S'with a chicken in his hand?'
p7155
sg19
Vsheltered-college-freshman
p7156
sg21
(lp7157
g7147
ag7148
ag7149
ag7150
ag7151
ag7152
ag7153
aS'with'
p7158
ag28
aS'chicken'
p7159
aS'in'
p7160
aS'his'
p7161
aS'hand'
p7162
ag14
asg30
(lp7163
g7158
ag28
ag7159
ag7160
ag7161
ag7162
ag14
asba(iMeme
Meme
p7164
(dp7165
g3
(lp7166
S'tries'
p7167
aS'to'
p7168
aS'debate'
p7169
aS'malek'
p7170
asg15
S'tries to debate malek'
p7171
sg17
S'dies'
p7172
sg19
Vsheltered-college-freshman
p7173
sg21
(lp7174
g7167
ag7168
ag7169
ag7170
aS'dies'
p7175
asg30
(lp7176
g7175
asba(iMeme
Meme
p7177
(dp7178
g3
(lp7179
S'std'
p7180
aS'capital'
p7181
aS'of'
p7182
aS'america'
p7183
ag14
aS'lol'
p7184
ag266
ag266
aS'noway'
p7185
ag266
asg15
S'std capital of america? lol!! noway!'
p7186
sg17
S'gets eight.'
p7187
sg19
Vsheltered-college-freshman
p7188
sg21
(lp7189
g7180
ag7181
ag7182
ag7183
ag14
ag7184
ag266
ag266
ag7185
ag266
aS'gets'
p7190
aS'eight'
p7191
ag462
asg30
(lp7192
g7190
ag7191
ag462
asba(iMeme
Meme
p7193
(dp7194
g3
(lp7195
S'takes'
p7196
aS'stairs'
p7197
aS'in'
p7198
aS'fox'
p7199
asg15
S'takes stairs in fox'
p7200
sg17
S'dies'
p7201
sg19
Vsheltered-college-freshman
p7202
sg21
(lp7203
g7196
ag7197
ag7198
ag7199
aS'dies'
p7204
asg30
(lp7205
g7204
asba(iMeme
Meme
p7206
(dp7207
g3
(lp7208
S'week'
p7209
ag561
ag2996
aS'pantsuit'
p7210
asg15
S'week 1: pantsuit'
p7211
sg17
S'week 3: sweatsuit'
p7212
sg19
Vsheltered-college-freshman
p7213
sg21
(lp7214
g7209
ag561
ag2996
ag7210
aS'week'
p7215
ag7026
ag2996
aS'sweatsuit'
p7216
asg30
(lp7217
g7215
ag7026
ag2996
ag7216
asba(iMeme
Meme
p7218
(dp7219
g3
(lp7220
g53
aS'love'
p7221
aS'the'
p7222
aS'marketplace'
p7223
ag220
aS'but'
p7224
aS'it'
p7225
aS"'s"
p7226
aS'too'
p7227
aS'far'
p7228
aS'away'
p7229
asg15
S"i love the marketplace, but it's too far away"
p7230
sg17
S'lives in towers'
p7231
sg19
Vsheltered-college-freshman
p7232
sg21
(lp7233
g53
ag7221
ag7222
ag7223
ag220
ag7224
ag7225
ag7226
ag7227
ag7228
ag7229
aS'lives'
p7234
aS'in'
p7235
aS'towers'
p7236
asg30
(lp7237
g7234
ag7235
ag7236
asba(iMeme
Meme
p7238
(dp7239
g3
(lp7240
S'roy'
p7241
aS'williams'
p7242
ag14
asg15
S'roy williams?'
p7243
sg17
S'does he play football here or something?'
p7244
sg19
Vsheltered-college-freshman
p7245
sg21
(lp7246
g7241
ag7242
ag14
aS'does'
p7247
aS'he'
p7248
aS'play'
p7249
aS'football'
p7250
aS'here'
p7251
aS'or'
p7252
aS'something'
p7253
ag14
asg30
(lp7254
g7247
ag7248
ag7249
ag7250
ag7251
ag7252
ag7253
ag14
asba(iMeme
Meme
p7255
(dp7256
g3
(lp7257
S'dke'
p7258
ag14
asg15
S'dke?'
p7259
sg17
S"i've heard they're nice"
p7260
sg19
Vsheltered-college-freshman
p7261
sg21
(lp7262
g7258
ag14
ag53
aS"'ve"
p7263
aS'heard'
p7264
aS'they'
p7265
aS"'re"
p7266
aS'nice'
p7267
asg30
(lp7268
g53
ag7263
ag7264
ag7265
ag7266
ag7267
asba(iMeme
Meme
p7269
(dp7270
g3
(lp7271
S'he'
p7272
aS'walked'
p7273
aS'me'
p7274
aS'back'
p7275
aS'to'
p7276
aS'my'
p7277
aS'room'
p7278
asg15
S'he walked me back to my room'
p7279
sg17
S'and who said chivalry is dead?'
p7280
sg19
Vsheltered-college-freshman
p7281
sg21
(lp7282
g7272
ag7273
ag7274
ag7275
ag7276
ag7277
ag7278
aS'and'
p7283
aS'who'
p7284
aS'said'
p7285
aS'chivalry'
p7286
aS'is'
p7287
aS'dead'
p7288
ag14
asg30
(lp7289
g7283
ag7284
ag7285
ag7286
ag7287
ag7288
ag14
asba(iMeme
Meme
p7290
(dp7291
g3
(lp7292
S'you'
p7293
aS'are'
p7294
aS'going'
p7295
aS'to'
p7296
aS'drink'
p7297
aS'at'
p7298
aS'the'
p7299
aS'library'
p7300
ag14
asg15
S'you are going to drink at the library?'
p7301
sg17
S"i didn't know they allowed alcohol on campus"
p7302
sg19
Vsheltered-college-freshman
p7303
sg21
(lp7304
g7293
ag7294
ag7295
ag7296
ag7297
ag7298
ag7299
ag7300
ag14
ag53
aS'did'
p7305
aS"n't"
p7306
aS'know'
p7307
aS'they'
p7308
aS'allowed'
p7309
aS'alcohol'
p7310
aS'on'
p7311
aS'campus'
p7312
asg30
(lp7313
g53
ag7305
ag7306
ag7307
ag7308
ag7309
ag7310
ag7311
ag7312
asba(iMeme
Meme
p7314
(dp7315
g3
(lp7316
S'``'
p7317
aS'meet'
p7318
aS'on'
p7319
aS'8th'
p7320
aS'floor'
p7321
ag14
aS"''"
p7322
asg15
S'"meet on 8th floor?"'
p7323
sg17
S"you're so silly, we have chemistry in 4h.17"
p7324
sg19
Vsheltered-college-freshman
p7325
sg21
(lp7326
g7317
ag7318
ag7319
ag7320
ag7321
ag14
ag7322
aS'you'
p7327
aS"'re"
p7328
aS'so'
p7329
aS'silly'
p7330
ag220
aS'we'
p7331
aS'have'
p7332
aS'chemistry'
p7333
aS'in'
p7334
aS'4h.17'
p7335
asg30
(lp7336
g7327
ag7328
ag7329
ag7330
ag220
ag7331
ag7332
ag7333
ag7334
ag7335
asba(iMeme
Meme
p7337
(dp7338
g3
(lp7339
S'``'
p7340
aS'meet'
p7341
aS'you'
p7342
aS'on'
p7343
aS'the'
p7344
aS'8th'
p7345
aS'floor'
p7346
ag14
aS"''"
p7347
asg15
S'"meet you on the 8th floor?"'
p7348
sg17
S'but i have class on the 4th floor'
p7349
sg19
Vsheltered-college-freshman
p7350
sg21
(lp7351
g7340
ag7341
ag7342
ag7343
ag7344
ag7345
ag7346
ag14
ag7347
aS'but'
p7352
ag53
aS'have'
p7353
aS'class'
p7354
aS'on'
p7355
aS'the'
p7356
aS'4th'
p7357
aS'floor'
p7358
asg30
(lp7359
g7352
ag53
ag7353
ag7354
ag7355
ag7356
ag7357
ag7358
asba(iMeme
Meme
p7360
(dp7361
g3
(lp7362
S'you'
p7363
aS'and'
p7364
aS'your'
p7365
aS'friend'
p7366
aS'want'
p7367
aS'to'
p7368
aS'run'
p7369
ag28
aS'train'
p7370
aS'on'
p7371
aS'me'
p7372
ag14
asg15
S'you and your friend want to run a train on me?'
p7373
sg17
S"isn't that being built right now?"
p7374
sg19
Vsheltered-college-freshman
p7375
sg21
(lp7376
g7363
ag7364
ag7365
ag7366
ag7367
ag7368
ag7369
ag28
ag7370
ag7371
ag7372
ag14
aS'is'
p7377
aS"n't"
p7378
aS'that'
p7379
aS'being'
p7380
aS'built'
p7381
aS'right'
p7382
aS'now'
p7383
ag14
asg30
(lp7384
g7377
ag7378
ag7379
ag7380
ag7381
ag7382
ag7383
ag14
asba(iMeme
Meme
p7385
(dp7386
g3
(lp7387
g53
aS"'m"
p7388
aS'going'
p7389
aS'home'
p7390
aS'this'
p7391
aS'weekend'
p7392
ag220
aS'feeling'
p7393
ag28
aS'bit'
p7394
aS'homesick'
p7395
asg15
S"i'm going home this weekend, feeling a bit homesick"
p7396
sg17
S'lives in canton'
p7397
sg19
Vsheltered-college-freshman
p7398
sg21
(lp7399
g53
ag7388
ag7389
ag7390
ag7391
ag7392
ag220
ag7393
ag28
ag7394
ag7395
aS'lives'
p7400
aS'in'
p7401
aS'canton'
p7402
asg30
(lp7403
g7400
ag7401
ag7402
asba(iMeme
Meme
p7404
(dp7405
g3
(lp7406
S'accidentally'
p7407
aS'steps'
p7408
aS'on'
p7409
aS'pembroke'
p7410
aS'seal'
p7411
asg15
S'accidentally steps on pembroke seal'
p7412
sg17
S'gets pregnant'
p7413
sg19
Vsheltered-college-freshman
p7414
sg21
(lp7415
g7407
ag7408
ag7409
ag7410
ag7411
aS'gets'
p7416
aS'pregnant'
p7417
asg30
(lp7418
g7416
ag7417
asba(iMeme
Meme
p7419
(dp7420
g3
(lp7421
S'first'
p7422
aS'time'
p7423
aS'at'
p7424
aS'tutu'
p7425
aS"'s"
p7426
asg15
S"first time at tutu's"
p7427
sg17
S'lose virginity'
p7428
sg19
Vsheltered-college-freshman
p7429
sg21
(lp7430
g7422
ag7423
ag7424
ag7425
ag7426
aS'lose'
p7431
aS'virginity'
p7432
asg30
(lp7433
g7431
ag7432
asba(iMeme
Meme
p7434
(dp7435
g3
(lp7436
S'18th'
p7437
aS'birthday'
p7438
aS'during'
p7439
aS'fresher'
p7440
aS"'s"
p7441
aS'week'
p7442
asg15
S"18th birthday during fresher's week"
p7443
sg17
S'alcohol poisoning and life ban from viper'
p7444
sg19
Vsheltered-college-freshman
p7445
sg21
(lp7446
g7437
ag7438
ag7439
ag7440
ag7441
ag7442
aS'alcohol'
p7447
aS'poisoning'
p7448
aS'and'
p7449
aS'life'
p7450
aS'ban'
p7451
aS'from'
p7452
aS'viper'
p7453
asg30
(lp7454
g7447
ag7448
ag7449
ag7450
ag7451
ag7452
ag7453
asba(iMeme
Meme
p7455
(dp7456
g3
(lp7457
S'my'
p7458
aS'lab'
p7459
aS'was'
p7460
aS'great'
p7461
aS'today'
p7462
asg15
S'my lab was great today'
p7463
sg17
S'my lab partner showed me his pipette'
p7464
sg19
Vsheltered-college-freshman
p7465
sg21
(lp7466
g7458
ag7459
ag7460
ag7461
ag7462
aS'my'
p7467
aS'lab'
p7468
aS'partner'
p7469
aS'showed'
p7470
aS'me'
p7471
aS'his'
p7472
aS'pipette'
p7473
asg30
(lp7474
g7467
ag7468
ag7469
ag7470
ag7471
ag7472
ag7473
asba(iMeme
Meme
p7475
(dp7476
g3
(lp7477
g53
aS"'m"
p7478
aS'told'
p7479
aS'the'
p7480
aS'girls'
p7481
aS'here'
p7482
aS'are'
p7483
aS'really'
p7484
aS'into'
p7485
aS'scissoring'
p7486
ag462
asg15
S"i'm told the girls here are really into scissoring."
p7487
sg17
S'i love arts and craft'
p7488
sg19
Vsheltered-college-freshman
p7489
sg21
(lp7490
g53
ag7478
ag7479
ag7480
ag7481
ag7482
ag7483
ag7484
ag7485
ag7486
ag462
ag53
aS'love'
p7491
aS'arts'
p7492
aS'and'
p7493
aS'craft'
p7494
asg30
(lp7495
g53
ag7491
ag7492
ag7493
ag7494
asba(iMeme
Meme
p7496
(dp7497
g3
(lp7498
S'aw'
p7499
ag220
aS'you'
p7500
aS'third'
p7501
aS'years'
p7502
aS'boys'
p7503
asg15
S'aw, you third years boys'
p7504
sg17
S'are all so friendly'
p7505
sg19
Vsheltered-college-freshman
p7506
sg21
(lp7507
g7499
ag220
ag7500
ag7501
ag7502
ag7503
aS'are'
p7508
aS'all'
p7509
aS'so'
p7510
aS'friendly'
p7511
asg30
(lp7512
g7508
ag7509
ag7510
ag7511
asba(iMeme
Meme
p7513
(dp7514
g3
(lp7515
S'the'
p7516
aS'second'
p7517
aS'and'
p7518
aS'third'
p7519
aS'year'
p7520
aS'boys'
p7521
asg15
S'the second and third year boys'
p7522
sg17
S'are so friendly'
p7523
sg19
Vsheltered-college-freshman
p7524
sg21
(lp7525
g7516
ag7517
ag7518
ag7519
ag7520
ag7521
aS'are'
p7526
aS'so'
p7527
aS'friendly'
p7528
asg30
(lp7529
g7526
ag7527
ag7528
asba(iMeme
Meme
p7530
(dp7531
g3
(lp7532
S'the'
p7533
aS'boys'
p7534
aS'in'
p7535
aS'second'
p7536
aS'and'
p7537
aS'third'
p7538
aS'year'
p7539
asg15
S'the boys in second and third year'
p7540
sg17
S'are so friendly'
p7541
sg19
Vsheltered-college-freshman
p7542
sg21
(lp7543
g7533
ag7534
ag7535
ag7536
ag7537
ag7538
ag7539
aS'are'
p7544
aS'so'
p7545
aS'friendly'
p7546
asg30
(lp7547
g7544
ag7545
ag7546
asba(iMeme
Meme
p7548
(dp7549
g3
(lp7550
g53
aS"'m"
p7551
aS'glad'
p7552
aS'this'
p7553
aS'is'
p7554
ag28
aS'christian'
p7555
aS'school'
p7556
ag462
asg15
S"i'm glad this is a christian school."
p7557
sg17
S'everyone here must be so spiritually and intellectually mature.'
p7558
sg19
Vsheltered-college-freshman
p7559
sg21
(lp7560
g53
ag7551
ag7552
ag7553
ag7554
ag28
ag7555
ag7556
ag462
aS'everyone'
p7561
aS'here'
p7562
aS'must'
p7563
aS'be'
p7564
aS'so'
p7565
aS'spiritually'
p7566
aS'and'
p7567
aS'intellectually'
p7568
aS'mature'
p7569
ag462
asg30
(lp7570
g7561
ag7562
ag7563
ag7564
ag7565
ag7566
ag7567
ag7568
ag7569
ag462
asba(iMeme
Meme
p7571
(dp7572
g3
(lp7573
S'well'
p7574
ag220
aS'it'
p7575
aS"'s"
p7576
aS'after'
p7577
aS'curfew'
p7578
ag462
asg15
S"well, it's after curfew."
p7579
sg17
S"shouldn't we be going to bed?"
p7580
sg19
Vsheltered-college-freshman
p7581
sg21
(lp7582
g7574
ag220
ag7575
ag7576
ag7577
ag7578
ag462
aS'should'
p7583
aS"n't"
p7584
aS'we'
p7585
aS'be'
p7586
aS'going'
p7587
aS'to'
p7588
aS'bed'
p7589
ag14
asg30
(lp7590
g7583
ag7584
ag7585
ag7586
ag7587
ag7588
ag7589
ag14
asba(iMeme
Meme
p7591
(dp7592
g3
(lp7593
S'hey'
p7594
aS'guys'
p7595
asg15
S'hey guys'
p7596
sg17
S'could you direct me to the reber-thomas dining hall?'
p7597
sg19
Vsheltered-college-freshman
p7598
sg21
(lp7599
g7594
ag7595
aS'could'
p7600
aS'you'
p7601
aS'direct'
p7602
aS'me'
p7603
aS'to'
p7604
aS'the'
p7605
aS'reber-thomas'
p7606
aS'dining'
p7607
aS'hall'
p7608
ag14
asg30
(lp7609
g7600
ag7601
ag7602
ag7603
ag7604
ag7605
ag7606
ag7607
ag7608
ag14
asba(iMeme
Meme
p7610
(dp7611
g3
(lp7612
g53
aS'heard'
p7613
aS'uconn'
p7614
aS'has'
p7615
aS'great'
p7616
aS'underground'
p7617
aS'rap'
p7618
asg15
S'i heard uconn has great underground rap'
p7619
sg17
S"i'm seeing lil' brit tonight"
p7620
sg19
Vsheltered-college-freshman
p7621
sg21
(lp7622
g53
ag7613
ag7614
ag7615
ag7616
ag7617
ag7618
ag53
aS"'m"
p7623
aS'seeing'
p7624
aS'lil'
p7625
ag151
aS'brit'
p7626
aS'tonight'
p7627
asg30
(lp7628
g53
ag7623
ag7624
ag7625
ag151
ag7626
ag7627
asba(iMeme
Meme
p7629
(dp7630
g3
(lp7631
S'goes'
p7632
aS'to'
p7633
aS'business'
p7634
aS'school'
p7635
asg15
S'goes to business school'
p7636
sg17
S'must take science lab class'
p7637
sg19
Vsheltered-college-freshman
p7638
sg21
(lp7639
g7632
ag7633
ag7634
ag7635
aS'must'
p7640
aS'take'
p7641
aS'science'
p7642
aS'lab'
p7643
aS'class'
p7644
asg30
(lp7645
g7640
ag7641
ag7642
ag7643
ag7644
asba(iMeme
Meme
p7646
(dp7647
g3
(lp7648
S'``'
p7649
aS'wait'
p7650
aS'what'
p7651
aS"'s"
p7652
ag28
aS'spielberg'
p7653
aS'again'
p7654
ag14
aS"''"
p7655
asg15
S'"wait what\'s a spielberg again ?"'
p7656
sg17
S'studies in cin/vid/com'
p7657
sg19
Vsheltered-college-freshman
p7658
sg21
(lp7659
g7649
ag7650
ag7651
ag7652
ag28
ag7653
ag7654
ag14
ag7655
aS'studies'
p7660
aS'in'
p7661
aS'cin/vid/com'
p7662
asg30
(lp7663
g7660
ag7661
ag7662
asba(iMeme
Meme
p7664
(dp7665
g3
(lp7666
S'in'
p7667
aS'high'
p7668
aS'school'
p7669
aS'called'
p7670
aS'girls'
p7671
aS'who'
p7672
aS'showed'
p7673
aS'too'
p7674
aS'much'
p7675
aS'``'
p7676
aS'sluts'
p7677
aS"''"
p7678
asg15
S'in high school called girls who showed too much "sluts"'
p7679
sg17
S'goes to college and brags about all the one night stands'
p7680
sg19
Vsheltered-college-freshman
p7681
sg21
(lp7682
g7667
ag7668
ag7669
ag7670
ag7671
ag7672
ag7673
ag7674
ag7675
ag7676
ag7677
ag7678
aS'goes'
p7683
aS'to'
p7684
aS'college'
p7685
aS'and'
p7686
aS'brags'
p7687
aS'about'
p7688
aS'all'
p7689
aS'the'
p7690
aS'one'
p7691
aS'night'
p7692
aS'stands'
p7693
asg30
(lp7694
g7683
ag7684
ag7685
ag7686
ag7687
ag7688
ag7689
ag7690
ag7691
ag7692
ag7693
asba(iMeme
Meme
p7695
(dp7696
g3
(lp7697
S'says'
p7698
aS'she'
p7699
aS'did'
p7700
aS'may'
p7701
aS'dip'
p7702
asg15
S'says she did may dip'
p7703
sg17
S'was toe deep in water for 2 seconds'
p7704
sg19
Vsheltered-college-freshman
p7705
sg21
(lp7706
g7698
ag7699
ag7700
ag7701
ag7702
aS'was'
p7707
aS'toe'
p7708
aS'deep'
p7709
aS'in'
p7710
aS'water'
p7711
aS'for'
p7712
ag558
aS'seconds'
p7713
asg30
(lp7714
g7707
ag7708
ag7709
ag7710
ag7711
ag7712
ag558
ag7713
asba(iMeme
Meme
p7715
(dp7716
g3
(lp7717
S'my'
p7718
aS'dads'
p7719
ag28
aS'dentist'
p7720
asg15
S'my dads a dentist'
p7721
sg17
S'and im a whore at york'
p7722
sg19
Vsheltered-college-freshman
p7723
sg21
(lp7724
g7718
ag7719
ag28
ag7720
aS'and'
p7725
aS'im'
p7726
ag28
aS'whore'
p7727
aS'at'
p7728
aS'york'
p7729
asg30
(lp7730
g7725
ag7726
ag28
ag7727
ag7728
ag7729
asba(iMeme
Meme
p7731
(dp7732
g3
(lp7733
S'my'
p7734
aS'dads'
p7735
ag28
aS'dentist'
p7736
asg15
S'my dads a dentist'
p7737
sg17
S'and im a whore'
p7738
sg19
Vsheltered-college-freshman
p7739
sg21
(lp7740
g7734
ag7735
ag28
ag7736
aS'and'
p7741
aS'im'
p7742
ag28
aS'whore'
p7743
asg30
(lp7744
g7741
ag7742
ag28
ag7743
asba(iMeme
Meme
p7745
(dp7746
g3
(lp7747
S'deke'
p7748
aS'party'
p7749
ag14
asg15
S'deke party?'
p7750
sg17
S'i love hockey!'
p7751
sg19
Vsheltered-college-freshman
p7752
sg21
(lp7753
g7748
ag7749
ag14
ag53
aS'love'
p7754
aS'hockey'
p7755
ag266
asg30
(lp7756
g53
ag7754
ag7755
ag266
asba(iMeme
Meme
p7757
(dp7758
g3
(lp7759
g53
aS"'ve"
p7760
aS'done'
p7761
aS'some'
p7762
aS'pretty'
p7763
aS'crazy'
p7764
aS'things'
p7765
aS'in'
p7766
aS'high'
p7767
aS'school'
p7768
asg15
S"i've done some pretty crazy things in high school"
p7769
sg17
S'gets zero on gateway purity test'
p7770
sg19
Vsheltered-college-freshman
p7771
sg21
(lp7772
g53
ag7760
ag7761
ag7762
ag7763
ag7764
ag7765
ag7766
ag7767
ag7768
aS'gets'
p7773
aS'zero'
p7774
aS'on'
p7775
aS'gateway'
p7776
aS'purity'
p7777
aS'test'
p7778
asg30
(lp7779
g7773
ag7774
ag7775
ag7776
ag7777
ag7778
asba(iMeme
Meme
p7780
(dp7781
g3
(lp7782
g53
aS'barely'
p7783
aS'passed'
p7784
aS'highschool'
p7785
asg15
S'i barely passed highschool'
p7786
sg17
S'now i have a 4.0 gpa at carleton university'
p7787
sg19
Vsheltered-college-freshman
p7788
sg21
(lp7789
g53
ag7783
ag7784
ag7785
aS'now'
p7790
ag53
aS'have'
p7791
ag28
aS'4.0'
p7792
aS'gpa'
p7793
aS'at'
p7794
aS'carleton'
p7795
aS'university'
p7796
asg30
(lp7797
g7790
ag53
ag7791
ag28
ag7792
ag7793
ag7794
ag7795
ag7796
asba(iMeme
Meme
p7798
(dp7799
g3
(lp7800
S'its'
p7801
aS'not'
p7802
aS'prostitution'
p7803
asg15
S'its not prostitution'
p7804
sg17
S'just pros-for-tuition'
p7805
sg19
Vsheltered-college-freshman
p7806
sg21
(lp7807
g7801
ag7802
ag7803
aS'just'
p7808
aS'pros-for-tuition'
p7809
asg30
(lp7810
g7808
ag7809
asba(iMeme
Meme
p7811
(dp7812
g3
(lp7813
S'it'
p7814
aS"'s"
p7815
aS'not'
p7816
aS'prostitution'
p7817
asg15
S"it's not prostitution"
p7818
sg17
S'its just pros-for-tuition'
p7819
sg19
Vsheltered-college-freshman
p7820
sg21
(lp7821
g7814
ag7815
ag7816
ag7817
aS'its'
p7822
aS'just'
p7823
aS'pros-for-tuition'
p7824
asg30
(lp7825
g7822
ag7823
ag7824
asba(iMeme
Meme
p7826
(dp7827
g3
(lp7828
S'it'
p7829
aS"'s"
p7830
aS'not'
p7831
aS'prostitution'
p7832
asg15
S"it's not prostitution"
p7833
sg17
S'it is just pros-for-'
p7834
sg19
Vsheltered-college-freshman
p7835
sg21
(lp7836
g7829
ag7830
ag7831
ag7832
aS'it'
p7837
aS'is'
p7838
aS'just'
p7839
aS'pros-for-'
p7840
asg30
(lp7841
g7837
ag7838
ag7839
ag7840
asba(iMeme
Meme
p7842
(dp7843
g3
(lp7844
S'its'
p7845
aS'not'
p7846
aS'prostitution'
p7847
asg15
S'its not prostitution'
p7848
sg17
S'it is just pros-for-'
p7849
sg19
Vsheltered-college-freshman
p7850
sg21
(lp7851
g7845
ag7846
ag7847
aS'it'
p7852
aS'is'
p7853
aS'just'
p7854
aS'pros-for-'
p7855
asg30
(lp7856
g7852
ag7853
ag7854
ag7855
asba(iMeme
Meme
p7857
(dp7858
g3
(lp7859
S'it'
p7860
aS"'s"
p7861
aS'not'
p7862
aS'prostitution'
p7863
asg15
S"it's not prostitution"
p7864
sg17
S"i'ts just pros-for-tuition"
p7865
sg19
Vsheltered-college-freshman
p7866
sg21
(lp7867
g7860
ag7861
ag7862
ag7863
aS"i'ts"
p7868
aS'just'
p7869
aS'pros-for-tuition'
p7870
asg30
(lp7871
g7868
ag7869
ag7870
asba(iMeme
Meme
p7872
(dp7873
g3
(lp7874
S'its'
p7875
aS'not'
p7876
aS'prostitution'
p7877
asg15
S'its not prostitution'
p7878
sg17
S'its just pros-for-tuition'
p7879
sg19
Vsheltered-college-freshman
p7880
sg21
(lp7881
g7875
ag7876
ag7877
aS'its'
p7882
aS'just'
p7883
aS'pros-for-tuition'
p7884
asg30
(lp7885
g7882
ag7883
ag7884
asba(iMeme
Meme
p7886
(dp7887
g3
(lp7888
S'its'
p7889
aS'not'
p7890
aS'prostitution'
p7891
asg15
S'its not prostitution'
p7892
sg17
S'its just pro-for-tuition'
p7893
sg19
Vsheltered-college-freshman
p7894
sg21
(lp7895
g7889
ag7890
ag7891
aS'its'
p7896
aS'just'
p7897
aS'pro-for-tuition'
p7898
asg30
(lp7899
g7896
ag7897
ag7898
asba(iMeme
Meme
p7900
(dp7901
g3
(lp7902
S'cincinnati'
p7903
aS'hot'
p7904
aS'dog'
p7905
ag14
asg15
S'cincinnati hot dog?'
p7906
sg17
S'sure! i love skyline chili!'
p7907
sg19
Vsheltered-college-freshman
p7908
sg21
(lp7909
g7903
ag7904
ag7905
ag14
aS'sure'
p7910
ag266
ag53
aS'love'
p7911
aS'skyline'
p7912
aS'chili'
p7913
ag266
asg30
(lp7914
g7910
ag266
ag53
ag7911
ag7912
ag7913
ag266
asba(iMeme
Meme
p7915
(dp7916
g3
(lp7917
S'tried'
p7918
aS'pot'
p7919
aS'and'
p7920
aS'coughed'
p7921
asg15
S'tried pot and coughed'
p7922
sg17
S'prefers heroine'
p7923
sg19
Vsheltered-college-freshman
p7924
sg21
(lp7925
g7918
ag7919
ag7920
ag7921
aS'prefers'
p7926
aS'heroine'
p7927
asg30
(lp7928
g7926
ag7927
asba(iMeme
Meme
p7929
(dp7930
g3
(lp7931
S'it'
p7932
aS'was'
p7933
aS'nice'
p7934
aS'of'
p7935
aS'you'
p7936
aS'to'
p7937
aS'buy'
p7938
aS'me'
p7939
aS'drinks'
p7940
aS'all'
p7941
aS'night'
p7942
asg15
S'it was nice of you to buy me drinks all night'
p7943
sg17
S"i'm getting sleeeeepy...."
p7944
sg19
Vsheltered-college-freshman
p7945
sg21
(lp7946
g7932
ag7933
ag7934
ag7935
ag7936
ag7937
ag7938
ag7939
ag7940
ag7941
ag7942
ag53
aS"'m"
p7947
aS'getting'
p7948
aS'sleeeeepy'
p7949
aS'...'
p7950
ag462
asg30
(lp7951
g53
ag7947
ag7948
ag7949
ag7950
ag462
asba(iMeme
Meme
p7952
(dp7953
g3
(lp7954
S'pink'
p7955
aS'taco'
p7956
aS'...'
p7957
ag462
asg15
S'pink taco....'
p7958
sg17
S'is this the new thing at taco bell?'
p7959
sg19
Vsheltered-college-freshman
p7960
sg21
(lp7961
g7955
ag7956
ag7957
ag462
aS'is'
p7962
aS'this'
p7963
aS'the'
p7964
aS'new'
p7965
aS'thing'
p7966
aS'at'
p7967
aS'taco'
p7968
aS'bell'
p7969
ag14
asg30
(lp7970
g7962
ag7963
ag7964
ag7965
ag7966
ag7967
ag7968
ag7969
ag14
asba(iMeme
Meme
p7971
(dp7972
g3
(lp7973
S'teeth'
p7974
aS'whitening'
p7975
aS'system'
p7976
aS'...'
p7977
asg15
S'teeth whitening system...'
p7978
sg17
S'no really, what r u talking about?'
p7979
sg19
Vsheltered-college-freshman
p7980
sg21
(lp7981
g7974
ag7975
ag7976
ag7977
aS'no'
p7982
aS'really'
p7983
ag220
aS'what'
p7984
aS'r'
p7985
aS'u'
p7986
aS'talking'
p7987
aS'about'
p7988
ag14
asg30
(lp7989
g7982
ag7983
ag220
ag7984
ag7985
ag7986
ag7987
ag7988
ag14
asba(iMeme
Meme
p7990
(dp7991
g3
(lp7992
S'cack-n-math'
p7993
ag14
asg15
S'cack-n-math?'
p7994
sg17
S'not sure i understand. can you show me?'
p7995
sg19
Vsheltered-college-freshman
p7996
sg21
(lp7997
g7993
ag14
aS'not'
p7998
aS'sure'
p7999
ag53
aS'understand'
p8000
ag462
aS'can'
p8001
aS'you'
p8002
aS'show'
p8003
aS'me'
p8004
ag14
asg30
(lp8005
g7998
ag7999
ag53
ag8000
ag462
ag8001
ag8002
ag8003
ag8004
ag14
asba(iMeme
Meme
p8006
(dp8007
g3
(lp8008
S'cack-n-math'
p8009
ag14
ag14
ag14
asg15
S'cack-n-math???'
p8010
sg17
S"i'm not sure i understand, can you show me?"
p8011
sg19
Vsheltered-college-freshman
p8012
sg21
(lp8013
g8009
ag14
ag14
ag14
ag53
aS"'m"
p8014
aS'not'
p8015
aS'sure'
p8016
ag53
aS'understand'
p8017
ag220
aS'can'
p8018
aS'you'
p8019
aS'show'
p8020
aS'me'
p8021
ag14
asg30
(lp8022
g53
ag8014
ag8015
ag8016
ag53
ag8017
ag220
ag8018
ag8019
ag8020
ag8021
ag14
asba(iMeme
Meme
p8023
(dp8024
g3
(lp8025
S'got'
p8026
aS'into'
p8027
aS'bar'
p8028
aS'without'
p8029
aS'id'
p8030
asg15
S'got into bar without id'
p8031
sg17
S'so badass'
p8032
sg19
Vsheltered-college-freshman
p8033
sg21
(lp8034
g8026
ag8027
ag8028
ag8029
ag8030
aS'so'
p8035
aS'badass'
p8036
asg30
(lp8037
g8035
ag8036
asba(iMeme
Meme
p8038
(dp8039
g3
(lp8040
S'well'
p8041
aS'...'
p8042
aS'..'
p8043
asg15
S'well.....'
p8044
sg17
S"i would'nt say im jailbait"
p8045
sg19
Vsheltered-college-freshman
p8046
sg21
(lp8047
g8041
ag8042
ag8043
ag53
aS"would'nt"
p8048
aS'say'
p8049
aS'im'
p8050
aS'jailbait'
p8051
asg30
(lp8052
g53
ag8048
ag8049
ag8050
ag8051
asba(iMeme
Meme
p8053
(dp8054
g3
(lp8055
S'whats'
p8056
aS'``'
p8057
aS'felching'
p8058
aS"''"
p8059
ag14
asg15
S'whats "felching" ?'
p8060
sg17
S"ohhh i've done that loads"
p8061
sg19
Vsheltered-college-freshman
p8062
sg21
(lp8063
g8056
ag8057
ag8058
ag8059
ag14
aS'ohhh'
p8064
ag53
aS"'ve"
p8065
aS'done'
p8066
aS'that'
p8067
aS'loads'
p8068
asg30
(lp8069
g8064
ag53
ag8065
ag8066
ag8067
ag8068
asba.