(lp0
(iMeme
Meme
p1
(dp2
S'top_text'
p3
(lp4
S'You'
p5
aS'should'
p6
aS'go'
p7
aS'to'
p8
aS'that'
p9
aS'site'
p10
aS'you'
p11
aS"'re"
p12
aS'always'
p13
aS'on'
p14
asS'top_text_raw'
p15
S"You should go to that site you're always on "
p16
sS'bottom_text_raw'
p17
S' The news said Obama was on there'
p18
sS'meme_type'
p19
Vslowpoke
p20
sS'all_text'
p21
(lp22
g5
ag6
ag7
ag8
ag9
ag10
ag11
ag12
ag13
ag14
aS'The'
p23
aS'news'
p24
aS'said'
p25
aS'Obama'
p26
aS'was'
p27
aS'on'
p28
aS'there'
p29
asS'bottom_text'
p30
(lp31
g23
ag24
ag25
ag26
ag27
ag28
ag29
asba(iMeme
Meme
p32
(dp33
g3
(lp34
S'hey'
p35
aS'guys'
p36
aS','
p37
aS'did'
p38
aS'you'
p39
aS'know'
p40
asg15
S'hey guys, did you know '
p41
sg17
S' this meme is based on a pokemon character'
p42
sg19
Vslowpoke
p43
sg21
(lp44
g35
ag36
ag37
ag38
ag39
ag40
aS'this'
p45
aS'meme'
p46
aS'is'
p47
aS'based'
p48
aS'on'
p49
aS'a'
p50
aS'pokemon'
p51
aS'character'
p52
asg30
(lp53
g45
ag46
ag47
ag48
ag49
ag50
ag51
ag52
asba(iMeme
Meme
p54
(dp55
g3
(lp56
S'They'
p57
aS'say'
p58
aS'the'
p59
aS'world'
p60
aS'will'
p61
aS'end'
p62
aS'this'
p63
aS'year'
p64
asg15
S'They say the world will end this year '
p65
sg17
S" But I don't really believe that Y2K stuff"
p66
sg19
Vslowpoke
p67
sg21
(lp68
g57
ag58
ag59
ag60
ag61
ag62
ag63
ag64
aS'But'
p69
aS'I'
p70
aS'do'
p71
aS"n't"
p72
aS'really'
p73
aS'believe'
p74
aS'that'
p75
aS'Y2K'
p76
aS'stuff'
p77
asg30
(lp78
g69
ag70
ag71
ag72
ag73
ag74
ag75
ag76
ag77
asba(iMeme
Meme
p79
(dp80
g3
(lp81
S'Hey'
p82
aS'guys'
p83
asg15
S'Hey guys '
p84
sg17
S' I just got the new Deus Ex'
p85
sg19
Vslowpoke
p86
sg21
(lp87
g82
ag83
ag70
aS'just'
p88
aS'got'
p89
aS'the'
p90
aS'new'
p91
aS'Deus'
p92
aS'Ex'
p93
asg30
(lp94
g70
ag88
ag89
ag90
ag91
ag92
ag93
asba(iMeme
Meme
p95
(dp96
g3
(lp97
S'Hey'
p98
aS'guys'
p99
ag37
aS'did'
p100
aS'you'
p101
aS'hear'
p102
aS'Steve'
p103
aS'died'
p104
aS'?'
p105
asg15
S'Hey guys, did you hear Steve died? '
p106
sg17
S' They said something about a stingray'
p107
sg19
Vslowpoke
p108
sg21
(lp109
g98
ag99
ag37
ag100
ag101
ag102
ag103
ag104
ag105
aS'They'
p110
aS'said'
p111
aS'something'
p112
aS'about'
p113
ag50
aS'stingray'
p114
asg30
(lp115
g110
ag111
ag112
ag113
ag50
ag114
asba(iMeme
Meme
p116
(dp117
g3
(lp118
S'Introducing'
p119
ag50
aS'new'
p120
aS'meme'
p121
aS':'
p122
asg15
S'Introducing a new meme: '
p123
sg17
S' Slowpoke'
p124
sg19
Vslowpoke
p125
sg21
(lp126
g119
ag50
ag120
ag121
ag122
aS'Slowpoke'
p127
asg30
(lp128
g127
asba(iMeme
Meme
p129
(dp130
g3
(lp131
S'Did'
p132
aS'you'
p133
aS'hear'
p134
aS'about'
p135
aS'the'
p136
aS'boycott'
p137
ag105
asg15
S'Did you hear about the boycott? '
p138
sg17
S" MW2 won't have dedicated servers!"
p139
sg19
Vslowpoke
p140
sg21
(lp141
g132
ag133
ag134
ag135
ag136
ag137
ag105
aS'MW2'
p142
aS'wo'
p143
aS"n't"
p144
aS'have'
p145
aS'dedicated'
p146
aS'servers'
p147
aS'!'
p148
asg30
(lp149
g142
ag143
ag144
ag145
ag146
ag147
ag148
asba(iMeme
Meme
p150
(dp151
g3
(lp152
S'Hey'
p153
aS'guys'
p154
aS'did'
p155
aS'you'
p156
aS'hear'
p157
ag148
asg15
S'Hey guys did you hear! '
p158
sg17
S" Pluto isn't a planet!"
p159
sg19
Vslowpoke
p160
sg21
(lp161
g153
ag154
ag155
ag156
ag157
ag148
aS'Pluto'
p162
aS'is'
p163
aS"n't"
p164
ag50
aS'planet'
p165
ag148
asg30
(lp166
g162
ag163
ag164
ag50
ag165
ag148
asba(iMeme
Meme
p167
(dp168
g3
(lp169
S'Today'
p170
ag70
aS'Learned'
p171
asg15
S'Today I Learned  '
p172
sg17
S' what TIL stands for'
p173
sg19
Vslowpoke
p174
sg21
(lp175
g170
ag70
ag171
aS'what'
p176
aS'TIL'
p177
aS'stands'
p178
aS'for'
p179
asg30
(lp180
g176
ag177
ag178
ag179
asba(iMeme
Meme
p181
(dp182
g3
(lp183
S'Hey'
p184
aS'guys'
p185
aS'did'
p186
aS'you'
p187
aS'hear'
p188
aS'about'
p189
aS'steam'
p190
ag105
asg15
S'Hey guys did you hear about steam? '
p191
sg17
S" They're having a summer sale full of huge savings."
p192
sg19
Vslowpoke
p193
sg21
(lp194
g184
ag185
ag186
ag187
ag188
ag189
ag190
ag105
aS'They'
p195
aS"'re"
p196
aS'having'
p197
ag50
aS'summer'
p198
aS'sale'
p199
aS'full'
p200
aS'of'
p201
aS'huge'
p202
aS'savings'
p203
aS'.'
p204
asg30
(lp205
g195
ag196
ag197
ag50
ag198
ag199
ag200
ag201
ag202
ag203
ag204
asba(iMeme
Meme
p206
(dp207
g3
(lp208
S'Did'
p209
aS'you'
p210
aS'hear'
p211
aS'about'
p212
aS'the'
p213
aS'riots'
p214
ag105
asg15
S'Did you hear about the riots? '
p215
sg17
S' Vancouver lost a hockey game or something'
p216
sg19
Vslowpoke
p217
sg21
(lp218
g209
ag210
ag211
ag212
ag213
ag214
ag105
aS'Vancouver'
p219
aS'lost'
p220
ag50
aS'hockey'
p221
aS'game'
p222
aS'or'
p223
aS'something'
p224
asg30
(lp225
g219
ag220
ag50
ag221
ag222
ag223
ag224
asba(iMeme
Meme
p226
(dp227
g3
(lp228
S'Guys'
p229
ag148
ag70
aS'found'
p230
aS'the'
p231
aS'best'
p232
aS'website'
p233
aS'ever'
p234
asg15
S'Guys! I found the best website ever '
p235
sg17
S" it's called reddit"
p236
sg19
Vslowpoke
p237
sg21
(lp238
g229
ag148
ag70
ag230
ag231
ag232
ag233
ag234
aS'it'
p239
aS"'s"
p240
aS'called'
p241
aS'reddit'
p242
asg30
(lp243
g239
ag240
ag241
ag242
asba(iMeme
Meme
p244
(dp245
g3
(lp246
S'good'
p247
aS'thing'
p248
aS'we'
p249
aS"'ve"
p250
aS'got'
p251
aS'bin'
p252
aS'laden'
p253
asg15
S"good thing we've got bin laden "
p254
sg17
S' on our side fighting the soviets'
p255
sg19
Vslowpoke
p256
sg21
(lp257
g247
ag248
ag249
ag250
ag251
ag252
ag253
aS'on'
p258
aS'our'
p259
aS'side'
p260
aS'fighting'
p261
aS'the'
p262
aS'soviets'
p263
asg30
(lp264
g258
ag259
ag260
ag261
ag262
ag263
asba(iMeme
Meme
p265
(dp266
g3
(lp267
S'The'
p268
aS'rebels'
p269
aS'finally'
p270
aS'got'
p271
aS'him'
p272
ag148
asg15
S'The rebels finally got him! '
p273
sg17
S' Looks like the force wasnt with him on this one.'
p274
sg19
Vslowpoke
p275
sg21
(lp276
g268
ag269
ag270
ag271
ag272
ag148
aS'Looks'
p277
aS'like'
p278
aS'the'
p279
aS'force'
p280
aS'wasnt'
p281
aS'with'
p282
aS'him'
p283
aS'on'
p284
aS'this'
p285
aS'one'
p286
ag204
asg30
(lp287
g277
ag278
ag279
ag280
ag281
ag282
ag283
ag284
ag285
ag286
ag204
asba(iMeme
Meme
p288
(dp289
g3
(lp290
S'GUYS'
p291
ag148
aS'they'
p292
aS'did'
p293
aS'it'
p294
ag148
asg15
S'GUYS! they did it! '
p295
sg17
S' they saved the Chilean miners!'
p296
sg19
Vslowpoke
p297
sg21
(lp298
g291
ag148
ag292
ag293
ag294
ag148
aS'they'
p299
aS'saved'
p300
aS'the'
p301
aS'Chilean'
p302
aS'miners'
p303
ag148
asg30
(lp304
g299
ag300
ag301
ag302
ag303
ag148
asba(iMeme
Meme
p305
(dp306
g3
(lp307
S'Did'
p308
aS'you'
p309
aS'hear'
p310
aS'Egypt'
p311
aS'is'
p312
aS'having'
p313
ag50
aS'revolution'
p314
ag105
asg15
S'Did you hear Egypt is having a revolution? '
p315
sg17
S' moses freed all the jews or something'
p316
sg19
Vslowpoke
p317
sg21
(lp318
g308
ag309
ag310
ag311
ag312
ag313
ag50
ag314
ag105
aS'moses'
p319
aS'freed'
p320
aS'all'
p321
aS'the'
p322
aS'jews'
p323
aS'or'
p324
aS'something'
p325
asg30
(lp326
g319
ag320
ag321
ag322
ag323
ag324
ag325
asba(iMeme
Meme
p327
(dp328
g3
(lp329
S'This'
p330
aS'financial'
p331
aS'crisis'
p332
aS'is'
p333
aS'the'
p334
aS'worst'
p335
aS'we'
p336
aS"'ve"
p337
aS'had'
p338
aS'in'
p339
aS'50'
p340
aS'years'
p341
asg15
S"This financial crisis is the worst we've had in 50 years "
p342
sg17
S" and to make it worse, germany's invading poland"
p343
sg19
Vslowpoke
p344
sg21
(lp345
g330
ag331
ag332
ag333
ag334
ag335
ag336
ag337
ag338
ag339
ag340
ag341
aS'and'
p346
aS'to'
p347
aS'make'
p348
aS'it'
p349
aS'worse'
p350
ag37
aS'germany'
p351
aS"'s"
p352
aS'invading'
p353
aS'poland'
p354
asg30
(lp355
g346
ag347
ag348
ag349
ag350
ag37
ag351
ag352
ag353
ag354
asba(iMeme
Meme
p356
(dp357
g3
(lp358
S'did'
p359
aS'you'
p360
aS'hear'
p361
aS'about'
p362
aS'the'
p363
aS'apple'
p364
aS'guy'
p365
ag105
asg15
S'did you hear about the apple guy? '
p366
sg17
S' eve is such a bitch.'
p367
sg19
Vslowpoke
p368
sg21
(lp369
g359
ag360
ag361
ag362
ag363
ag364
ag365
ag105
aS'eve'
p370
aS'is'
p371
aS'such'
p372
ag50
aS'bitch'
p373
ag204
asg30
(lp374
g370
ag371
ag372
ag50
ag373
ag204
asba(iMeme
Meme
p375
(dp376
g3
(lp377
S'that'
p378
aS'earthquake'
p379
aS'was'
p380
aS'impressive'
p381
asg15
S'that earthquake was impressive '
p382
sg17
S' now we have 6 new land masses to name!'
p383
sg19
Vslowpoke
p384
sg21
(lp385
g378
ag379
ag380
ag381
aS'now'
p386
aS'we'
p387
aS'have'
p388
aS'6'
p389
aS'new'
p390
aS'land'
p391
aS'masses'
p392
aS'to'
p393
aS'name'
p394
ag148
asg30
(lp395
g386
ag387
ag388
ag389
ag390
ag391
ag392
ag393
ag394
ag148
asba(iMeme
Meme
p396
(dp397
g3
(lp398
S'Did'
p399
aS'you'
p400
aS'hear'
p401
aS'they'
p402
aS"'re"
p403
aS'pulling'
p404
aS'troops'
p405
aS'out'
p406
aS'of'
p407
aS'Afghanistan'
p408
ag105
asg15
S"Did you hear they're pulling troops out of Afghanistan? "
p409
sg17
S' Alexander must not be so "great" after all.'
p410
sg19
Vslowpoke
p411
sg21
(lp412
g399
ag400
ag401
ag402
ag403
ag404
ag405
ag406
ag407
ag408
ag105
aS'Alexander'
p413
aS'must'
p414
aS'not'
p415
aS'be'
p416
aS'so'
p417
aS'``'
p418
aS'great'
p419
aS"''"
p420
aS'after'
p421
aS'all'
p422
ag204
asg30
(lp423
g413
ag414
ag415
ag416
ag417
ag418
ag419
ag420
ag421
ag422
ag204
asba(iMeme
Meme
p424
(dp425
g3
(lp426
S'Did'
p427
aS'you'
p428
aS'see'
p429
aS'the'
p430
aS'Royal'
p431
aS'wedding'
p432
ag105
asg15
S'Did you see the Royal wedding? '
p433
sg17
S' Charles and diana are going to make a great couple.'
p434
sg19
Vslowpoke
p435
sg21
(lp436
g427
ag428
ag429
ag430
ag431
ag432
ag105
aS'Charles'
p437
aS'and'
p438
aS'diana'
p439
aS'are'
p440
aS'going'
p441
aS'to'
p442
aS'make'
p443
ag50
aS'great'
p444
aS'couple'
p445
ag204
asg30
(lp446
g437
ag438
ag439
ag440
ag441
ag442
ag443
ag50
ag444
ag445
ag204
asba(iMeme
Meme
p447
(dp448
g3
(lp449
S'Did'
p450
aS'you'
p451
aS'hear'
p452
aS'about'
p453
aS'that'
p454
aS'new'
p455
aS'planet'
p456
aS'of'
p457
aS'the'
p458
aS'apes'
p459
aS'movie'
p460
ag105
asg15
S'Did you hear about that new planet of the apes movie? '
p461
sg17
S' It turns out it was earth all along'
p462
sg19
Vslowpoke
p463
sg21
(lp464
g450
ag451
ag452
ag453
ag454
ag455
ag456
ag457
ag458
ag459
ag460
ag105
aS'It'
p465
aS'turns'
p466
aS'out'
p467
aS'it'
p468
aS'was'
p469
aS'earth'
p470
aS'all'
p471
aS'along'
p472
asg30
(lp473
g465
ag466
ag467
ag468
ag469
ag470
ag471
ag472
asba(iMeme
Meme
p474
(dp475
g3
(lp476
S'Did'
p477
aS'you'
p478
aS'hear'
p479
aS'about'
p480
aS'the'
p481
aS'uprising'
p482
aS'in'
p483
aS'Egypt'
p484
ag105
asg15
S'Did you hear about the uprising in Egypt? '
p485
sg17
S' Moses sure is causing a stir.'
p486
sg19
Vslowpoke
p487
sg21
(lp488
g477
ag478
ag479
ag480
ag481
ag482
ag483
ag484
ag105
aS'Moses'
p489
aS'sure'
p490
aS'is'
p491
aS'causing'
p492
ag50
aS'stir'
p493
ag204
asg30
(lp494
g489
ag490
ag491
ag492
ag50
ag493
ag204
asba(iMeme
Meme
p495
(dp496
g3
(lp497
S'Hey'
p498
aS'guys'
p499
aS'did'
p500
aS'you'
p501
aS'hear'
p502
ag105
asg15
S'Hey guys did you hear? '
p503
sg17
S' They killed Osama Bin Laden'
p504
sg19
Vslowpoke
p505
sg21
(lp506
g498
ag499
ag500
ag501
ag502
ag105
aS'They'
p507
aS'killed'
p508
aS'Osama'
p509
aS'Bin'
p510
aS'Laden'
p511
asg30
(lp512
g507
ag508
ag509
ag510
ag511
asba(iMeme
Meme
p513
(dp514
g3
(lp515
S'hold'
p516
aS'on'
p517
asg15
S'hold on '
p518
sg17
S' let me check altavista'
p519
sg19
Vslowpoke
p520
sg21
(lp521
g516
ag517
aS'let'
p522
aS'me'
p523
aS'check'
p524
aS'altavista'
p525
asg30
(lp526
g522
ag523
ag524
ag525
asba(iMeme
Meme
p527
(dp528
g3
(lp529
S'wait'
p530
asg15
S'wait '
p531
sg17
S" there's a new testament?!"
p532
sg19
Vslowpoke
p533
sg21
(lp534
g530
aS'there'
p535
aS"'s"
p536
ag50
aS'new'
p537
aS'testament'
p538
ag105
ag148
asg30
(lp539
g535
ag536
ag50
ag537
ag538
ag105
ag148
asba(iMeme
Meme
p540
(dp541
g3
(lp542
S'Hahaha'
p543
asg15
S'Hahaha '
p544
sg17
S' FailBlog is so funny'
p545
sg19
Vslowpoke
p546
sg21
(lp547
g543
aS'FailBlog'
p548
aS'is'
p549
aS'so'
p550
aS'funny'
p551
asg30
(lp552
g548
ag549
ag550
ag551
asba(iMeme
Meme
p553
(dp554
g3
(lp555
S'GUYS'
p556
ag148
asg15
S'GUYS! '
p557
sg17
S' the internet has porn, too!'
p558
sg19
Vslowpoke
p559
sg21
(lp560
g556
ag148
aS'the'
p561
aS'internet'
p562
aS'has'
p563
aS'porn'
p564
ag37
aS'too'
p565
ag148
asg30
(lp566
g561
ag562
ag563
ag564
ag37
ag565
ag148
asba(iMeme
Meme
p567
(dp568
g3
(lp569
S'Hey'
p570
aS'Guys'
p571
ag148
ag70
aS'found'
p572
aS'this'
p573
aS'great'
p574
aS'new'
p575
aS'site'
p576
aS'...'
p577
asg15
S'Hey Guys! I found this great new site... '
p578
sg17
S' Called myspace '
p579
sg19
Vslowpoke
p580
sg21
(lp581
g570
ag571
ag148
ag70
ag572
ag573
ag574
ag575
ag576
ag577
aS'Called'
p582
aS'myspace'
p583
asg30
(lp584
g582
ag583
asba(iMeme
Meme
p585
(dp586
g3
(lp587
S'Hey'
p588
aS'guys'
p589
aS'did'
p590
aS'you'
p591
aS'hear'
p592
ag105
asg15
S'Hey guys did you hear? '
p593
sg17
S' they have a slowpoke advice animal now.'
p594
sg19
Vslowpoke
p595
sg21
(lp596
g588
ag589
ag590
ag591
ag592
ag105
aS'they'
p597
aS'have'
p598
ag50
aS'slowpoke'
p599
aS'advice'
p600
aS'animal'
p601
aS'now'
p602
ag204
asg30
(lp603
g597
ag598
ag50
ag599
ag600
ag601
ag602
ag204
asba(iMeme
Meme
p604
(dp605
g3
(lp606
S'Did'
p607
aS'you'
p608
aS'hear'
p609
aS'about'
p610
aS'Osama'
p611
ag105
ag148
asg15
S'Did you hear about Osama?! '
p612
sg17
S" They think he's in Pakistan!"
p613
sg19
Vslowpoke
p614
sg21
(lp615
g607
ag608
ag609
ag610
ag611
ag105
ag148
aS'They'
p616
aS'think'
p617
aS'he'
p618
aS"'s"
p619
aS'in'
p620
aS'Pakistan'
p621
ag148
asg30
(lp622
g616
ag617
ag618
ag619
ag620
ag621
ag148
asba(iMeme
Meme
p623
(dp624
g3
(lp625
S'omg'
p626
ag37
aS'guys'
p627
ag148
asg15
S'omg, guys! '
p628
sg17
S' Minecraft is a lot like lego!'
p629
sg19
Vslowpoke
p630
sg21
(lp631
g626
ag37
ag627
ag148
aS'Minecraft'
p632
aS'is'
p633
ag50
aS'lot'
p634
aS'like'
p635
aS'lego'
p636
ag148
asg30
(lp637
g632
ag633
ag50
ag634
ag635
ag636
ag148
asba(iMeme
Meme
p638
(dp639
g3
(lp640
S'Did'
p641
aS'you'
p642
aS'hear'
p643
aS'about'
p644
aS'the'
p645
aS'celerity'
p646
aS'that'
p647
aS'Over'
p648
aS'Dosed'
p649
ag105
asg15
S'Did you hear about the celerity that Over Dosed? '
p650
sg17
S' RIP Michael Jackson'
p651
sg19
Vslowpoke
p652
sg21
(lp653
g641
ag642
ag643
ag644
ag645
ag646
ag647
ag648
ag649
ag105
aS'RIP'
p654
aS'Michael'
p655
aS'Jackson'
p656
asg30
(lp657
g654
ag655
ag656
asba(iMeme
Meme
p658
(dp659
g3
(lp660
S'Guys'
p661
ag148
ag70
aS'need'
p662
aS'an'
p663
aS'invite'
p664
ag148
asg15
S'Guys! I need an invite! '
p665
sg17
S' There\'s this cool new thing google made called "gmail'
p666
sg19
Vslowpoke
p667
sg21
(lp668
g661
ag148
ag70
ag662
ag663
ag664
ag148
aS'There'
p669
aS"'s"
p670
aS'this'
p671
aS'cool'
p672
aS'new'
p673
aS'thing'
p674
aS'google'
p675
aS'made'
p676
aS'called'
p677
aS'``'
p678
aS'gmail'
p679
asg30
(lp680
g669
ag670
ag671
ag672
ag673
ag674
ag675
ag676
ag677
ag678
ag679
asba(iMeme
Meme
p681
(dp682
g3
(lp683
S'new'
p684
aS'business'
p685
aS'plan'
p686
ag122
asg15
S'new business plan:  '
p687
sg17
S' invest in blockbuster video stores'
p688
sg19
Vslowpoke
p689
sg21
(lp690
g684
ag685
ag686
ag122
aS'invest'
p691
aS'in'
p692
aS'blockbuster'
p693
aS'video'
p694
aS'stores'
p695
asg30
(lp696
g691
ag692
ag693
ag694
ag695
asba(iMeme
Meme
p697
(dp698
g3
(lp699
S'guys'
p700
asg15
S'guys '
p701
sg17
S' charlie sheen is crazy'
p702
sg19
Vslowpoke
p703
sg21
(lp704
g700
aS'charlie'
p705
aS'sheen'
p706
aS'is'
p707
aS'crazy'
p708
asg30
(lp709
g705
ag706
ag707
ag708
asba(iMeme
Meme
p710
(dp711
g3
(lp712
S'Hey'
p713
aS'guys'
p714
ag37
aS'have'
p715
aS'you'
p716
aS'heard'
p717
aS'about'
p718
aS'this'
p719
aS'new'
p720
aS'kind'
p721
aS'of'
p722
aS'metal'
p723
ag105
asg15
S'Hey guys, have you heard about this new kind of metal? '
p724
sg17
S' It\'s called "iron'
p725
sg19
Vslowpoke
p726
sg21
(lp727
g713
ag714
ag37
ag715
ag716
ag717
ag718
ag719
ag720
ag721
ag722
ag723
ag105
aS'It'
p728
aS"'s"
p729
aS'called'
p730
aS'``'
p731
aS'iron'
p732
asg30
(lp733
g728
ag729
ag730
ag731
ag732
asba(iMeme
Meme
p734
(dp735
g3
(lp736
S'GUys'
p737
ag148
aS'guys'
p738
ag148
aS'hey'
p739
aS'guys'
p740
ag148
asg15
S'GUys! guys! hey guys! '
p741
sg17
S' you can get free music with napster'
p742
sg19
Vslowpoke
p743
sg21
(lp744
g737
ag148
ag738
ag148
ag739
ag740
ag148
aS'you'
p745
aS'can'
p746
aS'get'
p747
aS'free'
p748
aS'music'
p749
aS'with'
p750
aS'napster'
p751
asg30
(lp752
g745
ag746
ag747
ag748
ag749
ag750
ag751
asba(iMeme
Meme
p753
(dp754
g3
(lp755
S'guys'
p756
aS'did'
p757
aS'you'
p758
aS'hear'
p759
ag105
asg15
S'guys did you hear? '
p760
sg17
S' The Playstation Network got hacked'
p761
sg19
Vslowpoke
p762
sg21
(lp763
g756
ag757
ag758
ag759
ag105
aS'The'
p764
aS'Playstation'
p765
aS'Network'
p766
aS'got'
p767
aS'hacked'
p768
asg30
(lp769
g764
ag765
ag766
ag767
ag768
asba(iMeme
Meme
p770
(dp771
g3
(lp772
S'There'
p773
aS"'s"
p774
aS'this'
p775
aS'hilarious'
p776
aS'youtube'
p777
aS'video'
p778
aS'you'
p779
aS'have'
p780
aS'to'
p781
aS'see'
p782
asg15
S"There's this hilarious youtube video you have to see "
p783
sg17
S' david after the dentist'
p784
sg19
Vslowpoke
p785
sg21
(lp786
g773
ag774
ag775
ag776
ag777
ag778
ag779
ag780
ag781
ag782
aS'david'
p787
aS'after'
p788
aS'the'
p789
aS'dentist'
p790
asg30
(lp791
g787
ag788
ag789
ag790
asba(iMeme
Meme
p792
(dp793
g3
(lp794
S'hey'
p795
aS'nigga'
p796
asg15
S'hey nigga'
p797
sg17
S' happy birthday'
p798
sg19
Vslowpoke
p799
sg21
(lp800
g795
ag796
aS'happy'
p801
aS'birthday'
p802
asg30
(lp803
g801
ag802
asba(iMeme
Meme
p804
(dp805
g3
(lp806
S'hey'
p807
aS'misty'
p808
ag148
asg15
S'hey misty!'
p809
sg17
S' happy birthday!'
p810
sg19
Vslowpoke
p811
sg21
(lp812
g807
ag808
ag148
aS'happy'
p813
aS'birthday'
p814
ag148
asg30
(lp815
g813
ag814
ag148
asba(iMeme
Meme
p816
(dp817
g3
(lp818
S'hey'
p819
aS'guys'
p820
asg15
S'hey guys'
p821
sg17
S' conan is about to push the envelope!'
p822
sg19
Vslowpoke
p823
sg21
(lp824
g819
ag820
aS'conan'
p825
aS'is'
p826
aS'about'
p827
aS'to'
p828
aS'push'
p829
aS'the'
p830
aS'envelope'
p831
ag148
asg30
(lp832
g825
ag826
ag827
ag828
ag829
ag830
ag831
ag148
asba(iMeme
Meme
p833
(dp834
g3
(lp835
S'guys'
p836
ag148
ag50
aS'new'
p837
aS'zelda'
p838
aS'game'
p839
ag148
asg15
S'guys! a new zelda game!'
p840
sg17
S' you get to play an ocarina'
p841
sg19
Vslowpoke
p842
sg21
(lp843
g836
ag148
ag50
ag837
ag838
ag839
ag148
aS'you'
p844
aS'get'
p845
aS'to'
p846
aS'play'
p847
aS'an'
p848
aS'ocarina'
p849
asg30
(lp850
g844
ag845
ag846
ag847
ag848
ag849
asba(iMeme
Meme
p851
(dp852
g3
(lp853
S'hey'
p854
aS'guys'
p855
asg15
S'hey guys'
p856
sg17
S' we killed bin laden'
p857
sg19
Vslowpoke
p858
sg21
(lp859
g854
ag855
aS'we'
p860
aS'killed'
p861
aS'bin'
p862
aS'laden'
p863
asg30
(lp864
g860
ag861
ag862
ag863
asba(iMeme
Meme
p865
(dp866
g3
(lp867
S'brace'
p868
aS'yourselves'
p869
asg15
S'brace yourselves'
p870
sg17
S' the skyrim posts are coming'
p871
sg19
Vslowpoke
p872
sg21
(lp873
g868
ag869
aS'the'
p874
aS'skyrim'
p875
aS'posts'
p876
aS'are'
p877
aS'coming'
p878
asg30
(lp879
g874
ag875
ag876
ag877
ag878
asba(iMeme
Meme
p880
(dp881
g3
(lp882
S'hey'
p883
aS'guys'
p884
ag204
asg15
S'hey guys.'
p885
sg17
S' just got oblivion.'
p886
sg19
Vslowpoke
p887
sg21
(lp888
g883
ag884
ag204
aS'just'
p889
aS'got'
p890
aS'oblivion'
p891
ag204
asg30
(lp892
g889
ag890
ag891
ag204
asba(iMeme
Meme
p893
(dp894
g3
(lp895
S'i'
p896
aS'am'
p897
ag50
aS'pink'
p898
aS'hippopotamus'
p899
aS'squirrel'
p900
asg15
S'i am a pink hippopotamus squirrel'
p901
sg17
S' fear me!'
p902
sg19
Vslowpoke
p903
sg21
(lp904
g896
ag897
ag50
ag898
ag899
ag900
aS'fear'
p905
aS'me'
p906
ag148
asg30
(lp907
g905
ag906
ag148
asba(iMeme
Meme
p908
(dp909
g3
(lp910
S'slowpoke'
p911
asg15
S'slowpoke'
p912
sg17
S' memory like a goldfish?!'
p913
sg19
Vslowpoke
p914
sg21
(lp915
g911
aS'memory'
p916
aS'like'
p917
ag50
aS'goldfish'
p918
ag105
ag148
asg30
(lp919
g916
ag917
ag50
ag918
ag105
ag148
asba(iMeme
Meme
p920
(dp921
g3
(lp922
S'qwop'
p923
asg15
S'qwop'
p924
sg17
S' this is hard'
p925
sg19
Vslowpoke
p926
sg21
(lp927
g923
aS'this'
p928
aS'is'
p929
aS'hard'
p930
asg30
(lp931
g928
ag929
ag930
asba(iMeme
Meme
p932
(dp933
g3
(lp934
S'you'
p935
aS'are'
p936
aS'the'
p937
aS'best'
p938
aS';'
p939
aS')'
p940
asg15
S'you are the best ;)'
p941
sg17
S' just kiddin'
p942
sg19
Vslowpoke
p943
sg21
(lp944
g935
ag936
ag937
ag938
ag939
ag940
aS'just'
p945
aS'kiddin'
p946
asg30
(lp947
g945
ag946
asba(iMeme
Meme
p948
(dp949
g3
(lp950
S'to'
p951
aS'bad'
p952
aS'steve'
p953
aS'died'
p954
asg15
S'to bad steve died'
p955
sg17
S' i loved the crocodile hunter'
p956
sg19
Vslowpoke
p957
sg21
(lp958
g951
ag952
ag953
ag954
ag896
aS'loved'
p959
aS'the'
p960
aS'crocodile'
p961
aS'hunter'
p962
asg30
(lp963
g896
ag959
ag960
ag961
ag962
asba(iMeme
Meme
p964
(dp965
g3
(lp966
g896
aS'heard'
p967
aS'the'
p968
aS'asian'
p969
aS'leader'
p970
aS'died'
p971
ag204
asg15
S'i heard the asian leader died.'
p972
sg17
S' r.i.p. mahatma gandhi.'
p973
sg19
Vslowpoke
p974
sg21
(lp975
g896
ag967
ag968
ag969
ag970
ag971
ag204
aS'r.i.p'
p976
ag204
aS'mahatma'
p977
aS'gandhi'
p978
ag204
asg30
(lp979
g976
ag204
ag977
ag978
ag204
asba(iMeme
Meme
p980
(dp981
g3
(lp982
S'tide'
p983
aS'the'
p984
aS'slowbro'
p985
asg15
S'tide the slowbro'
p986
sg17
S' what the fuck you mean im slow!?!'
p987
sg19
Vslowpoke
p988
sg21
(lp989
g983
ag984
ag985
aS'what'
p990
aS'the'
p991
aS'fuck'
p992
aS'you'
p993
aS'mean'
p994
aS'im'
p995
aS'slow'
p996
ag148
ag105
ag148
asg30
(lp997
g990
ag991
ag992
ag993
ag994
ag995
ag996
ag148
ag105
ag148
asba(iMeme
Meme
p998
(dp999
g3
(lp1000
S'wait'
p1001
ag50
aS'minute'
p1002
ag148
ag148
asg15
S'wait a minute!!'
p1003
sg17
S' the rum is gone!'
p1004
sg19
Vslowpoke
p1005
sg21
(lp1006
g1001
ag50
ag1002
ag148
ag148
aS'the'
p1007
aS'rum'
p1008
aS'is'
p1009
aS'gone'
p1010
ag148
asg30
(lp1011
g1007
ag1008
ag1009
ag1010
ag148
asba(iMeme
Meme
p1012
(dp1013
g3
(lp1014
S'happy'
p1015
aS'new'
p1016
aS'year'
p1017
aS'guise'
p1018
asg15
S'happy new year guise'
p1019
sg17
S' i cant believe its 1980'
p1020
sg19
Vslowpoke
p1021
sg21
(lp1022
g1015
ag1016
ag1017
ag1018
ag896
aS'cant'
p1023
aS'believe'
p1024
aS'its'
p1025
aS'1980'
p1026
asg30
(lp1027
g896
ag1023
ag1024
ag1025
ag1026
asba(iMeme
Meme
p1028
(dp1029
g3
(lp1030
S'hey'
p1031
aS'guys'
p1032
aS'did'
p1033
aS'you'
p1034
aS'hear'
p1035
aS'about'
p1036
aS'this'
p1037
aS'awesome'
p1038
aS'new'
p1039
aS'game'
p1040
asg15
S'hey guys did you hear about this awesome new game'
p1041
sg17
S' called skyrim?'
p1042
sg19
Vslowpoke
p1043
sg21
(lp1044
g1031
ag1032
ag1033
ag1034
ag1035
ag1036
ag1037
ag1038
ag1039
ag1040
aS'called'
p1045
aS'skyrim'
p1046
ag105
asg30
(lp1047
g1045
ag1046
ag105
asba(iMeme
Meme
p1048
(dp1049
g3
(lp1050
S'hey'
p1051
aS'guys'
p1052
ag896
aS'herd'
p1053
aS'that'
p1054
asg15
S'hey guys i  herd that'
p1055
sg17
S' this thread is now a spiderman thread'
p1056
sg19
Vslowpoke
p1057
sg21
(lp1058
g1051
ag1052
ag896
ag1053
ag1054
aS'this'
p1059
aS'thread'
p1060
aS'is'
p1061
aS'now'
p1062
ag50
aS'spiderman'
p1063
aS'thread'
p1064
asg30
(lp1065
g1059
ag1060
ag1061
ag1062
ag50
ag1063
ag1064
asba(iMeme
Meme
p1066
(dp1067
g3
(lp1068
S'hey'
p1069
aS'guys'
p1070
asg15
S'hey guys'
p1071
sg17
S' are we spamming slowpoke memes?'
p1072
sg19
Vslowpoke
p1073
sg21
(lp1074
g1069
ag1070
aS'are'
p1075
aS'we'
p1076
aS'spamming'
p1077
aS'slowpoke'
p1078
aS'memes'
p1079
ag105
asg30
(lp1080
g1075
ag1076
ag1077
ag1078
ag1079
ag105
asba(iMeme
Meme
p1081
(dp1082
g3
(lp1083
S'hey'
p1084
aS'bryan'
p1085
asg15
S'hey bryan'
p1086
sg17
S' i heard its your birthday!'
p1087
sg19
Vslowpoke
p1088
sg21
(lp1089
g1084
ag1085
ag896
aS'heard'
p1090
aS'its'
p1091
aS'your'
p1092
aS'birthday'
p1093
ag148
asg30
(lp1094
g896
ag1090
ag1091
ag1092
ag1093
ag148
asba(iMeme
Meme
p1095
(dp1096
g3
(lp1097
S'hey'
p1098
aS'yall'
p1099
asg15
S'hey yall'
p1100
sg17
S' minecraft left alpha!'
p1101
sg19
Vslowpoke
p1102
sg21
(lp1103
g1098
ag1099
aS'minecraft'
p1104
aS'left'
p1105
aS'alpha'
p1106
ag148
asg30
(lp1107
g1104
ag1105
ag1106
ag148
asba(iMeme
Meme
p1108
(dp1109
g3
(lp1110
S'im'
p1111
aS'playing'
p1112
aS'the'
p1113
aS'new'
p1114
aS'elder'
p1115
aS'scrolls'
p1116
aS'game'
p1117
asg15
S'im playing the new elder scrolls game'
p1118
sg17
S' morrowind'
p1119
sg19
Vslowpoke
p1120
sg21
(lp1121
g1111
ag1112
ag1113
ag1114
ag1115
ag1116
ag1117
aS'morrowind'
p1122
asg30
(lp1123
g1122
asba(iMeme
Meme
p1124
(dp1125
g3
(lp1126
S'did'
p1127
aS'you'
p1128
aS'know'
p1129
asg15
S'did you know'
p1130
sg17
S' adolf hitlers dead'
p1131
sg19
Vslowpoke
p1132
sg21
(lp1133
g1127
ag1128
ag1129
aS'adolf'
p1134
aS'hitlers'
p1135
aS'dead'
p1136
asg30
(lp1137
g1134
ag1135
ag1136
asba(iMeme
Meme
p1138
(dp1139
g3
(lp1140
S'guys'
p1141
ag148
asg15
S'guys!'
p1142
sg17
S' team fortress 2 is free now!'
p1143
sg19
Vslowpoke
p1144
sg21
(lp1145
g1141
ag148
aS'team'
p1146
aS'fortress'
p1147
aS'2'
p1148
aS'is'
p1149
aS'free'
p1150
aS'now'
p1151
ag148
asg30
(lp1152
g1146
ag1147
ag1148
ag1149
ag1150
ag1151
ag148
asba(iMeme
Meme
p1153
(dp1154
g3
(lp1155
S'baxa'
p1156
aS'twins'
p1157
asg15
S'baxa twins'
p1158
sg17
S' its your birthday?!'
p1159
sg19
Vslowpoke
p1160
sg21
(lp1161
g1156
ag1157
aS'its'
p1162
aS'your'
p1163
aS'birthday'
p1164
ag105
ag148
asg30
(lp1165
g1162
ag1163
ag1164
ag105
ag148
asba(iMeme
Meme
p1166
(dp1167
g3
(lp1168
S'hey'
p1169
aS'guys'
p1170
asg15
S'hey guys'
p1171
sg17
S' did you hear?'
p1172
sg19
Vslowpoke
p1173
sg21
(lp1174
g1169
ag1170
aS'did'
p1175
aS'you'
p1176
aS'hear'
p1177
ag105
asg30
(lp1178
g1175
ag1176
ag1177
ag105
asba(iMeme
Meme
p1179
(dp1180
g3
(lp1181
S'omfg'
p1182
asg15
S'omfg'
p1183
sg17
S' so excite for halo 3'
p1184
sg19
Vslowpoke
p1185
sg21
(lp1186
g1182
aS'so'
p1187
aS'excite'
p1188
aS'for'
p1189
aS'halo'
p1190
aS'3'
p1191
asg30
(lp1192
g1187
ag1188
ag1189
ag1190
ag1191
asba(iMeme
Meme
p1193
(dp1194
g3
(lp1195
S'hey'
p1196
aS'guys'
p1197
asg15
S'hey guys'
p1198
sg17
S' funky kong is overused'
p1199
sg19
Vslowpoke
p1200
sg21
(lp1201
g1196
ag1197
aS'funky'
p1202
aS'kong'
p1203
aS'is'
p1204
aS'overused'
p1205
asg30
(lp1206
g1202
ag1203
ag1204
ag1205
asba(iMeme
Meme
p1207
(dp1208
g3
(lp1209
S'did'
p1210
aS'you'
p1211
aS'hear'
p1212
aS'about'
p1213
aS'that'
p1214
aS'dictator'
p1215
aS'who'
p1216
aS'died'
p1217
ag105
asg15
S'did you hear about that dictator who died?'
p1218
sg17
S' you know'
p1219
sg19
Vslowpoke
p1220
sg21
(lp1221
g1210
ag1211
ag1212
ag1213
ag1214
ag1215
ag1216
ag1217
ag105
aS'you'
p1222
aS'know'
p1223
asg30
(lp1224
g1222
ag1223
asba(iMeme
Meme
p1225
(dp1226
g3
(lp1227
S'hey'
p1228
aS'guys'
p1229
asg15
S'hey guys'
p1230
sg17
S' did you see the new meme'
p1231
sg19
Vslowpoke
p1232
sg21
(lp1233
g1228
ag1229
aS'did'
p1234
aS'you'
p1235
aS'see'
p1236
aS'the'
p1237
aS'new'
p1238
aS'meme'
p1239
asg30
(lp1240
g1234
ag1235
ag1236
ag1237
ag1238
ag1239
asba(iMeme
Meme
p1241
(dp1242
g3
(lp1243
S'did'
p1244
aS'you'
p1245
aS'hear'
p1246
ag105
asg15
S'did you hear?'
p1247
sg17
S' the giants beat the patriots in super bowl xlii!'
p1248
sg19
Vslowpoke
p1249
sg21
(lp1250
g1244
ag1245
ag1246
ag105
aS'the'
p1251
aS'giants'
p1252
aS'beat'
p1253
aS'the'
p1254
aS'patriots'
p1255
aS'in'
p1256
aS'super'
p1257
aS'bowl'
p1258
aS'xlii'
p1259
ag148
asg30
(lp1260
g1251
ag1252
ag1253
ag1254
ag1255
ag1256
ag1257
ag1258
ag1259
ag148
asba(iMeme
Meme
p1261
(dp1262
g3
(lp1263
S'omg'
p1264
aS'guys'
p1265
ag148
aS'go'
p1266
aS'in'
p1267
aS'google'
p1268
aS'and'
p1269
aS'type'
p1270
asg15
S'omg guys! go in google and type'
p1271
sg17
S' do a barrel roll'
p1272
sg19
Vslowpoke
p1273
sg21
(lp1274
g1264
ag1265
ag148
ag1266
ag1267
ag1268
ag1269
ag1270
aS'do'
p1275
ag50
aS'barrel'
p1276
aS'roll'
p1277
asg30
(lp1278
g1275
ag50
ag1276
ag1277
asba(iMeme
Meme
p1279
(dp1280
g3
(lp1281
S'did'
p1282
aS'u'
p1283
aS'know'
p1284
asg15
S'did u know'
p1285
sg17
S' that there r 9 gags per page on 9gag?'
p1286
sg19
Vslowpoke
p1287
sg21
(lp1288
g1282
ag1283
ag1284
aS'that'
p1289
aS'there'
p1290
aS'r'
p1291
aS'9'
p1292
aS'gags'
p1293
aS'per'
p1294
aS'page'
p1295
aS'on'
p1296
aS'9gag'
p1297
ag105
asg30
(lp1298
g1289
ag1290
ag1291
ag1292
ag1293
ag1294
ag1295
ag1296
ag1297
ag105
asba(iMeme
Meme
p1299
(dp1300
g3
(lp1301
S'windows'
p1302
aS'8'
p1303
ag105
asg15
S'windows 8?'
p1304
sg17
S' can i upgrade from my xp?'
p1305
sg19
Vslowpoke
p1306
sg21
(lp1307
g1302
ag1303
ag105
aS'can'
p1308
ag896
aS'upgrade'
p1309
aS'from'
p1310
aS'my'
p1311
aS'xp'
p1312
ag105
asg30
(lp1313
g1308
ag896
ag1309
ag1310
ag1311
ag1312
ag105
asba(iMeme
Meme
p1314
(dp1315
g3
(lp1316
S'hey'
p1317
aS'guys'
p1318
asg15
S'hey guys'
p1319
sg17
S' stop kony 2012'
p1320
sg19
Vslowpoke
p1321
sg21
(lp1322
g1317
ag1318
aS'stop'
p1323
aS'kony'
p1324
aS'2012'
p1325
asg30
(lp1326
g1323
ag1324
ag1325
asba(iMeme
Meme
p1327
(dp1328
g3
(lp1329
S'hey'
p1330
aS'bro'
p1331
asg15
S'hey bro'
p1332
sg17
S' have you seen bf3 is comming out soon?'
p1333
sg19
Vslowpoke
p1334
sg21
(lp1335
g1330
ag1331
aS'have'
p1336
aS'you'
p1337
aS'seen'
p1338
aS'bf3'
p1339
aS'is'
p1340
aS'comming'
p1341
aS'out'
p1342
aS'soon'
p1343
ag105
asg30
(lp1344
g1336
ag1337
ag1338
ag1339
ag1340
ag1341
ag1342
ag1343
ag105
asba(iMeme
Meme
p1345
(dp1346
g3
(lp1347
S'hey'
p1348
aS'guys'
p1349
ag148
asg15
S'hey guys!'
p1350
sg17
S' did you hear mike vick broke his hand?'
p1351
sg19
Vslowpoke
p1352
sg21
(lp1353
g1348
ag1349
ag148
aS'did'
p1354
aS'you'
p1355
aS'hear'
p1356
aS'mike'
p1357
aS'vick'
p1358
aS'broke'
p1359
aS'his'
p1360
aS'hand'
p1361
ag105
asg30
(lp1362
g1354
ag1355
ag1356
ag1357
ag1358
ag1359
ag1360
ag1361
ag105
asba(iMeme
Meme
p1363
(dp1364
g3
(lp1365
S'hey'
p1366
aS'guys'
p1367
ag148
asg15
S'hey guys!'
p1368
sg17
S' i just got the joke!'
p1369
sg19
Vslowpoke
p1370
sg21
(lp1371
g1366
ag1367
ag148
ag896
aS'just'
p1372
aS'got'
p1373
aS'the'
p1374
aS'joke'
p1375
ag148
asg30
(lp1376
g896
ag1372
ag1373
ag1374
ag1375
ag148
asba(iMeme
Meme
p1377
(dp1378
g3
(lp1379
S'woah'
p1380
asg15
S'woah'
p1381
sg17
S' hannah montana is actually miley?'
p1382
sg19
Vslowpoke
p1383
sg21
(lp1384
g1380
aS'hannah'
p1385
aS'montana'
p1386
aS'is'
p1387
aS'actually'
p1388
aS'miley'
p1389
ag105
asg30
(lp1390
g1385
ag1386
ag1387
ag1388
ag1389
ag105
asba(iMeme
Meme
p1391
(dp1392
g3
(lp1393
S'hey'
p1394
aS'guys'
p1395
asg15
S'hey guys'
p1396
sg17
S' chris evans is captain america and the human torch'
p1397
sg19
Vslowpoke
p1398
sg21
(lp1399
g1394
ag1395
aS'chris'
p1400
aS'evans'
p1401
aS'is'
p1402
aS'captain'
p1403
aS'america'
p1404
aS'and'
p1405
aS'the'
p1406
aS'human'
p1407
aS'torch'
p1408
asg30
(lp1409
g1400
ag1401
ag1402
ag1403
ag1404
ag1405
ag1406
ag1407
ag1408
asba(iMeme
Meme
p1410
(dp1411
g3
(lp1412
S'the'
p1413
aS'new'
p1414
aS'call'
p1415
aS'of'
p1416
aS'duty'
p1417
asg15
S'the new call of duty'
p1418
sg17
S''
p1419
sg19
Vslowpoke
p1420
sg21
(lp1421
g1413
ag1414
ag1415
ag1416
ag1417
asg30
(lp1422
sba(iMeme
Meme
p1423
(dp1424
g3
(lp1425
S'hey'
p1426
aS'guys'
p1427
asg15
S'hey guys'
p1428
sg17
S' sweden won eurovision'
p1429
sg19
Vslowpoke
p1430
sg21
(lp1431
g1426
ag1427
aS'sweden'
p1432
aS'won'
p1433
aS'eurovision'
p1434
asg30
(lp1435
g1432
ag1433
ag1434
asba(iMeme
Meme
p1436
(dp1437
g3
(lp1438
S'game'
p1439
aS'of'
p1440
aS'thrones'
p1441
aS'spoiler'
p1442
asg15
S'game of thrones spoiler'
p1443
sg17
S' ned stark gets his head cut off'
p1444
sg19
Vslowpoke
p1445
sg21
(lp1446
g1439
ag1440
ag1441
ag1442
aS'ned'
p1447
aS'stark'
p1448
aS'gets'
p1449
aS'his'
p1450
aS'head'
p1451
aS'cut'
p1452
aS'off'
p1453
asg30
(lp1454
g1447
ag1448
ag1449
ag1450
ag1451
ag1452
ag1453
asba(iMeme
Meme
p1455
(dp1456
g3
(lp1457
S'did'
p1458
aS'you'
p1459
aS'guys'
p1460
aS'hear'
p1461
ag105
asg15
S'did you guys hear?'
p1462
sg17
S' lsu has this new memes page'
p1463
sg19
Vslowpoke
p1464
sg21
(lp1465
g1458
ag1459
ag1460
ag1461
ag105
aS'lsu'
p1466
aS'has'
p1467
aS'this'
p1468
aS'new'
p1469
aS'memes'
p1470
aS'page'
p1471
asg30
(lp1472
g1466
ag1467
ag1468
ag1469
ag1470
ag1471
asba(iMeme
Meme
p1473
(dp1474
g3
(lp1475
g896
aS'heard'
p1476
aS'youre'
p1477
aS'in'
p1478
ag50
aS'relationship'
p1479
asg15
S'i heard youre in a relationship'
p1480
sg17
S' congratulations'
p1481
sg19
Vslowpoke
p1482
sg21
(lp1483
g896
ag1476
ag1477
ag1478
ag50
ag1479
aS'congratulations'
p1484
asg30
(lp1485
g1484
asba(iMeme
Meme
p1486
(dp1487
g3
(lp1488
S'hey'
p1489
aS'guys'
p1490
aS'did'
p1491
aS'you'
p1492
aS'hear'
p1493
ag148
ag105
asg15
S'hey guys did you hear!?'
p1494
sg17
S' nba is in a lockdown!'
p1495
sg19
Vslowpoke
p1496
sg21
(lp1497
g1489
ag1490
ag1491
ag1492
ag1493
ag148
ag105
aS'nba'
p1498
aS'is'
p1499
aS'in'
p1500
ag50
aS'lockdown'
p1501
ag148
asg30
(lp1502
g1498
ag1499
ag1500
ag50
ag1501
ag148
asba(iMeme
Meme
p1503
(dp1504
g3
(lp1505
S'hey'
p1506
aS'guys'
p1507
asg15
S'hey guys'
p1508
sg17
S' does anyone want to buy id cards?'
p1509
sg19
Vslowpoke
p1510
sg21
(lp1511
g1506
ag1507
aS'does'
p1512
aS'anyone'
p1513
aS'want'
p1514
aS'to'
p1515
aS'buy'
p1516
aS'id'
p1517
aS'cards'
p1518
ag105
asg30
(lp1519
g1512
ag1513
ag1514
ag1515
ag1516
ag1517
ag1518
ag105
asba(iMeme
Meme
p1520
(dp1521
g3
(lp1522
S'so'
p1523
ag896
aS'just'
p1524
aS'heard'
p1525
aS'about'
p1526
aS'the'
p1527
aS'holocaust'
p1528
asg15
S'so i just heard about the holocaust'
p1529
sg17
S' can someone explain it to me?'
p1530
sg19
Vslowpoke
p1531
sg21
(lp1532
g1523
ag896
ag1524
ag1525
ag1526
ag1527
ag1528
aS'can'
p1533
aS'someone'
p1534
aS'explain'
p1535
aS'it'
p1536
aS'to'
p1537
aS'me'
p1538
ag105
asg30
(lp1539
g1533
ag1534
ag1535
ag1536
ag1537
ag1538
ag105
asba(iMeme
Meme
p1540
(dp1541
g3
(lp1542
S'hey'
p1543
aS'michael'
p1544
asg15
S'hey michael'
p1545
sg17
S' i heard its your birthday!'
p1546
sg19
Vslowpoke
p1547
sg21
(lp1548
g1543
ag1544
ag896
aS'heard'
p1549
aS'its'
p1550
aS'your'
p1551
aS'birthday'
p1552
ag148
asg30
(lp1553
g896
ag1549
ag1550
ag1551
ag1552
ag148
asba(iMeme
Meme
p1554
(dp1555
g3
(lp1556
S'hey'
p1557
aS'people'
p1558
ag148
asg15
S'hey people !'
p1559
sg17
S' did you hear that skyrim song by harry partridge ?'
p1560
sg19
Vslowpoke
p1561
sg21
(lp1562
g1557
ag1558
ag148
aS'did'
p1563
aS'you'
p1564
aS'hear'
p1565
aS'that'
p1566
aS'skyrim'
p1567
aS'song'
p1568
aS'by'
p1569
aS'harry'
p1570
aS'partridge'
p1571
ag105
asg30
(lp1572
g1563
ag1564
ag1565
ag1566
ag1567
ag1568
ag1569
ag1570
ag1571
ag105
asba(iMeme
Meme
p1573
(dp1574
g3
(lp1575
S'have'
p1576
aS'you'
p1577
aS'heard'
p1578
aS'about'
p1579
aS'tupac'
p1580
ag105
asg15
S'have you heard about tupac?'
p1581
sg17
S' he got shot!'
p1582
sg19
Vslowpoke
p1583
sg21
(lp1584
g1576
ag1577
ag1578
ag1579
ag1580
ag105
aS'he'
p1585
aS'got'
p1586
aS'shot'
p1587
ag148
asg30
(lp1588
g1585
ag1586
ag1587
ag148
asba(iMeme
Meme
p1589
(dp1590
g3
(lp1591
S'do'
p1592
aS'you'
p1593
aS'guys'
p1594
aS'know'
p1595
aS'the'
p1596
aS'new'
p1597
aS'elder'
p1598
aS'scrolls'
p1599
aS'game'
p1600
ag105
asg15
S'do you guys know the new elder scrolls game?'
p1601
sg17
S' morrowind'
p1602
sg19
Vslowpoke
p1603
sg21
(lp1604
g1592
ag1593
ag1594
ag1595
ag1596
ag1597
ag1598
ag1599
ag1600
ag105
aS'morrowind'
p1605
asg30
(lp1606
g1605
asba(iMeme
Meme
p1607
(dp1608
g3
(lp1609
S'pooping'
p1610
aS'in'
p1611
aS'shower'
p1612
ag105
asg15
S'pooping in shower?'
p1613
sg17
S' disgusting'
p1614
sg19
Vslowpoke
p1615
sg21
(lp1616
g1610
ag1611
ag1612
ag105
aS'disgusting'
p1617
asg30
(lp1618
g1617
asba(iMeme
Meme
p1619
(dp1620
g3
(lp1621
S'lynnette'
p1622
aS'thompson'
p1623
aS'thinks'
p1624
aS'shes'
p1625
aS'nice'
p1626
ag204
asg15
S'lynnette thompson thinks shes nice.'
p1627
sg17
S' lolwut'
p1628
sg19
Vslowpoke
p1629
sg21
(lp1630
g1622
ag1623
ag1624
ag1625
ag1626
ag204
aS'lolwut'
p1631
asg30
(lp1632
g1631
asba(iMeme
Meme
p1633
(dp1634
g3
(lp1635
S'theres'
p1636
aS'this'
p1637
aS'thing'
p1638
aS'ruining'
p1639
aS'mk7'
p1640
asg15
S'theres this thing ruining mk7'
p1641
sg17
S' its called the maka wuhu ultra glitch'
p1642
sg19
Vslowpoke
p1643
sg21
(lp1644
g1636
ag1637
ag1638
ag1639
ag1640
aS'its'
p1645
aS'called'
p1646
aS'the'
p1647
aS'maka'
p1648
aS'wuhu'
p1649
aS'ultra'
p1650
aS'glitch'
p1651
asg30
(lp1652
g1645
ag1646
ag1647
ag1648
ag1649
ag1650
ag1651
asba(iMeme
Meme
p1653
(dp1654
g3
(lp1655
S'did'
p1656
aS'you'
p1657
aS'guys'
p1658
aS'here'
p1659
asg15
S'did you guys here'
p1660
sg17
S' theres a gas leak in pittsburg'
p1661
sg19
Vslowpoke
p1662
sg21
(lp1663
g1656
ag1657
ag1658
ag1659
aS'theres'
p1664
ag50
aS'gas'
p1665
aS'leak'
p1666
aS'in'
p1667
aS'pittsburg'
p1668
asg30
(lp1669
g1664
ag50
ag1665
ag1666
ag1667
ag1668
asba(iMeme
Meme
p1670
(dp1671
g3
(lp1672
S'did'
p1673
aS'you'
p1674
aS'hear'
p1675
aS'about'
p1676
aS'steve'
p1677
aS'jobs'
p1678
asg15
S'did you hear about steve jobs'
p1679
sg17
S' hes leaving apple to form next'
p1680
sg19
Vslowpoke
p1681
sg21
(lp1682
g1673
ag1674
ag1675
ag1676
ag1677
ag1678
aS'hes'
p1683
aS'leaving'
p1684
aS'apple'
p1685
aS'to'
p1686
aS'form'
p1687
aS'next'
p1688
asg30
(lp1689
g1683
ag1684
ag1685
ag1686
ag1687
ag1688
asba(iMeme
Meme
p1690
(dp1691
g3
(lp1692
S'fuck'
p1693
aS'this'
p1694
aS'shit'
p1695
ag148
asg15
S'fuck this shit!'
p1696
sg17
S' im a pokemon!'
p1697
sg19
Vslowpoke
p1698
sg21
(lp1699
g1693
ag1694
ag1695
ag148
aS'im'
p1700
ag50
aS'pokemon'
p1701
ag148
asg30
(lp1702
g1700
ag50
ag1701
ag148
asba(iMeme
Meme
p1703
(dp1704
g3
(lp1705
S'how'
p1706
aS'did'
p1707
aS'you'
p1708
aS'get'
p1709
aS'out'
p1710
aS'of'
p1711
aS'iraq'
p1712
asg15
S'how did you get out of iraq'
p1713
sg17
S' iran'
p1714
sg19
Vslowpoke
p1715
sg21
(lp1716
g1706
ag1707
ag1708
ag1709
ag1710
ag1711
ag1712
aS'iran'
p1717
asg30
(lp1718
g1717
asba(iMeme
Meme
p1719
(dp1720
g3
(lp1721
S'no'
p1722
asg15
S'no'
p1723
sg17
S' what are they?'
p1724
sg19
Vslowpoke
p1725
sg21
(lp1726
g1722
aS'what'
p1727
aS'are'
p1728
aS'they'
p1729
ag105
asg30
(lp1730
g1727
ag1728
ag1729
ag105
asba(iMeme
Meme
p1731
(dp1732
g3
(lp1733
S'r.i.p'
p1734
aS'admin'
p1735
asg15
S'r.i.p admin'
p1736
sg17
S' we will miss you'
p1737
sg19
Vslowpoke
p1738
sg21
(lp1739
g1734
ag1735
aS'we'
p1740
aS'will'
p1741
aS'miss'
p1742
aS'you'
p1743
asg30
(lp1744
g1740
ag1741
ag1742
ag1743
asba(iMeme
Meme
p1745
(dp1746
g3
(lp1747
S'hey'
p1748
aS'guys'
p1749
asg15
S'hey guys'
p1750
sg17
S' have you heard this song?'
p1751
sg19
Vslowpoke
p1752
sg21
(lp1753
g1748
ag1749
aS'have'
p1754
aS'you'
p1755
aS'heard'
p1756
aS'this'
p1757
aS'song'
p1758
ag105
asg30
(lp1759
g1754
ag1755
ag1756
ag1757
ag1758
ag105
asba(iMeme
Meme
p1760
(dp1761
g3
(lp1762
S'hey'
p1763
aS'guys'
p1764
asg15
S'hey guys'
p1765
sg17
S' have you heard that dubstep remix of song of storms'
p1766
sg19
Vslowpoke
p1767
sg21
(lp1768
g1763
ag1764
aS'have'
p1769
aS'you'
p1770
aS'heard'
p1771
aS'that'
p1772
aS'dubstep'
p1773
aS'remix'
p1774
aS'of'
p1775
aS'song'
p1776
aS'of'
p1777
aS'storms'
p1778
asg30
(lp1779
g1769
ag1770
ag1771
ag1772
ag1773
ag1774
ag1775
ag1776
ag1777
ag1778
asba(iMeme
Meme
p1780
(dp1781
g3
(lp1782
S'hey'
p1783
aS'guys'
p1784
asg15
S'hey guys'
p1785
sg17
S' michelle visage has big boobs'
p1786
sg19
Vslowpoke
p1787
sg21
(lp1788
g1783
ag1784
aS'michelle'
p1789
aS'visage'
p1790
aS'has'
p1791
aS'big'
p1792
aS'boobs'
p1793
asg30
(lp1794
g1789
ag1790
ag1791
ag1792
ag1793
asba(iMeme
Meme
p1795
(dp1796
g3
(lp1797
g50
aS'wiseass'
p1798
aS'response'
p1799
aS'on'
p1800
aS'dark'
p1801
aS'world'
p1802
aS'society'
p1803
ag105
asg15
S'a wiseass response on dark world society?'
p1804
sg17
S' no way'
p1805
sg19
Vslowpoke
p1806
sg21
(lp1807
g50
ag1798
ag1799
ag1800
ag1801
ag1802
ag1803
ag105
aS'no'
p1808
aS'way'
p1809
asg30
(lp1810
g1808
ag1809
asba(iMeme
Meme
p1811
(dp1812
g3
(lp1813
S'hey'
p1814
aS'guys'
p1815
aS'did'
p1816
aS'you'
p1817
aS'here'
p1818
aS'about'
p1819
aS'the'
p1820
aS'new'
p1821
aS'champ'
p1822
asg15
S'hey guys did you here about the new champ'
p1823
sg17
S' oriana looks pretty cool'
p1824
sg19
Vslowpoke
p1825
sg21
(lp1826
g1814
ag1815
ag1816
ag1817
ag1818
ag1819
ag1820
ag1821
ag1822
aS'oriana'
p1827
aS'looks'
p1828
aS'pretty'
p1829
aS'cool'
p1830
asg30
(lp1831
g1827
ag1828
ag1829
ag1830
asba(iMeme
Meme
p1832
(dp1833
g3
(lp1834
g50
aS'wiseass'
p1835
aS'response'
p1836
aS'on'
p1837
aS'dark'
p1838
aS'world'
p1839
aS'society'
p1840
ag105
asg15
S'a wiseass response on dark world society?'
p1841
sg17
S' no way'
p1842
sg19
Vslowpoke
p1843
sg21
(lp1844
g50
ag1835
ag1836
ag1837
ag1838
ag1839
ag1840
ag105
aS'no'
p1845
aS'way'
p1846
asg30
(lp1847
g1845
ag1846
asba(iMeme
Meme
p1848
(dp1849
g3
(lp1850
S'hey'
p1851
ag148
asg15
S'hey!'
p1852
sg17
S' disco is dead you guys'
p1853
sg19
Vslowpoke
p1854
sg21
(lp1855
g1851
ag148
aS'disco'
p1856
aS'is'
p1857
aS'dead'
p1858
aS'you'
p1859
aS'guys'
p1860
asg30
(lp1861
g1856
ag1857
ag1858
ag1859
ag1860
asba(iMeme
Meme
p1862
(dp1863
g3
(lp1864
S'que'
p1865
aS'es'
p1866
aS'ley'
p1867
aS'sopa'
p1868
ag105
asg15
S'que es ley sopa?'
p1869
sg17
S' lo buscare en wikipedia'
p1870
sg19
Vslowpoke
p1871
sg21
(lp1872
g1865
ag1866
ag1867
ag1868
ag105
aS'lo'
p1873
aS'buscare'
p1874
aS'en'
p1875
aS'wikipedia'
p1876
asg30
(lp1877
g1873
ag1874
ag1875
ag1876
asba(iMeme
Meme
p1878
(dp1879
g3
(lp1880
S'omg'
p1881
aS'guys'
p1882
ag148
asg15
S'omg guys!'
p1883
sg17
S' we need to stop sopa!'
p1884
sg19
Vslowpoke
p1885
sg21
(lp1886
g1881
ag1882
ag148
aS'we'
p1887
aS'need'
p1888
aS'to'
p1889
aS'stop'
p1890
aS'sopa'
p1891
ag148
asg30
(lp1892
g1887
ag1888
ag1889
ag1890
ag1891
ag148
asba(iMeme
Meme
p1893
(dp1894
g3
(lp1895
S'just'
p1896
aS'discovered'
p1897
asg15
S'just discovered'
p1898
sg17
S' meet the spartans'
p1899
sg19
Vslowpoke
p1900
sg21
(lp1901
g1896
ag1897
aS'meet'
p1902
aS'the'
p1903
aS'spartans'
p1904
asg30
(lp1905
g1902
ag1903
ag1904
asba(iMeme
Meme
p1906
(dp1907
g3
(lp1908
S'the'
p1909
aS'greatest'
p1910
aS'voice'
p1911
aS'of'
p1912
aS'all'
p1913
aS'all'
p1914
aS'time'
p1915
aS'just'
p1916
aS'died'
p1917
asg15
S'the greatest voice of all all time just died'
p1918
sg17
S' r.i.p michael jackson'
p1919
sg19
Vslowpoke
p1920
sg21
(lp1921
g1909
ag1910
ag1911
ag1912
ag1913
ag1914
ag1915
ag1916
ag1917
aS'r.i.p'
p1922
aS'michael'
p1923
aS'jackson'
p1924
asg30
(lp1925
g1922
ag1923
ag1924
asba(iMeme
Meme
p1926
(dp1927
g3
(lp1928
S'omg'
p1929
ag148
asg15
S'omg!'
p1930
sg17
S' chris collins left dream theater!'
p1931
sg19
Vslowpoke
p1932
sg21
(lp1933
g1929
ag148
aS'chris'
p1934
aS'collins'
p1935
aS'left'
p1936
aS'dream'
p1937
aS'theater'
p1938
ag148
asg30
(lp1939
g1934
ag1935
ag1936
ag1937
ag1938
ag148
asba(iMeme
Meme
p1940
(dp1941
g3
(lp1942
S'did'
p1943
aS'you'
p1944
aS'hear'
p1945
aS'about'
p1946
aS'that'
p1947
aS'really'
p1948
aS'good'
p1949
aS'chinese'
p1950
aS'basketball'
p1951
aS'player'
p1952
ag105
asg15
S'did you hear about that really good chinese basketball player?'
p1953
sg17
S' yao ming'
p1954
sg19
Vslowpoke
p1955
sg21
(lp1956
g1943
ag1944
ag1945
ag1946
ag1947
ag1948
ag1949
ag1950
ag1951
ag1952
ag105
aS'yao'
p1957
aS'ming'
p1958
asg30
(lp1959
g1957
ag1958
asba(iMeme
Meme
p1960
(dp1961
g3
(lp1962
S'did'
p1963
aS'you'
p1964
aS'hear'
p1965
aS'koreas'
p1966
aS'leader'
p1967
aS'died'
p1968
asg15
S'did you hear koreas leader died'
p1969
sg17
S' r.i.p. dangun wanggeom'
p1970
sg19
Vslowpoke
p1971
sg21
(lp1972
g1963
ag1964
ag1965
ag1966
ag1967
ag1968
aS'r.i.p'
p1973
ag204
aS'dangun'
p1974
aS'wanggeom'
p1975
asg30
(lp1976
g1973
ag204
ag1974
ag1975
asba(iMeme
Meme
p1977
(dp1978
g3
(lp1979
S'guys'
p1980
asg15
S'guys'
p1981
sg17
S' forget video tapes'
p1982
sg19
Vslowpoke
p1983
sg21
(lp1984
g1980
aS'forget'
p1985
aS'video'
p1986
aS'tapes'
p1987
asg30
(lp1988
g1985
ag1986
ag1987
asba(iMeme
Meme
p1989
(dp1990
g3
(lp1991
S'tide'
p1992
asg15
S'tide'
p1993
sg17
S' who the fuck you callin slow!?!'
p1994
sg19
Vslowpoke
p1995
sg21
(lp1996
g1992
aS'who'
p1997
aS'the'
p1998
aS'fuck'
p1999
aS'you'
p2000
aS'callin'
p2001
aS'slow'
p2002
ag148
ag105
ag148
asg30
(lp2003
g1997
ag1998
ag1999
ag2000
ag2001
ag2002
ag148
ag105
ag148
asba(iMeme
Meme
p2004
(dp2005
g3
(lp2006
S'did'
p2007
aS'you'
p2008
aS'hear'
p2009
aS'the'
p2010
aS'greatest'
p2011
aS'voice'
p2012
aS'of'
p2013
aS'all'
p2014
aS'time'
p2015
aS'just'
p2016
aS'died'
p2017
ag105
asg15
S'did you hear the greatest voice of all time just died?'
p2018
sg17
S' r.i.p. michael jackson'
p2019
sg19
Vslowpoke
p2020
sg21
(lp2021
g2007
ag2008
ag2009
ag2010
ag2011
ag2012
ag2013
ag2014
ag2015
ag2016
ag2017
ag105
aS'r.i.p'
p2022
ag204
aS'michael'
p2023
aS'jackson'
p2024
asg30
(lp2025
g2022
ag204
ag2023
ag2024
asba(iMeme
Meme
p2026
(dp2027
g3
(lp2028
S'thanks'
p2029
aS'for'
p2030
aS'the'
p2031
aS'patch'
p2032
aS'it'
p2033
aS'made'
p2034
aS'my'
p2035
aS'fps'
p2036
aS'go'
p2037
aS'up'
p2038
ag148
asg15
S'thanks for the patch it made my fps go up!'
p2039
sg17
S' also i like the friends list!'
p2040
sg19
Vslowpoke
p2041
sg21
(lp2042
g2029
ag2030
ag2031
ag2032
ag2033
ag2034
ag2035
ag2036
ag2037
ag2038
ag148
aS'also'
p2043
ag896
aS'like'
p2044
aS'the'
p2045
aS'friends'
p2046
aS'list'
p2047
ag148
asg30
(lp2048
g2043
ag896
ag2044
ag2045
ag2046
ag2047
ag148
asba(iMeme
Meme
p2049
(dp2050
g3
(lp2051
S'check'
p2052
aS'this'
p2053
asg15
S'check this'
p2054
sg17
S' every day im shuffiling'
p2055
sg19
Vslowpoke
p2056
sg21
(lp2057
g2052
ag2053
aS'every'
p2058
aS'day'
p2059
aS'im'
p2060
aS'shuffiling'
p2061
asg30
(lp2062
g2058
ag2059
ag2060
ag2061
asba(iMeme
Meme
p2063
(dp2064
g3
(lp2065
S'hey'
p2066
aS'guys'
p2067
asg15
S'hey guys'
p2068
sg17
S' steve jobs just died'
p2069
sg19
Vslowpoke
p2070
sg21
(lp2071
g2066
ag2067
aS'steve'
p2072
aS'jobs'
p2073
aS'just'
p2074
aS'died'
p2075
asg30
(lp2076
g2072
ag2073
ag2074
ag2075
asba(iMeme
Meme
p2077
(dp2078
g3
(lp2079
S'hey'
p2080
aS'guys'
p2081
ag148
asg15
S'hey guys !'
p2082
sg17
S' did you hear that skyrim song by harry partridge ?'
p2083
sg19
Vslowpoke
p2084
sg21
(lp2085
g2080
ag2081
ag148
aS'did'
p2086
aS'you'
p2087
aS'hear'
p2088
aS'that'
p2089
aS'skyrim'
p2090
aS'song'
p2091
aS'by'
p2092
aS'harry'
p2093
aS'partridge'
p2094
ag105
asg30
(lp2095
g2086
ag2087
ag2088
ag2089
ag2090
ag2091
ag2092
ag2093
ag2094
ag105
asba(iMeme
Meme
p2096
(dp2097
g3
(lp2098
S'me'
p2099
aS'voy'
p2100
aS'al'
p2101
aS'plato'
p2102
aS'unico'
p2103
aS'bailable'
p2104
asg15
S'me voy al plato unico bailable'
p2105
sg17
S' en casa de luciano'
p2106
sg19
Vslowpoke
p2107
sg21
(lp2108
g2099
ag2100
ag2101
ag2102
ag2103
ag2104
aS'en'
p2109
aS'casa'
p2110
aS'de'
p2111
aS'luciano'
p2112
asg30
(lp2113
g2109
ag2110
ag2111
ag2112
asba(iMeme
Meme
p2114
(dp2115
g3
(lp2116
S'hey'
p2117
asg15
S'hey'
p2118
sg17
S' did you hear?'
p2119
sg19
Vslowpoke
p2120
sg21
(lp2121
g2117
aS'did'
p2122
aS'you'
p2123
aS'hear'
p2124
ag105
asg30
(lp2125
g2122
ag2123
ag2124
ag105
asba(iMeme
Meme
p2126
(dp2127
g3
(lp2128
S'hahahahaha'
p2129
ag148
asg15
S'hahahahaha!'
p2130
sg17
S' vegeta vs. troll.'
p2131
sg19
Vslowpoke
p2132
sg21
(lp2133
g2129
ag148
aS'vegeta'
p2134
aS'vs'
p2135
ag204
aS'troll'
p2136
ag204
asg30
(lp2137
g2134
ag2135
ag204
ag2136
ag204
asba(iMeme
Meme
p2138
(dp2139
g3
(lp2140
S'me'
p2141
aS'voy'
p2142
aS'al'
p2143
aS'plato'
p2144
aS'nico'
p2145
aS'bailable'
p2146
asg15
S'me voy al plato nico bailable'
p2147
sg17
S' en casa de luciano'
p2148
sg19
Vslowpoke
p2149
sg21
(lp2150
g2141
ag2142
ag2143
ag2144
ag2145
ag2146
aS'en'
p2151
aS'casa'
p2152
aS'de'
p2153
aS'luciano'
p2154
asg30
(lp2155
g2151
ag2152
ag2153
ag2154
asba(iMeme
Meme
p2156
(dp2157
g3
(lp2158
S'hey'
p2159
aS'guys'
p2160
asg15
S'hey guys'
p2161
sg17
S' did you know you can vote in the vines center this year?!'
p2162
sg19
Vslowpoke
p2163
sg21
(lp2164
g2159
ag2160
aS'did'
p2165
aS'you'
p2166
aS'know'
p2167
aS'you'
p2168
aS'can'
p2169
aS'vote'
p2170
aS'in'
p2171
aS'the'
p2172
aS'vines'
p2173
aS'center'
p2174
aS'this'
p2175
aS'year'
p2176
ag105
ag148
asg30
(lp2177
g2165
ag2166
ag2167
ag2168
ag2169
ag2170
ag2171
ag2172
ag2173
ag2174
ag2175
ag2176
ag105
ag148
asba(iMeme
Meme
p2178
(dp2179
g3
(lp2180
S'hey'
p2181
aS'guys'
p2182
asg15
S'hey guys'
p2183
sg17
S' shawshank redemption is a good movie!'
p2184
sg19
Vslowpoke
p2185
sg21
(lp2186
g2181
ag2182
aS'shawshank'
p2187
aS'redemption'
p2188
aS'is'
p2189
ag50
aS'good'
p2190
aS'movie'
p2191
ag148
asg30
(lp2192
g2187
ag2188
ag2189
ag50
ag2190
ag2191
ag148
asba(iMeme
Meme
p2193
(dp2194
g3
(lp2195
S'hey'
p2196
aS'guys'
p2197
asg15
S'hey guys'
p2198
sg17
S' happy new year'
p2199
sg19
Vslowpoke
p2200
sg21
(lp2201
g2196
ag2197
aS'happy'
p2202
aS'new'
p2203
aS'year'
p2204
asg30
(lp2205
g2202
ag2203
ag2204
asba(iMeme
Meme
p2206
(dp2207
g3
(lp2208
g896
aS'love'
p2209
aS'the'
p2210
aS'new'
p2211
aS'elder'
p2212
aS'scrolls'
p2213
asg15
S'i love the new elder scrolls'
p2214
sg17
S' oblivion'
p2215
sg19
Vslowpoke
p2216
sg21
(lp2217
g896
ag2209
ag2210
ag2211
ag2212
ag2213
aS'oblivion'
p2218
asg30
(lp2219
g2218
asba(iMeme
Meme
p2220
(dp2221
g3
(lp2222
S'what'
p2223
aS'do'
p2224
aS'you'
p2225
aS'mean'
p2226
aS'theyre'
p2227
aS'shutting'
p2228
aS'down'
p2229
aS'the'
p2230
aS'internet'
p2231
asg15
S'what do you mean theyre shutting down the internet'
p2232
sg17
S' i just got it'
p2233
sg19
Vslowpoke
p2234
sg21
(lp2235
g2223
ag2224
ag2225
ag2226
ag2227
ag2228
ag2229
ag2230
ag2231
ag896
aS'just'
p2236
aS'got'
p2237
aS'it'
p2238
asg30
(lp2239
g896
ag2236
ag2237
ag2238
asba(iMeme
Meme
p2240
(dp2241
g3
(lp2242
S'hey'
p2243
aS'you'
p2244
aS'guys'
p2245
asg15
S'hey you guys'
p2246
sg17
S' theres a picture of sterling on the internet!'
p2247
sg19
Vslowpoke
p2248
sg21
(lp2249
g2243
ag2244
ag2245
aS'theres'
p2250
ag50
aS'picture'
p2251
aS'of'
p2252
aS'sterling'
p2253
aS'on'
p2254
aS'the'
p2255
aS'internet'
p2256
ag148
asg30
(lp2257
g2250
ag50
ag2251
ag2252
ag2253
ag2254
ag2255
ag2256
ag148
asba(iMeme
Meme
p2258
(dp2259
g3
(lp2260
S'hey'
p2261
aS'guys'
p2262
aS'did'
p2263
aS'you'
p2264
aS'hear'
p2265
aS'about'
p2266
aS'that'
p2267
aS'dead'
p2268
aS'singer'
p2269
ag105
asg15
S'hey guys did you hear about that dead singer?'
p2270
sg17
S' r.i.p. elvis'
p2271
sg19
Vslowpoke
p2272
sg21
(lp2273
g2261
ag2262
ag2263
ag2264
ag2265
ag2266
ag2267
ag2268
ag2269
ag105
aS'r.i.p'
p2274
ag204
aS'elvis'
p2275
asg30
(lp2276
g2274
ag204
ag2275
asba(iMeme
Meme
p2277
(dp2278
g3
(lp2279
S'just'
p2280
aS'saw'
p2281
aS'the'
p2282
aS'hunger'
p2283
aS'games'
p2284
asg15
S'just saw the hunger games'
p2285
sg17
S' awesome movie!'
p2286
sg19
Vslowpoke
p2287
sg21
(lp2288
g2280
ag2281
ag2282
ag2283
ag2284
aS'awesome'
p2289
aS'movie'
p2290
ag148
asg30
(lp2291
g2289
ag2290
ag148
asba(iMeme
Meme
p2292
(dp2293
g3
(lp2294
S'whos'
p2295
aS'sopa'
p2296
ag105
asg15
S'whos sopa?'
p2297
sg17
S' i thought norton protected me from the internet.'
p2298
sg19
Vslowpoke
p2299
sg21
(lp2300
g2295
ag2296
ag105
ag896
aS'thought'
p2301
aS'norton'
p2302
aS'protected'
p2303
aS'me'
p2304
aS'from'
p2305
aS'the'
p2306
aS'internet'
p2307
ag204
asg30
(lp2308
g896
ag2301
ag2302
ag2303
ag2304
ag2305
ag2306
ag2307
ag204
asba(iMeme
Meme
p2309
(dp2310
g3
(lp2311
S'hey'
p2312
asg15
S'hey'
p2313
sg17
S' you guys hear??'
p2314
sg19
Vslowpoke
p2315
sg21
(lp2316
g2312
aS'you'
p2317
aS'guys'
p2318
aS'hear'
p2319
ag105
ag105
asg30
(lp2320
g2317
ag2318
ag2319
ag105
ag105
asba(iMeme
Meme
p2321
(dp2322
g3
(lp2323
S'merry'
p2324
aS'christmas'
p2325
asg15
S'merry christmas'
p2326
sg17
S' and a happy new year!'
p2327
sg19
Vslowpoke
p2328
sg21
(lp2329
g2324
ag2325
aS'and'
p2330
ag50
aS'happy'
p2331
aS'new'
p2332
aS'year'
p2333
ag148
asg30
(lp2334
g2330
ag50
ag2331
ag2332
ag2333
ag148
asba(iMeme
Meme
p2335
(dp2336
g3
(lp2337
S'did'
p2338
aS'you'
p2339
aS'guys'
p2340
aS'hear'
p2341
aS'about'
p2342
aS'ryan'
p2343
aS'dunn'
p2344
asg15
S'did you guys hear about ryan dunn'
p2345
sg17
g1419
sg19
Vslowpoke
p2346
sg21
(lp2347
g2338
ag2339
ag2340
ag2341
ag2342
ag2343
ag2344
asg30
(lp2348
sba(iMeme
Meme
p2349
(dp2350
g3
(lp2351
S'hey'
p2352
aS'guys'
p2353
asg15
S'hey guys'
p2354
sg17
S' your contract would be prolongued today but were not going to'
p2355
sg19
Vslowpoke
p2356
sg21
(lp2357
g2352
ag2353
aS'your'
p2358
aS'contract'
p2359
aS'would'
p2360
aS'be'
p2361
aS'prolongued'
p2362
aS'today'
p2363
aS'but'
p2364
aS'were'
p2365
aS'not'
p2366
aS'going'
p2367
aS'to'
p2368
asg30
(lp2369
g2358
ag2359
ag2360
ag2361
ag2362
ag2363
ag2364
ag2365
ag2366
ag2367
ag2368
asba(iMeme
Meme
p2370
(dp2371
g3
(lp2372
g896
aS'just'
p2373
aS'found'
p2374
aS'this'
p2375
aS'new'
p2376
aS'site'
p2377
ag896
aS'like'
p2378
asg15
S'i just found this new site i like'
p2379
sg17
S' its called tumblr'
p2380
sg19
Vslowpoke
p2381
sg21
(lp2382
g896
ag2373
ag2374
ag2375
ag2376
ag2377
ag896
ag2378
aS'its'
p2383
aS'called'
p2384
aS'tumblr'
p2385
asg30
(lp2386
g2383
ag2384
ag2385
asba(iMeme
Meme
p2387
(dp2388
g3
(lp2389
S'christmas'
p2390
aS'soon'
p2391
asg15
S'christmas soon'
p2392
sg17
S' time to buy presents!'
p2393
sg19
Vslowpoke
p2394
sg21
(lp2395
g2390
ag2391
aS'time'
p2396
aS'to'
p2397
aS'buy'
p2398
aS'presents'
p2399
ag148
asg30
(lp2400
g2396
ag2397
ag2398
ag2399
ag148
asba(iMeme
Meme
p2401
(dp2402
g3
(lp2403
S'ian'
p2404
asg15
S'ian'
p2405
sg17
S' you have a facebook?!'
p2406
sg19
Vslowpoke
p2407
sg21
(lp2408
g2404
aS'you'
p2409
aS'have'
p2410
ag50
aS'facebook'
p2411
ag105
ag148
asg30
(lp2412
g2409
ag2410
ag50
ag2411
ag105
ag148
asba(iMeme
Meme
p2413
(dp2414
g3
(lp2415
S'hey'
p2416
aS'guys'
p2417
asg15
S'hey guys'
p2418
sg17
S' mizzou beat kansas'
p2419
sg19
Vslowpoke
p2420
sg21
(lp2421
g2416
ag2417
aS'mizzou'
p2422
aS'beat'
p2423
aS'kansas'
p2424
asg30
(lp2425
g2422
ag2423
ag2424
asba(iMeme
Meme
p2426
(dp2427
g3
(lp2428
S'you'
p2429
aS'already'
p2430
aS'heard'
p2431
aS'about'
p2432
aS'the'
p2433
aS'new'
p2434
aS'operating'
p2435
aS'system'
p2436
ag105
asg15
S'you already heard about the new operating system?'
p2437
sg17
S' its called windows vista'
p2438
sg19
Vslowpoke
p2439
sg21
(lp2440
g2429
ag2430
ag2431
ag2432
ag2433
ag2434
ag2435
ag2436
ag105
aS'its'
p2441
aS'called'
p2442
aS'windows'
p2443
aS'vista'
p2444
asg30
(lp2445
g2441
ag2442
ag2443
ag2444
asba(iMeme
Meme
p2446
(dp2447
g3
(lp2448
S'hey'
p2449
aS'guys'
p2450
asg15
S'hey guys'
p2451
sg17
S' are we spamming skylar with rarity?'
p2452
sg19
Vslowpoke
p2453
sg21
(lp2454
g2449
ag2450
aS'are'
p2455
aS'we'
p2456
aS'spamming'
p2457
aS'skylar'
p2458
aS'with'
p2459
aS'rarity'
p2460
ag105
asg30
(lp2461
g2455
ag2456
ag2457
ag2458
ag2459
ag2460
ag105
asba(iMeme
Meme
p2462
(dp2463
g3
(lp2464
S'did'
p2465
aS'you'
p2466
aS'know'
p2467
aS'that'
p2468
aS'megaupload'
p2469
aS'is'
p2470
aS'down'
p2471
ag105
ag148
asg15
S'did you know that megaupload is down ?!'
p2472
sg17
S' omaagaad'
p2473
sg19
Vslowpoke
p2474
sg21
(lp2475
g2465
ag2466
ag2467
ag2468
ag2469
ag2470
ag2471
ag105
ag148
aS'omaagaad'
p2476
asg30
(lp2477
g2476
asba(iMeme
Meme
p2478
(dp2479
g3
(lp2480
S'hey'
p2481
aS'guys'
p2482
asg15
S'hey guys'
p2483
sg17
S' vgcats updated'
p2484
sg19
Vslowpoke
p2485
sg21
(lp2486
g2481
ag2482
aS'vgcats'
p2487
aS'updated'
p2488
asg30
(lp2489
g2487
ag2488
asba(iMeme
Meme
p2490
(dp2491
g3
(lp2492
S'did'
p2493
aS'you'
p2494
aS'here'
p2495
ag105
asg15
S'did you here?'
p2496
sg17
S' magicllama and moonshadow are siblings!'
p2497
sg19
Vslowpoke
p2498
sg21
(lp2499
g2493
ag2494
ag2495
ag105
aS'magicllama'
p2500
aS'and'
p2501
aS'moonshadow'
p2502
aS'are'
p2503
aS'siblings'
p2504
ag148
asg30
(lp2505
g2500
ag2501
ag2502
ag2503
ag2504
ag148
asba(iMeme
Meme
p2506
(dp2507
g3
(lp2508
S'im'
p2509
aS'36'
p2510
aS'years'
p2511
aS'old'
p2512
asg15
S'im 36 years old'
p2513
sg17
S' and what is this?'
p2514
sg19
Vslowpoke
p2515
sg21
(lp2516
g2509
ag2510
ag2511
ag2512
aS'and'
p2517
aS'what'
p2518
aS'is'
p2519
aS'this'
p2520
ag105
asg30
(lp2521
g2517
ag2518
ag2519
ag2520
ag105
asba(iMeme
Meme
p2522
(dp2523
g3
(lp2524
S'torres'
p2525
aS'plays'
p2526
aS'russian'
p2527
aS'roulette'
p2528
aS'with'
p2529
ag389
aS'bullets6'
p2530
aS'bullets'
p2531
asg15
S'torres plays russian roulette with 6 bullets6 bullets'
p2532
sg17
S' misses'
p2533
sg19
Vslowpoke
p2534
sg21
(lp2535
g2525
ag2526
ag2527
ag2528
ag2529
ag389
ag2530
ag2531
aS'misses'
p2536
asg30
(lp2537
g2536
asba(iMeme
Meme
p2538
(dp2539
g3
(lp2540
S'hey'
p2541
aS'guys'
p2542
asg15
S'hey guys'
p2543
sg17
S' did you hear about that new blockmixing tool?  its called challenge edit!'
p2544
sg19
Vslowpoke
p2545
sg21
(lp2546
g2541
ag2542
aS'did'
p2547
aS'you'
p2548
aS'hear'
p2549
aS'about'
p2550
aS'that'
p2551
aS'new'
p2552
aS'blockmixing'
p2553
aS'tool'
p2554
ag105
aS'its'
p2555
aS'called'
p2556
aS'challenge'
p2557
aS'edit'
p2558
ag148
asg30
(lp2559
g2547
ag2548
ag2549
ag2550
ag2551
ag2552
ag2553
ag2554
ag105
ag2555
ag2556
ag2557
ag2558
ag148
asba(iMeme
Meme
p2560
(dp2561
g3
(lp2562
S'did'
p2563
aS'you'
p2564
aS'hear'
p2565
aS'about'
p2566
aS'the'
p2567
aS'new'
p2568
aS'vegetable'
p2569
ag105
asg15
S'did you hear about the new vegetable?'
p2570
sg17
S' now my fries with ketchup is healthy!'
p2571
sg19
Vslowpoke
p2572
sg21
(lp2573
g2563
ag2564
ag2565
ag2566
ag2567
ag2568
ag2569
ag105
aS'now'
p2574
aS'my'
p2575
aS'fries'
p2576
aS'with'
p2577
aS'ketchup'
p2578
aS'is'
p2579
aS'healthy'
p2580
ag148
asg30
(lp2581
g2574
ag2575
ag2576
ag2577
ag2578
ag2579
ag2580
ag148
asba(iMeme
Meme
p2582
(dp2583
g3
(lp2584
S'shocking'
p2585
aS'news'
p2586
asg15
S'shocking news'
p2587
sg17
S' steve irwin is dead'
p2588
sg19
Vslowpoke
p2589
sg21
(lp2590
g2585
ag2586
aS'steve'
p2591
aS'irwin'
p2592
aS'is'
p2593
aS'dead'
p2594
asg30
(lp2595
g2591
ag2592
ag2593
ag2594
asba(iMeme
Meme
p2596
(dp2597
g3
(lp2598
S'whoa'
p2599
aS'guys'
p2600
asg15
S'whoa guys'
p2601
sg17
S' i found out the joseon dynasty fell'
p2602
sg19
Vslowpoke
p2603
sg21
(lp2604
g2599
ag2600
ag896
aS'found'
p2605
aS'out'
p2606
aS'the'
p2607
aS'joseon'
p2608
aS'dynasty'
p2609
aS'fell'
p2610
asg30
(lp2611
g896
ag2605
ag2606
ag2607
ag2608
ag2609
ag2610
asba(iMeme
Meme
p2612
(dp2613
g3
(lp2614
S'do'
p2615
aS'you'
p2616
aS'know'
p2617
aS'what'
p2618
aS'the'
p2619
aS'most'
p2620
aS'popular'
p2621
aS'social'
p2622
aS'networking'
p2623
aS'site'
p2624
aS'is'
p2625
aS'now'
p2626
ag105
asg15
S'do you know what the most popular social networking site is now?'
p2627
sg17
S' thats right! its myspace.'
p2628
sg19
Vslowpoke
p2629
sg21
(lp2630
g2615
ag2616
ag2617
ag2618
ag2619
ag2620
ag2621
ag2622
ag2623
ag2624
ag2625
ag2626
ag105
aS'thats'
p2631
aS'right'
p2632
ag148
aS'its'
p2633
aS'myspace'
p2634
ag204
asg30
(lp2635
g2631
ag2632
ag148
ag2633
ag2634
ag204
asba(iMeme
Meme
p2636
(dp2637
g3
(lp2638
S'hey'
p2639
aS'guys'
p2640
asg15
S'hey guys'
p2641
sg17
S' the powers out'
p2642
sg19
Vslowpoke
p2643
sg21
(lp2644
g2639
ag2640
aS'the'
p2645
aS'powers'
p2646
aS'out'
p2647
asg30
(lp2648
g2645
ag2646
ag2647
asba(iMeme
Meme
p2649
(dp2650
g3
(lp2651
S'hey'
p2652
aS'guys'
p2653
asg15
S'hey guys'
p2654
sg17
S' i heard about john bailes 2012'
p2655
sg19
Vslowpoke
p2656
sg21
(lp2657
g2652
ag2653
ag896
aS'heard'
p2658
aS'about'
p2659
aS'john'
p2660
aS'bailes'
p2661
aS'2012'
p2662
asg30
(lp2663
g896
ag2658
ag2659
ag2660
ag2661
ag2662
asba(iMeme
Meme
p2664
(dp2665
g3
(lp2666
S'hey'
p2667
aS'guys'
p2668
aS'did'
p2669
aS'you'
p2670
aS'hear'
p2671
asg15
S'hey guys did you hear'
p2672
sg17
S' the sga president was asked to resign'
p2673
sg19
Vslowpoke
p2674
sg21
(lp2675
g2667
ag2668
ag2669
ag2670
ag2671
aS'the'
p2676
aS'sga'
p2677
aS'president'
p2678
aS'was'
p2679
aS'asked'
p2680
aS'to'
p2681
aS'resign'
p2682
asg30
(lp2683
g2676
ag2677
ag2678
ag2679
ag2680
ag2681
ag2682
asba(iMeme
Meme
p2684
(dp2685
g3
(lp2686
S'hey'
p2687
aS'guys'
p2688
ag896
aS'won'
p2689
aS'the'
p2690
aS'lotto'
p2691
ag148
asg15
S'hey guys i won the lotto!'
p2692
sg17
S' april fools!!!'
p2693
sg19
Vslowpoke
p2694
sg21
(lp2695
g2687
ag2688
ag896
ag2689
ag2690
ag2691
ag148
aS'april'
p2696
aS'fools'
p2697
ag148
ag148
ag148
asg30
(lp2698
g2696
ag2697
ag148
ag148
ag148
asba(iMeme
Meme
p2699
(dp2700
g3
(lp2701
S'hey'
p2702
aS'guys'
p2703
asg15
S'hey guys'
p2704
sg17
S' i heard that this thread.'
p2705
sg19
Vslowpoke
p2706
sg21
(lp2707
g2702
ag2703
ag896
aS'heard'
p2708
aS'that'
p2709
aS'this'
p2710
aS'thread'
p2711
ag204
asg30
(lp2712
g896
ag2708
ag2709
ag2710
ag2711
ag204
asba(iMeme
Meme
p2713
(dp2714
g3
(lp2715
S'fucking'
p2716
aS'ape'
p2717
aS'president'
p2718
asg15
S'fucking ape president'
p2719
sg17
S' he cant just take our slaves'
p2720
sg19
Vslowpoke
p2721
sg21
(lp2722
g2716
ag2717
ag2718
aS'he'
p2723
aS'cant'
p2724
aS'just'
p2725
aS'take'
p2726
aS'our'
p2727
aS'slaves'
p2728
asg30
(lp2729
g2723
ag2724
ag2725
ag2726
ag2727
ag2728
asba(iMeme
Meme
p2730
(dp2731
g3
(lp2732
S'hey'
p2733
aS'guys'
p2734
ag148
aS'guess'
p2735
aS'what'
p2736
ag105
asg15
S'hey guys! guess what?'
p2737
sg17
S' i just beat tabuu on ssbb!'
p2738
sg19
Vslowpoke
p2739
sg21
(lp2740
g2733
ag2734
ag148
ag2735
ag2736
ag105
ag896
aS'just'
p2741
aS'beat'
p2742
aS'tabuu'
p2743
aS'on'
p2744
aS'ssbb'
p2745
ag148
asg30
(lp2746
g896
ag2741
ag2742
ag2743
ag2744
ag2745
ag148
asba(iMeme
Meme
p2747
(dp2748
g3
(lp2749
S'qued'
p2750
aS'la'
p2751
aS'caga'
p2752
asg15
S'qued la caga'
p2753
sg17
S' con el semda'
p2754
sg19
Vslowpoke
p2755
sg21
(lp2756
g2750
ag2751
ag2752
aS'con'
p2757
aS'el'
p2758
aS'semda'
p2759
asg30
(lp2760
g2757
ag2758
ag2759
asba(iMeme
Meme
p2761
(dp2762
g3
(lp2763
S'hey'
p2764
aS'guys'
p2765
asg15
S'hey guys'
p2766
sg17
S' cats scare creepers'
p2767
sg19
Vslowpoke
p2768
sg21
(lp2769
g2764
ag2765
aS'cats'
p2770
aS'scare'
p2771
aS'creepers'
p2772
asg30
(lp2773
g2770
ag2771
ag2772
asba(iMeme
Meme
p2774
(dp2775
g3
(lp2776
S'did'
p2777
aS'you'
p2778
aS'hear'
p2779
ag105
aS'new'
p2780
aS'elder'
p2781
aS'scrolls'
p2782
aS'came'
p2783
aS'out'
p2784
ag148
asg15
S'did you hear? new elder scrolls came out!'
p2785
sg17
S' i'
p2786
sg19
Vslowpoke
p2787
sg21
(lp2788
g2777
ag2778
ag2779
ag105
ag2780
ag2781
ag2782
ag2783
ag2784
ag148
ag896
asg30
(lp2789
g896
asba(iMeme
Meme
p2790
(dp2791
g3
(lp2792
S'hey'
p2793
aS'guys'
p2794
ag148
asg15
S'hey guys!'
p2795
sg17
S' there is a secret area under submissions!'
p2796
sg19
Vslowpoke
p2797
sg21
(lp2798
g2793
ag2794
ag148
aS'there'
p2799
aS'is'
p2800
ag50
aS'secret'
p2801
aS'area'
p2802
aS'under'
p2803
aS'submissions'
p2804
ag148
asg30
(lp2805
g2799
ag2800
ag50
ag2801
ag2802
ag2803
ag2804
ag148
asba(iMeme
Meme
p2806
(dp2807
g3
(lp2808
S'hey'
p2809
aS'guys'
p2810
asg15
S'hey guys'
p2811
sg17
S' did you know mila kunis is meg?'
p2812
sg19
Vslowpoke
p2813
sg21
(lp2814
g2809
ag2810
aS'did'
p2815
aS'you'
p2816
aS'know'
p2817
aS'mila'
p2818
aS'kunis'
p2819
aS'is'
p2820
aS'meg'
p2821
ag105
asg30
(lp2822
g2815
ag2816
ag2817
ag2818
ag2819
ag2820
ag2821
ag105
asba(iMeme
Meme
p2823
(dp2824
g3
(lp2825
S'hey'
p2826
aS'did'
p2827
aS'you'
p2828
aS'hear'
p2829
ag105
asg15
S'hey did you hear?'
p2830
sg17
S' mw2 came out!'
p2831
sg19
Vslowpoke
p2832
sg21
(lp2833
g2826
ag2827
ag2828
ag2829
ag105
aS'mw2'
p2834
aS'came'
p2835
aS'out'
p2836
ag148
asg30
(lp2837
g2834
ag2835
ag2836
ag148
asba(iMeme
Meme
p2838
(dp2839
g3
(lp2840
S'did'
p2841
aS'you'
p2842
aS'hear'
p2843
aS'heather'
p2844
aS'is'
p2845
aS'having'
p2846
ag50
aS'party'
p2847
ag105
asg15
S'did you hear heather is having a party?'
p2848
sg17
S' happy 21st b'
p2849
sg19
Vslowpoke
p2850
sg21
(lp2851
g2841
ag2842
ag2843
ag2844
ag2845
ag2846
ag50
ag2847
ag105
aS'happy'
p2852
aS'21st'
p2853
aS'b'
p2854
asg30
(lp2855
g2852
ag2853
ag2854
asba(iMeme
Meme
p2856
(dp2857
g3
(lp2858
S'jajaja'
p2859
asg15
S'jajaja'
p2860
sg17
S' es que no podi decir marepoto po wn'
p2861
sg19
Vslowpoke
p2862
sg21
(lp2863
g2859
aS'es'
p2864
aS'que'
p2865
aS'no'
p2866
aS'podi'
p2867
aS'decir'
p2868
aS'marepoto'
p2869
aS'po'
p2870
aS'wn'
p2871
asg30
(lp2872
g2864
ag2865
ag2866
ag2867
ag2868
ag2869
ag2870
ag2871
asba(iMeme
Meme
p2873
(dp2874
g3
(lp2875
S'did'
p2876
aS'you'
p2877
aS'hear'
p2878
ag105
asg15
S'did you hear?'
p2879
sg17
S' magicllama and moonshadow are siblings!'
p2880
sg19
Vslowpoke
p2881
sg21
(lp2882
g2876
ag2877
ag2878
ag105
aS'magicllama'
p2883
aS'and'
p2884
aS'moonshadow'
p2885
aS'are'
p2886
aS'siblings'
p2887
ag148
asg30
(lp2888
g2883
ag2884
ag2885
ag2886
ag2887
ag148
asba(iMeme
Meme
p2889
(dp2890
g3
(lp2891
S'hey'
p2892
aS'guies'
p2893
aS'did'
p2894
aS'you'
p2895
aS'hear'
p2896
asg15
S'hey guies did you hear'
p2897
sg17
S' lmr is having a contest'
p2898
sg19
Vslowpoke
p2899
sg21
(lp2900
g2892
ag2893
ag2894
ag2895
ag2896
aS'lmr'
p2901
aS'is'
p2902
aS'having'
p2903
ag50
aS'contest'
p2904
asg30
(lp2905
g2901
ag2902
ag2903
ag50
ag2904
asba(iMeme
Meme
p2906
(dp2907
g3
(lp2908
S'did'
p2909
aS'you'
p2910
aS'hear'
p2911
aS'steve'
p2912
aS'jobs'
p2913
aS'has'
p2914
aS'cancer'
p2915
ag105
asg15
S'did you hear steve jobs has cancer?'
p2916
sg17
S' he owns apple'
p2917
sg19
Vslowpoke
p2918
sg21
(lp2919
g2909
ag2910
ag2911
ag2912
ag2913
ag2914
ag2915
ag105
aS'he'
p2920
aS'owns'
p2921
aS'apple'
p2922
asg30
(lp2923
g2920
ag2921
ag2922
asba(iMeme
Meme
p2924
(dp2925
g3
(lp2926
S'to'
p2927
aS'you'
p2928
asg15
S'to you'
p2929
sg17
S' a merry christmas'
p2930
sg19
Vslowpoke
p2931
sg21
(lp2932
g2927
ag2928
ag50
aS'merry'
p2933
aS'christmas'
p2934
asg30
(lp2935
g50
ag2933
ag2934
asba(iMeme
Meme
p2936
(dp2937
g3
(lp2938
S'we'
p2939
aS'have'
p2940
aS'letters'
p2941
aS'left'
p2942
asg15
S'we have letters left'
p2943
sg17
S' were going to play sparkle'
p2944
sg19
Vslowpoke
p2945
sg21
(lp2946
g2939
ag2940
ag2941
ag2942
aS'were'
p2947
aS'going'
p2948
aS'to'
p2949
aS'play'
p2950
aS'sparkle'
p2951
asg30
(lp2952
g2947
ag2948
ag2949
ag2950
ag2951
asba(iMeme
Meme
p2953
(dp2954
g3
(lp2955
S'me'
p2956
aS'mad'
p2957
ag122
aS'o'
p2958
ag105
asg15
S'me mad :o?'
p2959
sg17
S' nope'
p2960
sg19
Vslowpoke
p2961
sg21
(lp2962
g2956
ag2957
ag122
ag2958
ag105
aS'nope'
p2963
asg30
(lp2964
g2963
asba(iMeme
Meme
p2965
(dp2966
g3
(lp2967
S'hey'
p2968
aS'guys'
p2969
asg15
S'hey guys'
p2970
sg17
S' looks like lunch plans are being made in the chat'
p2971
sg19
Vslowpoke
p2972
sg21
(lp2973
g2968
ag2969
aS'looks'
p2974
aS'like'
p2975
aS'lunch'
p2976
aS'plans'
p2977
aS'are'
p2978
aS'being'
p2979
aS'made'
p2980
aS'in'
p2981
aS'the'
p2982
aS'chat'
p2983
asg30
(lp2984
g2974
ag2975
ag2976
ag2977
ag2978
ag2979
ag2980
ag2981
ag2982
ag2983
asba(iMeme
Meme
p2985
(dp2986
g3
(lp2987
S'ive'
p2988
aS'decided'
p2989
asg15
S'ive decided'
p2990
sg17
S' i support gay marriage'
p2991
sg19
Vslowpoke
p2992
sg21
(lp2993
g2988
ag2989
ag896
aS'support'
p2994
aS'gay'
p2995
aS'marriage'
p2996
asg30
(lp2997
g896
ag2994
ag2995
ag2996
asba(iMeme
Meme
p2998
(dp2999
g3
(lp3000
S'have'
p3001
aS'you'
p3002
aS'heard'
p3003
ag105
asg15
S'have you heard?'
p3004
sg17
S' maxmoefoe passed 30'
p3005
sg19
Vslowpoke
p3006
sg21
(lp3007
g3001
ag3002
ag3003
ag105
aS'maxmoefoe'
p3008
aS'passed'
p3009
aS'30'
p3010
asg30
(lp3011
g3008
ag3009
ag3010
asba(iMeme
Meme
p3012
(dp3013
g3
(lp3014
S'hey'
p3015
aS'guys'
p3016
asg15
S'hey guys'
p3017
sg17
S' did you hear that newcastle won stan calvert?'
p3018
sg19
Vslowpoke
p3019
sg21
(lp3020
g3015
ag3016
aS'did'
p3021
aS'you'
p3022
aS'hear'
p3023
aS'that'
p3024
aS'newcastle'
p3025
aS'won'
p3026
aS'stan'
p3027
aS'calvert'
p3028
ag105
asg30
(lp3029
g3021
ag3022
ag3023
ag3024
ag3025
ag3026
ag3027
ag3028
ag105
asba(iMeme
Meme
p3030
(dp3031
g3
(lp3032
S'hey'
p3033
aS'guys'
p3034
asg15
S'hey guys'
p3035
sg17
S' did you hear?'
p3036
sg19
Vslowpoke
p3037
sg21
(lp3038
g3033
ag3034
aS'did'
p3039
aS'you'
p3040
aS'hear'
p3041
ag105
asg30
(lp3042
g3039
ag3040
ag3041
ag105
asba(iMeme
Meme
p3043
(dp3044
g3
(lp3045
S'adrian'
p3046
asg15
S'adrian'
p3047
sg17
S' lived in illinois!'
p3048
sg19
Vslowpoke
p3049
sg21
(lp3050
g3046
aS'lived'
p3051
aS'in'
p3052
aS'illinois'
p3053
ag148
asg30
(lp3054
g3051
ag3052
ag3053
ag148
asba(iMeme
Meme
p3055
(dp3056
g3
(lp3057
S'hey'
p3058
aS'guys'
p3059
aS'guess'
p3060
aS'what'
p3061
ag105
ag148
ag105
ag148
asg15
S'hey guys guess what?!?!'
p3062
sg17
S' you can post comments on pictures!'
p3063
sg19
Vslowpoke
p3064
sg21
(lp3065
g3058
ag3059
ag3060
ag3061
ag105
ag148
ag105
ag148
aS'you'
p3066
aS'can'
p3067
aS'post'
p3068
aS'comments'
p3069
aS'on'
p3070
aS'pictures'
p3071
ag148
asg30
(lp3072
g3066
ag3067
ag3068
ag3069
ag3070
ag3071
ag148
asba(iMeme
Meme
p3073
(dp3074
g3
(lp3075
S'hey'
p3076
asg15
S'hey'
p3077
sg17
S' guys! did you hear?'
p3078
sg19
Vslowpoke
p3079
sg21
(lp3080
g3076
aS'guys'
p3081
ag148
aS'did'
p3082
aS'you'
p3083
aS'hear'
p3084
ag105
asg30
(lp3085
g3081
ag148
ag3082
ag3083
ag3084
ag105
asba(iMeme
Meme
p3086
(dp3087
g3
(lp3088
S'teach'
p3089
aS'nagoo'
p3090
aS'rockets'
p3091
asg15
S'teach nagoo rockets'
p3092
sg17
S' cause commotion'
p3093
sg19
Vslowpoke
p3094
sg21
(lp3095
g3089
ag3090
ag3091
aS'cause'
p3096
aS'commotion'
p3097
asg30
(lp3098
g3096
ag3097
asba(iMeme
Meme
p3099
(dp3100
g3
(lp3101
S'congratulations'
p3102
aS'kali'
p3103
asg15
S'congratulations kali'
p3104
sg17
S' happy 24th birthday!'
p3105
sg19
Vslowpoke
p3106
sg21
(lp3107
g3102
ag3103
aS'happy'
p3108
aS'24th'
p3109
aS'birthday'
p3110
ag148
asg30
(lp3111
g3108
ag3109
ag3110
ag148
asba(iMeme
Meme
p3112
(dp3113
g3
(lp3114
S'hey'
p3115
asg15
S'hey'
p3116
sg17
S' wanna see my penis :d'
p3117
sg19
Vslowpoke
p3118
sg21
(lp3119
g3115
aS'wan'
p3120
aS'na'
p3121
aS'see'
p3122
aS'my'
p3123
aS'penis'
p3124
ag122
aS'd'
p3125
asg30
(lp3126
g3120
ag3121
ag3122
ag3123
ag3124
ag122
ag3125
asba(iMeme
Meme
p3127
(dp3128
g3
(lp3129
S'hey'
p3130
aS'guys'
p3131
aS'did'
p3132
aS'you'
p3133
aS'hear'
p3134
ag105
asg15
S'hey guys did you hear?'
p3135
sg17
S' theres no portfolio today.'
p3136
sg19
Vslowpoke
p3137
sg21
(lp3138
g3130
ag3131
ag3132
ag3133
ag3134
ag105
aS'theres'
p3139
aS'no'
p3140
aS'portfolio'
p3141
aS'today'
p3142
ag204
asg30
(lp3143
g3139
ag3140
ag3141
ag3142
ag204
asba(iMeme
Meme
p3144
(dp3145
g3
(lp3146
S'hey'
p3147
aS'guys..'
p3148
asg15
S'hey guys..'
p3149
sg17
S' norway is out of butter!'
p3150
sg19
Vslowpoke
p3151
sg21
(lp3152
g3147
ag3148
aS'norway'
p3153
aS'is'
p3154
aS'out'
p3155
aS'of'
p3156
aS'butter'
p3157
ag148
asg30
(lp3158
g3153
ag3154
ag3155
ag3156
ag3157
ag148
asba(iMeme
Meme
p3159
(dp3160
g3
(lp3161
S'im'
p3162
aS'shocked'
p3163
asg15
S'im shocked'
p3164
sg17
S' brett favre is no longer a packer!'
p3165
sg19
Vslowpoke
p3166
sg21
(lp3167
g3162
ag3163
aS'brett'
p3168
aS'favre'
p3169
aS'is'
p3170
aS'no'
p3171
aS'longer'
p3172
ag50
aS'packer'
p3173
ag148
asg30
(lp3174
g3168
ag3169
ag3170
ag3171
ag3172
ag50
ag3173
ag148
asba(iMeme
Meme
p3175
(dp3176
g3
(lp3177
S'hey'
p3178
aS'did'
p3179
aS'you'
p3180
aS'guys'
p3181
aS'hear'
p3182
ag148
ag105
asg15
S'hey did you guys hear!?'
p3183
sg17
S' czar f**cked the site up!'
p3184
sg19
Vslowpoke
p3185
sg21
(lp3186
g3178
ag3179
ag3180
ag3181
ag3182
ag148
ag105
aS'czar'
p3187
aS'f**cked'
p3188
aS'the'
p3189
aS'site'
p3190
aS'up'
p3191
ag148
asg30
(lp3192
g3187
ag3188
ag3189
ag3190
ag3191
ag148
asba(iMeme
Meme
p3193
(dp3194
g3
(lp3195
S'hey'
p3196
aS'ben'
p3197
asg15
S'hey ben'
p3198
sg17
S' check out this meme'
p3199
sg19
Vslowpoke
p3200
sg21
(lp3201
g3196
ag3197
aS'check'
p3202
aS'out'
p3203
aS'this'
p3204
aS'meme'
p3205
asg30
(lp3206
g3202
ag3203
ag3204
ag3205
asba(iMeme
Meme
p3207
(dp3208
g3
(lp3209
S'hey'
p3210
aS'guys'
p3211
asg15
S'hey guys'
p3212
sg17
S' there is a great lmfao cover'
p3213
sg19
Vslowpoke
p3214
sg21
(lp3215
g3210
ag3211
aS'there'
p3216
aS'is'
p3217
ag50
aS'great'
p3218
aS'lmfao'
p3219
aS'cover'
p3220
asg30
(lp3221
g3216
ag3217
ag50
ag3218
ag3219
ag3220
asba(iMeme
Meme
p3222
(dp3223
g3
(lp3224
S'so'
p3225
aS'did'
p3226
aS'you'
p3227
aS'guys'
p3228
aS'hear'
p3229
aS'about'
p3230
aS'that'
p3231
aS'dead'
p3232
aS'singer'
p3233
ag105
asg15
S'so did you guys hear about that dead singer?'
p3234
sg17
S' r.i.p. elvis'
p3235
sg19
Vslowpoke
p3236
sg21
(lp3237
g3225
ag3226
ag3227
ag3228
ag3229
ag3230
ag3231
ag3232
ag3233
ag105
aS'r.i.p'
p3238
ag204
aS'elvis'
p3239
asg30
(lp3240
g3238
ag204
ag3239
asba(iMeme
Meme
p3241
(dp3242
g3
(lp3243
S'hey'
p3244
aS'guys'
p3245
asg15
S'hey guys'
p3246
sg17
S' i just noticed this'
p3247
sg19
Vslowpoke
p3248
sg21
(lp3249
g3244
ag3245
ag896
aS'just'
p3250
aS'noticed'
p3251
aS'this'
p3252
asg30
(lp3253
g896
ag3250
ag3251
ag3252
asba(iMeme
Meme
p3254
(dp3255
g3
(lp3256
S'wait'
p3257
asg15
S'wait'
p3258
sg17
S' should i be voting for something?'
p3259
sg19
Vslowpoke
p3260
sg21
(lp3261
g3257
aS'should'
p3262
ag896
aS'be'
p3263
aS'voting'
p3264
aS'for'
p3265
aS'something'
p3266
ag105
asg30
(lp3267
g3262
ag896
ag3263
ag3264
ag3265
ag3266
ag105
asba(iMeme
Meme
p3268
(dp3269
g3
(lp3270
S'hey'
p3271
aS'guys'
p3272
asg15
S'hey guys'
p3273
sg17
S' did you hear probst had a seizure'
p3274
sg19
Vslowpoke
p3275
sg21
(lp3276
g3271
ag3272
aS'did'
p3277
aS'you'
p3278
aS'hear'
p3279
aS'probst'
p3280
aS'had'
p3281
ag50
aS'seizure'
p3282
asg30
(lp3283
g3277
ag3278
ag3279
ag3280
ag3281
ag50
ag3282
asba(iMeme
Meme
p3284
(dp3285
g3
(lp3286
S'congrats'
p3287
asg15
S'congrats'
p3288
sg17
S' on the engagement'
p3289
sg19
Vslowpoke
p3290
sg21
(lp3291
g3287
aS'on'
p3292
aS'the'
p3293
aS'engagement'
p3294
asg30
(lp3295
g3292
ag3293
ag3294
asba(iMeme
Meme
p3296
(dp3297
g3
(lp3298
g896
aS'dont'
p3299
aS'understand'
p3300
asg15
S'i dont understand'
p3301
sg17
S' this new facebook format'
p3302
sg19
Vslowpoke
p3303
sg21
(lp3304
g896
ag3299
ag3300
aS'this'
p3305
aS'new'
p3306
aS'facebook'
p3307
aS'format'
p3308
asg30
(lp3309
g3305
ag3306
ag3307
ag3308
asba(iMeme
Meme
p3310
(dp3311
g3
(lp3312
S'did'
p3313
aS'you'
p3314
aS'hear'
p3315
aS'about'
p3316
aS'dick'
p3317
aS'clark'
p3318
ag105
asg15
S'did you hear about dick clark?'
p3319
sg17
S' i hope he survives the stroke'
p3320
sg19
Vslowpoke
p3321
sg21
(lp3322
g3313
ag3314
ag3315
ag3316
ag3317
ag3318
ag105
ag896
aS'hope'
p3323
aS'he'
p3324
aS'survives'
p3325
aS'the'
p3326
aS'stroke'
p3327
asg30
(lp3328
g896
ag3323
ag3324
ag3325
ag3326
ag3327
asba(iMeme
Meme
p3329
(dp3330
g3
(lp3331
S'hey'
p3332
aS'guys'
p3333
aS'the'
p3334
aS'ncaa'
p3335
aS'championship'
p3336
aS'is'
p3337
aS'on'
p3338
ag148
asg15
S'hey guys the ncaa championship is on!'
p3339
sg17
S' go unc!!!'
p3340
sg19
Vslowpoke
p3341
sg21
(lp3342
g3332
ag3333
ag3334
ag3335
ag3336
ag3337
ag3338
ag148
aS'go'
p3343
aS'unc'
p3344
ag148
ag148
ag148
asg30
(lp3345
g3343
ag3344
ag148
ag148
ag148
asba(iMeme
Meme
p3346
(dp3347
g3
(lp3348
S'did'
p3349
aS'you'
p3350
aS'hear'
p3351
ag105
asg15
S'did you hear?'
p3352
sg17
S' morrowind has a game of the year edition'
p3353
sg19
Vslowpoke
p3354
sg21
(lp3355
g3349
ag3350
ag3351
ag105
aS'morrowind'
p3356
aS'has'
p3357
ag50
aS'game'
p3358
aS'of'
p3359
aS'the'
p3360
aS'year'
p3361
aS'edition'
p3362
asg30
(lp3363
g3356
ag3357
ag50
ag3358
ag3359
ag3360
ag3361
ag3362
asba(iMeme
Meme
p3364
(dp3365
g3
(lp3366
S'hey'
p3367
aS'guys'
p3368
aS'did'
p3369
aS'you'
p3370
aS'hear'
p3371
asg15
S'hey guys did you hear'
p3372
sg17
S' this movie the divide looks pretty good'
p3373
sg19
Vslowpoke
p3374
sg21
(lp3375
g3367
ag3368
ag3369
ag3370
ag3371
aS'this'
p3376
aS'movie'
p3377
aS'the'
p3378
aS'divide'
p3379
aS'looks'
p3380
aS'pretty'
p3381
aS'good'
p3382
asg30
(lp3383
g3376
ag3377
ag3378
ag3379
ag3380
ag3381
ag3382
asba(iMeme
Meme
p3384
(dp3385
g3
(lp3386
S'hey'
p3387
aS'guise'
p3388
ag148
asg15
S'hey guise!'
p3389
sg17
S' winter is coming!'
p3390
sg19
Vslowpoke
p3391
sg21
(lp3392
g3387
ag3388
ag148
aS'winter'
p3393
aS'is'
p3394
aS'coming'
p3395
ag148
asg30
(lp3396
g3393
ag3394
ag3395
ag148
asba(iMeme
Meme
p3397
(dp3398
g3
(lp3399
S'hey'
p3400
aS'guys'
p3401
asg15
S'hey guys'
p3402
sg17
S' giants won the world series.'
p3403
sg19
Vslowpoke
p3404
sg21
(lp3405
g3400
ag3401
aS'giants'
p3406
aS'won'
p3407
aS'the'
p3408
aS'world'
p3409
aS'series'
p3410
ag204
asg30
(lp3411
g3406
ag3407
ag3408
ag3409
ag3410
ag204
asba(iMeme
Meme
p3412
(dp3413
g3
(lp3414
S'torres'
p3415
aS'walks'
p3416
aS'into'
p3417
ag50
aS'bar'
p3418
aS'and'
p3419
aS'asks'
p3420
aS'for'
p3421
ag50
aS'shot'
p3422
aS'of'
p3423
aS'vodka'
p3424
asg15
S'torres walks into a bar and asks for a shot of vodka'
p3425
sg17
S' misses'
p3426
sg19
Vslowpoke
p3427
sg21
(lp3428
g3415
ag3416
ag3417
ag50
ag3418
ag3419
ag3420
ag3421
ag50
ag3422
ag3423
ag3424
aS'misses'
p3429
asg30
(lp3430
g3429
asba(iMeme
Meme
p3431
(dp3432
g3
(lp3433
S'hey'
p3434
aS'gais'
p3435
aS'that'
p3436
aS'pop'
p3437
aS'singer'
p3438
aS'passed'
p3439
aS'away'
p3440
asg15
S'hey gais that pop singer passed away'
p3441
sg17
S' r.i.p. michael jackson'
p3442
sg19
Vslowpoke
p3443
sg21
(lp3444
g3434
ag3435
ag3436
ag3437
ag3438
ag3439
ag3440
aS'r.i.p'
p3445
ag204
aS'michael'
p3446
aS'jackson'
p3447
asg30
(lp3448
g3445
ag204
ag3446
ag3447
asba(iMeme
Meme
p3449
(dp3450
g3
(lp3451
S'hey'
p3452
aS'gais'
p3453
aS'that'
p3454
aS'pop'
p3455
aS'singer'
p3456
aS'passed'
p3457
aS'away'
p3458
asg15
S'hey gais that pop singer passed away'
p3459
sg17
S' r.i.p. michael jackson'
p3460
sg19
Vslowpoke
p3461
sg21
(lp3462
g3452
ag3453
ag3454
ag3455
ag3456
ag3457
ag3458
aS'r.i.p'
p3463
ag204
aS'michael'
p3464
aS'jackson'
p3465
asg30
(lp3466
g3463
ag204
ag3464
ag3465
asba(iMeme
Meme
p3467
(dp3468
g3
(lp3469
S'hey'
p3470
aS'guys'
p3471
aS'did'
p3472
aS'you'
p3473
aS'hear'
p3474
ag105
asg15
S'hey guys did you hear?'
p3475
sg17
S' super mario for the nes just came out!!!'
p3476
sg19
Vslowpoke
p3477
sg21
(lp3478
g3470
ag3471
ag3472
ag3473
ag3474
ag105
aS'super'
p3479
aS'mario'
p3480
aS'for'
p3481
aS'the'
p3482
aS'nes'
p3483
aS'just'
p3484
aS'came'
p3485
aS'out'
p3486
ag148
ag148
ag148
asg30
(lp3487
g3479
ag3480
ag3481
ag3482
ag3483
ag3484
ag3485
ag3486
ag148
ag148
ag148
asba(iMeme
Meme
p3488
(dp3489
g3
(lp3490
S'hey'
p3491
aS'guys'
p3492
asg15
S'hey guys'
p3493
sg17
S' did you know'
p3494
sg19
Vslowpoke
p3495
sg21
(lp3496
g3491
ag3492
aS'did'
p3497
aS'you'
p3498
aS'know'
p3499
asg30
(lp3500
g3497
ag3498
ag3499
asba(iMeme
Meme
p3501
(dp3502
g3
(lp3503
S'quedo'
p3504
aS'la'
p3505
aS'caga'
p3506
asg15
S'quedo la caga'
p3507
sg17
S' con el semda'
p3508
sg19
Vslowpoke
p3509
sg21
(lp3510
g3504
ag3505
ag3506
aS'con'
p3511
aS'el'
p3512
aS'semda'
p3513
asg30
(lp3514
g3511
ag3512
ag3513
asba(iMeme
Meme
p3515
(dp3516
g3
(lp3517
S'you'
p3518
aS'know'
p3519
aS'about'
p3520
aS'that'
p3521
aS'sucessful'
p3522
aS'black'
p3523
aS'guy'
p3524
aS'meme'
p3525
ag105
asg15
S'you know about that sucessful black guy meme?'
p3526
sg17
S' i just made one about him beating his family in a game.'
p3527
sg19
Vslowpoke
p3528
sg21
(lp3529
g3518
ag3519
ag3520
ag3521
ag3522
ag3523
ag3524
ag3525
ag105
ag896
aS'just'
p3530
aS'made'
p3531
aS'one'
p3532
aS'about'
p3533
aS'him'
p3534
aS'beating'
p3535
aS'his'
p3536
aS'family'
p3537
aS'in'
p3538
ag50
aS'game'
p3539
ag204
asg30
(lp3540
g896
ag3530
ag3531
ag3532
ag3533
ag3534
ag3535
ag3536
ag3537
ag3538
ag50
ag3539
ag204
asba(iMeme
Meme
p3541
(dp3542
g3
(lp3543
S'honey'
p3544
aS'badger'
p3545
asg15
S'honey badger'
p3546
sg17
S' dont care'
p3547
sg19
Vslowpoke
p3548
sg21
(lp3549
g3544
ag3545
aS'dont'
p3550
aS'care'
p3551
asg30
(lp3552
g3550
ag3551
asba(iMeme
Meme
p3553
(dp3554
g3
(lp3555
S'hey'
p3556
aS'guys'
p3557
asg15
S'hey guys'
p3558
sg17
S' have you seen this new meme?'
p3559
sg19
Vslowpoke
p3560
sg21
(lp3561
g3556
ag3557
aS'have'
p3562
aS'you'
p3563
aS'seen'
p3564
aS'this'
p3565
aS'new'
p3566
aS'meme'
p3567
ag105
asg30
(lp3568
g3562
ag3563
ag3564
ag3565
ag3566
ag3567
ag105
asba(iMeme
Meme
p3569
(dp3570
g3
(lp3571
S'man'
p3572
ag896
aS'knocked'
p3573
aS'up'
p3574
ag50
aS'girl'
p3575
aS'and'
p3576
aS'had'
p3577
aS'to'
p3578
aS'get'
p3579
aS'married'
p3580
asg15
S'man i knocked up a girl and had to get married'
p3581
sg17
S' new years was a crazy night'
p3582
sg19
Vslowpoke
p3583
sg21
(lp3584
g3572
ag896
ag3573
ag3574
ag50
ag3575
ag3576
ag3577
ag3578
ag3579
ag3580
aS'new'
p3585
aS'years'
p3586
aS'was'
p3587
ag50
aS'crazy'
p3588
aS'night'
p3589
asg30
(lp3590
g3585
ag3586
ag3587
ag50
ag3588
ag3589
asba(iMeme
Meme
p3591
(dp3592
g3
(lp3593
S'guys'
p3594
asg15
S'guys'
p3595
sg17
S' i think the earth might be round'
p3596
sg19
Vslowpoke
p3597
sg21
(lp3598
g3594
ag896
aS'think'
p3599
aS'the'
p3600
aS'earth'
p3601
aS'might'
p3602
aS'be'
p3603
aS'round'
p3604
asg30
(lp3605
g896
ag3599
ag3600
ag3601
ag3602
ag3603
ag3604
asba(iMeme
Meme
p3606
(dp3607
g3
(lp3608
S'there'
p3609
aS'are'
p3610
aS'151'
p3611
aS'pokemons'
p3612
aS'in'
p3613
aS'total'
p3614
asg15
S'there are 151 pokemons in total'
p3615
sg17
S' gotta catchem all!'
p3616
sg19
Vslowpoke
p3617
sg21
(lp3618
g3609
ag3610
ag3611
ag3612
ag3613
ag3614
aS'got'
p3619
aS'ta'
p3620
aS'catchem'
p3621
aS'all'
p3622
ag148
asg30
(lp3623
g3619
ag3620
ag3621
ag3622
ag148
asba(iMeme
Meme
p3624
(dp3625
g3
(lp3626
S'happy'
p3627
aS'birthday'
p3628
ag148
asg15
S'happy birthday!'
p3629
sg17
S' 17 years old! wow!'
p3630
sg19
Vslowpoke
p3631
sg21
(lp3632
g3627
ag3628
ag148
aS'17'
p3633
aS'years'
p3634
aS'old'
p3635
ag148
aS'wow'
p3636
ag148
asg30
(lp3637
g3633
ag3634
ag3635
ag148
ag3636
ag148
asba(iMeme
Meme
p3638
(dp3639
g3
(lp3640
S'onward'
p3641
aS'children'
p3642
aS'of'
p3643
aS'god'
p3644
ag148
asg15
S'onward children of god!'
p3645
sg17
S' resist the sparkling menace!'
p3646
sg19
Vslowpoke
p3647
sg21
(lp3648
g3641
ag3642
ag3643
ag3644
ag148
aS'resist'
p3649
aS'the'
p3650
aS'sparkling'
p3651
aS'menace'
p3652
ag148
asg30
(lp3653
g3649
ag3650
ag3651
ag3652
ag148
asba(iMeme
Meme
p3654
(dp3655
g3
(lp3656
S'hey'
p3657
aS'guys'
p3658
asg15
S'hey guys'
p3659
sg17
S' did you make a meme about the trees yet?'
p3660
sg19
Vslowpoke
p3661
sg21
(lp3662
g3657
ag3658
aS'did'
p3663
aS'you'
p3664
aS'make'
p3665
ag50
aS'meme'
p3666
aS'about'
p3667
aS'the'
p3668
aS'trees'
p3669
aS'yet'
p3670
ag105
asg30
(lp3671
g3663
ag3664
ag3665
ag50
ag3666
ag3667
ag3668
ag3669
ag3670
ag105
asba(iMeme
Meme
p3672
(dp3673
g3
(lp3674
S'did'
p3675
aS'you'
p3676
aS'hear'
p3677
asg15
S'did you hear'
p3678
sg17
S' wilty loves spiders!'
p3679
sg19
Vslowpoke
p3680
sg21
(lp3681
g3675
ag3676
ag3677
aS'wilty'
p3682
aS'loves'
p3683
aS'spiders'
p3684
ag148
asg30
(lp3685
g3682
ag3683
ag3684
ag148
asba(iMeme
Meme
p3686
(dp3687
g3
(lp3688
S'hey'
p3689
aS'guys'
p3690
aS'did'
p3691
aS'you'
p3692
aS'hear'
p3693
asg15
S'hey guys did you hear'
p3694
sg17
S' the sag president was asked to resign'
p3695
sg19
Vslowpoke
p3696
sg21
(lp3697
g3689
ag3690
ag3691
ag3692
ag3693
aS'the'
p3698
aS'sag'
p3699
aS'president'
p3700
aS'was'
p3701
aS'asked'
p3702
aS'to'
p3703
aS'resign'
p3704
asg30
(lp3705
g3698
ag3699
ag3700
ag3701
ag3702
ag3703
ag3704
asba(iMeme
Meme
p3706
(dp3707
g3
(lp3708
S'hey'
p3709
aS'nolan'
p3710
asg15
S'hey nolan'
p3711
sg17
S' why u so slowbro?'
p3712
sg19
Vslowpoke
p3713
sg21
(lp3714
g3709
ag3710
aS'why'
p3715
ag1283
aS'so'
p3716
aS'slowbro'
p3717
ag105
asg30
(lp3718
g3715
ag1283
ag3716
ag3717
ag105
asba(iMeme
Meme
p3719
(dp3720
g3
(lp3721
S'hey'
p3722
aS'guys'
p3723
asg15
S'hey guys'
p3724
sg17
S' did you hear?'
p3725
sg19
Vslowpoke
p3726
sg21
(lp3727
g3722
ag3723
aS'did'
p3728
aS'you'
p3729
aS'hear'
p3730
ag105
asg30
(lp3731
g3728
ag3729
ag3730
ag105
asba(iMeme
Meme
p3732
(dp3733
g3
(lp3734
S'hey'
p3735
aS'guys'
p3736
asg15
S'hey guys'
p3737
sg17
S' did you hear that vaccines cause autism'
p3738
sg19
Vslowpoke
p3739
sg21
(lp3740
g3735
ag3736
aS'did'
p3741
aS'you'
p3742
aS'hear'
p3743
aS'that'
p3744
aS'vaccines'
p3745
aS'cause'
p3746
aS'autism'
p3747
asg30
(lp3748
g3741
ag3742
ag3743
ag3744
ag3745
ag3746
ag3747
asba(iMeme
Meme
p3749
(dp3750
g3
(lp3751
S'hey'
p3752
aS'guys'
p3753
asg15
S'hey guys'
p3754
sg17
S' loreen won'
p3755
sg19
Vslowpoke
p3756
sg21
(lp3757
g3752
ag3753
aS'loreen'
p3758
aS'won'
p3759
asg30
(lp3760
g3758
ag3759
asba(iMeme
Meme
p3761
(dp3762
g3
(lp3763
S'hey'
p3764
aS'guys'
p3765
asg15
S'hey guys'
p3766
sg17
S' did you hear?'
p3767
sg19
Vslowpoke
p3768
sg21
(lp3769
g3764
ag3765
aS'did'
p3770
aS'you'
p3771
aS'hear'
p3772
ag105
asg30
(lp3773
g3770
ag3771
ag3772
ag105
asba(iMeme
Meme
p3774
(dp3775
g3
(lp3776
S'what'
p3777
ag105
aS'michael'
p3778
aS'jackson'
p3779
aS'died'
p3780
ag105
asg15
S'what? michael jackson died?'
p3781
sg17
S' time to become whitney houston fan'
p3782
sg19
Vslowpoke
p3783
sg21
(lp3784
g3777
ag105
ag3778
ag3779
ag3780
ag105
aS'time'
p3785
aS'to'
p3786
aS'become'
p3787
aS'whitney'
p3788
aS'houston'
p3789
aS'fan'
p3790
asg30
(lp3791
g3785
ag3786
ag3787
ag3788
ag3789
ag3790
asba(iMeme
Meme
p3792
(dp3793
g3
(lp3794
S'did'
p3795
aS'you'
p3796
aS'hear'
p3797
aS'about'
p3798
aS'sweaters'
p3799
ag105
asg15
S'did you hear about sweaters?'
p3800
sg17
S' they can be laptop sleeves!'
p3801
sg19
Vslowpoke
p3802
sg21
(lp3803
g3795
ag3796
ag3797
ag3798
ag3799
ag105
aS'they'
p3804
aS'can'
p3805
aS'be'
p3806
aS'laptop'
p3807
aS'sleeves'
p3808
ag148
asg30
(lp3809
g3804
ag3805
ag3806
ag3807
ag3808
ag148
asba(iMeme
Meme
p3810
(dp3811
g3
(lp3812
S'hey'
p3813
aS'guys'
p3814
ag148
asg15
S'hey guys!'
p3815
sg17
S' the packers won the superbowl!'
p3816
sg19
Vslowpoke
p3817
sg21
(lp3818
g3813
ag3814
ag148
aS'the'
p3819
aS'packers'
p3820
aS'won'
p3821
aS'the'
p3822
aS'superbowl'
p3823
ag148
asg30
(lp3824
g3819
ag3820
ag3821
ag3822
ag3823
ag148
asba(iMeme
Meme
p3825
(dp3826
g3
(lp3827
S'happy'
p3828
aS'birthday'
p3829
asg15
S'happy birthday'
p3830
sg17
S' 20 is a big year!'
p3831
sg19
Vslowpoke
p3832
sg21
(lp3833
g3828
ag3829
aS'20'
p3834
aS'is'
p3835
ag50
aS'big'
p3836
aS'year'
p3837
ag148
asg30
(lp3838
g3834
ag3835
ag50
ag3836
ag3837
ag148
asba(iMeme
Meme
p3839
(dp3840
g3
(lp3841
S'hey'
p3842
aS'guys'
p3843
asg15
S'hey guys'
p3844
sg17
S' did you make a meme about the trees yet?'
p3845
sg19
Vslowpoke
p3846
sg21
(lp3847
g3842
ag3843
aS'did'
p3848
aS'you'
p3849
aS'make'
p3850
ag50
aS'meme'
p3851
aS'about'
p3852
aS'the'
p3853
aS'trees'
p3854
aS'yet'
p3855
ag105
asg30
(lp3856
g3848
ag3849
ag3850
ag50
ag3851
ag3852
ag3853
ag3854
ag3855
ag105
asba(iMeme
Meme
p3857
(dp3858
g3
(lp3859
S'hey'
p3860
aS'guys'
p3861
asg15
S'hey guys'
p3862
sg17
S' did you hear?'
p3863
sg19
Vslowpoke
p3864
sg21
(lp3865
g3860
ag3861
aS'did'
p3866
aS'you'
p3867
aS'hear'
p3868
ag105
asg30
(lp3869
g3866
ag3867
ag3868
ag105
asba(iMeme
Meme
p3870
(dp3871
g3
(lp3872
S'hey'
p3873
aS'guys'
p3874
asg15
S'hey guys'
p3875
sg17
S' did you hear that vaccines cause autism'
p3876
sg19
Vslowpoke
p3877
sg21
(lp3878
g3873
ag3874
aS'did'
p3879
aS'you'
p3880
aS'hear'
p3881
aS'that'
p3882
aS'vaccines'
p3883
aS'cause'
p3884
aS'autism'
p3885
asg30
(lp3886
g3879
ag3880
ag3881
ag3882
ag3883
ag3884
ag3885
asba(iMeme
Meme
p3887
(dp3888
g3
(lp3889
S'hey'
p3890
aS'guise'
p3891
asg15
S'hey guise'
p3892
sg17
S' i filled my diesel.'
p3893
sg19
Vslowpoke
p3894
sg21
(lp3895
g3890
ag3891
ag896
aS'filled'
p3896
aS'my'
p3897
aS'diesel'
p3898
ag204
asg30
(lp3899
g896
ag3896
ag3897
ag3898
ag204
asba(iMeme
Meme
p3900
(dp3901
g3
(lp3902
S'guys'
p3903
asg15
S'guys'
p3904
sg17
S' the a is gone'
p3905
sg19
Vslowpoke
p3906
sg21
(lp3907
g3903
aS'the'
p3908
ag50
aS'is'
p3909
aS'gone'
p3910
asg30
(lp3911
g3908
ag50
ag3909
ag3910
asba(iMeme
Meme
p3912
(dp3913
g3
(lp3914
S'hey'
p3915
aS'guys..'
p3916
asg15
S'hey guys..'
p3917
sg17
S' did you that norway is out of butter!'
p3918
sg19
Vslowpoke
p3919
sg21
(lp3920
g3915
ag3916
aS'did'
p3921
aS'you'
p3922
aS'that'
p3923
aS'norway'
p3924
aS'is'
p3925
aS'out'
p3926
aS'of'
p3927
aS'butter'
p3928
ag148
asg30
(lp3929
g3921
ag3922
ag3923
ag3924
ag3925
ag3926
ag3927
ag3928
ag148
asba(iMeme
Meme
p3930
(dp3931
g3
(lp3932
S'omg'
p3933
aS'guys'
p3934
ag148
ag148
ag148
ag148
asg15
S'omg guys!!!!'
p3935
sg17
S' goku went ssj for the first time!'
p3936
sg19
Vslowpoke
p3937
sg21
(lp3938
g3933
ag3934
ag148
ag148
ag148
ag148
aS'goku'
p3939
aS'went'
p3940
aS'ssj'
p3941
aS'for'
p3942
aS'the'
p3943
aS'first'
p3944
aS'time'
p3945
ag148
asg30
(lp3946
g3939
ag3940
ag3941
ag3942
ag3943
ag3944
ag3945
ag148
asba(iMeme
Meme
p3947
(dp3948
g3
(lp3949
S'arrow'
p3950
asg15
S'arrow'
p3951
sg17
S' to the knee'
p3952
sg19
Vslowpoke
p3953
sg21
(lp3954
g3950
aS'to'
p3955
aS'the'
p3956
aS'knee'
p3957
asg30
(lp3958
g3955
ag3956
ag3957
asba(iMeme
Meme
p3959
(dp3960
g3
(lp3961
S'sup'
p3962
aS'dude'
p3963
asg15
S'sup dude'
p3964
sg17
S' happy birthday'
p3965
sg19
Vslowpoke
p3966
sg21
(lp3967
g3962
ag3963
aS'happy'
p3968
aS'birthday'
p3969
asg30
(lp3970
g3968
ag3969
asba(iMeme
Meme
p3971
(dp3972
g3
(lp3973
S'guise'
p3974
aS'did'
p3975
aS'you'
p3976
aS'hear'
p3977
ag105
asg15
S'guise did you hear?'
p3978
sg17
S' j cole might tour soon'
p3979
sg19
Vslowpoke
p3980
sg21
(lp3981
g3974
ag3975
ag3976
ag3977
ag105
aS'j'
p3982
aS'cole'
p3983
aS'might'
p3984
aS'tour'
p3985
aS'soon'
p3986
asg30
(lp3987
g3982
ag3983
ag3984
ag3985
ag3986
asba(iMeme
Meme
p3988
(dp3989
g3
(lp3990
S'chased'
p3991
ag50
aS'snail'
p3992
aS'across'
p3993
aS'the'
p3994
aS'street'
p3995
asg15
S'chased a snail across the street'
p3996
sg17
S' most interesting 6 hours of my life'
p3997
sg19
Vslowpoke
p3998
sg21
(lp3999
g3991
ag50
ag3992
ag3993
ag3994
ag3995
aS'most'
p4000
aS'interesting'
p4001
ag389
aS'hours'
p4002
aS'of'
p4003
aS'my'
p4004
aS'life'
p4005
asg30
(lp4006
g4000
ag4001
ag389
ag4002
ag4003
ag4004
ag4005
asba(iMeme
Meme
p4007
(dp4008
g3
(lp4009
S'hey'
p4010
aS'guys'
p4011
ag148
asg15
S'hey guys!'
p4012
sg17
S' i heard someone is selling a bull bar'
p4013
sg19
Vslowpoke
p4014
sg21
(lp4015
g4010
ag4011
ag148
ag896
aS'heard'
p4016
aS'someone'
p4017
aS'is'
p4018
aS'selling'
p4019
ag50
aS'bull'
p4020
aS'bar'
p4021
asg30
(lp4022
g896
ag4016
ag4017
ag4018
ag4019
ag50
ag4020
ag4021
asba(iMeme
Meme
p4023
(dp4024
g3
(lp4025
S'tuition'
p4026
aS'fees'
p4027
aS'increase'
p4028
ag105
asg15
S'tuition fees increase?'
p4029
sg17
S' lets go on strike'
p4030
sg19
Vslowpoke
p4031
sg21
(lp4032
g4026
ag4027
ag4028
ag105
aS'lets'
p4033
aS'go'
p4034
aS'on'
p4035
aS'strike'
p4036
asg30
(lp4037
g4033
ag4034
ag4035
ag4036
asba(iMeme
Meme
p4038
(dp4039
g3
(lp4040
S'hey'
p4041
aS'guys'
p4042
asg15
S'hey guys'
p4043
sg17
S' have you heard about unc memes?'
p4044
sg19
Vslowpoke
p4045
sg21
(lp4046
g4041
ag4042
aS'have'
p4047
aS'you'
p4048
aS'heard'
p4049
aS'about'
p4050
aS'unc'
p4051
aS'memes'
p4052
ag105
asg30
(lp4053
g4047
ag4048
ag4049
ag4050
ag4051
ag4052
ag105
asba(iMeme
Meme
p4054
(dp4055
g3
(lp4056
S'did'
p4057
aS'you'
p4058
aS'hear'
p4059
ag105
aS'obama'
p4060
aS'won'
p4061
aS'the'
p4062
aS'election'
p4063
asg15
S'did you hear? obama won the election'
p4064
sg17
S' against palin and mccain!'
p4065
sg19
Vslowpoke
p4066
sg21
(lp4067
g4057
ag4058
ag4059
ag105
ag4060
ag4061
ag4062
ag4063
aS'against'
p4068
aS'palin'
p4069
aS'and'
p4070
aS'mccain'
p4071
ag148
asg30
(lp4072
g4068
ag4069
ag4070
ag4071
ag148
asba(iMeme
Meme
p4073
(dp4074
g3
(lp4075
S'hey'
p4076
aS'guys'
p4077
asg15
S'hey guys'
p4078
sg17
S' did you hear?'
p4079
sg19
Vslowpoke
p4080
sg21
(lp4081
g4076
ag4077
aS'did'
p4082
aS'you'
p4083
aS'hear'
p4084
ag105
asg30
(lp4085
g4082
ag4083
ag4084
ag105
asba(iMeme
Meme
p4086
(dp4087
g3
(lp4088
S'hey'
p4089
aS'guys'
p4090
aS'did'
p4091
aS'you'
p4092
aS'hear'
p4093
ag105
asg15
S'hey guys did you hear?'
p4094
sg17
S' pokememes has 151 pages now!'
p4095
sg19
Vslowpoke
p4096
sg21
(lp4097
g4089
ag4090
ag4091
ag4092
ag4093
ag105
aS'pokememes'
p4098
aS'has'
p4099
aS'151'
p4100
aS'pages'
p4101
aS'now'
p4102
ag148
asg30
(lp4103
g4098
ag4099
ag4100
ag4101
ag4102
ag148
asba(iMeme
Meme
p4104
(dp4105
g3
(lp4106
S'hey'
p4107
aS'guys'
p4108
asg15
S'hey guys'
p4109
sg17
S' did you hear houston is dead'
p4110
sg19
Vslowpoke
p4111
sg21
(lp4112
g4107
ag4108
aS'did'
p4113
aS'you'
p4114
aS'hear'
p4115
aS'houston'
p4116
aS'is'
p4117
aS'dead'
p4118
asg30
(lp4119
g4113
ag4114
ag4115
ag4116
ag4117
ag4118
asba(iMeme
Meme
p4120
(dp4121
g3
(lp4122
S'hey'
p4123
asg15
S'hey'
p4124
sg17
S' wanna see my penis :d'
p4125
sg19
Vslowpoke
p4126
sg21
(lp4127
g4123
aS'wan'
p4128
aS'na'
p4129
aS'see'
p4130
aS'my'
p4131
aS'penis'
p4132
ag122
ag3125
asg30
(lp4133
g4128
ag4129
ag4130
ag4131
ag4132
ag122
ag3125
asba(iMeme
Meme
p4134
(dp4135
g3
(lp4136
S'hey'
p4137
aS'guys'
p4138
asg15
S'hey guys'
p4139
sg17
S' that migration is slow'
p4140
sg19
Vslowpoke
p4141
sg21
(lp4142
g4137
ag4138
aS'that'
p4143
aS'migration'
p4144
aS'is'
p4145
aS'slow'
p4146
asg30
(lp4147
g4143
ag4144
ag4145
ag4146
asba(iMeme
Meme
p4148
(dp4149
g3
(lp4150
S'ive'
p4151
aS'decided'
p4152
asg15
S'ive decided'
p4153
sg17
S' to support gay marriage'
p4154
sg19
Vslowpoke
p4155
sg21
(lp4156
g4151
ag4152
aS'to'
p4157
aS'support'
p4158
aS'gay'
p4159
aS'marriage'
p4160
asg30
(lp4161
g4157
ag4158
ag4159
ag4160
asba(iMeme
Meme
p4162
(dp4163
g3
(lp4164
S'hey'
p4165
aS'guys'
p4166
asg15
S'hey guys'
p4167
sg17
S' jasper adam made an awesome facebook page called gsa memes. its really funny.'
p4168
sg19
Vslowpoke
p4169
sg21
(lp4170
g4165
ag4166
aS'jasper'
p4171
aS'adam'
p4172
aS'made'
p4173
aS'an'
p4174
aS'awesome'
p4175
aS'facebook'
p4176
aS'page'
p4177
aS'called'
p4178
aS'gsa'
p4179
aS'memes'
p4180
ag204
aS'its'
p4181
aS'really'
p4182
aS'funny'
p4183
ag204
asg30
(lp4184
g4171
ag4172
ag4173
ag4174
ag4175
ag4176
ag4177
ag4178
ag4179
ag4180
ag204
ag4181
ag4182
ag4183
ag204
asba(iMeme
Meme
p4185
(dp4186
g3
(lp4187
S'hey'
p4188
aS'guys'
p4189
aS'did'
p4190
aS'you'
p4191
aS'hear'
p4192
ag105
asg15
S'hey guys did you hear?'
p4193
sg17
S' torres scored a hat'
p4194
sg19
Vslowpoke
p4195
sg21
(lp4196
g4188
ag4189
ag4190
ag4191
ag4192
ag105
aS'torres'
p4197
aS'scored'
p4198
ag50
aS'hat'
p4199
asg30
(lp4200
g4197
ag4198
ag50
ag4199
asba(iMeme
Meme
p4201
(dp4202
g3
(lp4203
S'carolina'
p4204
asg15
S'carolina'
p4205
sg17
S' went to hell'
p4206
sg19
Vslowpoke
p4207
sg21
(lp4208
g4204
aS'went'
p4209
aS'to'
p4210
aS'hell'
p4211
asg30
(lp4212
g4209
ag4210
ag4211
asba(iMeme
Meme
p4213
(dp4214
g3
(lp4215
S'hey'
p4216
aS'guys'
p4217
asg15
S'hey guys'
p4218
sg17
S' treaty of ghent!'
p4219
sg19
Vslowpoke
p4220
sg21
(lp4221
g4216
ag4217
aS'treaty'
p4222
aS'of'
p4223
aS'ghent'
p4224
ag148
asg30
(lp4225
g4222
ag4223
ag4224
ag148
asba(iMeme
Meme
p4226
(dp4227
g3
(lp4228
S'muh'
p4229
aS'name'
p4230
aS'is'
p4231
asg15
S'muh name is'
p4232
sg17
S' diana'
p4233
sg19
Vslowpoke
p4234
sg21
(lp4235
g4229
ag4230
ag4231
aS'diana'
p4236
asg30
(lp4237
g4236
asba(iMeme
Meme
p4238
(dp4239
g3
(lp4240
S'happy'
p4241
aS'new'
p4242
aS'years'
p4243
aS'everyone'
p4244
ag148
asg15
S'happy new years everyone!'
p4245
sg17
S' 2011 is gonna be great!'
p4246
sg19
Vslowpoke
p4247
sg21
(lp4248
g4241
ag4242
ag4243
ag4244
ag148
aS'2011'
p4249
aS'is'
p4250
aS'gon'
p4251
aS'na'
p4252
aS'be'
p4253
aS'great'
p4254
ag148
asg30
(lp4255
g4249
ag4250
ag4251
ag4252
ag4253
ag4254
ag148
asba(iMeme
Meme
p4256
(dp4257
g3
(lp4258
S'hey'
p4259
aS'guise'
p4260
aS'did'
p4261
aS'you'
p4262
aS'here'
p4263
asg15
S'hey guise did you here'
p4264
sg17
S' diablo ii: lord of destruction is coming out'
p4265
sg19
Vslowpoke
p4266
sg21
(lp4267
g4259
ag4260
ag4261
ag4262
ag4263
aS'diablo'
p4268
aS'ii'
p4269
ag122
aS'lord'
p4270
aS'of'
p4271
aS'destruction'
p4272
aS'is'
p4273
aS'coming'
p4274
aS'out'
p4275
asg30
(lp4276
g4268
ag4269
ag122
ag4270
ag4271
ag4272
ag4273
ag4274
ag4275
asba(iMeme
Meme
p4277
(dp4278
g3
(lp4279
S'torres'
p4280
aS'takes'
p4281
ag50
aS'shot'
p4282
aS'of'
p4283
aS'vodka'
p4284
asg15
S'torres takes a shot of vodka'
p4285
sg17
S' misses'
p4286
sg19
Vslowpoke
p4287
sg21
(lp4288
g4280
ag4281
ag50
ag4282
ag4283
ag4284
aS'misses'
p4289
asg30
(lp4290
g4289
asba(iMeme
Meme
p4291
(dp4292
g3
(lp4293
S'what'
p4294
aS'if'
p4295
aS'we'
p4296
aS'all'
p4297
aS'see'
p4298
aS'different'
p4299
aS'colours'
p4300
asg15
S'what if we all see different colours'
p4301
sg17
S' but call them the same things?'
p4302
sg19
Vslowpoke
p4303
sg21
(lp4304
g4294
ag4295
ag4296
ag4297
ag4298
ag4299
ag4300
aS'but'
p4305
aS'call'
p4306
aS'them'
p4307
aS'the'
p4308
aS'same'
p4309
aS'things'
p4310
ag105
asg30
(lp4311
g4305
ag4306
ag4307
ag4308
ag4309
ag4310
ag105
asba(iMeme
Meme
p4312
(dp4313
g3
(lp4314
g896
aS'heard'
p4315
aS'theres'
p4316
ag50
aS'new'
p4317
aS'elder'
p4318
aS'scrolls'
p4319
asg15
S'i heard theres a new elder scrolls'
p4320
sg17
S' im so buying oblivion!'
p4321
sg19
Vslowpoke
p4322
sg21
(lp4323
g896
ag4315
ag4316
ag50
ag4317
ag4318
ag4319
aS'im'
p4324
aS'so'
p4325
aS'buying'
p4326
aS'oblivion'
p4327
ag148
asg30
(lp4328
g4324
ag4325
ag4326
ag4327
ag148
asba(iMeme
Meme
p4329
(dp4330
g3
(lp4331
S'hey'
p4332
asg15
S'hey'
p4333
sg17
S' guys you know what happened to 9gag'
p4334
sg19
Vslowpoke
p4335
sg21
(lp4336
g4332
aS'guys'
p4337
aS'you'
p4338
aS'know'
p4339
aS'what'
p4340
aS'happened'
p4341
aS'to'
p4342
aS'9gag'
p4343
asg30
(lp4344
g4337
ag4338
ag4339
ag4340
ag4341
ag4342
ag4343
asba(iMeme
Meme
p4345
(dp4346
g3
(lp4347
S'hey'
p4348
aS'guys'
p4349
asg15
S'hey guys'
p4350
sg17
S' brace yourselves'
p4351
sg19
Vslowpoke
p4352
sg21
(lp4353
g4348
ag4349
aS'brace'
p4354
aS'yourselves'
p4355
asg30
(lp4356
g4354
ag4355
asba(iMeme
Meme
p4357
(dp4358
g3
(lp4359
S'for'
p4360
aS'those'
p4361
aS'who'
p4362
aS'dont'
p4363
aS'know'
p4364
asg15
S'for those who dont know'
p4365
sg17
S' aristar is yajirobe'
p4366
sg19
Vslowpoke
p4367
sg21
(lp4368
g4360
ag4361
ag4362
ag4363
ag4364
aS'aristar'
p4369
aS'is'
p4370
aS'yajirobe'
p4371
asg30
(lp4372
g4369
ag4370
ag4371
asba(iMeme
Meme
p4373
(dp4374
g3
(lp4375
S'hey'
p4376
aS'guise'
p4377
asg15
S'hey guise'
p4378
sg17
S' i think bluish is about secks'
p4379
sg19
Vslowpoke
p4380
sg21
(lp4381
g4376
ag4377
ag896
aS'think'
p4382
aS'bluish'
p4383
aS'is'
p4384
aS'about'
p4385
aS'secks'
p4386
asg30
(lp4387
g896
ag4382
ag4383
ag4384
ag4385
ag4386
asba(iMeme
Meme
p4388
(dp4389
g3
(lp4390
S'have'
p4391
aS'you'
p4392
aS'guys'
p4393
aS'seen'
p4394
aS'the'
p4395
aS'parking'
p4396
aS'lots'
p4397
asg15
S'have you guys seen the parking lots'
p4398
sg17
S' new fence?'
p4399
sg19
Vslowpoke
p4400
sg21
(lp4401
g4391
ag4392
ag4393
ag4394
ag4395
ag4396
ag4397
aS'new'
p4402
aS'fence'
p4403
ag105
asg30
(lp4404
g4402
ag4403
ag105
asba(iMeme
Meme
p4405
(dp4406
g3
(lp4407
S'hey'
p4408
aS'guys'
p4409
asg15
S'hey guys'
p4410
sg17
S' where is'
p4411
sg19
Vslowpoke
p4412
sg21
(lp4413
g4408
ag4409
aS'where'
p4414
aS'is'
p4415
asg30
(lp4416
g4414
ag4415
asba(iMeme
Meme
p4417
(dp4418
g3
(lp4419
S'did'
p4420
aS'you'
p4421
aS'guys'
p4422
aS'hear'
p4423
asg15
S'did you guys hear'
p4424
sg17
S' the iphone 3 is out'
p4425
sg19
Vslowpoke
p4426
sg21
(lp4427
g4420
ag4421
ag4422
ag4423
aS'the'
p4428
aS'iphone'
p4429
ag1191
aS'is'
p4430
aS'out'
p4431
asg30
(lp4432
g4428
ag4429
ag1191
ag4430
ag4431
asba(iMeme
Meme
p4433
(dp4434
g3
(lp4435
g896
aS'hate'
p4436
aS'this'
p4437
aS'new'
p4438
aS'tool'
p4439
asg15
S'i hate this new tool'
p4440
sg17
S' that sr dash thing'
p4441
sg19
Vslowpoke
p4442
sg21
(lp4443
g896
ag4436
ag4437
ag4438
ag4439
aS'that'
p4444
aS'sr'
p4445
aS'dash'
p4446
aS'thing'
p4447
asg30
(lp4448
g4444
ag4445
ag4446
ag4447
asba(iMeme
Meme
p4449
(dp4450
g3
(lp4451
S'cabros'
p4452
asg15
S'cabros'
p4453
sg17
S' hay jeans day el viernes !'
p4454
sg19
Vslowpoke
p4455
sg21
(lp4456
g4452
aS'hay'
p4457
aS'jeans'
p4458
aS'day'
p4459
aS'el'
p4460
aS'viernes'
p4461
ag148
asg30
(lp4462
g4457
ag4458
ag4459
ag4460
ag4461
ag148
asba(iMeme
Meme
p4463
(dp4464
g3
(lp4465
S'did'
p4466
aS'you'
p4467
aS'hear'
p4468
ag105
asg15
S'did you hear?'
p4469
sg17
S' there are stoplights by pleasant street'
p4470
sg19
Vslowpoke
p4471
sg21
(lp4472
g4466
ag4467
ag4468
ag105
aS'there'
p4473
aS'are'
p4474
aS'stoplights'
p4475
aS'by'
p4476
aS'pleasant'
p4477
aS'street'
p4478
asg30
(lp4479
g4473
ag4474
ag4475
ag4476
ag4477
ag4478
asba(iMeme
Meme
p4480
(dp4481
g3
(lp4482
S'guys'
p4483
asg15
S'guys'
p4484
sg17
S' theres this bad guy in the news lately and the us wants to go and stop him!'
p4485
sg19
Vslowpoke
p4486
sg21
(lp4487
g4483
aS'theres'
p4488
aS'this'
p4489
aS'bad'
p4490
aS'guy'
p4491
aS'in'
p4492
aS'the'
p4493
aS'news'
p4494
aS'lately'
p4495
aS'and'
p4496
aS'the'
p4497
aS'us'
p4498
aS'wants'
p4499
aS'to'
p4500
aS'go'
p4501
aS'and'
p4502
aS'stop'
p4503
aS'him'
p4504
ag148
asg30
(lp4505
g4488
ag4489
ag4490
ag4491
ag4492
ag4493
ag4494
ag4495
ag4496
ag4497
ag4498
ag4499
ag4500
ag4501
ag4502
ag4503
ag4504
ag148
asba(iMeme
Meme
p4506
(dp4507
g3
(lp4508
S'new'
p4509
aS'diablo'
p4510
aS'game'
p4511
aS'out'
p4512
asg15
S'new diablo game out'
p4513
sg17
S' lord of destruction'
p4514
sg19
Vslowpoke
p4515
sg21
(lp4516
g4509
ag4510
ag4511
ag4512
aS'lord'
p4517
aS'of'
p4518
aS'destruction'
p4519
asg30
(lp4520
g4517
ag4518
ag4519
asba(iMeme
Meme
p4521
(dp4522
g3
(lp4523
S'me'
p4524
aS'la'
p4525
aS'agarro'
p4526
aS'con'
p4527
aS'el'
p4528
aS'vendido'
p4529
asg15
S'me la agarro con el vendido'
p4530
sg17
S' solo porque no me agrada'
p4531
sg19
Vslowpoke
p4532
sg21
(lp4533
g4524
ag4525
ag4526
ag4527
ag4528
ag4529
aS'solo'
p4534
aS'porque'
p4535
aS'no'
p4536
aS'me'
p4537
aS'agrada'
p4538
asg30
(lp4539
g4534
ag4535
ag4536
ag4537
ag4538
asba(iMeme
Meme
p4540
(dp4541
g3
(lp4542
S'on'
p4543
aS'mapprend'
p4544
ag50
aS'linstant'
p4545
asg15
S'on mapprend a linstant'
p4546
sg17
S' que jacques martin est congedie!'
p4547
sg19
Vslowpoke
p4548
sg21
(lp4549
g4543
ag4544
ag50
ag4545
aS'que'
p4550
aS'jacques'
p4551
aS'martin'
p4552
aS'est'
p4553
aS'congedie'
p4554
ag148
asg30
(lp4555
g4550
ag4551
ag4552
ag4553
ag4554
ag148
asba(iMeme
Meme
p4556
(dp4557
g3
(lp4558
S'hey'
p4559
aS'its'
p4560
aS'20:30'
p4561
asg15
S'hey its 20:30'
p4562
sg17
S' time to put some pants on'
p4563
sg19
Vslowpoke
p4564
sg21
(lp4565
g4559
ag4560
ag4561
aS'time'
p4566
aS'to'
p4567
aS'put'
p4568
aS'some'
p4569
aS'pants'
p4570
aS'on'
p4571
asg30
(lp4572
g4566
ag4567
ag4568
ag4569
ag4570
ag4571
asba(iMeme
Meme
p4573
(dp4574
g3
(lp4575
S'lincoln'
p4576
aS'tunnel'
p4577
asg15
S'lincoln tunnel'
p4578
sg17
S' leaves you uptown i believe'
p4579
sg19
Vslowpoke
p4580
sg21
(lp4581
g4576
ag4577
aS'leaves'
p4582
aS'you'
p4583
aS'uptown'
p4584
ag896
aS'believe'
p4585
asg30
(lp4586
g4582
ag4583
ag4584
ag896
ag4585
asba(iMeme
Meme
p4587
(dp4588
g3
(lp4589
S'hey'
p4590
aS'mackz'
p4591
asg15
S'hey mackz'
p4592
sg17
S' it sez ur a gurl on fb! lol!!1'
p4593
sg19
Vslowpoke
p4594
sg21
(lp4595
g4590
ag4591
aS'it'
p4596
aS'sez'
p4597
aS'ur'
p4598
ag50
aS'gurl'
p4599
aS'on'
p4600
aS'fb'
p4601
ag148
aS'lol'
p4602
ag148
ag148
aS'1'
p4603
asg30
(lp4604
g4596
ag4597
ag4598
ag50
ag4599
ag4600
ag4601
ag148
ag4602
ag148
ag148
ag4603
asba(iMeme
Meme
p4605
(dp4606
g3
(lp4607
S'hey'
p4608
aS'guys'
p4609
aS'did'
p4610
aS'you'
p4611
aS'hear'
p4612
ag105
asg15
S'hey guys did you hear?'
p4613
sg17
S' theyre changing the schedule next year'
p4614
sg19
Vslowpoke
p4615
sg21
(lp4616
g4608
ag4609
ag4610
ag4611
ag4612
ag105
aS'theyre'
p4617
aS'changing'
p4618
aS'the'
p4619
aS'schedule'
p4620
aS'next'
p4621
aS'year'
p4622
asg30
(lp4623
g4617
ag4618
ag4619
ag4620
ag4621
ag4622
asba(iMeme
Meme
p4624
(dp4625
g3
(lp4626
S'top'
p4627
aS'stories'
p4628
aS'at'
p4629
aS'the'
p4630
aS'top'
p4631
asg15
S'top stories at the top'
p4632
sg17
S' recent news at the bottom? what?'
p4633
sg19
Vslowpoke
p4634
sg21
(lp4635
g4627
ag4628
ag4629
ag4630
ag4631
aS'recent'
p4636
aS'news'
p4637
aS'at'
p4638
aS'the'
p4639
aS'bottom'
p4640
ag105
aS'what'
p4641
ag105
asg30
(lp4642
g4636
ag4637
ag4638
ag4639
ag4640
ag105
ag4641
ag105
asba(iMeme
Meme
p4643
(dp4644
g3
(lp4645
S'lincoln'
p4646
aS'tunnel'
p4647
asg15
S'lincoln tunnel'
p4648
sg17
S' leaves you uptown i believe'
p4649
sg19
Vslowpoke
p4650
sg21
(lp4651
g4646
ag4647
aS'leaves'
p4652
aS'you'
p4653
aS'uptown'
p4654
ag896
aS'believe'
p4655
asg30
(lp4656
g4652
ag4653
ag4654
ag896
ag4655
asba(iMeme
Meme
p4657
(dp4658
g3
(lp4659
S'hey'
p4660
asg15
S'hey'
p4661
sg17
S' you know what happened'
p4662
sg19
Vslowpoke
p4663
sg21
(lp4664
g4660
aS'you'
p4665
aS'know'
p4666
aS'what'
p4667
aS'happened'
p4668
asg30
(lp4669
g4665
ag4666
ag4667
ag4668
asba(iMeme
Meme
p4670
(dp4671
g3
(lp4672
S'guys'
p4673
ag148
asg15
S'guys!'
p4674
sg17
S' peter beatie resigned!'
p4675
sg19
Vslowpoke
p4676
sg21
(lp4677
g4673
ag148
aS'peter'
p4678
aS'beatie'
p4679
aS'resigned'
p4680
ag148
asg30
(lp4681
g4678
ag4679
ag4680
ag148
asba(iMeme
Meme
p4682
(dp4683
g3
(lp4684
S'hey'
p4685
aS'have'
p4686
aS'you'
p4687
aS'guys'
p4688
aS'heard'
p4689
aS'of'
p4690
aS'the'
p4691
aS'eastside'
p4692
aS'show'
p4693
aS'room'
p4694
asg15
S'hey have you guys heard of the eastside show room'
p4695
sg17
S' heahter should have her b'
p4696
sg19
Vslowpoke
p4697
sg21
(lp4698
g4685
ag4686
ag4687
ag4688
ag4689
ag4690
ag4691
ag4692
ag4693
ag4694
aS'heahter'
p4699
aS'should'
p4700
aS'have'
p4701
aS'her'
p4702
ag2854
asg30
(lp4703
g4699
ag4700
ag4701
ag4702
ag2854
asba(iMeme
Meme
p4704
(dp4705
g3
(lp4706
S'hey'
p4707
aS'guise'
p4708
ag896
aS'won'
p4709
aS'the'
p4710
aS'lotto'
p4711
asg15
S'hey guise i won the lotto'
p4712
sg17
S' april fools!!!'
p4713
sg19
Vslowpoke
p4714
sg21
(lp4715
g4707
ag4708
ag896
ag4709
ag4710
ag4711
aS'april'
p4716
aS'fools'
p4717
ag148
ag148
ag148
asg30
(lp4718
g4716
ag4717
ag148
ag148
ag148
asba(iMeme
Meme
p4719
(dp4720
g3
(lp4721
S'hey'
p4722
aS'guys'
p4723
aS'do'
p4724
aS'you'
p4725
aS'know'
p4726
aS'about'
p4727
aS'that'
p4728
aS'succesful'
p4729
aS'black'
p4730
aS'guy'
p4731
aS'meme'
p4732
ag105
asg15
S'hey guys do you know about that succesful black guy meme?'
p4733
sg17
S' i just made one about him beating his family in a game.'
p4734
sg19
Vslowpoke
p4735
sg21
(lp4736
g4722
ag4723
ag4724
ag4725
ag4726
ag4727
ag4728
ag4729
ag4730
ag4731
ag4732
ag105
ag896
aS'just'
p4737
aS'made'
p4738
aS'one'
p4739
aS'about'
p4740
aS'him'
p4741
aS'beating'
p4742
aS'his'
p4743
aS'family'
p4744
aS'in'
p4745
ag50
aS'game'
p4746
ag204
asg30
(lp4747
g896
ag4737
ag4738
ag4739
ag4740
ag4741
ag4742
ag4743
ag4744
ag4745
ag50
ag4746
ag204
asba.