(lp0
(iMeme
Meme
p1
(dp2
S'top_text'
p3
(lp4
S'Had'
p5
aS'to'
p6
aS'wait'
p7
aS'5'
p8
aS'min'
p9
aS'to'
p10
aS'pay'
p11
aS'for'
p12
aS'chipotle'
p13
aS'...'
p14
aS'They'
p15
aS"comp'ed"
p16
aS'it'
p17
asS'top_text_raw'
p18
S"Had to wait 5 min to pay for chipotle ... They comp'ed it "
p19
sS'bottom_text_raw'
p20
S'  '
p21
sS'meme_type'
p22
Vtoday-was-a-good-day
p23
sS'all_text'
p24
(lp25
g5
ag6
ag7
ag8
ag9
ag10
ag11
ag12
ag13
ag14
ag15
ag16
ag17
asS'bottom_text'
p26
(lp27
sba(iMeme
Meme
p28
(dp29
g3
(lp30
S'SHe'
p31
aS'said'
p32
aS'she'
p33
aS'lOVed'
p34
aS'the'
p35
aS'meme'
p36
asg18
S'SHe said she lOVed the meme  '
p37
sg20
S' Today was a Good daY  '
p38
sg22
Vtoday-was-a-good-day
p39
sg24
(lp40
g31
ag32
ag33
ag34
ag35
ag36
aS'Today'
p41
aS'was'
p42
aS'a'
p43
aS'Good'
p44
aS'daY'
p45
asg26
(lp46
g41
ag42
ag43
ag44
ag45
asba(iMeme
Meme
p47
(dp48
g3
(lp49
S'twisted'
p50
aS'mixtape'
p51
aS'tuesday'
p52
asg18
S'twisted mixtape tuesday '
p53
sg20
S' today was a good day '
p54
sg22
Vtoday-was-a-good-day
p55
sg24
(lp56
g50
ag51
ag52
aS'today'
p57
aS'was'
p58
ag43
aS'good'
p59
aS'day'
p60
asg26
(lp61
g57
ag58
ag43
ag59
ag60
asba(iMeme
Meme
p62
(dp63
g3
(lp64
S'Today'
p65
aS'I'
p66
aS'introduced'
p67
aS'Rita'
p68
aS'to'
p69
aS'Future'
p70
aS'Diary'
p71
asg18
S'Today I introduced Rita to Future Diary '
p72
sg20
S' Today was a good day '
p73
sg22
Vtoday-was-a-good-day
p74
sg24
(lp75
g65
ag66
ag67
ag68
ag69
ag70
ag71
aS'Today'
p76
aS'was'
p77
ag43
aS'good'
p78
aS'day'
p79
asg26
(lp80
g76
ag77
ag43
ag78
ag79
asba(iMeme
Meme
p81
(dp82
g3
(lp83
S'No'
p84
aS'one'
p85
aS'noticed'
p86
aS'that'
p87
ag66
aS"'m"
p88
aS'sitting'
p89
aS'on'
p90
aS'the'
p91
aS'wrong'
p92
aS'side'
p93
aS'of'
p94
aS'the'
p95
aS'car'
p96
aS'.'
p97
asg18
S"No one noticed that I'm sitting on the wrong side of the car. "
p98
sg20
S' It was a good day. '
p99
sg22
Vtoday-was-a-good-day
p100
sg24
(lp101
g84
ag85
ag86
ag87
ag66
ag88
ag89
ag90
ag91
ag92
ag93
ag94
ag95
ag96
ag97
aS'It'
p102
aS'was'
p103
ag43
aS'good'
p104
aS'day'
p105
ag97
asg26
(lp106
g102
ag103
ag43
ag104
ag105
ag97
asba(iMeme
Meme
p107
(dp108
g3
(lp109
S'oppressed'
p110
ag43
aS'virgin'
p111
aS'and'
p112
aS'called'
p113
aS'them'
p114
aS'conservative'
p115
asg18
S'oppressed a virgin and called them conservative '
p116
sg20
S' today was a good day '
p117
sg22
Vtoday-was-a-good-day
p118
sg24
(lp119
g110
ag43
ag111
ag112
ag113
ag114
ag115
aS'today'
p120
aS'was'
p121
ag43
aS'good'
p122
aS'day'
p123
asg26
(lp124
g120
ag121
ag43
ag122
ag123
asba(iMeme
Meme
p125
(dp126
g3
(lp127
S'Dari'
p128
aS'!'
p129
aS'did'
p130
aS"n't"
p131
aS'flip'
p132
ag43
aS'backhoe'
p133
aS'today'
p134
asg18
S"Dari! didn't flip a backhoe today "
p135
sg20
S' Today was a good day '
p136
sg22
Vtoday-was-a-good-day
p137
sg24
(lp138
g128
ag129
ag130
ag131
ag132
ag43
ag133
ag134
aS'Today'
p139
aS'was'
p140
ag43
aS'good'
p141
aS'day'
p142
asg26
(lp143
g139
ag140
ag43
ag141
ag142
asba(iMeme
Meme
p144
(dp145
g3
(lp146
S'Did'
p147
aS"n't"
p148
aS'wake'
p149
aS'up'
p150
aS'to'
p151
aS'Gemma'
p152
aS'getting'
p153
aS'yelled'
p154
aS'at'
p155
asg18
S"Didn't wake up to Gemma getting yelled at "
p156
sg20
S' Today was a good day '
p157
sg22
Vtoday-was-a-good-day
p158
sg24
(lp159
g147
ag148
ag149
ag150
ag151
ag152
ag153
ag154
ag155
aS'Today'
p160
aS'was'
p161
ag43
aS'good'
p162
aS'day'
p163
asg26
(lp164
g160
ag161
ag43
ag162
ag163
asba(iMeme
Meme
p165
(dp166
g3
(lp167
S'Passed'
p168
aS'class'
p169
aS'with'
p170
aS'highest'
p171
aS'score'
p172
aS'and'
p173
aS'Crunchyroll'
p174
aS'is'
p175
aS'now'
p176
aS'available'
p177
aS'on'
p178
aS'ApplE'
p179
aS'tV'
p180
asg18
S'Passed class with highest score and Crunchyroll is now available on ApplE tV '
p181
sg20
S' Today was a good day '
p182
sg22
Vtoday-was-a-good-day
p183
sg24
(lp184
g168
ag169
ag170
ag171
ag172
ag173
ag174
ag175
ag176
ag177
ag178
ag179
ag180
aS'Today'
p185
aS'was'
p186
ag43
aS'good'
p187
aS'day'
p188
asg26
(lp189
g185
ag186
ag43
ag187
ag188
asba(iMeme
Meme
p190
(dp191
g3
(lp192
S'Only'
p193
aS'arrested'
p194
aS'twice'
p195
asg18
S'Only arrested twice '
p196
sg20
S' Today was a good day '
p197
sg22
Vtoday-was-a-good-day
p198
sg24
(lp199
g193
ag194
ag195
aS'Today'
p200
aS'was'
p201
ag43
aS'good'
p202
aS'day'
p203
asg26
(lp204
g200
ag201
ag43
ag202
ag203
asba(iMeme
Meme
p205
(dp206
g3
(lp207
S'pedju'
p208
aS'ne'
p209
aS'kenja'
p210
aS'na'
p211
aS'pesu'
p212
asg18
S'pedju ne kenja na pesu '
p213
sg20
S' today was a good day '
p214
sg22
Vtoday-was-a-good-day
p215
sg24
(lp216
g208
ag209
ag210
ag211
ag212
aS'today'
p217
aS'was'
p218
ag43
aS'good'
p219
aS'day'
p220
asg26
(lp221
g217
ag218
ag43
ag219
ag220
asba(iMeme
Meme
p222
(dp223
g3
(lp224
S'We'
p225
aS"'re"
p226
aS'finally'
p227
aS'doing'
p228
aS'something'
p229
aS'about'
p230
aS'our'
p231
aS'violated'
p232
aS'rights'
p233
asg18
S"We're finally doing something about our violated rights "
p234
sg20
S' today was a good day '
p235
sg22
Vtoday-was-a-good-day
p236
sg24
(lp237
g225
ag226
ag227
ag228
ag229
ag230
ag231
ag232
ag233
aS'today'
p238
aS'was'
p239
ag43
aS'good'
p240
aS'day'
p241
asg26
(lp242
g238
ag239
ag43
ag240
ag241
asba(iMeme
Meme
p243
(dp244
g3
(lp245
S'Became'
p246
aS'an'
p247
aS'admin'
p248
asg18
S'Became an admin '
p249
sg20
S' Today was a good day '
p250
sg22
Vtoday-was-a-good-day
p251
sg24
(lp252
g246
ag247
ag248
aS'Today'
p253
aS'was'
p254
ag43
aS'good'
p255
aS'day'
p256
asg26
(lp257
g253
ag254
ag43
ag255
ag256
asba(iMeme
Meme
p258
(dp259
g3
(lp260
sg18
S' '
p261
sg20
S" who's ass I gotta kick today "
p262
sg22
Vtoday-was-a-good-day
p263
sg24
(lp264
S'who'
p265
aS"'s"
p266
aS'ass'
p267
ag66
aS'got'
p268
aS'ta'
p269
aS'kick'
p270
aS'today'
p271
asg26
(lp272
g265
ag266
ag267
ag66
ag268
ag269
ag270
ag271
asba(iMeme
Meme
p273
(dp274
g3
(lp275
S'Had'
p276
aS'breakfast'
p277
aS'with'
p278
aS'harry'
p279
aS'and'
p280
aS'george'
p281
asg18
S'Had breakfast with harry and george '
p282
sg20
S' Today was a good day '
p283
sg22
Vtoday-was-a-good-day
p284
sg24
(lp285
g276
ag277
ag278
ag279
ag280
ag281
aS'Today'
p286
aS'was'
p287
ag43
aS'good'
p288
aS'day'
p289
asg26
(lp290
g286
ag287
ag43
ag288
ag289
asba(iMeme
Meme
p291
(dp292
g3
(lp293
S'Had'
p294
aS'breakfast'
p295
aS'with'
p296
aS'harry'
p297
aS'and'
p298
aS'george'
p299
asg18
S'Had breakfast with harry and george '
p300
sg20
S'  '
p301
sg22
Vtoday-was-a-good-day
p302
sg24
(lp303
g294
ag295
ag296
ag297
ag298
ag299
asg26
(lp304
sba(iMeme
Meme
p305
(dp306
g3
(lp307
S'took'
p308
aS'3'
p309
aS'dumps'
p310
aS'today'
p311
aS'and'
p312
aS'they'
p313
aS'were'
p314
aS'all'
p315
aS'one'
p316
aS'wipe'
p317
aS'shits'
p318
asg18
S'took 3 dumps today and they were all one wipe shits '
p319
sg20
S' today was a good day '
p320
sg22
Vtoday-was-a-good-day
p321
sg24
(lp322
g308
ag309
ag310
ag311
ag312
ag313
ag314
ag315
ag316
ag317
ag318
aS'today'
p323
aS'was'
p324
ag43
aS'good'
p325
aS'day'
p326
asg26
(lp327
g323
ag324
ag43
ag325
ag326
asba(iMeme
Meme
p328
(dp329
g3
(lp330
S'Dr'
p331
aS'wtf'
p332
aS'stopped'
p333
aS'making'
p334
aS'music'
p335
asg18
S'Dr wtf stopped making music '
p336
sg20
S' That day was a good day '
p337
sg22
Vtoday-was-a-good-day
p338
sg24
(lp339
g331
ag332
ag333
ag334
ag335
aS'That'
p340
aS'day'
p341
aS'was'
p342
ag43
aS'good'
p343
aS'day'
p344
asg26
(lp345
g340
ag341
ag342
ag43
ag343
ag344
asba(iMeme
Meme
p346
(dp347
g3
(lp348
g66
aS'do'
p349
aS"n't"
p350
aS'always'
p351
aS'work'
p352
aS'security'
p353
asg18
S"I don't always work security "
p354
sg20
S' but when I do, I pack my slingshot '
p355
sg22
Vtoday-was-a-good-day
p356
sg24
(lp357
g66
ag349
ag350
ag351
ag352
ag353
aS'but'
p358
aS'when'
p359
ag66
aS'do'
p360
aS','
p361
ag66
aS'pack'
p362
aS'my'
p363
aS'slingshot'
p364
asg26
(lp365
g358
ag359
ag66
ag360
ag361
ag66
ag362
ag363
ag364
asba(iMeme
Meme
p366
(dp367
g3
(lp368
S'Dicklaus'
p369
aS"'s"
p370
aS'wiki'
p371
aS'closed'
p372
aS'down'
p373
asg18
S"Dicklaus's wiki closed down "
p374
sg20
S' Today was a good day '
p375
sg22
Vtoday-was-a-good-day
p376
sg24
(lp377
g369
ag370
ag371
ag372
ag373
aS'Today'
p378
aS'was'
p379
ag43
aS'good'
p380
aS'day'
p381
asg26
(lp382
g378
ag379
ag43
ag380
ag381
asba(iMeme
Meme
p383
(dp384
g3
(lp385
S'stfu'
p386
aS'and'
p387
aS'upvote'
p388
aS'this'
p389
asg18
S'stfu and upvote this '
p390
sg20
S'  '
p391
sg22
Vtoday-was-a-good-day
p392
sg24
(lp393
g386
ag387
ag388
ag389
asg26
(lp394
sba(iMeme
Meme
p395
(dp396
g3
(lp397
S'U'
p398
aS'could'
p399
aS'always'
p400
aS'say'
p401
asg18
S'U could always say '
p402
sg20
S' today was a good day '
p403
sg22
Vtoday-was-a-good-day
p404
sg24
(lp405
g398
ag399
ag400
ag401
aS'today'
p406
aS'was'
p407
ag43
aS'good'
p408
aS'day'
p409
asg26
(lp410
g406
ag407
ag43
ag408
ag409
asba(iMeme
Meme
p411
(dp412
g3
(lp413
S'Had'
p414
ag43
aS'picnic'
p415
ag361
aS'played'
p416
aS'FOOtball'
p417
asg18
S'Had a picnic, played FOOtball '
p418
sg20
S' Today was a good day '
p419
sg22
Vtoday-was-a-good-day
p420
sg24
(lp421
g414
ag43
ag415
ag361
ag416
ag417
aS'Today'
p422
aS'was'
p423
ag43
aS'good'
p424
aS'day'
p425
asg26
(lp426
g422
ag423
ag43
ag424
ag425
asba(iMeme
Meme
p427
(dp428
g3
(lp429
S'may'
p430
aS'the'
p431
aS'every'
p432
aS'day'
p433
aS'be'
p434
aS'like'
p435
aS'today'
p436
aS'and'
p437
asg18
S'may the every day be like today and '
p438
sg20
S' today was a good day '
p439
sg22
Vtoday-was-a-good-day
p440
sg24
(lp441
g430
ag431
ag432
ag433
ag434
ag435
ag436
ag437
aS'today'
p442
aS'was'
p443
ag43
aS'good'
p444
aS'day'
p445
asg26
(lp446
g442
ag443
ag43
ag444
ag445
asba(iMeme
Meme
p447
(dp448
g3
(lp449
S'just'
p450
aS'read'
p451
ag43
aS'sister'
p452
aS'confessed'
p453
aS'about'
p454
ag43
aS'dildo'
p455
aS'feeling'
p456
aS'like'
p457
aS'her'
p458
aS'brother'
p459
aS"'s"
p460
aS'penis'
p461
aS'i'
p462
aS'guess'
p463
aS'today'
p464
aS'was'
p465
ag43
aS'good'
p466
aS'day'
p467
asg18
S"just read a sister confessed about a dildo feeling like her brother's penis i guess today was a good day "
p468
sg20
S'  '
p469
sg22
Vtoday-was-a-good-day
p470
sg24
(lp471
g450
ag451
ag43
ag452
ag453
ag454
ag43
ag455
ag456
ag457
ag458
ag459
ag460
ag461
ag462
ag463
ag464
ag465
ag43
ag466
ag467
asg26
(lp472
sba(iMeme
Meme
p473
(dp474
g3
(lp475
S'no'
p476
aS'blood'
p477
aS'in'
p478
aS'my'
p479
aS'stool'
p480
asg18
S'no blood in my stool '
p481
sg20
S' today was a good day '
p482
sg22
Vtoday-was-a-good-day
p483
sg24
(lp484
g476
ag477
ag478
ag479
ag480
aS'today'
p485
aS'was'
p486
ag43
aS'good'
p487
aS'day'
p488
asg26
(lp489
g485
ag486
ag43
ag487
ag488
asba(iMeme
Meme
p490
(dp491
g3
(lp492
S'just'
p493
aS'shot'
p494
aS'bieber'
p495
asg18
S'just shot bieber '
p496
sg20
S' today was a good day '
p497
sg22
Vtoday-was-a-good-day
p498
sg24
(lp499
g493
ag494
ag495
aS'today'
p500
aS'was'
p501
ag43
aS'good'
p502
aS'day'
p503
asg26
(lp504
g500
ag501
ag43
ag502
ag503
asba(iMeme
Meme
p505
(dp506
g3
(lp507
S'Said'
p508
aS'happy'
p509
aS'birthday'
p510
asg18
S'Said happy birthday '
p511
sg20
S' today was a good day '
p512
sg22
Vtoday-was-a-good-day
p513
sg24
(lp514
g508
ag509
ag510
aS'today'
p515
aS'was'
p516
ag43
aS'good'
p517
aS'day'
p518
asg26
(lp519
g515
ag516
ag43
ag517
ag518
asba(iMeme
Meme
p520
(dp521
g3
(lp522
S'Drove'
p523
aS'By'
p524
aS'himself'
p525
asg18
S'Drove By himself '
p526
sg20
S' ToDay was a good day '
p527
sg22
Vtoday-was-a-good-day
p528
sg24
(lp529
g523
ag524
ag525
aS'ToDay'
p530
aS'was'
p531
ag43
aS'good'
p532
aS'day'
p533
asg26
(lp534
g530
ag531
ag43
ag532
ag533
asba(iMeme
Meme
p535
(dp536
g3
(lp537
S'even'
p538
aS'saw'
p539
aS'the'
p540
aS'light'
p541
asg18
S'even saw the light '
p542
sg20
S'  '
p543
sg22
Vtoday-was-a-good-day
p544
sg24
(lp545
g538
ag539
ag540
ag541
asg26
(lp546
sba(iMeme
Meme
p547
(dp548
g3
(lp549
S'No'
p550
aS'Tests'
p551
aS'?'
p552
asg18
S'No Tests? '
p553
sg20
S' today was a good day '
p554
sg22
Vtoday-was-a-good-day
p555
sg24
(lp556
g550
ag551
ag552
aS'today'
p557
aS'was'
p558
ag43
aS'good'
p559
aS'day'
p560
asg26
(lp561
g557
ag558
ag43
ag559
ag560
asba(iMeme
Meme
p562
(dp563
g3
(lp564
S'Angels'
p565
aS'beat'
p566
aS'the'
p567
aS'Dodgers'
p568
asg18
S'Angels beat the Dodgers  '
p569
sg20
S' Today Was a good day '
p570
sg22
Vtoday-was-a-good-day
p571
sg24
(lp572
g565
ag566
ag567
ag568
aS'Today'
p573
aS'Was'
p574
ag43
aS'good'
p575
aS'day'
p576
asg26
(lp577
g573
ag574
ag43
ag575
ag576
asba(iMeme
Meme
p578
(dp579
g3
(lp580
g462
aS'saw'
p581
aS'the'
p582
aS'good'
p583
aS'year'
p584
aS'blimp'
p585
aS'it'
p586
aS'did'
p587
aS'say'
p588
aS'7ft'
p589
ag43
aS'pimp'
p590
asg18
S'i saw the good year blimp it did say 7ft a pimp '
p591
sg20
S'  '
p592
sg22
Vtoday-was-a-good-day
p593
sg24
(lp594
g462
ag581
ag582
ag583
ag584
ag585
ag586
ag587
ag588
ag589
ag43
ag590
asg26
(lp595
sba(iMeme
Meme
p596
(dp597
g3
(lp598
S'We'
p599
aS'picked'
p600
aS'up'
p601
ag43
aS'20Mjob'
p602
aS'today'
p603
ag361
aS'actually'
p604
aS'did'
p605
aS'some'
p606
aS'engineer'
p607
asg18
S'We picked up a 20Mjob today , actually did some engineer'
p608
sg20
S'y stuff and a mIstake I thought I made ended up making us mOney '
p609
sg22
Vtoday-was-a-good-day
p610
sg24
(lp611
g599
ag600
ag601
ag43
ag602
ag603
ag361
ag604
ag605
ag606
ag607
aS'y'
p612
aS'stuff'
p613
aS'and'
p614
ag43
aS'mIstake'
p615
ag66
aS'thought'
p616
ag66
aS'made'
p617
aS'ended'
p618
aS'up'
p619
aS'making'
p620
aS'us'
p621
aS'mOney'
p622
asg26
(lp623
g612
ag613
ag614
ag43
ag615
ag66
ag616
ag66
ag617
ag618
ag619
ag620
ag621
ag622
asba(iMeme
Meme
p624
(dp625
g3
(lp626
S'got'
p627
aS'bombed'
p628
aS'on'
p629
aS'by'
p630
aS'japan'
p631
asg18
S'got bombed on by japan '
p632
sg20
S' today was a good day '
p633
sg22
Vtoday-was-a-good-day
p634
sg24
(lp635
g627
ag628
ag629
ag630
ag631
aS'today'
p636
aS'was'
p637
ag43
aS'good'
p638
aS'day'
p639
asg26
(lp640
g636
ag637
ag43
ag638
ag639
asba(iMeme
Meme
p641
(dp642
g3
(lp643
S'First'
p644
aS'day'
p645
aS'skulling'
p646
aS'in'
p647
ag43
aS'single'
p648
asg18
S'First day skulling in a single '
p649
sg20
S" Didn't flip "
p650
sg22
Vtoday-was-a-good-day
p651
sg24
(lp652
g644
ag645
ag646
ag647
ag43
ag648
aS'Did'
p653
aS"n't"
p654
aS'flip'
p655
asg26
(lp656
g653
ag654
ag655
asba(iMeme
Meme
p657
(dp658
g3
(lp659
g462
aS'did'
p660
aS'see'
p661
aS'the'
p662
aS'light'
p663
aS'on'
p664
aS'the'
p665
aS'goodyear'
p666
aS'blimp'
p667
aS'it'
p668
aS'did'
p669
aS'say'
p670
aS'7ft'
p671
ag43
aS'pimp'
p672
asg18
S'i did see the light on the goodyear blimp it did say 7ft a pimp '
p673
sg20
S'  '
p674
sg22
Vtoday-was-a-good-day
p675
sg24
(lp676
g462
ag660
ag661
ag662
ag663
ag664
ag665
ag666
ag667
ag668
ag669
ag670
ag671
ag43
ag672
asg26
(lp677
sba(iMeme
Meme
p678
(dp679
g3
(lp680
S'was'
p681
aS'in'
p682
aS'school'
p683
asg18
S'was in school '
p684
sg20
S" didn't get a bad mark "
p685
sg22
Vtoday-was-a-good-day
p686
sg24
(lp687
g681
ag682
ag683
aS'did'
p688
aS"n't"
p689
aS'get'
p690
ag43
aS'bad'
p691
aS'mark'
p692
asg26
(lp693
g688
ag689
ag690
ag43
ag691
ag692
asba(iMeme
Meme
p694
(dp695
g3
(lp696
S'won'
p697
aS'meal'
p698
aS'or'
p699
aS'no'
p700
aS'meal'
p701
asg18
S'won meal or no meal '
p702
sg20
S' today was a good day '
p703
sg22
Vtoday-was-a-good-day
p704
sg24
(lp705
g697
ag698
ag699
ag700
ag701
aS'today'
p706
aS'was'
p707
ag43
aS'good'
p708
aS'day'
p709
asg26
(lp710
g706
ag707
ag43
ag708
ag709
asba(iMeme
Meme
p711
(dp712
g3
(lp713
S'took'
p714
aS'three'
p715
aS'dumps'
p716
aS'today'
p717
aS'and'
p718
aS'they'
p719
aS'were'
p720
aS'all'
p721
aS'one'
p722
aS'wipe'
p723
aS'shits'
p724
asg18
S'took three dumps today and they were all one wipe shits '
p725
sg20
S' today was a good day '
p726
sg22
Vtoday-was-a-good-day
p727
sg24
(lp728
g714
ag715
ag716
ag717
ag718
ag719
ag720
ag721
ag722
ag723
ag724
aS'today'
p729
aS'was'
p730
ag43
aS'good'
p731
aS'day'
p732
asg26
(lp733
g729
ag730
ag43
ag731
ag732
asba(iMeme
Meme
p734
(dp735
g3
(lp736
S'Yo'
p737
aS'dawg'
p738
ag129
asg18
S'Yo dawg! '
p739
sg20
S' PlaystatioN is better than X'
p740
sg22
Vtoday-was-a-good-day
p741
sg24
(lp742
g737
ag738
ag129
aS'PlaystatioN'
p743
aS'is'
p744
aS'better'
p745
aS'than'
p746
aS'X'
p747
asg26
(lp748
g743
ag744
ag745
ag746
ag747
asba(iMeme
Meme
p749
(dp750
g3
(lp751
S'lecture'
p752
aS'canceled'
p753
asg18
S'lecture canceled '
p754
sg20
S' today was a good day  '
p755
sg22
Vtoday-was-a-good-day
p756
sg24
(lp757
g752
ag753
aS'today'
p758
aS'was'
p759
ag43
aS'good'
p760
aS'day'
p761
asg26
(lp762
g758
ag759
ag43
ag760
ag761
asba(iMeme
Meme
p763
(dp764
g3
(lp765
S'Got'
p766
ag43
aS'Tots'
p767
aS'and'
p768
ag43
aS'IF'
p769
asg18
S'Got a Tots and a IF '
p770
sg20
S' today was a good day '
p771
sg22
Vtoday-was-a-good-day
p772
sg24
(lp773
g766
ag43
ag767
ag768
ag43
ag769
aS'today'
p774
aS'was'
p775
ag43
aS'good'
p776
aS'day'
p777
asg26
(lp778
g774
ag775
ag43
ag776
ag777
asba(iMeme
Meme
p779
(dp780
g3
(lp781
g66
aS'turned'
p782
aS'19'
p783
asg18
S'I turned 19 '
p784
sg20
S' it was a good day '
p785
sg22
Vtoday-was-a-good-day
p786
sg24
(lp787
g66
ag782
ag783
aS'it'
p788
aS'was'
p789
ag43
aS'good'
p790
aS'day'
p791
asg26
(lp792
g788
ag789
ag43
ag790
ag791
asba(iMeme
Meme
p793
(dp794
g3
(lp795
g66
aS'commented'
p796
aS'on'
p797
ag43
aS'post'
p798
aS'and'
p799
aS"did'NT"
p800
aS'get'
p801
aS'ridiculed'
p802
asg18
S"I commented on a post and did'NT get ridiculed "
p803
sg20
S' today was a good day '
p804
sg22
Vtoday-was-a-good-day
p805
sg24
(lp806
g66
ag796
ag797
ag43
ag798
ag799
ag800
ag801
ag802
aS'today'
p807
aS'was'
p808
ag43
aS'good'
p809
aS'day'
p810
asg26
(lp811
g807
ag808
ag43
ag809
ag810
asba(iMeme
Meme
p812
(dp813
g3
(lp814
g462
aS'had'
p815
aS'to'
p816
aS'tofu'
p817
aS'at'
p818
aS'lotus'
p819
aS'inn'
p820
asg18
S'i had to tofu at lotus inn '
p821
sg20
S' today was a good day '
p822
sg22
Vtoday-was-a-good-day
p823
sg24
(lp824
g462
ag815
ag816
ag817
ag818
ag819
ag820
aS'today'
p825
aS'was'
p826
ag43
aS'good'
p827
aS'day'
p828
asg26
(lp829
g825
ag826
ag43
ag827
ag828
asba(iMeme
Meme
p830
(dp831
g3
(lp832
S'Braden'
p833
aS'Black'
p834
aS'threw'
p835
aS'for'
p836
aS'6'
p837
aS'tds'
p838
aS'&'
p839
aS'378'
p840
aS'yrds'
p841
asg18
S'Braden Black threw for 6 tds & 378 yrds '
p842
sg20
S' Today was a good day. '
p843
sg22
Vtoday-was-a-good-day
p844
sg24
(lp845
g833
ag834
ag835
ag836
ag837
ag838
ag839
ag840
ag841
aS'Today'
p846
aS'was'
p847
ag43
aS'good'
p848
aS'day'
p849
ag97
asg26
(lp850
g846
ag847
ag43
ag848
ag849
ag97
asba(iMeme
Meme
p851
(dp852
g3
(lp853
S'UGA'
p854
aS'beat'
p855
aS'SC'
p856
asg18
S'UGA beat SC '
p857
sg20
S' FLA also lost  '
p858
sg22
Vtoday-was-a-good-day
p859
sg24
(lp860
g854
ag855
ag856
aS'FLA'
p861
aS'also'
p862
aS'lost'
p863
asg26
(lp864
g861
ag862
ag863
asba(iMeme
Meme
p865
(dp866
g3
(lp867
S'You'
p868
aS'know'
p869
aS'niang'
p870
asg18
S'You know niang  '
p871
sg20
S' well, he is god '
p872
sg22
Vtoday-was-a-good-day
p873
sg24
(lp874
g868
ag869
ag870
aS'well'
p875
ag361
aS'he'
p876
aS'is'
p877
aS'god'
p878
asg26
(lp879
g875
ag361
ag876
ag877
ag878
asba(iMeme
Meme
p880
(dp881
g3
(lp882
S'Had'
p883
aS'three'
p884
aS'customers'
p885
aS'call'
p886
aS'in'
p887
aS'to'
p888
aS'tell'
p889
aS'the'
p890
aS'managers'
p891
aS'how'
p892
aS'awesome'
p893
ag66
aS'am'
p894
asg18
S'Had three customers call in to tell the managers how awesome I am '
p895
sg20
S' Today was a good day '
p896
sg22
Vtoday-was-a-good-day
p897
sg24
(lp898
g883
ag884
ag885
ag886
ag887
ag888
ag889
ag890
ag891
ag892
ag893
ag66
ag894
aS'Today'
p899
aS'was'
p900
ag43
aS'good'
p901
aS'day'
p902
asg26
(lp903
g899
ag900
ag43
ag901
ag902
asba(iMeme
Meme
p904
(dp905
g3
(lp906
S'Braden'
p907
aS'Black'
p908
aS'threw'
p909
aS'for'
p910
aS'6tds'
p911
ag839
aS'378yrds'
p912
asg18
S'Braden Black threw for 6tds & 378yrds '
p913
sg20
S' Today was a good day. '
p914
sg22
Vtoday-was-a-good-day
p915
sg24
(lp916
g907
ag908
ag909
ag910
ag911
ag839
ag912
aS'Today'
p917
aS'was'
p918
ag43
aS'good'
p919
aS'day'
p920
ag97
asg26
(lp921
g917
ag918
ag43
ag919
ag920
ag97
asba(iMeme
Meme
p922
(dp923
g3
(lp924
S'Played'
p925
aS'with'
p926
aS'my'
p927
aS'cat'
p928
aS'and'
p929
aS'he'
p930
aS'did'
p931
aS"n't"
p932
aS'draw'
p933
aS'blood'
p934
ag552
asg18
S"Played with my cat and he didn't draw blood? "
p935
sg20
S' today was a good day '
p936
sg22
Vtoday-was-a-good-day
p937
sg24
(lp938
g925
ag926
ag927
ag928
ag929
ag930
ag931
ag932
ag933
ag934
ag552
aS'today'
p939
aS'was'
p940
ag43
aS'good'
p941
aS'day'
p942
asg26
(lp943
g939
ag940
ag43
ag941
ag942
asba(iMeme
Meme
p944
(dp945
g3
(lp946
S'Won'
p947
aS'$'
p948
aS'25'
p949
aS'because'
p950
aS'the'
p951
aS'Royals'
p952
aS'have'
p953
ag43
aS'better'
p954
aS'record'
p955
aS'than'
p956
aS'the'
p957
aS'Giants'
p958
ag129
asg18
S'Won $25 because the Royals have a better record than the Giants! '
p959
sg20
S' Today was a good day '
p960
sg22
Vtoday-was-a-good-day
p961
sg24
(lp962
g947
ag948
ag949
ag950
ag951
ag952
ag953
ag43
ag954
ag955
ag956
ag957
ag958
ag129
aS'Today'
p963
aS'was'
p964
ag43
aS'good'
p965
aS'day'
p966
asg26
(lp967
g963
ag964
ag43
ag965
ag966
asba(iMeme
Meme
p968
(dp969
g3
(lp970
S'Today'
p971
ag361
ag66
aS'did'
p972
aS"n't"
p973
aS'have'
p974
aS'to'
p975
aS'put'
p976
aS'on'
p977
aS'pants'
p978
aS'until'
p979
ag837
aS'PM'
p980
asg18
S"Today, I didn't have to put on pants until 6 PM "
p981
sg20
S' Today was a good day '
p982
sg22
Vtoday-was-a-good-day
p983
sg24
(lp984
g971
ag361
ag66
ag972
ag973
ag974
ag975
ag976
ag977
ag978
ag979
ag837
ag980
aS'Today'
p985
aS'was'
p986
ag43
aS'good'
p987
aS'day'
p988
asg26
(lp989
g985
ag986
ag43
ag987
ag988
asba(iMeme
Meme
p990
(dp991
g3
(lp992
g66
aS'realized'
p993
ag66
aS'was'
p994
aS'an'
p995
aS'aggressive'
p996
aS'driver'
p997
asg18
S'I realized I was an aggressive driver '
p998
sg20
S' when my 4 yr old yelled"pick a lane fool" from the seat in the grocery cart '
p999
sg22
Vtoday-was-a-good-day
p1000
sg24
(lp1001
g66
ag993
ag66
ag994
ag995
ag996
ag997
aS'when'
p1002
aS'my'
p1003
aS'4'
p1004
aS'yr'
p1005
aS'old'
p1006
aS'yelled'
p1007
aS"''"
p1008
aS'pick'
p1009
ag43
aS'lane'
p1010
aS'fool'
p1011
aS"''"
p1012
aS'from'
p1013
aS'the'
p1014
aS'seat'
p1015
aS'in'
p1016
aS'the'
p1017
aS'grocery'
p1018
aS'cart'
p1019
asg26
(lp1020
g1002
ag1003
ag1004
ag1005
ag1006
ag1007
ag1008
ag1009
ag43
ag1010
ag1011
ag1012
ag1013
ag1014
ag1015
ag1016
ag1017
ag1018
ag1019
asba(iMeme
Meme
p1021
(dp1022
g3
(lp1023
S'Had'
p1024
ag43
aS'burrito'
p1025
aS'for'
p1026
aS'breakfast'
p1027
ag361
aS'lunch'
p1028
ag361
aS'and'
p1029
aS'dinner'
p1030
asg18
S'Had a burrito for breakfast, lunch, and dinner '
p1031
sg20
S' today was a good day '
p1032
sg22
Vtoday-was-a-good-day
p1033
sg24
(lp1034
g1024
ag43
ag1025
ag1026
ag1027
ag361
ag1028
ag361
ag1029
ag1030
aS'today'
p1035
aS'was'
p1036
ag43
aS'good'
p1037
aS'day'
p1038
asg26
(lp1039
g1035
ag1036
ag43
ag1037
ag1038
asba(iMeme
Meme
p1040
(dp1041
g3
(lp1042
S'Today'
p1043
ag361
ag66
aS'found'
p1044
aS'out'
p1045
aS'Stronghold'
p1046
aS'Crusader'
p1047
aS'II'
p1048
aS'started'
p1049
aS'the'
p1050
aS'Crowdfunding'
p1051
asg18
S'Today, I found out Stronghold Crusader II started the Crowdfunding '
p1052
sg20
S' Today was a good day '
p1053
sg22
Vtoday-was-a-good-day
p1054
sg24
(lp1055
g1043
ag361
ag66
ag1044
ag1045
ag1046
ag1047
ag1048
ag1049
ag1050
ag1051
aS'Today'
p1056
aS'was'
p1057
ag43
aS'good'
p1058
aS'day'
p1059
asg26
(lp1060
g1056
ag1057
ag43
ag1058
ag1059
asba(iMeme
Meme
p1061
(dp1062
g3
(lp1063
sg18
S' '
p1064
sg20
S' Today was a good day '
p1065
sg22
Vtoday-was-a-good-day
p1066
sg24
(lp1067
S'Today'
p1068
aS'was'
p1069
ag43
aS'good'
p1070
aS'day'
p1071
asg26
(lp1072
g1068
ag1069
ag43
ag1070
ag1071
asba(iMeme
Meme
p1073
(dp1074
g3
(lp1075
S'Today'
p1076
ag66
aS"poo'ed"
p1077
ag97
asg18
S"Today I poo'ed. "
p1078
sg20
S' Today was a good day. '
p1079
sg22
Vtoday-was-a-good-day
p1080
sg24
(lp1081
g1076
ag66
ag1077
ag97
aS'Today'
p1082
aS'was'
p1083
ag43
aS'good'
p1084
aS'day'
p1085
ag97
asg26
(lp1086
g1082
ag1083
ag43
ag1084
ag1085
ag97
asba(iMeme
Meme
p1087
(dp1088
g3
(lp1089
S'Niggas'
p1090
aS'be'
p1091
aS'like'
p1092
asg18
S'Niggas be like '
p1093
sg20
S' I got the chopper cuhh were dey at '
p1094
sg22
Vtoday-was-a-good-day
p1095
sg24
(lp1096
g1090
ag1091
ag1092
ag66
aS'got'
p1097
aS'the'
p1098
aS'chopper'
p1099
aS'cuhh'
p1100
aS'were'
p1101
aS'dey'
p1102
aS'at'
p1103
asg26
(lp1104
g66
ag1097
ag1098
ag1099
ag1100
ag1101
ag1102
ag1103
asba(iMeme
Meme
p1105
(dp1106
g3
(lp1107
S'Got'
p1108
aS'retweeted'
p1109
aS'by'
p1110
aS'Duffelblog'
p1111
aS'and'
p1112
aS'Terminal'
p1113
aS'Lance'
p1114
asg18
S'Got retweeted by Duffelblog and Terminal Lance '
p1115
sg20
S' Today was a good day '
p1116
sg22
Vtoday-was-a-good-day
p1117
sg24
(lp1118
g1108
ag1109
ag1110
ag1111
ag1112
ag1113
ag1114
aS'Today'
p1119
aS'was'
p1120
ag43
aS'good'
p1121
aS'day'
p1122
asg26
(lp1123
g1119
ag1120
ag43
ag1121
ag1122
asba(iMeme
Meme
p1124
(dp1125
g3
(lp1126
S'plays'
p1127
aS'team'
p1128
aS'with'
p1129
aS'van'
p1130
aS'buyten'
p1131
asg18
S'plays team with van buyten '
p1132
sg20
S' today was a good day '
p1133
sg22
Vtoday-was-a-good-day
p1134
sg24
(lp1135
g1127
ag1128
ag1129
ag1130
ag1131
aS'today'
p1136
aS'was'
p1137
ag43
aS'good'
p1138
aS'day'
p1139
asg26
(lp1140
g1136
ag1137
ag43
ag1138
ag1139
asba(iMeme
Meme
p1141
(dp1142
g3
(lp1143
S'K9s'
p1144
aS'took'
p1145
aS'my'
p1146
aS'neighbor'
p1147
aS'down'
p1148
asg18
S'K9s took my neighbor down '
p1149
sg20
S' Today was a good day '
p1150
sg22
Vtoday-was-a-good-day
p1151
sg24
(lp1152
g1144
ag1145
ag1146
ag1147
ag1148
aS'Today'
p1153
aS'was'
p1154
ag43
aS'good'
p1155
aS'day'
p1156
asg26
(lp1157
g1153
ag1154
ag43
ag1155
ag1156
asba(iMeme
Meme
p1158
(dp1159
g3
(lp1160
S'Got'
p1161
aS'2'
p1162
aS'onion'
p1163
aS'rings'
p1164
aS'in'
p1165
aS'my'
p1166
aS'basket'
p1167
aS'of'
p1168
aS'fries'
p1169
asg18
S'Got 2 onion rings in my basket of fries '
p1170
sg20
S' Today was a good day '
p1171
sg22
Vtoday-was-a-good-day
p1172
sg24
(lp1173
g1161
ag1162
ag1163
ag1164
ag1165
ag1166
ag1167
ag1168
ag1169
aS'Today'
p1174
aS'was'
p1175
ag43
aS'good'
p1176
aS'day'
p1177
asg26
(lp1178
g1174
ag1175
ag43
ag1176
ag1177
asba(iMeme
Meme
p1179
(dp1180
g3
(lp1181
sg18
S' '
p1182
sg20
S' Today was a good day '
p1183
sg22
Vtoday-was-a-good-day
p1184
sg24
(lp1185
S'Today'
p1186
aS'was'
p1187
ag43
aS'good'
p1188
aS'day'
p1189
asg26
(lp1190
g1186
ag1187
ag43
ag1188
ag1189
asba(iMeme
Meme
p1191
(dp1192
g3
(lp1193
S'after'
p1194
aS'having'
p1195
aS'sex'
p1196
aS'with'
p1197
aS'sanae'
p1198
asg18
S'after having sex with sanae '
p1199
sg20
S' today was a good day '
p1200
sg22
Vtoday-was-a-good-day
p1201
sg24
(lp1202
g1194
ag1195
ag1196
ag1197
ag1198
aS'today'
p1203
aS'was'
p1204
ag43
aS'good'
p1205
aS'day'
p1206
asg26
(lp1207
g1203
ag1204
ag43
ag1205
ag1206
asba(iMeme
Meme
p1208
(dp1209
g3
(lp1210
S'It'
p1211
aS'was'
p1212
ag43
aS'good'
p1213
aS'day'
p1214
asg18
S'It was a good day '
p1215
sg20
S' I heard the roostar incorporated '
p1216
sg22
Vtoday-was-a-good-day
p1217
sg24
(lp1218
g1211
ag1212
ag43
ag1213
ag1214
ag66
aS'heard'
p1219
aS'the'
p1220
aS'roostar'
p1221
aS'incorporated'
p1222
asg26
(lp1223
g66
ag1219
ag1220
ag1221
ag1222
asba(iMeme
Meme
p1224
(dp1225
g3
(lp1226
S'Did'
p1227
aS'not'
p1228
aS'mess'
p1229
aS'up'
p1230
aS'the'
p1231
aS'code'
p1232
asg18
S'Did not mess up the code '
p1233
sg20
S' Today was a good day  '
p1234
sg22
Vtoday-was-a-good-day
p1235
sg24
(lp1236
g1227
ag1228
ag1229
ag1230
ag1231
ag1232
aS'Today'
p1237
aS'was'
p1238
ag43
aS'good'
p1239
aS'day'
p1240
asg26
(lp1241
g1237
ag1238
ag43
ag1239
ag1240
asba(iMeme
Meme
p1242
(dp1243
g3
(lp1244
S'today'
p1245
aS'is'
p1246
aS'friday'
p1247
asg18
S'today is friday  '
p1248
sg20
S' today is a good day '
p1249
sg22
Vtoday-was-a-good-day
p1250
sg24
(lp1251
g1245
ag1246
ag1247
aS'today'
p1252
aS'is'
p1253
ag43
aS'good'
p1254
aS'day'
p1255
asg26
(lp1256
g1252
ag1253
ag43
ag1254
ag1255
asba(iMeme
Meme
p1257
(dp1258
g3
(lp1259
S'Finally'
p1260
aS'saw'
p1261
ag43
aS'good'
p1262
aS'meme'
p1263
aS'about'
p1264
aS'soccer'
p1265
asg18
S'Finally saw a good meme about soccer '
p1266
sg20
S' Today was a good day '
p1267
sg22
Vtoday-was-a-good-day
p1268
sg24
(lp1269
g1260
ag1261
ag43
ag1262
ag1263
ag1264
ag1265
aS'Today'
p1270
aS'was'
p1271
ag43
aS'good'
p1272
aS'day'
p1273
asg26
(lp1274
g1270
ag1271
ag43
ag1272
ag1273
asba(iMeme
Meme
p1275
(dp1276
g3
(lp1277
S'Made'
p1278
aS'three'
p1279
aS'friends'
p1280
aS'at'
p1281
aS'college'
p1282
asg18
S'Made three friends at college  '
p1283
sg20
S' Today was a good day  '
p1284
sg22
Vtoday-was-a-good-day
p1285
sg24
(lp1286
g1278
ag1279
ag1280
ag1281
ag1282
aS'Today'
p1287
aS'was'
p1288
ag43
aS'good'
p1289
aS'day'
p1290
asg26
(lp1291
g1287
ag1288
ag43
ag1289
ag1290
asba(iMeme
Meme
p1292
(dp1293
g3
(lp1294
sg18
S' '
p1295
sg20
S' Today was a good day '
p1296
sg22
Vtoday-was-a-good-day
p1297
sg24
(lp1298
S'Today'
p1299
aS'was'
p1300
ag43
aS'good'
p1301
aS'day'
p1302
asg26
(lp1303
g1299
ag1300
ag43
ag1301
ag1302
asba(iMeme
Meme
p1304
(dp1305
g3
(lp1306
S'Fixed'
p1307
ag43
aS'teacher'
p1308
aS"'s"
p1309
aS'computer'
p1310
asg18
S"Fixed a teacher's computer "
p1311
sg20
S' today was a good day '
p1312
sg22
Vtoday-was-a-good-day
p1313
sg24
(lp1314
g1307
ag43
ag1308
ag1309
ag1310
aS'today'
p1315
aS'was'
p1316
ag43
aS'good'
p1317
aS'day'
p1318
asg26
(lp1319
g1315
ag1316
ag43
ag1317
ag1318
asba(iMeme
Meme
p1320
(dp1321
g3
(lp1322
S'Became'
p1323
aS'an'
p1324
aS'admin'
p1325
asg18
S'Became an admin '
p1326
sg20
S' Today was a good dau '
p1327
sg22
Vtoday-was-a-good-day
p1328
sg24
(lp1329
g1323
ag1324
ag1325
aS'Today'
p1330
aS'was'
p1331
ag43
aS'good'
p1332
aS'dau'
p1333
asg26
(lp1334
g1330
ag1331
ag43
ag1332
ag1333
asba(iMeme
Meme
p1335
(dp1336
g3
(lp1337
S'Check'
p1338
aS'PW'
p1339
aS'run'
p1340
aS'nightly'
p1341
ag129
ag129
asg18
S'Check PW run nightly!! '
p1342
sg20
S' False alarm.  All is good in the hood. '
p1343
sg22
Vtoday-was-a-good-day
p1344
sg24
(lp1345
g1338
ag1339
ag1340
ag1341
ag129
ag129
aS'False'
p1346
aS'alarm'
p1347
ag97
aS'All'
p1348
aS'is'
p1349
aS'good'
p1350
aS'in'
p1351
aS'the'
p1352
aS'hood'
p1353
ag97
asg26
(lp1354
g1346
ag1347
ag97
ag1348
ag1349
ag1350
ag1351
ag1352
ag1353
ag97
asba(iMeme
Meme
p1355
(dp1356
g3
(lp1357
sg18
S' '
p1358
sg20
S' Dan did his job '
p1359
sg22
Vtoday-was-a-good-day
p1360
sg24
(lp1361
S'Dan'
p1362
aS'did'
p1363
aS'his'
p1364
aS'job'
p1365
asg26
(lp1366
g1362
ag1363
ag1364
ag1365
asba(iMeme
Meme
p1367
(dp1368
g3
(lp1369
S'killed'
p1370
aS'the'
p1371
aS'enemy'
p1372
aS'team'
p1373
aS'who'
p1374
aS'was'
p1375
aS'talking'
p1376
aS'shit'
p1377
asg18
S'killed the enemy team who was talking shit '
p1378
sg20
S' today was a good day '
p1379
sg22
Vtoday-was-a-good-day
p1380
sg24
(lp1381
g1370
ag1371
ag1372
ag1373
ag1374
ag1375
ag1376
ag1377
aS'today'
p1382
aS'was'
p1383
ag43
aS'good'
p1384
aS'day'
p1385
asg26
(lp1386
g1382
ag1383
ag43
ag1384
ag1385
asba(iMeme
Meme
p1387
(dp1388
g3
(lp1389
S'Passed'
p1390
aS'all'
p1391
ag1004
aS'courses'
p1392
aS'and'
p1393
aS'became'
p1394
aS'2nd'
p1395
aS'in'
p1396
aS'turned'
p1397
asg18
S'Passed all 4  courses and became 2nd in turned  '
p1398
sg20
S' Today was a good day '
p1399
sg22
Vtoday-was-a-good-day
p1400
sg24
(lp1401
g1390
ag1391
ag1004
ag1392
ag1393
ag1394
ag1395
ag1396
ag1397
aS'Today'
p1402
aS'was'
p1403
ag43
aS'good'
p1404
aS'day'
p1405
asg26
(lp1406
g1402
ag1403
ag43
ag1404
ag1405
asba(iMeme
Meme
p1407
(dp1408
g3
(lp1409
S'Got'
p1410
aS'to'
p1411
aS'get'
p1412
aS'there'
p1413
aS'b4'
p1414
aS'they'
p1415
aS'close'
p1416
aS'shake'
p1417
aS'it'
p1418
aS'up'
p1419
asg18
S'Got to get there b4 they close shake it up '
p1420
sg20
S'  '
p1421
sg22
Vtoday-was-a-good-day
p1422
sg24
(lp1423
g1410
ag1411
ag1412
ag1413
ag1414
ag1415
ag1416
ag1417
ag1418
ag1419
asg26
(lp1424
sba(iMeme
Meme
p1425
(dp1426
g3
(lp1427
sg18
S' '
p1428
sg20
S' i new it should of been waisted at nikaus hood '
p1429
sg22
Vtoday-was-a-good-day
p1430
sg24
(lp1431
g462
aS'new'
p1432
aS'it'
p1433
aS'should'
p1434
aS'of'
p1435
aS'been'
p1436
aS'waisted'
p1437
aS'at'
p1438
aS'nikaus'
p1439
aS'hood'
p1440
asg26
(lp1441
g462
ag1432
ag1433
ag1434
ag1435
ag1436
ag1437
ag1438
ag1439
ag1440
asba(iMeme
Meme
p1442
(dp1443
g3
(lp1444
S'touched'
p1445
ag43
aS'cat'
p1446
asg18
S'touched a cat '
p1447
sg20
S' today was a good day '
p1448
sg22
Vtoday-was-a-good-day
p1449
sg24
(lp1450
g1445
ag43
ag1446
aS'today'
p1451
aS'was'
p1452
ag43
aS'good'
p1453
aS'day'
p1454
asg26
(lp1455
g1451
ag1452
ag43
ag1453
ag1454
asba(iMeme
Meme
p1456
(dp1457
g3
(lp1458
g462
aS'waisted'
p1459
aS'my'
p1460
aS'money'
p1461
aS'on'
p1462
aS'kahikatea'
p1463
asg18
S'i waisted my money on kahikatea '
p1464
sg20
S'  '
p1465
sg22
Vtoday-was-a-good-day
p1466
sg24
(lp1467
g462
ag1459
ag1460
ag1461
ag1462
ag1463
asg26
(lp1468
sba(iMeme
Meme
p1469
(dp1470
g3
(lp1471
S'DOMA'
p1472
aS'declared'
p1473
aS'unconstitutional'
p1474
aS'Daft'
p1475
aS'Punk'
p1476
aS'remix'
p1477
aS'drops'
p1478
asg18
S'DOMA declared unconstitutional   Daft Punk remix drops '
p1479
sg20
S' today is a good day '
p1480
sg22
Vtoday-was-a-good-day
p1481
sg24
(lp1482
g1472
ag1473
ag1474
ag1475
ag1476
ag1477
ag1478
aS'today'
p1483
aS'is'
p1484
ag43
aS'good'
p1485
aS'day'
p1486
asg26
(lp1487
g1483
ag1484
ag43
ag1485
ag1486
asba(iMeme
Meme
p1488
(dp1489
g3
(lp1490
S'TOday'
p1491
aS'was'
p1492
ag43
aS'good'
p1493
aS'day'
p1494
asg18
S'TOday was a good day '
p1495
sg20
S'  '
p1496
sg22
Vtoday-was-a-good-day
p1497
sg24
(lp1498
g1491
ag1492
ag43
ag1493
ag1494
asg26
(lp1499
sba(iMeme
Meme
p1500
(dp1501
g3
(lp1502
S'got'
p1503
aS'my'
p1504
aS'blue'
p1505
aS'belt'
p1506
asg18
S'got my blue belt '
p1507
sg20
S' today was a good day '
p1508
sg22
Vtoday-was-a-good-day
p1509
sg24
(lp1510
g1503
ag1504
ag1505
ag1506
aS'today'
p1511
aS'was'
p1512
ag43
aS'good'
p1513
aS'day'
p1514
asg26
(lp1515
g1511
ag1512
ag43
ag1513
ag1514
asba(iMeme
Meme
p1516
(dp1517
g3
(lp1518
S'Iran'
p1519
aS"'s"
p1520
aS'nuclear'
p1521
aS'program'
p1522
aS'is'
p1523
aS'peaceful'
p1524
ag361
aS'confirmed'
p1525
aS'by'
p1526
aS'iaea'
p1527
asg18
S"Iran's nuclear program is peaceful, confirmed by iaea "
p1528
sg20
S' Today was a good day '
p1529
sg22
Vtoday-was-a-good-day
p1530
sg24
(lp1531
g1519
ag1520
ag1521
ag1522
ag1523
ag1524
ag361
ag1525
ag1526
ag1527
aS'Today'
p1532
aS'was'
p1533
ag43
aS'good'
p1534
aS'day'
p1535
asg26
(lp1536
g1532
ag1533
ag43
ag1534
ag1535
asba(iMeme
Meme
p1537
(dp1538
g3
(lp1539
S'played'
p1540
aS'for'
p1541
ag309
aS'hours'
p1542
aS'without'
p1543
aS'hearing'
p1544
ag43
aS'12'
p1545
aS'year'
p1546
aS'old'
p1547
aS'scream'
p1548
aS'the'
p1549
aS'word'
p1550
aS'``'
p1551
aS'poop'
p1552
aS"''"
p1553
aS'into'
p1554
aS'the'
p1555
aS'microphone'
p1556
ag97
asg18
S'played for 3 hours without hearing a 12 year old scream the word "poop" into the microphone. '
p1557
sg20
S' TOday was a good day. '
p1558
sg22
Vtoday-was-a-good-day
p1559
sg24
(lp1560
g1540
ag1541
ag309
ag1542
ag1543
ag1544
ag43
ag1545
ag1546
ag1547
ag1548
ag1549
ag1550
ag1551
ag1552
ag1553
ag1554
ag1555
ag1556
ag97
aS'TOday'
p1561
aS'was'
p1562
ag43
aS'good'
p1563
aS'day'
p1564
ag97
asg26
(lp1565
g1561
ag1562
ag43
ag1563
ag1564
ag97
asba(iMeme
Meme
p1566
(dp1567
g3
(lp1568
S'NAme'
p1569
aS'was'
p1570
aS'is'
p1571
aS'the'
p1572
aS'attractive'
p1573
aS'name'
p1574
aS'thread'
p1575
aS'and'
p1576
aS'not'
p1577
aS'the'
p1578
aS'unattractive'
p1579
aS'one'
p1580
asg18
S'NAme was is the attractive name thread and not the unattractive one '
p1581
sg20
S' today was a good day '
p1582
sg22
Vtoday-was-a-good-day
p1583
sg24
(lp1584
g1569
ag1570
ag1571
ag1572
ag1573
ag1574
ag1575
ag1576
ag1577
ag1578
ag1579
ag1580
aS'today'
p1585
aS'was'
p1586
ag43
aS'good'
p1587
aS'day'
p1588
asg26
(lp1589
g1585
ag1586
ag43
ag1587
ag1588
asba(iMeme
Meme
p1590
(dp1591
g3
(lp1592
S'no'
p1593
aS'separation'
p1594
aS'And'
p1595
aS'teg'
p1596
aS'results'
p1597
asg18
S'no separation And teg results '
p1598
sg20
S' today was a GOOd day '
p1599
sg22
Vtoday-was-a-good-day
p1600
sg24
(lp1601
g1593
ag1594
ag1595
ag1596
ag1597
aS'today'
p1602
aS'was'
p1603
ag43
aS'GOOd'
p1604
aS'day'
p1605
asg26
(lp1606
g1602
ag1603
ag43
ag1604
ag1605
asba(iMeme
Meme
p1607
(dp1608
g3
(lp1609
S'Redditor'
p1610
aS'for'
p1611
ag1004
aS'hours'
p1612
ag361
aS'got'
p1613
aS'over'
p1614
aS'30'
p1615
aS'karma'
p1616
asg18
S'Redditor for 4 hours, got over 30 karma '
p1617
sg20
S' Today was a good day '
p1618
sg22
Vtoday-was-a-good-day
p1619
sg24
(lp1620
g1610
ag1611
ag1004
ag1612
ag361
ag1613
ag1614
ag1615
ag1616
aS'Today'
p1621
aS'was'
p1622
ag43
aS'good'
p1623
aS'day'
p1624
asg26
(lp1625
g1621
ag1622
ag43
ag1623
ag1624
asba(iMeme
Meme
p1626
(dp1627
g3
(lp1628
S'Played'
p1629
aS'12'
p1630
aS'straight'
p1631
aS'hours'
p1632
aS'without'
p1633
aS'hearing'
p1634
ag43
aS'12'
p1635
aS'year'
p1636
aS'old'
p1637
aS'scream'
p1638
aS'the'
p1639
aS'word'
p1640
aS'``'
p1641
aS'poop'
p1642
aS"''"
p1643
aS'into'
p1644
aS'the'
p1645
aS'microphone'
p1646
asg18
S'Played 12 straight hours without hearing a 12 year old scream the word "poop" into the microphone '
p1647
sg20
S' today was a good day. '
p1648
sg22
Vtoday-was-a-good-day
p1649
sg24
(lp1650
g1629
ag1630
ag1631
ag1632
ag1633
ag1634
ag43
ag1635
ag1636
ag1637
ag1638
ag1639
ag1640
ag1641
ag1642
ag1643
ag1644
ag1645
ag1646
aS'today'
p1651
aS'was'
p1652
ag43
aS'good'
p1653
aS'day'
p1654
ag97
asg26
(lp1655
g1651
ag1652
ag43
ag1653
ag1654
ag97
asba(iMeme
Meme
p1656
(dp1657
g3
(lp1658
S'Hey'
p1659
aS'is'
p1660
aS'that'
p1661
aS'my'
p1662
aS'WifE'
p1663
asg18
S'Hey is that my WifE '
p1664
sg20
S'  '
p1665
sg22
Vtoday-was-a-good-day
p1666
sg24
(lp1667
g1659
ag1660
ag1661
ag1662
ag1663
asg26
(lp1668
sba(iMeme
Meme
p1669
(dp1670
g3
(lp1671
S'won'
p1672
ag43
aS'sturgon'
p1673
aS'race'
p1674
asg18
S'won a sturgon race '
p1675
sg20
S' today was a good day '
p1676
sg22
Vtoday-was-a-good-day
p1677
sg24
(lp1678
g1672
ag43
ag1673
ag1674
aS'today'
p1679
aS'was'
p1680
ag43
aS'good'
p1681
aS'day'
p1682
asg26
(lp1683
g1679
ag1680
ag43
ag1681
ag1682
asba(iMeme
Meme
p1684
(dp1685
g3
(lp1686
S'Dealed'
p1687
aS'with'
p1688
aS'no'
p1689
aS'bullshit'
p1690
aS'today'
p1691
asg18
S'Dealed with no bullshit today '
p1692
sg20
S' today was a good day '
p1693
sg22
Vtoday-was-a-good-day
p1694
sg24
(lp1695
g1687
ag1688
ag1689
ag1690
ag1691
aS'today'
p1696
aS'was'
p1697
ag43
aS'good'
p1698
aS'day'
p1699
asg26
(lp1700
g1696
ag1697
ag43
ag1698
ag1699
asba(iMeme
Meme
p1701
(dp1702
g3
(lp1703
S'played'
p1704
aS'an'
p1705
aS'entire'
p1706
aS'match'
p1707
aS'with'
p1708
aS'no'
p1709
aS'campers'
p1710
asg18
S'played an entire match with no campers '
p1711
sg20
S' today was a good day '
p1712
sg22
Vtoday-was-a-good-day
p1713
sg24
(lp1714
g1704
ag1705
ag1706
ag1707
ag1708
ag1709
ag1710
aS'today'
p1715
aS'was'
p1716
ag43
aS'good'
p1717
aS'day'
p1718
asg26
(lp1719
g1715
ag1716
ag43
ag1717
ag1718
asba(iMeme
Meme
p1720
(dp1721
g3
(lp1722
S'Got'
p1723
aS'more'
p1724
aS'than'
p1725
aS'10'
p1726
aS'upvotes'
p1727
asg18
S'Got more than 10 upvotes '
p1728
sg20
S' today was a good day '
p1729
sg22
Vtoday-was-a-good-day
p1730
sg24
(lp1731
g1723
ag1724
ag1725
ag1726
ag1727
aS'today'
p1732
aS'was'
p1733
ag43
aS'good'
p1734
aS'day'
p1735
asg26
(lp1736
g1732
ag1733
ag43
ag1734
ag1735
asba(iMeme
Meme
p1737
(dp1738
g3
(lp1739
S'Got'
p1740
aS'aly'
p1741
aS"'s"
p1742
aS'number'
p1743
asg18
S"Got aly's number  "
p1744
sg20
S' today was a good day. '
p1745
sg22
Vtoday-was-a-good-day
p1746
sg24
(lp1747
g1740
ag1741
ag1742
ag1743
aS'today'
p1748
aS'was'
p1749
ag43
aS'good'
p1750
aS'day'
p1751
ag97
asg26
(lp1752
g1748
ag1749
ag43
ag1750
ag1751
ag97
asba(iMeme
Meme
p1753
(dp1754
g3
(lp1755
g66
aS'told'
p1756
aS'that'
p1757
aS'bitch'
p1758
aS'becky'
p1759
aS'no'
p1760
asg18
S'I told that bitch becky no '
p1761
sg20
S'  '
p1762
sg22
Vtoday-was-a-good-day
p1763
sg24
(lp1764
g66
ag1756
ag1757
ag1758
ag1759
ag1760
asg26
(lp1765
sba(iMeme
Meme
p1766
(dp1767
g3
(lp1768
g66
aS'want'
p1769
aS'upvotes'
p1770
asg18
S'I want upvotes '
p1771
sg20
S" you see me rollin' they hatin' "
p1772
sg22
Vtoday-was-a-good-day
p1773
sg24
(lp1774
g66
ag1769
ag1770
aS'you'
p1775
aS'see'
p1776
aS'me'
p1777
aS'rollin'
p1778
aS"'"
p1779
aS'they'
p1780
aS'hatin'
p1781
ag1779
asg26
(lp1782
g1775
ag1776
ag1777
ag1778
ag1779
ag1780
ag1781
ag1779
asba(iMeme
Meme
p1783
(dp1784
g3
(lp1785
S'Found'
p1786
aS'out'
p1787
aS'jesse'
p1788
aS'was'
p1789
aS'gay'
p1790
asg18
S'Found out jesse was gay '
p1791
sg20
S" today wasn't a good day "
p1792
sg22
Vtoday-was-a-good-day
p1793
sg24
(lp1794
g1786
ag1787
ag1788
ag1789
ag1790
aS'today'
p1795
aS'was'
p1796
aS"n't"
p1797
ag43
aS'good'
p1798
aS'day'
p1799
asg26
(lp1800
g1795
ag1796
ag1797
ag43
ag1798
ag1799
asba(iMeme
Meme
p1801
(dp1802
g3
(lp1803
S'Rapped'
p1804
aS'about'
p1805
aS'the'
p1806
aS'Illumanati'
p1807
asg18
S'Rapped about the Illumanati '
p1808
sg20
S' It Was a good day '
p1809
sg22
Vtoday-was-a-good-day
p1810
sg24
(lp1811
g1804
ag1805
ag1806
ag1807
aS'It'
p1812
aS'Was'
p1813
ag43
aS'good'
p1814
aS'day'
p1815
asg26
(lp1816
g1812
ag1813
ag43
ag1814
ag1815
asba(iMeme
Meme
p1817
(dp1818
g3
(lp1819
g462
aS'met'
p1820
ag43
aS'handsome'
p1821
aS'guy'
p1822
aS'at'
p1823
aS'work'
p1824
asg18
S'i met a handsome guy at work '
p1825
sg20
S' Today was a good day '
p1826
sg22
Vtoday-was-a-good-day
p1827
sg24
(lp1828
g462
ag1820
ag43
ag1821
ag1822
ag1823
ag1824
aS'Today'
p1829
aS'was'
p1830
ag43
aS'good'
p1831
aS'day'
p1832
asg26
(lp1833
g1829
ag1830
ag43
ag1831
ag1832
asba(iMeme
Meme
p1834
(dp1835
g3
(lp1836
S'Performed'
p1837
aS'work'
p1838
aS'within'
p1839
aS'my'
p1840
aS'job'
p1841
aS'descriPtion'
p1842
asg18
S'Performed work within my job descriPtion '
p1843
sg20
S' Today is a good day '
p1844
sg22
Vtoday-was-a-good-day
p1845
sg24
(lp1846
g1837
ag1838
ag1839
ag1840
ag1841
ag1842
aS'Today'
p1847
aS'is'
p1848
ag43
aS'good'
p1849
aS'day'
p1850
asg26
(lp1851
g1847
ag1848
ag43
ag1849
ag1850
asba(iMeme
Meme
p1852
(dp1853
g3
(lp1854
S'Balancing'
p1855
ag361
aS'aint'
p1856
asg18
S'Balancing, aint  '
p1857
sg20
S'  nobody got time for that '
p1858
sg22
Vtoday-was-a-good-day
p1859
sg24
(lp1860
g1855
ag361
ag1856
aS'nobody'
p1861
aS'got'
p1862
aS'time'
p1863
aS'for'
p1864
aS'that'
p1865
asg26
(lp1866
g1861
ag1862
ag1863
ag1864
ag1865
asba(iMeme
Meme
p1867
(dp1868
g3
(lp1869
S'thugz'
p1870
aS'be'
p1871
aS'like'
p1872
asg18
S'thugz be like '
p1873
sg20
S' i got a job interview  '
p1874
sg22
Vtoday-was-a-good-day
p1875
sg24
(lp1876
g1870
ag1871
ag1872
ag462
aS'got'
p1877
ag43
aS'job'
p1878
aS'interview'
p1879
asg26
(lp1880
g462
ag1877
ag43
ag1878
ag1879
asba(iMeme
Meme
p1881
(dp1882
g3
(lp1883
S'It'
p1884
aS'worked'
p1885
aS'out'
p1886
aS'for'
p1887
aS'OP'
p1888
aS'and'
p1889
aS'he'
p1890
aS'delivered'
p1891
asg18
S'It worked out for OP and he delivered '
p1892
sg20
S' Today was a good day '
p1893
sg22
Vtoday-was-a-good-day
p1894
sg24
(lp1895
g1884
ag1885
ag1886
ag1887
ag1888
ag1889
ag1890
ag1891
aS'Today'
p1896
aS'was'
p1897
ag43
aS'good'
p1898
aS'day'
p1899
asg26
(lp1900
g1896
ag1897
ag43
ag1898
ag1899
asba(iMeme
Meme
p1901
(dp1902
g3
(lp1903
S'picked'
p1904
aS'up'
p1905
ag43
aS'20M'
p1906
aS'job'
p1907
aS'today'
p1908
ag361
aS'so'
p1909
aS'exciting'
p1910
ag129
ag66
aS'actually'
p1911
aS'did'
p1912
aS'some'
p1913
aS'engineer'
p1914
asg18
S'picked up a 20M job today , so exciting ! I actually did some engineer'
p1915
sg20
S'y stuff and a mistake I thought I made ended up making us money.  '
p1916
sg22
Vtoday-was-a-good-day
p1917
sg24
(lp1918
g1904
ag1905
ag43
ag1906
ag1907
ag1908
ag361
ag1909
ag1910
ag129
ag66
ag1911
ag1912
ag1913
ag1914
ag612
aS'stuff'
p1919
aS'and'
p1920
ag43
aS'mistake'
p1921
ag66
aS'thought'
p1922
ag66
aS'made'
p1923
aS'ended'
p1924
aS'up'
p1925
aS'making'
p1926
aS'us'
p1927
aS'money'
p1928
ag97
asg26
(lp1929
g612
ag1919
ag1920
ag43
ag1921
ag66
ag1922
ag66
ag1923
ag1924
ag1925
ag1926
ag1927
ag1928
ag97
asba(iMeme
Meme
p1930
(dp1931
g3
(lp1932
S'street'
p1933
aS'food'
p1934
aS'did'
p1935
aS"n't"
p1936
aS'give'
p1937
aS'me'
p1938
aS'diarrhea'
p1939
asg18
S"street food didn't give me diarrhea "
p1940
sg20
S' today was a good day '
p1941
sg22
Vtoday-was-a-good-day
p1942
sg24
(lp1943
g1933
ag1934
ag1935
ag1936
ag1937
ag1938
ag1939
aS'today'
p1944
aS'was'
p1945
ag43
aS'good'
p1946
aS'day'
p1947
asg26
(lp1948
g1944
ag1945
ag43
ag1946
ag1947
asba(iMeme
Meme
p1949
(dp1950
g3
(lp1951
sg18
S' '
p1952
sg20
S' Today was a smashy day '
p1953
sg22
Vtoday-was-a-good-day
p1954
sg24
(lp1955
S'Today'
p1956
aS'was'
p1957
ag43
aS'smashy'
p1958
aS'day'
p1959
asg26
(lp1960
g1956
ag1957
ag43
ag1958
ag1959
asba(iMeme
Meme
p1961
(dp1962
g3
(lp1963
g66
aS'got'
p1964
aS'my'
p1965
aS'license'
p1966
aS'Today'
p1967
asg18
S'I got my license Today '
p1968
sg20
S' Today was a good day '
p1969
sg22
Vtoday-was-a-good-day
p1970
sg24
(lp1971
g66
ag1964
ag1965
ag1966
ag1967
aS'Today'
p1972
aS'was'
p1973
ag43
aS'good'
p1974
aS'day'
p1975
asg26
(lp1976
g1972
ag1973
ag43
ag1974
ag1975
asba(iMeme
Meme
p1977
(dp1978
g3
(lp1979
S'Only'
p1980
aS'got'
p1981
aS'tapped'
p1982
aS'by'
p1983
aS'Allen'
p1984
aS'five'
p1985
aS'times'
p1986
asg18
S'Only got tapped by Allen five times  '
p1987
sg20
S' Today was a good day '
p1988
sg22
Vtoday-was-a-good-day
p1989
sg24
(lp1990
g1980
ag1981
ag1982
ag1983
ag1984
ag1985
ag1986
aS'Today'
p1991
aS'was'
p1992
ag43
aS'good'
p1993
aS'day'
p1994
asg26
(lp1995
g1991
ag1992
ag43
ag1993
ag1994
asba(iMeme
Meme
p1996
(dp1997
g3
(lp1998
g462
aS'had'
p1999
aS'tofu'
p2000
aS'at'
p2001
aS'lotus'
p2002
aS'cafe'
p2003
asg18
S'i had tofu at lotus cafe '
p2004
sg20
S' today was a good day '
p2005
sg22
Vtoday-was-a-good-day
p2006
sg24
(lp2007
g462
ag1999
ag2000
ag2001
ag2002
ag2003
aS'today'
p2008
aS'was'
p2009
ag43
aS'good'
p2010
aS'day'
p2011
asg26
(lp2012
g2008
ag2009
ag43
ag2010
ag2011
asba(iMeme
Meme
p2013
(dp2014
g3
(lp2015
S'just'
p2016
aS'voted'
p2017
aS'for'
p2018
aS'jakob'
p2019
asg18
S'just voted for jakob '
p2020
sg20
S' today was a good day '
p2021
sg22
Vtoday-was-a-good-day
p2022
sg24
(lp2023
g2016
ag2017
ag2018
ag2019
aS'today'
p2024
aS'was'
p2025
ag43
aS'good'
p2026
aS'day'
p2027
asg26
(lp2028
g2024
ag2025
ag43
ag2026
ag2027
asba(iMeme
Meme
p2029
(dp2030
g3
(lp2031
S'just'
p2032
aS'escaped'
p2033
aS'the'
p2034
aS'friendzone'
p2035
asg18
S'just escaped the friendzone '
p2036
sg20
S' today was a good day '
p2037
sg22
Vtoday-was-a-good-day
p2038
sg24
(lp2039
g2032
ag2033
ag2034
ag2035
aS'today'
p2040
aS'was'
p2041
ag43
aS'good'
p2042
aS'day'
p2043
asg26
(lp2044
g2040
ag2041
ag43
ag2042
ag2043
asba(iMeme
Meme
p2045
(dp2046
g3
(lp2047
S'move'
p2048
aS'it'
p2049
ag129
ag129
ag129
ag129
ag129
asg18
S'move it !!!!! '
p2050
sg20
S' I got places to be people to rape!!!!!!! '
p2051
sg22
Vtoday-was-a-good-day
p2052
sg24
(lp2053
g2048
ag2049
ag129
ag129
ag129
ag129
ag129
ag66
aS'got'
p2054
aS'places'
p2055
aS'to'
p2056
aS'be'
p2057
aS'people'
p2058
aS'to'
p2059
aS'rape'
p2060
ag129
ag129
ag129
ag129
ag129
ag129
ag129
asg26
(lp2061
g66
ag2054
ag2055
ag2056
ag2057
ag2058
ag2059
ag2060
ag129
ag129
ag129
ag129
ag129
ag129
ag129
asba(iMeme
Meme
p2062
(dp2063
g3
(lp2064
S'viera'
p2065
aS'had'
p2066
aS'to'
p2067
aS'go'
p2068
aS'potty'
p2069
aS'on'
p2070
ag43
aS'long'
p2071
aS'road'
p2072
aS'trip'
p2073
ag97
aS'didnt'
p2074
aS'shit'
p2075
aS'her'
p2076
aS'pants'
p2077
ag97
asg18
S'viera had to go potty on a long road trip.  didnt shit her pants. '
p2078
sg20
S'  '
p2079
sg22
Vtoday-was-a-good-day
p2080
sg24
(lp2081
g2065
ag2066
ag2067
ag2068
ag2069
ag2070
ag43
ag2071
ag2072
ag2073
ag97
ag2074
ag2075
ag2076
ag2077
ag97
asg26
(lp2082
sba(iMeme
Meme
p2083
(dp2084
g3
(lp2085
S'Won'
p2086
ag948
aS'25'
p2087
aS'because'
p2088
aS'the'
p2089
aS'Royals'
p2090
aS'have'
p2091
ag43
aS'better'
p2092
aS'record'
p2093
aS'than'
p2094
aS'the'
p2095
aS'Giants'
p2096
ag129
asg18
S'Won $25 because the Royals have a better record than the Giants! '
p2097
sg20
S' Today was a good day '
p2098
sg22
Vtoday-was-a-good-day
p2099
sg24
(lp2100
g2086
ag948
ag2087
ag2088
ag2089
ag2090
ag2091
ag43
ag2092
ag2093
ag2094
ag2095
ag2096
ag129
aS'Today'
p2101
aS'was'
p2102
ag43
aS'good'
p2103
aS'day'
p2104
asg26
(lp2105
g2101
ag2102
ag43
ag2103
ag2104
asba(iMeme
Meme
p2106
(dp2107
g3
(lp2108
S'Ameristralia'
p2109
aS'is'
p2110
aS'now'
p2111
ag43
aS'thing'
p2112
aS'and'
p2113
ag462
aS'have'
p2114
aS'citizenship'
p2115
aS'for'
p2116
aS'both'
p2117
aS'countries'
p2118
asg18
S'Ameristralia is now a thing and i have citizenship for both countries '
p2119
sg20
S" Today was a g'day "
p2120
sg22
Vtoday-was-a-good-day
p2121
sg24
(lp2122
g2109
ag2110
ag2111
ag43
ag2112
ag2113
ag462
ag2114
ag2115
ag2116
ag2117
ag2118
aS'Today'
p2123
aS'was'
p2124
ag43
aS"g'day"
p2125
asg26
(lp2126
g2123
ag2124
ag43
ag2125
asba(iMeme
Meme
p2127
(dp2128
g3
(lp2129
S'today'
p2130
aS'is'
p2131
aS'payday'
p2132
ag361
ag66
aS'paid'
p2133
aS'off'
p2134
aS'my'
p2135
aS'credit'
p2136
aS'card'
p2137
aS'in'
p2138
aS'full'
p2139
aS'and'
p2140
aS'still'
p2141
aS'have'
p2142
aS'money'
p2143
aS'left'
p2144
aS'over'
p2145
asg18
S' today is payday, I  paid off my credit card in full and still have money left over '
p2146
sg20
S'  today was a good day '
p2147
sg22
Vtoday-was-a-good-day
p2148
sg24
(lp2149
g2130
ag2131
ag2132
ag361
ag66
ag2133
ag2134
ag2135
ag2136
ag2137
ag2138
ag2139
ag2140
ag2141
ag2142
ag2143
ag2144
ag2145
aS'today'
p2150
aS'was'
p2151
ag43
aS'good'
p2152
aS'day'
p2153
asg26
(lp2154
g2150
ag2151
ag43
ag2152
ag2153
asba(iMeme
Meme
p2155
(dp2156
g3
(lp2157
S'Won'
p2158
ag948
aS'25'
p2159
aS'because'
p2160
aS'the'
p2161
aS'Royals'
p2162
aS'have'
p2163
ag43
aS'better'
p2164
aS'record'
p2165
aS'than'
p2166
aS'the'
p2167
aS'Giants'
p2168
ag129
asg18
S'Won $25 because the Royals have a better record than the Giants! '
p2169
sg20
S' Today was a good day '
p2170
sg22
Vtoday-was-a-good-day
p2171
sg24
(lp2172
g2158
ag948
ag2159
ag2160
ag2161
ag2162
ag2163
ag43
ag2164
ag2165
ag2166
ag2167
ag2168
ag129
aS'Today'
p2173
aS'was'
p2174
ag43
aS'good'
p2175
aS'day'
p2176
asg26
(lp2177
g2173
ag2174
ag43
ag2175
ag2176
asba(iMeme
Meme
p2178
(dp2179
g3
(lp2180
S'A'
p2181
aS'girl'
p2182
aS'liked'
p2183
ag43
aS'pic'
p2184
aS'of'
p2185
aS'me'
p2186
aS'on'
p2187
aS'facebook'
p2188
ag97
asg18
S'A girl liked a pic of me on facebook. '
p2189
sg20
S' Today was a good day. '
p2190
sg22
Vtoday-was-a-good-day
p2191
sg24
(lp2192
g2181
ag2182
ag2183
ag43
ag2184
ag2185
ag2186
ag2187
ag2188
ag97
aS'Today'
p2193
aS'was'
p2194
ag43
aS'good'
p2195
aS'day'
p2196
ag97
asg26
(lp2197
g2193
ag2194
ag43
ag2195
ag2196
ag97
asba(iMeme
Meme
p2198
(dp2199
g3
(lp2200
S'Did'
p2201
aS"n't"
p2202
aS'watch'
p2203
aS'TV'
p2204
ag361
aS'text'
p2205
ag361
aS'or'
p2206
aS'use'
p2207
aS'my'
p2208
aS'computer'
p2209
asg18
S"Didn't watch TV, text, or use my computer "
p2210
sg20
S' Today was a good day '
p2211
sg22
Vtoday-was-a-good-day
p2212
sg24
(lp2213
g2201
ag2202
ag2203
ag2204
ag361
ag2205
ag361
ag2206
ag2207
ag2208
ag2209
aS'Today'
p2214
aS'was'
p2215
ag43
aS'good'
p2216
aS'day'
p2217
asg26
(lp2218
g2214
ag2215
ag43
ag2216
ag2217
asba(iMeme
Meme
p2219
(dp2220
g3
(lp2221
S'Found'
p2222
aS'Fasterfox'
p2223
asg18
S'Found Fasterfox '
p2224
sg20
S' Today was a good day '
p2225
sg22
Vtoday-was-a-good-day
p2226
sg24
(lp2227
g2222
ag2223
aS'Today'
p2228
aS'was'
p2229
ag43
aS'good'
p2230
aS'day'
p2231
asg26
(lp2232
g2228
ag2229
ag43
ag2230
ag2231
asba(iMeme
Meme
p2233
(dp2234
g3
(lp2235
S'#'
p2236
aS'TeamMoca'
p2237
aS'be'
p2238
aS'like'
p2239
asg18
S'#TeamMoca be like '
p2240
sg20
S' #Teamdark & #Teamlight always on some bs '
p2241
sg22
Vtoday-was-a-good-day
p2242
sg24
(lp2243
g2236
ag2237
ag2238
ag2239
ag2236
aS'Teamdark'
p2244
ag839
ag2236
aS'Teamlight'
p2245
aS'always'
p2246
aS'on'
p2247
aS'some'
p2248
aS'bs'
p2249
asg26
(lp2250
g2236
ag2244
ag839
ag2236
ag2245
ag2246
ag2247
ag2248
ag2249
asba(iMeme
Meme
p2251
(dp2252
g3
(lp2253
S'My'
p2254
aS'woman'
p2255
aS'liked'
p2256
aS'my'
p2257
aS'comment'
p2258
asg18
S'My woman liked my comment '
p2259
sg20
S' Today was a good day '
p2260
sg22
Vtoday-was-a-good-day
p2261
sg24
(lp2262
g2254
ag2255
ag2256
ag2257
ag2258
aS'Today'
p2263
aS'was'
p2264
ag43
aS'good'
p2265
aS'day'
p2266
asg26
(lp2267
g2263
ag2264
ag43
ag2265
ag2266
asba(iMeme
Meme
p2268
(dp2269
g3
(lp2270
S'Inventory'
p2271
aS'delivery'
p2272
asg18
S'Inventory delivery '
p2273
sg20
S' Today was a good day '
p2274
sg22
Vtoday-was-a-good-day
p2275
sg24
(lp2276
g2271
ag2272
aS'Today'
p2277
aS'was'
p2278
ag43
aS'good'
p2279
aS'day'
p2280
asg26
(lp2281
g2277
ag2278
ag43
ag2279
ag2280
asba(iMeme
Meme
p2282
(dp2283
g3
(lp2284
S'Naruto'
p2285
ag361
aS'One'
p2286
aS'Piece'
p2287
ag361
aS'Bleach'
p2288
asg18
S'Naruto, One Piece, Bleach '
p2289
sg20
S' Today was a good day '
p2290
sg22
Vtoday-was-a-good-day
p2291
sg24
(lp2292
g2285
ag361
ag2286
ag2287
ag361
ag2288
aS'Today'
p2293
aS'was'
p2294
ag43
aS'good'
p2295
aS'day'
p2296
asg26
(lp2297
g2293
ag2294
ag43
ag2295
ag2296
asba(iMeme
Meme
p2298
(dp2299
g3
(lp2300
S'freddie'
p2301
aS'mercury'
p2302
aS'was'
p2303
aS'born'
p2304
aS'this'
p2305
aS'day'
p2306
asg18
S'freddie mercury was born this day '
p2307
sg20
S' today was a good day indeed '
p2308
sg22
Vtoday-was-a-good-day
p2309
sg24
(lp2310
g2301
ag2302
ag2303
ag2304
ag2305
ag2306
aS'today'
p2311
aS'was'
p2312
ag43
aS'good'
p2313
aS'day'
p2314
aS'indeed'
p2315
asg26
(lp2316
g2311
ag2312
ag43
ag2313
ag2314
ag2315
asba(iMeme
Meme
p2317
(dp2318
g3
(lp2319
g66
aS'made'
p2320
aS'pancakes'
p2321
aS'in'
p2322
aS'school'
p2323
asg18
S'I made pancakes in school '
p2324
sg20
S' today was a good day '
p2325
sg22
Vtoday-was-a-good-day
p2326
sg24
(lp2327
g66
ag2320
ag2321
ag2322
ag2323
aS'today'
p2328
aS'was'
p2329
ag43
aS'good'
p2330
aS'day'
p2331
asg26
(lp2332
g2328
ag2329
ag43
ag2330
ag2331
asba(iMeme
Meme
p2333
(dp2334
g3
(lp2335
S'Posted'
p2336
aS'selfie'
p2337
aS'to'
p2338
aS'FB'
p2339
aS'and'
p2340
aS'didnt'
p2341
aS'get'
p2342
aS'any'
p2343
aS'creeper'
p2344
aS'comments'
p2345
asg18
S'Posted selfie to FB and didnt get any creeper comments '
p2346
sg20
S' Today was a good day '
p2347
sg22
Vtoday-was-a-good-day
p2348
sg24
(lp2349
g2336
ag2337
ag2338
ag2339
ag2340
ag2341
ag2342
ag2343
ag2344
ag2345
aS'Today'
p2350
aS'was'
p2351
ag43
aS'good'
p2352
aS'day'
p2353
asg26
(lp2354
g2350
ag2351
ag43
ag2352
ag2353
asba(iMeme
Meme
p2355
(dp2356
g3
(lp2357
S'got'
p2358
ag43
aS'job'
p2359
aS'and'
p2360
aS'reunited'
p2361
aS'with'
p2362
aS'an'
p2363
aS'old'
p2364
aS'friend'
p2365
asg18
S'got a job and reunited with an old friend '
p2366
sg20
S' today was a good day '
p2367
sg22
Vtoday-was-a-good-day
p2368
sg24
(lp2369
g2358
ag43
ag2359
ag2360
ag2361
ag2362
ag2363
ag2364
ag2365
aS'today'
p2370
aS'was'
p2371
ag43
aS'good'
p2372
aS'day'
p2373
asg26
(lp2374
g2370
ag2371
ag43
ag2372
ag2373
asba(iMeme
Meme
p2375
(dp2376
g3
(lp2377
g66
aS'know'
p2378
aS'today'
p2379
aS'was'
p2380
ag43
aS'good'
p2381
aS'day'
p2382
asg18
S'I know today was a good day '
p2383
sg20
S' but it still aint Friday? '
p2384
sg22
Vtoday-was-a-good-day
p2385
sg24
(lp2386
g66
ag2378
ag2379
ag2380
ag43
ag2381
ag2382
aS'but'
p2387
aS'it'
p2388
aS'still'
p2389
aS'aint'
p2390
aS'Friday'
p2391
ag552
asg26
(lp2392
g2387
ag2388
ag2389
ag2390
ag2391
ag552
asba(iMeme
Meme
p2393
(dp2394
g3
(lp2395
S'pants'
p2396
aS'on'
p2397
aS'da'
p2398
aS'ground'
p2399
asg18
S'pants on da ground '
p2400
sg20
S' lookin like a fool wit yo pants on da ground '
p2401
sg22
Vtoday-was-a-good-day
p2402
sg24
(lp2403
g2396
ag2397
ag2398
ag2399
aS'lookin'
p2404
aS'like'
p2405
ag43
aS'fool'
p2406
aS'wit'
p2407
aS'yo'
p2408
aS'pants'
p2409
aS'on'
p2410
aS'da'
p2411
aS'ground'
p2412
asg26
(lp2413
g2404
ag2405
ag43
ag2406
ag2407
ag2408
ag2409
ag2410
ag2411
ag2412
asba(iMeme
Meme
p2414
(dp2415
g3
(lp2416
S'Phil'
p2417
aS'Hughes'
p2418
aS'moved'
p2419
aS'to'
p2420
aS'the'
p2421
aS'Bullpen'
p2422
asg18
S'Phil Hughes moved to the Bullpen '
p2423
sg20
S' today was a good day '
p2424
sg22
Vtoday-was-a-good-day
p2425
sg24
(lp2426
g2417
ag2418
ag2419
ag2420
ag2421
ag2422
aS'today'
p2427
aS'was'
p2428
ag43
aS'good'
p2429
aS'day'
p2430
asg26
(lp2431
g2427
ag2428
ag43
ag2429
ag2430
asba(iMeme
Meme
p2432
(dp2433
g3
(lp2434
S'Jan'
p2435
aS'said'
p2436
aS'he'
p2437
aS'is'
p2438
aS'not'
p2439
aS'hetero'
p2440
asg18
S'Jan said he is not hetero '
p2441
sg20
S' Tpday was a good day '
p2442
sg22
Vtoday-was-a-good-day
p2443
sg24
(lp2444
g2435
ag2436
ag2437
ag2438
ag2439
ag2440
aS'Tpday'
p2445
aS'was'
p2446
ag43
aS'good'
p2447
aS'day'
p2448
asg26
(lp2449
g2445
ag2446
ag43
ag2447
ag2448
asba(iMeme
Meme
p2450
(dp2451
g3
(lp2452
S'Turned'
p2453
aS'19'
p2454
asg18
S'Turned 19 '
p2455
sg20
S' Today was a good day '
p2456
sg22
Vtoday-was-a-good-day
p2457
sg24
(lp2458
g2453
ag2454
aS'Today'
p2459
aS'was'
p2460
ag43
aS'good'
p2461
aS'day'
p2462
asg26
(lp2463
g2459
ag2460
ag43
ag2461
ag2462
asba(iMeme
Meme
p2464
(dp2465
g3
(lp2466
g66
aS'think'
p2467
aS'feeding'
p2468
aS'your'
p2469
aS'cat'
p2470
aS'until'
p2471
aS'it'
p2472
aS'is'
p2473
aS'morbidly'
p2474
aS'obese'
p2475
asg18
S'I think feeding your cat until it is morbidly obese '
p2476
sg20
S' is cruel '
p2477
sg22
Vtoday-was-a-good-day
p2478
sg24
(lp2479
g66
ag2467
ag2468
ag2469
ag2470
ag2471
ag2472
ag2473
ag2474
ag2475
aS'is'
p2480
aS'cruel'
p2481
asg26
(lp2482
g2480
ag2481
asba(iMeme
Meme
p2483
(dp2484
g3
(lp2485
S'Trolled'
p2486
aS'Ember'
p2487
aS'with'
p2488
aS'Sheep'
p2489
asg18
S'Trolled Ember with Sheep '
p2490
sg20
S' Today was a good day '
p2491
sg22
Vtoday-was-a-good-day
p2492
sg24
(lp2493
g2486
ag2487
ag2488
ag2489
aS'Today'
p2494
aS'was'
p2495
ag43
aS'good'
p2496
aS'day'
p2497
asg26
(lp2498
g2494
ag2495
ag43
ag2496
ag2497
asba(iMeme
Meme
p2499
(dp2500
g3
(lp2501
S'Got'
p2502
aS'the'
p2503
aS'opportunity'
p2504
aS'enjoy'
p2505
aS'my'
p2506
aS'new'
p2507
aS'motorcycle'
p2508
aS'...'
p2509
asg18
S'Got the opportunity enjoy my new motorcycle... '
p2510
sg20
S' By pushing it two miles home... '
p2511
sg22
Vtoday-was-a-good-day
p2512
sg24
(lp2513
g2502
ag2503
ag2504
ag2505
ag2506
ag2507
ag2508
ag2509
aS'By'
p2514
aS'pushing'
p2515
aS'it'
p2516
aS'two'
p2517
aS'miles'
p2518
aS'home'
p2519
aS'...'
p2520
asg26
(lp2521
g2514
ag2515
ag2516
ag2517
ag2518
ag2519
ag2520
asba(iMeme
Meme
p2522
(dp2523
g3
(lp2524
S'Beat'
p2525
aS'Saints'
p2526
aS'Row'
p2527
aS'IV'
p2528
aS'and'
p2529
aS'got'
p2530
ag43
aS'free'
p2531
aS'meal'
p2532
aS'at'
p2533
aS'work'
p2534
ag361
aS'but'
p2535
aS'also'
p2536
aS'found'
p2537
aS'out'
p2538
ag43
aS'horrible'
p2539
aS'person'
p2540
aS'from'
p2541
aS'my'
p2542
aS'past'
p2543
aS'might'
p2544
aS'be'
p2545
aS'moving'
p2546
aS'close'
p2547
aS'to'
p2548
aS'me'
p2549
ag97
asg18
S'Beat Saints Row IV and got a free meal at work, but also found out a horrible person from my past might be moving close to me. '
p2550
sg20
S' Today was an alright, but not necessarily good day. '
p2551
sg22
Vtoday-was-a-good-day
p2552
sg24
(lp2553
g2525
ag2526
ag2527
ag2528
ag2529
ag2530
ag43
ag2531
ag2532
ag2533
ag2534
ag361
ag2535
ag2536
ag2537
ag2538
ag43
ag2539
ag2540
ag2541
ag2542
ag2543
ag2544
ag2545
ag2546
ag2547
ag2548
ag2549
ag97
aS'Today'
p2554
aS'was'
p2555
aS'an'
p2556
aS'alright'
p2557
ag361
aS'but'
p2558
aS'not'
p2559
aS'necessarily'
p2560
aS'good'
p2561
aS'day'
p2562
ag97
asg26
(lp2563
g2554
ag2555
ag2556
ag2557
ag361
ag2558
ag2559
ag2560
ag2561
ag2562
ag97
asba(iMeme
Meme
p2564
(dp2565
g3
(lp2566
S'Fixed'
p2567
aS'bikes'
p2568
aS'for'
p2569
aS'charity'
p2570
asg18
S'Fixed bikes for charity '
p2571
sg20
S' Today was a good day '
p2572
sg22
Vtoday-was-a-good-day
p2573
sg24
(lp2574
g2567
ag2568
ag2569
ag2570
aS'Today'
p2575
aS'was'
p2576
ag43
aS'good'
p2577
aS'day'
p2578
asg26
(lp2579
g2575
ag2576
ag43
ag2577
ag2578
asba(iMeme
Meme
p2580
(dp2581
g3
(lp2582
S'That'
p2583
aS'feeling'
p2584
aS'...'
p2585
asg18
S'That feeling... '
p2586
sg20
S' When leaving school on Thursday '
p2587
sg22
Vtoday-was-a-good-day
p2588
sg24
(lp2589
g2583
ag2584
ag2585
aS'When'
p2590
aS'leaving'
p2591
aS'school'
p2592
aS'on'
p2593
aS'Thursday'
p2594
asg26
(lp2595
g2590
ag2591
ag2592
ag2593
ag2594
asba(iMeme
Meme
p2596
(dp2597
g3
(lp2598
S'Got'
p2599
ag1162
aS'onion'
p2600
aS'rings'
p2601
aS'in'
p2602
aS'my'
p2603
aS'basket'
p2604
aS'of'
p2605
aS'fries'
p2606
asg18
S'Got 2 onion rings in my basket of fries '
p2607
sg20
S' Today was a good day '
p2608
sg22
Vtoday-was-a-good-day
p2609
sg24
(lp2610
g2599
ag1162
ag2600
ag2601
ag2602
ag2603
ag2604
ag2605
ag2606
aS'Today'
p2611
aS'was'
p2612
ag43
aS'good'
p2613
aS'day'
p2614
asg26
(lp2615
g2611
ag2612
ag43
ag2613
ag2614
asba(iMeme
Meme
p2616
(dp2617
g3
(lp2618
S'you'
p2619
aS'see'
p2620
aS'me'
p2621
aS'rollin'
p2622
asg18
S'you see me rollin '
p2623
sg20
S' now get the fuck away '
p2624
sg22
Vtoday-was-a-good-day
p2625
sg24
(lp2626
g2619
ag2620
ag2621
ag2622
aS'now'
p2627
aS'get'
p2628
aS'the'
p2629
aS'fuck'
p2630
aS'away'
p2631
asg26
(lp2632
g2627
ag2628
ag2629
ag2630
ag2631
asba(iMeme
Meme
p2633
(dp2634
g3
(lp2635
S'got'
p2636
aS'free'
p2637
aS'food'
p2638
aS'and'
p2639
aS'drinks'
p2640
asg18
S'got free food and drinks '
p2641
sg20
S' it was a good day '
p2642
sg22
Vtoday-was-a-good-day
p2643
sg24
(lp2644
g2636
ag2637
ag2638
ag2639
ag2640
aS'it'
p2645
aS'was'
p2646
ag43
aS'good'
p2647
aS'day'
p2648
asg26
(lp2649
g2645
ag2646
ag43
ag2647
ag2648
asba(iMeme
Meme
p2650
(dp2651
g3
(lp2652
S'Was'
p2653
aS"n't"
p2654
aS'told'
p2655
aS'fuck'
p2656
aS'you'
p2657
aS'all'
p2658
aS'day'
p2659
asg18
S"Wasn't told fuck you all day "
p2660
sg20
S' today was a good day '
p2661
sg22
Vtoday-was-a-good-day
p2662
sg24
(lp2663
g2653
ag2654
ag2655
ag2656
ag2657
ag2658
ag2659
aS'today'
p2664
aS'was'
p2665
ag43
aS'good'
p2666
aS'day'
p2667
asg26
(lp2668
g2664
ag2665
ag43
ag2666
ag2667
asba(iMeme
Meme
p2669
(dp2670
g3
(lp2671
S'Nice'
p2672
aS'try'
p2673
asg18
S'Nice try '
p2674
sg20
S' Today was a good day. '
p2675
sg22
Vtoday-was-a-good-day
p2676
sg24
(lp2677
g2672
ag2673
aS'Today'
p2678
aS'was'
p2679
ag43
aS'good'
p2680
aS'day'
p2681
ag97
asg26
(lp2682
g2678
ag2679
ag43
ag2680
ag2681
ag97
asba(iMeme
Meme
p2683
(dp2684
g3
(lp2685
S'Finished'
p2686
aS'my'
p2687
aS'work'
p2688
aS'before'
p2689
aS'3AM'
p2690
asg18
S'Finished my work before 3AM '
p2691
sg20
S' Yesterday was a good day '
p2692
sg22
Vtoday-was-a-good-day
p2693
sg24
(lp2694
g2686
ag2687
ag2688
ag2689
ag2690
aS'Yesterday'
p2695
aS'was'
p2696
ag43
aS'good'
p2697
aS'day'
p2698
asg26
(lp2699
g2695
ag2696
ag43
ag2697
ag2698
asba(iMeme
Meme
p2700
(dp2701
g3
(lp2702
S'met'
p2703
ag43
aS'girl'
p2704
ag66
aS'kinda'
p2705
aS'like'
p2706
ag361
aS'got'
p2707
aS'into'
p2708
aS'fantasy'
p2709
aS'league'
p2710
ag361
aS'did'
p2711
aS'nothing'
p2712
aS'as'
p2713
aS'usual'
p2714
aS'as'
p2715
aS'work'
p2716
aS'and'
p2717
aS'foot'
p2718
aS'is'
p2719
aS'feeling'
p2720
aS'slightly'
p2721
aS'better'
p2722
ag97
asg18
S'met a girl I kinda like, got into fantasy league, did nothing as usual as work and foot is feeling slightly better. '
p2723
sg20
S' It was a good day '
p2724
sg22
Vtoday-was-a-good-day
p2725
sg24
(lp2726
g2703
ag43
ag2704
ag66
ag2705
ag2706
ag361
ag2707
ag2708
ag2709
ag2710
ag361
ag2711
ag2712
ag2713
ag2714
ag2715
ag2716
ag2717
ag2718
ag2719
ag2720
ag2721
ag2722
ag97
aS'It'
p2727
aS'was'
p2728
ag43
aS'good'
p2729
aS'day'
p2730
asg26
(lp2731
g2727
ag2728
ag43
ag2729
ag2730
asba(iMeme
Meme
p2732
(dp2733
g3
(lp2734
S'met'
p2735
ag43
aS'girl'
p2736
ag66
aS'kinda'
p2737
aS'like'
p2738
ag361
aS'got'
p2739
aS'into'
p2740
aS'fantasy'
p2741
aS'league'
p2742
ag361
aS'did'
p2743
aS'nothing'
p2744
aS'as'
p2745
aS'usual'
p2746
aS'as'
p2747
aS'work'
p2748
aS'and'
p2749
aS'foot'
p2750
aS'is'
p2751
aS'feeling'
p2752
aS'slightly'
p2753
aS'better'
p2754
ag97
asg18
S'met a girl I kinda like, got into fantasy league, did nothing as usual as work and foot is feeling slightly better. '
p2755
sg20
S' it was a good day '
p2756
sg22
Vtoday-was-a-good-day
p2757
sg24
(lp2758
g2735
ag43
ag2736
ag66
ag2737
ag2738
ag361
ag2739
ag2740
ag2741
ag2742
ag361
ag2743
ag2744
ag2745
ag2746
ag2747
ag2748
ag2749
ag2750
ag2751
ag2752
ag2753
ag2754
ag97
aS'it'
p2759
aS'was'
p2760
ag43
aS'good'
p2761
aS'day'
p2762
asg26
(lp2763
g2759
ag2760
ag43
ag2761
ag2762
asba(iMeme
Meme
p2764
(dp2765
g3
(lp2766
S'My'
p2767
aS'boyfriend'
p2768
aS'got'
p2769
ag43
aS'job'
p2770
aS'near'
p2771
aS'me'
p2772
aS'AND'
p2773
aS'Joffrey'
p2774
aS'died'
p2775
ag97
asg18
S'My boyfriend got a job near me AND Joffrey died. '
p2776
sg20
S' Today was a good day. '
p2777
sg22
Vtoday-was-a-good-day
p2778
sg24
(lp2779
g2767
ag2768
ag2769
ag43
ag2770
ag2771
ag2772
ag2773
ag2774
ag2775
ag97
aS'Today'
p2780
aS'was'
p2781
ag43
aS'good'
p2782
aS'day'
p2783
ag97
asg26
(lp2784
g2780
ag2781
ag43
ag2782
ag2783
ag97
asba(iMeme
Meme
p2785
(dp2786
g3
(lp2787
S'My'
p2788
aS'boyfriend'
p2789
aS'secured'
p2790
ag43
aS'job'
p2791
aS'near'
p2792
aS'me'
p2793
aS'AND'
p2794
aS'Joffrey'
p2795
aS'died'
p2796
ag97
asg18
S'My boyfriend secured a job near me AND Joffrey died. '
p2797
sg20
S' Today was a good day. '
p2798
sg22
Vtoday-was-a-good-day
p2799
sg24
(lp2800
g2788
ag2789
ag2790
ag43
ag2791
ag2792
ag2793
ag2794
ag2795
ag2796
ag97
aS'Today'
p2801
aS'was'
p2802
ag43
aS'good'
p2803
aS'day'
p2804
ag97
asg26
(lp2805
g2801
ag2802
ag43
ag2803
ag2804
ag97
asba(iMeme
Meme
p2806
(dp2807
g3
(lp2808
S'Out'
p2809
aS'did'
p2810
ag43
aS'coworker'
p2811
aS'on'
p2812
aS'memes'
p2813
asg18
S'Out did a coworker on memes '
p2814
sg20
S' Today was a good day '
p2815
sg22
Vtoday-was-a-good-day
p2816
sg24
(lp2817
g2809
ag2810
ag43
ag2811
ag2812
ag2813
aS'Today'
p2818
aS'was'
p2819
ag43
aS'good'
p2820
aS'day'
p2821
asg26
(lp2822
g2818
ag2819
ag43
ag2820
ag2821
asba(iMeme
Meme
p2823
(dp2824
g3
(lp2825
S'Check'
p2826
aS'PW'
p2827
aS'run'
p2828
aS'nightly'
p2829
ag129
ag129
asg18
S'Check PW run nightly!! '
p2830
sg20
S'   All is good in the hood. '
p2831
sg22
Vtoday-was-a-good-day
p2832
sg24
(lp2833
g2826
ag2827
ag2828
ag2829
ag129
ag129
aS'All'
p2834
aS'is'
p2835
aS'good'
p2836
aS'in'
p2837
aS'the'
p2838
aS'hood'
p2839
ag97
asg26
(lp2840
g2834
ag2835
ag2836
ag2837
ag2838
ag2839
ag97
asba(iMeme
Meme
p2841
(dp2842
g3
(lp2843
S'Lights'
p2844
aS'out'
p2845
ag361
aS'ITAS'
p2846
aS'moved'
p2847
asg18
S'Lights out, ITAS moved '
p2848
sg20
S' Today is a good day '
p2849
sg22
Vtoday-was-a-good-day
p2850
sg24
(lp2851
g2844
ag2845
ag361
ag2846
ag2847
aS'Today'
p2852
aS'is'
p2853
ag43
aS'good'
p2854
aS'day'
p2855
asg26
(lp2856
g2852
ag2853
ag43
ag2854
ag2855
asba(iMeme
Meme
p2857
(dp2858
g3
(lp2859
S'polishing'
p2860
aS'my'
p2861
aS'car'
p2862
asg18
S'polishing my car '
p2863
sg20
S' nek minit...dude, wheres my car? '
p2864
sg22
Vtoday-was-a-good-day
p2865
sg24
(lp2866
g2860
ag2861
ag2862
aS'nek'
p2867
aS'minit'
p2868
aS'...'
p2869
aS'dude'
p2870
ag361
aS'wheres'
p2871
aS'my'
p2872
aS'car'
p2873
ag552
asg26
(lp2874
g2867
ag2868
ag2869
ag2870
ag361
ag2871
ag2872
ag2873
ag552
asba(iMeme
Meme
p2875
(dp2876
g3
(lp2877
S'Passed'
p2878
aS'all'
p2879
ag1004
aS'courses'
p2880
aS'and'
p2881
aS'became'
p2882
aS'2nd'
p2883
aS'in'
p2884
aS'turned'
p2885
asg18
S'Passed all 4  courses and became 2nd in turned  '
p2886
sg20
S' Today was a good day '
p2887
sg22
Vtoday-was-a-good-day
p2888
sg24
(lp2889
g2878
ag2879
ag1004
ag2880
ag2881
ag2882
ag2883
ag2884
ag2885
aS'Today'
p2890
aS'was'
p2891
ag43
aS'good'
p2892
aS'day'
p2893
asg26
(lp2894
g2890
ag2891
ag43
ag2892
ag2893
asba(iMeme
Meme
p2895
(dp2896
g3
(lp2897
S'Yup'
p2898
asg18
S'Yup '
p2899
sg20
S' Today was a good day '
p2900
sg22
Vtoday-was-a-good-day
p2901
sg24
(lp2902
g2898
aS'Today'
p2903
aS'was'
p2904
ag43
aS'good'
p2905
aS'day'
p2906
asg26
(lp2907
g2903
ag2904
ag43
ag2905
ag2906
asba(iMeme
Meme
p2908
(dp2909
g3
(lp2910
S'skanks'
p2911
aS'lose'
p2912
aS'to'
p2913
aS'Rangers'
p2914
asg18
S'skanks lose to Rangers '
p2915
sg20
S' today was a good day '
p2916
sg22
Vtoday-was-a-good-day
p2917
sg24
(lp2918
g2911
ag2912
ag2913
ag2914
aS'today'
p2919
aS'was'
p2920
ag43
aS'good'
p2921
aS'day'
p2922
asg26
(lp2923
g2919
ag2920
ag43
ag2921
ag2922
asba(iMeme
Meme
p2924
(dp2925
g3
(lp2926
g66
aS'found'
p2927
aS'this'
p2928
aS'site'
p2929
aS'that'
p2930
ag462
aS'can'
p2931
aS'make'
p2932
aS'memes'
p2933
asg18
S'I found this site that i can make memes '
p2934
sg20
S' today was a good day '
p2935
sg22
Vtoday-was-a-good-day
p2936
sg24
(lp2937
g66
ag2927
ag2928
ag2929
ag2930
ag462
ag2931
ag2932
ag2933
aS'today'
p2938
aS'was'
p2939
ag43
aS'good'
p2940
aS'day'
p2941
asg26
(lp2942
g2938
ag2939
ag43
ag2940
ag2941
asba(iMeme
Meme
p2943
(dp2944
g3
(lp2945
S'beat'
p2946
aS'flxx'
p2947
ag309
aS'times'
p2948
asg18
S'beat flxx 3 times '
p2949
sg20
S' today was a good day '
p2950
sg22
Vtoday-was-a-good-day
p2951
sg24
(lp2952
g2946
ag2947
ag309
ag2948
aS'today'
p2953
aS'was'
p2954
ag43
aS'good'
p2955
aS'day'
p2956
asg26
(lp2957
g2953
ag2954
ag43
ag2955
ag2956
asba(iMeme
Meme
p2958
(dp2959
g3
(lp2960
S'No'
p2961
aS'injuries'
p2962
ag552
asg18
S'No injuries? '
p2963
sg20
S' today was a good day '
p2964
sg22
Vtoday-was-a-good-day
p2965
sg24
(lp2966
g2961
ag2962
ag552
aS'today'
p2967
aS'was'
p2968
ag43
aS'good'
p2969
aS'day'
p2970
asg26
(lp2971
g2967
ag2968
ag43
ag2969
ag2970
asba(iMeme
Meme
p2972
(dp2973
g3
(lp2974
S'Got'
p2975
aS'my'
p2976
aS'results'
p2977
aS'...'
p2978
ag66
aS'PaSsed'
p2979
ag129
asg18
S'Got my results... I PaSsed! '
p2980
sg20
S' Today was a good day '
p2981
sg22
Vtoday-was-a-good-day
p2982
sg24
(lp2983
g2975
ag2976
ag2977
ag2978
ag66
ag2979
ag129
aS'Today'
p2984
aS'was'
p2985
ag43
aS'good'
p2986
aS'day'
p2987
asg26
(lp2988
g2984
ag2985
ag43
ag2986
ag2987
asba(iMeme
Meme
p2989
(dp2990
g3
(lp2991
S'Eric'
p2992
aS'be'
p2993
aS'like'
p2994
asg18
S'Eric be like '
p2995
sg20
S' watch when i find atempy fat ass ^ '
p2996
sg22
Vtoday-was-a-good-day
p2997
sg24
(lp2998
g2992
ag2993
ag2994
aS'watch'
p2999
aS'when'
p3000
ag462
aS'find'
p3001
aS'atempy'
p3002
aS'fat'
p3003
aS'ass'
p3004
aS'^'
p3005
asg26
(lp3006
g2999
ag3000
ag462
ag3001
ag3002
ag3003
ag3004
ag3005
asba(iMeme
Meme
p3007
(dp3008
g3
(lp3009
S'Turn'
p3010
aS'up'
p3011
asg18
S'Turn up '
p3012
sg20
S" it's the 4th "
p3013
sg22
Vtoday-was-a-good-day
p3014
sg24
(lp3015
g3010
ag3011
aS'it'
p3016
aS"'s"
p3017
aS'the'
p3018
aS'4th'
p3019
asg26
(lp3020
g3016
ag3017
ag3018
ag3019
asba(iMeme
Meme
p3021
(dp3022
g3
(lp3023
S'We'
p3024
aS"'re"
p3025
aS'finally'
p3026
aS'doing'
p3027
aS'something'
p3028
aS'about'
p3029
aS'our'
p3030
aS'violated'
p3031
aS'rights'
p3032
asg18
S"We're finally doing something about our violated rights "
p3033
sg20
S' today was a good day '
p3034
sg22
Vtoday-was-a-good-day
p3035
sg24
(lp3036
g3024
ag3025
ag3026
ag3027
ag3028
ag3029
ag3030
ag3031
ag3032
aS'today'
p3037
aS'was'
p3038
ag43
aS'good'
p3039
aS'day'
p3040
asg26
(lp3041
g3037
ag3038
ag43
ag3039
ag3040
asba(iMeme
Meme
p3042
(dp3043
g3
(lp3044
S'got'
p3045
aS'the'
p3046
aS'new'
p3047
aS'kicks'
p3048
aS'on'
p3049
aS'my'
p3050
aS'feet'
p3051
asg18
S'got the new kicks on my feet '
p3052
sg20
S' and i heard your girl likes to do the splits to my beats '
p3053
sg22
Vtoday-was-a-good-day
p3054
sg24
(lp3055
g3045
ag3046
ag3047
ag3048
ag3049
ag3050
ag3051
aS'and'
p3056
ag462
aS'heard'
p3057
aS'your'
p3058
aS'girl'
p3059
aS'likes'
p3060
aS'to'
p3061
aS'do'
p3062
aS'the'
p3063
aS'splits'
p3064
aS'to'
p3065
aS'my'
p3066
aS'beats'
p3067
asg26
(lp3068
g3056
ag462
ag3057
ag3058
ag3059
ag3060
ag3061
ag3062
ag3063
ag3064
ag3065
ag3066
ag3067
asba(iMeme
Meme
p3069
(dp3070
g3
(lp3071
S'Job'
p3072
aS'opportunity'
p3073
aS'came'
p3074
aS'up'
p3075
ag361
aS'girlfriend'
p3076
aS'made'
p3077
ag43
aS'delicious'
p3078
aS'brunch'
p3079
asg18
S'Job opportunity came up, girlfriend made a delicious brunch '
p3080
sg20
S' today was a good day '
p3081
sg22
Vtoday-was-a-good-day
p3082
sg24
(lp3083
g3072
ag3073
ag3074
ag3075
ag361
ag3076
ag3077
ag43
ag3078
ag3079
aS'today'
p3084
aS'was'
p3085
ag43
aS'good'
p3086
aS'day'
p3087
asg26
(lp3088
g3084
ag3085
ag43
ag3086
ag3087
asba(iMeme
Meme
p3089
(dp3090
g3
(lp3091
S'Myles'
p3092
aS'did'
p3093
aS"n't"
p3094
aS'die'
p3095
aS'in'
p3096
aS'the'
p3097
aS'parade'
p3098
asg18
S"Myles didn't die in the parade "
p3099
sg20
S' today was a good day '
p3100
sg22
Vtoday-was-a-good-day
p3101
sg24
(lp3102
g3092
ag3093
ag3094
ag3095
ag3096
ag3097
ag3098
aS'today'
p3103
aS'was'
p3104
ag43
aS'good'
p3105
aS'day'
p3106
asg26
(lp3107
g3103
ag3104
ag43
ag3105
ag3106
asba(iMeme
Meme
p3108
(dp3109
g3
(lp3110
S'tooday'
p3111
aS'was'
p3112
ag43
aS'good'
p3113
aS'day'
p3114
asg18
S'tooday was a good day '
p3115
sg20
S" didn't have to deal with jason reynolds like i did in may "
p3116
sg22
Vtoday-was-a-good-day
p3117
sg24
(lp3118
g3111
ag3112
ag43
ag3113
ag3114
aS'did'
p3119
aS"n't"
p3120
aS'have'
p3121
aS'to'
p3122
aS'deal'
p3123
aS'with'
p3124
aS'jason'
p3125
aS'reynolds'
p3126
aS'like'
p3127
ag462
aS'did'
p3128
aS'in'
p3129
aS'may'
p3130
asg26
(lp3131
g3119
ag3120
ag3121
ag3122
ag3123
ag3124
ag3125
ag3126
ag3127
ag462
ag3128
ag3129
ag3130
asba(iMeme
Meme
p3132
(dp3133
g3
(lp3134
S'the'
p3135
aS'hawks'
p3136
aS'score'
p3137
ag1162
aS'goals'
p3138
aS'in'
p3139
aS'17'
p3140
aS'seconds'
p3141
aS'to'
p3142
aS'win'
p3143
aS'the'
p3144
aS'cup'
p3145
asg18
S'the hawks score 2 goals in 17 seconds to win the cup '
p3146
sg20
S' today was a good day '
p3147
sg22
Vtoday-was-a-good-day
p3148
sg24
(lp3149
g3135
ag3136
ag3137
ag1162
ag3138
ag3139
ag3140
ag3141
ag3142
ag3143
ag3144
ag3145
aS'today'
p3150
aS'was'
p3151
ag43
aS'good'
p3152
aS'day'
p3153
asg26
(lp3154
g3150
ag3151
ag43
ag3152
ag3153
asba(iMeme
Meme
p3155
(dp3156
g3
(lp3157
S'had'
p3158
ag43
aS'awesome'
p3159
aS'burger'
p3160
asg18
S'had a  awesome burger '
p3161
sg20
S' today was horrible '
p3162
sg22
Vtoday-was-a-good-day
p3163
sg24
(lp3164
g3158
ag43
ag3159
ag3160
aS'today'
p3165
aS'was'
p3166
aS'horrible'
p3167
asg26
(lp3168
g3165
ag3166
ag3167
asba(iMeme
Meme
p3169
(dp3170
g3
(lp3171
S'Got'
p3172
aS'over'
p3173
aS'30'
p3174
aS'karma'
p3175
aS'on'
p3176
aS'my'
p3177
aS'first'
p3178
aS'day'
p3179
asg18
S'Got over 30 karma on my first day '
p3180
sg20
S' Today was a good day '
p3181
sg22
Vtoday-was-a-good-day
p3182
sg24
(lp3183
g3172
ag3173
ag3174
ag3175
ag3176
ag3177
ag3178
ag3179
aS'Today'
p3184
aS'was'
p3185
ag43
aS'good'
p3186
aS'day'
p3187
asg26
(lp3188
g3184
ag3185
ag43
ag3186
ag3187
asba(iMeme
Meme
p3189
(dp3190
g3
(lp3191
S'Top'
p3192
aS'post'
p3193
aS'on'
p3194
aS'all'
p3195
aS'or'
p3196
aS'reddit'
p3197
aS'was'
p3198
aS'about'
p3199
aS'bullets'
p3200
asg18
S'Top post on all or reddit was about bullets '
p3201
sg20
S' Today was a good day '
p3202
sg22
Vtoday-was-a-good-day
p3203
sg24
(lp3204
g3192
ag3193
ag3194
ag3195
ag3196
ag3197
ag3198
ag3199
ag3200
aS'Today'
p3205
aS'was'
p3206
ag43
aS'good'
p3207
aS'day'
p3208
asg26
(lp3209
g3205
ag3206
ag43
ag3207
ag3208
asba(iMeme
Meme
p3210
(dp3211
g3
(lp3212
S'take'
p3213
aS'that'
p3214
aS'thing'
p3215
aS'off'
p3216
aS'your'
p3217
aS'head'
p3218
asg18
S'take that thing off your head '
p3219
sg20
S' yo '
p3220
sg22
Vtoday-was-a-good-day
p3221
sg24
(lp3222
g3213
ag3214
ag3215
ag3216
ag3217
ag3218
aS'yo'
p3223
asg26
(lp3224
g3223
asba(iMeme
Meme
p3225
(dp3226
g3
(lp3227
S'got'
p3228
aS'more'
p3229
aS'than'
p3230
aS'10'
p3231
aS'upvotes'
p3232
aS'on'
p3233
ag43
aS'comment'
p3234
asg18
S'got more than 10 upvotes on a comment '
p3235
sg20
S' today was a good day '
p3236
sg22
Vtoday-was-a-good-day
p3237
sg24
(lp3238
g3228
ag3229
ag3230
ag3231
ag3232
ag3233
ag43
ag3234
aS'today'
p3239
aS'was'
p3240
ag43
aS'good'
p3241
aS'day'
p3242
asg26
(lp3243
g3239
ag3240
ag43
ag3241
ag3242
asba(iMeme
Meme
p3244
(dp3245
g3
(lp3246
S'caught'
p3247
ag43
aS'shiny'
p3248
aS'and'
p3249
aS'got'
p3250
aS'pokerus'
p3251
asg18
S'caught a shiny and got pokerus '
p3252
sg20
S' today was a good day '
p3253
sg22
Vtoday-was-a-good-day
p3254
sg24
(lp3255
g3247
ag43
ag3248
ag3249
ag3250
ag3251
aS'today'
p3256
aS'was'
p3257
ag43
aS'good'
p3258
aS'day'
p3259
asg26
(lp3260
g3256
ag3257
ag43
ag3258
ag3259
asba(iMeme
Meme
p3261
(dp3262
g3
(lp3263
S'learned'
p3264
aS'the'
p3265
aS'difference'
p3266
aS'between'
p3267
aS'who'
p3268
aS'and'
p3269
aS'whom'
p3270
asg18
S'learned the difference between who and whom  '
p3271
sg20
S' today was a good day '
p3272
sg22
Vtoday-was-a-good-day
p3273
sg24
(lp3274
g3264
ag3265
ag3266
ag3267
ag3268
ag3269
ag3270
aS'today'
p3275
aS'was'
p3276
ag43
aS'good'
p3277
aS'day'
p3278
asg26
(lp3279
g3275
ag3276
ag43
ag3277
ag3278
asba(iMeme
Meme
p3280
(dp3281
g3
(lp3282
S'took'
p3283
ag309
aS'dumps'
p3284
aS'and'
p3285
aS'they'
p3286
aS'were'
p3287
aS'all'
p3288
aS'one'
p3289
aS'wipe'
p3290
aS'shits'
p3291
asg18
S'took 3 dumps and they were all one wipe shits '
p3292
sg20
S' today was a good day '
p3293
sg22
Vtoday-was-a-good-day
p3294
sg24
(lp3295
g3283
ag309
ag3284
ag3285
ag3286
ag3287
ag3288
ag3289
ag3290
ag3291
aS'today'
p3296
aS'was'
p3297
ag43
aS'good'
p3298
aS'day'
p3299
asg26
(lp3300
g3296
ag3297
ag43
ag3298
ag3299
asba(iMeme
Meme
p3301
(dp3302
g3
(lp3303
S'lecture'
p3304
aS'cancelled'
p3305
asg18
S'lecture cancelled '
p3306
sg20
S' today was a good day  '
p3307
sg22
Vtoday-was-a-good-day
p3308
sg24
(lp3309
g3304
ag3305
aS'today'
p3310
aS'was'
p3311
ag43
aS'good'
p3312
aS'day'
p3313
asg26
(lp3314
g3310
ag3311
ag43
ag3312
ag3313
asba(iMeme
Meme
p3315
(dp3316
g3
(lp3317
S'Kot'
p3318
aS'three'
p3319
aS'times'
p3320
aS'in'
p3321
aS'hokm'
p3322
asg18
S'Kot three times in hokm '
p3323
sg20
S' Today was a good day '
p3324
sg22
Vtoday-was-a-good-day
p3325
sg24
(lp3326
g3318
ag3319
ag3320
ag3321
ag3322
aS'Today'
p3327
aS'was'
p3328
ag43
aS'good'
p3329
aS'day'
p3330
asg26
(lp3331
g3327
ag3328
ag43
ag3329
ag3330
asba(iMeme
Meme
p3332
(dp3333
g3
(lp3334
S'Had'
p3335
aS'to'
p3336
aS'wait'
p3337
ag8
aS'min'
p3338
aS'to'
p3339
aS'pay'
p3340
aS'At'
p3341
aS'chipotle'
p3342
aS'...'
p3343
aS'They'
p3344
aS"comp'ed"
p3345
aS'my'
p3346
aS'meal'
p3347
asg18
S"Had to wait 5 min to pay At chipotle... They comp'ed my meal "
p3348
sg20
S' Today was a good day '
p3349
sg22
Vtoday-was-a-good-day
p3350
sg24
(lp3351
g3335
ag3336
ag3337
ag8
ag3338
ag3339
ag3340
ag3341
ag3342
ag3343
ag3344
ag3345
ag3346
ag3347
aS'Today'
p3352
aS'was'
p3353
ag43
aS'good'
p3354
aS'day'
p3355
asg26
(lp3356
g3352
ag3353
ag43
ag3354
ag3355
asba(iMeme
Meme
p3357
(dp3358
g3
(lp3359
S'got'
p3360
ag43
aS'baby'
p3361
aS'brother'
p3362
asg18
S'got a baby brother '
p3363
sg20
S' today was a good day '
p3364
sg22
Vtoday-was-a-good-day
p3365
sg24
(lp3366
g3360
ag43
ag3361
ag3362
aS'today'
p3367
aS'was'
p3368
ag43
aS'good'
p3369
aS'day'
p3370
asg26
(lp3371
g3367
ag3368
ag43
ag3369
ag3370
asba(iMeme
Meme
p3372
(dp3373
g3
(lp3374
g66
aS'ca'
p3375
aS"n't"
p3376
aS'believe'
p3377
ag129
ag129
asg18
S"I can't believe!! "
p3378
sg20
S" They didn't put cheese on my sammich!! "
p3379
sg22
Vtoday-was-a-good-day
p3380
sg24
(lp3381
g66
ag3375
ag3376
ag3377
ag129
ag129
aS'They'
p3382
aS'did'
p3383
aS"n't"
p3384
aS'put'
p3385
aS'cheese'
p3386
aS'on'
p3387
aS'my'
p3388
aS'sammich'
p3389
ag129
ag129
asg26
(lp3390
g3382
ag3383
ag3384
ag3385
ag3386
ag3387
ag3388
ag3389
ag129
ag129
asba(iMeme
Meme
p3391
(dp3392
g3
(lp3393
g66
aS'upload'
p3394
aS'someone'
p3395
aS'offensive'
p3396
aS'images'
p3397
aS'on'
p3398
aS'imgur'
p3399
aS'today'
p3400
ag361
aS'and'
p3401
ag66
aS'was'
p3402
aS'not'
p3403
aS'killed'
p3404
asg18
S'I upload someone offensive images on imgur today, and I was not killed '
p3405
sg20
S' today was a good day '
p3406
sg22
Vtoday-was-a-good-day
p3407
sg24
(lp3408
g66
ag3394
ag3395
ag3396
ag3397
ag3398
ag3399
ag3400
ag361
ag3401
ag66
ag3402
ag3403
ag3404
aS'today'
p3409
aS'was'
p3410
ag43
aS'good'
p3411
aS'day'
p3412
asg26
(lp3413
g3409
ag3410
ag43
ag3411
ag3412
asba(iMeme
Meme
p3414
(dp3415
g3
(lp3416
S'both'
p3417
aS'cr7'
p3418
aS'and'
p3419
aS'messi'
p3420
aS'scored'
p3421
asg18
S'both cr7 and messi scored '
p3422
sg20
S' today was a good day '
p3423
sg22
Vtoday-was-a-good-day
p3424
sg24
(lp3425
g3417
ag3418
ag3419
ag3420
ag3421
aS'today'
p3426
aS'was'
p3427
ag43
aS'good'
p3428
aS'day'
p3429
asg26
(lp3430
g3426
ag3427
ag43
ag3428
ag3429
asba(iMeme
Meme
p3431
(dp3432
g3
(lp3433
S'First'
p3434
aS'pick'
p3435
aS'up'
p3436
aS'in'
p3437
aS'two'
p3438
aS'years'
p3439
asg18
S'First pick up in two years '
p3440
sg20
S' Today was a good day '
p3441
sg22
Vtoday-was-a-good-day
p3442
sg24
(lp3443
g3434
ag3435
ag3436
ag3437
ag3438
ag3439
aS'Today'
p3444
aS'was'
p3445
ag43
aS'good'
p3446
aS'day'
p3447
asg26
(lp3448
g3444
ag3445
ag43
ag3446
ag3447
asba(iMeme
Meme
p3449
(dp3450
g3
(lp3451
S'tebow'
p3452
aS'gets'
p3453
aS'cut'
p3454
aS'by'
p3455
aS'patiots'
p3456
ag361
aS'America'
p3457
aS'does'
p3458
aS"n't"
p3459
aS'pointlessly'
p3460
aS'enter'
p3461
aS'into'
p3462
aS'war'
p3463
asg18
S"tebow gets cut by patiots, America doesn't pointlessly enter into war "
p3464
sg20
S' Today was a good day '
p3465
sg22
Vtoday-was-a-good-day
p3466
sg24
(lp3467
g3452
ag3453
ag3454
ag3455
ag3456
ag361
ag3457
ag3458
ag3459
ag3460
ag3461
ag3462
ag3463
aS'Today'
p3468
aS'was'
p3469
ag43
aS'good'
p3470
aS'day'
p3471
asg26
(lp3472
g3468
ag3469
ag43
ag3470
ag3471
asba(iMeme
Meme
p3473
(dp3474
g3
(lp3475
S'walked'
p3476
aS'to'
p3477
aS'my'
p3478
aS'cubical'
p3479
aS'to'
p3480
aS'find'
p3481
ag43
aS'bunch'
p3482
aS'of'
p3483
aS'twinkies'
p3484
asg18
S'walked to my cubical to find a bunch of twinkies  '
p3485
sg20
S' it was a good day today '
p3486
sg22
Vtoday-was-a-good-day
p3487
sg24
(lp3488
g3476
ag3477
ag3478
ag3479
ag3480
ag3481
ag43
ag3482
ag3483
ag3484
aS'it'
p3489
aS'was'
p3490
ag43
aS'good'
p3491
aS'day'
p3492
aS'today'
p3493
asg26
(lp3494
g3489
ag3490
ag43
ag3491
ag3492
ag3493
asba(iMeme
Meme
p3495
(dp3496
g3
(lp3497
g309
aS'upvotes'
p3498
aS'37'
p3499
aS'downvotes'
p3500
asg18
S'3 upvotes 37 downvotes '
p3501
sg20
S' Today was a good day '
p3502
sg22
Vtoday-was-a-good-day
p3503
sg24
(lp3504
g309
ag3498
ag3499
ag3500
aS'Today'
p3505
aS'was'
p3506
ag43
aS'good'
p3507
aS'day'
p3508
asg26
(lp3509
g3505
ag3506
ag43
ag3507
ag3508
asba(iMeme
Meme
p3510
(dp3511
g3
(lp3512
S'Rig'
p3513
aS'specs'
p3514
aS'all'
p3515
aS'in'
p3516
aS'one'
p3517
aS'place'
p3518
ag361
aS'in'
p3519
aS'one'
p3520
aS'post'
p3521
asg18
S'Rig specs all in one place, in one post '
p3522
sg20
S' today was a good day '
p3523
sg22
Vtoday-was-a-good-day
p3524
sg24
(lp3525
g3513
ag3514
ag3515
ag3516
ag3517
ag3518
ag361
ag3519
ag3520
ag3521
aS'today'
p3526
aS'was'
p3527
ag43
aS'good'
p3528
aS'day'
p3529
asg26
(lp3530
g3526
ag3527
ag43
ag3528
ag3529
asba(iMeme
Meme
p3531
(dp3532
g3
(lp3533
S'My'
p3534
aS'little'
p3535
aS'shit'
p3536
aS'went'
p3537
aS'home'
p3538
aS'early'
p3539
asg18
S'My little shit went home early '
p3540
sg20
S' TODAY WAS A GOOD DAY '
p3541
sg22
Vtoday-was-a-good-day
p3542
sg24
(lp3543
g3534
ag3535
ag3536
ag3537
ag3538
ag3539
aS'TODAY'
p3544
aS'WAS'
p3545
ag2181
aS'GOOD'
p3546
aS'DAY'
p3547
asg26
(lp3548
g3544
ag3545
ag2181
ag3546
ag3547
asba(iMeme
Meme
p3549
(dp3550
g3
(lp3551
S'calculus'
p3552
aS'iii'
p3553
aS'got'
p3554
aS'canceled'
p3555
asg18
S'calculus iii got canceled '
p3556
sg20
S' today is a good day '
p3557
sg22
Vtoday-was-a-good-day
p3558
sg24
(lp3559
g3552
ag3553
ag3554
ag3555
aS'today'
p3560
aS'is'
p3561
ag43
aS'good'
p3562
aS'day'
p3563
asg26
(lp3564
g3560
ag3561
ag43
ag3562
ag3563
asba(iMeme
Meme
p3565
(dp3566
g3
(lp3567
S'Did'
p3568
aS"n't"
p3569
aS'get'
p3570
aS'yelled'
p3571
aS'at'
p3572
aS'today'
p3573
asg18
S"Didn't get yelled at today "
p3574
sg20
S' It was a good day '
p3575
sg22
Vtoday-was-a-good-day
p3576
sg24
(lp3577
g3568
ag3569
ag3570
ag3571
ag3572
ag3573
aS'It'
p3578
aS'was'
p3579
ag43
aS'good'
p3580
aS'day'
p3581
asg26
(lp3582
g3578
ag3579
ag43
ag3580
ag3581
asba(iMeme
Meme
p3583
(dp3584
g3
(lp3585
S'smoked'
p3586
ag43
aS'ricer'
p3587
asg18
S'smoked a ricer  '
p3588
sg20
S' today was a good day '
p3589
sg22
Vtoday-was-a-good-day
p3590
sg24
(lp3591
g3586
ag43
ag3587
aS'today'
p3592
aS'was'
p3593
ag43
aS'good'
p3594
aS'day'
p3595
asg26
(lp3596
g3592
ag3593
ag43
ag3594
ag3595
asba(iMeme
Meme
p3597
(dp3598
g3
(lp3599
S'did'
p3600
aS"n't"
p3601
aS'run'
p3602
aS'into'
p3603
ag43
aS'flying'
p3604
aS'c4'
p3605
asg18
S"didn't run into a flying c4 "
p3606
sg20
S' today was a good day '
p3607
sg22
Vtoday-was-a-good-day
p3608
sg24
(lp3609
g3600
ag3601
ag3602
ag3603
ag43
ag3604
ag3605
aS'today'
p3610
aS'was'
p3611
ag43
aS'good'
p3612
aS'day'
p3613
asg26
(lp3614
g3610
ag3611
ag43
ag3612
ag3613
asba(iMeme
Meme
p3615
(dp3616
g3
(lp3617
S'On'
p3618
aS'your'
p3619
aS'ride'
p3620
aS'Home'
p3621
asg18
S'On your ride Home '
p3622
sg20
S' Damn.......Today was a good day!!!! '
p3623
sg22
Vtoday-was-a-good-day
p3624
sg24
(lp3625
g3618
ag3619
ag3620
ag3621
aS'Damn'
p3626
aS'...'
p3627
aS'...'
p3628
aS'.Today'
p3629
aS'was'
p3630
ag43
aS'good'
p3631
aS'day'
p3632
ag129
ag129
ag129
ag129
asg26
(lp3633
g3626
ag3627
ag3628
ag3629
ag3630
ag43
ag3631
ag3632
ag129
ag129
ag129
ag129
asba(iMeme
Meme
p3634
(dp3635
g3
(lp3636
S'today'
p3637
aS'on'
p3638
aS'moco'
p3639
asg18
S'today on moco '
p3640
sg20
S' a retard tried to impress me '
p3641
sg22
Vtoday-was-a-good-day
p3642
sg24
(lp3643
g3637
ag3638
ag3639
ag43
aS'retard'
p3644
aS'tried'
p3645
aS'to'
p3646
aS'impress'
p3647
aS'me'
p3648
asg26
(lp3649
g43
ag3644
ag3645
ag3646
ag3647
ag3648
asba(iMeme
Meme
p3650
(dp3651
g3
(lp3652
S'auriemma'
p3653
aS'only'
p3654
aS'whined'
p3655
aS'on'
p3656
ag1162
aS'posts'
p3657
aS'in'
p3658
aS'24'
p3659
aS'hours'
p3660
asg18
S'auriemma only whined on 2 posts in 24 hours '
p3661
sg20
S' today was a good day '
p3662
sg22
Vtoday-was-a-good-day
p3663
sg24
(lp3664
g3653
ag3654
ag3655
ag3656
ag1162
ag3657
ag3658
ag3659
ag3660
aS'today'
p3665
aS'was'
p3666
ag43
aS'good'
p3667
aS'day'
p3668
asg26
(lp3669
g3665
ag3666
ag43
ag3667
ag3668
asba(iMeme
Meme
p3670
(dp3671
g3
(lp3672
S'Simone'
p3673
aS'was'
p3674
aS"n't"
p3675
aS'here'
p3676
asg18
S"Simone wasn't here "
p3677
sg20
S' today was a good day '
p3678
sg22
Vtoday-was-a-good-day
p3679
sg24
(lp3680
g3673
ag3674
ag3675
ag3676
aS'today'
p3681
aS'was'
p3682
ag43
aS'good'
p3683
aS'day'
p3684
asg26
(lp3685
g3681
ag3682
ag43
ag3683
ag3684
asba(iMeme
Meme
p3686
(dp3687
g3
(lp3688
S'was'
p3689
aS'only'
p3690
aS'told'
p3691
aS'to'
p3692
aS'fuck'
p3693
aS'you'
p3694
aS'once'
p3695
asg18
S'was only told to fuck you once '
p3696
sg20
S' today was a good day '
p3697
sg22
Vtoday-was-a-good-day
p3698
sg24
(lp3699
g3689
ag3690
ag3691
ag3692
ag3693
ag3694
ag3695
aS'today'
p3700
aS'was'
p3701
ag43
aS'good'
p3702
aS'day'
p3703
asg26
(lp3704
g3700
ag3701
ag43
ag3702
ag3703
asba(iMeme
Meme
p3705
(dp3706
g3
(lp3707
S'eskrampled'
p3708
aS'eggs'
p3709
aS'for'
p3710
aS'breakfast'
p3711
asg18
S'eskrampled eggs for breakfast '
p3712
sg20
S' today was a good day '
p3713
sg22
Vtoday-was-a-good-day
p3714
sg24
(lp3715
g3708
ag3709
ag3710
ag3711
aS'today'
p3716
aS'was'
p3717
ag43
aS'good'
p3718
aS'day'
p3719
asg26
(lp3720
g3716
ag3717
ag43
ag3718
ag3719
asba(iMeme
Meme
p3721
(dp3722
g3
(lp3723
S'The'
p3724
aS'Shield'
p3725
aS'had'
p3726
aS'two'
p3727
aS'matches'
p3728
aS'and'
p3729
aS'won'
p3730
aS'both'
p3731
ag97
asg18
S'The Shield had two matches and won both. '
p3732
sg20
S' Today was a good day. '
p3733
sg22
Vtoday-was-a-good-day
p3734
sg24
(lp3735
g3724
ag3725
ag3726
ag3727
ag3728
ag3729
ag3730
ag3731
ag97
aS'Today'
p3736
aS'was'
p3737
ag43
aS'good'
p3738
aS'day'
p3739
ag97
asg26
(lp3740
g3736
ag3737
ag43
ag3738
ag3739
ag97
asba(iMeme
Meme
p3741
(dp3742
g3
(lp3743
S'Got'
p3744
aS'to'
p3745
aS'Cypress'
p3746
ag361
aS'Stopped'
p3747
aS'Turks'
p3748
ag361
aS'Listened'
p3749
aS'to'
p3750
aS'Iago'
p3751
asg18
S'Got to Cypress, Stopped Turks, Listened to Iago '
p3752
sg20
S' Today was a good day '
p3753
sg22
Vtoday-was-a-good-day
p3754
sg24
(lp3755
g3744
ag3745
ag3746
ag361
ag3747
ag3748
ag361
ag3749
ag3750
ag3751
aS'Today'
p3756
aS'was'
p3757
ag43
aS'good'
p3758
aS'day'
p3759
asg26
(lp3760
g3756
ag3757
ag43
ag3758
ag3759
asba(iMeme
Meme
p3761
(dp3762
g3
(lp3763
S'did'
p3764
aS"n't"
p3765
aS'die'
p3766
aS'at'
p3767
aS'six'
p3768
aS'flags'
p3769
asg18
S"didn't die at six flags "
p3770
sg20
S' today was a good day '
p3771
sg22
Vtoday-was-a-good-day
p3772
sg24
(lp3773
g3764
ag3765
ag3766
ag3767
ag3768
ag3769
aS'today'
p3774
aS'was'
p3775
ag43
aS'good'
p3776
aS'day'
p3777
asg26
(lp3778
g3774
ag3775
ag43
ag3776
ag3777
asba(iMeme
Meme
p3779
(dp3780
g3
(lp3781
S'She'
p3782
aS'let'
p3783
aS'me'
p3784
aS'fuck'
p3785
aS'so'
p3786
ag66
asg18
S'She let me fuck so I '
p3787
sg20
S' Guess today wAs a GooD day '
p3788
sg22
Vtoday-was-a-good-day
p3789
sg24
(lp3790
g3782
ag3783
ag3784
ag3785
ag3786
ag66
aS'Guess'
p3791
aS'today'
p3792
aS'wAs'
p3793
ag43
aS'GooD'
p3794
aS'day'
p3795
asg26
(lp3796
g3791
ag3792
ag3793
ag43
ag3794
ag3795
asba(iMeme
Meme
p3797
(dp3798
g3
(lp3799
S'Got'
p3800
aS'six'
p3801
aS'likes'
p3802
aS'and'
p3803
aS'two'
p3804
aS'upvotes'
p3805
asg18
S'Got six likes and two upvotes '
p3806
sg20
S' today was a good day. '
p3807
sg22
Vtoday-was-a-good-day
p3808
sg24
(lp3809
g3800
ag3801
ag3802
ag3803
ag3804
ag3805
aS'today'
p3810
aS'was'
p3811
ag43
aS'good'
p3812
aS'day'
p3813
ag97
asg26
(lp3814
g3810
ag3811
ag43
ag3812
ag3813
ag97
asba(iMeme
Meme
p3815
(dp3816
g3
(lp3817
S'did'
p3818
ag462
aS'just'
p3819
aS'see'
p3820
asg18
S'did i just see  '
p3821
sg20
S' oj drive again... im out!!! '
p3822
sg22
Vtoday-was-a-good-day
p3823
sg24
(lp3824
g3818
ag462
ag3819
ag3820
aS'oj'
p3825
aS'drive'
p3826
aS'again'
p3827
aS'...'
p3828
aS'im'
p3829
aS'out'
p3830
ag129
ag129
ag129
asg26
(lp3831
g3825
ag3826
ag3827
ag3828
ag3829
ag3830
ag129
ag129
ag129
asba(iMeme
Meme
p3832
(dp3833
g3
(lp3834
S'Ditched'
p3835
aS'tha'
p3836
aS'honda'
p3837
aS'and'
p3838
aS'got'
p3839
ag43
aS'v8'
p3840
asg18
S'Ditched tha honda and got a v8 '
p3841
sg20
S' today was a good day '
p3842
sg22
Vtoday-was-a-good-day
p3843
sg24
(lp3844
g3835
ag3836
ag3837
ag3838
ag3839
ag43
ag3840
aS'today'
p3845
aS'was'
p3846
ag43
aS'good'
p3847
aS'day'
p3848
asg26
(lp3849
g3845
ag3846
ag43
ag3847
ag3848
asba(iMeme
Meme
p3850
(dp3851
g3
(lp3852
S'pissed'
p3853
aS'off'
p3854
aS'scott'
p3855
asg18
S'pissed off scott '
p3856
sg20
S' today was a good day '
p3857
sg22
Vtoday-was-a-good-day
p3858
sg24
(lp3859
g3853
ag3854
ag3855
aS'today'
p3860
aS'was'
p3861
ag43
aS'good'
p3862
aS'day'
p3863
asg26
(lp3864
g3860
ag3861
ag43
ag3862
ag3863
asba(iMeme
Meme
p3865
(dp3866
g3
(lp3867
S'Sang'
p3868
aS'Team'
p3869
aS'Rocket'
p3870
aS"'s"
p3871
aS'Motto'
p3872
aS'with'
p3873
aS'an'
p3874
aS'Admin'
p3875
asg18
S"Sang Team Rocket's Motto with an Admin "
p3876
sg20
S' Today was a good day '
p3877
sg22
Vtoday-was-a-good-day
p3878
sg24
(lp3879
g3868
ag3869
ag3870
ag3871
ag3872
ag3873
ag3874
ag3875
aS'Today'
p3880
aS'was'
p3881
ag43
aS'good'
p3882
aS'day'
p3883
asg26
(lp3884
g3880
ag3881
ag43
ag3882
ag3883
asba(iMeme
Meme
p3885
(dp3886
g3
(lp3887
g462
aS'found'
p3888
aS'this'
p3889
aS'site'
p3890
aS'where'
p3891
ag462
aS'can'
p3892
aS'make'
p3893
aS'my'
p3894
aS'own'
p3895
aS'memes'
p3896
asg18
S'i found this site where i can make my own memes '
p3897
sg20
S' today was a good day '
p3898
sg22
Vtoday-was-a-good-day
p3899
sg24
(lp3900
g462
ag3888
ag3889
ag3890
ag3891
ag462
ag3892
ag3893
ag3894
ag3895
ag3896
aS'today'
p3901
aS'was'
p3902
ag43
aS'good'
p3903
aS'day'
p3904
asg26
(lp3905
g3901
ag3902
ag43
ag3903
ag3904
asba(iMeme
Meme
p3906
(dp3907
g3
(lp3908
S'got'
p3909
ag43
aS'mint'
p3910
aS'chocolate'
p3911
aS'dilly'
p3912
aS'bar'
p3913
aS'from'
p3914
ag43
aS'coworker'
p3915
asg18
S'got a mint chocolate dilly bar from a coworker '
p3916
sg20
S' today was a good day '
p3917
sg22
Vtoday-was-a-good-day
p3918
sg24
(lp3919
g3909
ag43
ag3910
ag3911
ag3912
ag3913
ag3914
ag43
ag3915
aS'today'
p3920
aS'was'
p3921
ag43
aS'good'
p3922
aS'day'
p3923
asg26
(lp3924
g3920
ag3921
ag43
ag3922
ag3923
asba(iMeme
Meme
p3925
(dp3926
g3
(lp3927
g839
ag2236
aS'1511'
p3928
aS';'
p3929
ag839
ag2236
aS'1512'
p3930
ag3929
ag839
ag2236
aS'1488'
p3931
ag3929
ag839
ag2236
aS'1514'
p3932
ag3929
ag839
ag2236
aS'1497'
p3933
ag3929
ag839
ag2236
aS'1499'
p3934
ag3929
ag839
ag2236
aS'1514'
p3935
ag3929
ag839
ag2236
aS'1489'
p3936
ag3929
ag839
ag2236
aS'1492'
p3937
ag3929
ag839
ag2236
aS'1489'
p3938
ag3929
ag839
ag2236
aS'1490'
p3939
ag3929
ag839
ag2236
aS'1500'
p3940
ag3929
ag839
ag2236
aS'1493'
p3941
ag3929
ag839
ag2236
aS'1489'
p3942
ag3929
ag839
ag2236
aS'1505'
p3943
ag3929
asg18
S'&#1511;&#1512;&#1488;&#1514;&#1497; &#1499;&#1514;&#1489;&#1492; &#1489;&#1490;&#1500;&#1493;&#1489;&#1505; '
p3944
sg20
S' today was a good day '
p3945
sg22
Vtoday-was-a-good-day
p3946
sg24
(lp3947
g839
ag2236
ag3928
ag3929
ag839
ag2236
ag3930
ag3929
ag839
ag2236
ag3931
ag3929
ag839
ag2236
ag3932
ag3929
ag839
ag2236
ag3933
ag3929
ag839
ag2236
ag3934
ag3929
ag839
ag2236
ag3935
ag3929
ag839
ag2236
ag3936
ag3929
ag839
ag2236
ag3937
ag3929
ag839
ag2236
ag3938
ag3929
ag839
ag2236
ag3939
ag3929
ag839
ag2236
ag3940
ag3929
ag839
ag2236
ag3941
ag3929
ag839
ag2236
ag3942
ag3929
ag839
ag2236
ag3943
ag3929
aS'today'
p3948
aS'was'
p3949
ag43
aS'good'
p3950
aS'day'
p3951
asg26
(lp3952
g3948
ag3949
ag43
ag3950
ag3951
asba(iMeme
Meme
p3953
(dp3954
g3
(lp3955
S'An'
p3956
aS'international'
p3957
aS'bank'
p3958
aS'licensed'
p3959
aS'the'
p3960
aS'hell'
p3961
aS'out'
p3962
aS'of'
p3963
aS'one'
p3964
aS'of'
p3965
aS'my'
p3966
aS'photos'
p3967
asg18
S'An international bank licensed the hell out of one of my photos '
p3968
sg20
S' today was a good day '
p3969
sg22
Vtoday-was-a-good-day
p3970
sg24
(lp3971
g3956
ag3957
ag3958
ag3959
ag3960
ag3961
ag3962
ag3963
ag3964
ag3965
ag3966
ag3967
aS'today'
p3972
aS'was'
p3973
ag43
aS'good'
p3974
aS'day'
p3975
asg26
(lp3976
g3972
ag3973
ag43
ag3974
ag3975
asba(iMeme
Meme
p3977
(dp3978
g3
(lp3979
S'DOMA'
p3980
aS'declared'
p3981
aS'unconstitutional'
p3982
ag839
aS'Daft'
p3983
aS'Punk'
p3984
aS'remix'
p3985
aS'drops'
p3986
asg18
S'DOMA declared unconstitutional & Daft Punk remix drops '
p3987
sg20
S' today is a good day '
p3988
sg22
Vtoday-was-a-good-day
p3989
sg24
(lp3990
g3980
ag3981
ag3982
ag839
ag3983
ag3984
ag3985
ag3986
aS'today'
p3991
aS'is'
p3992
ag43
aS'good'
p3993
aS'day'
p3994
asg26
(lp3995
g3991
ag3992
ag43
ag3993
ag3994
asba(iMeme
Meme
p3996
(dp3997
g3
(lp3998
S'SUBMITTED'
p3999
aS'both'
p4000
aS'T'
p4001
ag839
aS'E'
p4002
aS'and'
p4003
aS'TB/RKN'
p4004
aS'on'
p4005
aS'time'
p4006
asg18
S'SUBMITTED both T&E and TB/RKN on time '
p4007
sg20
S' today was a good day '
p4008
sg22
Vtoday-was-a-good-day
p4009
sg24
(lp4010
g3999
ag4000
ag4001
ag839
ag4002
ag4003
ag4004
ag4005
ag4006
aS'today'
p4011
aS'was'
p4012
ag43
aS'good'
p4013
aS'day'
p4014
asg26
(lp4015
g4011
ag4012
ag43
ag4013
ag4014
asba(iMeme
Meme
p4016
(dp4017
g3
(lp4018
S'Microsoft'
p4019
aS'pulls'
p4020
aS'drm'
p4021
aS'and'
p4022
aS'new'
p4023
aS'bleach'
p4024
aS'manga'
p4025
aS'was'
p4026
aS'amazing'
p4027
asg18
S'Microsoft pulls drm and new bleach manga was amazing '
p4028
sg20
S' today was a good day '
p4029
sg22
Vtoday-was-a-good-day
p4030
sg24
(lp4031
g4019
ag4020
ag4021
ag4022
ag4023
ag4024
ag4025
ag4026
ag4027
aS'today'
p4032
aS'was'
p4033
ag43
aS'good'
p4034
aS'day'
p4035
asg26
(lp4036
g4032
ag4033
ag43
ag4034
ag4035
asba(iMeme
Meme
p4037
(dp4038
g3
(lp4039
S'Angels'
p4040
aS'rallied'
p4041
aS'after'
p4042
aS'trailing'
p4043
aS'8'
p4044
asg18
S'Angels rallied after trailing 8'
p4045
sg20
S'1 and won the game 10'
p4046
sg22
Vtoday-was-a-good-day
p4047
sg24
(lp4048
g4040
ag4041
ag4042
ag4043
ag4044
aS'1'
p4049
aS'and'
p4050
aS'won'
p4051
aS'the'
p4052
aS'game'
p4053
aS'10'
p4054
asg26
(lp4055
g4049
ag4050
ag4051
ag4052
ag4053
ag4054
asba(iMeme
Meme
p4056
(dp4057
g3
(lp4058
S'Got'
p4059
ag43
aS'swarm'
p4060
asg18
S'Got a swarm '
p4061
sg20
S' TODAY was a good day '
p4062
sg22
Vtoday-was-a-good-day
p4063
sg24
(lp4064
g4059
ag43
ag4060
aS'TODAY'
p4065
aS'was'
p4066
ag43
aS'good'
p4067
aS'day'
p4068
asg26
(lp4069
g4065
ag4066
ag43
ag4067
ag4068
asba(iMeme
Meme
p4070
(dp4071
g3
(lp4072
S'Niggas'
p4073
aS'be'
p4074
aS'like'
p4075
aS'finally'
p4076
aS'paid'
p4077
aS'child'
p4078
aS'sUpport'
p4079
asg18
S'Niggas be like finally paid child sUpport '
p4080
sg20
S' Today was a good day '
p4081
sg22
Vtoday-was-a-good-day
p4082
sg24
(lp4083
g4073
ag4074
ag4075
ag4076
ag4077
ag4078
ag4079
aS'Today'
p4084
aS'was'
p4085
ag43
aS'good'
p4086
aS'day'
p4087
asg26
(lp4088
g4084
ag4085
ag43
ag4086
ag4087
asba(iMeme
Meme
p4089
(dp4090
g3
(lp4091
S'damm'
p4092
asg18
S'damm '
p4093
sg20
S' thats a bad ass honky '
p4094
sg22
Vtoday-was-a-good-day
p4095
sg24
(lp4096
g4092
aS'thats'
p4097
ag43
aS'bad'
p4098
aS'ass'
p4099
aS'honky'
p4100
asg26
(lp4101
g4097
ag43
ag4098
ag4099
ag4100
asba(iMeme
Meme
p4102
(dp4103
g3
(lp4104
g462
aS'am'
p4105
aS'roll'
p4106
aS'in'
p4107
aS'and'
p4108
asg18
S'i am roll in and  '
p4109
sg20
S' they haten... ass holes '
p4110
sg22
Vtoday-was-a-good-day
p4111
sg24
(lp4112
g462
ag4105
ag4106
ag4107
ag4108
aS'they'
p4113
aS'haten'
p4114
aS'...'
p4115
aS'ass'
p4116
aS'holes'
p4117
asg26
(lp4118
g4113
ag4114
ag4115
ag4116
ag4117
asba(iMeme
Meme
p4119
(dp4120
g3
(lp4121
S'Passed'
p4122
aS'class'
p4123
aS'And'
p4124
aS'cr'
p4125
aS'is'
p4126
aS'now'
p4127
aS'available'
p4128
aS'on'
p4129
aS'apple'
p4130
aS'tv'
p4131
asg18
S'Passed class And cr is now available on apple tv '
p4132
sg20
S' Today wAs a Good day '
p4133
sg22
Vtoday-was-a-good-day
p4134
sg24
(lp4135
g4122
ag4123
ag4124
ag4125
ag4126
ag4127
ag4128
ag4129
ag4130
ag4131
aS'Today'
p4136
aS'wAs'
p4137
ag43
aS'Good'
p4138
aS'day'
p4139
asg26
(lp4140
g4136
ag4137
ag43
ag4138
ag4139
asba(iMeme
Meme
p4141
(dp4142
g3
(lp4143
S'cake'
p4144
aS'day'
p4145
asg18
S'cake day '
p4146
sg20
S' toady was a good day '
p4147
sg22
Vtoday-was-a-good-day
p4148
sg24
(lp4149
g4144
ag4145
aS'toady'
p4150
aS'was'
p4151
ag43
aS'good'
p4152
aS'day'
p4153
asg26
(lp4154
g4150
ag4151
ag43
ag4152
ag4153
asba(iMeme
Meme
p4155
(dp4156
g3
(lp4157
S'did'
p4158
aS"n't"
p4159
aS'play'
p4160
aS'the'
p4161
aS'drums'
p4162
aS'for'
p4163
aS'aly'
p4164
asg18
S"didn't play the drums for aly "
p4165
sg20
S' today was a good day '
p4166
sg22
Vtoday-was-a-good-day
p4167
sg24
(lp4168
g4158
ag4159
ag4160
ag4161
ag4162
ag4163
ag4164
aS'today'
p4169
aS'was'
p4170
ag43
aS'good'
p4171
aS'day'
p4172
asg26
(lp4173
g4169
ag4170
ag43
ag4171
ag4172
asba(iMeme
Meme
p4174
(dp4175
g3
(lp4176
S'learned'
p4177
aS'the'
p4178
aS'difference'
p4179
aS'between'
p4180
aS'who'
p4181
aS'and'
p4182
aS'whom'
p4183
asg18
S'learned the difference between who and whom '
p4184
sg20
S' today was a gpod day '
p4185
sg22
Vtoday-was-a-good-day
p4186
sg24
(lp4187
g4177
ag4178
ag4179
ag4180
ag4181
ag4182
ag4183
aS'today'
p4188
aS'was'
p4189
ag43
aS'gpod'
p4190
aS'day'
p4191
asg26
(lp4192
g4188
ag4189
ag43
ag4190
ag4191
asba(iMeme
Meme
p4193
(dp4194
g3
(lp4195
S'thugz'
p4196
aS'be'
p4197
aS'like'
p4198
asg18
S'thugz be like  '
p4199
sg20
S' i got a interview '
p4200
sg22
Vtoday-was-a-good-day
p4201
sg24
(lp4202
g4196
ag4197
ag4198
ag462
aS'got'
p4203
ag43
aS'interview'
p4204
asg26
(lp4205
g462
ag4203
ag43
ag4204
asba(iMeme
Meme
p4206
(dp4207
g3
(lp4208
S'cubs'
p4209
aS'lose'
p4210
asg18
S'cubs lose '
p4211
sg20
S' it Was a Good Day '
p4212
sg22
Vtoday-was-a-good-day
p4213
sg24
(lp4214
g4209
ag4210
aS'it'
p4215
aS'Was'
p4216
ag43
aS'Good'
p4217
aS'Day'
p4218
asg26
(lp4219
g4215
ag4216
ag43
ag4217
ag4218
asba(iMeme
Meme
p4220
(dp4221
g3
(lp4222
S'Turks'
p4223
aS'killing'
p4224
aS'Turks'
p4225
asg18
S'Turks killing Turks '
p4226
sg20
S' Today was a good day '
p4227
sg22
Vtoday-was-a-good-day
p4228
sg24
(lp4229
g4223
ag4224
ag4225
aS'Today'
p4230
aS'was'
p4231
ag43
aS'good'
p4232
aS'day'
p4233
asg26
(lp4234
g4230
ag4231
ag43
ag4232
ag4233
asba(iMeme
Meme
p4235
(dp4236
g3
(lp4237
S'today'
p4238
aS'was'
p4239
ag43
aS'good'
p4240
aS'day'
p4241
asg18
S'today was a good day '
p4242
sg20
S'  '
p4243
sg22
Vtoday-was-a-good-day
p4244
sg24
(lp4245
g4238
ag4239
ag43
ag4240
ag4241
asg26
(lp4246
sba(iMeme
Meme
p4247
(dp4248
g3
(lp4249
g66
aS'got'
p4250
aS'the'
p4251
aS'mystic'
p4252
aS'dragon'
p4253
aS'capri'
p4254
asg18
S'I got the mystic dragon capri'
p4255
sg20
S'sun '
p4256
sg22
Vtoday-was-a-good-day
p4257
sg24
(lp4258
g66
ag4250
ag4251
ag4252
ag4253
ag4254
aS'sun'
p4259
asg26
(lp4260
g4259
asba(iMeme
Meme
p4261
(dp4262
g3
(lp4263
S'Girlfriend'
p4264
aS'started'
p4265
aS'visa'
p4266
aS'application'
p4267
aS'for'
p4268
aS'summer'
p4269
aS'job'
p4270
asg18
S'Girlfriend started visa application for summer job '
p4271
sg20
S' today was a good day '
p4272
sg22
Vtoday-was-a-good-day
p4273
sg24
(lp4274
g4264
ag4265
ag4266
ag4267
ag4268
ag4269
ag4270
aS'today'
p4275
aS'was'
p4276
ag43
aS'good'
p4277
aS'day'
p4278
asg26
(lp4279
g4275
ag4276
ag43
ag4277
ag4278
asba(iMeme
Meme
p4280
(dp4281
g3
(lp4282
S'Made'
p4283
ag948
aS'200'
p4284
aS'and'
p4285
aS'Leafs'
p4286
aS'Make'
p4287
aS'the'
p4288
aS'Playoffs'
p4289
asg18
S'Made $200 and Leafs Make the Playoffs '
p4290
sg20
S' Today was a good day '
p4291
sg22
Vtoday-was-a-good-day
p4292
sg24
(lp4293
g4283
ag948
ag4284
ag4285
ag4286
ag4287
ag4288
ag4289
aS'Today'
p4294
aS'was'
p4295
ag43
aS'good'
p4296
aS'day'
p4297
asg26
(lp4298
g4294
ag4295
ag43
ag4296
ag4297
asba(iMeme
Meme
p4299
(dp4300
g3
(lp4301
S'man'
p4302
aS'fuck'
p4303
aS'that'
p4304
aS'bitch'
p4305
asg18
S'man fuck that bitch '
p4306
sg20
S" I'ma drive with the top down "
p4307
sg22
Vtoday-was-a-good-day
p4308
sg24
(lp4309
g4302
ag4303
ag4304
ag4305
aS"I'ma"
p4310
aS'drive'
p4311
aS'with'
p4312
aS'the'
p4313
aS'top'
p4314
aS'down'
p4315
asg26
(lp4316
g4310
ag4311
ag4312
ag4313
ag4314
ag4315
asba(iMeme
Meme
p4317
(dp4318
g3
(lp4319
S'kings'
p4320
aS'and'
p4321
aS'pacers'
p4322
aS'won'
p4323
asg18
S'kings and pacers won '
p4324
sg20
S' Today was a good day '
p4325
sg22
Vtoday-was-a-good-day
p4326
sg24
(lp4327
g4320
ag4321
ag4322
ag4323
aS'Today'
p4328
aS'was'
p4329
ag43
aS'good'
p4330
aS'day'
p4331
asg26
(lp4332
g4328
ag4329
ag43
ag4330
ag4331
asba(iMeme
Meme
p4333
(dp4334
g3
(lp4335
S'Set'
p4336
asg18
S'Set'
p4337
sg20
S"up and cleaned up a wedding. Planner wasn't a bitch, got hit on by the Mother of the Bride. "
p4338
sg22
Vtoday-was-a-good-day
p4339
sg24
(lp4340
g4336
aS'up'
p4341
aS'and'
p4342
aS'cleaned'
p4343
aS'up'
p4344
ag43
aS'wedding'
p4345
ag97
aS'Planner'
p4346
aS'was'
p4347
aS"n't"
p4348
ag43
aS'bitch'
p4349
ag361
aS'got'
p4350
aS'hit'
p4351
aS'on'
p4352
aS'by'
p4353
aS'the'
p4354
aS'Mother'
p4355
aS'of'
p4356
aS'the'
p4357
aS'Bride'
p4358
ag97
asg26
(lp4359
g4341
ag4342
ag4343
ag4344
ag43
ag4345
ag97
ag4346
ag4347
ag4348
ag43
ag4349
ag361
ag4350
ag4351
ag4352
ag4353
ag4354
ag4355
ag4356
ag4357
ag4358
ag97
asba(iMeme
Meme
p4360
(dp4361
g3
(lp4362
S'Retweeted'
p4363
aS'by'
p4364
aS'the'
p4365
aS'Duffelblog'
p4366
aS'and'
p4367
aS'Terminal'
p4368
aS'Lance'
p4369
asg18
S'Retweeted by the Duffelblog and Terminal Lance '
p4370
sg20
S' Today was a good day '
p4371
sg22
Vtoday-was-a-good-day
p4372
sg24
(lp4373
g4363
ag4364
ag4365
ag4366
ag4367
ag4368
ag4369
aS'Today'
p4374
aS'was'
p4375
ag43
aS'good'
p4376
aS'day'
p4377
asg26
(lp4378
g4374
ag4375
ag43
ag4376
ag4377
asba(iMeme
Meme
p4379
(dp4380
g3
(lp4381
S'its'
p4382
aS'the'
p4383
aS'popo'
p4384
asg18
S'its the popo '
p4385
sg20
S' lock the doors '
p4386
sg22
Vtoday-was-a-good-day
p4387
sg24
(lp4388
g4382
ag4383
ag4384
aS'lock'
p4389
aS'the'
p4390
aS'doors'
p4391
asg26
(lp4392
g4389
ag4390
ag4391
asba(iMeme
Meme
p4393
(dp4394
g3
(lp4395
S'Back'
p4396
aS'from'
p4397
aS'WalMart'
p4398
aS'and'
p4399
aS'did'
p4400
aS"n't"
p4401
aS'kill'
p4402
aS'anyone'
p4403
asg18
S"Back from WalMart and didn't kill anyone "
p4404
sg20
S' TODAY WAS A GOOD DAY '
p4405
sg22
Vtoday-was-a-good-day
p4406
sg24
(lp4407
g4396
ag4397
ag4398
ag4399
ag4400
ag4401
ag4402
ag4403
aS'TODAY'
p4408
aS'WAS'
p4409
ag2181
aS'GOOD'
p4410
aS'DAY'
p4411
asg26
(lp4412
g4408
ag4409
ag2181
ag4410
ag4411
asba(iMeme
Meme
p4413
(dp4414
g3
(lp4415
S'plays'
p4416
ag43
aS'team'
p4417
aS'with'
p4418
aS'van'
p4419
aS'buyten'
p4420
asg18
S'plays a team with van buyten '
p4421
sg20
S' today was a good dau '
p4422
sg22
Vtoday-was-a-good-day
p4423
sg24
(lp4424
g4416
ag43
ag4417
ag4418
ag4419
ag4420
aS'today'
p4425
aS'was'
p4426
ag43
aS'good'
p4427
aS'dau'
p4428
asg26
(lp4429
g4425
ag4426
ag43
ag4427
ag4428
asba(iMeme
Meme
p4430
(dp4431
g3
(lp4432
S'It'
p4433
aS"'s"
p4434
aS'Friday'
p4435
aS'and'
p4436
ag66
aS"'m"
p4437
aS'so'
p4438
aS'excited'
p4439
aS'to'
p4440
aS'work'
p4441
aS'tonight'
p4442
asg18
S"It's Friday and I'm so excited to work tonight  "
p4443
sg20
S' Said no one ever  '
p4444
sg22
Vtoday-was-a-good-day
p4445
sg24
(lp4446
g4433
ag4434
ag4435
ag4436
ag66
ag4437
ag4438
ag4439
ag4440
ag4441
ag4442
aS'Said'
p4447
aS'no'
p4448
aS'one'
p4449
aS'ever'
p4450
asg26
(lp4451
g4447
ag4448
ag4449
ag4450
asba(iMeme
Meme
p4452
(dp4453
g3
(lp4454
g66
aS'did'
p4455
aS'absolutely'
p4456
aS'NOTHING'
p4457
aS'at'
p4458
aS'work'
p4459
asg18
S'I did absolutely NOTHING at work '
p4460
sg20
S' Today was a good day '
p4461
sg22
Vtoday-was-a-good-day
p4462
sg24
(lp4463
g66
ag4455
ag4456
ag4457
ag4458
ag4459
aS'Today'
p4464
aS'was'
p4465
ag43
aS'good'
p4466
aS'day'
p4467
asg26
(lp4468
g4464
ag4465
ag43
ag4466
ag4467
asba(iMeme
Meme
p4469
(dp4470
g3
(lp4471
sg18
S' '
p4472
sg20
S' Today was a good day '
p4473
sg22
Vtoday-was-a-good-day
p4474
sg24
(lp4475
S'Today'
p4476
aS'was'
p4477
ag43
aS'good'
p4478
aS'day'
p4479
asg26
(lp4480
g4476
ag4477
ag43
ag4478
ag4479
asba(iMeme
Meme
p4481
(dp4482
g3
(lp4483
S'Niggas'
p4484
aS'be'
p4485
aS'like'
p4486
asg18
S'Niggas be like '
p4487
sg20
S' Heading to tiarra house boutta get some bop '
p4488
sg22
Vtoday-was-a-good-day
p4489
sg24
(lp4490
g4484
ag4485
ag4486
aS'Heading'
p4491
aS'to'
p4492
aS'tiarra'
p4493
aS'house'
p4494
aS'boutta'
p4495
aS'get'
p4496
aS'some'
p4497
aS'bop'
p4498
asg26
(lp4499
g4491
ag4492
ag4493
ag4494
ag4495
ag4496
ag4497
ag4498
asba(iMeme
Meme
p4500
(dp4501
g3
(lp4502
S'Met'
p4503
aS'Raufasertapete'
p4504
aS'in'
p4505
aS'normal'
p4506
aS'game'
p4507
aS'and'
p4508
aS'won'
p4509
asg18
S'Met Raufasertapete in normal game and won '
p4510
sg20
S' Today was a good day '
p4511
sg22
Vtoday-was-a-good-day
p4512
sg24
(lp4513
g4503
ag4504
ag4505
ag4506
ag4507
ag4508
ag4509
aS'Today'
p4514
aS'was'
p4515
ag43
aS'good'
p4516
aS'day'
p4517
asg26
(lp4518
g4514
ag4515
ag43
ag4516
ag4517
asba(iMeme
Meme
p4519
(dp4520
g3
(lp4521
S'Got'
p4522
ag43
aS'raise'
p4523
asg18
S'Got a raise  '
p4524
sg20
S' Today was a good day '
p4525
sg22
Vtoday-was-a-good-day
p4526
sg24
(lp4527
g4522
ag43
ag4523
aS'Today'
p4528
aS'was'
p4529
ag43
aS'good'
p4530
aS'day'
p4531
asg26
(lp4532
g4528
ag4529
ag43
ag4530
ag4531
asba(iMeme
Meme
p4533
(dp4534
g3
(lp4535
S'skanks'
p4536
aS'lose'
p4537
aS'to'
p4538
aS'texas'
p4539
asg18
S'skanks lose to texas '
p4540
sg20
S' today was a good day '
p4541
sg22
Vtoday-was-a-good-day
p4542
sg24
(lp4543
g4536
ag4537
ag4538
ag4539
aS'today'
p4544
aS'was'
p4545
ag43
aS'good'
p4546
aS'day'
p4547
asg26
(lp4548
g4544
ag4545
ag43
ag4546
ag4547
asba(iMeme
Meme
p4549
(dp4550
g3
(lp4551
S'storch'
p4552
aS'gave'
p4553
aS'me'
p4554
aS'some'
p4555
aS'swazi'
p4556
asg18
S'storch gave me some swazi '
p4557
sg20
S' today was a good day '
p4558
sg22
Vtoday-was-a-good-day
p4559
sg24
(lp4560
g4552
ag4553
ag4554
ag4555
ag4556
aS'today'
p4561
aS'was'
p4562
ag43
aS'good'
p4563
aS'day'
p4564
asg26
(lp4565
g4561
ag4562
ag43
ag4563
ag4564
asba(iMeme
Meme
p4566
(dp4567
g3
(lp4568
sg18
S' '
p4569
sg20
S' Today was a good day '
p4570
sg22
Vtoday-was-a-good-day
p4571
sg24
(lp4572
S'Today'
p4573
aS'was'
p4574
ag43
aS'good'
p4575
aS'day'
p4576
asg26
(lp4577
g4573
ag4574
ag43
ag4575
ag4576
asba(iMeme
Meme
p4578
(dp4579
g3
(lp4580
g2181
aS'co'
p4581
asg18
S'A co'
p4582
sg20
S'worker called me        "Not fat" '
p4583
sg22
Vtoday-was-a-good-day
p4584
sg24
(lp4585
g2181
ag4581
aS'worker'
p4586
aS'called'
p4587
aS'me'
p4588
aS'``'
p4589
aS'Not'
p4590
aS'fat'
p4591
aS"''"
p4592
asg26
(lp4593
g4586
ag4587
ag4588
ag4589
ag4590
ag4591
ag4592
asba(iMeme
Meme
p4594
(dp4595
g3
(lp4596
S'gf'
p4597
aS'didnt'
p4598
aS'insult'
p4599
aS'me'
p4600
asg18
S'gf didnt insult me '
p4601
sg20
S' today was a GOOd day '
p4602
sg22
Vtoday-was-a-good-day
p4603
sg24
(lp4604
g4597
ag4598
ag4599
ag4600
aS'today'
p4605
aS'was'
p4606
ag43
aS'GOOd'
p4607
aS'day'
p4608
asg26
(lp4609
g4605
ag4606
ag43
ag4607
ag4608
asba(iMeme
Meme
p4610
(dp4611
g3
(lp4612
S'hoje'
p4613
aS'o'
p4614
aS'cedric'
p4615
aS'nao'
p4616
aS'falou'
p4617
aS'no'
p4618
aS'skype'
p4619
asg18
S'hoje o cedric nao falou no skype '
p4620
sg20
S' today was a good day '
p4621
sg22
Vtoday-was-a-good-day
p4622
sg24
(lp4623
g4613
ag4614
ag4615
ag4616
ag4617
ag4618
ag4619
aS'today'
p4624
aS'was'
p4625
ag43
aS'good'
p4626
aS'day'
p4627
asg26
(lp4628
g4624
ag4625
ag43
ag4626
ag4627
asba(iMeme
Meme
p4629
(dp4630
g3
(lp4631
g2181
aS'co'
p4632
asg18
S'A co'
p4633
sg20
S'worker called mE "not fat"  '
p4634
sg22
Vtoday-was-a-good-day
p4635
sg24
(lp4636
g2181
ag4632
aS'worker'
p4637
aS'called'
p4638
aS'mE'
p4639
aS'``'
p4640
aS'not'
p4641
aS'fat'
p4642
aS"''"
p4643
asg26
(lp4644
g4637
ag4638
ag4639
ag4640
ag4641
ag4642
ag4643
asba(iMeme
Meme
p4645
(dp4646
g3
(lp4647
S'Got'
p4648
aS'ganked'
p4649
aS'and'
p4650
ag462
aS'did'
p4651
aS"n't"
p4652
aS'die'
p4653
asg18
S"Got ganked and i didn't die "
p4654
sg20
S' today was a good day '
p4655
sg22
Vtoday-was-a-good-day
p4656
sg24
(lp4657
g4648
ag4649
ag4650
ag462
ag4651
ag4652
ag4653
aS'today'
p4658
aS'was'
p4659
ag43
aS'good'
p4660
aS'day'
p4661
asg26
(lp4662
g4658
ag4659
ag43
ag4660
ag4661
asba(iMeme
Meme
p4663
(dp4664
g3
(lp4665
S'used'
p4666
aS'crab'
p4667
aS'to'
p4668
aS'open'
p4669
aS'root'
p4670
aS'beers'
p4671
ag361
aS'did'
p4672
aS"n't"
p4673
aS'drop'
p4674
aS'crab'
p4675
aS'on'
p4676
aS'feet'
p4677
asg18
S"used crab to open root beers, didn't drop crab on feet "
p4678
sg20
S' it was a good day '
p4679
sg22
Vtoday-was-a-good-day
p4680
sg24
(lp4681
g4666
ag4667
ag4668
ag4669
ag4670
ag4671
ag361
ag4672
ag4673
ag4674
ag4675
ag4676
ag4677
aS'it'
p4682
aS'was'
p4683
ag43
aS'good'
p4684
aS'day'
p4685
asg26
(lp4686
g4682
ag4683
ag43
ag4684
ag4685
asba(iMeme
Meme
p4687
(dp4688
g3
(lp4689
S'Heard'
p4690
aS'Rush'
p4691
aS'on'
p4692
aS'the'
p4693
aS'eadio'
p4694
aS'this'
p4695
aS'morning'
p4696
asg18
S'Heard Rush on the eadio this morning '
p4697
sg20
S' today was a good day '
p4698
sg22
Vtoday-was-a-good-day
p4699
sg24
(lp4700
g4690
ag4691
ag4692
ag4693
ag4694
ag4695
ag4696
aS'today'
p4701
aS'was'
p4702
ag43
aS'good'
p4703
aS'day'
p4704
asg26
(lp4705
g4701
ag4702
ag43
ag4703
ag4704
asba(iMeme
Meme
p4706
(dp4707
g3
(lp4708
S'Finished'
p4709
aS'last'
p4710
aS'of'
p4711
aS'us'
p4712
aS'and'
p4713
aS'DSP2'
p4714
asg18
S'Finished last of us and DSP2 '
p4715
sg20
S' today was a good day '
p4716
sg22
Vtoday-was-a-good-day
p4717
sg24
(lp4718
g4709
ag4710
ag4711
ag4712
ag4713
ag4714
aS'today'
p4719
aS'was'
p4720
ag43
aS'good'
p4721
aS'day'
p4722
asg26
(lp4723
g4719
ag4720
ag43
ag4721
ag4722
asba(iMeme
Meme
p4724
(dp4725
g3
(lp4726
S'had'
p4727
aS'snus'
p4728
aS'and'
p4729
aS'coffee'
p4730
asg18
S'had snus and coffee '
p4731
sg20
S' today was a good day '
p4732
sg22
Vtoday-was-a-good-day
p4733
sg24
(lp4734
g4727
ag4728
ag4729
ag4730
aS'today'
p4735
aS'was'
p4736
ag43
aS'good'
p4737
aS'day'
p4738
asg26
(lp4739
g4735
ag4736
ag43
ag4737
ag4738
asba(iMeme
Meme
p4740
(dp4741
g3
(lp4742
S'touched'
p4743
ag43
aS'cat'
p4744
asg18
S'touched a cat '
p4745
sg20
S' today was a good day '
p4746
sg22
Vtoday-was-a-good-day
p4747
sg24
(lp4748
g4743
ag43
ag4744
aS'today'
p4749
aS'was'
p4750
ag43
aS'good'
p4751
aS'day'
p4752
asg26
(lp4753
g4749
ag4750
ag43
ag4751
ag4752
asba(iMeme
Meme
p4754
(dp4755
g3
(lp4756
S'Got'
p4757
aS'to'
p4758
aS'get'
p4759
aS'my'
p4760
aS'healthy'
p4761
aS'breakfast'
p4762
asg18
S'Got to get my healthy breakfast  '
p4763
sg20
S" I'm trYing to get chosen  "
p4764
sg22
Vtoday-was-a-good-day
p4765
sg24
(lp4766
g4757
ag4758
ag4759
ag4760
ag4761
ag4762
ag66
aS"'m"
p4767
aS'trYing'
p4768
aS'to'
p4769
aS'get'
p4770
aS'chosen'
p4771
asg26
(lp4772
g66
ag4767
ag4768
ag4769
ag4770
ag4771
asba(iMeme
Meme
p4773
(dp4774
g3
(lp4775
S'White'
p4776
aS'Rose'
p4777
aS'disbanded'
p4778
asg18
S'White Rose disbanded '
p4779
sg20
S' today was a good day '
p4780
sg22
Vtoday-was-a-good-day
p4781
sg24
(lp4782
g4776
ag4777
ag4778
aS'today'
p4783
aS'was'
p4784
ag43
aS'good'
p4785
aS'day'
p4786
asg26
(lp4787
g4783
ag4784
ag43
ag4785
ag4786
asba(iMeme
Meme
p4788
(dp4789
g3
(lp4790
S'Sex'
p4791
aS'Bball'
p4792
aS'and'
p4793
aS'drugs'
p4794
asg18
S'Sex Bball and drugs '
p4795
sg20
S' It Wuz a good day '
p4796
sg22
Vtoday-was-a-good-day
p4797
sg24
(lp4798
g4791
ag4792
ag4793
ag4794
aS'It'
p4799
aS'Wuz'
p4800
ag43
aS'good'
p4801
aS'day'
p4802
asg26
(lp4803
g4799
ag4800
ag43
ag4801
ag4802
asba(iMeme
Meme
p4804
(dp4805
g3
(lp4806
S'It'
p4807
aS"'s"
p4808
aS'evening'
p4809
aS'and'
p4810
aS'still'
p4811
aS'and'
p4812
aS'phine'
p4813
aS'battery'
p4814
aS'still'
p4815
aS'has'
p4816
aS'half'
p4817
aS'the'
p4818
aS'juice'
p4819
asg18
S"It's evening and still and phine battery still has half the juice "
p4820
sg20
S' today was a good day '
p4821
sg22
Vtoday-was-a-good-day
p4822
sg24
(lp4823
g4807
ag4808
ag4809
ag4810
ag4811
ag4812
ag4813
ag4814
ag4815
ag4816
ag4817
ag4818
ag4819
aS'today'
p4824
aS'was'
p4825
ag43
aS'good'
p4826
aS'day'
p4827
asg26
(lp4828
g4824
ag4825
ag43
ag4826
ag4827
asba(iMeme
Meme
p4829
(dp4830
g3
(lp4831
S'Actually'
p4832
aS'saw'
p4833
aS'some'
p4834
aS'sunlight'
p4835
asg18
S'Actually saw some sunlight  '
p4836
sg20
S' today was a good day '
p4837
sg22
Vtoday-was-a-good-day
p4838
sg24
(lp4839
g4832
ag4833
ag4834
ag4835
aS'today'
p4840
aS'was'
p4841
ag43
aS'good'
p4842
aS'day'
p4843
asg26
(lp4844
g4840
ag4841
ag43
ag4842
ag4843
asba(iMeme
Meme
p4845
(dp4846
g3
(lp4847
S'top'
p4848
aS'post'
p4849
aS'on'
p4850
aS'all'
p4851
aS'of'
p4852
aS'reddit'
p4853
aS'was'
p4854
aS'about'
p4855
aS'bullets'
p4856
asg18
S'top post on all of reddit was about bullets '
p4857
sg20
S' today was a good day  '
p4858
sg22
Vtoday-was-a-good-day
p4859
sg24
(lp4860
g4848
ag4849
ag4850
ag4851
ag4852
ag4853
ag4854
ag4855
ag4856
aS'today'
p4861
aS'was'
p4862
ag43
aS'good'
p4863
aS'day'
p4864
asg26
(lp4865
g4861
ag4862
ag43
ag4863
ag4864
asba(iMeme
Meme
p4866
(dp4867
g3
(lp4868
g66
aS'woke'
p4869
aS'up'
p4870
aS'without'
p4871
aS'having'
p4872
aS'to'
p4873
aS'read'
p4874
aS'any'
p4875
aS'firework'
p4876
aS'posts'
p4877
ag97
asg18
S'I woke up without having to read any firework posts. '
p4878
sg20
S' Today was a good day '
p4879
sg22
Vtoday-was-a-good-day
p4880
sg24
(lp4881
g66
ag4869
ag4870
ag4871
ag4872
ag4873
ag4874
ag4875
ag4876
ag4877
ag97
aS'Today'
p4882
aS'was'
p4883
ag43
aS'good'
p4884
aS'day'
p4885
asg26
(lp4886
g4882
ag4883
ag43
ag4884
ag4885
asba(iMeme
Meme
p4887
(dp4888
g3
(lp4889
g462
aS'shouldnt'
p4890
aS'of'
p4891
aS'spend'
p4892
aS'my'
p4893
aS'money'
p4894
asg18
S'i shouldnt of spend my money   '
p4895
sg20
S' man next week  is nikau market day '
p4896
sg22
Vtoday-was-a-good-day
p4897
sg24
(lp4898
g462
ag4890
ag4891
ag4892
ag4893
ag4894
aS'man'
p4899
aS'next'
p4900
aS'week'
p4901
aS'is'
p4902
aS'nikau'
p4903
aS'market'
p4904
aS'day'
p4905
asg26
(lp4906
g4899
ag4900
ag4901
ag4902
ag4903
ag4904
ag4905
asba(iMeme
Meme
p4907
(dp4908
g3
(lp4909
S'Got'
p4910
aS'Promoted'
p4911
aS'to'
p4912
aS'member'
p4913
aS'and'
p4914
aS'dominated'
p4915
aS'Mana'
p4916
asg18
S'Got Promoted to member and dominated Mana '
p4917
sg20
S' Today was a good day '
p4918
sg22
Vtoday-was-a-good-day
p4919
sg24
(lp4920
g4910
ag4911
ag4912
ag4913
ag4914
ag4915
ag4916
aS'Today'
p4921
aS'was'
p4922
ag43
aS'good'
p4923
aS'day'
p4924
asg26
(lp4925
g4921
ag4922
ag43
ag4923
ag4924
asba(iMeme
Meme
p4926
(dp4927
g3
(lp4928
S'Martin'
p4929
aS'didnt'
p4930
aS'let'
p4931
aS'me'
p4932
aS'join'
p4933
aS'classy'
p4934
asg18
S'Martin didnt let me join classy '
p4935
sg20
S' fuck him... '
p4936
sg22
Vtoday-was-a-good-day
p4937
sg24
(lp4938
g4929
ag4930
ag4931
ag4932
ag4933
ag4934
aS'fuck'
p4939
aS'him'
p4940
aS'...'
p4941
asg26
(lp4942
g4939
ag4940
ag4941
asba(iMeme
Meme
p4943
(dp4944
g3
(lp4945
S'didnt'
p4946
aS'browse'
p4947
aS'the'
p4948
aS'first'
p4949
aS'15'
p4950
aS'pages'
p4951
aS'of'
p4952
aS'reddit'
p4953
asg18
S'didnt browse the first 15 pages of reddit '
p4954
sg20
S' today was a good day '
p4955
sg22
Vtoday-was-a-good-day
p4956
sg24
(lp4957
g4946
ag4947
ag4948
ag4949
ag4950
ag4951
ag4952
ag4953
aS'today'
p4958
aS'was'
p4959
ag43
aS'good'
p4960
aS'day'
p4961
asg26
(lp4962
g4958
ag4959
ag43
ag4960
ag4961
asba(iMeme
Meme
p4963
(dp4964
g3
(lp4965
S'they'
p4966
aS'see'
p4967
aS'me'
p4968
aS'rolling'
p4969
asg18
S'they see me rolling '
p4970
sg20
S' ..they hatin '
p4971
sg22
Vtoday-was-a-good-day
p4972
sg24
(lp4973
g4966
ag4967
ag4968
ag4969
aS'..they'
p4974
aS'hatin'
p4975
asg26
(lp4976
g4974
ag4975
asba(iMeme
Meme
p4977
(dp4978
g3
(lp4979
S'Did'
p4980
aS"n't"
p4981
aS'see'
p4982
aS'any'
p4983
aS'guy'
p4984
aS"'s"
p4985
aS'cock'
p4986
aS'at'
p4987
aS'the'
p4988
aS'gym'
p4989
aS'locker'
p4990
aS'room'
p4991
asg18
S"Didn't see any guy's cock at the gym locker room "
p4992
sg20
S' today was a good day '
p4993
sg22
Vtoday-was-a-good-day
p4994
sg24
(lp4995
g4980
ag4981
ag4982
ag4983
ag4984
ag4985
ag4986
ag4987
ag4988
ag4989
ag4990
ag4991
aS'today'
p4996
aS'was'
p4997
ag43
aS'good'
p4998
aS'day'
p4999
asg26
(lp5000
g4996
ag4997
ag43
ag4998
ag4999
asba(iMeme
Meme
p5001
(dp5002
g3
(lp5003
g462
aS'told'
p5004
aS'that'
p5005
aS'bitch'
p5006
aS'becky'
p5007
aS'no'
p5008
asg18
S'i told that bitch becky no '
p5009
sg20
S' today was a good day '
p5010
sg22
Vtoday-was-a-good-day
p5011
sg24
(lp5012
g462
ag5004
ag5005
ag5006
ag5007
ag5008
aS'today'
p5013
aS'was'
p5014
ag43
aS'good'
p5015
aS'day'
p5016
asg26
(lp5017
g5013
ag5014
ag43
ag5015
ag5016
asba(iMeme
Meme
p5018
(dp5019
g3
(lp5020
S'Today'
p5021
aS'was'
p5022
ag43
aS'good'
p5023
aS'day'
p5024
asg18
S'Today was a good day '
p5025
sg20
S" so why weren't you there "
p5026
sg22
Vtoday-was-a-good-day
p5027
sg24
(lp5028
g5021
ag5022
ag43
ag5023
ag5024
aS'so'
p5029
aS'why'
p5030
aS'were'
p5031
aS"n't"
p5032
aS'you'
p5033
aS'there'
p5034
asg26
(lp5035
g5029
ag5030
ag5031
ag5032
ag5033
ag5034
asba(iMeme
Meme
p5036
(dp5037
g3
(lp5038
S'husband'
p5039
aS'just'
p5040
aS'won'
p5041
aS'mtg'
p5042
aS'ptq'
p5043
aS'for'
p5044
aS'pro'
p5045
aS'tour'
p5046
aS'dublin'
p5047
ag97
aS'we'
p5048
aS"'re"
p5049
aS'going'
p5050
aS'to'
p5051
aS'ireland'
p5052
ag129
asg18
S"husband just won mtg ptq for pro tour dublin.  we're going to ireland! "
p5053
sg20
S' today was a good day '
p5054
sg22
Vtoday-was-a-good-day
p5055
sg24
(lp5056
g5039
ag5040
ag5041
ag5042
ag5043
ag5044
ag5045
ag5046
ag5047
ag97
ag5048
ag5049
ag5050
ag5051
ag5052
ag129
aS'today'
p5057
aS'was'
p5058
ag43
aS'good'
p5059
aS'day'
p5060
asg26
(lp5061
g5057
ag5058
ag43
ag5059
ag5060
asba(iMeme
Meme
p5062
(dp5063
g3
(lp5064
S'Awarded'
p5065
ag43
aS'20'
p5066
aS'million'
p5067
aS'dollar'
p5068
aS'contract'
p5069
aS'because'
p5070
aS'everyone'
p5071
aS'else'
p5072
aS'was'
p5073
aS'disqualified'
p5074
asg18
S'Awarded a 20 million dollar contract because everyone else was disqualified '
p5075
sg20
S' Today is a good day '
p5076
sg22
Vtoday-was-a-good-day
p5077
sg24
(lp5078
g5065
ag43
ag5066
ag5067
ag5068
ag5069
ag5070
ag5071
ag5072
ag5073
ag5074
aS'Today'
p5079
aS'is'
p5080
ag43
aS'good'
p5081
aS'day'
p5082
asg26
(lp5083
g5079
ag5080
ag43
ag5081
ag5082
asba(iMeme
Meme
p5084
(dp5085
g3
(lp5086
S'Made'
p5087
ag43
aS'mistake'
p5088
aS'that'
p5089
aS'ended'
p5090
aS'up'
p5091
aS'making'
p5092
aS'the'
p5093
aS'company'
p5094
aS'money'
p5095
asg18
S'Made a mistake that ended up making the company money '
p5096
sg20
S' Today is a good day '
p5097
sg22
Vtoday-was-a-good-day
p5098
sg24
(lp5099
g5087
ag43
ag5088
ag5089
ag5090
ag5091
ag5092
ag5093
ag5094
ag5095
aS'Today'
p5100
aS'is'
p5101
ag43
aS'good'
p5102
aS'day'
p5103
asg26
(lp5104
g5100
ag5101
ag43
ag5102
ag5103
asba(iMeme
Meme
p5105
(dp5106
g3
(lp5107
S'caught'
p5108
ag43
aS'shiny'
p5109
aS'and'
p5110
aS'got'
p5111
aS'pokerus'
p5112
aS'in'
p5113
aS'one'
p5114
aS'day'
p5115
asg18
S'caught a shiny and got pokerus in one day '
p5116
sg20
S' today was a good day '
p5117
sg22
Vtoday-was-a-good-day
p5118
sg24
(lp5119
g5108
ag43
ag5109
ag5110
ag5111
ag5112
ag5113
ag5114
ag5115
aS'today'
p5120
aS'was'
p5121
ag43
aS'good'
p5122
aS'day'
p5123
asg26
(lp5124
g5120
ag5121
ag43
ag5122
ag5123
asba(iMeme
Meme
p5125
(dp5126
g3
(lp5127
S'Got'
p5128
aS'at'
p5129
aS'internship'
p5130
aS'with'
p5131
aS'make'
p5132
ag43
aS'wish'
p5133
asg18
S'Got at internship with make a wish '
p5134
sg20
S' today was a good day '
p5135
sg22
Vtoday-was-a-good-day
p5136
sg24
(lp5137
g5128
ag5129
ag5130
ag5131
ag5132
ag43
ag5133
aS'today'
p5138
aS'was'
p5139
ag43
aS'good'
p5140
aS'day'
p5141
asg26
(lp5142
g5138
ag5139
ag43
ag5140
ag5141
asba(iMeme
Meme
p5143
(dp5144
g3
(lp5145
S'Frank'
p5146
aS'told'
p5147
aS'me'
p5148
aS'what'
p5149
aS'items'
p5150
aS'to'
p5151
aS'get'
p5152
ag361
aS'instead'
p5153
aS'of'
p5154
aS'say'
p5155
aS'``'
p5156
aS'the'
p5157
aS'good'
p5158
aS'ones'
p5159
aS"''"
p5160
asg18
S'Frank told me what items to get, instead of say "the good ones" '
p5161
sg20
S' Today was a good day '
p5162
sg22
Vtoday-was-a-good-day
p5163
sg24
(lp5164
g5146
ag5147
ag5148
ag5149
ag5150
ag5151
ag5152
ag361
ag5153
ag5154
ag5155
ag5156
ag5157
ag5158
ag5159
ag5160
aS'Today'
p5165
aS'was'
p5166
ag43
aS'good'
p5167
aS'day'
p5168
asg26
(lp5169
g5165
ag5166
ag43
ag5167
ag5168
asba(iMeme
Meme
p5170
(dp5171
g3
(lp5172
S'It'
p5173
aS"'s"
p5174
aS'been'
p5175
ag8
aS'hours'
p5176
aS'since'
p5177
aS'my'
p5178
aS'kitten'
p5179
aS'drew'
p5180
aS'blood'
p5181
aS'while'
p5182
aS'playing'
p5183
asg18
S"It's been 5 hours since my kitten drew blood while playing "
p5184
sg20
S' Today was a good day '
p5185
sg22
Vtoday-was-a-good-day
p5186
sg24
(lp5187
g5173
ag5174
ag5175
ag8
ag5176
ag5177
ag5178
ag5179
ag5180
ag5181
ag5182
ag5183
aS'Today'
p5188
aS'was'
p5189
ag43
aS'good'
p5190
aS'day'
p5191
asg26
(lp5192
g5188
ag5189
ag43
ag5190
ag5191
asba(iMeme
Meme
p5193
(dp5194
g3
(lp5195
S'made'
p5196
aS'cookies'
p5197
ag361
aS'homemade'
p5198
aS'bread'
p5199
ag361
aS'meatballs'
p5200
ag361
aS'and'
p5201
aS'pasta'
p5202
asg18
S'made cookies, homemade bread, meatballs, and pasta '
p5203
sg20
S' and hung out with my fiance, today was a good day '
p5204
sg22
Vtoday-was-a-good-day
p5205
sg24
(lp5206
g5196
ag5197
ag361
ag5198
ag5199
ag361
ag5200
ag361
ag5201
ag5202
aS'and'
p5207
aS'hung'
p5208
aS'out'
p5209
aS'with'
p5210
aS'my'
p5211
aS'fiance'
p5212
ag361
aS'today'
p5213
aS'was'
p5214
ag43
aS'good'
p5215
aS'day'
p5216
asg26
(lp5217
g5207
ag5208
ag5209
ag5210
ag5211
ag5212
ag361
ag5213
ag5214
ag43
ag5215
ag5216
asba(iMeme
Meme
p5218
(dp5219
g3
(lp5220
S'Colby'
p5221
aS'starts'
p5222
aS'playing'
p5223
aS'Dota'
p5224
ag1162
asg18
S'Colby starts playing Dota 2 '
p5225
sg20
S' Today was a good day. '
p5226
sg22
Vtoday-was-a-good-day
p5227
sg24
(lp5228
g5221
ag5222
ag5223
ag5224
ag1162
aS'Today'
p5229
aS'was'
p5230
ag43
aS'good'
p5231
aS'day'
p5232
ag97
asg26
(lp5233
g5229
ag5230
ag43
ag5231
ag5232
ag97
asba(iMeme
Meme
p5234
(dp5235
g3
(lp5236
S'My'
p5237
aS'kitten'
p5238
aS'has'
p5239
aS'not'
p5240
aS'broken'
p5241
aS'skin'
p5242
aS'in'
p5243
ag8
aS'hours'
p5244
aS'while'
p5245
aS'playing'
p5246
asg18
S'My kitten has not broken skin in 5 hours while playing '
p5247
sg20
S' Today was a good day '
p5248
sg22
Vtoday-was-a-good-day
p5249
sg24
(lp5250
g5237
ag5238
ag5239
ag5240
ag5241
ag5242
ag5243
ag8
ag5244
ag5245
ag5246
aS'Today'
p5251
aS'was'
p5252
ag43
aS'good'
p5253
aS'day'
p5254
asg26
(lp5255
g5251
ag5252
ag43
ag5253
ag5254
asba(iMeme
Meme
p5256
(dp5257
g3
(lp5258
S'GOt'
p5259
ag2181
aS'mint'
p5260
aS'chocolate'
p5261
aS'dilly'
p5262
aS'bar'
p5263
aS'at'
p5264
aS'work'
p5265
aS'from'
p5266
ag43
aS'coworker'
p5267
asg18
S'GOt A mint chocolate dilly bar at work from a coworker '
p5268
sg20
S' today was a good day '
p5269
sg22
Vtoday-was-a-good-day
p5270
sg24
(lp5271
g5259
ag2181
ag5260
ag5261
ag5262
ag5263
ag5264
ag5265
ag5266
ag43
ag5267
aS'today'
p5272
aS'was'
p5273
ag43
aS'good'
p5274
aS'day'
p5275
asg26
(lp5276
g5272
ag5273
ag43
ag5274
ag5275
asba(iMeme
Meme
p5277
(dp5278
g3
(lp5279
S'wait'
p5280
aS'did'
p5281
aS'he'
p5282
aS'just'
p5283
aS'get'
p5284
aS'knocked'
p5285
aS'the'
p5286
aS'fuck'
p5287
aS'out'
p5288
asg18
S'wait did he just get knocked the fuck out '
p5289
sg20
S' i did that once '
p5290
sg22
Vtoday-was-a-good-day
p5291
sg24
(lp5292
g5280
ag5281
ag5282
ag5283
ag5284
ag5285
ag5286
ag5287
ag5288
ag462
aS'did'
p5293
aS'that'
p5294
aS'once'
p5295
asg26
(lp5296
g462
ag5293
ag5294
ag5295
asba(iMeme
Meme
p5297
(dp5298
g3
(lp5299
S'She'
p5300
aS'let'
p5301
ag43
aS'nigga'
p5302
aS'fuck'
p5303
asg18
S'She let a nigga fuck '
p5304
sg20
S' So I guess today was a good day '
p5305
sg22
Vtoday-was-a-good-day
p5306
sg24
(lp5307
g5300
ag5301
ag43
ag5302
ag5303
aS'So'
p5308
ag66
aS'guess'
p5309
aS'today'
p5310
aS'was'
p5311
ag43
aS'good'
p5312
aS'day'
p5313
asg26
(lp5314
g5308
ag66
ag5309
ag5310
ag5311
ag43
ag5312
ag5313
asba(iMeme
Meme
p5315
(dp5316
g3
(lp5317
S'polishing'
p5318
aS'my'
p5319
aS'car'
p5320
asg18
S'polishing my car '
p5321
sg20
S' nek minit...dude, wheres my car? '
p5322
sg22
Vtoday-was-a-good-day
p5323
sg24
(lp5324
g5318
ag5319
ag5320
aS'nek'
p5325
aS'minit'
p5326
aS'...'
p5327
aS'dude'
p5328
ag361
aS'wheres'
p5329
aS'my'
p5330
aS'car'
p5331
ag552
asg26
(lp5332
g5325
ag5326
ag5327
ag5328
ag361
ag5329
ag5330
ag5331
ag552
asba(iMeme
Meme
p5333
(dp5334
g3
(lp5335
S'Joined'
p5336
aS'atlas'
p5337
aS'thon'
p5338
asg18
S'Joined atlas thon '
p5339
sg20
S' today was a good day '
p5340
sg22
Vtoday-was-a-good-day
p5341
sg24
(lp5342
g5336
ag5337
ag5338
aS'today'
p5343
aS'was'
p5344
ag43
aS'good'
p5345
aS'day'
p5346
asg26
(lp5347
g5343
ag5344
ag43
ag5345
ag5346
asba(iMeme
Meme
p5348
(dp5349
g3
(lp5350
S'Just'
p5351
aS'learnt'
p5352
aS'Logic'
p5353
aS'Pro'
p5354
ag747
aS'is'
p5355
aS'now'
p5356
aS'available'
p5357
asg18
S'Just learnt Logic Pro X is now available '
p5358
sg20
S' Today was a good day '
p5359
sg22
Vtoday-was-a-good-day
p5360
sg24
(lp5361
g5351
ag5352
ag5353
ag5354
ag747
ag5355
ag5356
ag5357
aS'Today'
p5362
aS'was'
p5363
ag43
aS'good'
p5364
aS'day'
p5365
asg26
(lp5366
g5362
ag5363
ag43
ag5364
ag5365
asba(iMeme
Meme
p5367
(dp5368
g3
(lp5369
S'Logic'
p5370
aS'Pro'
p5371
ag747
aS'is'
p5372
aS'now'
p5373
aS'available'
p5374
asg18
S'Logic Pro X is now available '
p5375
sg20
S' Today was a good day '
p5376
sg22
Vtoday-was-a-good-day
p5377
sg24
(lp5378
g5370
ag5371
ag747
ag5372
ag5373
ag5374
aS'Today'
p5379
aS'was'
p5380
ag43
aS'good'
p5381
aS'day'
p5382
asg26
(lp5383
g5379
ag5380
ag43
ag5381
ag5382
asba(iMeme
Meme
p5384
(dp5385
g3
(lp5386
S'found'
p5387
ag43
aS'place'
p5388
aS'to'
p5389
aS'live'
p5390
asg18
S'found a place to live '
p5391
sg20
S' today was a good day.  '
p5392
sg22
Vtoday-was-a-good-day
p5393
sg24
(lp5394
g5387
ag43
ag5388
ag5389
ag5390
aS'today'
p5395
aS'was'
p5396
ag43
aS'good'
p5397
aS'day'
p5398
ag97
asg26
(lp5399
g5395
ag5396
ag43
ag5397
ag5398
ag97
asba(iMeme
Meme
p5400
(dp5401
g3
(lp5402
S'With'
p5403
ag43
aS'couple'
p5404
aS'more'
p5405
aS'joints'
p5406
asg18
S'With a couple more joints  '
p5407
sg20
S' Today is gonna be a good day  '
p5408
sg22
Vtoday-was-a-good-day
p5409
sg24
(lp5410
g5403
ag43
ag5404
ag5405
ag5406
aS'Today'
p5411
aS'is'
p5412
aS'gon'
p5413
aS'na'
p5414
aS'be'
p5415
ag43
aS'good'
p5416
aS'day'
p5417
asg26
(lp5418
g5411
ag5412
ag5413
ag5414
ag5415
ag43
ag5416
ag5417
asba(iMeme
Meme
p5419
(dp5420
g3
(lp5421
sg18
S' '
p5422
sg20
S' Today was a good day '
p5423
sg22
Vtoday-was-a-good-day
p5424
sg24
(lp5425
S'Today'
p5426
aS'was'
p5427
ag43
aS'good'
p5428
aS'day'
p5429
asg26
(lp5430
g5426
ag5427
ag43
ag5428
ag5429
asba(iMeme
Meme
p5431
(dp5432
g3
(lp5433
S'Played'
p5434
aS'today'
p5435
aS'was'
p5436
ag43
aS'good'
p5437
aS'day'
p5438
aS'on'
p5439
aS'the'
p5440
aS'radio'
p5441
asg18
S'Played today was a good day on the radio '
p5442
sg20
S'  '
p5443
sg22
Vtoday-was-a-good-day
p5444
sg24
(lp5445
g5434
ag5435
ag5436
ag43
ag5437
ag5438
ag5439
ag5440
ag5441
asg26
(lp5446
sba(iMeme
Meme
p5447
(dp5448
g3
(lp5449
S'Played'
p5450
aS'Today'
p5451
aS'was'
p5452
ag43
aS'good'
p5453
aS'day'
p5454
aS'on'
p5455
aS'the'
p5456
aS'radio'
p5457
asg18
S'Played Today  was a good day on the radio '
p5458
sg20
S' today was a good day '
p5459
sg22
Vtoday-was-a-good-day
p5460
sg24
(lp5461
g5450
ag5451
ag5452
ag43
ag5453
ag5454
ag5455
ag5456
ag5457
aS'today'
p5462
aS'was'
p5463
ag43
aS'good'
p5464
aS'day'
p5465
asg26
(lp5466
g5462
ag5463
ag43
ag5464
ag5465
asba(iMeme
Meme
p5467
(dp5468
g3
(lp5469
S'Heard'
p5470
aS'Rush'
p5471
aS'on'
p5472
aS'the'
p5473
aS'radio'
p5474
aS'this'
p5475
aS'morning'
p5476
asg18
S'Heard Rush on the radio this morning '
p5477
sg20
S' Today was a good day '
p5478
sg22
Vtoday-was-a-good-day
p5479
sg24
(lp5480
g5470
ag5471
ag5472
ag5473
ag5474
ag5475
ag5476
aS'Today'
p5481
aS'was'
p5482
ag43
aS'good'
p5483
aS'day'
p5484
asg26
(lp5485
g5481
ag5482
ag43
ag5483
ag5484
asba(iMeme
Meme
p5486
(dp5487
g3
(lp5488
S'Bowling'
p5489
aS'and'
p5490
aS'Bdubs'
p5491
asg18
S'Bowling and Bdubs '
p5492
sg20
S' Today was a good day '
p5493
sg22
Vtoday-was-a-good-day
p5494
sg24
(lp5495
g5489
ag5490
ag5491
aS'Today'
p5496
aS'was'
p5497
ag43
aS'good'
p5498
aS'day'
p5499
asg26
(lp5500
g5496
ag5497
ag43
ag5498
ag5499
asba(iMeme
Meme
p5501
(dp5502
g3
(lp5503
S'actually'
p5504
aS'convinced'
p5505
aS'someone'
p5506
aS'not'
p5507
aS'to'
p5508
aS'vote'
p5509
aS'conservative'
p5510
asg18
S'actually convinced someone not to vote conservative '
p5511
sg20
S' today was a good day '
p5512
sg22
Vtoday-was-a-good-day
p5513
sg24
(lp5514
g5504
ag5505
ag5506
ag5507
ag5508
ag5509
ag5510
aS'today'
p5515
aS'was'
p5516
ag43
aS'good'
p5517
aS'day'
p5518
asg26
(lp5519
g5515
ag5516
ag43
ag5517
ag5518
asba(iMeme
Meme
p5520
(dp5521
g3
(lp5522
S'Got'
p5523
aS'to'
p5524
aS'get'
p5525
aS'there'
p5526
aS'b4'
p5527
aS'they'
p5528
aS'close'
p5529
aS'shake'
p5530
aS'it'
p5531
aS'up'
p5532
asg18
S'Got to get there b4 they close shake it up '
p5533
sg20
S'  '
p5534
sg22
Vtoday-was-a-good-day
p5535
sg24
(lp5536
g5523
ag5524
ag5525
ag5526
ag5527
ag5528
ag5529
ag5530
ag5531
ag5532
asg26
(lp5537
sba(iMeme
Meme
p5538
(dp5539
g3
(lp5540
S'asked'
p5541
aS'my'
p5542
aS'crush'
p5543
aS'out'
p5544
aS'on'
p5545
ag43
aS'date'
p5546
ag97
aS'she'
p5547
aS'said'
p5548
aS'yes'
p5549
asg18
S'asked my crush out on a date. she said yes '
p5550
sg20
S' today was a good day '
p5551
sg22
Vtoday-was-a-good-day
p5552
sg24
(lp5553
g5541
ag5542
ag5543
ag5544
ag5545
ag43
ag5546
ag97
ag5547
ag5548
ag5549
aS'today'
p5554
aS'was'
p5555
ag43
aS'good'
p5556
aS'day'
p5557
asg26
(lp5558
g5554
ag5555
ag43
ag5556
ag5557
asba(iMeme
Meme
p5559
(dp5560
g3
(lp5561
S'got'
p5562
aS'spread'
p5563
aS'by'
p5564
aS'my'
p5565
aS'dad'
p5566
asg18
S'got spread by my dad '
p5567
sg20
S' today was a good day '
p5568
sg22
Vtoday-was-a-good-day
p5569
sg24
(lp5570
g5562
ag5563
ag5564
ag5565
ag5566
aS'today'
p5571
aS'was'
p5572
ag43
aS'good'
p5573
aS'day'
p5574
asg26
(lp5575
g5571
ag5572
ag43
ag5573
ag5574
asba(iMeme
Meme
p5576
(dp5577
g3
(lp5578
S'today'
p5579
aS'was'
p5580
ag43
aS'good'
p5581
aS'day'
p5582
asg18
S'today was a good day  '
p5583
sg20
S" didn't have to deal with jason reynolds like in may "
p5584
sg22
Vtoday-was-a-good-day
p5585
sg24
(lp5586
g5579
ag5580
ag43
ag5581
ag5582
aS'did'
p5587
aS"n't"
p5588
aS'have'
p5589
aS'to'
p5590
aS'deal'
p5591
aS'with'
p5592
aS'jason'
p5593
aS'reynolds'
p5594
aS'like'
p5595
aS'in'
p5596
aS'may'
p5597
asg26
(lp5598
g5587
ag5588
ag5589
ag5590
ag5591
ag5592
ag5593
ag5594
ag5595
ag5596
ag5597
asba(iMeme
Meme
p5599
(dp5600
g3
(lp5601
S'Pull'
p5602
aS'up'
p5603
aS'to'
p5604
aS'the'
p5605
aS'scene'
p5606
aS'with'
p5607
aS'my'
p5608
aS'ceiling'
p5609
aS'missing'
p5610
asg18
S'Pull up to the scene with my ceiling missing '
p5611
sg20
S'  '
p5612
sg22
Vtoday-was-a-good-day
p5613
sg24
(lp5614
g5602
ag5603
ag5604
ag5605
ag5606
ag5607
ag5608
ag5609
ag5610
asg26
(lp5615
sba(iMeme
Meme
p5616
(dp5617
g3
(lp5618
sg18
S' '
p5619
sg20
S' I want some toast '
p5620
sg22
Vtoday-was-a-good-day
p5621
sg24
(lp5622
g66
aS'want'
p5623
aS'some'
p5624
aS'toast'
p5625
asg26
(lp5626
g66
ag5623
ag5624
ag5625
asba(iMeme
Meme
p5627
(dp5628
g3
(lp5629
S'Im'
p5630
aS'tryna'
p5631
aS'by'
p5632
aS'at'
p5633
aS'30'
p5634
aS'pack'
p5635
aS'and'
p5636
aS'drink'
p5637
aS'at'
p5638
aS'my'
p5639
aS'crib'
p5640
aS'tonight'
p5641
ag97
aS'Hmu'
p5642
aS'if'
p5643
aS'you'
p5644
aS'the'
p5645
aS'homie'
p5646
ag97
asg18
S'Im tryna by at 30 pack and drink at my crib tonight. Hmu if you the homie. '
p5647
sg20
S'  '
p5648
sg22
Vtoday-was-a-good-day
p5649
sg24
(lp5650
g5630
ag5631
ag5632
ag5633
ag5634
ag5635
ag5636
ag5637
ag5638
ag5639
ag5640
ag5641
ag97
ag5642
ag5643
ag5644
ag5645
ag5646
ag97
asg26
(lp5651
sba(iMeme
Meme
p5652
(dp5653
g3
(lp5654
g66
aS'officially'
p5655
aS'beat'
p5656
aS'Aaron'
p5657
asg18
S'I officially beat Aaron '
p5658
sg20
S' today was a good day '
p5659
sg22
Vtoday-was-a-good-day
p5660
sg24
(lp5661
g66
ag5655
ag5656
ag5657
aS'today'
p5662
aS'was'
p5663
ag43
aS'good'
p5664
aS'day'
p5665
asg26
(lp5666
g5662
ag5663
ag43
ag5664
ag5665
asba(iMeme
Meme
p5667
(dp5668
g3
(lp5669
S'sdp'
p5670
aS'nije'
p5671
aS'pobjedio'
p5672
asg18
S'sdp nije pobjedio '
p5673
sg20
S' today was a good day '
p5674
sg22
Vtoday-was-a-good-day
p5675
sg24
(lp5676
g5670
ag5671
ag5672
aS'today'
p5677
aS'was'
p5678
ag43
aS'good'
p5679
aS'day'
p5680
asg26
(lp5681
g5677
ag5678
ag43
ag5679
ag5680
asba(iMeme
Meme
p5682
(dp5683
g3
(lp5684
S'Aced'
p5685
aS'my'
p5686
aS'first'
p5687
aS'final'
p5688
aS'and'
p5689
aS'got'
p5690
aS'offered'
p5691
ag43
aS'ta'
p5692
aS'position'
p5693
aS'by'
p5694
aS'the'
p5695
aS'professor'
p5696
aS'for'
p5697
aS'next'
p5698
aS'year'
p5699
asg18
S'Aced my first final and got offered a ta position by the professor for next year '
p5700
sg20
S' today was a good day '
p5701
sg22
Vtoday-was-a-good-day
p5702
sg24
(lp5703
g5685
ag5686
ag5687
ag5688
ag5689
ag5690
ag5691
ag43
ag5692
ag5693
ag5694
ag5695
ag5696
ag5697
ag5698
ag5699
aS'today'
p5704
aS'was'
p5705
ag43
aS'good'
p5706
aS'day'
p5707
asg26
(lp5708
g5704
ag5705
ag43
ag5706
ag5707
asba(iMeme
Meme
p5709
(dp5710
g3
(lp5711
S'Viera'
p5712
aS'had'
p5713
aS'to'
p5714
aS'go'
p5715
aS'potty'
p5716
aS'on'
p5717
ag43
aS'long'
p5718
aS'road'
p5719
aS'trip'
p5720
ag97
aS'didnt'
p5721
aS'shit'
p5722
aS'her'
p5723
aS'pants'
p5724
ag97
asg18
S'Viera had to go potty on a long road trip.  didnt shit her pants. '
p5725
sg20
S'  '
p5726
sg22
Vtoday-was-a-good-day
p5727
sg24
(lp5728
g5712
ag5713
ag5714
ag5715
ag5716
ag5717
ag43
ag5718
ag5719
ag5720
ag97
ag5721
ag5722
ag5723
ag5724
ag97
asg26
(lp5729
sba(iMeme
Meme
p5730
(dp5731
g3
(lp5732
S'FOUND'
p5733
aS'2.5dB'
p5734
aS'of'
p5735
aS'gains'
p5736
asg18
S'FOUND 2.5dB of gains '
p5737
sg20
S' today was a good day '
p5738
sg22
Vtoday-was-a-good-day
p5739
sg24
(lp5740
g5733
ag5734
ag5735
ag5736
aS'today'
p5741
aS'was'
p5742
ag43
aS'good'
p5743
aS'day'
p5744
asg26
(lp5745
g5741
ag5742
ag43
ag5743
ag5744
asba(iMeme
Meme
p5746
(dp5747
g3
(lp5748
S'Son'
p5749
aS'took'
p5750
aS'school'
p5751
aS'into'
p5752
aS'his'
p5753
aS'own'
p5754
aS'hands'
p5755
asg18
S'Son took school into his own hands '
p5756
sg20
S' Today was a good day! '
p5757
sg22
Vtoday-was-a-good-day
p5758
sg24
(lp5759
g5749
ag5750
ag5751
ag5752
ag5753
ag5754
ag5755
aS'Today'
p5760
aS'was'
p5761
ag43
aS'good'
p5762
aS'day'
p5763
ag129
asg26
(lp5764
g5760
ag5761
ag43
ag5762
ag5763
ag129
asba(iMeme
Meme
p5765
(dp5766
g3
(lp5767
S'we'
p5768
aS'are'
p5769
aS'no'
p5770
aS'longer'
p5771
aS'waiting'
p5772
aS'for'
p5773
ag43
aS'mate'
p5774
asg18
S'we are no longer waiting for a mate '
p5775
sg20
S' we are getting an interim service '
p5776
sg22
Vtoday-was-a-good-day
p5777
sg24
(lp5778
g5768
ag5769
ag5770
ag5771
ag5772
ag5773
ag43
ag5774
aS'we'
p5779
aS'are'
p5780
aS'getting'
p5781
aS'an'
p5782
aS'interim'
p5783
aS'service'
p5784
asg26
(lp5785
g5779
ag5780
ag5781
ag5782
ag5783
ag5784
asba(iMeme
Meme
p5786
(dp5787
g3
(lp5788
S'My'
p5789
aS'kitten'
p5790
aS'has'
p5791
aS'not'
p5792
aS'broken'
p5793
aS'skin'
p5794
aS'for'
p5795
ag8
aS'hours'
p5796
aS'while'
p5797
aS'playing'
p5798
asg18
S'My kitten has not broken skin for 5 hours while playing '
p5799
sg20
S' Today was a good day '
p5800
sg22
Vtoday-was-a-good-day
p5801
sg24
(lp5802
g5789
ag5790
ag5791
ag5792
ag5793
ag5794
ag5795
ag8
ag5796
ag5797
ag5798
aS'Today'
p5803
aS'was'
p5804
ag43
aS'good'
p5805
aS'day'
p5806
asg26
(lp5807
g5803
ag5804
ag43
ag5805
ag5806
asba(iMeme
Meme
p5808
(dp5809
g3
(lp5810
S'was'
p5811
aS'asked'
p5812
aS'an'
p5813
aS'engineering'
p5814
aS'question'
p5815
asg18
S'was asked an engineering question '
p5816
sg20
S' actually knew what I was talking about '
p5817
sg22
Vtoday-was-a-good-day
p5818
sg24
(lp5819
g5811
ag5812
ag5813
ag5814
ag5815
aS'actually'
p5820
aS'knew'
p5821
aS'what'
p5822
ag66
aS'was'
p5823
aS'talking'
p5824
aS'about'
p5825
asg26
(lp5826
g5820
ag5821
ag5822
ag66
ag5823
ag5824
ag5825
asba(iMeme
Meme
p5827
(dp5828
g3
(lp5829
S'Today'
p5830
ag66
aS'introduced'
p5831
aS'Rita'
p5832
aS'to'
p5833
aS'Future'
p5834
aS'Diary'
p5835
asg18
S'Today I introduced Rita to Future Diary '
p5836
sg20
S' Today was a good day '
p5837
sg22
Vtoday-was-a-good-day
p5838
sg24
(lp5839
g5830
ag66
ag5831
ag5832
ag5833
ag5834
ag5835
aS'Today'
p5840
aS'was'
p5841
ag43
aS'good'
p5842
aS'day'
p5843
asg26
(lp5844
g5840
ag5841
ag43
ag5842
ag5843
asba(iMeme
Meme
p5845
(dp5846
g3
(lp5847
S'got'
p5848
ag43
aS'promotion'
p5849
ag361
aS'started'
p5850
aS'getting'
p5851
aS'over'
p5852
aS'my'
p5853
aS'ex'
p5854
aS'and'
p5855
aS'started'
p5856
ag43
aS'conversation'
p5857
aS'with'
p5858
ag43
aS'girl'
p5859
asg18
S'got a promotion, started getting over my ex and started a conversation with a girl  '
p5860
sg20
S' today was a good day '
p5861
sg22
Vtoday-was-a-good-day
p5862
sg24
(lp5863
g5848
ag43
ag5849
ag361
ag5850
ag5851
ag5852
ag5853
ag5854
ag5855
ag5856
ag43
ag5857
ag5858
ag43
ag5859
aS'today'
p5864
aS'was'
p5865
ag43
aS'good'
p5866
aS'day'
p5867
asg26
(lp5868
g5864
ag5865
ag43
ag5866
ag5867
asba(iMeme
Meme
p5869
(dp5870
g3
(lp5871
S'gf'
p5872
aS'didnt'
p5873
aS'insult'
p5874
aS'me'
p5875
asg18
S'gf didnt insult me '
p5876
sg20
S' today was a GOOd day '
p5877
sg22
Vtoday-was-a-good-day
p5878
sg24
(lp5879
g5872
ag5873
ag5874
ag5875
aS'today'
p5880
aS'was'
p5881
ag43
aS'GOOd'
p5882
aS'day'
p5883
asg26
(lp5884
g5880
ag5881
ag43
ag5882
ag5883
asba(iMeme
Meme
p5885
(dp5886
g3
(lp5887
S'my'
p5888
aS'stupid'
p5889
aS'question'
p5890
aS'about'
p5891
aS'bees'
p5892
aS'was'
p5893
aS'answered'
p5894
aS'on'
p5895
aS'table'
p5896
aS'table'
p5897
aS'and'
p5898
aS'made'
p5899
aS'into'
p5900
aS'segment'
p5901
asg18
S'my stupid question about bees was answered on table table and made into segment  '
p5902
sg20
S' today was a good day '
p5903
sg22
Vtoday-was-a-good-day
p5904
sg24
(lp5905
g5888
ag5889
ag5890
ag5891
ag5892
ag5893
ag5894
ag5895
ag5896
ag5897
ag5898
ag5899
ag5900
ag5901
aS'today'
p5906
aS'was'
p5907
ag43
aS'good'
p5908
aS'day'
p5909
asg26
(lp5910
g5906
ag5907
ag43
ag5908
ag5909
asba(iMeme
Meme
p5911
(dp5912
g3
(lp5913
S'She'
p5914
aS'let'
p5915
aS'me'
p5916
aS'fuck'
p5917
asg18
S'She let me fuck '
p5918
sg20
S' Today was a good day '
p5919
sg22
Vtoday-was-a-good-day
p5920
sg24
(lp5921
g5914
ag5915
ag5916
ag5917
aS'Today'
p5922
aS'was'
p5923
ag43
aS'good'
p5924
aS'day'
p5925
asg26
(lp5926
g5922
ag5923
ag43
ag5924
ag5925
asba(iMeme
Meme
p5927
(dp5928
g3
(lp5929
S'presented'
p5930
aS'74'
p5931
aS'baseball'
p5932
aS'trophies'
p5933
aS'to'
p5934
aS'little'
p5935
aS'kids'
p5936
asg18
S'presented 74 baseball trophies to little kids '
p5937
sg20
S' today was a good day '
p5938
sg22
Vtoday-was-a-good-day
p5939
sg24
(lp5940
g5930
ag5931
ag5932
ag5933
ag5934
ag5935
ag5936
aS'today'
p5941
aS'was'
p5942
ag43
aS'good'
p5943
aS'day'
p5944
asg26
(lp5945
g5941
ag5942
ag43
ag5943
ag5944
asba(iMeme
Meme
p5946
(dp5947
g3
(lp5948
S'Cartoon'
p5949
aS'Network'
p5950
aS'is'
p5951
aS'running'
p5952
ag43
aS'Classics'
p5953
aS'Marathon'
p5954
aS'on'
p5955
aS'7/11'
p5956
aS'Day'
p5957
asg18
S'Cartoon Network is running a Classics Marathon on 7/11 Day '
p5958
sg20
S' Today was a good day '
p5959
sg22
Vtoday-was-a-good-day
p5960
sg24
(lp5961
g5949
ag5950
ag5951
ag5952
ag43
ag5953
ag5954
ag5955
ag5956
ag5957
aS'Today'
p5962
aS'was'
p5963
ag43
aS'good'
p5964
aS'day'
p5965
asg26
(lp5966
g5962
ag5963
ag43
ag5964
ag5965
asba(iMeme
Meme
p5967
(dp5968
g3
(lp5969
S'Beat'
p5970
aS'my'
p5971
aS'high'
p5972
aS'score'
p5973
aS'on'
p5974
aS'brickbreaker'
p5975
asg18
S'Beat my high score on brickbreaker '
p5976
sg20
S' today was a good day '
p5977
sg22
Vtoday-was-a-good-day
p5978
sg24
(lp5979
g5970
ag5971
ag5972
ag5973
ag5974
ag5975
aS'today'
p5980
aS'was'
p5981
ag43
aS'good'
p5982
aS'day'
p5983
asg26
(lp5984
g5980
ag5981
ag43
ag5982
ag5983
asba(iMeme
Meme
p5985
(dp5986
g3
(lp5987
S'it'
p5988
aS"'s"
p5989
aS'evening'
p5990
aS'and'
p5991
aS'phone'
p5992
aS'battery'
p5993
aS'still'
p5994
aS'has'
p5995
aS'half'
p5996
aS'the'
p5997
aS'juice'
p5998
asg18
S" it's evening and phone battery still has half the juice "
p5999
sg20
S' today was a good day '
p6000
sg22
Vtoday-was-a-good-day
p6001
sg24
(lp6002
g5988
ag5989
ag5990
ag5991
ag5992
ag5993
ag5994
ag5995
ag5996
ag5997
ag5998
aS'today'
p6003
aS'was'
p6004
ag43
aS'good'
p6005
aS'day'
p6006
asg26
(lp6007
g6003
ag6004
ag43
ag6005
ag6006
asba(iMeme
Meme
p6008
(dp6009
g3
(lp6010
S'Asked'
p6011
aS'my'
p6012
aS'crush'
p6013
aS'out'
p6014
aS'on'
p6015
ag43
aS'date'
p6016
ag97
aS'she'
p6017
aS'saiid'
p6018
aS'yes'
p6019
asg18
S'Asked my crush out on a date. she saiid yes '
p6020
sg20
S' today was a good day '
p6021
sg22
Vtoday-was-a-good-day
p6022
sg24
(lp6023
g6011
ag6012
ag6013
ag6014
ag6015
ag43
ag6016
ag97
ag6017
ag6018
ag6019
aS'today'
p6024
aS'was'
p6025
ag43
aS'good'
p6026
aS'day'
p6027
asg26
(lp6028
g6024
ag6025
ag43
ag6026
ag6027
asba(iMeme
Meme
p6029
(dp6030
g3
(lp6031
S'ben'
p6032
aS'sent'
p6033
aS'me'
p6034
aS'an'
p6035
aS'email'
p6036
asg18
S'ben sent me an email '
p6037
sg20
S' today was a good day '
p6038
sg22
Vtoday-was-a-good-day
p6039
sg24
(lp6040
g6032
ag6033
ag6034
ag6035
ag6036
aS'today'
p6041
aS'was'
p6042
ag43
aS'good'
p6043
aS'day'
p6044
asg26
(lp6045
g6041
ag6042
ag43
ag6043
ag6044
asba(iMeme
Meme
p6046
(dp6047
g3
(lp6048
S'angels'
p6049
aS'beat'
p6050
aS'the'
p6051
aS'athletics'
p6052
asg18
S'angels beat the athletics '
p6053
sg20
S' today was a good day '
p6054
sg22
Vtoday-was-a-good-day
p6055
sg24
(lp6056
g6049
ag6050
ag6051
ag6052
aS'today'
p6057
aS'was'
p6058
ag43
aS'good'
p6059
aS'day'
p6060
asg26
(lp6061
g6057
ag6058
ag43
ag6059
ag6060
asba(iMeme
Meme
p6062
(dp6063
g3
(lp6064
S'Heard'
p6065
aS'ca'
p6066
aS"n't"
p6067
aS'hold'
p6068
aS'us'
p6069
aS'on'
p6070
aS'the'
p6071
aS'way'
p6072
aS'to'
p6073
aS'work'
p6074
asg18
S"Heard can't hold us on the way to work "
p6075
sg20
S" Today's going to be a good day! "
p6076
sg22
Vtoday-was-a-good-day
p6077
sg24
(lp6078
g6065
ag6066
ag6067
ag6068
ag6069
ag6070
ag6071
ag6072
ag6073
ag6074
aS'Today'
p6079
aS"'s"
p6080
aS'going'
p6081
aS'to'
p6082
aS'be'
p6083
ag43
aS'good'
p6084
aS'day'
p6085
ag129
asg26
(lp6086
g6079
ag6080
ag6081
ag6082
ag6083
ag43
ag6084
ag6085
ag129
asba(iMeme
Meme
p6087
(dp6088
g3
(lp6089
S'Made'
p6090
ag948
aS'200'
p6091
aS'and'
p6092
aS'Leafs'
p6093
aS'Made'
p6094
aS'the'
p6095
aS'Playoffs'
p6096
asg18
S'Made $200 and Leafs Made the Playoffs '
p6097
sg20
S' Today was a good day '
p6098
sg22
Vtoday-was-a-good-day
p6099
sg24
(lp6100
g6090
ag948
ag6091
ag6092
ag6093
ag6094
ag6095
ag6096
aS'Today'
p6101
aS'was'
p6102
ag43
aS'good'
p6103
aS'day'
p6104
asg26
(lp6105
g6101
ag6102
ag43
ag6103
ag6104
asba(iMeme
Meme
p6106
(dp6107
g3
(lp6108
S'he'
p6109
aS'fucked'
p6110
aS'me'
p6111
aS'up'
p6112
aS'the'
p6113
aS'ass'
p6114
asg18
S'he fucked me up the ass '
p6115
sg20
S' so am gon kill this bitch '
p6116
sg22
Vtoday-was-a-good-day
p6117
sg24
(lp6118
g6109
ag6110
ag6111
ag6112
ag6113
ag6114
aS'so'
p6119
aS'am'
p6120
aS'gon'
p6121
aS'kill'
p6122
aS'this'
p6123
aS'bitch'
p6124
asg26
(lp6125
g6119
ag6120
ag6121
ag6122
ag6123
ag6124
asba(iMeme
Meme
p6126
(dp6127
g3
(lp6128
S'My'
p6129
aS'post'
p6130
aS'did'
p6131
aS"n't"
p6132
aS'get'
p6133
aS'downvoted'
p6134
aS'to'
p6135
aS'oblivion'
p6136
asg18
S"My post didn't get downvoted to oblivion "
p6137
sg20
S' Today was a good day '
p6138
sg22
Vtoday-was-a-good-day
p6139
sg24
(lp6140
g6129
ag6130
ag6131
ag6132
ag6133
ag6134
ag6135
ag6136
aS'Today'
p6141
aS'was'
p6142
ag43
aS'good'
p6143
aS'day'
p6144
asg26
(lp6145
g6141
ag6142
ag43
ag6143
ag6144
asba(iMeme
Meme
p6146
(dp6147
g3
(lp6148
S'who'
p6149
aS'is'
p6150
aS'that'
p6151
asg18
S'who is that   '
p6152
sg20
S' and is she naked '
p6153
sg22
Vtoday-was-a-good-day
p6154
sg24
(lp6155
g6149
ag6150
ag6151
aS'and'
p6156
aS'is'
p6157
aS'she'
p6158
aS'naked'
p6159
asg26
(lp6160
g6156
ag6157
ag6158
ag6159
asba(iMeme
Meme
p6161
(dp6162
g3
(lp6163
S'Cats'
p6164
aS'shit'
p6165
aS'in'
p6166
aS'the'
p6167
aS'litterbox'
p6168
asg18
S'Cats shit in the litterbox '
p6169
sg20
S' Today Was a good day '
p6170
sg22
Vtoday-was-a-good-day
p6171
sg24
(lp6172
g6164
ag6165
ag6166
ag6167
ag6168
aS'Today'
p6173
aS'Was'
p6174
ag43
aS'good'
p6175
aS'day'
p6176
asg26
(lp6177
g6173
ag6174
ag43
ag6175
ag6176
asba(iMeme
Meme
p6178
(dp6179
g3
(lp6180
S'hm2'
p6181
aS'let'
p6182
aS'us'
p6183
aS'play'
p6184
aS'football'
p6185
aS'at'
p6186
aS'pt'
p6187
asg18
S'hm2 let us play football at pt  '
p6188
sg20
S' today was a good day '
p6189
sg22
Vtoday-was-a-good-day
p6190
sg24
(lp6191
g6181
ag6182
ag6183
ag6184
ag6185
ag6186
ag6187
aS'today'
p6192
aS'was'
p6193
ag43
aS'good'
p6194
aS'day'
p6195
asg26
(lp6196
g6192
ag6193
ag43
ag6194
ag6195
asba(iMeme
Meme
p6197
(dp6198
g3
(lp6199
S'Real'
p6200
aS'madrid'
p6201
aS'eliminated'
p6202
asg18
S'Real madrid eliminated '
p6203
sg20
S' Today was a good day '
p6204
sg22
Vtoday-was-a-good-day
p6205
sg24
(lp6206
g6200
ag6201
ag6202
aS'Today'
p6207
aS'was'
p6208
ag43
aS'good'
p6209
aS'day'
p6210
asg26
(lp6211
g6207
ag6208
ag43
ag6209
ag6210
asba(iMeme
Meme
p6212
(dp6213
g3
(lp6214
S'Passed'
p6215
aS'all'
p6216
aS'papers'
p6217
aS'and'
p6218
aS'TI3'
p6219
aS'starts'
p6220
asg18
S'Passed all papers and TI3 starts '
p6221
sg20
S' Today is a good day '
p6222
sg22
Vtoday-was-a-good-day
p6223
sg24
(lp6224
g6215
ag6216
ag6217
ag6218
ag6219
ag6220
aS'Today'
p6225
aS'is'
p6226
ag43
aS'good'
p6227
aS'day'
p6228
asg26
(lp6229
g6225
ag6226
ag43
ag6227
ag6228
asba(iMeme
Meme
p6230
(dp6231
g3
(lp6232
S'viera'
p6233
aS'had'
p6234
aS'to'
p6235
aS'gk'
p6236
asg18
S'viera had to gk '
p6237
sg20
S'  '
p6238
sg22
Vtoday-was-a-good-day
p6239
sg24
(lp6240
g6233
ag6234
ag6235
ag6236
asg26
(lp6241
sba(iMeme
Meme
p6242
(dp6243
g3
(lp6244
S'Got'
p6245
aS'retweeted'
p6246
aS'By'
p6247
aS'the'
p6248
aS'Minister'
p6249
aS'of'
p6250
aS'Defense'
p6251
asg18
S'Got retweeted By the Minister of Defense '
p6252
sg20
S' Today was a Good day '
p6253
sg22
Vtoday-was-a-good-day
p6254
sg24
(lp6255
g6245
ag6246
ag6247
ag6248
ag6249
ag6250
ag6251
aS'Today'
p6256
aS'was'
p6257
ag43
aS'Good'
p6258
aS'day'
p6259
asg26
(lp6260
g6256
ag6257
ag43
ag6258
ag6259
asba(iMeme
Meme
p6261
(dp6262
g3
(lp6263
S'July'
p6264
ag837
aS'today'
p6265
aS'is'
p6266
ag43
aS'good'
p6267
aS'day'
p6268
asg18
S'July 6  today is a good day '
p6269
sg20
S'  '
p6270
sg22
Vtoday-was-a-good-day
p6271
sg24
(lp6272
g6264
ag837
ag6265
ag6266
ag43
ag6267
ag6268
asg26
(lp6273
sba(iMeme
Meme
p6274
(dp6275
g3
(lp6276
S'spent'
p6277
aS'the'
p6278
aS'day'
p6279
aS'tweeting'
p6280
aS'about'
p6281
aS'ray'
p6282
aS'parker'
p6283
aS'jr'
p6284
aS'and'
p6285
aS'somehow'
p6286
aS'getting'
p6287
aS'retweeted'
p6288
aS'by'
p6289
aS'the'
p6290
aS'littlest'
p6291
aS'hobo'
p6292
ag552
asg18
S'spent the day tweeting about ray parker jr and somehow getting retweeted by the littlest hobo? '
p6293
sg20
S' today was a good day '
p6294
sg22
Vtoday-was-a-good-day
p6295
sg24
(lp6296
g6277
ag6278
ag6279
ag6280
ag6281
ag6282
ag6283
ag6284
ag6285
ag6286
ag6287
ag6288
ag6289
ag6290
ag6291
ag6292
ag552
aS'today'
p6297
aS'was'
p6298
ag43
aS'good'
p6299
aS'day'
p6300
asg26
(lp6301
g6297
ag6298
ag43
ag6299
ag6300
asba(iMeme
Meme
p6302
(dp6303
g3
(lp6304
S'Logged'
p6305
aS'into'
p6306
aS'reddit'
p6307
aS'to'
p6308
aS'correct'
p6309
aS'someone'
p6310
aS'about'
p6311
aS'natural'
p6312
aS'selection'
p6313
asg18
S'Logged into reddit to correct someone about natural selection '
p6314
sg20
S' found out Today is my cake day '
p6315
sg22
Vtoday-was-a-good-day
p6316
sg24
(lp6317
g6305
ag6306
ag6307
ag6308
ag6309
ag6310
ag6311
ag6312
ag6313
aS'found'
p6318
aS'out'
p6319
aS'Today'
p6320
aS'is'
p6321
aS'my'
p6322
aS'cake'
p6323
aS'day'
p6324
asg26
(lp6325
g6318
ag6319
ag6320
ag6321
ag6322
ag6323
ag6324
asba(iMeme
Meme
p6326
(dp6327
g3
(lp6328
S'thick'
p6329
aS'n'
p6330
aS'inked'
p6331
aS'girls'
p6332
aS'all'
p6333
aS'over'
p6334
aS'my'
p6335
aS'news'
p6336
aS'feed'
p6337
asg18
S'thick n inked girls all over my news feed  '
p6338
sg20
S' today was a good day ! '
p6339
sg22
Vtoday-was-a-good-day
p6340
sg24
(lp6341
g6329
ag6330
ag6331
ag6332
ag6333
ag6334
ag6335
ag6336
ag6337
aS'today'
p6342
aS'was'
p6343
ag43
aS'good'
p6344
aS'day'
p6345
ag129
asg26
(lp6346
g6342
ag6343
ag43
ag6344
ag6345
ag129
asba(iMeme
Meme
p6347
(dp6348
g3
(lp6349
S'Found'
p6350
aS'Abita'
p6351
aS'Amber'
p6352
aS'in'
p6353
aS'Salem'
p6354
ag361
aS'OR'
p6355
asg18
S'Found Abita Amber in Salem, OR '
p6356
sg20
S' Today was a good day '
p6357
sg22
Vtoday-was-a-good-day
p6358
sg24
(lp6359
g6350
ag6351
ag6352
ag6353
ag6354
ag361
ag6355
aS'Today'
p6360
aS'was'
p6361
ag43
aS'good'
p6362
aS'day'
p6363
asg26
(lp6364
g6360
ag6361
ag43
ag6362
ag6363
asba(iMeme
Meme
p6365
(dp6366
g3
(lp6367
S'hit'
p6368
aS'6000'
p6369
aS'link'
p6370
aS'karma'
p6371
ag361
aS'first'
p6372
aS'and'
p6373
aS'second'
p6374
aS'page'
p6375
aS'posts'
p6376
asg18
S'hit 6000 link karma, first and second page posts '
p6377
sg20
S' today was a good day '
p6378
sg22
Vtoday-was-a-good-day
p6379
sg24
(lp6380
g6368
ag6369
ag6370
ag6371
ag361
ag6372
ag6373
ag6374
ag6375
ag6376
aS'today'
p6381
aS'was'
p6382
ag43
aS'good'
p6383
aS'day'
p6384
asg26
(lp6385
g6381
ag6382
ag43
ag6383
ag6384
asba(iMeme
Meme
p6386
(dp6387
g3
(lp6388
S'robs'
p6389
aS'random'
p6390
aS'niggas'
p6391
asg18
S'robs random niggas '
p6392
sg20
S' comes home with 100k '
p6393
sg22
Vtoday-was-a-good-day
p6394
sg24
(lp6395
g6389
ag6390
ag6391
aS'comes'
p6396
aS'home'
p6397
aS'with'
p6398
aS'100k'
p6399
asg26
(lp6400
g6396
ag6397
ag6398
ag6399
asba(iMeme
Meme
p6401
(dp6402
g3
(lp6403
S'won'
p6404
aS'my'
p6405
aS'first'
p6406
aS'game'
p6407
aS'in'
p6408
aS'dota'
p6409
ag1162
asg18
S'won my first game in dota 2 '
p6410
sg20
S' today was a good day '
p6411
sg22
Vtoday-was-a-good-day
p6412
sg24
(lp6413
g6404
ag6405
ag6406
ag6407
ag6408
ag6409
ag1162
aS'today'
p6414
aS'was'
p6415
ag43
aS'good'
p6416
aS'day'
p6417
asg26
(lp6418
g6414
ag6415
ag43
ag6416
ag6417
asba(iMeme
Meme
p6419
(dp6420
g3
(lp6421
S'Tied'
p6422
aS'my'
p6423
aS'tie'
p6424
aS'right'
p6425
aS'on'
p6426
aS'the'
p6427
aS'first'
p6428
aS'try'
p6429
asg18
S'Tied my tie right on the first try '
p6430
sg20
S' today was a good day '
p6431
sg22
Vtoday-was-a-good-day
p6432
sg24
(lp6433
g6422
ag6423
ag6424
ag6425
ag6426
ag6427
ag6428
ag6429
aS'today'
p6434
aS'was'
p6435
ag43
aS'good'
p6436
aS'day'
p6437
asg26
(lp6438
g6434
ag6435
ag43
ag6436
ag6437
asba(iMeme
Meme
p6439
(dp6440
g3
(lp6441
S'Got'
p6442
aS'called'
p6443
aS'cute'
p6444
asg18
S'Got called cute '
p6445
sg20
S' Today was a goOd day '
p6446
sg22
Vtoday-was-a-good-day
p6447
sg24
(lp6448
g6442
ag6443
ag6444
aS'Today'
p6449
aS'was'
p6450
ag43
aS'goOd'
p6451
aS'day'
p6452
asg26
(lp6453
g6449
ag6450
ag43
ag6451
ag6452
asba(iMeme
Meme
p6454
(dp6455
g3
(lp6456
g462
aS'got'
p6457
ag43
aS'baby'
p6458
aS'brother'
p6459
asg18
S'i got a baby brother '
p6460
sg20
S' today was a good day '
p6461
sg22
Vtoday-was-a-good-day
p6462
sg24
(lp6463
g462
ag6457
ag43
ag6458
ag6459
aS'today'
p6464
aS'was'
p6465
ag43
aS'good'
p6466
aS'day'
p6467
asg26
(lp6468
g6464
ag6465
ag43
ag6466
ag6467
asba(iMeme
Meme
p6469
(dp6470
g3
(lp6471
S'viera'
p6472
aS'had'
p6473
aS'to'
p6474
aS'go'
p6475
aS'potty'
p6476
aS'on'
p6477
ag43
aS'long'
p6478
aS'road'
p6479
aS'trip'
p6480
ag97
aS'didnt'
p6481
aS'shit'
p6482
aS'her'
p6483
aS'pants'
p6484
ag97
asg18
S'viera had to go potty on a long road trip.  didnt shit her pants. '
p6485
sg20
S' today was a good day '
p6486
sg22
Vtoday-was-a-good-day
p6487
sg24
(lp6488
g6472
ag6473
ag6474
ag6475
ag6476
ag6477
ag43
ag6478
ag6479
ag6480
ag97
ag6481
ag6482
ag6483
ag6484
ag97
aS'today'
p6489
aS'was'
p6490
ag43
aS'good'
p6491
aS'day'
p6492
asg26
(lp6493
g6489
ag6490
ag43
ag6491
ag6492
asba(iMeme
Meme
p6494
(dp6495
g3
(lp6496
S'keep'
p6497
aS'looking'
p6498
aS'tough'
p6499
ag3929
aS'Just'
p6500
aS'pretend'
p6501
aS'...'
p6502
asg18
S'keep looking tough; Just pretend... '
p6503
sg20
S' that this car was made in america '
p6504
sg22
Vtoday-was-a-good-day
p6505
sg24
(lp6506
g6497
ag6498
ag6499
ag3929
ag6500
ag6501
ag6502
aS'that'
p6507
aS'this'
p6508
aS'car'
p6509
aS'was'
p6510
aS'made'
p6511
aS'in'
p6512
aS'america'
p6513
asg26
(lp6514
g6507
ag6508
ag6509
ag6510
ag6511
ag6512
ag6513
asba(iMeme
Meme
p6515
(dp6516
g3
(lp6517
S'Checked'
p6518
aS'reddit'
p6519
aS'front'
p6520
aS'page'
p6521
aS'today'
p6522
aS'WAS'
p6523
aS"N'T"
p6524
aS'BOMBARDED'
p6525
aS'WITH'
p6526
aS"'FUCK"
p6527
aS'YEAH'
p6528
aS"'MERICA"
p6529
ag1779
aS'POSTS'
p6530
asg18
S"Checked reddit front page today WASN'T BOMBARDED WITH 'FUCK YEAH 'MERICA' POSTS "
p6531
sg20
S' Today was a good day '
p6532
sg22
Vtoday-was-a-good-day
p6533
sg24
(lp6534
g6518
ag6519
ag6520
ag6521
ag6522
ag6523
ag6524
ag6525
ag6526
ag6527
ag6528
ag6529
ag1779
ag6530
aS'Today'
p6535
aS'was'
p6536
ag43
aS'good'
p6537
aS'day'
p6538
asg26
(lp6539
g6535
ag6536
ag43
ag6537
ag6538
asba(iMeme
Meme
p6540
(dp6541
g3
(lp6542
S'Husband'
p6543
aS'just'
p6544
aS'won'
p6545
aS'mtg'
p6546
aS'ptq'
p6547
aS'for'
p6548
aS'pro'
p6549
aS'tour'
p6550
aS'dublin'
p6551
asg18
S'Husband just won mtg ptq for pro tour dublin '
p6552
sg20
S' today was a good day '
p6553
sg22
Vtoday-was-a-good-day
p6554
sg24
(lp6555
g6543
ag6544
ag6545
ag6546
ag6547
ag6548
ag6549
ag6550
ag6551
aS'today'
p6556
aS'was'
p6557
ag43
aS'good'
p6558
aS'day'
p6559
asg26
(lp6560
g6556
ag6557
ag43
ag6558
ag6559
asba(iMeme
Meme
p6561
(dp6562
g3
(lp6563
sg18
S' '
p6564
sg20
S' Today was a good day '
p6565
sg22
Vtoday-was-a-good-day
p6566
sg24
(lp6567
S'Today'
p6568
aS'was'
p6569
ag43
aS'good'
p6570
aS'day'
p6571
asg26
(lp6572
g6568
ag6569
ag43
ag6570
ag6571
asba(iMeme
Meme
p6573
(dp6574
g3
(lp6575
S'Got'
p6576
ag1162
aS'karma'
p6577
asg18
S'Got  2 karma '
p6578
sg20
S' today was a good day '
p6579
sg22
Vtoday-was-a-good-day
p6580
sg24
(lp6581
g6576
ag1162
ag6577
aS'today'
p6582
aS'was'
p6583
ag43
aS'good'
p6584
aS'day'
p6585
asg26
(lp6586
g6582
ag6583
ag43
ag6584
ag6585
asba(iMeme
Meme
p6587
(dp6588
g3
(lp6589
S'Won'
p6590
ag948
aS'25'
p6591
aS'and'
p6592
aS'got'
p6593
ag43
aS'raise'
p6594
asg18
S'Won $25 and got a raise '
p6595
sg20
S' Today was a good day '
p6596
sg22
Vtoday-was-a-good-day
p6597
sg24
(lp6598
g6590
ag948
ag6591
ag6592
ag6593
ag43
ag6594
aS'Today'
p6599
aS'was'
p6600
ag43
aS'good'
p6601
aS'day'
p6602
asg26
(lp6603
g6599
ag6600
ag43
ag6601
ag6602
asba(iMeme
Meme
p6604
(dp6605
g3
(lp6606
S'20ft'
p6607
aS'gareth'
p6608
aS'bale'
p6609
ag839
asg18
S'20ft gareth bale & '
p6610
sg20
S' a good compliment... '
p6611
sg22
Vtoday-was-a-good-day
p6612
sg24
(lp6613
g6607
ag6608
ag6609
ag839
ag43
aS'good'
p6614
aS'compliment'
p6615
aS'...'
p6616
asg26
(lp6617
g43
ag6614
ag6615
ag6616
asba(iMeme
Meme
p6618
(dp6619
g3
(lp6620
S'Had'
p6621
aS'breakfast'
p6622
aS'with'
p6623
aS'harry'
p6624
aS'and'
p6625
aS'george'
p6626
asg18
S'Had breakfast with harry and george '
p6627
sg20
S'  '
p6628
sg22
Vtoday-was-a-good-day
p6629
sg24
(lp6630
g6621
ag6622
ag6623
ag6624
ag6625
ag6626
asg26
(lp6631
sba(iMeme
Meme
p6632
(dp6633
g3
(lp6634
S'It'
p6635
aS'was'
p6636
ag43
aS'good'
p6637
aS'day'
p6638
aS'until'
p6639
aS'...'
p6640
ag97
asg18
S'It was a good day until.... '
p6641
sg20
S' i met a wahabi '
p6642
sg22
Vtoday-was-a-good-day
p6643
sg24
(lp6644
g6635
ag6636
ag43
ag6637
ag6638
ag6639
ag6640
ag97
ag462
aS'met'
p6645
ag43
aS'wahabi'
p6646
asg26
(lp6647
g462
ag6645
ag43
ag6646
asba(iMeme
Meme
p6648
(dp6649
g3
(lp6650
S'Got'
p6651
aS'free'
p6652
aS'guac'
p6653
aS'and'
p6654
aS'double'
p6655
aS'meat'
p6656
aS'on'
p6657
aS'my'
p6658
aS'burrito'
p6659
aS'bowl'
p6660
asg18
S'Got free guac and double meat on my burrito bowl '
p6661
sg20
S' today was a good day '
p6662
sg22
Vtoday-was-a-good-day
p6663
sg24
(lp6664
g6651
ag6652
ag6653
ag6654
ag6655
ag6656
ag6657
ag6658
ag6659
ag6660
aS'today'
p6665
aS'was'
p6666
ag43
aS'good'
p6667
aS'day'
p6668
asg26
(lp6669
g6665
ag6666
ag43
ag6667
ag6668
asba(iMeme
Meme
p6670
(dp6671
g3
(lp6672
g66
aS'got'
p6673
aS'my'
p6674
aS'license'
p6675
asg18
S'I got my license  '
p6676
sg20
S' Today was a good day '
p6677
sg22
Vtoday-was-a-good-day
p6678
sg24
(lp6679
g66
ag6673
ag6674
ag6675
aS'Today'
p6680
aS'was'
p6681
ag43
aS'good'
p6682
aS'day'
p6683
asg26
(lp6684
g6680
ag6681
ag43
ag6682
ag6683
asba(iMeme
Meme
p6685
(dp6686
g3
(lp6687
S'met'
p6688
ag43
aS'new'
p6689
aS'girl'
p6690
aS'to'
p6691
aS'help'
p6692
aS'me'
p6693
aS'get'
p6694
aS'over'
p6695
aS'my'
p6696
aS'ex'
p6697
asg18
S'met a new girl to help me get over my ex '
p6698
sg20
S' today was a good day '
p6699
sg22
Vtoday-was-a-good-day
p6700
sg24
(lp6701
g6688
ag43
ag6689
ag6690
ag6691
ag6692
ag6693
ag6694
ag6695
ag6696
ag6697
aS'today'
p6702
aS'was'
p6703
ag43
aS'good'
p6704
aS'day'
p6705
asg26
(lp6706
g6702
ag6703
ag43
ag6704
ag6705
asba(iMeme
Meme
p6707
(dp6708
g3
(lp6709
S'Niggas'
p6710
aS'Be'
p6711
aS'Like'
p6712
asg18
S'Niggas Be Like '
p6713
sg20
S' Who that parked outside my ex House?  '
p6714
sg22
Vtoday-was-a-good-day
p6715
sg24
(lp6716
g6710
ag6711
ag6712
aS'Who'
p6717
aS'that'
p6718
aS'parked'
p6719
aS'outside'
p6720
aS'my'
p6721
aS'ex'
p6722
aS'House'
p6723
ag552
asg26
(lp6724
g6717
ag6718
ag6719
ag6720
ag6721
ag6722
ag6723
ag552
asba(iMeme
Meme
p6725
(dp6726
g3
(lp6727
S'Angels'
p6728
aS'beat'
p6729
aS'the'
p6730
aS'athletics'
p6731
asg18
S'Angels beat the athletics '
p6732
sg20
S'  '
p6733
sg22
Vtoday-was-a-good-day
p6734
sg24
(lp6735
g6728
ag6729
ag6730
ag6731
asg26
(lp6736
sba(iMeme
Meme
p6737
(dp6738
g3
(lp6739
S'GROUP'
p6740
aS'D'
p6741
asg18
S'GROUP D '
p6742
sg20
S' Today was a good day '
p6743
sg22
Vtoday-was-a-good-day
p6744
sg24
(lp6745
g6740
ag6741
aS'Today'
p6746
aS'was'
p6747
ag43
aS'good'
p6748
aS'day'
p6749
asg26
(lp6750
g6746
ag6747
ag43
ag6748
ag6749
asba(iMeme
Meme
p6751
(dp6752
g3
(lp6753
S'Girl'
p6754
aS'complemented'
p6755
aS'my'
p6756
aS'Kingdom'
p6757
aS'hearts'
p6758
aS't'
p6759
asg18
S'Girl complemented my Kingdom hearts t'
p6760
sg20
S'shirt '
p6761
sg22
Vtoday-was-a-good-day
p6762
sg24
(lp6763
g6754
ag6755
ag6756
ag6757
ag6758
ag6759
aS'shirt'
p6764
asg26
(lp6765
g6764
asba(iMeme
Meme
p6766
(dp6767
g3
(lp6768
S'my'
p6769
aS'girlfriend'
p6770
aS'is'
p6771
aS"n't"
p6772
aS'allowed'
p6773
aS'to'
p6774
asg18
S"my girlfriend isn't allowed to  "
p6775
sg20
S' meet ice cube that puto might try to have another good day except with her '
p6776
sg22
Vtoday-was-a-good-day
p6777
sg24
(lp6778
g6769
ag6770
ag6771
ag6772
ag6773
ag6774
aS'meet'
p6779
aS'ice'
p6780
aS'cube'
p6781
aS'that'
p6782
aS'puto'
p6783
aS'might'
p6784
aS'try'
p6785
aS'to'
p6786
aS'have'
p6787
aS'another'
p6788
aS'good'
p6789
aS'day'
p6790
aS'except'
p6791
aS'with'
p6792
aS'her'
p6793
asg26
(lp6794
g6779
ag6780
ag6781
ag6782
ag6783
ag6784
ag6785
ag6786
ag6787
ag6788
ag6789
ag6790
ag6791
ag6792
ag6793
asba(iMeme
Meme
p6795
(dp6796
g3
(lp6797
S'got'
p6798
aS'rid'
p6799
aS'of'
p6800
aS'beans'
p6801
aS'and'
p6802
aS'rj'
p6803
ag97
aS'signed'
p6804
aS'iggy'
p6805
ag97
asg18
S'got rid of beans and rj.  signed iggy. '
p6806
sg20
S' today was a good day '
p6807
sg22
Vtoday-was-a-good-day
p6808
sg24
(lp6809
g6798
ag6799
ag6800
ag6801
ag6802
ag6803
ag97
ag6804
ag6805
ag97
aS'today'
p6810
aS'was'
p6811
ag43
aS'good'
p6812
aS'day'
p6813
asg26
(lp6814
g6810
ag6811
ag43
ag6812
ag6813
asba(iMeme
Meme
p6815
(dp6816
g3
(lp6817
S'still'
p6818
aS'have'
p6819
ag43
aS'positive'
p6820
aS'karma'
p6821
asg18
S'still have a positive karma '
p6822
sg20
S' today was a good day '
p6823
sg22
Vtoday-was-a-good-day
p6824
sg24
(lp6825
g6818
ag6819
ag43
ag6820
ag6821
aS'today'
p6826
aS'was'
p6827
ag43
aS'good'
p6828
aS'day'
p6829
asg26
(lp6830
g6826
ag6827
ag43
ag6828
ag6829
asba(iMeme
Meme
p6831
(dp6832
g3
(lp6833
g66
aS"'m"
p6834
ag43
aS'citizen'
p6835
aS'of'
p6836
aS'the'
p6837
aS'U.s'
p6838
aS'and'
p6839
aS'australia'
p6840
asg18
S"I'm a citizen of the U.s and australia "
p6841
sg20
S" Today was a g'day "
p6842
sg22
Vtoday-was-a-good-day
p6843
sg24
(lp6844
g66
ag6834
ag43
ag6835
ag6836
ag6837
ag6838
ag6839
ag6840
aS'Today'
p6845
aS'was'
p6846
ag43
aS"g'day"
p6847
asg26
(lp6848
g6845
ag6846
ag43
ag6847
asba(iMeme
Meme
p6849
(dp6850
g3
(lp6851
S'Niggas'
p6852
aS'be'
p6853
aS'like'
p6854
asg18
S'Niggas be like '
p6855
sg20
S' Oh im hood! '
p6856
sg22
Vtoday-was-a-good-day
p6857
sg24
(lp6858
g6852
ag6853
ag6854
aS'Oh'
p6859
aS'im'
p6860
aS'hood'
p6861
ag129
asg26
(lp6862
g6859
ag6860
ag6861
ag129
asba(iMeme
Meme
p6863
(dp6864
g3
(lp6865
S'/r/atheism'
p6866
aS'is'
p6867
aS'no'
p6868
aS'longer'
p6869
ag43
aS'default'
p6870
aS'subreddit'
p6871
asg18
S'/r/atheism is no longer a default subreddit '
p6872
sg20
S' today was a good day '
p6873
sg22
Vtoday-was-a-good-day
p6874
sg24
(lp6875
g6866
ag6867
ag6868
ag6869
ag43
ag6870
ag6871
aS'today'
p6876
aS'was'
p6877
ag43
aS'good'
p6878
aS'day'
p6879
asg26
(lp6880
g6876
ag6877
ag43
ag6878
ag6879
asba(iMeme
Meme
p6881
(dp6882
g3
(lp6883
S'/r/atheism'
p6884
aS'is'
p6885
aS'no'
p6886
aS'longer'
p6887
ag43
aS'default'
p6888
aS'subreddit'
p6889
aS'and'
p6890
aS'/r/earthporn'
p6891
aS'is'
p6892
asg18
S'/r/atheism is no longer a default subreddit and /r/earthporn is '
p6893
sg20
S' today was a good day '
p6894
sg22
Vtoday-was-a-good-day
p6895
sg24
(lp6896
g6884
ag6885
ag6886
ag6887
ag43
ag6888
ag6889
ag6890
ag6891
ag6892
aS'today'
p6897
aS'was'
p6898
ag43
aS'good'
p6899
aS'day'
p6900
asg26
(lp6901
g6897
ag6898
ag43
ag6899
ag6900
asba(iMeme
Meme
p6902
(dp6903
g3
(lp6904
S'got'
p6905
ag43
aS'blow'
p6906
aS'job'
p6907
aS'and'
p6908
aS'it'
p6909
aS"'s"
p6910
aS'not'
p6911
aS'even'
p6912
aS'my'
p6913
aS'birthday'
p6914
asg18
S"got a blow job and it's not even my birthday "
p6915
sg20
S' today was a good day '
p6916
sg22
Vtoday-was-a-good-day
p6917
sg24
(lp6918
g6905
ag43
ag6906
ag6907
ag6908
ag6909
ag6910
ag6911
ag6912
ag6913
ag6914
aS'today'
p6919
aS'was'
p6920
ag43
aS'good'
p6921
aS'day'
p6922
asg26
(lp6923
g6919
ag6920
ag43
ag6921
ag6922
asba(iMeme
Meme
p6924
(dp6925
g3
(lp6926
sg18
S' '
p6927
sg20
S' Today was a good day '
p6928
sg22
Vtoday-was-a-good-day
p6929
sg24
(lp6930
S'Today'
p6931
aS'was'
p6932
ag43
aS'good'
p6933
aS'day'
p6934
asg26
(lp6935
g6931
ag6932
ag43
ag6933
ag6934
asba(iMeme
Meme
p6936
(dp6937
g3
(lp6938
sg18
S' '
p6939
sg20
S' Today was a good day '
p6940
sg22
Vtoday-was-a-good-day
p6941
sg24
(lp6942
S'Today'
p6943
aS'was'
p6944
ag43
aS'good'
p6945
aS'day'
p6946
asg26
(lp6947
g6943
ag6944
ag43
ag6945
ag6946
asba(iMeme
Meme
p6948
(dp6949
g3
(lp6950
S'Did'
p6951
aS"n't"
p6952
aS'flip'
p6953
aS'my'
p6954
aS'first'
p6955
aS'day'
p6956
aS'in'
p6957
ag43
aS'single'
p6958
asg18
S"Didn't flip my first day in a single "
p6959
sg20
S' today was a good day '
p6960
sg22
Vtoday-was-a-good-day
p6961
sg24
(lp6962
g6951
ag6952
ag6953
ag6954
ag6955
ag6956
ag6957
ag43
ag6958
aS'today'
p6963
aS'was'
p6964
ag43
aS'good'
p6965
aS'day'
p6966
asg26
(lp6967
g6963
ag6964
ag43
ag6965
ag6966
asba(iMeme
Meme
p6968
(dp6969
g3
(lp6970
S'Got'
p6971
aS'into'
p6972
aS'ENEMY'
p6973
aS'territory'
p6974
aS'without'
p6975
aS'being'
p6976
aS'caught'
p6977
asg18
S'Got into ENEMY territory without being caught '
p6978
sg20
S' It was a good day '
p6979
sg22
Vtoday-was-a-good-day
p6980
sg24
(lp6981
g6971
ag6972
ag6973
ag6974
ag6975
ag6976
ag6977
aS'It'
p6982
aS'was'
p6983
ag43
aS'good'
p6984
aS'day'
p6985
asg26
(lp6986
g6982
ag6983
ag43
ag6984
ag6985
asba(iMeme
Meme
p6987
(dp6988
g3
(lp6989
S'just'
p6990
aS'waking'
p6991
aS'up'
p6992
aS'in'
p6993
aS'the'
p6994
aS'morning'
p6995
asg18
S'just waking up in the morning '
p6996
sg20
S' gotta thank god michael is gay '
p6997
sg22
Vtoday-was-a-good-day
p6998
sg24
(lp6999
g6990
ag6991
ag6992
ag6993
ag6994
ag6995
aS'got'
p7000
aS'ta'
p7001
aS'thank'
p7002
aS'god'
p7003
aS'michael'
p7004
aS'is'
p7005
aS'gay'
p7006
asg26
(lp7007
g7000
ag7001
ag7002
ag7003
ag7004
ag7005
ag7006
asba(iMeme
Meme
p7008
(dp7009
g3
(lp7010
sg18
S' '
p7011
sg20
S' Today was a good day '
p7012
sg22
Vtoday-was-a-good-day
p7013
sg24
(lp7014
S'Today'
p7015
aS'was'
p7016
ag43
aS'good'
p7017
aS'day'
p7018
asg26
(lp7019
g7015
ag7016
ag43
ag7017
ag7018
asba(iMeme
Meme
p7020
(dp7021
g3
(lp7022
S'Beat'
p7023
aS'lvl'
p7024
aS'65'
p7025
aS'in'
p7026
aS'Candy'
p7027
aS'Crush'
p7028
asg18
S'Beat lvl 65 in Candy Crush '
p7029
sg20
S' Today was a good day '
p7030
sg22
Vtoday-was-a-good-day
p7031
sg24
(lp7032
g7023
ag7024
ag7025
ag7026
ag7027
ag7028
aS'Today'
p7033
aS'was'
p7034
ag43
aS'good'
p7035
aS'day'
p7036
asg26
(lp7037
g7033
ag7034
ag43
ag7035
ag7036
asba(iMeme
Meme
p7038
(dp7039
g3
(lp7040
S'Killed'
p7041
aS'the'
p7042
aS'bed'
p7043
aS'of'
p7044
aS'chaos'
p7045
ag361
aS'seath'
p7046
aS'and'
p7047
aS'nito'
p7048
aS'On'
p7049
aS'my'
p7050
aS'sl'
p7051
ag4049
aS'Within'
p7052
aS'24'
p7053
aS'hours'
p7054
asg18
S'Killed the bed of chaos, seath and nito On my sl 1 Within 24 hours '
p7055
sg20
S' Today was a good day '
p7056
sg22
Vtoday-was-a-good-day
p7057
sg24
(lp7058
g7041
ag7042
ag7043
ag7044
ag7045
ag361
ag7046
ag7047
ag7048
ag7049
ag7050
ag7051
ag4049
ag7052
ag7053
ag7054
aS'Today'
p7059
aS'was'
p7060
ag43
aS'good'
p7061
aS'day'
p7062
asg26
(lp7063
g7059
ag7060
ag43
ag7061
ag7062
asba(iMeme
Meme
p7064
(dp7065
g3
(lp7066
S'my'
p7067
aS'girlfriend'
p7068
aS'is'
p7069
aS"n't"
p7070
aS'allowed'
p7071
aS'to'
p7072
asg18
S"my girlfriend isn't allowed to "
p7073
sg20
S' meet ice cube that puto might try to have another good day with her '
p7074
sg22
Vtoday-was-a-good-day
p7075
sg24
(lp7076
g7067
ag7068
ag7069
ag7070
ag7071
ag7072
aS'meet'
p7077
aS'ice'
p7078
aS'cube'
p7079
aS'that'
p7080
aS'puto'
p7081
aS'might'
p7082
aS'try'
p7083
aS'to'
p7084
aS'have'
p7085
aS'another'
p7086
aS'good'
p7087
aS'day'
p7088
aS'with'
p7089
aS'her'
p7090
asg26
(lp7091
g7077
ag7078
ag7079
ag7080
ag7081
ag7082
ag7083
ag7084
ag7085
ag7086
ag7087
ag7088
ag7089
ag7090
asba(iMeme
Meme
p7092
(dp7093
g3
(lp7094
S'good'
p7095
asg18
S'good '
p7096
sg20
S' today was a good day '
p7097
sg22
Vtoday-was-a-good-day
p7098
sg24
(lp7099
g7095
aS'today'
p7100
aS'was'
p7101
ag43
aS'good'
p7102
aS'day'
p7103
asg26
(lp7104
g7100
ag7101
ag43
ag7102
ag7103
asba(iMeme
Meme
p7105
(dp7106
g3
(lp7107
S'Got'
p7108
ag43
aS'reply'
p7109
aS'from'
p7110
ag43
aS'youtuber'
p7111
asg18
S'Got a reply from a youtuber  '
p7112
sg20
S' Today was a good day '
p7113
sg22
Vtoday-was-a-good-day
p7114
sg24
(lp7115
g7108
ag43
ag7109
ag7110
ag43
ag7111
aS'Today'
p7116
aS'was'
p7117
ag43
aS'good'
p7118
aS'day'
p7119
asg26
(lp7120
g7116
ag7117
ag43
ag7118
ag7119
asba(iMeme
Meme
p7121
(dp7122
g3
(lp7123
S'Boss'
p7124
aS'went'
p7125
aS'on'
p7126
aS'vacation'
p7127
aS'today'
p7128
aS'and'
p7129
aS'no'
p7130
aS'one'
p7131
aS'came'
p7132
aS'to'
p7133
aS'see'
p7134
aS'him'
p7135
ag97
asg18
S'Boss went on vacation today and no one came to see him. '
p7136
sg20
S' Today was a good and short day '
p7137
sg22
Vtoday-was-a-good-day
p7138
sg24
(lp7139
g7124
ag7125
ag7126
ag7127
ag7128
ag7129
ag7130
ag7131
ag7132
ag7133
ag7134
ag7135
ag97
aS'Today'
p7140
aS'was'
p7141
ag43
aS'good'
p7142
aS'and'
p7143
aS'short'
p7144
aS'day'
p7145
asg26
(lp7146
g7140
ag7141
ag43
ag7142
ag7143
ag7144
ag7145
asba(iMeme
Meme
p7147
(dp7148
g3
(lp7149
sg18
S' '
p7150
sg20
S' Today was a good day '
p7151
sg22
Vtoday-was-a-good-day
p7152
sg24
(lp7153
S'Today'
p7154
aS'was'
p7155
ag43
aS'good'
p7156
aS'day'
p7157
asg26
(lp7158
g7154
ag7155
ag43
ag7156
ag7157
asba(iMeme
Meme
p7159
(dp7160
g3
(lp7161
sg18
S' '
p7162
sg20
S' today was a good day '
p7163
sg22
Vtoday-was-a-good-day
p7164
sg24
(lp7165
S'today'
p7166
aS'was'
p7167
ag43
aS'good'
p7168
aS'day'
p7169
asg26
(lp7170
g7166
ag7167
ag43
ag7168
ag7169
asba(iMeme
Meme
p7171
(dp7172
g3
(lp7173
S'an'
p7174
aS'orange'
p7175
aS'peanut'
p7176
asg18
S'an orange peanut '
p7177
sg20
S' for me? '
p7178
sg22
Vtoday-was-a-good-day
p7179
sg24
(lp7180
g7174
ag7175
ag7176
aS'for'
p7181
aS'me'
p7182
ag552
asg26
(lp7183
g7181
ag7182
ag552
asba(iMeme
Meme
p7184
(dp7185
g3
(lp7186
S'Wins'
p7187
aS'at'
p7188
aS'PFI'
p7189
ag97
asg18
S'Wins at PFI. '
p7190
sg20
S' Today, was a gOod day '
p7191
sg22
Vtoday-was-a-good-day
p7192
sg24
(lp7193
g7187
ag7188
ag7189
ag97
aS'Today'
p7194
ag361
aS'was'
p7195
ag43
aS'gOod'
p7196
aS'day'
p7197
asg26
(lp7198
g7194
ag361
ag7195
ag43
ag7196
ag7197
asba(iMeme
Meme
p7199
(dp7200
g3
(lp7201
S'Did'
p7202
aS"n't"
p7203
aS'smack'
p7204
aS'some'
p7205
aS'bitch'
p7206
aS'up'
p7207
asg18
S"Didn't smack some bitch up "
p7208
sg20
S' Today was a good day '
p7209
sg22
Vtoday-was-a-good-day
p7210
sg24
(lp7211
g7202
ag7203
ag7204
ag7205
ag7206
ag7207
aS'Today'
p7212
aS'was'
p7213
ag43
aS'good'
p7214
aS'day'
p7215
asg26
(lp7216
g7212
ag7213
ag43
ag7214
ag7215
asba(iMeme
Meme
p7217
(dp7218
g3
(lp7219
S'balancing'
p7220
asg18
S'balancing '
p7221
sg20
S" ain't nobody got time for that "
p7222
sg22
Vtoday-was-a-good-day
p7223
sg24
(lp7224
g7220
aS'ai'
p7225
aS"n't"
p7226
aS'nobody'
p7227
aS'got'
p7228
aS'time'
p7229
aS'for'
p7230
aS'that'
p7231
asg26
(lp7232
g7225
ag7226
ag7227
ag7228
ag7229
ag7230
ag7231
asba(iMeme
Meme
p7233
(dp7234
g3
(lp7235
S'im'
p7236
aS'tryna'
p7237
aS'buy'
p7238
ag43
aS'30'
p7239
aS'pack'
p7240
aS'and'
p7241
aS'drink'
p7242
asg18
S'im tryna buy a 30 pack and drink '
p7243
sg20
S' at my crib hmu if you the homie '
p7244
sg22
Vtoday-was-a-good-day
p7245
sg24
(lp7246
g7236
ag7237
ag7238
ag43
ag7239
ag7240
ag7241
ag7242
aS'at'
p7247
aS'my'
p7248
aS'crib'
p7249
aS'hmu'
p7250
aS'if'
p7251
aS'you'
p7252
aS'the'
p7253
aS'homie'
p7254
asg26
(lp7255
g7247
ag7248
ag7249
ag7250
ag7251
ag7252
ag7253
ag7254
asba(iMeme
Meme
p7256
(dp7257
g3
(lp7258
S'pedju'
p7259
aS'ne'
p7260
aS'kenja'
p7261
aS'na'
p7262
aS'pesu'
p7263
asg18
S'pedju ne kenja na pesu '
p7264
sg20
S'  '
p7265
sg22
Vtoday-was-a-good-day
p7266
sg24
(lp7267
g7259
ag7260
ag7261
ag7262
ag7263
asg26
(lp7268
sba.