(lp0
(iMeme
Meme
p1
(dp2
S'top_text'
p3
(lp4
S'fuck'
p5
aS'who'
p6
aS'wrote'
p7
aS'this'
p8
aS'code'
p9
aS'?'
p10
asS'top_text_raw'
p11
S'fuck who wrote this code?'
p12
sS'bottom_text_raw'
p13
S' it was me!'
p14
sS'meme_type'
p15
Vweb-developer-walrus
p16
sS'all_text'
p17
(lp18
g5
ag6
ag7
ag8
ag9
ag10
aS'it'
p19
aS'was'
p20
aS'me'
p21
aS'!'
p22
asS'bottom_text'
p23
(lp24
g19
ag20
ag21
ag22
asba(iMeme
Meme
p25
(dp26
g3
(lp27
S'listed'
p28
aS'known'
p29
aS'languages'
p30
aS'on'
p31
aS'facebook'
p32
asg11
S'listed known languages on facebook'
p33
sg13
S' php'
p34
sg15
Vweb-developer-walrus
p35
sg17
(lp36
g28
ag29
ag30
ag31
ag32
aS'php'
p37
asg23
(lp38
g37
asba(iMeme
Meme
p39
(dp40
g3
(lp41
S'good'
p42
aS'one'
p43
aS'.'
p44
aS'it'
p45
aS'made'
p46
aS'me'
p47
asg11
S'good one. it made me'
p48
sg13
S' a lolrus'
p49
sg15
Vweb-developer-walrus
p50
sg17
(lp51
g42
ag43
ag44
ag45
ag46
ag47
aS'a'
p52
aS'lolrus'
p53
asg23
(lp54
g52
ag53
asba(iMeme
Meme
p55
(dp56
g3
(lp57
S'write'
p58
aS'shitty'
p59
aS'code'
p60
asg11
S'write shitty code'
p61
sg13
S' blame old developers in comments'
p62
sg15
Vweb-developer-walrus
p63
sg17
(lp64
g58
ag59
ag60
aS'blame'
p65
aS'old'
p66
aS'developers'
p67
aS'in'
p68
aS'comments'
p69
asg23
(lp70
g65
ag66
ag67
ag68
ag69
asba(iMeme
Meme
p71
(dp72
g3
(lp73
S'i'
p74
aS'give'
p75
asg11
S'i give'
p76
sg13
S' zero fucks'
p77
sg15
Vweb-developer-walrus
p78
sg17
(lp79
g74
ag75
aS'zero'
p80
aS'fucks'
p81
asg23
(lp82
g80
ag81
asba(iMeme
Meme
p83
(dp84
g3
(lp85
S'write'
p86
aS'overly'
p87
aS'complex'
p88
aS'code'
p89
asg11
S'write overly complex code'
p90
sg13
S' ill write comments later'
p91
sg15
Vweb-developer-walrus
p92
sg17
(lp93
g86
ag87
ag88
ag89
aS'ill'
p94
aS'write'
p95
aS'comments'
p96
aS'later'
p97
asg23
(lp98
g94
ag95
ag96
ag97
asba(iMeme
Meme
p99
(dp100
g3
(lp101
S'cant'
p102
aS'think'
p103
aS'of'
p104
aS'name'
p105
aS'for'
p106
aS'variable'
p107
asg11
S'cant think of name for variable'
p108
sg13
S' x it is!'
p109
sg15
Vweb-developer-walrus
p110
sg17
(lp111
g102
ag103
ag104
ag105
ag106
ag107
aS'x'
p112
aS'it'
p113
aS'is'
p114
ag22
asg23
(lp115
g112
ag113
ag114
ag22
asba(iMeme
Meme
p116
(dp117
g3
(lp118
S'back'
p119
aS'off'
p120
aS'warchild'
p121
asg11
S'back off warchild'
p122
sg13
S' seriously'
p123
sg15
Vweb-developer-walrus
p124
sg17
(lp125
g119
ag120
ag121
aS'seriously'
p126
asg23
(lp127
g126
asba(iMeme
Meme
p128
(dp129
g3
(lp130
S'caffeine'
p131
aS'goes'
p132
aS'in'
p133
asg11
S'caffeine goes in'
p134
sg13
S' code comes out'
p135
sg15
Vweb-developer-walrus
p136
sg17
(lp137
g131
ag132
ag133
aS'code'
p138
aS'comes'
p139
aS'out'
p140
asg23
(lp141
g138
ag139
ag140
asba(iMeme
Meme
p142
(dp143
g3
(lp144
S'easy'
p145
aS'navigation'
p146
ag10
asg11
S'easy navigation?'
p147
sg13
S' tag clouds everywhere'
p148
sg15
Vweb-developer-walrus
p149
sg17
(lp150
g145
ag146
ag10
aS'tag'
p151
aS'clouds'
p152
aS'everywhere'
p153
asg23
(lp154
g151
ag152
ag153
asba(iMeme
Meme
p155
(dp156
g3
(lp157
S'avoid'
p158
aS'using'
p159
aS'tables'
p160
asg11
S'avoid using tables'
p161
sg13
S' spend 24 hours on floating divs'
p162
sg15
Vweb-developer-walrus
p163
sg17
(lp164
g158
ag159
ag160
aS'spend'
p165
aS'24'
p166
aS'hours'
p167
aS'on'
p168
aS'floating'
p169
aS'divs'
p170
asg23
(lp171
g165
ag166
ag167
ag168
ag169
ag170
asba(iMeme
Meme
p172
(dp173
g3
(lp174
S'coooooooooll'
p175
aS'story'
p176
asg11
S'coooooooooll story'
p177
sg13
S'johny bravo'
p178
sg15
Vweb-developer-walrus
p179
sg17
(lp180
g175
ag176
aS'johny'
p181
aS'bravo'
p182
asg23
(lp183
g181
ag182
asba(iMeme
Meme
p184
(dp185
g3
(lp186
S'new'
p187
aS'client'
p188
asg11
S'new client'
p189
sg13
S' wants coldfusion'
p190
sg15
Vweb-developer-walrus
p191
sg17
(lp192
g187
ag188
aS'wants'
p193
aS'coldfusion'
p194
asg23
(lp195
g193
ag194
asba(iMeme
Meme
p196
(dp197
g3
(lp198
S'nexon'
p199
asg11
S'nexon'
p200
sg13
S' number one employee'
p201
sg15
Vweb-developer-walrus
p202
sg17
(lp203
g199
aS'number'
p204
aS'one'
p205
aS'employee'
p206
asg23
(lp207
g204
ag205
ag206
asba(iMeme
Meme
p208
(dp209
g3
(lp210
S'paulrus'
p211
asg11
S'paulrus'
p212
sg13
S' it is your birthday.'
p213
sg15
Vweb-developer-walrus
p214
sg17
(lp215
g211
aS'it'
p216
aS'is'
p217
aS'your'
p218
aS'birthday'
p219
ag44
asg23
(lp220
g216
ag217
ag218
ag219
ag44
asba(iMeme
Meme
p221
(dp222
g3
(lp223
S'site'
p224
aS'crashes'
p225
asg11
S'site crashes'
p226
sg13
S' blame consultants'
p227
sg15
Vweb-developer-walrus
p228
sg17
(lp229
g224
ag225
aS'blame'
p230
aS'consultants'
p231
asg23
(lp232
g230
ag231
asba(iMeme
Meme
p233
(dp234
g3
(lp235
S'my'
p236
aS'last'
p237
aS'test'
p238
aS'grade'
p239
asg11
S'my last test grade'
p240
sg13
S' was a c++.'
p241
sg15
Vweb-developer-walrus
p242
sg17
(lp243
g236
ag237
ag238
ag239
aS'was'
p244
ag52
aS'c++'
p245
ag44
asg23
(lp246
g244
ag52
ag245
ag44
asba(iMeme
Meme
p247
(dp248
g3
(lp249
S'good'
p250
aS'one'
p251
ag44
aS'it'
p252
aS'made'
p253
aS'me'
p254
asg11
S'good one. it made me'
p255
sg13
S' lolrus'
p256
sg15
Vweb-developer-walrus
p257
sg17
(lp258
g250
ag251
ag44
ag252
ag253
ag254
aS'lolrus'
p259
asg23
(lp260
g259
asba(iMeme
Meme
p261
(dp262
g3
(lp263
S'coffee'
p264
aS'in'
p265
asg11
S'coffee in'
p266
sg13
S' code out'
p267
sg15
Vweb-developer-walrus
p268
sg17
(lp269
g264
ag265
aS'code'
p270
aS'out'
p271
asg23
(lp272
g270
ag271
asba(iMeme
Meme
p273
(dp274
g3
(lp275
S'you'
p276
aS'made'
p277
aS'me'
p278
asg11
S'you made me'
p279
sg13
S' lolrus'
p280
sg15
Vweb-developer-walrus
p281
sg17
(lp282
g276
ag277
ag278
aS'lolrus'
p283
asg23
(lp284
g283
asba(iMeme
Meme
p285
(dp286
g3
(lp287
S'who'
p288
aS'the'
p289
aS'fuck'
p290
aS'is'
p291
asg11
S'who the fuck is'
p292
sg13
S' felix?'
p293
sg15
Vweb-developer-walrus
p294
sg17
(lp295
g288
ag289
ag290
ag291
aS'felix'
p296
ag10
asg23
(lp297
g296
ag10
asba(iMeme
Meme
p298
(dp299
g3
(lp300
S'were'
p301
aS'gon'
p302
aS'na'
p303
aS'miss'
p304
aS'u'
p305
aS'in'
p306
aS'alaska'
p307
asg11
S'were gonna miss u in alaska'
p308
sg13
S' p.s. give brown a hand job!'
p309
sg15
Vweb-developer-walrus
p310
sg17
(lp311
g301
ag302
ag303
ag304
ag305
ag306
ag307
aS'p.s'
p312
ag44
aS'give'
p313
aS'brown'
p314
ag52
aS'hand'
p315
aS'job'
p316
ag22
asg23
(lp317
g312
ag44
ag313
ag314
ag52
ag315
ag316
ag22
asba(iMeme
Meme
p318
(dp319
g3
(lp320
S'mr'
p321
aS'walrus'
p322
aS'disapproves'
p323
aS'your'
p324
aS'arguement'
p325
asg11
S'mr walrus disapproves your arguement'
p326
sg13
S' you will now be terminated'
p327
sg15
Vweb-developer-walrus
p328
sg17
(lp329
g321
ag322
ag323
ag324
ag325
aS'you'
p330
aS'will'
p331
aS'now'
p332
aS'be'
p333
aS'terminated'
p334
asg23
(lp335
g330
ag331
ag332
ag333
ag334
asba(iMeme
Meme
p336
(dp337
g3
(lp338
g74
aS'will'
p339
aS'beat'
p340
aS'you'
p341
asg11
S'i will beat you'
p342
sg13
S' lynas go back australia'
p343
sg15
Vweb-developer-walrus
p344
sg17
(lp345
g74
ag339
ag340
ag341
aS'lynas'
p346
aS'go'
p347
aS'back'
p348
aS'australia'
p349
asg23
(lp350
g346
ag347
ag348
ag349
asba(iMeme
Meme
p351
(dp352
g3
(lp353
g74
aS'know'
p354
aS'c++'
p355
asg11
S'i know c++'
p356
sg13
S' save as .mp3 right?'
p357
sg15
Vweb-developer-walrus
p358
sg17
(lp359
g74
ag354
ag355
aS'save'
p360
aS'as'
p361
aS'.mp3'
p362
aS'right'
p363
ag10
asg23
(lp364
g360
ag361
ag362
ag363
ag10
asba(iMeme
Meme
p365
(dp366
g3
(lp367
S'start'
p368
aS'using'
p369
aS'dedup'
p370
aS'and'
p371
aS'encryption'
p372
aS'in'
p373
aS'backups'
p374
asg11
S'start using dedup and encryption in backups'
p375
sg13
S' i am scared.'
p376
sg15
Vweb-developer-walrus
p377
sg17
(lp378
g368
ag369
ag370
ag371
ag372
ag373
ag374
ag74
aS'am'
p379
aS'scared'
p380
ag44
asg23
(lp381
g74
ag379
ag380
ag44
asba(iMeme
Meme
p382
(dp383
g3
(lp384
S'what'
p385
aS'did'
p386
ag74
aS'write'
p387
aS'my'
p388
aS'code'
p389
aS'in'
p390
aS'again'
p391
ag10
ag10
asg11
S'what did i write my code in again??'
p392
sg13
S' oh yeah'
p393
sg15
Vweb-developer-walrus
p394
sg17
(lp395
g385
ag386
ag74
ag387
ag388
ag389
ag390
ag391
ag10
ag10
aS'oh'
p396
aS'yeah'
p397
asg23
(lp398
g396
ag397
asba(iMeme
Meme
p399
(dp400
g3
(lp401
S'dammit'
p402
ag22
aS'what'
p403
aS'is'
p404
aS'this'
p405
aS'anatomical'
p406
aS'structure'
p407
aS'tooly'
p408
ag10
asg11
S'dammit! what is this anatomical structure tooly?'
p409
sg13
S' anterior walrus'
p410
sg15
Vweb-developer-walrus
p411
sg17
(lp412
g402
ag22
ag403
ag404
ag405
ag406
ag407
ag408
ag10
aS'anterior'
p413
aS'walrus'
p414
asg23
(lp415
g413
ag414
asba(iMeme
Meme
p416
(dp417
g3
(lp418
S'tusk'
p419
aS'too'
p420
aS'difficult'
p421
asg11
S'tusk too difficult'
p422
sg13
S' type it up yourself'
p423
sg15
Vweb-developer-walrus
p424
sg17
(lp425
g419
ag420
ag421
aS'type'
p426
aS'it'
p427
aS'up'
p428
aS'yourself'
p429
asg23
(lp430
g426
ag427
ag428
ag429
asba(iMeme
Meme
p431
(dp432
g3
(lp433
S'walrus'
p434
asg11
S'walrus'
p435
sg13
S' theyre better than zebras'
p436
sg15
Vweb-developer-walrus
p437
sg17
(lp438
g434
aS'theyre'
p439
aS'better'
p440
aS'than'
p441
aS'zebras'
p442
asg23
(lp443
g439
ag440
ag441
ag442
asba(iMeme
Meme
p444
(dp445
g3
(lp446
S'lexi'
p447
aS'speaks'
p448
asg11
S'lexi speaks'
p449
sg13
S' babies cry'
p450
sg15
Vweb-developer-walrus
p451
sg17
(lp452
g447
ag448
aS'babies'
p453
aS'cry'
p454
asg23
(lp455
g453
ag454
asba(iMeme
Meme
p456
(dp457
g3
(lp458
S'nexon'
p459
asg11
S'nexon'
p460
sg13
S' i code all they do'
p461
sg15
Vweb-developer-walrus
p462
sg17
(lp463
g459
ag74
aS'code'
p464
aS'all'
p465
aS'they'
p466
aS'do'
p467
asg23
(lp468
g74
ag464
ag465
ag466
ag467
asba(iMeme
Meme
p469
(dp470
g3
(lp471
g74
aS'need'
p472
ag52
aS'variable'
p473
aS'name'
p474
ag22
asg11
S'i need a variable name!'
p475
sg13
S' arabhookerfucker it is!'
p476
sg15
Vweb-developer-walrus
p477
sg17
(lp478
g74
ag472
ag52
ag473
ag474
ag22
aS'arabhookerfucker'
p479
aS'it'
p480
aS'is'
p481
ag22
asg23
(lp482
g479
ag480
ag481
ag22
asba(iMeme
Meme
p483
(dp484
g3
(lp485
S'presidents'
p486
aS'get'
p487
aS'grey'
p488
aS'hair'
p489
aS'after'
p490
aS'four'
p491
aS'years'
p492
ag10
asg11
S'presidents get grey hair after four years?'
p493
sg13
S' andy reid turns into a walrus after 14!'
p494
sg15
Vweb-developer-walrus
p495
sg17
(lp496
g486
ag487
ag488
ag489
ag490
ag491
ag492
ag10
aS'andy'
p497
aS'reid'
p498
aS'turns'
p499
aS'into'
p500
ag52
aS'walrus'
p501
aS'after'
p502
aS'14'
p503
ag22
asg23
(lp504
g497
ag498
ag499
ag500
ag52
ag501
ag502
ag503
ag22
asba(iMeme
Meme
p505
(dp506
g3
(lp507
S'not'
p508
aS'sure'
p509
aS'why'
p510
aS'this'
p511
aS'code'
p512
aS'works'
p513
asg11
S'not sure why this code works'
p514
sg13
S' commit'
p515
sg15
Vweb-developer-walrus
p516
sg17
(lp517
g508
ag509
ag510
ag511
ag512
ag513
aS'commit'
p518
asg23
(lp519
g518
asba(iMeme
Meme
p520
(dp521
g3
(lp522
S'if'
p523
aS'you'
p524
aS'are'
p525
aS'the'
p526
aS'walrus'
p527
asg11
S'if you are the walrus'
p528
sg13
S''
p529
sg15
Vweb-developer-walrus
p530
sg17
(lp531
g523
ag524
ag525
ag526
ag527
asg23
(lp532
sba(iMeme
Meme
p533
(dp534
g3
(lp535
S'studying'
p536
aS'anatomy'
p537
aS'with'
p538
aS'toolly'
p539
asg11
S'studying anatomy with toolly'
p540
sg13
S' anterior walrus'
p541
sg15
Vweb-developer-walrus
p542
sg17
(lp543
g536
ag537
ag538
ag539
aS'anterior'
p544
aS'walrus'
p545
asg23
(lp546
g544
ag545
asba(iMeme
Meme
p547
(dp548
g3
(lp549
S'studying'
p550
aS'anattomy'
p551
aS'with'
p552
aS'tooly'
p553
asg11
S'studying anattomy with tooly'
p554
sg13
S' anterior walrus'
p555
sg15
Vweb-developer-walrus
p556
sg17
(lp557
g550
ag551
ag552
ag553
aS'anterior'
p558
aS'walrus'
p559
asg23
(lp560
g558
ag559
asba(iMeme
Meme
p561
(dp562
g3
(lp563
S'bananas'
p564
aS'you'
p565
aS'say'
p566
ag10
asg11
S'bananas you say?'
p567
sg13
S' my 4th cousin is from africa.'
p568
sg15
Vweb-developer-walrus
p569
sg17
(lp570
g564
ag565
ag566
ag10
aS'my'
p571
aS'4th'
p572
aS'cousin'
p573
aS'is'
p574
aS'from'
p575
aS'africa'
p576
ag44
asg23
(lp577
g571
ag572
ag573
ag574
ag575
ag576
ag44
asba(iMeme
Meme
p578
(dp579
g3
(lp580
S'phones'
p581
aS'battery'
p582
aS'dies'
p583
asg11
S'phones battery dies'
p584
sg13
S' blame the lawyers'
p585
sg15
Vweb-developer-walrus
p586
sg17
(lp587
g581
ag582
ag583
aS'blame'
p588
aS'the'
p589
aS'lawyers'
p590
asg23
(lp591
g588
ag589
ag590
asba(iMeme
Meme
p592
(dp593
g3
(lp594
g74
aS'will'
p595
aS'bite'
p596
aS'you'
p597
asg11
S'i will bite you'
p598
sg13
S' lynas go back australia'
p599
sg15
Vweb-developer-walrus
p600
sg17
(lp601
g74
ag595
ag596
ag597
aS'lynas'
p602
aS'go'
p603
aS'back'
p604
aS'australia'
p605
asg23
(lp606
g602
ag603
ag604
ag605
asba(iMeme
Meme
p607
(dp608
g3
(lp609
S'is'
p610
aS'that'
p611
asg11
S'is that'
p612
sg13
S' a walrus?'
p613
sg15
Vweb-developer-walrus
p614
sg17
(lp615
g610
ag611
ag52
aS'walrus'
p616
ag10
asg23
(lp617
g52
ag616
ag10
asba(iMeme
Meme
p618
(dp619
g3
(lp620
S'dont'
p621
aS'know'
p622
aS'anatomy'
p623
asg11
S'dont know anatomy'
p624
sg13
S' anterior walrus'
p625
sg15
Vweb-developer-walrus
p626
sg17
(lp627
g621
ag622
ag623
aS'anterior'
p628
aS'walrus'
p629
asg23
(lp630
g628
ag629
asba(iMeme
Meme
p631
(dp632
g3
(lp633
S'vu'
p634
aS'campus'
p635
aS'safety'
p636
asg11
S'vu campus safety'
p637
sg13
S' respect my authoritah!'
p638
sg15
Vweb-developer-walrus
p639
sg17
(lp640
g634
ag635
ag636
aS'respect'
p641
aS'my'
p642
aS'authoritah'
p643
ag22
asg23
(lp644
g641
ag642
ag643
ag22
asba(iMeme
Meme
p645
(dp646
g3
(lp647
S'assigned'
p648
aS'new'
p649
aS'web'
p650
aS'app'
p651
asg11
S'assigned new web app'
p652
sg13
S' invent scripting language'
p653
sg15
Vweb-developer-walrus
p654
sg17
(lp655
g648
ag649
ag650
ag651
aS'invent'
p656
aS'scripting'
p657
aS'language'
p658
asg23
(lp659
g656
ag657
ag658
asba(iMeme
Meme
p660
(dp661
g3
(lp662
g74
asg11
S'i'
p663
sg13
S' will not come'
p664
sg15
Vweb-developer-walrus
p665
sg17
(lp666
g74
aS'will'
p667
aS'not'
p668
aS'come'
p669
asg23
(lp670
g667
ag668
ag669
asba(iMeme
Meme
p671
(dp672
g3
(lp673
S'india'
p674
aS'down'
p675
asg11
S'india down'
p676
sg13
S' at me when'
p677
sg15
Vweb-developer-walrus
p678
sg17
(lp679
g674
ag675
aS'at'
p680
aS'me'
p681
aS'when'
p682
asg23
(lp683
g680
ag681
ag682
asba(iMeme
Meme
p684
(dp685
g3
(lp686
S'bianca'
p687
asg11
S'bianca'
p688
sg13
S' is a lolrus'
p689
sg15
Vweb-developer-walrus
p690
sg17
(lp691
g687
aS'is'
p692
ag52
aS'lolrus'
p693
asg23
(lp694
g692
ag52
ag693
asba(iMeme
Meme
p695
(dp696
g3
(lp697
S'you'
p698
aS'are'
p699
ag52
asg11
S'you are a'
p700
sg13
S' whorus'
p701
sg15
Vweb-developer-walrus
p702
sg17
(lp703
g698
ag699
ag52
aS'whorus'
p704
asg23
(lp705
g704
asba(iMeme
Meme
p706
(dp707
g3
(lp708
S'acho'
p709
aS'amor'
p710
ag22
ag22
ag22
asg11
S'acho amor!!!'
p711
sg13
S' no me atormenten mas!!!'
p712
sg15
Vweb-developer-walrus
p713
sg17
(lp714
g709
ag710
ag22
ag22
ag22
aS'no'
p715
aS'me'
p716
aS'atormenten'
p717
aS'mas'
p718
ag22
ag22
ag22
asg23
(lp719
g715
ag716
ag717
ag718
ag22
ag22
ag22
asba(iMeme
Meme
p720
(dp721
g3
(lp722
g74
aS'can'
p723
aS'have'
p724
asg11
S'i can have'
p725
sg13
S' four beers?'
p726
sg15
Vweb-developer-walrus
p727
sg17
(lp728
g74
ag723
ag724
aS'four'
p729
aS'beers'
p730
ag10
asg23
(lp731
g729
ag730
ag10
asba(iMeme
Meme
p732
(dp733
g3
(lp734
S'all'
p735
ag74
aS'wanted'
p736
aS'for'
p737
aS'christmas'
p738
aS'was'
p739
asg11
S'all i wanted for christmas was'
p740
sg13
S' my two front teeth'
p741
sg15
Vweb-developer-walrus
p742
sg17
(lp743
g735
ag74
ag736
ag737
ag738
ag739
aS'my'
p744
aS'two'
p745
aS'front'
p746
aS'teeth'
p747
asg23
(lp748
g744
ag745
ag746
ag747
asba(iMeme
Meme
p749
(dp750
g3
(lp751
S'break'
p752
aS'1000'
p753
aS'photos'
p754
asg11
S'break 1000 photos'
p755
sg13
S' blame the democrats'
p756
sg15
Vweb-developer-walrus
p757
sg17
(lp758
g752
ag753
ag754
aS'blame'
p759
aS'the'
p760
aS'democrats'
p761
asg23
(lp762
g759
ag760
ag761
asba(iMeme
Meme
p763
(dp764
g3
(lp765
S'youre'
p766
aS'running'
p767
aS'windows'
p768
aS'98'
p769
ag10
asg11
S'youre running windows 98?'
p770
sg13
S' someone shoot me.'
p771
sg15
Vweb-developer-walrus
p772
sg17
(lp773
g766
ag767
ag768
ag769
ag10
aS'someone'
p774
aS'shoot'
p775
aS'me'
p776
ag44
asg23
(lp777
g774
ag775
ag776
ag44
asba(iMeme
Meme
p778
(dp779
g3
(lp780
S'holy'
p781
aS'shit'
p782
asg11
S'holy shit'
p783
sg13
S' im awesome'
p784
sg15
Vweb-developer-walrus
p785
sg17
(lp786
g781
ag782
aS'im'
p787
aS'awesome'
p788
asg23
(lp789
g787
ag788
asba(iMeme
Meme
p790
(dp791
g3
(lp792
S'world'
p793
aS'wide'
p794
aS'web'
p795
asg11
S'world wide web'
p796
sg13
S' endless possibilities . . .'
p797
sg15
Vweb-developer-walrus
p798
sg17
(lp799
g793
ag794
ag795
aS'endless'
p800
aS'possibilities'
p801
ag44
ag44
ag44
asg23
(lp802
g800
ag801
ag44
ag44
ag44
asba(iMeme
Meme
p803
(dp804
g3
(lp805
S'who'
p806
aS'wrote'
p807
aS'this'
p808
aS'shit'
p809
ag10
asg11
S'who wrote this shit?'
p810
sg13
S' it was me!'
p811
sg15
Vweb-developer-walrus
p812
sg17
(lp813
g806
ag807
ag808
ag809
ag10
aS'it'
p814
aS'was'
p815
aS'me'
p816
ag22
asg23
(lp817
g814
ag815
ag816
ag22
asba(iMeme
Meme
p818
(dp819
g3
(lp820
S'on'
p821
aS'ya'
p822
aS'tooly'
p823
asg11
S'on ya tooly'
p824
sg13
S' anterior walrus'
p825
sg15
Vweb-developer-walrus
p826
sg17
(lp827
g821
ag822
ag823
aS'anterior'
p828
aS'walrus'
p829
asg23
(lp830
g828
ag829
asba(iMeme
Meme
p831
(dp832
g3
(lp833
S'yes'
p834
aS'really'
p835
ag44
aS'no'
p836
asg11
S'yes really. no'
p837
sg13
S' im not a fan'
p838
sg15
Vweb-developer-walrus
p839
sg17
(lp840
g834
ag835
ag44
ag836
aS'im'
p841
aS'not'
p842
ag52
aS'fan'
p843
asg23
(lp844
g841
ag842
ag52
ag843
asba(iMeme
Meme
p845
(dp846
g3
(lp847
S'outsourced'
p848
aS'my'
p849
aS'development'
p850
asg11
S'outsourced my development'
p851
sg13
S' why is code in portuguese?'
p852
sg15
Vweb-developer-walrus
p853
sg17
(lp854
g848
ag849
ag850
aS'why'
p855
aS'is'
p856
aS'code'
p857
aS'in'
p858
aS'portuguese'
p859
ag10
asg23
(lp860
g855
ag856
ag857
ag858
ag859
ag10
asba(iMeme
Meme
p861
(dp862
g3
(lp863
S'when'
p864
aS'mughees'
p865
aS'gets'
p866
aS'angry'
p867
asg11
S'when mughees gets angry'
p868
sg13
S' im gonna kill you!'
p869
sg15
Vweb-developer-walrus
p870
sg17
(lp871
g864
ag865
ag866
ag867
aS'im'
p872
aS'gon'
p873
aS'na'
p874
aS'kill'
p875
aS'you'
p876
ag22
asg23
(lp877
g872
ag873
ag874
ag875
ag876
ag22
asba(iMeme
Meme
p878
(dp879
g3
(lp880
S'so'
p881
ag74
aS'heard'
p882
aS'you'
p883
aS'wanted'
p884
aS'to'
p885
aS'open'
p886
aS'up'
p887
ag52
aS'new'
p888
aS'world'
p889
asg11
S'so i heard you wanted to open up a new world'
p890
sg13
S' im no slut'
p891
sg15
Vweb-developer-walrus
p892
sg17
(lp893
g881
ag74
ag882
ag883
ag884
ag885
ag886
ag887
ag52
ag888
ag889
aS'im'
p894
aS'no'
p895
aS'slut'
p896
asg23
(lp897
g894
ag895
ag896
asba(iMeme
Meme
p898
(dp899
g3
(lp900
S'ive'
p901
aS'got'
p902
aS'99'
p903
aS'problems'
p904
aS'but'
p905
asg11
S'ive got 99 problems but'
p906
sg13
S' buffets arent one!'
p907
sg15
Vweb-developer-walrus
p908
sg17
(lp909
g901
ag902
ag903
ag904
ag905
aS'buffets'
p910
aS'arent'
p911
aS'one'
p912
ag22
asg23
(lp913
g910
ag911
ag912
ag22
asba(iMeme
Meme
p914
(dp915
g3
(lp916
S'hi'
p917
aS'my'
p918
aS'names'
p919
aS'philip'
p920
aS'white'
p921
asg11
S'hi my names philip white'
p922
sg13
S' i cant see my own penis'
p923
sg15
Vweb-developer-walrus
p924
sg17
(lp925
g917
ag918
ag919
ag920
ag921
ag74
aS'cant'
p926
aS'see'
p927
aS'my'
p928
aS'own'
p929
aS'penis'
p930
asg23
(lp931
g74
ag926
ag927
ag928
ag929
ag930
asba(iMeme
Meme
p932
(dp933
g3
(lp934
S'hey'
p935
aS'my'
p936
aS'name'
p937
aS'is'
p938
asg11
S'hey my name is'
p939
sg13
S' jrn'
p940
sg15
Vweb-developer-walrus
p941
sg17
(lp942
g935
ag936
ag937
ag938
aS'jrn'
p943
asg23
(lp944
g943
asba(iMeme
Meme
p945
(dp946
g3
(lp947
S'you'
p948
aS'gone'
p949
asg11
S'you gone'
p950
sg13
S' remember that'
p951
sg15
Vweb-developer-walrus
p952
sg17
(lp953
g948
ag949
aS'remember'
p954
aS'that'
p955
asg23
(lp956
g954
ag955
asba(iMeme
Meme
p957
(dp958
g3
(lp959
S'hey'
p960
aS'my'
p961
aS'name'
p962
aS'is'
p963
asg11
S'hey my name is'
p964
sg13
S' jrn'
p965
sg15
Vweb-developer-walrus
p966
sg17
(lp967
g960
ag961
ag962
ag963
aS'jrn'
p968
asg23
(lp969
g968
asba(iMeme
Meme
p970
(dp971
g3
(lp972
S'you'
p973
aS'have'
p974
aS'to'
p975
aS'admit'
p976
asg11
S'you have to admit'
p977
sg13
S' mughees looks like this!'
p978
sg15
Vweb-developer-walrus
p979
sg17
(lp980
g973
ag974
ag975
ag976
aS'mughees'
p981
aS'looks'
p982
aS'like'
p983
aS'this'
p984
ag22
asg23
(lp985
g981
ag982
ag983
ag984
ag22
asba(iMeme
Meme
p986
(dp987
g3
(lp988
S'you'
p989
aS'speak'
p990
aS'when'
p991
ag74
aS'speak'
p992
asg11
S'you speak when i speak'
p993
sg13
S' you die'
p994
sg15
Vweb-developer-walrus
p995
sg17
(lp996
g989
ag990
ag991
ag74
ag992
aS'you'
p997
aS'die'
p998
asg23
(lp999
g997
ag998
asba(iMeme
Meme
p1000
(dp1001
g3
(lp1002
S'code'
p1003
aS'for'
p1004
aS'the'
p1005
aS'update'
p1006
asg11
S'code for the update'
p1007
sg13
S' thank you very much'
p1008
sg15
Vweb-developer-walrus
p1009
sg17
(lp1010
g1003
ag1004
ag1005
ag1006
aS'thank'
p1011
aS'you'
p1012
aS'very'
p1013
aS'much'
p1014
asg23
(lp1015
g1011
ag1012
ag1013
ag1014
asba(iMeme
Meme
p1016
(dp1017
g3
(lp1018
S'if'
p1019
aS'youve'
p1020
aS'ever'
p1021
aS'see'
p1022
aS'him'
p1023
aS'before'
p1024
aS'at'
p1025
aS'an'
p1026
aS'exam'
p1027
asg11
S'if youve ever see him before at an exam'
p1028
sg13
S' youre awesome'
p1029
sg15
Vweb-developer-walrus
p1030
sg17
(lp1031
g1019
ag1020
ag1021
ag1022
ag1023
ag1024
ag1025
ag1026
ag1027
aS'youre'
p1032
aS'awesome'
p1033
asg23
(lp1034
g1032
ag1033
asba(iMeme
Meme
p1035
(dp1036
g3
(lp1037
S'sometimes'
p1038
ag74
aS'pretend'
p1039
aS'to'
p1040
aS'be'
p1041
aS'normal'
p1042
ag44
aS'but'
p1043
aS'it'
p1044
aS'gets'
p1045
aS'boring'
p1046
asg11
S'sometimes i pretend to be normal. but it gets boring'
p1047
sg13
S' so i go back to being the attention whore everybody likes so f****** much'
p1048
sg15
Vweb-developer-walrus
p1049
sg17
(lp1050
g1038
ag74
ag1039
ag1040
ag1041
ag1042
ag44
ag1043
ag1044
ag1045
ag1046
aS'so'
p1051
ag74
aS'go'
p1052
aS'back'
p1053
aS'to'
p1054
aS'being'
p1055
aS'the'
p1056
aS'attention'
p1057
aS'whore'
p1058
aS'everybody'
p1059
aS'likes'
p1060
aS'so'
p1061
aS'f******'
p1062
aS'much'
p1063
asg23
(lp1064
g1051
ag74
ag1052
ag1053
ag1054
ag1055
ag1056
ag1057
ag1058
ag1059
ag1060
ag1061
ag1062
ag1063
asba(iMeme
Meme
p1065
(dp1066
g3
(lp1067
S'you'
p1068
aS'speak'
p1069
asg11
S'you speak'
p1070
sg13
S' you die'
p1071
sg15
Vweb-developer-walrus
p1072
sg17
(lp1073
g1068
ag1069
aS'you'
p1074
aS'die'
p1075
asg23
(lp1076
g1074
ag1075
asba(iMeme
Meme
p1077
(dp1078
g3
(lp1079
S'they'
p1080
aS'stole'
p1081
aS'my'
p1082
aS'bucet'
p1083
asg11
S'they stole my bucet'
p1084
sg13
S' its time for revenge'
p1085
sg15
Vweb-developer-walrus
p1086
sg17
(lp1087
g1080
ag1081
ag1082
ag1083
aS'its'
p1088
aS'time'
p1089
aS'for'
p1090
aS'revenge'
p1091
asg23
(lp1092
g1088
ag1089
ag1090
ag1091
asba.