(lp0
(iMeme
Meme
p1
(dp2
S'top_text'
p3
(lp4
S'people'
p5
aS'that'
p6
aS'ca'
p7
aS"n't"
p8
aS'take'
p9
aS'a'
p10
aS'joke'
p11
asS'top_text_raw'
p12
S"people that can't take a joke  "
p13
sS'bottom_text_raw'
p14
S' stop being a cunt!!! '
p15
sS'meme_type'
p16
Vwhat-grinds-my-gears
p17
sS'all_text'
p18
(lp19
g5
ag6
ag7
ag8
ag9
ag10
ag11
aS'stop'
p20
aS'being'
p21
ag10
aS'cunt'
p22
aS'!'
p23
ag23
ag23
asS'bottom_text'
p24
(lp25
g20
ag21
ag10
ag22
ag23
ag23
ag23
asba(iMeme
Meme
p26
(dp27
g3
(lp28
S'You'
p29
aS'know'
p30
aS'what'
p31
aS'really'
p32
aS'grinds'
p33
aS'my'
p34
aS'gears'
p35
aS'?'
p36
asg12
S'You know what really grinds my gears? '
p37
sg14
S' People who use this meme to complain about things that can be easily circumvented '
p38
sg16
Vwhat-grinds-my-gears
p39
sg18
(lp40
g29
ag30
ag31
ag32
ag33
ag34
ag35
ag36
aS'People'
p41
aS'who'
p42
aS'use'
p43
aS'this'
p44
aS'meme'
p45
aS'to'
p46
aS'complain'
p47
aS'about'
p48
aS'things'
p49
aS'that'
p50
aS'can'
p51
aS'be'
p52
aS'easily'
p53
aS'circumvented'
p54
asg24
(lp55
g41
ag42
ag43
ag44
ag45
ag46
ag47
ag48
ag49
ag50
ag51
ag52
ag53
ag54
asba(iMeme
Meme
p56
(dp57
g3
(lp58
S'you'
p59
aS'know'
p60
aS'what'
p61
aS'really'
p62
aS'grinds'
p63
aS'my'
p64
aS'gears'
p65
ag36
asg12
S'you know what really grinds my gears? '
p66
sg14
S' you, america. fuck you! '
p67
sg16
Vwhat-grinds-my-gears
p68
sg18
(lp69
g59
ag60
ag61
ag62
ag63
ag64
ag65
ag36
aS'you'
p70
aS','
p71
aS'america'
p72
aS'.'
p73
aS'fuck'
p74
aS'you'
p75
ag23
asg24
(lp76
g70
ag71
ag72
ag73
ag74
ag75
ag23
asba(iMeme
Meme
p77
(dp78
g3
(lp79
S'you'
p80
aS'know'
p81
aS'what'
p82
aS'really'
p83
aS'grinds'
p84
aS'my'
p85
aS'gears'
p86
ag36
asg12
S'you know what really grinds my gears? '
p87
sg14
S" sunglasses that i can't make straight, no matter what i do "
p88
sg16
Vwhat-grinds-my-gears
p89
sg18
(lp90
g80
ag81
ag82
ag83
ag84
ag85
ag86
ag36
aS'sunglasses'
p91
aS'that'
p92
aS'i'
p93
aS'ca'
p94
aS"n't"
p95
aS'make'
p96
aS'straight'
p97
ag71
aS'no'
p98
aS'matter'
p99
aS'what'
p100
ag93
aS'do'
p101
asg24
(lp102
g91
ag92
ag93
ag94
ag95
ag96
ag97
ag71
ag98
ag99
ag100
ag93
ag101
asba(iMeme
Meme
p103
(dp104
g3
(lp105
S'You'
p106
aS'know'
p107
aS'what'
p108
aS'Grinds'
p109
aS'my'
p110
aS'Gears'
p111
asg12
S'You know what Grinds my Gears '
p112
sg14
S' My Girlfriednd when I tried to teach her to drive a stick '
p113
sg16
Vwhat-grinds-my-gears
p114
sg18
(lp115
g106
ag107
ag108
ag109
ag110
ag111
aS'My'
p116
aS'Girlfriednd'
p117
aS'when'
p118
aS'I'
p119
aS'tried'
p120
aS'to'
p121
aS'teach'
p122
aS'her'
p123
aS'to'
p124
aS'drive'
p125
ag10
aS'stick'
p126
asg24
(lp127
g116
ag117
ag118
ag119
ag120
ag121
ag122
ag123
ag124
ag125
ag10
ag126
asba(iMeme
Meme
p128
(dp129
g3
(lp130
S'you'
p131
aS'know'
p132
aS'what'
p133
aS'really'
p134
aS'grinds'
p135
aS'my'
p136
aS'gears'
p137
ag36
asg12
S'you know what really grinds my gears? '
p138
sg14
S' when people put the same thing in the picture and in the title '
p139
sg16
Vwhat-grinds-my-gears
p140
sg18
(lp141
g131
ag132
ag133
ag134
ag135
ag136
ag137
ag36
aS'when'
p142
aS'people'
p143
aS'put'
p144
aS'the'
p145
aS'same'
p146
aS'thing'
p147
aS'in'
p148
aS'the'
p149
aS'picture'
p150
aS'and'
p151
aS'in'
p152
aS'the'
p153
aS'title'
p154
asg24
(lp155
g142
ag143
ag144
ag145
ag146
ag147
ag148
ag149
ag150
ag151
ag152
ag153
ag154
asba(iMeme
Meme
p156
(dp157
g3
(lp158
S'you'
p159
aS'know'
p160
aS'what'
p161
aS'grinds'
p162
aS'my'
p163
aS'gears'
p164
ag36
asg12
S'you know what grinds my gears? '
p165
sg14
S' when Niggas break up fights '
p166
sg16
Vwhat-grinds-my-gears
p167
sg18
(lp168
g159
ag160
ag161
ag162
ag163
ag164
ag36
aS'when'
p169
aS'Niggas'
p170
aS'break'
p171
aS'up'
p172
aS'fights'
p173
asg24
(lp174
g169
ag170
ag171
ag172
ag173
asba(iMeme
Meme
p175
(dp176
g3
(lp177
S'What'
p178
aS'she'
p179
aS"'s"
p180
ag10
asg12
S"What she's a  "
p181
sg14
S' HoE? '
p182
sg16
Vwhat-grinds-my-gears
p183
sg18
(lp184
g178
ag179
ag180
ag10
aS'HoE'
p185
ag36
asg24
(lp186
g185
ag36
asba(iMeme
Meme
p187
(dp188
g3
(lp189
S'yOU'
p190
aS'KNOW'
p191
aS'WHAT'
p192
aS'REALLY'
p193
aS'GRINDS'
p194
aS'MY'
p195
aS'GEARS'
p196
ag36
asg12
S'yOU KNOW WHAT REALLY GRINDS MY GEARS? '
p197
sg14
S' when young girls posts their naked bodies on the internet for free. you think its "fun" and "adventurous" now but in 15 years when your kid finds it on here somewhere because once it goes up it doesn\'t come down. other people download it and it never goes '
p198
sg16
Vwhat-grinds-my-gears
p199
sg18
(lp200
g190
ag191
ag192
ag193
ag194
ag195
ag196
ag36
aS'when'
p201
aS'young'
p202
aS'girls'
p203
aS'posts'
p204
aS'their'
p205
aS'naked'
p206
aS'bodies'
p207
aS'on'
p208
aS'the'
p209
aS'internet'
p210
aS'for'
p211
aS'free'
p212
ag73
aS'you'
p213
aS'think'
p214
aS'its'
p215
aS'``'
p216
aS'fun'
p217
aS"''"
p218
aS'and'
p219
aS'``'
p220
aS'adventurous'
p221
aS"''"
p222
aS'now'
p223
aS'but'
p224
aS'in'
p225
aS'15'
p226
aS'years'
p227
aS'when'
p228
aS'your'
p229
aS'kid'
p230
aS'finds'
p231
aS'it'
p232
aS'on'
p233
aS'here'
p234
aS'somewhere'
p235
aS'because'
p236
aS'once'
p237
aS'it'
p238
aS'goes'
p239
aS'up'
p240
aS'it'
p241
aS'does'
p242
aS"n't"
p243
aS'come'
p244
aS'down'
p245
ag73
aS'other'
p246
aS'people'
p247
aS'download'
p248
aS'it'
p249
aS'and'
p250
aS'it'
p251
aS'never'
p252
aS'goes'
p253
asg24
(lp254
g201
ag202
ag203
ag204
ag205
ag206
ag207
ag208
ag209
ag210
ag211
ag212
ag73
ag213
ag214
ag215
ag216
ag217
ag218
ag219
ag220
ag221
ag222
ag223
ag224
ag225
ag226
ag227
ag228
ag229
ag230
ag231
ag232
ag233
ag234
ag235
ag236
ag237
ag238
ag239
ag240
ag241
ag242
ag243
ag244
ag245
ag73
ag246
ag247
ag248
ag249
ag250
ag251
ag252
ag253
asba(iMeme
Meme
p255
(dp256
g3
(lp257
S'yOU'
p258
aS'KNOW'
p259
aS'WHAT'
p260
aS'REALLY'
p261
aS'GRINDS'
p262
aS'MY'
p263
aS'GEARS'
p264
ag36
asg12
S'yOU KNOW WHAT REALLY GRINDS MY GEARS? '
p265
sg14
S' WHEN IDIOTS USE THE INTERNET AS A SOAPBOX AND THEN COMPLAIN when people see their "private Stuff". If its private keep it under your bed and lock it,  '
p266
sg16
Vwhat-grinds-my-gears
p267
sg18
(lp268
g258
ag259
ag260
ag261
ag262
ag263
ag264
ag36
aS'WHEN'
p269
aS'IDIOTS'
p270
aS'USE'
p271
aS'THE'
p272
aS'INTERNET'
p273
aS'AS'
p274
aS'A'
p275
aS'SOAPBOX'
p276
aS'AND'
p277
aS'THEN'
p278
aS'COMPLAIN'
p279
aS'when'
p280
aS'people'
p281
aS'see'
p282
aS'their'
p283
aS'``'
p284
aS'private'
p285
aS'Stuff'
p286
aS"''"
p287
ag73
aS'If'
p288
aS'its'
p289
aS'private'
p290
aS'keep'
p291
aS'it'
p292
aS'under'
p293
aS'your'
p294
aS'bed'
p295
aS'and'
p296
aS'lock'
p297
aS'it'
p298
ag71
asg24
(lp299
g269
ag270
ag271
ag272
ag273
ag274
ag275
ag276
ag277
ag278
ag279
ag280
ag281
ag282
ag283
ag284
ag285
ag286
ag287
ag73
ag288
ag289
ag290
ag291
ag292
ag293
ag294
ag295
ag296
ag297
ag298
ag71
asba(iMeme
Meme
p300
(dp301
g3
(lp302
S'you'
p303
aS'know'
p304
aS'what'
p305
aS'really'
p306
aS'grings'
p307
aS'my'
p308
aS'gears'
p309
ag36
asg12
S'you know what really grings my gears? '
p310
sg14
S' dirty toilet water all over the floor that is now on my shorts '
p311
sg16
Vwhat-grinds-my-gears
p312
sg18
(lp313
g303
ag304
ag305
ag306
ag307
ag308
ag309
ag36
aS'dirty'
p314
aS'toilet'
p315
aS'water'
p316
aS'all'
p317
aS'over'
p318
aS'the'
p319
aS'floor'
p320
aS'that'
p321
aS'is'
p322
aS'now'
p323
aS'on'
p324
aS'my'
p325
aS'shorts'
p326
asg24
(lp327
g314
ag315
ag316
ag317
ag318
ag319
ag320
ag321
ag322
ag323
ag324
ag325
ag326
asba(iMeme
Meme
p328
(dp329
g3
(lp330
S'you'
p331
aS'know'
p332
aS'what'
p333
aS'really'
p334
aS'grinds'
p335
aS'my'
p336
aS'gears'
p337
asg12
S'you know what really grinds my gears '
p338
sg14
S'  '
p339
sg16
Vwhat-grinds-my-gears
p340
sg18
(lp341
g331
ag332
ag333
ag334
ag335
ag336
ag337
asg24
(lp342
sba(iMeme
Meme
p343
(dp344
g3
(lp345
sg12
S' '
p346
sg14
S' When Taylor blew it. '
p347
sg16
Vwhat-grinds-my-gears
p348
sg18
(lp349
S'When'
p350
aS'Taylor'
p351
aS'blew'
p352
aS'it'
p353
ag73
asg24
(lp354
g350
ag351
ag352
ag353
ag73
asba(iMeme
Meme
p355
(dp356
g3
(lp357
S'You'
p358
aS'know'
p359
aS'what'
p360
aS'really'
p361
aS'grinds'
p362
aS'my'
p363
aS'gears'
p364
asg12
S'You know what really grinds my gears '
p365
sg14
S' when someone is driving and they dont know how to use the clutch '
p366
sg16
Vwhat-grinds-my-gears
p367
sg18
(lp368
g358
ag359
ag360
ag361
ag362
ag363
ag364
aS'when'
p369
aS'someone'
p370
aS'is'
p371
aS'driving'
p372
aS'and'
p373
aS'they'
p374
aS'dont'
p375
aS'know'
p376
aS'how'
p377
aS'to'
p378
aS'use'
p379
aS'the'
p380
aS'clutch'
p381
asg24
(lp382
g369
ag370
ag371
ag372
ag373
ag374
ag375
ag376
ag377
ag378
ag379
ag380
ag381
asba(iMeme
Meme
p383
(dp384
g3
(lp385
S'you'
p386
aS'know'
p387
aS'what'
p388
aS'realy'
p389
aS'grinds'
p390
aS'my'
p391
aS'gears'
p392
asg12
S'you know what realy grinds my gears '
p393
sg14
S' the person who keeps on posting the same (copyed) memes '
p394
sg16
Vwhat-grinds-my-gears
p395
sg18
(lp396
g386
ag387
ag388
ag389
ag390
ag391
ag392
aS'the'
p397
aS'person'
p398
aS'who'
p399
aS'keeps'
p400
aS'on'
p401
aS'posting'
p402
aS'the'
p403
aS'same'
p404
aS'('
p405
aS'copyed'
p406
aS')'
p407
aS'memes'
p408
asg24
(lp409
g397
ag398
ag399
ag400
ag401
ag402
ag403
ag404
ag405
ag406
ag407
ag408
asba(iMeme
Meme
p410
(dp411
g3
(lp412
S'You'
p413
aS'know'
p414
aS'what'
p415
aS'really'
p416
aS'grinds'
p417
aS'my'
p418
aS'gears'
p419
ag36
asg12
S'You know what really grinds my gears? '
p420
sg14
S' The searchbox that guesses what I want to search for and then searches for the top result instead of what I had written. '
p421
sg16
Vwhat-grinds-my-gears
p422
sg18
(lp423
g413
ag414
ag415
ag416
ag417
ag418
ag419
ag36
aS'The'
p424
aS'searchbox'
p425
aS'that'
p426
aS'guesses'
p427
aS'what'
p428
ag119
aS'want'
p429
aS'to'
p430
aS'search'
p431
aS'for'
p432
aS'and'
p433
aS'then'
p434
aS'searches'
p435
aS'for'
p436
aS'the'
p437
aS'top'
p438
aS'result'
p439
aS'instead'
p440
aS'of'
p441
aS'what'
p442
ag119
aS'had'
p443
aS'written'
p444
ag73
asg24
(lp445
g424
ag425
ag426
ag427
ag428
ag119
ag429
ag430
ag431
ag432
ag433
ag434
ag435
ag436
ag437
ag438
ag439
ag440
ag441
ag442
ag119
ag443
ag444
ag73
asba(iMeme
Meme
p446
(dp447
g3
(lp448
S'you'
p449
aS'know'
p450
aS'what'
p451
aS'really'
p452
aS'grinds'
p453
aS'my'
p454
aS'gears'
p455
ag36
asg12
S'you know what really grinds my gears? '
p456
sg14
S' people calling the public moronic for this result instead of asking what we could have done better '
p457
sg16
Vwhat-grinds-my-gears
p458
sg18
(lp459
g449
ag450
ag451
ag452
ag453
ag454
ag455
ag36
aS'people'
p460
aS'calling'
p461
aS'the'
p462
aS'public'
p463
aS'moronic'
p464
aS'for'
p465
aS'this'
p466
aS'result'
p467
aS'instead'
p468
aS'of'
p469
aS'asking'
p470
aS'what'
p471
aS'we'
p472
aS'could'
p473
aS'have'
p474
aS'done'
p475
aS'better'
p476
asg24
(lp477
g460
ag461
ag462
ag463
ag464
ag465
ag466
ag467
ag468
ag469
ag470
ag471
ag472
ag473
ag474
ag475
ag476
asba(iMeme
Meme
p478
(dp479
g3
(lp480
S'you'
p481
aS'know'
p482
aS'what'
p483
aS'really'
p484
aS'grinds'
p485
aS'my'
p486
aS'gears'
p487
asg12
S'you know what really grinds my gears '
p488
sg14
S" when buck can't make a meme "
p489
sg16
Vwhat-grinds-my-gears
p490
sg18
(lp491
g481
ag482
ag483
ag484
ag485
ag486
ag487
aS'when'
p492
aS'buck'
p493
aS'ca'
p494
aS"n't"
p495
aS'make'
p496
ag10
aS'meme'
p497
asg24
(lp498
g492
ag493
ag494
ag495
ag496
ag10
ag497
asba(iMeme
Meme
p499
(dp500
g3
(lp501
S'You'
p502
aS'know'
p503
aS'what'
p504
aS'really'
p505
aS'grinds'
p506
aS'my'
p507
aS'gears'
p508
ag36
asg12
S'You know what really grinds my gears? '
p509
sg14
S' When teenagers say they are "ripped" but actually are just anorexic and don\'t even work out. '
p510
sg16
Vwhat-grinds-my-gears
p511
sg18
(lp512
g502
ag503
ag504
ag505
ag506
ag507
ag508
ag36
aS'When'
p513
aS'teenagers'
p514
aS'say'
p515
aS'they'
p516
aS'are'
p517
aS'``'
p518
aS'ripped'
p519
aS"''"
p520
aS'but'
p521
aS'actually'
p522
aS'are'
p523
aS'just'
p524
aS'anorexic'
p525
aS'and'
p526
aS'do'
p527
aS"n't"
p528
aS'even'
p529
aS'work'
p530
aS'out'
p531
ag73
asg24
(lp532
g513
ag514
ag515
ag516
ag517
ag518
ag519
ag520
ag521
ag522
ag523
ag524
ag525
ag526
ag527
ag528
ag529
ag530
ag531
ag73
asba(iMeme
Meme
p533
(dp534
g3
(lp535
S'You'
p536
aS'know'
p537
aS'what'
p538
aS'really'
p539
aS'grinds'
p540
aS'my'
p541
aS'gears'
p542
ag36
asg12
S'You know what really grinds my gears? '
p543
sg14
S' When people complain that a free iPhone game has in'
p544
sg16
Vwhat-grinds-my-gears
p545
sg18
(lp546
g536
ag537
ag538
ag539
ag540
ag541
ag542
ag36
aS'When'
p547
aS'people'
p548
aS'complain'
p549
aS'that'
p550
ag10
aS'free'
p551
aS'iPhone'
p552
aS'game'
p553
aS'has'
p554
aS'in'
p555
asg24
(lp556
g547
ag548
ag549
ag550
ag10
ag551
ag552
ag553
ag554
ag555
asba(iMeme
Meme
p557
(dp558
g3
(lp559
S'You'
p560
aS'know'
p561
aS'what'
p562
aS'grinds'
p563
aS'my'
p564
aS'gears'
p565
ag36
asg12
S'You know what grinds my gears? '
p566
sg14
S' Guys who cancel lunch plans. '
p567
sg16
Vwhat-grinds-my-gears
p568
sg18
(lp569
g560
ag561
ag562
ag563
ag564
ag565
ag36
aS'Guys'
p570
aS'who'
p571
aS'cancel'
p572
aS'lunch'
p573
aS'plans'
p574
ag73
asg24
(lp575
g570
ag571
ag572
ag573
ag574
ag73
asba(iMeme
Meme
p576
(dp577
g3
(lp578
S'You'
p579
aS'know'
p580
aS'what'
p581
aS'really'
p582
aS'grinds'
p583
aS'my'
p584
aS'gears'
p585
asg12
S'You know what really grinds my gears '
p586
sg14
S" is when somebody doesn't lock the door when using a public restroom "
p587
sg16
Vwhat-grinds-my-gears
p588
sg18
(lp589
g579
ag580
ag581
ag582
ag583
ag584
ag585
aS'is'
p590
aS'when'
p591
aS'somebody'
p592
aS'does'
p593
aS"n't"
p594
aS'lock'
p595
aS'the'
p596
aS'door'
p597
aS'when'
p598
aS'using'
p599
ag10
aS'public'
p600
aS'restroom'
p601
asg24
(lp602
g590
ag591
ag592
ag593
ag594
ag595
ag596
ag597
ag598
ag599
ag10
ag600
ag601
asba(iMeme
Meme
p603
(dp604
g3
(lp605
S'you'
p606
aS'know'
p607
aS'what'
p608
aS'really'
p609
aS'grinds'
p610
aS'my'
p611
aS'gears'
p612
ag36
asg12
S'you know what really grinds my gears? '
p613
sg14
S' people trying to buy $20 worth of energy drinks with food stamps and then drive off in their New dodge ram  '
p614
sg16
Vwhat-grinds-my-gears
p615
sg18
(lp616
g606
ag607
ag608
ag609
ag610
ag611
ag612
ag36
aS'people'
p617
aS'trying'
p618
aS'to'
p619
aS'buy'
p620
aS'$'
p621
aS'20'
p622
aS'worth'
p623
aS'of'
p624
aS'energy'
p625
aS'drinks'
p626
aS'with'
p627
aS'food'
p628
aS'stamps'
p629
aS'and'
p630
aS'then'
p631
aS'drive'
p632
aS'off'
p633
aS'in'
p634
aS'their'
p635
aS'New'
p636
aS'dodge'
p637
aS'ram'
p638
asg24
(lp639
g617
ag618
ag619
ag620
ag621
ag622
ag623
ag624
ag625
ag626
ag627
ag628
ag629
ag630
ag631
ag632
ag633
ag634
ag635
ag636
ag637
ag638
asba(iMeme
Meme
p640
(dp641
g3
(lp642
S'Do'
p643
aS'you'
p644
aS'know'
p645
aS'what'
p646
aS'grinds'
p647
aS'my'
p648
aS'gears'
p649
ag36
asg12
S'Do you know what grinds my gears? '
p650
sg14
S' You Lewis. You and twitches. '
p651
sg16
Vwhat-grinds-my-gears
p652
sg18
(lp653
g643
ag644
ag645
ag646
ag647
ag648
ag649
ag36
aS'You'
p654
aS'Lewis'
p655
ag73
aS'You'
p656
aS'and'
p657
aS'twitches'
p658
ag73
asg24
(lp659
g654
ag655
ag73
ag656
ag657
ag658
ag73
asba(iMeme
Meme
p660
(dp661
g3
(lp662
S'you'
p663
aS'know'
p664
aS'what'
p665
aS'really'
p666
aS'grinds'
p667
aS'my'
p668
aS'gears'
p669
ag36
asg12
S'you know what really grinds my gears? '
p670
sg14
S' when people disguise R/Atheism posts in other subreddits  '
p671
sg16
Vwhat-grinds-my-gears
p672
sg18
(lp673
g663
ag664
ag665
ag666
ag667
ag668
ag669
ag36
aS'when'
p674
aS'people'
p675
aS'disguise'
p676
aS'R/Atheism'
p677
aS'posts'
p678
aS'in'
p679
aS'other'
p680
aS'subreddits'
p681
asg24
(lp682
g674
ag675
ag676
ag677
ag678
ag679
ag680
ag681
asba(iMeme
Meme
p683
(dp684
g3
(lp685
S'You'
p686
aS'know'
p687
aS'what'
p688
aS'really'
p689
aS'grinds'
p690
aS'my'
p691
aS'gears'
p692
ag36
asg12
S'You know what really grinds my gears? '
p693
sg14
S' When people think they know what my pet is feeling better than I do. '
p694
sg16
Vwhat-grinds-my-gears
p695
sg18
(lp696
g686
ag687
ag688
ag689
ag690
ag691
ag692
ag36
aS'When'
p697
aS'people'
p698
aS'think'
p699
aS'they'
p700
aS'know'
p701
aS'what'
p702
aS'my'
p703
aS'pet'
p704
aS'is'
p705
aS'feeling'
p706
aS'better'
p707
aS'than'
p708
ag119
aS'do'
p709
ag73
asg24
(lp710
g697
ag698
ag699
ag700
ag701
ag702
ag703
ag704
ag705
ag706
ag707
ag708
ag119
ag709
ag73
asba(iMeme
Meme
p711
(dp712
g3
(lp713
S'You'
p714
aS'know'
p715
aS'what'
p716
aS'really'
p717
aS'grinds'
p718
aS'my'
p719
aS'gears'
p720
ag36
asg12
S'You know what really grinds my gears? '
p721
sg14
S' When I let someone in my lane in traffic and they don\'t give me the "thanks" hand motion '
p722
sg16
Vwhat-grinds-my-gears
p723
sg18
(lp724
g714
ag715
ag716
ag717
ag718
ag719
ag720
ag36
aS'When'
p725
ag119
aS'let'
p726
aS'someone'
p727
aS'in'
p728
aS'my'
p729
aS'lane'
p730
aS'in'
p731
aS'traffic'
p732
aS'and'
p733
aS'they'
p734
aS'do'
p735
aS"n't"
p736
aS'give'
p737
aS'me'
p738
aS'the'
p739
aS'``'
p740
aS'thanks'
p741
aS"''"
p742
aS'hand'
p743
aS'motion'
p744
asg24
(lp745
g725
ag119
ag726
ag727
ag728
ag729
ag730
ag731
ag732
ag733
ag734
ag735
ag736
ag737
ag738
ag739
ag740
ag741
ag742
ag743
ag744
asba(iMeme
Meme
p746
(dp747
g3
(lp748
S'you'
p749
aS"'ve"
p750
aS'come'
p751
aS'again'
p752
asg12
S"you've come again "
p753
sg14
S' with your chat '
p754
sg16
Vwhat-grinds-my-gears
p755
sg18
(lp756
g749
ag750
ag751
ag752
aS'with'
p757
aS'your'
p758
aS'chat'
p759
asg24
(lp760
g757
ag758
ag759
asba(iMeme
Meme
p761
(dp762
g3
(lp763
S'You'
p764
aS'know'
p765
aS'what'
p766
aS'really'
p767
aS'grinds'
p768
aS'my'
p769
aS'gears'
p770
asg12
S'You know what really grinds my gears '
p771
sg14
S' If Mike Paulercio doesnt make the baseball team in 2014 '
p772
sg16
Vwhat-grinds-my-gears
p773
sg18
(lp774
g764
ag765
ag766
ag767
ag768
ag769
ag770
aS'If'
p775
aS'Mike'
p776
aS'Paulercio'
p777
aS'doesnt'
p778
aS'make'
p779
aS'the'
p780
aS'baseball'
p781
aS'team'
p782
aS'in'
p783
aS'2014'
p784
asg24
(lp785
g775
ag776
ag777
ag778
ag779
ag780
ag781
ag782
ag783
ag784
asba(iMeme
Meme
p786
(dp787
g3
(lp788
S'you'
p789
aS'know'
p790
aS'what'
p791
aS'really'
p792
aS'grinds'
p793
aS'my'
p794
aS'gears'
p795
ag36
asg12
S'you know what really grinds my gears? '
p796
sg14
S' engagement photos '
p797
sg16
Vwhat-grinds-my-gears
p798
sg18
(lp799
g789
ag790
ag791
ag792
ag793
ag794
ag795
ag36
aS'engagement'
p800
aS'photos'
p801
asg24
(lp802
g800
ag801
asba(iMeme
Meme
p803
(dp804
g3
(lp805
S'You'
p806
aS'know'
p807
aS'what'
p808
aS'Really'
p809
aS'Grinds'
p810
aS'my'
p811
aS'Gears'
p812
ag36
asg12
S'You know what Really Grinds my Gears? '
p813
sg14
S' Primm talking to his alt on a thread. '
p814
sg16
Vwhat-grinds-my-gears
p815
sg18
(lp816
g806
ag807
ag808
ag809
ag810
ag811
ag812
ag36
aS'Primm'
p817
aS'talking'
p818
aS'to'
p819
aS'his'
p820
aS'alt'
p821
aS'on'
p822
ag10
aS'thread'
p823
ag73
asg24
(lp824
g817
ag818
ag819
ag820
ag821
ag822
ag10
ag823
ag73
asba(iMeme
Meme
p825
(dp826
g3
(lp827
g119
aS'f'
p828
aS':'
p829
ag829
ag829
aS'ed'
p830
aS'your'
p831
aS'mom'
p832
asg12
S'I f:::ed your mom  '
p833
sg14
S" And you didn't do anything  "
p834
sg16
Vwhat-grinds-my-gears
p835
sg18
(lp836
g119
ag828
ag829
ag829
ag829
ag830
ag831
ag832
aS'And'
p837
aS'you'
p838
aS'did'
p839
aS"n't"
p840
aS'do'
p841
aS'anything'
p842
asg24
(lp843
g837
ag838
ag839
ag840
ag841
ag842
asba(iMeme
Meme
p844
(dp845
g3
(lp846
S'You'
p847
aS'know'
p848
aS'what'
p849
aS'really'
p850
aS'grind'
p851
aS"'s"
p852
aS'my'
p853
aS'gears'
p854
ag36
asg12
S"You know what really grind's my gears? "
p855
sg14
S' no spellin english way of the right. and irony. '
p856
sg16
Vwhat-grinds-my-gears
p857
sg18
(lp858
g847
ag848
ag849
ag850
ag851
ag852
ag853
ag854
ag36
aS'no'
p859
aS'spellin'
p860
aS'english'
p861
aS'way'
p862
aS'of'
p863
aS'the'
p864
aS'right'
p865
ag73
aS'and'
p866
aS'irony'
p867
ag73
asg24
(lp868
g859
ag860
ag861
ag862
ag863
ag864
ag865
ag73
ag866
ag867
ag73
asba(iMeme
Meme
p869
(dp870
g3
(lp871
S'You'
p872
aS'knoW'
p873
aS'what'
p874
aS'grinds'
p875
aS'my'
p876
aS'gears'
p877
asg12
S'You knoW what grinds my gears '
p878
sg14
S' When the refs call a bad penalty '
p879
sg16
Vwhat-grinds-my-gears
p880
sg18
(lp881
g872
ag873
ag874
ag875
ag876
ag877
aS'When'
p882
aS'the'
p883
aS'refs'
p884
aS'call'
p885
ag10
aS'bad'
p886
aS'penalty'
p887
asg24
(lp888
g882
ag883
ag884
ag885
ag10
ag886
ag887
asba(iMeme
Meme
p889
(dp890
g3
(lp891
S'you'
p892
aS'know'
p893
aS'what'
p894
aS'really'
p895
aS'grinds'
p896
aS'my'
p897
aS'gears'
p898
asg12
S'you know what really grinds my gears '
p899
sg14
S' men that think all women want is sex '
p900
sg16
Vwhat-grinds-my-gears
p901
sg18
(lp902
g892
ag893
ag894
ag895
ag896
ag897
ag898
aS'men'
p903
aS'that'
p904
aS'think'
p905
aS'all'
p906
aS'women'
p907
aS'want'
p908
aS'is'
p909
aS'sex'
p910
asg24
(lp911
g903
ag904
ag905
ag906
ag907
ag908
ag909
ag910
asba(iMeme
Meme
p912
(dp913
g3
(lp914
S'you'
p915
aS'know'
p916
aS'what'
p917
aS'really'
p918
aS'grinds'
p919
aS'my'
p920
aS'gears'
p921
ag36
asg12
S'you know what really grinds my gears? '
p922
sg14
S' when i am shooting someone and they can still knife me '
p923
sg16
Vwhat-grinds-my-gears
p924
sg18
(lp925
g915
ag916
ag917
ag918
ag919
ag920
ag921
ag36
aS'when'
p926
ag93
aS'am'
p927
aS'shooting'
p928
aS'someone'
p929
aS'and'
p930
aS'they'
p931
aS'can'
p932
aS'still'
p933
aS'knife'
p934
aS'me'
p935
asg24
(lp936
g926
ag93
ag927
ag928
ag929
ag930
ag931
ag932
ag933
ag934
ag935
asba(iMeme
Meme
p937
(dp938
g3
(lp939
S'You'
p940
aS'know'
p941
aS'what'
p942
aS'really'
p943
aS'grinds'
p944
aS'my'
p945
aS'gears'
p946
ag36
asg12
S'You know what really grinds my gears? '
p947
sg14
S' That you need to take a shit and you just took a shower '
p948
sg16
Vwhat-grinds-my-gears
p949
sg18
(lp950
g940
ag941
ag942
ag943
ag944
ag945
ag946
ag36
aS'That'
p951
aS'you'
p952
aS'need'
p953
aS'to'
p954
aS'take'
p955
ag10
aS'shit'
p956
aS'and'
p957
aS'you'
p958
aS'just'
p959
aS'took'
p960
ag10
aS'shower'
p961
asg24
(lp962
g951
ag952
ag953
ag954
ag955
ag10
ag956
ag957
ag958
ag959
ag960
ag10
ag961
asba(iMeme
Meme
p963
(dp964
g3
(lp965
g119
aS'swear'
p966
aS'if'
p967
aS'you'
p968
aS'say'
p969
aS'``'
p970
aS'heller'
p971
aS"''"
p972
asg12
S'I swear if you say "heller" '
p973
sg14
S' one m '
p974
sg16
Vwhat-grinds-my-gears
p975
sg18
(lp976
g119
ag966
ag967
ag968
ag969
ag970
ag971
ag972
aS'one'
p977
aS'm'
p978
asg24
(lp979
g977
ag978
asba(iMeme
Meme
p980
(dp981
g3
(lp982
S'Do'
p983
aS'you'
p984
aS'know'
p985
aS'what'
p986
aS'really'
p987
aS'grinds'
p988
aS'my'
p989
aS'gears'
p990
ag36
asg12
S'Do you know what really grinds my gears? '
p991
sg14
S" It's because I have to comply with all the rules like a law"
p992
sg16
Vwhat-grinds-my-gears
p993
sg18
(lp994
g983
ag984
ag985
ag986
ag987
ag988
ag989
ag990
ag36
aS'It'
p995
aS"'s"
p996
aS'because'
p997
ag119
aS'have'
p998
aS'to'
p999
aS'comply'
p1000
aS'with'
p1001
aS'all'
p1002
aS'the'
p1003
aS'rules'
p1004
aS'like'
p1005
ag10
aS'law'
p1006
asg24
(lp1007
g995
ag996
ag997
ag119
ag998
ag999
ag1000
ag1001
ag1002
ag1003
ag1004
ag1005
ag10
ag1006
asba(iMeme
Meme
p1008
(dp1009
g3
(lp1010
S'You'
p1011
aS'know'
p1012
aS'what'
p1013
aS'really'
p1014
aS'grinds'
p1015
aS'my'
p1016
aS'gears'
p1017
ag36
asg12
S'You know what really grinds my gears ? '
p1018
sg14
S" Everything, because i'm always mad "
p1019
sg16
Vwhat-grinds-my-gears
p1020
sg18
(lp1021
g1011
ag1012
ag1013
ag1014
ag1015
ag1016
ag1017
ag36
aS'Everything'
p1022
ag71
aS'because'
p1023
ag93
aS"'m"
p1024
aS'always'
p1025
aS'mad'
p1026
asg24
(lp1027
g1022
ag71
ag1023
ag93
ag1024
ag1025
ag1026
asba(iMeme
Meme
p1028
(dp1029
g3
(lp1030
S'ok'
p1031
aS'lets'
p1032
aS'talk'
p1033
aS'about'
p1034
asg12
S'ok lets talk about  '
p1035
sg14
S' not this crap '
p1036
sg16
Vwhat-grinds-my-gears
p1037
sg18
(lp1038
g1031
ag1032
ag1033
ag1034
aS'not'
p1039
aS'this'
p1040
aS'crap'
p1041
asg24
(lp1042
g1039
ag1040
ag1041
asba(iMeme
Meme
p1043
(dp1044
g3
(lp1045
S'You'
p1046
aS'know'
p1047
aS'what'
p1048
aS'really'
p1049
aS'grinds'
p1050
aS'my'
p1051
aS'gears'
p1052
ag36
asg12
S'You know what really grinds my gears? '
p1053
sg14
S' When people take up the diesel pumps at the gas station and no one else is there. '
p1054
sg16
Vwhat-grinds-my-gears
p1055
sg18
(lp1056
g1046
ag1047
ag1048
ag1049
ag1050
ag1051
ag1052
ag36
aS'When'
p1057
aS'people'
p1058
aS'take'
p1059
aS'up'
p1060
aS'the'
p1061
aS'diesel'
p1062
aS'pumps'
p1063
aS'at'
p1064
aS'the'
p1065
aS'gas'
p1066
aS'station'
p1067
aS'and'
p1068
aS'no'
p1069
aS'one'
p1070
aS'else'
p1071
aS'is'
p1072
aS'there'
p1073
ag73
asg24
(lp1074
g1057
ag1058
ag1059
ag1060
ag1061
ag1062
ag1063
ag1064
ag1065
ag1066
ag1067
ag1068
ag1069
ag1070
ag1071
ag1072
ag1073
ag73
asba(iMeme
Meme
p1075
(dp1076
g3
(lp1077
S'all'
p1078
aS'this'
p1079
aS'flirting'
p1080
aS'for'
p1081
aS'nothing'
p1082
asg12
S'all this flirting for nothing '
p1083
sg14
S' fuck you then '
p1084
sg16
Vwhat-grinds-my-gears
p1085
sg18
(lp1086
g1078
ag1079
ag1080
ag1081
ag1082
aS'fuck'
p1087
aS'you'
p1088
aS'then'
p1089
asg24
(lp1090
g1087
ag1088
ag1089
asba(iMeme
Meme
p1091
(dp1092
g3
(lp1093
S'you'
p1094
aS'know'
p1095
aS'what'
p1096
aS'really'
p1097
aS'grinds'
p1098
aS'my'
p1099
aS'gears'
p1100
asg12
S'you know what really grinds my gears  '
p1101
sg14
S' when a post is on the hot page and trending at the same time  '
p1102
sg16
Vwhat-grinds-my-gears
p1103
sg18
(lp1104
g1094
ag1095
ag1096
ag1097
ag1098
ag1099
ag1100
aS'when'
p1105
ag10
aS'post'
p1106
aS'is'
p1107
aS'on'
p1108
aS'the'
p1109
aS'hot'
p1110
aS'page'
p1111
aS'and'
p1112
aS'trending'
p1113
aS'at'
p1114
aS'the'
p1115
aS'same'
p1116
aS'time'
p1117
asg24
(lp1118
g1105
ag10
ag1106
ag1107
ag1108
ag1109
ag1110
ag1111
ag1112
ag1113
ag1114
ag1115
ag1116
ag1117
asba(iMeme
Meme
p1119
(dp1120
g3
(lp1121
S'noticias'
p1122
aS'de'
p1123
aS'ultima'
p1124
aS'hora'
p1125
asg12
S'noticias de ultima hora '
p1126
sg14
S' moncada anda suelto..  esta tomado.. es loco y peligroo '
p1127
sg16
Vwhat-grinds-my-gears
p1128
sg18
(lp1129
g1122
ag1123
ag1124
ag1125
aS'moncada'
p1130
aS'anda'
p1131
aS'suelto..'
p1132
aS'esta'
p1133
aS'tomado..'
p1134
aS'es'
p1135
aS'loco'
p1136
aS'y'
p1137
aS'peligroo'
p1138
asg24
(lp1139
g1130
ag1131
ag1132
ag1133
ag1134
ag1135
ag1136
ag1137
ag1138
asba(iMeme
Meme
p1140
(dp1141
g3
(lp1142
S'You'
p1143
aS'know'
p1144
aS'what'
p1145
aS'really'
p1146
aS'grinds'
p1147
aS'my'
p1148
aS'gears'
p1149
asg12
S'You know what really grinds my gears '
p1150
sg14
S" is when somebody doesn't lock the door when using the office restroom "
p1151
sg16
Vwhat-grinds-my-gears
p1152
sg18
(lp1153
g1143
ag1144
ag1145
ag1146
ag1147
ag1148
ag1149
aS'is'
p1154
aS'when'
p1155
aS'somebody'
p1156
aS'does'
p1157
aS"n't"
p1158
aS'lock'
p1159
aS'the'
p1160
aS'door'
p1161
aS'when'
p1162
aS'using'
p1163
aS'the'
p1164
aS'office'
p1165
aS'restroom'
p1166
asg24
(lp1167
g1154
ag1155
ag1156
ag1157
ag1158
ag1159
ag1160
ag1161
ag1162
ag1163
ag1164
ag1165
ag1166
asba(iMeme
Meme
p1168
(dp1169
g3
(lp1170
S'You'
p1171
aS'know'
p1172
aS'what'
p1173
aS'really'
p1174
aS'grinds'
p1175
aS'my'
p1176
aS'gears'
p1177
ag36
asg12
S'You know what really grinds my gears ? '
p1178
sg14
S" The fact that I can't make a meme with many likes "
p1179
sg16
Vwhat-grinds-my-gears
p1180
sg18
(lp1181
g1171
ag1172
ag1173
ag1174
ag1175
ag1176
ag1177
ag36
aS'The'
p1182
aS'fact'
p1183
aS'that'
p1184
ag119
aS'ca'
p1185
aS"n't"
p1186
aS'make'
p1187
ag10
aS'meme'
p1188
aS'with'
p1189
aS'many'
p1190
aS'likes'
p1191
asg24
(lp1192
g1182
ag1183
ag1184
ag119
ag1185
ag1186
ag1187
ag10
ag1188
ag1189
ag1190
ag1191
asba(iMeme
Meme
p1193
(dp1194
g3
(lp1195
S'You'
p1196
aS'know'
p1197
aS'what'
p1198
aS'really'
p1199
aS'grinds'
p1200
aS'my'
p1201
aS'gears'
p1202
asg12
S'You know what really grinds my gears '
p1203
sg14
S' when customers make remarks about getting and even number on their check '
p1204
sg16
Vwhat-grinds-my-gears
p1205
sg18
(lp1206
g1196
ag1197
ag1198
ag1199
ag1200
ag1201
ag1202
aS'when'
p1207
aS'customers'
p1208
aS'make'
p1209
aS'remarks'
p1210
aS'about'
p1211
aS'getting'
p1212
aS'and'
p1213
aS'even'
p1214
aS'number'
p1215
aS'on'
p1216
aS'their'
p1217
aS'check'
p1218
asg24
(lp1219
g1207
ag1208
ag1209
ag1210
ag1211
ag1212
ag1213
ag1214
ag1215
ag1216
ag1217
ag1218
asba(iMeme
Meme
p1220
(dp1221
g3
(lp1222
S'when'
p1223
aS'people'
p1224
aS'try'
p1225
aS'to'
p1226
aS'pass'
p1227
aS'off'
p1228
ag10
aS'pdf'
p1229
asg12
S'when people try to pass off a pdf '
p1230
sg14
S' as a ebook '
p1231
sg16
Vwhat-grinds-my-gears
p1232
sg18
(lp1233
g1223
ag1224
ag1225
ag1226
ag1227
ag1228
ag10
ag1229
aS'as'
p1234
ag10
aS'ebook'
p1235
asg24
(lp1236
g1234
ag10
ag1235
asba(iMeme
Meme
p1237
(dp1238
g3
(lp1239
S'You'
p1240
aS'know'
p1241
aS'what'
p1242
aS'really'
p1243
aS'grinds'
p1244
aS'my'
p1245
aS'gears'
p1246
ag36
asg12
S'You know what really grinds my gears? '
p1247
sg14
S" When there isn't anything good in this flashdrive "
p1248
sg16
Vwhat-grinds-my-gears
p1249
sg18
(lp1250
g1240
ag1241
ag1242
ag1243
ag1244
ag1245
ag1246
ag36
aS'When'
p1251
aS'there'
p1252
aS'is'
p1253
aS"n't"
p1254
aS'anything'
p1255
aS'good'
p1256
aS'in'
p1257
aS'this'
p1258
aS'flashdrive'
p1259
asg24
(lp1260
g1251
ag1252
ag1253
ag1254
ag1255
ag1256
ag1257
ag1258
ag1259
asba(iMeme
Meme
p1261
(dp1262
g3
(lp1263
S'You'
p1264
aS'wan'
p1265
aS'na'
p1266
aS'know'
p1267
aS'what'
p1268
aS'really'
p1269
aS'grinds'
p1270
aS'my'
p1271
aS'gears'
p1272
asg12
S'You wanna know what really grinds my gears '
p1273
sg14
S' Being single for over a year. Then out of the blue I have 3 of them wanting me. '
p1274
sg16
Vwhat-grinds-my-gears
p1275
sg18
(lp1276
g1264
ag1265
ag1266
ag1267
ag1268
ag1269
ag1270
ag1271
ag1272
aS'Being'
p1277
aS'single'
p1278
aS'for'
p1279
aS'over'
p1280
ag10
aS'year'
p1281
ag73
aS'Then'
p1282
aS'out'
p1283
aS'of'
p1284
aS'the'
p1285
aS'blue'
p1286
ag119
aS'have'
p1287
aS'3'
p1288
aS'of'
p1289
aS'them'
p1290
aS'wanting'
p1291
aS'me'
p1292
ag73
asg24
(lp1293
g1277
ag1278
ag1279
ag1280
ag10
ag1281
ag73
ag1282
ag1283
ag1284
ag1285
ag1286
ag119
ag1287
ag1288
ag1289
ag1290
ag1291
ag1292
ag73
asba(iMeme
Meme
p1294
(dp1295
g3
(lp1296
S'You'
p1297
aS'know'
p1298
aS'what'
p1299
aS'really'
p1300
aS'grinds'
p1301
aS'my'
p1302
aS'gears'
p1303
ag36
asg12
S'You know what really grinds my gears? '
p1304
sg14
S' When ppl go fast when the speed limit is slow, but then go slow when the speed limit is fast '
p1305
sg16
Vwhat-grinds-my-gears
p1306
sg18
(lp1307
g1297
ag1298
ag1299
ag1300
ag1301
ag1302
ag1303
ag36
aS'When'
p1308
aS'ppl'
p1309
aS'go'
p1310
aS'fast'
p1311
aS'when'
p1312
aS'the'
p1313
aS'speed'
p1314
aS'limit'
p1315
aS'is'
p1316
aS'slow'
p1317
ag71
aS'but'
p1318
aS'then'
p1319
aS'go'
p1320
aS'slow'
p1321
aS'when'
p1322
aS'the'
p1323
aS'speed'
p1324
aS'limit'
p1325
aS'is'
p1326
aS'fast'
p1327
asg24
(lp1328
g1308
ag1309
ag1310
ag1311
ag1312
ag1313
ag1314
ag1315
ag1316
ag1317
ag71
ag1318
ag1319
ag1320
ag1321
ag1322
ag1323
ag1324
ag1325
ag1326
ag1327
asba(iMeme
Meme
p1329
(dp1330
g3
(lp1331
S'You'
p1332
aS'know'
p1333
aS'what'
p1334
aS'really'
p1335
aS'grinds'
p1336
aS'my'
p1337
aS'gears'
p1338
ag36
asg12
S'You know what really grinds my gears? '
p1339
sg14
S' Lads who watch lesbian porn, yet complain that being gay is "wrong" '
p1340
sg16
Vwhat-grinds-my-gears
p1341
sg18
(lp1342
g1332
ag1333
ag1334
ag1335
ag1336
ag1337
ag1338
ag36
aS'Lads'
p1343
aS'who'
p1344
aS'watch'
p1345
aS'lesbian'
p1346
aS'porn'
p1347
ag71
aS'yet'
p1348
aS'complain'
p1349
aS'that'
p1350
aS'being'
p1351
aS'gay'
p1352
aS'is'
p1353
aS'``'
p1354
aS'wrong'
p1355
aS"''"
p1356
asg24
(lp1357
g1343
ag1344
ag1345
ag1346
ag1347
ag71
ag1348
ag1349
ag1350
ag1351
ag1352
ag1353
ag1354
ag1355
ag1356
asba(iMeme
Meme
p1358
(dp1359
g3
(lp1360
S'You'
p1361
aS'know'
p1362
aS'what'
p1363
aS'really'
p1364
aS'grinds'
p1365
aS'my'
p1366
aS'gears'
p1367
ag36
asg12
S'You know what really grinds my gears? '
p1368
sg14
S' When people walk diagonally across the parking lot '
p1369
sg16
Vwhat-grinds-my-gears
p1370
sg18
(lp1371
g1361
ag1362
ag1363
ag1364
ag1365
ag1366
ag1367
ag36
aS'When'
p1372
aS'people'
p1373
aS'walk'
p1374
aS'diagonally'
p1375
aS'across'
p1376
aS'the'
p1377
aS'parking'
p1378
aS'lot'
p1379
asg24
(lp1380
g1372
ag1373
ag1374
ag1375
ag1376
ag1377
ag1378
ag1379
asba(iMeme
Meme
p1381
(dp1382
g3
(lp1383
S'You'
p1384
aS'know'
p1385
aS'what'
p1386
aS'really'
p1387
aS'grinds'
p1388
aS'my'
p1389
aS'gears'
p1390
ag36
asg12
S'You know what really grinds my gears? '
p1391
sg14
S" When people think they are cool when they haven't gone to the school store yet "
p1392
sg16
Vwhat-grinds-my-gears
p1393
sg18
(lp1394
g1384
ag1385
ag1386
ag1387
ag1388
ag1389
ag1390
ag36
aS'When'
p1395
aS'people'
p1396
aS'think'
p1397
aS'they'
p1398
aS'are'
p1399
aS'cool'
p1400
aS'when'
p1401
aS'they'
p1402
aS'have'
p1403
aS"n't"
p1404
aS'gone'
p1405
aS'to'
p1406
aS'the'
p1407
aS'school'
p1408
aS'store'
p1409
aS'yet'
p1410
asg24
(lp1411
g1395
ag1396
ag1397
ag1398
ag1399
ag1400
ag1401
ag1402
ag1403
ag1404
ag1405
ag1406
ag1407
ag1408
ag1409
ag1410
asba(iMeme
Meme
p1412
(dp1413
g3
(lp1414
S'you'
p1415
aS'know'
p1416
aS'what'
p1417
aS'really'
p1418
aS'grinds'
p1419
aS'my'
p1420
aS'gears'
p1421
ag36
asg12
S'you know what really grinds my gears? '
p1422
sg14
S' that people think the Joker says "nobody bats an eye" '
p1423
sg16
Vwhat-grinds-my-gears
p1424
sg18
(lp1425
g1415
ag1416
ag1417
ag1418
ag1419
ag1420
ag1421
ag36
aS'that'
p1426
aS'people'
p1427
aS'think'
p1428
aS'the'
p1429
aS'Joker'
p1430
aS'says'
p1431
aS'``'
p1432
aS'nobody'
p1433
aS'bats'
p1434
aS'an'
p1435
aS'eye'
p1436
aS"''"
p1437
asg24
(lp1438
g1426
ag1427
ag1428
ag1429
ag1430
ag1431
ag1432
ag1433
ag1434
ag1435
ag1436
ag1437
asba(iMeme
Meme
p1439
(dp1440
g3
(lp1441
S'You'
p1442
aS'know'
p1443
aS'what'
p1444
aS'really'
p1445
aS'grinds'
p1446
aS'my'
p1447
aS'gears'
p1448
ag36
asg12
S'You know what really grinds my gears? '
p1449
sg14
S' When random girls on twitter send out their amazon wish list  '
p1450
sg16
Vwhat-grinds-my-gears
p1451
sg18
(lp1452
g1442
ag1443
ag1444
ag1445
ag1446
ag1447
ag1448
ag36
aS'When'
p1453
aS'random'
p1454
aS'girls'
p1455
aS'on'
p1456
aS'twitter'
p1457
aS'send'
p1458
aS'out'
p1459
aS'their'
p1460
aS'amazon'
p1461
aS'wish'
p1462
aS'list'
p1463
asg24
(lp1464
g1453
ag1454
ag1455
ag1456
ag1457
ag1458
ag1459
ag1460
ag1461
ag1462
ag1463
asba(iMeme
Meme
p1465
(dp1466
g3
(lp1467
S'This'
p1468
aS'just'
p1469
aS'in'
p1470
asg12
S'This just in '
p1471
sg14
S" you're a faggot "
p1472
sg16
Vwhat-grinds-my-gears
p1473
sg18
(lp1474
g1468
ag1469
ag1470
aS'you'
p1475
aS"'re"
p1476
ag10
aS'faggot'
p1477
asg24
(lp1478
g1475
ag1476
ag10
ag1477
asba(iMeme
Meme
p1479
(dp1480
g3
(lp1481
S'You'
p1482
aS'know'
p1483
aS'what'
p1484
aS'really'
p1485
aS'grinds'
p1486
aS'my'
p1487
aS'gears'
p1488
ag36
asg12
S'You know what really grinds my gears? '
p1489
sg14
S' When redditors reply to comments with "this." '
p1490
sg16
Vwhat-grinds-my-gears
p1491
sg18
(lp1492
g1482
ag1483
ag1484
ag1485
ag1486
ag1487
ag1488
ag36
aS'When'
p1493
aS'redditors'
p1494
aS'reply'
p1495
aS'to'
p1496
aS'comments'
p1497
aS'with'
p1498
aS'``'
p1499
aS'this'
p1500
ag73
aS"''"
p1501
asg24
(lp1502
g1493
ag1494
ag1495
ag1496
ag1497
ag1498
ag1499
ag1500
ag73
ag1501
asba(iMeme
Meme
p1503
(dp1504
g3
(lp1505
S'You'
p1506
aS'know'
p1507
aS'what'
p1508
aS'really'
p1509
aS'grinds'
p1510
aS'my'
p1511
aS'gears'
p1512
ag36
asg12
S'You know what really grinds my gears? '
p1513
sg14
S' The phrase, " Well, if you\'re ever in nantucket..." '
p1514
sg16
Vwhat-grinds-my-gears
p1515
sg18
(lp1516
g1506
ag1507
ag1508
ag1509
ag1510
ag1511
ag1512
ag36
aS'The'
p1517
aS'phrase'
p1518
ag71
aS'``'
p1519
aS'Well'
p1520
ag71
aS'if'
p1521
aS'you'
p1522
aS"'re"
p1523
aS'ever'
p1524
aS'in'
p1525
aS'nantucket'
p1526
aS'...'
p1527
aS"''"
p1528
asg24
(lp1529
g1517
ag1518
ag71
ag1519
ag1520
ag71
ag1521
ag1522
ag1523
ag1524
ag1525
ag1526
ag1527
ag1528
asba(iMeme
Meme
p1530
(dp1531
g3
(lp1532
S'You'
p1533
aS'know'
p1534
aS'what'
p1535
aS'really'
p1536
aS'grinds'
p1537
aS'my'
p1538
aS'gears'
p1539
ag36
asg12
S'You know what really grinds my gears? '
p1540
sg14
S" Actually, nevermind. Don't worry about it. "
p1541
sg16
Vwhat-grinds-my-gears
p1542
sg18
(lp1543
g1533
ag1534
ag1535
ag1536
ag1537
ag1538
ag1539
ag36
aS'Actually'
p1544
ag71
aS'nevermind'
p1545
ag73
aS'Do'
p1546
aS"n't"
p1547
aS'worry'
p1548
aS'about'
p1549
aS'it'
p1550
ag73
asg24
(lp1551
g1544
ag71
ag1545
ag73
ag1546
ag1547
ag1548
ag1549
ag1550
ag73
asba(iMeme
Meme
p1552
(dp1553
g3
(lp1554
S'You'
p1555
aS'know'
p1556
aS'what'
p1557
aS'really'
p1558
aS'grinds'
p1559
aS'my'
p1560
aS'gears'
p1561
asg12
S'You know what really grinds my gears '
p1562
sg14
S' people who use chat rooms to trade nude pics get a fucking life! '
p1563
sg16
Vwhat-grinds-my-gears
p1564
sg18
(lp1565
g1555
ag1556
ag1557
ag1558
ag1559
ag1560
ag1561
aS'people'
p1566
aS'who'
p1567
aS'use'
p1568
aS'chat'
p1569
aS'rooms'
p1570
aS'to'
p1571
aS'trade'
p1572
aS'nude'
p1573
aS'pics'
p1574
aS'get'
p1575
ag10
aS'fucking'
p1576
aS'life'
p1577
ag23
asg24
(lp1578
g1566
ag1567
ag1568
ag1569
ag1570
ag1571
ag1572
ag1573
ag1574
ag1575
ag10
ag1576
ag1577
ag23
asba(iMeme
Meme
p1579
(dp1580
g3
(lp1581
S'you'
p1582
aS'know'
p1583
aS'what'
p1584
aS'really'
p1585
aS'grinds'
p1586
aS'my'
p1587
aS'gears'
p1588
asg12
S'you know what really grinds my gears '
p1589
sg14
S' Engagment photos '
p1590
sg16
Vwhat-grinds-my-gears
p1591
sg18
(lp1592
g1582
ag1583
ag1584
ag1585
ag1586
ag1587
ag1588
aS'Engagment'
p1593
aS'photos'
p1594
asg24
(lp1595
g1593
ag1594
asba(iMeme
Meme
p1596
(dp1597
g3
(lp1598
S'you'
p1599
aS'know'
p1600
aS'what'
p1601
aS'grinds'
p1602
aS'my'
p1603
aS'gears'
p1604
asg12
S'you know what grinds my gears '
p1605
sg14
S' friends who never invite you anywhere so you stuck at home for your whole life '
p1606
sg16
Vwhat-grinds-my-gears
p1607
sg18
(lp1608
g1599
ag1600
ag1601
ag1602
ag1603
ag1604
aS'friends'
p1609
aS'who'
p1610
aS'never'
p1611
aS'invite'
p1612
aS'you'
p1613
aS'anywhere'
p1614
aS'so'
p1615
aS'you'
p1616
aS'stuck'
p1617
aS'at'
p1618
aS'home'
p1619
aS'for'
p1620
aS'your'
p1621
aS'whole'
p1622
aS'life'
p1623
asg24
(lp1624
g1609
ag1610
ag1611
ag1612
ag1613
ag1614
ag1615
ag1616
ag1617
ag1618
ag1619
ag1620
ag1621
ag1622
ag1623
asba(iMeme
Meme
p1625
(dp1626
g3
(lp1627
S'You'
p1628
aS'know'
p1629
aS'what'
p1630
aS'grinds'
p1631
aS'my'
p1632
aS'gears'
p1633
ag36
asg12
S'You know what grinds my gears? '
p1634
sg14
S" 9gagers are already scum enough to take our stuff, but they don't even bother to change the title "
p1635
sg16
Vwhat-grinds-my-gears
p1636
sg18
(lp1637
g1628
ag1629
ag1630
ag1631
ag1632
ag1633
ag36
aS'9gagers'
p1638
aS'are'
p1639
aS'already'
p1640
aS'scum'
p1641
aS'enough'
p1642
aS'to'
p1643
aS'take'
p1644
aS'our'
p1645
aS'stuff'
p1646
ag71
aS'but'
p1647
aS'they'
p1648
aS'do'
p1649
aS"n't"
p1650
aS'even'
p1651
aS'bother'
p1652
aS'to'
p1653
aS'change'
p1654
aS'the'
p1655
aS'title'
p1656
asg24
(lp1657
g1638
ag1639
ag1640
ag1641
ag1642
ag1643
ag1644
ag1645
ag1646
ag71
ag1647
ag1648
ag1649
ag1650
ag1651
ag1652
ag1653
ag1654
ag1655
ag1656
asba(iMeme
Meme
p1658
(dp1659
g3
(lp1660
S'know'
p1661
aS'what'
p1662
aS'grinds'
p1663
aS'my'
p1664
aS'gears'
p1665
ag36
asg12
S'know what grinds my gears? '
p1666
sg14
S' the fact that " 9gagers " is considered different from people here '
p1667
sg16
Vwhat-grinds-my-gears
p1668
sg18
(lp1669
g1661
ag1662
ag1663
ag1664
ag1665
ag36
aS'the'
p1670
aS'fact'
p1671
aS'that'
p1672
aS'``'
p1673
aS'9gagers'
p1674
aS'``'
p1675
aS'is'
p1676
aS'considered'
p1677
aS'different'
p1678
aS'from'
p1679
aS'people'
p1680
aS'here'
p1681
asg24
(lp1682
g1670
ag1671
ag1672
ag1673
ag1674
ag1675
ag1676
ag1677
ag1678
ag1679
ag1680
ag1681
asba(iMeme
Meme
p1683
(dp1684
g3
(lp1685
S'You'
p1686
aS'know'
p1687
aS'what'
p1688
aS'grinds'
p1689
aS'my'
p1690
aS'gears'
p1691
ag36
asg12
S'You know what grinds my gears? '
p1692
sg14
S' EMILY '
p1693
sg16
Vwhat-grinds-my-gears
p1694
sg18
(lp1695
g1686
ag1687
ag1688
ag1689
ag1690
ag1691
ag36
aS'EMILY'
p1696
asg24
(lp1697
g1696
asba(iMeme
Meme
p1698
(dp1699
g3
(lp1700
S'You'
p1701
aS'know'
p1702
aS'what'
p1703
aS'really'
p1704
aS'grinds'
p1705
aS'my'
p1706
aS'gears'
p1707
ag36
asg12
S'You know what really grinds my gears? '
p1708
sg14
S' When you reply with a "feel" comment in response to my comment which was regarding the fact that people like you would post a "feel" comment in response to the original post. '
p1709
sg16
Vwhat-grinds-my-gears
p1710
sg18
(lp1711
g1701
ag1702
ag1703
ag1704
ag1705
ag1706
ag1707
ag36
aS'When'
p1712
aS'you'
p1713
aS'reply'
p1714
aS'with'
p1715
ag10
aS'``'
p1716
aS'feel'
p1717
aS"''"
p1718
aS'comment'
p1719
aS'in'
p1720
aS'response'
p1721
aS'to'
p1722
aS'my'
p1723
aS'comment'
p1724
aS'which'
p1725
aS'was'
p1726
aS'regarding'
p1727
aS'the'
p1728
aS'fact'
p1729
aS'that'
p1730
aS'people'
p1731
aS'like'
p1732
aS'you'
p1733
aS'would'
p1734
aS'post'
p1735
ag10
aS'``'
p1736
aS'feel'
p1737
aS"''"
p1738
aS'comment'
p1739
aS'in'
p1740
aS'response'
p1741
aS'to'
p1742
aS'the'
p1743
aS'original'
p1744
aS'post'
p1745
ag73
asg24
(lp1746
g1712
ag1713
ag1714
ag1715
ag10
ag1716
ag1717
ag1718
ag1719
ag1720
ag1721
ag1722
ag1723
ag1724
ag1725
ag1726
ag1727
ag1728
ag1729
ag1730
ag1731
ag1732
ag1733
ag1734
ag1735
ag10
ag1736
ag1737
ag1738
ag1739
ag1740
ag1741
ag1742
ag1743
ag1744
ag1745
ag73
asba(iMeme
Meme
p1747
(dp1748
g3
(lp1749
S'The'
p1750
aS'BPA'
p1751
aS'Parking'
p1752
aS'Garage'
p1753
asg12
S'The BPA Parking Garage '
p1754
sg14
S' And the lady who looks like me. '
p1755
sg16
Vwhat-grinds-my-gears
p1756
sg18
(lp1757
g1750
ag1751
ag1752
ag1753
aS'And'
p1758
aS'the'
p1759
aS'lady'
p1760
aS'who'
p1761
aS'looks'
p1762
aS'like'
p1763
aS'me'
p1764
ag73
asg24
(lp1765
g1758
ag1759
ag1760
ag1761
ag1762
ag1763
ag1764
ag73
asba(iMeme
Meme
p1766
(dp1767
g3
(lp1768
sg12
S' '
p1769
sg14
S' people that dont awnser their god damn phones '
p1770
sg16
Vwhat-grinds-my-gears
p1771
sg18
(lp1772
S'people'
p1773
aS'that'
p1774
aS'dont'
p1775
aS'awnser'
p1776
aS'their'
p1777
aS'god'
p1778
aS'damn'
p1779
aS'phones'
p1780
asg24
(lp1781
g1773
ag1774
ag1775
ag1776
ag1777
ag1778
ag1779
ag1780
asba(iMeme
Meme
p1782
(dp1783
g3
(lp1784
S'Wan'
p1785
aS'na'
p1786
aS'know'
p1787
aS'what'
p1788
aS'really'
p1789
aS'grinds'
p1790
aS'my'
p1791
aS'gears'
p1792
ag36
asg12
S'Wanna know what really grinds my gears? '
p1793
sg14
S" Smelling like a dead man and now I can't eat ham fora month. "
p1794
sg16
Vwhat-grinds-my-gears
p1795
sg18
(lp1796
g1785
ag1786
ag1787
ag1788
ag1789
ag1790
ag1791
ag1792
ag36
aS'Smelling'
p1797
aS'like'
p1798
ag10
aS'dead'
p1799
aS'man'
p1800
aS'and'
p1801
aS'now'
p1802
ag119
aS'ca'
p1803
aS"n't"
p1804
aS'eat'
p1805
aS'ham'
p1806
aS'fora'
p1807
aS'month'
p1808
ag73
asg24
(lp1809
g1797
ag1798
ag10
ag1799
ag1800
ag1801
ag1802
ag119
ag1803
ag1804
ag1805
ag1806
ag1807
ag1808
ag73
asba(iMeme
Meme
p1810
(dp1811
g3
(lp1812
S'You'
p1813
aS'know'
p1814
aS'what'
p1815
aS'really'
p1816
aS'grinds'
p1817
aS'my'
p1818
aS'gears'
p1819
asg12
S'You know what really grinds my gears '
p1820
sg14
S" When people don't vote Baileigh for food rep "
p1821
sg16
Vwhat-grinds-my-gears
p1822
sg18
(lp1823
g1813
ag1814
ag1815
ag1816
ag1817
ag1818
ag1819
aS'When'
p1824
aS'people'
p1825
aS'do'
p1826
aS"n't"
p1827
aS'vote'
p1828
aS'Baileigh'
p1829
aS'for'
p1830
aS'food'
p1831
aS'rep'
p1832
asg24
(lp1833
g1824
ag1825
ag1826
ag1827
ag1828
ag1829
ag1830
ag1831
ag1832
asba(iMeme
Meme
p1834
(dp1835
g3
(lp1836
S'You'
p1837
aS'know'
p1838
aS'what'
p1839
aS'really'
p1840
aS'grinds'
p1841
aS'my'
p1842
aS'gears'
p1843
asg12
S'You know what really grinds my gears '
p1844
sg14
S' Having to pick a food rep              Just vote Baileigh '
p1845
sg16
Vwhat-grinds-my-gears
p1846
sg18
(lp1847
g1837
ag1838
ag1839
ag1840
ag1841
ag1842
ag1843
aS'Having'
p1848
aS'to'
p1849
aS'pick'
p1850
ag10
aS'food'
p1851
aS'rep'
p1852
aS'Just'
p1853
aS'vote'
p1854
aS'Baileigh'
p1855
asg24
(lp1856
g1848
ag1849
ag1850
ag10
ag1851
ag1852
ag1853
ag1854
ag1855
asba(iMeme
Meme
p1857
(dp1858
g3
(lp1859
S'you'
p1860
aS'know'
p1861
aS'what'
p1862
aS'grinds'
p1863
aS'my'
p1864
aS'gears'
p1865
ag36
asg12
S'you know what grinds my gears? '
p1866
sg14
S' when people mock me. STOP MOCKING ME '
p1867
sg16
Vwhat-grinds-my-gears
p1868
sg18
(lp1869
g1860
ag1861
ag1862
ag1863
ag1864
ag1865
ag36
aS'when'
p1870
aS'people'
p1871
aS'mock'
p1872
aS'me'
p1873
ag73
aS'STOP'
p1874
aS'MOCKING'
p1875
aS'ME'
p1876
asg24
(lp1877
g1870
ag1871
ag1872
ag1873
ag73
ag1874
ag1875
ag1876
asba(iMeme
Meme
p1878
(dp1879
g3
(lp1880
S'you'
p1881
aS'know'
p1882
aS'what'
p1883
aS'really'
p1884
aS'grinds'
p1885
aS'my'
p1886
aS'gears'
p1887
ag36
asg12
S'you know what really grinds my gears? '
p1888
sg14
S" CATS. The don't have any thumbs and the're doing just fine. "
p1889
sg16
Vwhat-grinds-my-gears
p1890
sg18
(lp1891
g1881
ag1882
ag1883
ag1884
ag1885
ag1886
ag1887
ag36
aS'CATS'
p1892
ag73
aS'The'
p1893
aS'do'
p1894
aS"n't"
p1895
aS'have'
p1896
aS'any'
p1897
aS'thumbs'
p1898
aS'and'
p1899
aS'the'
p1900
aS"'re"
p1901
aS'doing'
p1902
aS'just'
p1903
aS'fine'
p1904
ag73
asg24
(lp1905
g1892
ag73
ag1893
ag1894
ag1895
ag1896
ag1897
ag1898
ag1899
ag1900
ag1901
ag1902
ag1903
ag1904
ag73
asba(iMeme
Meme
p1906
(dp1907
g3
(lp1908
S'you'
p1909
aS'know'
p1910
aS'what'
p1911
aS'really'
p1912
aS'grinds'
p1913
aS'my'
p1914
aS'gears'
p1915
asg12
S'you know what really grinds my gears '
p1916
sg14
S' when people repost clear scams on facebook '
p1917
sg16
Vwhat-grinds-my-gears
p1918
sg18
(lp1919
g1909
ag1910
ag1911
ag1912
ag1913
ag1914
ag1915
aS'when'
p1920
aS'people'
p1921
aS'repost'
p1922
aS'clear'
p1923
aS'scams'
p1924
aS'on'
p1925
aS'facebook'
p1926
asg24
(lp1927
g1920
ag1921
ag1922
ag1923
ag1924
ag1925
ag1926
asba(iMeme
Meme
p1928
(dp1929
g3
(lp1930
S'breaking'
p1931
aS'news'
p1932
asg12
S'breaking news  '
p1933
sg14
S' eve rowland your a bitch!!!! '
p1934
sg16
Vwhat-grinds-my-gears
p1935
sg18
(lp1936
g1931
ag1932
aS'eve'
p1937
aS'rowland'
p1938
aS'your'
p1939
ag10
aS'bitch'
p1940
ag23
ag23
ag23
ag23
asg24
(lp1941
g1937
ag1938
ag1939
ag10
ag1940
ag23
ag23
ag23
ag23
asba(iMeme
Meme
p1942
(dp1943
g3
(lp1944
S'You'
p1945
aS'know'
p1946
aS'what'
p1947
aS'really'
p1948
aS'grinds'
p1949
aS'my'
p1950
aS'gears'
p1951
ag36
asg12
S'You know what really grinds my gears? '
p1952
sg14
S" Callers who want to tell you about their daughter's, cousin's, aunt's, uncle, who has some random medical condition when they are simply making a noise complaint! "
p1953
sg16
Vwhat-grinds-my-gears
p1954
sg18
(lp1955
g1945
ag1946
ag1947
ag1948
ag1949
ag1950
ag1951
ag36
aS'Callers'
p1956
aS'who'
p1957
aS'want'
p1958
aS'to'
p1959
aS'tell'
p1960
aS'you'
p1961
aS'about'
p1962
aS'their'
p1963
aS'daughter'
p1964
aS"'s"
p1965
ag71
aS'cousin'
p1966
aS"'s"
p1967
ag71
aS'aunt'
p1968
aS"'s"
p1969
ag71
aS'uncle'
p1970
ag71
aS'who'
p1971
aS'has'
p1972
aS'some'
p1973
aS'random'
p1974
aS'medical'
p1975
aS'condition'
p1976
aS'when'
p1977
aS'they'
p1978
aS'are'
p1979
aS'simply'
p1980
aS'making'
p1981
ag10
aS'noise'
p1982
aS'complaint'
p1983
ag23
asg24
(lp1984
g1956
ag1957
ag1958
ag1959
ag1960
ag1961
ag1962
ag1963
ag1964
ag1965
ag71
ag1966
ag1967
ag71
ag1968
ag1969
ag71
ag1970
ag71
ag1971
ag1972
ag1973
ag1974
ag1975
ag1976
ag1977
ag1978
ag1979
ag1980
ag1981
ag10
ag1982
ag1983
ag23
asba(iMeme
Meme
p1985
(dp1986
g3
(lp1987
S'you'
p1988
aS'know'
p1989
aS'what'
p1990
aS'really'
p1991
aS'grinds'
p1992
aS'my'
p1993
aS'gears'
p1994
ag36
asg12
S'you know what really grinds my gears? '
p1995
sg14
S' people sneering at the public for this result instead of asking what we could have done better '
p1996
sg16
Vwhat-grinds-my-gears
p1997
sg18
(lp1998
g1988
ag1989
ag1990
ag1991
ag1992
ag1993
ag1994
ag36
aS'people'
p1999
aS'sneering'
p2000
aS'at'
p2001
aS'the'
p2002
aS'public'
p2003
aS'for'
p2004
aS'this'
p2005
aS'result'
p2006
aS'instead'
p2007
aS'of'
p2008
aS'asking'
p2009
aS'what'
p2010
aS'we'
p2011
aS'could'
p2012
aS'have'
p2013
aS'done'
p2014
aS'better'
p2015
asg24
(lp2016
g1999
ag2000
ag2001
ag2002
ag2003
ag2004
ag2005
ag2006
ag2007
ag2008
ag2009
ag2010
ag2011
ag2012
ag2013
ag2014
ag2015
asba(iMeme
Meme
p2017
(dp2018
g3
(lp2019
S'you'
p2020
aS'know'
p2021
aS'what'
p2022
aS'really'
p2023
aS'grinds'
p2024
aS'my'
p2025
aS'gears'
p2026
ag36
asg12
S'you know what really grinds my gears? '
p2027
sg14
S' people sneering at the public for this result instead of asking what we could have done better '
p2028
sg16
Vwhat-grinds-my-gears
p2029
sg18
(lp2030
g2020
ag2021
ag2022
ag2023
ag2024
ag2025
ag2026
ag36
aS'people'
p2031
aS'sneering'
p2032
aS'at'
p2033
aS'the'
p2034
aS'public'
p2035
aS'for'
p2036
aS'this'
p2037
aS'result'
p2038
aS'instead'
p2039
aS'of'
p2040
aS'asking'
p2041
aS'what'
p2042
aS'we'
p2043
aS'could'
p2044
aS'have'
p2045
aS'done'
p2046
aS'better'
p2047
asg24
(lp2048
g2031
ag2032
ag2033
ag2034
ag2035
ag2036
ag2037
ag2038
ag2039
ag2040
ag2041
ag2042
ag2043
ag2044
ag2045
ag2046
ag2047
asba(iMeme
Meme
p2049
(dp2050
g3
(lp2051
S'You'
p2052
aS'know'
p2053
aS'what'
p2054
aS'really'
p2055
aS'grinds'
p2056
aS'my'
p2057
aS'gears'
p2058
ag36
asg12
S'You know what really grinds my gears? '
p2059
sg14
S" Callers who want to tell you about their daughter's, cousin's, aunt's, uncle, who has cancer when they are simply making a noise complaint! "
p2060
sg16
Vwhat-grinds-my-gears
p2061
sg18
(lp2062
g2052
ag2053
ag2054
ag2055
ag2056
ag2057
ag2058
ag36
aS'Callers'
p2063
aS'who'
p2064
aS'want'
p2065
aS'to'
p2066
aS'tell'
p2067
aS'you'
p2068
aS'about'
p2069
aS'their'
p2070
aS'daughter'
p2071
aS"'s"
p2072
ag71
aS'cousin'
p2073
aS"'s"
p2074
ag71
aS'aunt'
p2075
aS"'s"
p2076
ag71
aS'uncle'
p2077
ag71
aS'who'
p2078
aS'has'
p2079
aS'cancer'
p2080
aS'when'
p2081
aS'they'
p2082
aS'are'
p2083
aS'simply'
p2084
aS'making'
p2085
ag10
aS'noise'
p2086
aS'complaint'
p2087
ag23
asg24
(lp2088
g2063
ag2064
ag2065
ag2066
ag2067
ag2068
ag2069
ag2070
ag2071
ag2072
ag71
ag2073
ag2074
ag71
ag2075
ag2076
ag71
ag2077
ag71
ag2078
ag2079
ag2080
ag2081
ag2082
ag2083
ag2084
ag2085
ag10
ag2086
ag2087
ag23
asba(iMeme
Meme
p2089
(dp2090
g3
(lp2091
S'You'
p2092
aS'know'
p2093
aS'what'
p2094
aS'grinds'
p2095
aS'my'
p2096
aS'gears'
p2097
ag36
asg12
S'You know what grinds my gears? '
p2098
sg14
S" It's when the boss tells you to do something and he gets mad for no reason. "
p2099
sg16
Vwhat-grinds-my-gears
p2100
sg18
(lp2101
g2092
ag2093
ag2094
ag2095
ag2096
ag2097
ag36
aS'It'
p2102
aS"'s"
p2103
aS'when'
p2104
aS'the'
p2105
aS'boss'
p2106
aS'tells'
p2107
aS'you'
p2108
aS'to'
p2109
aS'do'
p2110
aS'something'
p2111
aS'and'
p2112
aS'he'
p2113
aS'gets'
p2114
aS'mad'
p2115
aS'for'
p2116
aS'no'
p2117
aS'reason'
p2118
ag73
asg24
(lp2119
g2102
ag2103
ag2104
ag2105
ag2106
ag2107
ag2108
ag2109
ag2110
ag2111
ag2112
ag2113
ag2114
ag2115
ag2116
ag2117
ag2118
ag73
asba(iMeme
Meme
p2120
(dp2121
g3
(lp2122
S'you'
p2123
aS'know'
p2124
aS'what'
p2125
aS'really'
p2126
aS'grinds'
p2127
aS'my'
p2128
aS'gears'
p2129
ag36
asg12
S'you know what really grinds my gears? '
p2130
sg14
S' political memes '
p2131
sg16
Vwhat-grinds-my-gears
p2132
sg18
(lp2133
g2123
ag2124
ag2125
ag2126
ag2127
ag2128
ag2129
ag36
aS'political'
p2134
aS'memes'
p2135
asg24
(lp2136
g2134
ag2135
asba(iMeme
Meme
p2137
(dp2138
g3
(lp2139
S'You'
p2140
aS'know'
p2141
aS'what'
p2142
aS'really'
p2143
aS'grinds'
p2144
aS'my'
p2145
aS'gears'
p2146
asg12
S'You know what really grinds my gears '
p2147
sg14
S' Having to pick a food rep         Just vote Baileigh '
p2148
sg16
Vwhat-grinds-my-gears
p2149
sg18
(lp2150
g2140
ag2141
ag2142
ag2143
ag2144
ag2145
ag2146
aS'Having'
p2151
aS'to'
p2152
aS'pick'
p2153
ag10
aS'food'
p2154
aS'rep'
p2155
aS'Just'
p2156
aS'vote'
p2157
aS'Baileigh'
p2158
asg24
(lp2159
g2151
ag2152
ag2153
ag10
ag2154
ag2155
ag2156
ag2157
ag2158
asba(iMeme
Meme
p2160
(dp2161
g3
(lp2162
S'You'
p2163
aS'know'
p2164
aS'what'
p2165
aS'really'
p2166
aS'grinds'
p2167
aS'my'
p2168
aS'gears'
p2169
ag36
asg12
S'You know what really grinds my gears? '
p2170
sg14
S' When I click on the my subreddits list and the one that I am looking for is not there. '
p2171
sg16
Vwhat-grinds-my-gears
p2172
sg18
(lp2173
g2163
ag2164
ag2165
ag2166
ag2167
ag2168
ag2169
ag36
aS'When'
p2174
ag119
aS'click'
p2175
aS'on'
p2176
aS'the'
p2177
aS'my'
p2178
aS'subreddits'
p2179
aS'list'
p2180
aS'and'
p2181
aS'the'
p2182
aS'one'
p2183
aS'that'
p2184
ag119
aS'am'
p2185
aS'looking'
p2186
aS'for'
p2187
aS'is'
p2188
aS'not'
p2189
aS'there'
p2190
ag73
asg24
(lp2191
g2174
ag119
ag2175
ag2176
ag2177
ag2178
ag2179
ag2180
ag2181
ag2182
ag2183
ag2184
ag119
ag2185
ag2186
ag2187
ag2188
ag2189
ag2190
ag73
asba(iMeme
Meme
p2192
(dp2193
g3
(lp2194
S'You'
p2195
aS'know'
p2196
aS'what'
p2197
aS'really'
p2198
aS'grinds'
p2199
aS'my'
p2200
aS'gears'
p2201
ag36
asg12
S'You know what really grinds my gears? '
p2202
sg14
S' The fact that 99.9% of public restrooms are pull'
p2203
sg16
Vwhat-grinds-my-gears
p2204
sg18
(lp2205
g2195
ag2196
ag2197
ag2198
ag2199
ag2200
ag2201
ag36
aS'The'
p2206
aS'fact'
p2207
aS'that'
p2208
aS'99.9'
p2209
aS'%'
p2210
aS'of'
p2211
aS'public'
p2212
aS'restrooms'
p2213
aS'are'
p2214
aS'pull'
p2215
asg24
(lp2216
g2206
ag2207
ag2208
ag2209
ag2210
ag2211
ag2212
ag2213
ag2214
ag2215
asba(iMeme
Meme
p2217
(dp2218
g3
(lp2219
S'You'
p2220
aS'know'
p2221
aS'what'
p2222
aS'really'
p2223
aS'grinds'
p2224
aS'my'
p2225
aS'gears'
p2226
asg12
S'You know what really grinds my gears '
p2227
sg14
S" When people don't listen when I tell them what grinds my gears "
p2228
sg16
Vwhat-grinds-my-gears
p2229
sg18
(lp2230
g2220
ag2221
ag2222
ag2223
ag2224
ag2225
ag2226
aS'When'
p2231
aS'people'
p2232
aS'do'
p2233
aS"n't"
p2234
aS'listen'
p2235
aS'when'
p2236
ag119
aS'tell'
p2237
aS'them'
p2238
aS'what'
p2239
aS'grinds'
p2240
aS'my'
p2241
aS'gears'
p2242
asg24
(lp2243
g2231
ag2232
ag2233
ag2234
ag2235
ag2236
ag119
ag2237
ag2238
ag2239
ag2240
ag2241
ag2242
asba(iMeme
Meme
p2244
(dp2245
g3
(lp2246
S'you'
p2247
aS'know'
p2248
aS'what'
p2249
aS'really'
p2250
aS'grinds'
p2251
aS'my'
p2252
aS'gears'
p2253
ag36
asg12
S'you know what really grinds my gears? '
p2254
sg14
S" people talking about miley's performance at the vmas, and me not being able to see it, because i'm from europe "
p2255
sg16
Vwhat-grinds-my-gears
p2256
sg18
(lp2257
g2247
ag2248
ag2249
ag2250
ag2251
ag2252
ag2253
ag36
aS'people'
p2258
aS'talking'
p2259
aS'about'
p2260
aS'miley'
p2261
aS"'s"
p2262
aS'performance'
p2263
aS'at'
p2264
aS'the'
p2265
aS'vmas'
p2266
ag71
aS'and'
p2267
aS'me'
p2268
aS'not'
p2269
aS'being'
p2270
aS'able'
p2271
aS'to'
p2272
aS'see'
p2273
aS'it'
p2274
ag71
aS'because'
p2275
ag93
aS"'m"
p2276
aS'from'
p2277
aS'europe'
p2278
asg24
(lp2279
g2258
ag2259
ag2260
ag2261
ag2262
ag2263
ag2264
ag2265
ag2266
ag71
ag2267
ag2268
ag2269
ag2270
ag2271
ag2272
ag2273
ag2274
ag71
ag2275
ag93
ag2276
ag2277
ag2278
asba(iMeme
Meme
p2280
(dp2281
g3
(lp2282
S'you'
p2283
aS'know'
p2284
aS'what'
p2285
aS'really'
p2286
aS'grinds'
p2287
aS'my'
p2288
aS'gears'
p2289
ag36
asg12
S'you know what really grinds my gears? '
p2290
sg14
S" It's written $100, not 100$ "
p2291
sg16
Vwhat-grinds-my-gears
p2292
sg18
(lp2293
g2283
ag2284
ag2285
ag2286
ag2287
ag2288
ag2289
ag36
aS'It'
p2294
aS"'s"
p2295
aS'written'
p2296
ag621
aS'100'
p2297
ag71
aS'not'
p2298
aS'100'
p2299
ag621
asg24
(lp2300
g2294
ag2295
ag2296
ag621
ag2297
ag71
ag2298
ag2299
ag621
asba(iMeme
Meme
p2301
(dp2302
g3
(lp2303
S'You'
p2304
aS'know'
p2305
aS'what'
p2306
aS'really'
p2307
aS'grinds'
p2308
aS'my'
p2309
aS'gears'
p2310
ag36
asg12
S'You know what really grinds my gears? '
p2311
sg14
S' When I have no money during a Steam sale '
p2312
sg16
Vwhat-grinds-my-gears
p2313
sg18
(lp2314
g2304
ag2305
ag2306
ag2307
ag2308
ag2309
ag2310
ag36
aS'When'
p2315
ag119
aS'have'
p2316
aS'no'
p2317
aS'money'
p2318
aS'during'
p2319
ag10
aS'Steam'
p2320
aS'sale'
p2321
asg24
(lp2322
g2315
ag119
ag2316
ag2317
ag2318
ag2319
ag10
ag2320
ag2321
asba(iMeme
Meme
p2323
(dp2324
g3
(lp2325
S'The'
p2326
aS'over'
p2327
aS'sexualization'
p2328
aS'of'
p2329
aS'the'
p2330
aS'female'
p2331
aS'body'
p2332
aS'in'
p2333
aS'this'
p2334
aS'patriarchal'
p2335
aS'society'
p2336
asg12
S'The over sexualization of the female body in this patriarchal society '
p2337
sg14
S" says that men don't have to wear shirts but women do "
p2338
sg16
Vwhat-grinds-my-gears
p2339
sg18
(lp2340
g2326
ag2327
ag2328
ag2329
ag2330
ag2331
ag2332
ag2333
ag2334
ag2335
ag2336
aS'says'
p2341
aS'that'
p2342
aS'men'
p2343
aS'do'
p2344
aS"n't"
p2345
aS'have'
p2346
aS'to'
p2347
aS'wear'
p2348
aS'shirts'
p2349
aS'but'
p2350
aS'women'
p2351
aS'do'
p2352
asg24
(lp2353
g2341
ag2342
ag2343
ag2344
ag2345
ag2346
ag2347
ag2348
ag2349
ag2350
ag2351
ag2352
asba(iMeme
Meme
p2354
(dp2355
g3
(lp2356
S'You'
p2357
aS'know'
p2358
aS'what'
p2359
aS'grinds'
p2360
aS'my'
p2361
aS'gears'
p2362
ag36
asg12
S'You know what grinds my gears? '
p2363
sg14
S' only 1 pizza place makes their pies only $10 on mondays '
p2364
sg16
Vwhat-grinds-my-gears
p2365
sg18
(lp2366
g2357
ag2358
ag2359
ag2360
ag2361
ag2362
ag36
aS'only'
p2367
aS'1'
p2368
aS'pizza'
p2369
aS'place'
p2370
aS'makes'
p2371
aS'their'
p2372
aS'pies'
p2373
aS'only'
p2374
ag621
aS'10'
p2375
aS'on'
p2376
aS'mondays'
p2377
asg24
(lp2378
g2367
ag2368
ag2369
ag2370
ag2371
ag2372
ag2373
ag2374
ag621
ag2375
ag2376
ag2377
asba(iMeme
Meme
p2379
(dp2380
g3
(lp2381
S'people'
p2382
aS'who'
p2383
aS'poop'
p2384
aS'in'
p2385
aS'the'
p2386
aS'toilet'
p2387
aS'and'
p2388
aS'not'
p2389
aS'flush'
p2390
aS'it'
p2391
asg12
S'people who poop in the toilet and not flush it '
p2392
sg14
S' and people who fart to loudly talking about you meg '
p2393
sg16
Vwhat-grinds-my-gears
p2394
sg18
(lp2395
g2382
ag2383
ag2384
ag2385
ag2386
ag2387
ag2388
ag2389
ag2390
ag2391
aS'and'
p2396
aS'people'
p2397
aS'who'
p2398
aS'fart'
p2399
aS'to'
p2400
aS'loudly'
p2401
aS'talking'
p2402
aS'about'
p2403
aS'you'
p2404
aS'meg'
p2405
asg24
(lp2406
g2396
ag2397
ag2398
ag2399
ag2400
ag2401
ag2402
ag2403
ag2404
ag2405
asba(iMeme
Meme
p2407
(dp2408
g3
(lp2409
S'You'
p2410
aS'know'
p2411
aS'what'
p2412
aS'really'
p2413
aS'grinds'
p2414
aS'my'
p2415
aS'gears'
p2416
ag36
asg12
S'You know what really grinds my gears? '
p2417
sg14
S' When people call a tablet an ipad '
p2418
sg16
Vwhat-grinds-my-gears
p2419
sg18
(lp2420
g2410
ag2411
ag2412
ag2413
ag2414
ag2415
ag2416
ag36
aS'When'
p2421
aS'people'
p2422
aS'call'
p2423
ag10
aS'tablet'
p2424
aS'an'
p2425
aS'ipad'
p2426
asg24
(lp2427
g2421
ag2422
ag2423
ag10
ag2424
ag2425
ag2426
asba(iMeme
Meme
p2428
(dp2429
g3
(lp2430
S'Know'
p2431
aS'what'
p2432
aS'grinds'
p2433
aS'my'
p2434
aS'gears'
p2435
ag36
asg12
S'Know what grinds my gears? '
p2436
sg14
S' People talking about Winter.. Autumn hasnt come yet! '
p2437
sg16
Vwhat-grinds-my-gears
p2438
sg18
(lp2439
g2431
ag2432
ag2433
ag2434
ag2435
ag36
aS'People'
p2440
aS'talking'
p2441
aS'about'
p2442
aS'Winter..'
p2443
aS'Autumn'
p2444
aS'hasnt'
p2445
aS'come'
p2446
aS'yet'
p2447
ag23
asg24
(lp2448
g2440
ag2441
ag2442
ag2443
ag2444
ag2445
ag2446
ag2447
ag23
asba(iMeme
Meme
p2449
(dp2450
g3
(lp2451
S'you'
p2452
aS'know'
p2453
aS'what'
p2454
aS'really'
p2455
aS'grinds'
p2456
aS'my'
p2457
aS'gears'
p2458
ag36
asg12
S'you know what really grinds my gears? '
p2459
sg14
S' when i try to get to pack a punch on buried and my points get stolen '
p2460
sg16
Vwhat-grinds-my-gears
p2461
sg18
(lp2462
g2452
ag2453
ag2454
ag2455
ag2456
ag2457
ag2458
ag36
aS'when'
p2463
ag93
aS'try'
p2464
aS'to'
p2465
aS'get'
p2466
aS'to'
p2467
aS'pack'
p2468
ag10
aS'punch'
p2469
aS'on'
p2470
aS'buried'
p2471
aS'and'
p2472
aS'my'
p2473
aS'points'
p2474
aS'get'
p2475
aS'stolen'
p2476
asg24
(lp2477
g2463
ag93
ag2464
ag2465
ag2466
ag2467
ag2468
ag10
ag2469
ag2470
ag2471
ag2472
ag2473
ag2474
ag2475
ag2476
asba(iMeme
Meme
p2478
(dp2479
g3
(lp2480
S'Do'
p2481
aS'you'
p2482
aS'really'
p2483
aS'wanot'
p2484
aS'to'
p2485
aS'know'
p2486
aS'what'
p2487
aS'grinds'
p2488
aS'my'
p2489
aS'gears'
p2490
ag36
asg12
S'Do you really wanot to know what grinds my gears? '
p2491
sg14
S' a fan sonic character with added chaos word on the sheet '
p2492
sg16
Vwhat-grinds-my-gears
p2493
sg18
(lp2494
g2481
ag2482
ag2483
ag2484
ag2485
ag2486
ag2487
ag2488
ag2489
ag2490
ag36
ag10
aS'fan'
p2495
aS'sonic'
p2496
aS'character'
p2497
aS'with'
p2498
aS'added'
p2499
aS'chaos'
p2500
aS'word'
p2501
aS'on'
p2502
aS'the'
p2503
aS'sheet'
p2504
asg24
(lp2505
g10
ag2495
ag2496
ag2497
ag2498
ag2499
ag2500
ag2501
ag2502
ag2503
ag2504
asba(iMeme
Meme
p2506
(dp2507
g3
(lp2508
S'you'
p2509
aS'know'
p2510
aS'what'
p2511
aS'really'
p2512
aS'grinds'
p2513
aS'my'
p2514
aS'gears'
p2515
ag36
asg12
S'you know what really grinds my gears? '
p2516
sg14
S" people calling the public moronic for this result instead of asking what we could've done better "
p2517
sg16
Vwhat-grinds-my-gears
p2518
sg18
(lp2519
g2509
ag2510
ag2511
ag2512
ag2513
ag2514
ag2515
ag36
aS'people'
p2520
aS'calling'
p2521
aS'the'
p2522
aS'public'
p2523
aS'moronic'
p2524
aS'for'
p2525
aS'this'
p2526
aS'result'
p2527
aS'instead'
p2528
aS'of'
p2529
aS'asking'
p2530
aS'what'
p2531
aS'we'
p2532
aS'could'
p2533
aS"'ve"
p2534
aS'done'
p2535
aS'better'
p2536
asg24
(lp2537
g2520
ag2521
ag2522
ag2523
ag2524
ag2525
ag2526
ag2527
ag2528
ag2529
ag2530
ag2531
ag2532
ag2533
ag2534
ag2535
ag2536
asba(iMeme
Meme
p2538
(dp2539
g3
(lp2540
S'You'
p2541
aS'know'
p2542
aS'what'
p2543
aS'really'
p2544
aS'grinds'
p2545
aS'my'
p2546
aS'gears'
p2547
ag36
asg12
S'You know what really grinds my gears? '
p2548
sg14
S" When i can sprint slightly faster in a game than the person i'm suppose to follow "
p2549
sg16
Vwhat-grinds-my-gears
p2550
sg18
(lp2551
g2541
ag2542
ag2543
ag2544
ag2545
ag2546
ag2547
ag36
aS'When'
p2552
ag93
aS'can'
p2553
aS'sprint'
p2554
aS'slightly'
p2555
aS'faster'
p2556
aS'in'
p2557
ag10
aS'game'
p2558
aS'than'
p2559
aS'the'
p2560
aS'person'
p2561
ag93
aS"'m"
p2562
aS'suppose'
p2563
aS'to'
p2564
aS'follow'
p2565
asg24
(lp2566
g2552
ag93
ag2553
ag2554
ag2555
ag2556
ag2557
ag10
ag2558
ag2559
ag2560
ag2561
ag93
ag2562
ag2563
ag2564
ag2565
asba(iMeme
Meme
p2567
(dp2568
g3
(lp2569
S'Tell'
p2570
aS'you'
p2571
aS'what'
p2572
aS'grinds'
p2573
aS'my'
p2574
aS'gears'
p2575
asg12
S'Tell you what grinds my gears  '
p2576
sg14
S' When someone orders a grill and moans when they are parked '
p2577
sg16
Vwhat-grinds-my-gears
p2578
sg18
(lp2579
g2570
ag2571
ag2572
ag2573
ag2574
ag2575
aS'When'
p2580
aS'someone'
p2581
aS'orders'
p2582
ag10
aS'grill'
p2583
aS'and'
p2584
aS'moans'
p2585
aS'when'
p2586
aS'they'
p2587
aS'are'
p2588
aS'parked'
p2589
asg24
(lp2590
g2580
ag2581
ag2582
ag10
ag2583
ag2584
ag2585
ag2586
ag2587
ag2588
ag2589
asba(iMeme
Meme
p2591
(dp2592
g3
(lp2593
S'You'
p2594
asg12
S'You '
p2595
sg14
S' Of my planet '
p2596
sg16
Vwhat-grinds-my-gears
p2597
sg18
(lp2598
g2594
aS'Of'
p2599
aS'my'
p2600
aS'planet'
p2601
asg24
(lp2602
g2599
ag2600
ag2601
asba(iMeme
Meme
p2603
(dp2604
g3
(lp2605
S'You'
p2606
aS'know'
p2607
aS'what'
p2608
aS'really'
p2609
aS'grinds'
p2610
aS'my'
p2611
aS'gears'
p2612
ag36
asg12
S'You know what really grinds my gears? '
p2613
sg14
S' when people correct grammar on Facebook '
p2614
sg16
Vwhat-grinds-my-gears
p2615
sg18
(lp2616
g2606
ag2607
ag2608
ag2609
ag2610
ag2611
ag2612
ag36
aS'when'
p2617
aS'people'
p2618
aS'correct'
p2619
aS'grammar'
p2620
aS'on'
p2621
aS'Facebook'
p2622
asg24
(lp2623
g2617
ag2618
ag2619
ag2620
ag2621
ag2622
asba(iMeme
Meme
p2624
(dp2625
g3
(lp2626
S'You'
p2627
aS'know'
p2628
aS'what'
p2629
aS'Grinds'
p2630
aS'my'
p2631
aS'Gears'
p2632
ag36
asg12
S'You know what Grinds my Gears? '
p2633
sg14
S' That HBO is ending Trueblood next season '
p2634
sg16
Vwhat-grinds-my-gears
p2635
sg18
(lp2636
g2627
ag2628
ag2629
ag2630
ag2631
ag2632
ag36
aS'That'
p2637
aS'HBO'
p2638
aS'is'
p2639
aS'ending'
p2640
aS'Trueblood'
p2641
aS'next'
p2642
aS'season'
p2643
asg24
(lp2644
g2637
ag2638
ag2639
ag2640
ag2641
ag2642
ag2643
asba(iMeme
Meme
p2645
(dp2646
g3
(lp2647
S'You'
p2648
aS'Know'
p2649
aS'What'
p2650
aS'really'
p2651
aS'Grinds'
p2652
aS'My'
p2653
aS'Gears'
p2654
ag36
asg12
S'You Know What really Grinds My Gears? '
p2655
sg14
S' When Sports Highlight Shows run the highlight plays out of order '
p2656
sg16
Vwhat-grinds-my-gears
p2657
sg18
(lp2658
g2648
ag2649
ag2650
ag2651
ag2652
ag2653
ag2654
ag36
aS'When'
p2659
aS'Sports'
p2660
aS'Highlight'
p2661
aS'Shows'
p2662
aS'run'
p2663
aS'the'
p2664
aS'highlight'
p2665
aS'plays'
p2666
aS'out'
p2667
aS'of'
p2668
aS'order'
p2669
asg24
(lp2670
g2659
ag2660
ag2661
ag2662
ag2663
ag2664
ag2665
ag2666
ag2667
ag2668
ag2669
asba(iMeme
Meme
p2671
(dp2672
g3
(lp2673
S'Do'
p2674
aS'you'
p2675
aS'know'
p2676
aS'what'
p2677
aS'really'
p2678
aS'grinds'
p2679
aS'my'
p2680
aS'gears'
p2681
ag36
asg12
S'Do you know what really grinds my gears? '
p2682
sg14
S' A failing clutch '
p2683
sg16
Vwhat-grinds-my-gears
p2684
sg18
(lp2685
g2674
ag2675
ag2676
ag2677
ag2678
ag2679
ag2680
ag2681
ag36
ag275
aS'failing'
p2686
aS'clutch'
p2687
asg24
(lp2688
g275
ag2686
ag2687
asba(iMeme
Meme
p2689
(dp2690
g3
(lp2691
S'You'
p2692
aS'know'
p2693
aS'what'
p2694
aS'really'
p2695
aS'grinds'
p2696
aS'my'
p2697
aS'gears'
p2698
ag36
asg12
S'You know what really grinds my gears? '
p2699
sg14
S' When teenagers say they are "ripped" but actually are just anorexia and don\'t even work out. '
p2700
sg16
Vwhat-grinds-my-gears
p2701
sg18
(lp2702
g2692
ag2693
ag2694
ag2695
ag2696
ag2697
ag2698
ag36
aS'When'
p2703
aS'teenagers'
p2704
aS'say'
p2705
aS'they'
p2706
aS'are'
p2707
aS'``'
p2708
aS'ripped'
p2709
aS"''"
p2710
aS'but'
p2711
aS'actually'
p2712
aS'are'
p2713
aS'just'
p2714
aS'anorexia'
p2715
aS'and'
p2716
aS'do'
p2717
aS"n't"
p2718
aS'even'
p2719
aS'work'
p2720
aS'out'
p2721
ag73
asg24
(lp2722
g2703
ag2704
ag2705
ag2706
ag2707
ag2708
ag2709
ag2710
ag2711
ag2712
ag2713
ag2714
ag2715
ag2716
ag2717
ag2718
ag2719
ag2720
ag2721
ag73
asba(iMeme
Meme
p2723
(dp2724
g3
(lp2725
S'What'
p2726
aS'grinds'
p2727
aS'my'
p2728
aS'gears'
p2729
ag36
asg12
S'What grinds my gears? '
p2730
sg14
S' people ignoring requests for QC licences! '
p2731
sg16
Vwhat-grinds-my-gears
p2732
sg18
(lp2733
g2726
ag2727
ag2728
ag2729
ag36
aS'people'
p2734
aS'ignoring'
p2735
aS'requests'
p2736
aS'for'
p2737
aS'QC'
p2738
aS'licences'
p2739
ag23
asg24
(lp2740
g2734
ag2735
ag2736
ag2737
ag2738
ag2739
ag23
asba(iMeme
Meme
p2741
(dp2742
g3
(lp2743
S'you'
p2744
aS'know'
p2745
aS'what'
p2746
aS'grinds'
p2747
aS'my'
p2748
aS'gears'
p2749
ag36
asg12
S'you know what grinds my gears? '
p2750
sg14
S' when people mock me. STOP MOCKING ME! '
p2751
sg16
Vwhat-grinds-my-gears
p2752
sg18
(lp2753
g2744
ag2745
ag2746
ag2747
ag2748
ag2749
ag36
aS'when'
p2754
aS'people'
p2755
aS'mock'
p2756
aS'me'
p2757
ag73
aS'STOP'
p2758
aS'MOCKING'
p2759
aS'ME'
p2760
ag23
asg24
(lp2761
g2754
ag2755
ag2756
ag2757
ag73
ag2758
ag2759
ag2760
ag23
asba(iMeme
Meme
p2762
(dp2763
g3
(lp2764
S'You'
p2765
aS'know'
p2766
aS'what'
p2767
aS'really'
p2768
aS'grinds'
p2769
aS'my'
p2770
aS'gears'
p2771
asg12
S'You know what really grinds my gears '
p2772
sg14
S' Having to pick a food rep                Just vote Baileigh '
p2773
sg16
Vwhat-grinds-my-gears
p2774
sg18
(lp2775
g2765
ag2766
ag2767
ag2768
ag2769
ag2770
ag2771
aS'Having'
p2776
aS'to'
p2777
aS'pick'
p2778
ag10
aS'food'
p2779
aS'rep'
p2780
aS'Just'
p2781
aS'vote'
p2782
aS'Baileigh'
p2783
asg24
(lp2784
g2776
ag2777
ag2778
ag10
ag2779
ag2780
ag2781
ag2782
ag2783
asba(iMeme
Meme
p2785
(dp2786
g3
(lp2787
S'You'
p2788
aS'know'
p2789
aS'what'
p2790
aS'really'
p2791
aS'grinds'
p2792
aS'my'
p2793
aS'gears'
p2794
ag36
asg12
S'You know what really grinds my gears? '
p2795
sg14
S' Grammar nazis! '
p2796
sg16
Vwhat-grinds-my-gears
p2797
sg18
(lp2798
g2788
ag2789
ag2790
ag2791
ag2792
ag2793
ag2794
ag36
aS'Grammar'
p2799
aS'nazis'
p2800
ag23
asg24
(lp2801
g2799
ag2800
ag23
asba(iMeme
Meme
p2802
(dp2803
g3
(lp2804
S'you'
p2805
aS'know'
p2806
aS'what'
p2807
aS'grinds'
p2808
aS'my'
p2809
aS'gears'
p2810
ag36
ag23
asg12
S'you know what grinds my gears?! '
p2811
sg14
S' megan not liking grumpy cat '
p2812
sg16
Vwhat-grinds-my-gears
p2813
sg18
(lp2814
g2805
ag2806
ag2807
ag2808
ag2809
ag2810
ag36
ag23
aS'megan'
p2815
aS'not'
p2816
aS'liking'
p2817
aS'grumpy'
p2818
aS'cat'
p2819
asg24
(lp2820
g2815
ag2816
ag2817
ag2818
ag2819
asba(iMeme
Meme
p2821
(dp2822
g3
(lp2823
S'Wan'
p2824
aS'na'
p2825
aS'know'
p2826
aS'what'
p2827
aS'really'
p2828
aS'grinds'
p2829
aS'my'
p2830
aS'gears'
p2831
ag36
asg12
S'Wanna know what really grinds my gears? '
p2832
sg14
S" Smelling like a dead dude now I can't eat ham for a month. "
p2833
sg16
Vwhat-grinds-my-gears
p2834
sg18
(lp2835
g2824
ag2825
ag2826
ag2827
ag2828
ag2829
ag2830
ag2831
ag36
aS'Smelling'
p2836
aS'like'
p2837
ag10
aS'dead'
p2838
aS'dude'
p2839
aS'now'
p2840
ag119
aS'ca'
p2841
aS"n't"
p2842
aS'eat'
p2843
aS'ham'
p2844
aS'for'
p2845
ag10
aS'month'
p2846
ag73
asg24
(lp2847
g2836
ag2837
ag10
ag2838
ag2839
ag2840
ag119
ag2841
ag2842
ag2843
ag2844
ag2845
ag10
ag2846
ag73
asba(iMeme
Meme
p2848
(dp2849
g3
(lp2850
S'You'
p2851
aS'know'
p2852
aS'what'
p2853
aS'really'
p2854
aS'grinds'
p2855
aS'my'
p2856
aS'gears'
p2857
ag36
asg12
S'You know what really grinds my gears? '
p2858
sg14
S" When professors don't email you that class in cancelled, but instead post a note on the classroom door. "
p2859
sg16
Vwhat-grinds-my-gears
p2860
sg18
(lp2861
g2851
ag2852
ag2853
ag2854
ag2855
ag2856
ag2857
ag36
aS'When'
p2862
aS'professors'
p2863
aS'do'
p2864
aS"n't"
p2865
aS'email'
p2866
aS'you'
p2867
aS'that'
p2868
aS'class'
p2869
aS'in'
p2870
aS'cancelled'
p2871
ag71
aS'but'
p2872
aS'instead'
p2873
aS'post'
p2874
ag10
aS'note'
p2875
aS'on'
p2876
aS'the'
p2877
aS'classroom'
p2878
aS'door'
p2879
ag73
asg24
(lp2880
g2862
ag2863
ag2864
ag2865
ag2866
ag2867
ag2868
ag2869
ag2870
ag2871
ag71
ag2872
ag2873
ag2874
ag10
ag2875
ag2876
ag2877
ag2878
ag2879
ag73
asba(iMeme
Meme
p2881
(dp2882
g3
(lp2883
S'You'
p2884
aS'know'
p2885
aS'what'
p2886
aS'really'
p2887
aS'grinds'
p2888
aS'me'
p2889
aS'gears'
p2890
ag36
asg12
S'You know what really grinds me gears? '
p2891
sg14
S' The phrase, "Well, if you\'re ever in Nantucket" '
p2892
sg16
Vwhat-grinds-my-gears
p2893
sg18
(lp2894
g2884
ag2885
ag2886
ag2887
ag2888
ag2889
ag2890
ag36
aS'The'
p2895
aS'phrase'
p2896
ag71
aS'``'
p2897
aS'Well'
p2898
ag71
aS'if'
p2899
aS'you'
p2900
aS"'re"
p2901
aS'ever'
p2902
aS'in'
p2903
aS'Nantucket'
p2904
aS"''"
p2905
asg24
(lp2906
g2895
ag2896
ag71
ag2897
ag2898
ag71
ag2899
ag2900
ag2901
ag2902
ag2903
ag2904
ag2905
asba(iMeme
Meme
p2907
(dp2908
g3
(lp2909
S'You'
p2910
aS'know'
p2911
aS'what'
p2912
aS'really'
p2913
aS'grinds'
p2914
aS'my'
p2915
aS'gears'
p2916
ag36
asg12
S'You know what really grinds my gears? '
p2917
sg14
S' When this shit happens '
p2918
sg16
Vwhat-grinds-my-gears
p2919
sg18
(lp2920
g2910
ag2911
ag2912
ag2913
ag2914
ag2915
ag2916
ag36
aS'When'
p2921
aS'this'
p2922
aS'shit'
p2923
aS'happens'
p2924
asg24
(lp2925
g2921
ag2922
ag2923
ag2924
asba(iMeme
Meme
p2926
(dp2927
g3
(lp2928
S'you'
p2929
aS'know'
p2930
aS'what'
p2931
aS'really'
p2932
aS'grinds'
p2933
aS'my'
p2934
aS'gears'
p2935
ag36
asg12
S'you know what really grinds my gears? '
p2936
sg14
S" when the protagonist has the opportunity to kill the villain in a movie but doesn't  "
p2937
sg16
Vwhat-grinds-my-gears
p2938
sg18
(lp2939
g2929
ag2930
ag2931
ag2932
ag2933
ag2934
ag2935
ag36
aS'when'
p2940
aS'the'
p2941
aS'protagonist'
p2942
aS'has'
p2943
aS'the'
p2944
aS'opportunity'
p2945
aS'to'
p2946
aS'kill'
p2947
aS'the'
p2948
aS'villain'
p2949
aS'in'
p2950
ag10
aS'movie'
p2951
aS'but'
p2952
aS'does'
p2953
aS"n't"
p2954
asg24
(lp2955
g2940
ag2941
ag2942
ag2943
ag2944
ag2945
ag2946
ag2947
ag2948
ag2949
ag2950
ag10
ag2951
ag2952
ag2953
ag2954
asba(iMeme
Meme
p2956
(dp2957
g3
(lp2958
S'you'
p2959
aS'know'
p2960
aS'what'
p2961
aS'really'
p2962
aS'grinds'
p2963
aS'my'
p2964
aS'gears'
p2965
ag36
asg12
S'you know what really grinds my gears? '
p2966
sg14
S" I click a link in reddit comments and when I go back it doesn't remember which threads I minimized "
p2967
sg16
Vwhat-grinds-my-gears
p2968
sg18
(lp2969
g2959
ag2960
ag2961
ag2962
ag2963
ag2964
ag2965
ag36
ag119
aS'click'
p2970
ag10
aS'link'
p2971
aS'in'
p2972
aS'reddit'
p2973
aS'comments'
p2974
aS'and'
p2975
aS'when'
p2976
ag119
aS'go'
p2977
aS'back'
p2978
aS'it'
p2979
aS'does'
p2980
aS"n't"
p2981
aS'remember'
p2982
aS'which'
p2983
aS'threads'
p2984
ag119
aS'minimized'
p2985
asg24
(lp2986
g119
ag2970
ag10
ag2971
ag2972
ag2973
ag2974
ag2975
ag2976
ag119
ag2977
ag2978
ag2979
ag2980
ag2981
ag2982
ag2983
ag2984
ag119
ag2985
asba(iMeme
Meme
p2987
(dp2988
g3
(lp2989
S'You'
p2990
aS'know'
p2991
aS'what'
p2992
aS'really'
p2993
aS'grinds'
p2994
aS'my'
p2995
aS'gears'
p2996
asg12
S'You know what really grinds my gears '
p2997
sg14
S' when customers make "clever" remarks about getting an even number on their check '
p2998
sg16
Vwhat-grinds-my-gears
p2999
sg18
(lp3000
g2990
ag2991
ag2992
ag2993
ag2994
ag2995
ag2996
aS'when'
p3001
aS'customers'
p3002
aS'make'
p3003
aS'``'
p3004
aS'clever'
p3005
aS"''"
p3006
aS'remarks'
p3007
aS'about'
p3008
aS'getting'
p3009
aS'an'
p3010
aS'even'
p3011
aS'number'
p3012
aS'on'
p3013
aS'their'
p3014
aS'check'
p3015
asg24
(lp3016
g3001
ag3002
ag3003
ag3004
ag3005
ag3006
ag3007
ag3008
ag3009
ag3010
ag3011
ag3012
ag3013
ag3014
ag3015
asba(iMeme
Meme
p3017
(dp3018
g3
(lp3019
S'you'
p3020
aS'know'
p3021
aS'what'
p3022
aS'really'
p3023
aS'grinds'
p3024
aS'my'
p3025
aS'gears'
p3026
ag36
asg12
S'you know what really grinds my gears? '
p3027
sg14
S' Engagment photos '
p3028
sg16
Vwhat-grinds-my-gears
p3029
sg18
(lp3030
g3020
ag3021
ag3022
ag3023
ag3024
ag3025
ag3026
ag36
aS'Engagment'
p3031
aS'photos'
p3032
asg24
(lp3033
g3031
ag3032
asba(iMeme
Meme
p3034
(dp3035
g3
(lp3036
S'You'
p3037
aS'know'
p3038
aS'what'
p3039
aS'grinds'
p3040
aS'my'
p3041
aS'gears'
p3042
ag36
asg12
S'You know what grinds my gears? '
p3043
sg14
S' All the Xbox fans switching to ps4 '
p3044
sg16
Vwhat-grinds-my-gears
p3045
sg18
(lp3046
g3037
ag3038
ag3039
ag3040
ag3041
ag3042
ag36
aS'All'
p3047
aS'the'
p3048
aS'Xbox'
p3049
aS'fans'
p3050
aS'switching'
p3051
aS'to'
p3052
aS'ps4'
p3053
asg24
(lp3054
g3047
ag3048
ag3049
ag3050
ag3051
ag3052
ag3053
asba(iMeme
Meme
p3055
(dp3056
g3
(lp3057
S'You'
p3058
aS'know'
p3059
aS'what'
p3060
aS'really'
p3061
aS'grinds'
p3062
aS'my'
p3063
aS'gears'
p3064
ag36
asg12
S'You know what really grinds my gears? '
p3065
sg14
S" When people don't use memes correctly. "
p3066
sg16
Vwhat-grinds-my-gears
p3067
sg18
(lp3068
g3058
ag3059
ag3060
ag3061
ag3062
ag3063
ag3064
ag36
aS'When'
p3069
aS'people'
p3070
aS'do'
p3071
aS"n't"
p3072
aS'use'
p3073
aS'memes'
p3074
aS'correctly'
p3075
ag73
asg24
(lp3076
g3069
ag3070
ag3071
ag3072
ag3073
ag3074
ag3075
ag73
asba(iMeme
Meme
p3077
(dp3078
g3
(lp3079
S'You'
p3080
aS'know'
p3081
aS'what'
p3082
aS'really'
p3083
aS'grinds'
p3084
aS'my'
p3085
aS'gears'
p3086
asg12
S'You know what really grinds my gears '
p3087
sg14
S' GUILLERMO RAMOS ZAMORA AND HIS FAT ASS '
p3088
sg16
Vwhat-grinds-my-gears
p3089
sg18
(lp3090
g3080
ag3081
ag3082
ag3083
ag3084
ag3085
ag3086
aS'GUILLERMO'
p3091
aS'RAMOS'
p3092
aS'ZAMORA'
p3093
aS'AND'
p3094
aS'HIS'
p3095
aS'FAT'
p3096
aS'ASS'
p3097
asg24
(lp3098
g3091
ag3092
ag3093
ag3094
ag3095
ag3096
ag3097
asba(iMeme
Meme
p3099
(dp3100
g3
(lp3101
S'You'
p3102
aS'know'
p3103
aS'what'
p3104
aS'Grinds'
p3105
aS'My'
p3106
aS'Gears'
p3107
ag36
asg12
S'You know what Grinds My Gears? '
p3108
sg14
S' When everyone gets Invited to the Party eccept me! '
p3109
sg16
Vwhat-grinds-my-gears
p3110
sg18
(lp3111
g3102
ag3103
ag3104
ag3105
ag3106
ag3107
ag36
aS'When'
p3112
aS'everyone'
p3113
aS'gets'
p3114
aS'Invited'
p3115
aS'to'
p3116
aS'the'
p3117
aS'Party'
p3118
aS'eccept'
p3119
aS'me'
p3120
ag23
asg24
(lp3121
g3112
ag3113
ag3114
ag3115
ag3116
ag3117
ag3118
ag3119
ag3120
ag23
asba(iMeme
Meme
p3122
(dp3123
g3
(lp3124
S'you'
p3125
aS'know'
p3126
aS'what'
p3127
aS'grinds'
p3128
aS'my'
p3129
aS'gears'
p3130
asg12
S'you know what grinds my gears '
p3131
sg14
S' your mom '
p3132
sg16
Vwhat-grinds-my-gears
p3133
sg18
(lp3134
g3125
ag3126
ag3127
ag3128
ag3129
ag3130
aS'your'
p3135
aS'mom'
p3136
asg24
(lp3137
g3135
ag3136
asba(iMeme
Meme
p3138
(dp3139
g3
(lp3140
S'You'
p3141
aS'know'
p3142
aS'what'
p3143
aS'really'
p3144
aS'grinds'
p3145
aS'my'
p3146
aS'gears'
p3147
ag36
asg12
S'You know what really grinds my gears? '
p3148
sg14
S" When people quote the OP and don't remove the images. "
p3149
sg16
Vwhat-grinds-my-gears
p3150
sg18
(lp3151
g3141
ag3142
ag3143
ag3144
ag3145
ag3146
ag3147
ag36
aS'When'
p3152
aS'people'
p3153
aS'quote'
p3154
aS'the'
p3155
aS'OP'
p3156
aS'and'
p3157
aS'do'
p3158
aS"n't"
p3159
aS'remove'
p3160
aS'the'
p3161
aS'images'
p3162
ag73
asg24
(lp3163
g3152
ag3153
ag3154
ag3155
ag3156
ag3157
ag3158
ag3159
ag3160
ag3161
ag3162
ag73
asba(iMeme
Meme
p3164
(dp3165
g3
(lp3166
S'You'
p3167
aS'know'
p3168
aS'what'
p3169
aS'Grinds'
p3170
aS'My'
p3171
aS'Gears'
p3172
ag36
asg12
S'You know what Grinds My Gears? '
p3173
sg14
S' When everyone gets Invited eccept me! '
p3174
sg16
Vwhat-grinds-my-gears
p3175
sg18
(lp3176
g3167
ag3168
ag3169
ag3170
ag3171
ag3172
ag36
aS'When'
p3177
aS'everyone'
p3178
aS'gets'
p3179
aS'Invited'
p3180
aS'eccept'
p3181
aS'me'
p3182
ag23
asg24
(lp3183
g3177
ag3178
ag3179
ag3180
ag3181
ag3182
ag23
asba(iMeme
Meme
p3184
(dp3185
g3
(lp3186
S'you'
p3187
aS'know'
p3188
aS'what'
p3189
aS'realy'
p3190
aS'grinds'
p3191
aS'my'
p3192
aS'gears'
p3193
asg12
S'you know what realy grinds my gears '
p3194
sg14
S' is that the mexicans in the apartment next to me have to play there trumpet'
p3195
sg16
Vwhat-grinds-my-gears
p3196
sg18
(lp3197
g3187
ag3188
ag3189
ag3190
ag3191
ag3192
ag3193
aS'is'
p3198
aS'that'
p3199
aS'the'
p3200
aS'mexicans'
p3201
aS'in'
p3202
aS'the'
p3203
aS'apartment'
p3204
aS'next'
p3205
aS'to'
p3206
aS'me'
p3207
aS'have'
p3208
aS'to'
p3209
aS'play'
p3210
aS'there'
p3211
aS'trumpet'
p3212
asg24
(lp3213
g3198
ag3199
ag3200
ag3201
ag3202
ag3203
ag3204
ag3205
ag3206
ag3207
ag3208
ag3209
ag3210
ag3211
ag3212
asba(iMeme
Meme
p3214
(dp3215
g3
(lp3216
S'You'
p3217
aS'know'
p3218
aS'what'
p3219
aS'really'
p3220
aS'grinds'
p3221
aS'my'
p3222
aS'Gears'
p3223
ag36
asg12
S'You know what really grinds my Gears? '
p3224
sg14
S' Making my own Bed, but the lazy bed has fixed that '
p3225
sg16
Vwhat-grinds-my-gears
p3226
sg18
(lp3227
g3217
ag3218
ag3219
ag3220
ag3221
ag3222
ag3223
ag36
aS'Making'
p3228
aS'my'
p3229
aS'own'
p3230
aS'Bed'
p3231
ag71
aS'but'
p3232
aS'the'
p3233
aS'lazy'
p3234
aS'bed'
p3235
aS'has'
p3236
aS'fixed'
p3237
aS'that'
p3238
asg24
(lp3239
g3228
ag3229
ag3230
ag3231
ag71
ag3232
ag3233
ag3234
ag3235
ag3236
ag3237
ag3238
asba(iMeme
Meme
p3240
(dp3241
g3
(lp3242
S'you'
p3243
aS'know'
p3244
aS'what'
p3245
aS'really'
p3246
aS'grinds'
p3247
aS'my'
p3248
aS'gears'
p3249
ag36
asg12
S'you know what really grinds my gears? '
p3250
sg14
S' when scott tells us shit about driving that no one cares about '
p3251
sg16
Vwhat-grinds-my-gears
p3252
sg18
(lp3253
g3243
ag3244
ag3245
ag3246
ag3247
ag3248
ag3249
ag36
aS'when'
p3254
aS'scott'
p3255
aS'tells'
p3256
aS'us'
p3257
aS'shit'
p3258
aS'about'
p3259
aS'driving'
p3260
aS'that'
p3261
aS'no'
p3262
aS'one'
p3263
aS'cares'
p3264
aS'about'
p3265
asg24
(lp3266
g3254
ag3255
ag3256
ag3257
ag3258
ag3259
ag3260
ag3261
ag3262
ag3263
ag3264
ag3265
asba(iMeme
Meme
p3267
(dp3268
g3
(lp3269
sg12
S' '
p3270
sg14
S' When Taylor blew it. '
p3271
sg16
Vwhat-grinds-my-gears
p3272
sg18
(lp3273
S'When'
p3274
aS'Taylor'
p3275
aS'blew'
p3276
aS'it'
p3277
ag73
asg24
(lp3278
g3274
ag3275
ag3276
ag3277
ag73
asba(iMeme
Meme
p3279
(dp3280
g3
(lp3281
S'You'
p3282
aS'know'
p3283
aS'what'
p3284
aS'really'
p3285
aS'grinds'
p3286
aS'my'
p3287
aS'gears'
p3288
asg12
S'You know what really grinds my gears '
p3289
sg14
S' people who act like the ARBITERS of reddit when they find a repost  '
p3290
sg16
Vwhat-grinds-my-gears
p3291
sg18
(lp3292
g3282
ag3283
ag3284
ag3285
ag3286
ag3287
ag3288
aS'people'
p3293
aS'who'
p3294
aS'act'
p3295
aS'like'
p3296
aS'the'
p3297
aS'ARBITERS'
p3298
aS'of'
p3299
aS'reddit'
p3300
aS'when'
p3301
aS'they'
p3302
aS'find'
p3303
ag10
aS'repost'
p3304
asg24
(lp3305
g3293
ag3294
ag3295
ag3296
ag3297
ag3298
ag3299
ag3300
ag3301
ag3302
ag3303
ag10
ag3304
asba(iMeme
Meme
p3306
(dp3307
g3
(lp3308
S'Do'
p3309
aS'you'
p3310
aS'know'
p3311
aS'what'
p3312
aS'really'
p3313
aS'grinds'
p3314
aS'my'
p3315
aS'gears'
p3316
ag36
asg12
S'Do you know what really grinds my gears? '
p3317
sg14
S' Lack of viscosity  '
p3318
sg16
Vwhat-grinds-my-gears
p3319
sg18
(lp3320
g3309
ag3310
ag3311
ag3312
ag3313
ag3314
ag3315
ag3316
ag36
aS'Lack'
p3321
aS'of'
p3322
aS'viscosity'
p3323
asg24
(lp3324
g3321
ag3322
ag3323
asba(iMeme
Meme
p3325
(dp3326
g3
(lp3327
S'know'
p3328
aS'what'
p3329
aS'really'
p3330
aS'grinds'
p3331
aS'my'
p3332
aS'gears'
p3333
ag36
asg12
S'know what really grinds my gears? '
p3334
sg14
S' pulling over 15 cars and just getting a lousy cell phone anov out of it '
p3335
sg16
Vwhat-grinds-my-gears
p3336
sg18
(lp3337
g3328
ag3329
ag3330
ag3331
ag3332
ag3333
ag36
aS'pulling'
p3338
aS'over'
p3339
aS'15'
p3340
aS'cars'
p3341
aS'and'
p3342
aS'just'
p3343
aS'getting'
p3344
ag10
aS'lousy'
p3345
aS'cell'
p3346
aS'phone'
p3347
aS'anov'
p3348
aS'out'
p3349
aS'of'
p3350
aS'it'
p3351
asg24
(lp3352
g3338
ag3339
ag3340
ag3341
ag3342
ag3343
ag3344
ag10
ag3345
ag3346
ag3347
ag3348
ag3349
ag3350
ag3351
asba(iMeme
Meme
p3353
(dp3354
g3
(lp3355
S'you'
p3356
aS'know'
p3357
aS'what'
p3358
aS'really'
p3359
aS'grinds'
p3360
aS'my'
p3361
aS'gears'
p3362
asg12
S'you know what really grinds my gears '
p3363
sg14
S' is devin being a honkey bitch '
p3364
sg16
Vwhat-grinds-my-gears
p3365
sg18
(lp3366
g3356
ag3357
ag3358
ag3359
ag3360
ag3361
ag3362
aS'is'
p3367
aS'devin'
p3368
aS'being'
p3369
ag10
aS'honkey'
p3370
aS'bitch'
p3371
asg24
(lp3372
g3367
ag3368
ag3369
ag10
ag3370
ag3371
asba(iMeme
Meme
p3373
(dp3374
g3
(lp3375
S'You'
p3376
aS'know'
p3377
aS'what'
p3378
aS'really'
p3379
aS'grinds'
p3380
aS'my'
p3381
aS'gears'
p3382
asg12
S'You know what really grinds my gears '
p3383
sg14
S' Having to pick a food rep           Just vote Baileigh '
p3384
sg16
Vwhat-grinds-my-gears
p3385
sg18
(lp3386
g3376
ag3377
ag3378
ag3379
ag3380
ag3381
ag3382
aS'Having'
p3387
aS'to'
p3388
aS'pick'
p3389
ag10
aS'food'
p3390
aS'rep'
p3391
aS'Just'
p3392
aS'vote'
p3393
aS'Baileigh'
p3394
asg24
(lp3395
g3387
ag3388
ag3389
ag10
ag3390
ag3391
ag3392
ag3393
ag3394
asba(iMeme
Meme
p3396
(dp3397
g3
(lp3398
S'You'
p3399
aS'know'
p3400
aS'what'
p3401
aS'really'
p3402
aS'grinds'
p3403
aS'my'
p3404
aS'ears'
p3405
asg12
S'You know what really grinds my ears '
p3406
sg14
S" People who don't talk to you for months and then ask you a favor "
p3407
sg16
Vwhat-grinds-my-gears
p3408
sg18
(lp3409
g3399
ag3400
ag3401
ag3402
ag3403
ag3404
ag3405
aS'People'
p3410
aS'who'
p3411
aS'do'
p3412
aS"n't"
p3413
aS'talk'
p3414
aS'to'
p3415
aS'you'
p3416
aS'for'
p3417
aS'months'
p3418
aS'and'
p3419
aS'then'
p3420
aS'ask'
p3421
aS'you'
p3422
ag10
aS'favor'
p3423
asg24
(lp3424
g3410
ag3411
ag3412
ag3413
ag3414
ag3415
ag3416
ag3417
ag3418
ag3419
ag3420
ag3421
ag3422
ag10
ag3423
asba(iMeme
Meme
p3425
(dp3426
g3
(lp3427
S'Guy'
p3428
ag119
aS"'ve"
p3429
aS'been'
p3430
aS'sleeping'
p3431
aS'with'
p3432
aS'was'
p3433
aS'mad'
p3434
aS'that'
p3435
ag119
aS'told'
p3436
aS'him'
p3437
ag119
aS'was'
p3438
aS'23'
p3439
aS'when'
p3440
ag119
aS'was'
p3441
aS'actually'
p3442
aS'22'
p3443
aS'and'
p3444
aS'2'
p3445
aS'weeks'
p3446
aS'away'
p3447
aS'from'
p3448
aS'23'
p3449
asg12
S"Guy I've been sleeping with was mad that I told him I was 23 when I was actually 22 and 2 weeks away from 23 "
p3450
sg14
S" Told me he's 29 and is really 34 "
p3451
sg16
Vwhat-grinds-my-gears
p3452
sg18
(lp3453
g3428
ag119
ag3429
ag3430
ag3431
ag3432
ag3433
ag3434
ag3435
ag119
ag3436
ag3437
ag119
ag3438
ag3439
ag3440
ag119
ag3441
ag3442
ag3443
ag3444
ag3445
ag3446
ag3447
ag3448
ag3449
aS'Told'
p3454
aS'me'
p3455
aS'he'
p3456
aS"'s"
p3457
aS'29'
p3458
aS'and'
p3459
aS'is'
p3460
aS'really'
p3461
aS'34'
p3462
asg24
(lp3463
g3454
ag3455
ag3456
ag3457
ag3458
ag3459
ag3460
ag3461
ag3462
asba(iMeme
Meme
p3464
(dp3465
g3
(lp3466
S'You'
p3467
aS'know'
p3468
aS'what'
p3469
aS'really'
p3470
aS'grinds'
p3471
aS'my'
p3472
aS'gears'
p3473
ag36
asg12
S'You know what really grinds my gears? '
p3474
sg14
S' That you can live off of 0% health in Battlefield 3 '
p3475
sg16
Vwhat-grinds-my-gears
p3476
sg18
(lp3477
g3467
ag3468
ag3469
ag3470
ag3471
ag3472
ag3473
ag36
aS'That'
p3478
aS'you'
p3479
aS'can'
p3480
aS'live'
p3481
aS'off'
p3482
aS'of'
p3483
aS'0'
p3484
ag2210
aS'health'
p3485
aS'in'
p3486
aS'Battlefield'
p3487
ag1288
asg24
(lp3488
g3478
ag3479
ag3480
ag3481
ag3482
ag3483
ag3484
ag2210
ag3485
ag3486
ag3487
ag1288
asba(iMeme
Meme
p3489
(dp3490
g3
(lp3491
S'You'
p3492
aS'know'
p3493
aS'what'
p3494
aS'really'
p3495
aS'grinds'
p3496
aS'my'
p3497
aS'gears'
p3498
ag36
asg12
S'You know what really grinds my gears? '
p3499
sg14
S' my nephew learning to drive in my 6'
p3500
sg16
Vwhat-grinds-my-gears
p3501
sg18
(lp3502
g3492
ag3493
ag3494
ag3495
ag3496
ag3497
ag3498
ag36
aS'my'
p3503
aS'nephew'
p3504
aS'learning'
p3505
aS'to'
p3506
aS'drive'
p3507
aS'in'
p3508
aS'my'
p3509
aS'6'
p3510
asg24
(lp3511
g3503
ag3504
ag3505
ag3506
ag3507
ag3508
ag3509
ag3510
asba(iMeme
Meme
p3512
(dp3513
g3
(lp3514
S'you'
p3515
aS'know'
p3516
aS'what'
p3517
aS'grinds'
p3518
aS'my'
p3519
aS'gears'
p3520
ag36
asg12
S'you know what grinds my gears? '
p3521
sg14
S" when you don't stop by our garage sale "
p3522
sg16
Vwhat-grinds-my-gears
p3523
sg18
(lp3524
g3515
ag3516
ag3517
ag3518
ag3519
ag3520
ag36
aS'when'
p3525
aS'you'
p3526
aS'do'
p3527
aS"n't"
p3528
aS'stop'
p3529
aS'by'
p3530
aS'our'
p3531
aS'garage'
p3532
aS'sale'
p3533
asg24
(lp3534
g3525
ag3526
ag3527
ag3528
ag3529
ag3530
ag3531
ag3532
ag3533
asba(iMeme
Meme
p3535
(dp3536
g3
(lp3537
S'you'
p3538
aS'know'
p3539
aS'what'
p3540
aS'really'
p3541
aS'grinds'
p3542
aS'my'
p3543
aS'gears'
p3544
ag36
asg12
S'you know what really grinds my gears? '
p3545
sg14
S' drivers who stop 70 feet away from the next car, then decide to close the gap after a few minutes '
p3546
sg16
Vwhat-grinds-my-gears
p3547
sg18
(lp3548
g3538
ag3539
ag3540
ag3541
ag3542
ag3543
ag3544
ag36
aS'drivers'
p3549
aS'who'
p3550
aS'stop'
p3551
aS'70'
p3552
aS'feet'
p3553
aS'away'
p3554
aS'from'
p3555
aS'the'
p3556
aS'next'
p3557
aS'car'
p3558
ag71
aS'then'
p3559
aS'decide'
p3560
aS'to'
p3561
aS'close'
p3562
aS'the'
p3563
aS'gap'
p3564
aS'after'
p3565
ag10
aS'few'
p3566
aS'minutes'
p3567
asg24
(lp3568
g3549
ag3550
ag3551
ag3552
ag3553
ag3554
ag3555
ag3556
ag3557
ag3558
ag71
ag3559
ag3560
ag3561
ag3562
ag3563
ag3564
ag3565
ag10
ag3566
ag3567
asba(iMeme
Meme
p3569
(dp3570
g3
(lp3571
S'Romeo'
p3572
aS'and'
p3573
aS'Juliet'
p3574
asg12
S'Romeo and Juliet  '
p3575
sg14
S' thats what grinds my gears '
p3576
sg16
Vwhat-grinds-my-gears
p3577
sg18
(lp3578
g3572
ag3573
ag3574
aS'thats'
p3579
aS'what'
p3580
aS'grinds'
p3581
aS'my'
p3582
aS'gears'
p3583
asg24
(lp3584
g3579
ag3580
ag3581
ag3582
ag3583
asba(iMeme
Meme
p3585
(dp3586
g3
(lp3587
S'You'
p3588
aS'know'
p3589
aS'what'
p3590
aS'really'
p3591
aS'grinds'
p3592
aS'my'
p3593
aS'gears'
p3594
ag36
asg12
S'You know what really grinds my gears? '
p3595
sg14
S' When people put as a tittle the same as the post says '
p3596
sg16
Vwhat-grinds-my-gears
p3597
sg18
(lp3598
g3588
ag3589
ag3590
ag3591
ag3592
ag3593
ag3594
ag36
aS'When'
p3599
aS'people'
p3600
aS'put'
p3601
aS'as'
p3602
ag10
aS'tittle'
p3603
aS'the'
p3604
aS'same'
p3605
aS'as'
p3606
aS'the'
p3607
aS'post'
p3608
aS'says'
p3609
asg24
(lp3610
g3599
ag3600
ag3601
ag3602
ag10
ag3603
ag3604
ag3605
ag3606
ag3607
ag3608
ag3609
asba(iMeme
Meme
p3611
(dp3612
g3
(lp3613
S'you'
p3614
aS'know'
p3615
aS'what'
p3616
aS'really'
p3617
aS'grinds'
p3618
aS'my'
p3619
aS'gears'
p3620
asg12
S'you know what really grinds my gears  '
p3621
sg14
S' when a season ends with a cliff hanger  '
p3622
sg16
Vwhat-grinds-my-gears
p3623
sg18
(lp3624
g3614
ag3615
ag3616
ag3617
ag3618
ag3619
ag3620
aS'when'
p3625
ag10
aS'season'
p3626
aS'ends'
p3627
aS'with'
p3628
ag10
aS'cliff'
p3629
aS'hanger'
p3630
asg24
(lp3631
g3625
ag10
ag3626
ag3627
ag3628
ag10
ag3629
ag3630
asba(iMeme
Meme
p3632
(dp3633
g3
(lp3634
S'What'
p3635
aS'really'
p3636
aS'grinds'
p3637
aS'my'
p3638
aS'gears'
p3639
ag36
asg12
S'What really grinds my gears? '
p3640
sg14
S' When I spend a long time writing a huge comment and trying my best, only to get downvoted to oblivion '
p3641
sg16
Vwhat-grinds-my-gears
p3642
sg18
(lp3643
g3635
ag3636
ag3637
ag3638
ag3639
ag36
aS'When'
p3644
ag119
aS'spend'
p3645
ag10
aS'long'
p3646
aS'time'
p3647
aS'writing'
p3648
ag10
aS'huge'
p3649
aS'comment'
p3650
aS'and'
p3651
aS'trying'
p3652
aS'my'
p3653
aS'best'
p3654
ag71
aS'only'
p3655
aS'to'
p3656
aS'get'
p3657
aS'downvoted'
p3658
aS'to'
p3659
aS'oblivion'
p3660
asg24
(lp3661
g3644
ag119
ag3645
ag10
ag3646
ag3647
ag3648
ag10
ag3649
ag3650
ag3651
ag3652
ag3653
ag3654
ag71
ag3655
ag3656
ag3657
ag3658
ag3659
ag3660
asba(iMeme
Meme
p3662
(dp3663
g3
(lp3664
S'You'
p3665
aS'know'
p3666
aS'what'
p3667
aS'really'
p3668
aS'grinds'
p3669
aS'my'
p3670
aS'gears'
p3671
asg12
S'You know what really grinds my gears '
p3672
sg14
S" When i go to the trending page and 90% of the posts are the ones i've already seen on the hot page "
p3673
sg16
Vwhat-grinds-my-gears
p3674
sg18
(lp3675
g3665
ag3666
ag3667
ag3668
ag3669
ag3670
ag3671
aS'When'
p3676
ag93
aS'go'
p3677
aS'to'
p3678
aS'the'
p3679
aS'trending'
p3680
aS'page'
p3681
aS'and'
p3682
aS'90'
p3683
ag2210
aS'of'
p3684
aS'the'
p3685
aS'posts'
p3686
aS'are'
p3687
aS'the'
p3688
aS'ones'
p3689
ag93
aS"'ve"
p3690
aS'already'
p3691
aS'seen'
p3692
aS'on'
p3693
aS'the'
p3694
aS'hot'
p3695
aS'page'
p3696
asg24
(lp3697
g3676
ag93
ag3677
ag3678
ag3679
ag3680
ag3681
ag3682
ag3683
ag2210
ag3684
ag3685
ag3686
ag3687
ag3688
ag3689
ag93
ag3690
ag3691
ag3692
ag3693
ag3694
ag3695
ag3696
asba(iMeme
Meme
p3698
(dp3699
g3
(lp3700
S'You'
p3701
aS'know'
p3702
aS'what'
p3703
aS'really'
p3704
aS'grinds'
p3705
aS'my'
p3706
aS'gears'
p3707
ag36
asg12
S'You know what really grinds my gears? '
p3708
sg14
S' When Newly weds delete their personal facebook accounts and make one joint account '
p3709
sg16
Vwhat-grinds-my-gears
p3710
sg18
(lp3711
g3701
ag3702
ag3703
ag3704
ag3705
ag3706
ag3707
ag36
aS'When'
p3712
aS'Newly'
p3713
aS'weds'
p3714
aS'delete'
p3715
aS'their'
p3716
aS'personal'
p3717
aS'facebook'
p3718
aS'accounts'
p3719
aS'and'
p3720
aS'make'
p3721
aS'one'
p3722
aS'joint'
p3723
aS'account'
p3724
asg24
(lp3725
g3712
ag3713
ag3714
ag3715
ag3716
ag3717
ag3718
ag3719
ag3720
ag3721
ag3722
ag3723
ag3724
asba(iMeme
Meme
p3726
(dp3727
g3
(lp3728
S'What'
p3729
aS'really'
p3730
aS'grinds'
p3731
aS'me'
p3732
aS'gears'
p3733
ag36
asg12
S'What really grinds me gears? '
p3734
sg14
S' When I spend a long time writing a huge comment and trying my best, only to get downvoted to oblivion '
p3735
sg16
Vwhat-grinds-my-gears
p3736
sg18
(lp3737
g3729
ag3730
ag3731
ag3732
ag3733
ag36
aS'When'
p3738
ag119
aS'spend'
p3739
ag10
aS'long'
p3740
aS'time'
p3741
aS'writing'
p3742
ag10
aS'huge'
p3743
aS'comment'
p3744
aS'and'
p3745
aS'trying'
p3746
aS'my'
p3747
aS'best'
p3748
ag71
aS'only'
p3749
aS'to'
p3750
aS'get'
p3751
aS'downvoted'
p3752
aS'to'
p3753
aS'oblivion'
p3754
asg24
(lp3755
g3738
ag119
ag3739
ag10
ag3740
ag3741
ag3742
ag10
ag3743
ag3744
ag3745
ag3746
ag3747
ag3748
ag71
ag3749
ag3750
ag3751
ag3752
ag3753
ag3754
asba(iMeme
Meme
p3756
(dp3757
g3
(lp3758
S'you'
p3759
aS'know'
p3760
aS'what'
p3761
aS'really'
p3762
aS'grinds'
p3763
aS'my'
p3764
aS'gears'
p3765
ag36
asg12
S'you know what really grinds my gears? '
p3766
sg14
S" obama grilling bush only to find that he's the same type of rat fuck as that son of a bitch "
p3767
sg16
Vwhat-grinds-my-gears
p3768
sg18
(lp3769
g3759
ag3760
ag3761
ag3762
ag3763
ag3764
ag3765
ag36
aS'obama'
p3770
aS'grilling'
p3771
aS'bush'
p3772
aS'only'
p3773
aS'to'
p3774
aS'find'
p3775
aS'that'
p3776
aS'he'
p3777
aS"'s"
p3778
aS'the'
p3779
aS'same'
p3780
aS'type'
p3781
aS'of'
p3782
aS'rat'
p3783
aS'fuck'
p3784
aS'as'
p3785
aS'that'
p3786
aS'son'
p3787
aS'of'
p3788
ag10
aS'bitch'
p3789
asg24
(lp3790
g3770
ag3771
ag3772
ag3773
ag3774
ag3775
ag3776
ag3777
ag3778
ag3779
ag3780
ag3781
ag3782
ag3783
ag3784
ag3785
ag3786
ag3787
ag3788
ag10
ag3789
asba(iMeme
Meme
p3791
(dp3792
g3
(lp3793
S'You'
p3794
aS'know'
p3795
aS'what'
p3796
aS'really'
p3797
aS'grinds'
p3798
aS'my'
p3799
aS'gears'
p3800
asg12
S'You know what really grinds my gears  '
p3801
sg14
S' when I click a link on my phone and it redirects to the mobile homepage. '
p3802
sg16
Vwhat-grinds-my-gears
p3803
sg18
(lp3804
g3794
ag3795
ag3796
ag3797
ag3798
ag3799
ag3800
aS'when'
p3805
ag119
aS'click'
p3806
ag10
aS'link'
p3807
aS'on'
p3808
aS'my'
p3809
aS'phone'
p3810
aS'and'
p3811
aS'it'
p3812
aS'redirects'
p3813
aS'to'
p3814
aS'the'
p3815
aS'mobile'
p3816
aS'homepage'
p3817
ag73
asg24
(lp3818
g3805
ag119
ag3806
ag10
ag3807
ag3808
ag3809
ag3810
ag3811
ag3812
ag3813
ag3814
ag3815
ag3816
ag3817
ag73
asba(iMeme
Meme
p3819
(dp3820
g3
(lp3821
S'You'
p3822
aS'know'
p3823
aS'what'
p3824
aS'really'
p3825
aS'grinds'
p3826
aS'my'
p3827
aS'gears'
p3828
ag36
asg12
S'You know what really grinds my gears? '
p3829
sg14
S" When professors don't email you that class is cancelled, but instead post a note on the classroom door. "
p3830
sg16
Vwhat-grinds-my-gears
p3831
sg18
(lp3832
g3822
ag3823
ag3824
ag3825
ag3826
ag3827
ag3828
ag36
aS'When'
p3833
aS'professors'
p3834
aS'do'
p3835
aS"n't"
p3836
aS'email'
p3837
aS'you'
p3838
aS'that'
p3839
aS'class'
p3840
aS'is'
p3841
aS'cancelled'
p3842
ag71
aS'but'
p3843
aS'instead'
p3844
aS'post'
p3845
ag10
aS'note'
p3846
aS'on'
p3847
aS'the'
p3848
aS'classroom'
p3849
aS'door'
p3850
ag73
asg24
(lp3851
g3833
ag3834
ag3835
ag3836
ag3837
ag3838
ag3839
ag3840
ag3841
ag3842
ag71
ag3843
ag3844
ag3845
ag10
ag3846
ag3847
ag3848
ag3849
ag3850
ag73
asba(iMeme
Meme
p3852
(dp3853
g3
(lp3854
S'You'
p3855
aS'know'
p3856
aS'what'
p3857
aS'really'
p3858
aS'grinds'
p3859
aS'my'
p3860
aS'gears'
p3861
ag36
asg12
S'You know what really grinds my gears? '
p3862
sg14
S' Working 12 hour shifts for no fucking reason! '
p3863
sg16
Vwhat-grinds-my-gears
p3864
sg18
(lp3865
g3855
ag3856
ag3857
ag3858
ag3859
ag3860
ag3861
ag36
aS'Working'
p3866
aS'12'
p3867
aS'hour'
p3868
aS'shifts'
p3869
aS'for'
p3870
aS'no'
p3871
aS'fucking'
p3872
aS'reason'
p3873
ag23
asg24
(lp3874
g3866
ag3867
ag3868
ag3869
ag3870
ag3871
ag3872
ag3873
ag23
asba(iMeme
Meme
p3875
(dp3876
g3
(lp3877
S'You'
p3878
aS'knowwhat'
p3879
aS'really'
p3880
aS'grinds'
p3881
aS'my'
p3882
aS'gears'
p3883
ag36
asg12
S'You knowwhat really grinds my gears? '
p3884
sg14
S' Working 12 hour shifts for no fucking reason. '
p3885
sg16
Vwhat-grinds-my-gears
p3886
sg18
(lp3887
g3878
ag3879
ag3880
ag3881
ag3882
ag3883
ag36
aS'Working'
p3888
aS'12'
p3889
aS'hour'
p3890
aS'shifts'
p3891
aS'for'
p3892
aS'no'
p3893
aS'fucking'
p3894
aS'reason'
p3895
ag73
asg24
(lp3896
g3888
ag3889
ag3890
ag3891
ag3892
ag3893
ag3894
ag3895
ag73
asba(iMeme
Meme
p3897
(dp3898
g3
(lp3899
S'You'
p3900
aS'know'
p3901
aS'what'
p3902
aS'really'
p3903
aS'grinds'
p3904
aS'my'
p3905
aS'gears'
p3906
ag36
asg12
S'You know what really grinds my gears? '
p3907
sg14
S" When I'm going to make a right turn at a red light, and someone going straight moves into the right lane. "
p3908
sg16
Vwhat-grinds-my-gears
p3909
sg18
(lp3910
g3900
ag3901
ag3902
ag3903
ag3904
ag3905
ag3906
ag36
aS'When'
p3911
ag119
aS"'m"
p3912
aS'going'
p3913
aS'to'
p3914
aS'make'
p3915
ag10
aS'right'
p3916
aS'turn'
p3917
aS'at'
p3918
ag10
aS'red'
p3919
aS'light'
p3920
ag71
aS'and'
p3921
aS'someone'
p3922
aS'going'
p3923
aS'straight'
p3924
aS'moves'
p3925
aS'into'
p3926
aS'the'
p3927
aS'right'
p3928
aS'lane'
p3929
ag73
asg24
(lp3930
g3911
ag119
ag3912
ag3913
ag3914
ag3915
ag10
ag3916
ag3917
ag3918
ag10
ag3919
ag3920
ag71
ag3921
ag3922
ag3923
ag3924
ag3925
ag3926
ag3927
ag3928
ag3929
ag73
asba(iMeme
Meme
p3931
(dp3932
g3
(lp3933
S'You'
p3934
aS'know'
p3935
aS'what'
p3936
aS'really'
p3937
aS'grinds'
p3938
aS'my'
p3939
aS'gears'
p3940
ag36
asg12
S'You know what really grinds my gears? '
p3941
sg14
S' When I want to make a right turn at a red light, and someone going straight cuts in front of me so they are one car closer to the intersection. '
p3942
sg16
Vwhat-grinds-my-gears
p3943
sg18
(lp3944
g3934
ag3935
ag3936
ag3937
ag3938
ag3939
ag3940
ag36
aS'When'
p3945
ag119
aS'want'
p3946
aS'to'
p3947
aS'make'
p3948
ag10
aS'right'
p3949
aS'turn'
p3950
aS'at'
p3951
ag10
aS'red'
p3952
aS'light'
p3953
ag71
aS'and'
p3954
aS'someone'
p3955
aS'going'
p3956
aS'straight'
p3957
aS'cuts'
p3958
aS'in'
p3959
aS'front'
p3960
aS'of'
p3961
aS'me'
p3962
aS'so'
p3963
aS'they'
p3964
aS'are'
p3965
aS'one'
p3966
aS'car'
p3967
aS'closer'
p3968
aS'to'
p3969
aS'the'
p3970
aS'intersection'
p3971
ag73
asg24
(lp3972
g3945
ag119
ag3946
ag3947
ag3948
ag10
ag3949
ag3950
ag3951
ag10
ag3952
ag3953
ag71
ag3954
ag3955
ag3956
ag3957
ag3958
ag3959
ag3960
ag3961
ag3962
ag3963
ag3964
ag3965
ag3966
ag3967
ag3968
ag3969
ag3970
ag3971
ag73
asba(iMeme
Meme
p3973
(dp3974
g3
(lp3975
S'do'
p3976
aS'you'
p3977
aS'know'
p3978
aS'what'
p3979
aS'really'
p3980
aS'grinds'
p3981
aS'my'
p3982
aS'gears'
p3983
asg12
S'do you know what really grinds my gears '
p3984
sg14
S' people trying to buy $20 worth of energy drinks and give an additude when thier transaction is denied '
p3985
sg16
Vwhat-grinds-my-gears
p3986
sg18
(lp3987
g3976
ag3977
ag3978
ag3979
ag3980
ag3981
ag3982
ag3983
aS'people'
p3988
aS'trying'
p3989
aS'to'
p3990
aS'buy'
p3991
ag621
aS'20'
p3992
aS'worth'
p3993
aS'of'
p3994
aS'energy'
p3995
aS'drinks'
p3996
aS'and'
p3997
aS'give'
p3998
aS'an'
p3999
aS'additude'
p4000
aS'when'
p4001
aS'thier'
p4002
aS'transaction'
p4003
aS'is'
p4004
aS'denied'
p4005
asg24
(lp4006
g3988
ag3989
ag3990
ag3991
ag621
ag3992
ag3993
ag3994
ag3995
ag3996
ag3997
ag3998
ag3999
ag4000
ag4001
ag4002
ag4003
ag4004
ag4005
asba(iMeme
Meme
p4007
(dp4008
g3
(lp4009
S'You'
p4010
aS'know'
p4011
aS'what'
p4012
aS'really'
p4013
aS'grinds'
p4014
aS'my'
p4015
aS'gears'
p4016
ag36
asg12
S'You know what really grinds my gears? '
p4017
sg14
S' the fact that unhealthy food is always the nicest '
p4018
sg16
Vwhat-grinds-my-gears
p4019
sg18
(lp4020
g4010
ag4011
ag4012
ag4013
ag4014
ag4015
ag4016
ag36
aS'the'
p4021
aS'fact'
p4022
aS'that'
p4023
aS'unhealthy'
p4024
aS'food'
p4025
aS'is'
p4026
aS'always'
p4027
aS'the'
p4028
aS'nicest'
p4029
asg24
(lp4030
g4021
ag4022
ag4023
ag4024
ag4025
ag4026
ag4027
ag4028
ag4029
asba(iMeme
Meme
p4031
(dp4032
g3
(lp4033
S'You'
p4034
aS'know'
p4035
aS'what'
p4036
aS'really'
p4037
aS'grinds'
p4038
aS'my'
p4039
aS'gears'
p4040
asg12
S'You know what really grinds my gears '
p4041
sg14
S" when I'm making a password and it says its weak or doesnt meet the requirements "
p4042
sg16
Vwhat-grinds-my-gears
p4043
sg18
(lp4044
g4034
ag4035
ag4036
ag4037
ag4038
ag4039
ag4040
aS'when'
p4045
ag119
aS"'m"
p4046
aS'making'
p4047
ag10
aS'password'
p4048
aS'and'
p4049
aS'it'
p4050
aS'says'
p4051
aS'its'
p4052
aS'weak'
p4053
aS'or'
p4054
aS'doesnt'
p4055
aS'meet'
p4056
aS'the'
p4057
aS'requirements'
p4058
asg24
(lp4059
g4045
ag119
ag4046
ag4047
ag10
ag4048
ag4049
ag4050
ag4051
ag4052
ag4053
ag4054
ag4055
ag4056
ag4057
ag4058
asba(iMeme
Meme
p4060
(dp4061
g3
(lp4062
S'You'
p4063
aS'know'
p4064
aS'what'
p4065
aS'really'
p4066
aS'grinds'
p4067
aS'my'
p4068
aS'gears'
p4069
ag36
asg12
S'You know what really grinds my gears? '
p4070
sg14
S' When a website requires you to login with your email but it says username '
p4071
sg16
Vwhat-grinds-my-gears
p4072
sg18
(lp4073
g4063
ag4064
ag4065
ag4066
ag4067
ag4068
ag4069
ag36
aS'When'
p4074
ag10
aS'website'
p4075
aS'requires'
p4076
aS'you'
p4077
aS'to'
p4078
aS'login'
p4079
aS'with'
p4080
aS'your'
p4081
aS'email'
p4082
aS'but'
p4083
aS'it'
p4084
aS'says'
p4085
aS'username'
p4086
asg24
(lp4087
g4074
ag10
ag4075
ag4076
ag4077
ag4078
ag4079
ag4080
ag4081
ag4082
ag4083
ag4084
ag4085
ag4086
asba(iMeme
Meme
p4088
(dp4089
g3
(lp4090
S'You'
p4091
aS'know'
p4092
aS'what'
p4093
aS'really'
p4094
aS'grinds'
p4095
aS'my'
p4096
aS'gears'
p4097
ag36
asg12
S'You know what really grinds my gears? '
p4098
sg14
S" When people try and set me up with their one lonely, fat, friend because i'm also fat "
p4099
sg16
Vwhat-grinds-my-gears
p4100
sg18
(lp4101
g4091
ag4092
ag4093
ag4094
ag4095
ag4096
ag4097
ag36
aS'When'
p4102
aS'people'
p4103
aS'try'
p4104
aS'and'
p4105
aS'set'
p4106
aS'me'
p4107
aS'up'
p4108
aS'with'
p4109
aS'their'
p4110
aS'one'
p4111
aS'lonely'
p4112
ag71
aS'fat'
p4113
ag71
aS'friend'
p4114
aS'because'
p4115
ag93
aS"'m"
p4116
aS'also'
p4117
aS'fat'
p4118
asg24
(lp4119
g4102
ag4103
ag4104
ag4105
ag4106
ag4107
ag4108
ag4109
ag4110
ag4111
ag4112
ag71
ag4113
ag71
ag4114
ag4115
ag93
ag4116
ag4117
ag4118
asba(iMeme
Meme
p4120
(dp4121
g3
(lp4122
g119
aS'tell'
p4123
aS'you'
p4124
aS'what'
p4125
aS'grinds'
p4126
aS'my'
p4127
aS'gears'
p4128
asg12
S'I tell you what grinds my gears '
p4129
sg14
S' Parents who let their kids get away with everything at home then set them lose on the world to act like spoiled brats because of lack of boundaries at home. '
p4130
sg16
Vwhat-grinds-my-gears
p4131
sg18
(lp4132
g119
ag4123
ag4124
ag4125
ag4126
ag4127
ag4128
aS'Parents'
p4133
aS'who'
p4134
aS'let'
p4135
aS'their'
p4136
aS'kids'
p4137
aS'get'
p4138
aS'away'
p4139
aS'with'
p4140
aS'everything'
p4141
aS'at'
p4142
aS'home'
p4143
aS'then'
p4144
aS'set'
p4145
aS'them'
p4146
aS'lose'
p4147
aS'on'
p4148
aS'the'
p4149
aS'world'
p4150
aS'to'
p4151
aS'act'
p4152
aS'like'
p4153
aS'spoiled'
p4154
aS'brats'
p4155
aS'because'
p4156
aS'of'
p4157
aS'lack'
p4158
aS'of'
p4159
aS'boundaries'
p4160
aS'at'
p4161
aS'home'
p4162
ag73
asg24
(lp4163
g4133
ag4134
ag4135
ag4136
ag4137
ag4138
ag4139
ag4140
ag4141
ag4142
ag4143
ag4144
ag4145
ag4146
ag4147
ag4148
ag4149
ag4150
ag4151
ag4152
ag4153
ag4154
ag4155
ag4156
ag4157
ag4158
ag4159
ag4160
ag4161
ag4162
ag73
asba(iMeme
Meme
p4164
(dp4165
g3
(lp4166
S'you'
p4167
aS'know'
p4168
aS'what'
p4169
aS'really'
p4170
aS'grinds'
p4171
aS'my'
p4172
aS'gears'
p4173
ag36
asg12
S'you know what really grinds my gears? '
p4174
sg14
S' THIS SHIT '
p4175
sg16
Vwhat-grinds-my-gears
p4176
sg18
(lp4177
g4167
ag4168
ag4169
ag4170
ag4171
ag4172
ag4173
ag36
aS'THIS'
p4178
aS'SHIT'
p4179
asg24
(lp4180
g4178
ag4179
asba(iMeme
Meme
p4181
(dp4182
g3
(lp4183
S'you'
p4184
aS'know'
p4185
aS'what'
p4186
aS'really'
p4187
aS'grinds'
p4188
aS'my'
p4189
aS'gears'
p4190
asg12
S'you know what really grinds my gears '
p4191
sg14
S' people who resort to trash talking after losing anargument '
p4192
sg16
Vwhat-grinds-my-gears
p4193
sg18
(lp4194
g4184
ag4185
ag4186
ag4187
ag4188
ag4189
ag4190
aS'people'
p4195
aS'who'
p4196
aS'resort'
p4197
aS'to'
p4198
aS'trash'
p4199
aS'talking'
p4200
aS'after'
p4201
aS'losing'
p4202
aS'anargument'
p4203
asg24
(lp4204
g4195
ag4196
ag4197
ag4198
ag4199
ag4200
ag4201
ag4202
ag4203
asba(iMeme
Meme
p4205
(dp4206
g3
(lp4207
S'want'
p4208
aS'to'
p4209
aS'know'
p4210
aS'what'
p4211
aS'grinds'
p4212
aS'my'
p4213
aS'gears'
p4214
ag36
asg12
S'want to know what grinds my gears? '
p4215
sg14
S"  people who comment on my askreddit but don't upvote "
p4216
sg16
Vwhat-grinds-my-gears
p4217
sg18
(lp4218
g4208
ag4209
ag4210
ag4211
ag4212
ag4213
ag4214
ag36
aS'people'
p4219
aS'who'
p4220
aS'comment'
p4221
aS'on'
p4222
aS'my'
p4223
aS'askreddit'
p4224
aS'but'
p4225
aS'do'
p4226
aS"n't"
p4227
aS'upvote'
p4228
asg24
(lp4229
g4219
ag4220
ag4221
ag4222
ag4223
ag4224
ag4225
ag4226
ag4227
ag4228
asba(iMeme
Meme
p4230
(dp4231
g3
(lp4232
S'you'
p4233
aS'know'
p4234
aS'what'
p4235
aS'really'
p4236
aS'grinds'
p4237
aS'my'
p4238
aS'gears'
p4239
asg12
S'you know what really grinds my gears '
p4240
sg14
S' people who resort to trash talking after losing an argument '
p4241
sg16
Vwhat-grinds-my-gears
p4242
sg18
(lp4243
g4233
ag4234
ag4235
ag4236
ag4237
ag4238
ag4239
aS'people'
p4244
aS'who'
p4245
aS'resort'
p4246
aS'to'
p4247
aS'trash'
p4248
aS'talking'
p4249
aS'after'
p4250
aS'losing'
p4251
aS'an'
p4252
aS'argument'
p4253
asg24
(lp4254
g4244
ag4245
ag4246
ag4247
ag4248
ag4249
ag4250
ag4251
ag4252
ag4253
asba(iMeme
Meme
p4255
(dp4256
g3
(lp4257
S'Just'
p4258
aS'in'
p4259
asg12
S'Just in '
p4260
sg14
S' Nobody cares! '
p4261
sg16
Vwhat-grinds-my-gears
p4262
sg18
(lp4263
g4258
ag4259
aS'Nobody'
p4264
aS'cares'
p4265
ag23
asg24
(lp4266
g4264
ag4265
ag23
asba(iMeme
Meme
p4267
(dp4268
g3
(lp4269
S'want'
p4270
aS'to'
p4271
aS'know'
p4272
aS'what'
p4273
aS'grinds'
p4274
aS'my'
p4275
aS'gears'
p4276
ag36
asg12
S'want to know what grinds my gears? '
p4277
sg14
S"  people who comment on my askreddit but don't upvote "
p4278
sg16
Vwhat-grinds-my-gears
p4279
sg18
(lp4280
g4270
ag4271
ag4272
ag4273
ag4274
ag4275
ag4276
ag36
aS'people'
p4281
aS'who'
p4282
aS'comment'
p4283
aS'on'
p4284
aS'my'
p4285
aS'askreddit'
p4286
aS'but'
p4287
aS'do'
p4288
aS"n't"
p4289
aS'upvote'
p4290
asg24
(lp4291
g4281
ag4282
ag4283
ag4284
ag4285
ag4286
ag4287
ag4288
ag4289
ag4290
asba(iMeme
Meme
p4292
(dp4293
g3
(lp4294
S'are'
p4295
aS'you'
p4296
aS'from'
p4297
aS'mcdonalds'
p4298
ag36
asg12
S'are you from mcdonalds? '
p4299
sg14
S' cuz your personality is 100% fake & yet people still buy you  '
p4300
sg16
Vwhat-grinds-my-gears
p4301
sg18
(lp4302
g4295
ag4296
ag4297
ag4298
ag36
aS'cuz'
p4303
aS'your'
p4304
aS'personality'
p4305
aS'is'
p4306
aS'100'
p4307
ag2210
aS'fake'
p4308
aS'&'
p4309
aS'yet'
p4310
aS'people'
p4311
aS'still'
p4312
aS'buy'
p4313
aS'you'
p4314
asg24
(lp4315
g4303
ag4304
ag4305
ag4306
ag4307
ag2210
ag4308
ag4309
ag4310
ag4311
ag4312
ag4313
ag4314
asba(iMeme
Meme
p4316
(dp4317
g3
(lp4318
S'You'
p4319
aS'know'
p4320
aS'what'
p4321
aS'grinds'
p4322
aS'my'
p4323
aS'gears'
p4324
ag36
asg12
S'You know what grinds my gears? '
p4325
sg14
S' Rust '
p4326
sg16
Vwhat-grinds-my-gears
p4327
sg18
(lp4328
g4319
ag4320
ag4321
ag4322
ag4323
ag4324
ag36
aS'Rust'
p4329
asg24
(lp4330
g4329
asba(iMeme
Meme
p4331
(dp4332
g3
(lp4333
S'you'
p4334
aS'know'
p4335
aS'what'
p4336
aS'really'
p4337
aS'grinds'
p4338
aS'my'
p4339
aS'gears'
p4340
ag36
asg12
S'you know what really grinds my gears? '
p4341
sg14
S' when Radio djs talk over the last thirty seconds of every song '
p4342
sg16
Vwhat-grinds-my-gears
p4343
sg18
(lp4344
g4334
ag4335
ag4336
ag4337
ag4338
ag4339
ag4340
ag36
aS'when'
p4345
aS'Radio'
p4346
aS'djs'
p4347
aS'talk'
p4348
aS'over'
p4349
aS'the'
p4350
aS'last'
p4351
aS'thirty'
p4352
aS'seconds'
p4353
aS'of'
p4354
aS'every'
p4355
aS'song'
p4356
asg24
(lp4357
g4345
ag4346
ag4347
ag4348
ag4349
ag4350
ag4351
ag4352
ag4353
ag4354
ag4355
ag4356
asba(iMeme
Meme
p4358
(dp4359
g3
(lp4360
S'You'
p4361
aS'know'
p4362
aS'what'
p4363
aS'really'
p4364
aS'grinds'
p4365
aS'my'
p4366
aS'gears'
p4367
ag36
asg12
S'You know what really grinds my gears? '
p4368
sg14
S' Girls who only have their beauty to offer, and beg for so much more in a guy '
p4369
sg16
Vwhat-grinds-my-gears
p4370
sg18
(lp4371
g4361
ag4362
ag4363
ag4364
ag4365
ag4366
ag4367
ag36
aS'Girls'
p4372
aS'who'
p4373
aS'only'
p4374
aS'have'
p4375
aS'their'
p4376
aS'beauty'
p4377
aS'to'
p4378
aS'offer'
p4379
ag71
aS'and'
p4380
aS'beg'
p4381
aS'for'
p4382
aS'so'
p4383
aS'much'
p4384
aS'more'
p4385
aS'in'
p4386
ag10
aS'guy'
p4387
asg24
(lp4388
g4372
ag4373
ag4374
ag4375
ag4376
ag4377
ag4378
ag4379
ag71
ag4380
ag4381
ag4382
ag4383
ag4384
ag4385
ag4386
ag10
ag4387
asba(iMeme
Meme
p4389
(dp4390
g3
(lp4391
S'you'
p4392
aS'know'
p4393
aS'what'
p4394
aS'really'
p4395
aS'grinds'
p4396
aS'my'
p4397
aS'gears'
p4398
ag36
asg12
S'you know what really grinds my gears? '
p4399
sg14
S" CATS/ The don't have any thumbs and the're doing just fine. "
p4400
sg16
Vwhat-grinds-my-gears
p4401
sg18
(lp4402
g4392
ag4393
ag4394
ag4395
ag4396
ag4397
ag4398
ag36
aS'CATS/'
p4403
aS'The'
p4404
aS'do'
p4405
aS"n't"
p4406
aS'have'
p4407
aS'any'
p4408
aS'thumbs'
p4409
aS'and'
p4410
aS'the'
p4411
aS"'re"
p4412
aS'doing'
p4413
aS'just'
p4414
aS'fine'
p4415
ag73
asg24
(lp4416
g4403
ag4404
ag4405
ag4406
ag4407
ag4408
ag4409
ag4410
ag4411
ag4412
ag4413
ag4414
ag4415
ag73
asba(iMeme
Meme
p4417
(dp4418
g3
(lp4419
S'you'
p4420
aS'know'
p4421
aS'what'
p4422
aS'realy'
p4423
aS'grinds'
p4424
aS'my'
p4425
aS'gears'
p4426
asg12
S'you know what realy grinds my gears '
p4427
sg14
S' the person who keeps on posting the same (copyed) memes '
p4428
sg16
Vwhat-grinds-my-gears
p4429
sg18
(lp4430
g4420
ag4421
ag4422
ag4423
ag4424
ag4425
ag4426
aS'the'
p4431
aS'person'
p4432
aS'who'
p4433
aS'keeps'
p4434
aS'on'
p4435
aS'posting'
p4436
aS'the'
p4437
aS'same'
p4438
ag405
aS'copyed'
p4439
ag407
aS'memes'
p4440
asg24
(lp4441
g4431
ag4432
ag4433
ag4434
ag4435
ag4436
ag4437
ag4438
ag405
ag4439
ag407
ag4440
asba(iMeme
Meme
p4442
(dp4443
g3
(lp4444
S'You'
p4445
aS'know'
p4446
aS'what'
p4447
aS'really'
p4448
aS'gRinds'
p4449
aS'my'
p4450
aS'gears'
p4451
asg12
S'You know what really gRinds my gears '
p4452
sg14
S' The amount of people who want to kill themselves on here '
p4453
sg16
Vwhat-grinds-my-gears
p4454
sg18
(lp4455
g4445
ag4446
ag4447
ag4448
ag4449
ag4450
ag4451
aS'The'
p4456
aS'amount'
p4457
aS'of'
p4458
aS'people'
p4459
aS'who'
p4460
aS'want'
p4461
aS'to'
p4462
aS'kill'
p4463
aS'themselves'
p4464
aS'on'
p4465
aS'here'
p4466
asg24
(lp4467
g4456
ag4457
ag4458
ag4459
ag4460
ag4461
ag4462
ag4463
ag4464
ag4465
ag4466
asba(iMeme
Meme
p4468
(dp4469
g3
(lp4470
S'you'
p4471
aS'know'
p4472
aS'what'
p4473
aS'grinds'
p4474
aS'my'
p4475
aS'gears'
p4476
ag36
asg12
S'you know what grinds my gears? '
p4477
sg14
S' rich white girls '
p4478
sg16
Vwhat-grinds-my-gears
p4479
sg18
(lp4480
g4471
ag4472
ag4473
ag4474
ag4475
ag4476
ag36
aS'rich'
p4481
aS'white'
p4482
aS'girls'
p4483
asg24
(lp4484
g4481
ag4482
ag4483
asba(iMeme
Meme
p4485
(dp4486
g3
(lp4487
S'you'
p4488
aS'know'
p4489
aS'what'
p4490
aS'really'
p4491
aS'grinds'
p4492
aS'my'
p4493
aS'gears'
p4494
ag36
asg12
S'you know what really grinds my gears?  '
p4495
sg14
S' when a criminal is obviously helpless and surrendered and the cop still feelsthe need to tackle them and slam their head on the pavement '
p4496
sg16
Vwhat-grinds-my-gears
p4497
sg18
(lp4498
g4488
ag4489
ag4490
ag4491
ag4492
ag4493
ag4494
ag36
aS'when'
p4499
ag10
aS'criminal'
p4500
aS'is'
p4501
aS'obviously'
p4502
aS'helpless'
p4503
aS'and'
p4504
aS'surrendered'
p4505
aS'and'
p4506
aS'the'
p4507
aS'cop'
p4508
aS'still'
p4509
aS'feelsthe'
p4510
aS'need'
p4511
aS'to'
p4512
aS'tackle'
p4513
aS'them'
p4514
aS'and'
p4515
aS'slam'
p4516
aS'their'
p4517
aS'head'
p4518
aS'on'
p4519
aS'the'
p4520
aS'pavement'
p4521
asg24
(lp4522
g4499
ag10
ag4500
ag4501
ag4502
ag4503
ag4504
ag4505
ag4506
ag4507
ag4508
ag4509
ag4510
ag4511
ag4512
ag4513
ag4514
ag4515
ag4516
ag4517
ag4518
ag4519
ag4520
ag4521
asba(iMeme
Meme
p4523
(dp4524
g3
(lp4525
S'You'
p4526
aS'know'
p4527
aS'what'
p4528
aS'really'
p4529
aS'grinds'
p4530
aS'my'
p4531
aS'gears'
p4532
ag36
asg12
S'You know what really grinds my gears? '
p4533
sg14
S' anything that involves scott and females '
p4534
sg16
Vwhat-grinds-my-gears
p4535
sg18
(lp4536
g4526
ag4527
ag4528
ag4529
ag4530
ag4531
ag4532
ag36
aS'anything'
p4537
aS'that'
p4538
aS'involves'
p4539
aS'scott'
p4540
aS'and'
p4541
aS'females'
p4542
asg24
(lp4543
g4537
ag4538
ag4539
ag4540
ag4541
ag4542
asba(iMeme
Meme
p4544
(dp4545
g3
(lp4546
S'you'
p4547
aS'know'
p4548
aS'what'
p4549
aS'really'
p4550
aS'grinds'
p4551
aS'my'
p4552
aS'gears'
p4553
ag36
asg12
S'you know what really grinds my gears? '
p4554
sg14
S' when i have a great idea for a meme, but forget what it was when i get a change to make it '
p4555
sg16
Vwhat-grinds-my-gears
p4556
sg18
(lp4557
g4547
ag4548
ag4549
ag4550
ag4551
ag4552
ag4553
ag36
aS'when'
p4558
ag93
aS'have'
p4559
ag10
aS'great'
p4560
aS'idea'
p4561
aS'for'
p4562
ag10
aS'meme'
p4563
ag71
aS'but'
p4564
aS'forget'
p4565
aS'what'
p4566
aS'it'
p4567
aS'was'
p4568
aS'when'
p4569
ag93
aS'get'
p4570
ag10
aS'change'
p4571
aS'to'
p4572
aS'make'
p4573
aS'it'
p4574
asg24
(lp4575
g4558
ag93
ag4559
ag10
ag4560
ag4561
ag4562
ag10
ag4563
ag71
ag4564
ag4565
ag4566
ag4567
ag4568
ag4569
ag93
ag4570
ag10
ag4571
ag4572
ag4573
ag4574
asba(iMeme
Meme
p4576
(dp4577
g3
(lp4578
S'You'
p4579
aS'know'
p4580
aS'what'
p4581
aS'really'
p4582
aS'grinds'
p4583
aS'my'
p4584
aS'gears'
p4585
asg12
S'You know what really grinds my gears '
p4586
sg14
S' People who think my van is a prostitution van '
p4587
sg16
Vwhat-grinds-my-gears
p4588
sg18
(lp4589
g4579
ag4580
ag4581
ag4582
ag4583
ag4584
ag4585
aS'People'
p4590
aS'who'
p4591
aS'think'
p4592
aS'my'
p4593
aS'van'
p4594
aS'is'
p4595
ag10
aS'prostitution'
p4596
aS'van'
p4597
asg24
(lp4598
g4590
ag4591
ag4592
ag4593
ag4594
ag4595
ag10
ag4596
ag4597
asba(iMeme
Meme
p4599
(dp4600
g3
(lp4601
S'You'
p4602
aS'know'
p4603
aS'what'
p4604
aS'really'
p4605
aS'grinds'
p4606
aS'my'
p4607
aS'gears'
p4608
ag36
asg12
S'You know what really grinds my gears? '
p4609
sg14
S' when i miss a show and a commercial before the rerun ruins the episode.  '
p4610
sg16
Vwhat-grinds-my-gears
p4611
sg18
(lp4612
g4602
ag4603
ag4604
ag4605
ag4606
ag4607
ag4608
ag36
aS'when'
p4613
ag93
aS'miss'
p4614
ag10
aS'show'
p4615
aS'and'
p4616
ag10
aS'commercial'
p4617
aS'before'
p4618
aS'the'
p4619
aS'rerun'
p4620
aS'ruins'
p4621
aS'the'
p4622
aS'episode'
p4623
ag73
asg24
(lp4624
g4613
ag93
ag4614
ag10
ag4615
ag4616
ag10
ag4617
ag4618
ag4619
ag4620
ag4621
ag4622
ag4623
ag73
asba(iMeme
Meme
p4625
(dp4626
g3
(lp4627
S'know'
p4628
aS'what'
p4629
aS'grinds'
p4630
aS'my'
p4631
aS'gears'
p4632
ag36
asg12
S'know what grinds my gears? '
p4633
sg14
S' the unbalanced scedule '
p4634
sg16
Vwhat-grinds-my-gears
p4635
sg18
(lp4636
g4628
ag4629
ag4630
ag4631
ag4632
ag36
aS'the'
p4637
aS'unbalanced'
p4638
aS'scedule'
p4639
asg24
(lp4640
g4637
ag4638
ag4639
asba(iMeme
Meme
p4641
(dp4642
g3
(lp4643
S'you'
p4644
aS'know'
p4645
aS'what'
p4646
aS'really'
p4647
aS'grinds'
p4648
aS'my'
p4649
aS'gears'
p4650
ag36
asg12
S'you know what really grinds my gears? '
p4651
sg14
S" when i can't seem to find anyone on the map and when i do they kill me first "
p4652
sg16
Vwhat-grinds-my-gears
p4653
sg18
(lp4654
g4644
ag4645
ag4646
ag4647
ag4648
ag4649
ag4650
ag36
aS'when'
p4655
ag93
aS'ca'
p4656
aS"n't"
p4657
aS'seem'
p4658
aS'to'
p4659
aS'find'
p4660
aS'anyone'
p4661
aS'on'
p4662
aS'the'
p4663
aS'map'
p4664
aS'and'
p4665
aS'when'
p4666
ag93
aS'do'
p4667
aS'they'
p4668
aS'kill'
p4669
aS'me'
p4670
aS'first'
p4671
asg24
(lp4672
g4655
ag93
ag4656
ag4657
ag4658
ag4659
ag4660
ag4661
ag4662
ag4663
ag4664
ag4665
ag4666
ag93
ag4667
ag4668
ag4669
ag4670
ag4671
asba(iMeme
Meme
p4673
(dp4674
g3
(lp4675
S'You'
p4676
aS'know'
p4677
aS'what'
p4678
aS'really'
p4679
aS'grinds'
p4680
aS'my'
p4681
aS'gears'
p4682
ag36
asg12
S'You know what really grinds my gears? '
p4683
sg14
S' Exes that Try to be friends '
p4684
sg16
Vwhat-grinds-my-gears
p4685
sg18
(lp4686
g4676
ag4677
ag4678
ag4679
ag4680
ag4681
ag4682
ag36
aS'Exes'
p4687
aS'that'
p4688
aS'Try'
p4689
aS'to'
p4690
aS'be'
p4691
aS'friends'
p4692
asg24
(lp4693
g4687
ag4688
ag4689
ag4690
ag4691
ag4692
asba(iMeme
Meme
p4694
(dp4695
g3
(lp4696
S'you'
p4697
aS'know'
p4698
aS'what'
p4699
aS'grinds'
p4700
aS'my'
p4701
aS'gears'
p4702
ag36
asg12
S'you know what grinds my gears? '
p4703
sg14
S' when somebody breaks up a fight '
p4704
sg16
Vwhat-grinds-my-gears
p4705
sg18
(lp4706
g4697
ag4698
ag4699
ag4700
ag4701
ag4702
ag36
aS'when'
p4707
aS'somebody'
p4708
aS'breaks'
p4709
aS'up'
p4710
ag10
aS'fight'
p4711
asg24
(lp4712
g4707
ag4708
ag4709
ag4710
ag10
ag4711
asba(iMeme
Meme
p4713
(dp4714
g3
(lp4715
S'You'
p4716
aS'know'
p4717
aS'what'
p4718
aS'grinds'
p4719
aS'my'
p4720
aS'gears'
p4721
ag36
asg12
S'You know what grinds my gears? '
p4722
sg14
S' chip bags filled mostly with air '
p4723
sg16
Vwhat-grinds-my-gears
p4724
sg18
(lp4725
g4716
ag4717
ag4718
ag4719
ag4720
ag4721
ag36
aS'chip'
p4726
aS'bags'
p4727
aS'filled'
p4728
aS'mostly'
p4729
aS'with'
p4730
aS'air'
p4731
asg24
(lp4732
g4726
ag4727
ag4728
ag4729
ag4730
ag4731
asba(iMeme
Meme
p4733
(dp4734
g3
(lp4735
S'You'
p4736
aS'know'
p4737
aS'what'
p4738
aS'really'
p4739
aS'``'
p4740
aS'grind'
p4741
aS"'s"
p4742
aS'my'
p4743
aS'gears'
p4744
aS"''"
p4745
ag36
asg12
S'You know what really "grind\'s my gears"? '
p4746
sg14
S' the phrase, "grind\'s my gears". And irony. '
p4747
sg16
Vwhat-grinds-my-gears
p4748
sg18
(lp4749
g4736
ag4737
ag4738
ag4739
ag4740
ag4741
ag4742
ag4743
ag4744
ag4745
ag36
aS'the'
p4750
aS'phrase'
p4751
ag71
aS'``'
p4752
aS'grind'
p4753
aS"'s"
p4754
aS'my'
p4755
aS'gears'
p4756
aS"''"
p4757
ag73
aS'And'
p4758
aS'irony'
p4759
ag73
asg24
(lp4760
g4750
ag4751
ag71
ag4752
ag4753
ag4754
ag4755
ag4756
ag4757
ag73
ag4758
ag4759
ag73
asba(iMeme
Meme
p4761
(dp4762
g3
(lp4763
S'You'
p4764
aS'know'
p4765
aS'what'
p4766
aS'really'
p4767
aS'grinds'
p4768
aS'my'
p4769
aS'gears'
p4770
ag36
asg12
S'You know what really grinds my gears? '
p4771
sg14
S' When you have seen all the posts on 9gag '
p4772
sg16
Vwhat-grinds-my-gears
p4773
sg18
(lp4774
g4764
ag4765
ag4766
ag4767
ag4768
ag4769
ag4770
ag36
aS'When'
p4775
aS'you'
p4776
aS'have'
p4777
aS'seen'
p4778
aS'all'
p4779
aS'the'
p4780
aS'posts'
p4781
aS'on'
p4782
aS'9gag'
p4783
asg24
(lp4784
g4775
ag4776
ag4777
ag4778
ag4779
ag4780
ag4781
ag4782
ag4783
asba(iMeme
Meme
p4785
(dp4786
g3
(lp4787
S'You'
p4788
aS'know'
p4789
aS'what'
p4790
aS'really'
p4791
aS'grinds'
p4792
aS'my'
p4793
aS'gears'
p4794
ag36
asg12
S'You know what really grinds my gears? '
p4795
sg14
S' When people put their title as a sentence that I already read '
p4796
sg16
Vwhat-grinds-my-gears
p4797
sg18
(lp4798
g4788
ag4789
ag4790
ag4791
ag4792
ag4793
ag4794
ag36
aS'When'
p4799
aS'people'
p4800
aS'put'
p4801
aS'their'
p4802
aS'title'
p4803
aS'as'
p4804
ag10
aS'sentence'
p4805
aS'that'
p4806
ag119
aS'already'
p4807
aS'read'
p4808
asg24
(lp4809
g4799
ag4800
ag4801
ag4802
ag4803
ag4804
ag10
ag4805
ag4806
ag119
ag4807
ag4808
asba(iMeme
Meme
p4810
(dp4811
g3
(lp4812
S'you'
p4813
aS'now'
p4814
aS'wat'
p4815
aS'really'
p4816
aS'grind'
p4817
aS'my'
p4818
aS'gears'
p4819
asg12
S'you now wat really grind my gears '
p4820
sg14
S' tht amy wont give me a chance  '
p4821
sg16
Vwhat-grinds-my-gears
p4822
sg18
(lp4823
g4813
ag4814
ag4815
ag4816
ag4817
ag4818
ag4819
aS'tht'
p4824
aS'amy'
p4825
aS'wont'
p4826
aS'give'
p4827
aS'me'
p4828
ag10
aS'chance'
p4829
asg24
(lp4830
g4824
ag4825
ag4826
ag4827
ag4828
ag10
ag4829
asba(iMeme
Meme
p4831
(dp4832
g3
(lp4833
S'You'
p4834
aS'know'
p4835
aS'what'
p4836
aS'really'
p4837
aS'grinds'
p4838
aS'my'
p4839
aS'gears'
p4840
ag36
asg12
S'You know what really grinds my gears? '
p4841
sg14
S' One Direction thinking they made the best song ever '
p4842
sg16
Vwhat-grinds-my-gears
p4843
sg18
(lp4844
g4834
ag4835
ag4836
ag4837
ag4838
ag4839
ag4840
ag36
aS'One'
p4845
aS'Direction'
p4846
aS'thinking'
p4847
aS'they'
p4848
aS'made'
p4849
aS'the'
p4850
aS'best'
p4851
aS'song'
p4852
aS'ever'
p4853
asg24
(lp4854
g4845
ag4846
ag4847
ag4848
ag4849
ag4850
ag4851
ag4852
ag4853
asba(iMeme
Meme
p4855
(dp4856
g3
(lp4857
S'You'
p4858
aS'know'
p4859
aS'what'
p4860
aS'grinds'
p4861
aS'my'
p4862
aS'gears'
p4863
ag36
asg12
S'You know what grinds my gears? '
p4864
sg14
S' the fact that the other faggot is trying to argue with le maymeez '
p4865
sg16
Vwhat-grinds-my-gears
p4866
sg18
(lp4867
g4858
ag4859
ag4860
ag4861
ag4862
ag4863
ag36
aS'the'
p4868
aS'fact'
p4869
aS'that'
p4870
aS'the'
p4871
aS'other'
p4872
aS'faggot'
p4873
aS'is'
p4874
aS'trying'
p4875
aS'to'
p4876
aS'argue'
p4877
aS'with'
p4878
aS'le'
p4879
aS'maymeez'
p4880
asg24
(lp4881
g4868
ag4869
ag4870
ag4871
ag4872
ag4873
ag4874
ag4875
ag4876
ag4877
ag4878
ag4879
ag4880
asba(iMeme
Meme
p4882
(dp4883
g3
(lp4884
S'know'
p4885
aS'what'
p4886
aS'grinds'
p4887
aS'my'
p4888
aS'gears'
p4889
ag36
asg12
S'know what grinds my gears? '
p4890
sg14
S' only one pizza place makes their pies only $10 on mondays '
p4891
sg16
Vwhat-grinds-my-gears
p4892
sg18
(lp4893
g4885
ag4886
ag4887
ag4888
ag4889
ag36
aS'only'
p4894
aS'one'
p4895
aS'pizza'
p4896
aS'place'
p4897
aS'makes'
p4898
aS'their'
p4899
aS'pies'
p4900
aS'only'
p4901
ag621
aS'10'
p4902
aS'on'
p4903
aS'mondays'
p4904
asg24
(lp4905
g4894
ag4895
ag4896
ag4897
ag4898
ag4899
ag4900
ag4901
ag621
ag4902
ag4903
ag4904
asba(iMeme
Meme
p4906
(dp4907
g3
(lp4908
S'You'
p4909
aS'know'
p4910
aS'what'
p4911
aS'really'
p4912
aS'grinds'
p4913
aS'my'
p4914
aS'gears'
p4915
ag36
asg12
S'You know what really grinds my gears? '
p4916
sg14
S' When fat people say that fit people eat badly and often and they deserve to be fat '
p4917
sg16
Vwhat-grinds-my-gears
p4918
sg18
(lp4919
g4909
ag4910
ag4911
ag4912
ag4913
ag4914
ag4915
ag36
aS'When'
p4920
aS'fat'
p4921
aS'people'
p4922
aS'say'
p4923
aS'that'
p4924
aS'fit'
p4925
aS'people'
p4926
aS'eat'
p4927
aS'badly'
p4928
aS'and'
p4929
aS'often'
p4930
aS'and'
p4931
aS'they'
p4932
aS'deserve'
p4933
aS'to'
p4934
aS'be'
p4935
aS'fat'
p4936
asg24
(lp4937
g4920
ag4921
ag4922
ag4923
ag4924
ag4925
ag4926
ag4927
ag4928
ag4929
ag4930
ag4931
ag4932
ag4933
ag4934
ag4935
ag4936
asba(iMeme
Meme
p4938
(dp4939
g3
(lp4940
S'you'
p4941
aS'know'
p4942
aS'what'
p4943
aS'really'
p4944
aS'grind'
p4945
aS'my'
p4946
aS'gears'
p4947
asg12
S'you know what really grind my gears '
p4948
sg14
S" hyundai tiburon's "
p4949
sg16
Vwhat-grinds-my-gears
p4950
sg18
(lp4951
g4941
ag4942
ag4943
ag4944
ag4945
ag4946
ag4947
aS'hyundai'
p4952
aS'tiburon'
p4953
aS"'s"
p4954
asg24
(lp4955
g4952
ag4953
ag4954
asba(iMeme
Meme
p4956
(dp4957
g3
(lp4958
S'You'
p4959
aS'know'
p4960
aS'what'
p4961
aS'really'
p4962
aS'grinds'
p4963
aS'my'
p4964
aS'gears'
p4965
asg12
S'You know what really grinds my gears '
p4966
sg14
S' fucking nettiopsu '
p4967
sg16
Vwhat-grinds-my-gears
p4968
sg18
(lp4969
g4959
ag4960
ag4961
ag4962
ag4963
ag4964
ag4965
aS'fucking'
p4970
aS'nettiopsu'
p4971
asg24
(lp4972
g4970
ag4971
asba(iMeme
Meme
p4973
(dp4974
g3
(lp4975
S'you'
p4976
aS'know'
p4977
aS'what'
p4978
aS'really'
p4979
aS'grinds'
p4980
aS'my'
p4981
aS'gears'
p4982
asg12
S'you know what really grinds my gears '
p4983
sg14
S" When people ask you to choose and get mad when you don't choose what they like "
p4984
sg16
Vwhat-grinds-my-gears
p4985
sg18
(lp4986
g4976
ag4977
ag4978
ag4979
ag4980
ag4981
ag4982
aS'When'
p4987
aS'people'
p4988
aS'ask'
p4989
aS'you'
p4990
aS'to'
p4991
aS'choose'
p4992
aS'and'
p4993
aS'get'
p4994
aS'mad'
p4995
aS'when'
p4996
aS'you'
p4997
aS'do'
p4998
aS"n't"
p4999
aS'choose'
p5000
aS'what'
p5001
aS'they'
p5002
aS'like'
p5003
asg24
(lp5004
g4987
ag4988
ag4989
ag4990
ag4991
ag4992
ag4993
ag4994
ag4995
ag4996
ag4997
ag4998
ag4999
ag5000
ag5001
ag5002
ag5003
asba(iMeme
Meme
p5005
(dp5006
g3
(lp5007
S'You'
p5008
aS'know'
p5009
aS'what'
p5010
aS'really'
p5011
aS'grinds'
p5012
aS'my'
p5013
aS'gears'
p5014
ag36
asg12
S'You know what really grinds my gears? '
p5015
sg14
S" When people post answers to AskReddit as comments to other people's answers "
p5016
sg16
Vwhat-grinds-my-gears
p5017
sg18
(lp5018
g5008
ag5009
ag5010
ag5011
ag5012
ag5013
ag5014
ag36
aS'When'
p5019
aS'people'
p5020
aS'post'
p5021
aS'answers'
p5022
aS'to'
p5023
aS'AskReddit'
p5024
aS'as'
p5025
aS'comments'
p5026
aS'to'
p5027
aS'other'
p5028
aS'people'
p5029
aS"'s"
p5030
aS'answers'
p5031
asg24
(lp5032
g5019
ag5020
ag5021
ag5022
ag5023
ag5024
ag5025
ag5026
ag5027
ag5028
ag5029
ag5030
ag5031
asba(iMeme
Meme
p5033
(dp5034
g3
(lp5035
S'Wan'
p5036
aS'na'
p5037
aS'know'
p5038
aS'what'
p5039
aS'really'
p5040
aS'grinds'
p5041
aS'my'
p5042
aS'gears'
p5043
ag36
asg12
S'Wanna know what really grinds my gears? '
p5044
sg14
S' Monkeydlelouch '
p5045
sg16
Vwhat-grinds-my-gears
p5046
sg18
(lp5047
g5036
ag5037
ag5038
ag5039
ag5040
ag5041
ag5042
ag5043
ag36
aS'Monkeydlelouch'
p5048
asg24
(lp5049
g5048
asba(iMeme
Meme
p5050
(dp5051
g3
(lp5052
S'You'
p5053
aS'know'
p5054
aS'what'
p5055
aS'really'
p5056
aS'grind'
p5057
aS'my'
p5058
aS'gears'
p5059
ag36
asg12
S'You know what really grind my gears? '
p5060
sg14
S' that my chin looks like a ball sack '
p5061
sg16
Vwhat-grinds-my-gears
p5062
sg18
(lp5063
g5053
ag5054
ag5055
ag5056
ag5057
ag5058
ag5059
ag36
aS'that'
p5064
aS'my'
p5065
aS'chin'
p5066
aS'looks'
p5067
aS'like'
p5068
ag10
aS'ball'
p5069
aS'sack'
p5070
asg24
(lp5071
g5064
ag5065
ag5066
ag5067
ag5068
ag10
ag5069
ag5070
asba(iMeme
Meme
p5072
(dp5073
g3
(lp5074
S'and'
p5075
aS'the'
p5076
aS'latest'
p5077
aS'fucker'
p5078
aS'is'
p5079
asg12
S'and the latest fucker is  '
p5080
sg14
S' mom '
p5081
sg16
Vwhat-grinds-my-gears
p5082
sg18
(lp5083
g5075
ag5076
ag5077
ag5078
ag5079
aS'mom'
p5084
asg24
(lp5085
g5084
asba(iMeme
Meme
p5086
(dp5087
g3
(lp5088
S'you'
p5089
aS'know'
p5090
aS'what'
p5091
aS'really'
p5092
aS'grinds'
p5093
aS'my'
p5094
aS'gears'
p5095
asg12
S'you know what really grinds my gears '
p5096
sg14
S' smallas swag '
p5097
sg16
Vwhat-grinds-my-gears
p5098
sg18
(lp5099
g5089
ag5090
ag5091
ag5092
ag5093
ag5094
ag5095
aS'smallas'
p5100
aS'swag'
p5101
asg24
(lp5102
g5100
ag5101
asba(iMeme
Meme
p5103
(dp5104
g3
(lp5105
S'you'
p5106
aS'know'
p5107
aS'what'
p5108
aS'really'
p5109
aS'grinds'
p5110
aS'my'
p5111
aS'gears'
p5112
ag36
asg12
S'you know what really grinds my gears? '
p5113
sg14
S" popular people that think they're all fucking great until they get showed up in the gym by the nerd they picked on 5 years ago "
p5114
sg16
Vwhat-grinds-my-gears
p5115
sg18
(lp5116
g5106
ag5107
ag5108
ag5109
ag5110
ag5111
ag5112
ag36
aS'popular'
p5117
aS'people'
p5118
aS'that'
p5119
aS'think'
p5120
aS'they'
p5121
aS"'re"
p5122
aS'all'
p5123
aS'fucking'
p5124
aS'great'
p5125
aS'until'
p5126
aS'they'
p5127
aS'get'
p5128
aS'showed'
p5129
aS'up'
p5130
aS'in'
p5131
aS'the'
p5132
aS'gym'
p5133
aS'by'
p5134
aS'the'
p5135
aS'nerd'
p5136
aS'they'
p5137
aS'picked'
p5138
aS'on'
p5139
aS'5'
p5140
aS'years'
p5141
aS'ago'
p5142
asg24
(lp5143
g5117
ag5118
ag5119
ag5120
ag5121
ag5122
ag5123
ag5124
ag5125
ag5126
ag5127
ag5128
ag5129
ag5130
ag5131
ag5132
ag5133
ag5134
ag5135
ag5136
ag5137
ag5138
ag5139
ag5140
ag5141
ag5142
asba(iMeme
Meme
p5144
(dp5145
g3
(lp5146
S'You'
p5147
aS'know'
p5148
aS'what'
p5149
aS'really'
p5150
aS'grinds'
p5151
aS'my'
p5152
aS'gears'
p5153
asg12
S'You know what really grinds my gears  '
p5154
sg14
S' When I get charged for ice in my drink at a bar '
p5155
sg16
Vwhat-grinds-my-gears
p5156
sg18
(lp5157
g5147
ag5148
ag5149
ag5150
ag5151
ag5152
ag5153
aS'When'
p5158
ag119
aS'get'
p5159
aS'charged'
p5160
aS'for'
p5161
aS'ice'
p5162
aS'in'
p5163
aS'my'
p5164
aS'drink'
p5165
aS'at'
p5166
ag10
aS'bar'
p5167
asg24
(lp5168
g5158
ag119
ag5159
ag5160
ag5161
ag5162
ag5163
ag5164
ag5165
ag5166
ag10
ag5167
asba(iMeme
Meme
p5169
(dp5170
g3
(lp5171
sg12
S' '
p5172
sg14
S' when josh dubstep jones rapes boys '
p5173
sg16
Vwhat-grinds-my-gears
p5174
sg18
(lp5175
S'when'
p5176
aS'josh'
p5177
aS'dubstep'
p5178
aS'jones'
p5179
aS'rapes'
p5180
aS'boys'
p5181
asg24
(lp5182
g5176
ag5177
ag5178
ag5179
ag5180
ag5181
asba(iMeme
Meme
p5183
(dp5184
g3
(lp5185
S'U'
p5186
aS'know'
p5187
aS'what'
p5188
aS'really'
p5189
aS'gRinDs'
p5190
aS'my'
p5191
aS'gears'
p5192
ag36
asg12
S'U know what really gRinDs my gears? '
p5193
sg14
S' When Heitor acts like a little bitcH '
p5194
sg16
Vwhat-grinds-my-gears
p5195
sg18
(lp5196
g5186
ag5187
ag5188
ag5189
ag5190
ag5191
ag5192
ag36
aS'When'
p5197
aS'Heitor'
p5198
aS'acts'
p5199
aS'like'
p5200
ag10
aS'little'
p5201
aS'bitcH'
p5202
asg24
(lp5203
g5197
ag5198
ag5199
ag5200
ag10
ag5201
ag5202
asba(iMeme
Meme
p5204
(dp5205
g3
(lp5206
S'What'
p5207
aS'realy'
p5208
aS'turns'
p5209
aS'my'
p5210
aS'gears'
p5211
asg12
S'What realy turns my gears '
p5212
sg14
S" when people don't turn off their singal light after changing lanes "
p5213
sg16
Vwhat-grinds-my-gears
p5214
sg18
(lp5215
g5207
ag5208
ag5209
ag5210
ag5211
aS'when'
p5216
aS'people'
p5217
aS'do'
p5218
aS"n't"
p5219
aS'turn'
p5220
aS'off'
p5221
aS'their'
p5222
aS'singal'
p5223
aS'light'
p5224
aS'after'
p5225
aS'changing'
p5226
aS'lanes'
p5227
asg24
(lp5228
g5216
ag5217
ag5218
ag5219
ag5220
ag5221
ag5222
ag5223
ag5224
ag5225
ag5226
ag5227
asba(iMeme
Meme
p5229
(dp5230
g3
(lp5231
S'you'
p5232
aS'know'
p5233
aS'what'
p5234
aS'really'
p5235
aS'grinds'
p5236
aS'my'
p5237
aS'gears'
p5238
asg12
S'you know what really grinds my gears '
p5239
sg14
S' when your eyelashes hit your glasses '
p5240
sg16
Vwhat-grinds-my-gears
p5241
sg18
(lp5242
g5232
ag5233
ag5234
ag5235
ag5236
ag5237
ag5238
aS'when'
p5243
aS'your'
p5244
aS'eyelashes'
p5245
aS'hit'
p5246
aS'your'
p5247
aS'glasses'
p5248
asg24
(lp5249
g5243
ag5244
ag5245
ag5246
ag5247
ag5248
asba(iMeme
Meme
p5250
(dp5251
g3
(lp5252
S'if'
p5253
ag93
aS'do'
p5254
aS'last'
p5255
aS'call'
p5256
ag71
aS'get'
p5257
aS'your'
p5258
aS'drink'
p5259
ag71
aS'drink'
p5260
aS'it'
p5261
aS'and'
p5262
aS'gtfo'
p5263
asg12
S'if i do last call, get your drink, drink it and gtfo '
p5264
sg14
S' dont come to me 30 minutes later and bitch me out because i wont serve you anymore '
p5265
sg16
Vwhat-grinds-my-gears
p5266
sg18
(lp5267
g5253
ag93
ag5254
ag5255
ag5256
ag71
ag5257
ag5258
ag5259
ag71
ag5260
ag5261
ag5262
ag5263
aS'dont'
p5268
aS'come'
p5269
aS'to'
p5270
aS'me'
p5271
aS'30'
p5272
aS'minutes'
p5273
aS'later'
p5274
aS'and'
p5275
aS'bitch'
p5276
aS'me'
p5277
aS'out'
p5278
aS'because'
p5279
ag93
aS'wont'
p5280
aS'serve'
p5281
aS'you'
p5282
aS'anymore'
p5283
asg24
(lp5284
g5268
ag5269
ag5270
ag5271
ag5272
ag5273
ag5274
ag5275
ag5276
ag5277
ag5278
ag5279
ag93
ag5280
ag5281
ag5282
ag5283
asba(iMeme
Meme
p5285
(dp5286
g3
(lp5287
S'what'
p5288
aS'grinds'
p5289
aS'my'
p5290
aS'gears'
p5291
ag36
asg12
S'what grinds my gears?  '
p5292
sg14
S' Kunal not in this convo '
p5293
sg16
Vwhat-grinds-my-gears
p5294
sg18
(lp5295
g5288
ag5289
ag5290
ag5291
ag36
aS'Kunal'
p5296
aS'not'
p5297
aS'in'
p5298
aS'this'
p5299
aS'convo'
p5300
asg24
(lp5301
g5296
ag5297
ag5298
ag5299
ag5300
asba(iMeme
Meme
p5302
(dp5303
g3
(lp5304
S'Do'
p5305
aS'you'
p5306
aS'want'
p5307
aS'to'
p5308
aS'know'
p5309
aS'what'
p5310
aS'grinds'
p5311
aS'my'
p5312
aS'gears'
p5313
aS'today'
p5314
ag36
asg12
S'Do you want to know what grinds my gears today? '
p5315
sg14
S' you reading this in my voice '
p5316
sg16
Vwhat-grinds-my-gears
p5317
sg18
(lp5318
g5305
ag5306
ag5307
ag5308
ag5309
ag5310
ag5311
ag5312
ag5313
ag5314
ag36
aS'you'
p5319
aS'reading'
p5320
aS'this'
p5321
aS'in'
p5322
aS'my'
p5323
aS'voice'
p5324
asg24
(lp5325
g5319
ag5320
ag5321
ag5322
ag5323
ag5324
asba(iMeme
Meme
p5326
(dp5327
g3
(lp5328
S'You'
p5329
aS'know'
p5330
aS'what'
p5331
aS'really'
p5332
aS'grinds'
p5333
aS'my'
p5334
aS'gears'
p5335
ag36
asg12
S'You know what really grinds my gears? '
p5336
sg14
S' When someone decides you get shit interent!!!!!!! '
p5337
sg16
Vwhat-grinds-my-gears
p5338
sg18
(lp5339
g5329
ag5330
ag5331
ag5332
ag5333
ag5334
ag5335
ag36
aS'When'
p5340
aS'someone'
p5341
aS'decides'
p5342
aS'you'
p5343
aS'get'
p5344
aS'shit'
p5345
aS'interent'
p5346
ag23
ag23
ag23
ag23
ag23
ag23
ag23
asg24
(lp5347
g5340
ag5341
ag5342
ag5343
ag5344
ag5345
ag5346
ag23
ag23
ag23
ag23
ag23
ag23
ag23
asba(iMeme
Meme
p5348
(dp5349
g3
(lp5350
S'You'
p5351
aS'Know'
p5352
aS'what'
p5353
aS'really'
p5354
aS'grinds'
p5355
aS'my'
p5356
aS'gears'
p5357
ag36
asg12
S'You Know what really grinds my gears? '
p5358
sg14
S' People who use " \'s " to make things plural '
p5359
sg16
Vwhat-grinds-my-gears
p5360
sg18
(lp5361
g5351
ag5352
ag5353
ag5354
ag5355
ag5356
ag5357
ag36
aS'People'
p5362
aS'who'
p5363
aS'use'
p5364
aS'``'
p5365
aS"'s"
p5366
aS'``'
p5367
aS'to'
p5368
aS'make'
p5369
aS'things'
p5370
aS'plural'
p5371
asg24
(lp5372
g5362
ag5363
ag5364
ag5365
ag5366
ag5367
ag5368
ag5369
ag5370
ag5371
asba(iMeme
Meme
p5373
(dp5374
g3
(lp5375
S'know'
p5376
aS'what'
p5377
aS'grinds'
p5378
aS'my'
p5379
aS'gears'
p5380
ag36
asg12
S'know what grinds my gears? '
p5381
sg14
S' the unbalanced schedule '
p5382
sg16
Vwhat-grinds-my-gears
p5383
sg18
(lp5384
g5376
ag5377
ag5378
ag5379
ag5380
ag36
aS'the'
p5385
aS'unbalanced'
p5386
aS'schedule'
p5387
asg24
(lp5388
g5385
ag5386
ag5387
asba(iMeme
Meme
p5389
(dp5390
g3
(lp5391
S'You'
p5392
aS'know'
p5393
aS'what'
p5394
aS'really'
p5395
aS'grinds'
p5396
aS'my'
p5397
aS'gears'
p5398
ag36
asg12
S'You know what really grinds my gears?  '
p5399
sg14
S" Shia's "
p5400
sg16
Vwhat-grinds-my-gears
p5401
sg18
(lp5402
g5392
ag5393
ag5394
ag5395
ag5396
ag5397
ag5398
ag36
aS'Shia'
p5403
aS"'s"
p5404
asg24
(lp5405
g5403
ag5404
asba(iMeme
Meme
p5406
(dp5407
g3
(lp5408
S'You'
p5409
aS'know'
p5410
aS'what'
p5411
aS'really'
p5412
aS'grinds'
p5413
aS'my'
p5414
aS'gears'
p5415
ag36
asg12
S'You know what really grinds my gears? '
p5416
sg14
S" Shi'as "
p5417
sg16
Vwhat-grinds-my-gears
p5418
sg18
(lp5419
g5409
ag5410
ag5411
ag5412
ag5413
ag5414
ag5415
ag36
aS"Shi'as"
p5420
asg24
(lp5421
g5420
asba(iMeme
Meme
p5422
(dp5423
g3
(lp5424
S'This'
p5425
aS'is'
p5426
aS'carl'
p5427
asg12
S'This is carl '
p5428
sg14
S' right now '
p5429
sg16
Vwhat-grinds-my-gears
p5430
sg18
(lp5431
g5425
ag5426
ag5427
aS'right'
p5432
aS'now'
p5433
asg24
(lp5434
g5432
ag5433
asba(iMeme
Meme
p5435
(dp5436
g3
(lp5437
S'you'
p5438
aS'know'
p5439
aS'what'
p5440
aS'really'
p5441
aS'grinds'
p5442
aS'my'
p5443
aS'gears'
p5444
asg12
S'you know what really grinds my gears '
p5445
sg14
S' when people drink juice while their mouth is full of food '
p5446
sg16
Vwhat-grinds-my-gears
p5447
sg18
(lp5448
g5438
ag5439
ag5440
ag5441
ag5442
ag5443
ag5444
aS'when'
p5449
aS'people'
p5450
aS'drink'
p5451
aS'juice'
p5452
aS'while'
p5453
aS'their'
p5454
aS'mouth'
p5455
aS'is'
p5456
aS'full'
p5457
aS'of'
p5458
aS'food'
p5459
asg24
(lp5460
g5449
ag5450
ag5451
ag5452
ag5453
ag5454
ag5455
ag5456
ag5457
ag5458
ag5459
asba(iMeme
Meme
p5461
(dp5462
g3
(lp5463
S'Ya'
p5464
aS'know'
p5465
aS'what'
p5466
aS'really'
p5467
aS'Grinds'
p5468
aS'My'
p5469
aS'gears'
p5470
asg12
S'Ya know what really Grinds My gears '
p5471
sg14
S' You Guy Yaaaaaaaaaaaaaaaaaaaah you '
p5472
sg16
Vwhat-grinds-my-gears
p5473
sg18
(lp5474
g5464
ag5465
ag5466
ag5467
ag5468
ag5469
ag5470
aS'You'
p5475
aS'Guy'
p5476
aS'Yaaaaaaaaaaaaaaaaaaaah'
p5477
aS'you'
p5478
asg24
(lp5479
g5475
ag5476
ag5477
ag5478
asba(iMeme
Meme
p5480
(dp5481
g3
(lp5482
S'you'
p5483
aS'know'
p5484
aS'what'
p5485
aS'grinds'
p5486
aS'my'
p5487
aS'gears'
p5488
asg12
S'you know what grinds my gears '
p5489
sg14
S' otis washington from dead riesing '
p5490
sg16
Vwhat-grinds-my-gears
p5491
sg18
(lp5492
g5483
ag5484
ag5485
ag5486
ag5487
ag5488
aS'otis'
p5493
aS'washington'
p5494
aS'from'
p5495
aS'dead'
p5496
aS'riesing'
p5497
asg24
(lp5498
g5493
ag5494
ag5495
ag5496
ag5497
asba(iMeme
Meme
p5499
(dp5500
g3
(lp5501
S'see'
p5502
aS'the'
p5503
aS'world'
p5504
aS'through'
p5505
aS'the'
p5506
aS'eyes'
p5507
aS'of'
p5508
asg12
S'see the world through the eyes of  '
p5509
sg14
S' what can go right '
p5510
sg16
Vwhat-grinds-my-gears
p5511
sg18
(lp5512
g5502
ag5503
ag5504
ag5505
ag5506
ag5507
ag5508
aS'what'
p5513
aS'can'
p5514
aS'go'
p5515
aS'right'
p5516
asg24
(lp5517
g5513
ag5514
ag5515
ag5516
asba(iMeme
Meme
p5518
(dp5519
g3
(lp5520
S'You'
p5521
aS'know'
p5522
aS'what'
p5523
aS'really'
p5524
aS'grinds'
p5525
aS'my'
p5526
aS'gears'
p5527
ag36
asg12
S'You know what really grinds my gears? '
p5528
sg14
S' People that use the word swag! '
p5529
sg16
Vwhat-grinds-my-gears
p5530
sg18
(lp5531
g5521
ag5522
ag5523
ag5524
ag5525
ag5526
ag5527
ag36
aS'People'
p5532
aS'that'
p5533
aS'use'
p5534
aS'the'
p5535
aS'word'
p5536
aS'swag'
p5537
ag23
asg24
(lp5538
g5532
ag5533
ag5534
ag5535
ag5536
ag5537
ag23
asba(iMeme
Meme
p5539
(dp5540
g3
(lp5541
S'you'
p5542
aS'know'
p5543
aS'what'
p5544
aS'really'
p5545
aS'grinds'
p5546
aS'my'
p5547
aS'gears'
p5548
ag36
asg12
S'you know what really grinds my gears? '
p5549
sg14
S" not being able to see the documentary,  because it's only available at festivals ..far far away. "
p5550
sg16
Vwhat-grinds-my-gears
p5551
sg18
(lp5552
g5542
ag5543
ag5544
ag5545
ag5546
ag5547
ag5548
ag36
aS'not'
p5553
aS'being'
p5554
aS'able'
p5555
aS'to'
p5556
aS'see'
p5557
aS'the'
p5558
aS'documentary'
p5559
ag71
aS'because'
p5560
aS'it'
p5561
aS"'s"
p5562
aS'only'
p5563
aS'available'
p5564
aS'at'
p5565
aS'festivals'
p5566
aS'..far'
p5567
aS'far'
p5568
aS'away'
p5569
ag73
asg24
(lp5570
g5553
ag5554
ag5555
ag5556
ag5557
ag5558
ag5559
ag71
ag5560
ag5561
ag5562
ag5563
ag5564
ag5565
ag5566
ag5567
ag5568
ag5569
ag73
asba(iMeme
Meme
p5571
(dp5572
g3
(lp5573
S'you'
p5574
aS'know'
p5575
aS'what'
p5576
aS'really'
p5577
aS'grinds'
p5578
aS'my'
p5579
aS'gears'
p5580
asg12
S'you know what really grinds my gears '
p5581
sg14
S' kiana failing at making memes  '
p5582
sg16
Vwhat-grinds-my-gears
p5583
sg18
(lp5584
g5574
ag5575
ag5576
ag5577
ag5578
ag5579
ag5580
aS'kiana'
p5585
aS'failing'
p5586
aS'at'
p5587
aS'making'
p5588
aS'memes'
p5589
asg24
(lp5590
g5585
ag5586
ag5587
ag5588
ag5589
asba(iMeme
Meme
p5591
(dp5592
g3
(lp5593
S'You'
p5594
aS'know'
p5595
aS'what'
p5596
aS'really'
p5597
aS'grinds'
p5598
aS'my'
p5599
aS'gears'
p5600
ag36
asg12
S'You know what really grinds my gears? '
p5601
sg14
S' How people take a photo of the board with their iphone at the end of a lesson rather than taking 5 seconds to write down the homework '
p5602
sg16
Vwhat-grinds-my-gears
p5603
sg18
(lp5604
g5594
ag5595
ag5596
ag5597
ag5598
ag5599
ag5600
ag36
aS'How'
p5605
aS'people'
p5606
aS'take'
p5607
ag10
aS'photo'
p5608
aS'of'
p5609
aS'the'
p5610
aS'board'
p5611
aS'with'
p5612
aS'their'
p5613
aS'iphone'
p5614
aS'at'
p5615
aS'the'
p5616
aS'end'
p5617
aS'of'
p5618
ag10
aS'lesson'
p5619
aS'rather'
p5620
aS'than'
p5621
aS'taking'
p5622
ag5140
aS'seconds'
p5623
aS'to'
p5624
aS'write'
p5625
aS'down'
p5626
aS'the'
p5627
aS'homework'
p5628
asg24
(lp5629
g5605
ag5606
ag5607
ag10
ag5608
ag5609
ag5610
ag5611
ag5612
ag5613
ag5614
ag5615
ag5616
ag5617
ag5618
ag10
ag5619
ag5620
ag5621
ag5622
ag5140
ag5623
ag5624
ag5625
ag5626
ag5627
ag5628
asba(iMeme
Meme
p5630
(dp5631
g3
(lp5632
S'You'
p5633
aS'know'
p5634
aS'what'
p5635
aS'really'
p5636
aS'grinds'
p5637
aS'my'
p5638
aS'gears'
p5639
asg12
S'You know what really grinds my gears '
p5640
sg14
S' your face '
p5641
sg16
Vwhat-grinds-my-gears
p5642
sg18
(lp5643
g5633
ag5634
ag5635
ag5636
ag5637
ag5638
ag5639
aS'your'
p5644
aS'face'
p5645
asg24
(lp5646
g5644
ag5645
asba(iMeme
Meme
p5647
(dp5648
g3
(lp5649
S'You'
p5650
aS'know'
p5651
aS'what'
p5652
aS'grinds'
p5653
aS'my'
p5654
aS'gears'
p5655
ag36
asg12
S'You know what grinds my gears? '
p5656
sg14
S' My butt chin '
p5657
sg16
Vwhat-grinds-my-gears
p5658
sg18
(lp5659
g5650
ag5651
ag5652
ag5653
ag5654
ag5655
ag36
aS'My'
p5660
aS'butt'
p5661
aS'chin'
p5662
asg24
(lp5663
g5660
ag5661
ag5662
asba(iMeme
Meme
p5664
(dp5665
g3
(lp5666
S'You'
p5667
aS'know'
p5668
aS'what'
p5669
aS'grinds'
p5670
aS'my'
p5671
aS'gears'
p5672
ag36
asg12
S'You know what grinds my gears?  '
p5673
sg14
S' When my headphone jack comes out and then people hear my music. '
p5674
sg16
Vwhat-grinds-my-gears
p5675
sg18
(lp5676
g5667
ag5668
ag5669
ag5670
ag5671
ag5672
ag36
aS'When'
p5677
aS'my'
p5678
aS'headphone'
p5679
aS'jack'
p5680
aS'comes'
p5681
aS'out'
p5682
aS'and'
p5683
aS'then'
p5684
aS'people'
p5685
aS'hear'
p5686
aS'my'
p5687
aS'music'
p5688
ag73
asg24
(lp5689
g5677
ag5678
ag5679
ag5680
ag5681
ag5682
ag5683
ag5684
ag5685
ag5686
ag5687
ag5688
ag73
asba(iMeme
Meme
p5690
(dp5691
g3
(lp5692
S'you'
p5693
aS'know'
p5694
aS'what'
p5695
aS'really'
p5696
aS'grinds'
p5697
aS'my'
p5698
aS'gears'
p5699
ag36
asg12
S'you know what really grinds my gears? '
p5700
sg14
S" when someone complains about their government but doesn't vote. "
p5701
sg16
Vwhat-grinds-my-gears
p5702
sg18
(lp5703
g5693
ag5694
ag5695
ag5696
ag5697
ag5698
ag5699
ag36
aS'when'
p5704
aS'someone'
p5705
aS'complains'
p5706
aS'about'
p5707
aS'their'
p5708
aS'government'
p5709
aS'but'
p5710
aS'does'
p5711
aS"n't"
p5712
aS'vote'
p5713
ag73
asg24
(lp5714
g5704
ag5705
ag5706
ag5707
ag5708
ag5709
ag5710
ag5711
ag5712
ag5713
ag73
asba(iMeme
Meme
p5715
(dp5716
g3
(lp5717
S'You'
p5718
aS'know'
p5719
aS'what'
p5720
aS'really'
p5721
aS'grinds'
p5722
aS'my'
p5723
aS'gears'
p5724
ag36
asg12
S'You know what really grinds my gears? '
p5725
sg14
S' Mary Coyner '
p5726
sg16
Vwhat-grinds-my-gears
p5727
sg18
(lp5728
g5718
ag5719
ag5720
ag5721
ag5722
ag5723
ag5724
ag36
aS'Mary'
p5729
aS'Coyner'
p5730
asg24
(lp5731
g5729
ag5730
asba(iMeme
Meme
p5732
(dp5733
g3
(lp5734
S'You'
p5735
aS'know'
p5736
aS'what'
p5737
aS'really'
p5738
aS'grinds'
p5739
aS'my'
p5740
aS'gears'
p5741
asg12
S'You know what really grinds my gears '
p5742
sg14
S" getting ready to deploy and find out you're crosst raining "
p5743
sg16
Vwhat-grinds-my-gears
p5744
sg18
(lp5745
g5735
ag5736
ag5737
ag5738
ag5739
ag5740
ag5741
aS'getting'
p5746
aS'ready'
p5747
aS'to'
p5748
aS'deploy'
p5749
aS'and'
p5750
aS'find'
p5751
aS'out'
p5752
aS'you'
p5753
aS"'re"
p5754
aS'crosst'
p5755
aS'raining'
p5756
asg24
(lp5757
g5746
ag5747
ag5748
ag5749
ag5750
ag5751
ag5752
ag5753
ag5754
ag5755
ag5756
asba(iMeme
Meme
p5758
(dp5759
g3
(lp5760
S'do'
p5761
aS'you'
p5762
aS'know'
p5763
aS'what'
p5764
aS'really'
p5765
aS'grinds'
p5766
aS'my'
p5767
aS'gears'
p5768
aS'peepz'
p5769
aS'be'
p5770
aS'like'
p5771
aS'my'
p5772
aS'little'
p5773
aS'ponys'
p5774
aS'is'
p5775
aS'gay'
p5776
asg12
S'do you know what really grinds my gears peepz be like my little ponys is gay '
p5777
sg14
S' well the best shut the f**k up '
p5778
sg16
Vwhat-grinds-my-gears
p5779
sg18
(lp5780
g5761
ag5762
ag5763
ag5764
ag5765
ag5766
ag5767
ag5768
ag5769
ag5770
ag5771
ag5772
ag5773
ag5774
ag5775
ag5776
aS'well'
p5781
aS'the'
p5782
aS'best'
p5783
aS'shut'
p5784
aS'the'
p5785
aS'f**k'
p5786
aS'up'
p5787
asg24
(lp5788
g5781
ag5782
ag5783
ag5784
ag5785
ag5786
ag5787
asba(iMeme
Meme
p5789
(dp5790
g3
(lp5791
S'what'
p5792
aS'grinds'
p5793
aS'my'
p5794
aS'gears'
p5795
aS'is'
p5796
aS'how'
p5797
asg12
S'what grinds my gears is how '
p5798
sg14
S'  a kid has a triangle head and a kid who has a f head '
p5799
sg16
Vwhat-grinds-my-gears
p5800
sg18
(lp5801
g5792
ag5793
ag5794
ag5795
ag5796
ag5797
ag10
aS'kid'
p5802
aS'has'
p5803
ag10
aS'triangle'
p5804
aS'head'
p5805
aS'and'
p5806
ag10
aS'kid'
p5807
aS'who'
p5808
aS'has'
p5809
ag10
ag828
aS'head'
p5810
asg24
(lp5811
g10
ag5802
ag5803
ag10
ag5804
ag5805
ag5806
ag10
ag5807
ag5808
ag5809
ag10
ag828
ag5810
asba(iMeme
Meme
p5812
(dp5813
g3
(lp5814
S'you'
p5815
aS'know'
p5816
aS'what'
p5817
aS'really'
p5818
aS'grinds'
p5819
aS'my'
p5820
aS'gears'
p5821
asg12
S'you know what really grinds my gears '
p5822
sg14
S' ATL Falcons '
p5823
sg16
Vwhat-grinds-my-gears
p5824
sg18
(lp5825
g5815
ag5816
ag5817
ag5818
ag5819
ag5820
ag5821
aS'ATL'
p5826
aS'Falcons'
p5827
asg24
(lp5828
g5826
ag5827
asba(iMeme
Meme
p5829
(dp5830
g3
(lp5831
S'YOu'
p5832
aS'know'
p5833
aS'what'
p5834
aS'really'
p5835
aS'grinds'
p5836
aS'my'
p5837
aS'gears'
p5838
ag36
asg12
S'YOu know what really grinds my gears? '
p5839
sg14
S' When people put question mark orders in the fucking supervisor queue '
p5840
sg16
Vwhat-grinds-my-gears
p5841
sg18
(lp5842
g5832
ag5833
ag5834
ag5835
ag5836
ag5837
ag5838
ag36
aS'When'
p5843
aS'people'
p5844
aS'put'
p5845
aS'question'
p5846
aS'mark'
p5847
aS'orders'
p5848
aS'in'
p5849
aS'the'
p5850
aS'fucking'
p5851
aS'supervisor'
p5852
aS'queue'
p5853
asg24
(lp5854
g5843
ag5844
ag5845
ag5846
ag5847
ag5848
ag5849
ag5850
ag5851
ag5852
ag5853
asba(iMeme
Meme
p5855
(dp5856
g3
(lp5857
S'You'
p5858
aS'know'
p5859
aS'what'
p5860
aS'really'
p5861
aS'grinds'
p5862
aS'my'
p5863
aS'GearS'
p5864
ag36
asg12
S'You know what really grinds my GearS? '
p5865
sg14
S' Patriots fans ! '
p5866
sg16
Vwhat-grinds-my-gears
p5867
sg18
(lp5868
g5858
ag5859
ag5860
ag5861
ag5862
ag5863
ag5864
ag36
aS'Patriots'
p5869
aS'fans'
p5870
ag23
asg24
(lp5871
g5869
ag5870
ag23
asba(iMeme
Meme
p5872
(dp5873
g3
(lp5874
S'you'
p5875
aS'know'
p5876
aS'what'
p5877
aS'really'
p5878
aS'grinds'
p5879
aS'my'
p5880
aS'gears'
p5881
ag36
asg12
S'you know what really grinds my gears? '
p5882
sg14
S" when people don't put on a new roll of toilet paper after they use up the old one "
p5883
sg16
Vwhat-grinds-my-gears
p5884
sg18
(lp5885
g5875
ag5876
ag5877
ag5878
ag5879
ag5880
ag5881
ag36
aS'when'
p5886
aS'people'
p5887
aS'do'
p5888
aS"n't"
p5889
aS'put'
p5890
aS'on'
p5891
ag10
aS'new'
p5892
aS'roll'
p5893
aS'of'
p5894
aS'toilet'
p5895
aS'paper'
p5896
aS'after'
p5897
aS'they'
p5898
aS'use'
p5899
aS'up'
p5900
aS'the'
p5901
aS'old'
p5902
aS'one'
p5903
asg24
(lp5904
g5886
ag5887
ag5888
ag5889
ag5890
ag5891
ag10
ag5892
ag5893
ag5894
ag5895
ag5896
ag5897
ag5898
ag5899
ag5900
ag5901
ag5902
ag5903
asba(iMeme
Meme
p5905
(dp5906
g3
(lp5907
sg12
S' '
p5908
sg14
S' dirty toilet water all over the floor that is now on my shorts '
p5909
sg16
Vwhat-grinds-my-gears
p5910
sg18
(lp5911
S'dirty'
p5912
aS'toilet'
p5913
aS'water'
p5914
aS'all'
p5915
aS'over'
p5916
aS'the'
p5917
aS'floor'
p5918
aS'that'
p5919
aS'is'
p5920
aS'now'
p5921
aS'on'
p5922
aS'my'
p5923
aS'shorts'
p5924
asg24
(lp5925
g5912
ag5913
ag5914
ag5915
ag5916
ag5917
ag5918
ag5919
ag5920
ag5921
ag5922
ag5923
ag5924
asba(iMeme
Meme
p5926
(dp5927
g3
(lp5928
S'Traffic'
p5929
aS'on'
p5930
ag10
aS'holiday'
p5931
aS'week'
p5932
ag36
asg12
S'Traffic on a holiday week? '
p5933
sg14
S' Just punch me in The neck. '
p5934
sg16
Vwhat-grinds-my-gears
p5935
sg18
(lp5936
g5929
ag5930
ag10
ag5931
ag5932
ag36
aS'Just'
p5937
aS'punch'
p5938
aS'me'
p5939
aS'in'
p5940
aS'The'
p5941
aS'neck'
p5942
ag73
asg24
(lp5943
g5937
ag5938
ag5939
ag5940
ag5941
ag5942
ag73
asba(iMeme
Meme
p5944
(dp5945
g3
(lp5946
S'You'
p5947
aS'know'
p5948
aS'what'
p5949
aS'grind'
p5950
aS'my'
p5951
aS'gears'
p5952
ag36
asg12
S'You know what grind my gears? '
p5953
sg14
S' People who are still thinking my van is for prostitution '
p5954
sg16
Vwhat-grinds-my-gears
p5955
sg18
(lp5956
g5947
ag5948
ag5949
ag5950
ag5951
ag5952
ag36
aS'People'
p5957
aS'who'
p5958
aS'are'
p5959
aS'still'
p5960
aS'thinking'
p5961
aS'my'
p5962
aS'van'
p5963
aS'is'
p5964
aS'for'
p5965
aS'prostitution'
p5966
asg24
(lp5967
g5957
ag5958
ag5959
ag5960
ag5961
ag5962
ag5963
ag5964
ag5965
ag5966
asba(iMeme
Meme
p5968
(dp5969
g3
(lp5970
S'when'
p5971
aS'Falcons'
p5972
aS'make'
p5973
aS'fun'
p5974
aS'of'
p5975
aS'us'
p5976
asg12
S'when Falcons make fun of us '
p5977
sg14
S' for not winning a superbowl.. '
p5978
sg16
Vwhat-grinds-my-gears
p5979
sg18
(lp5980
g5971
ag5972
ag5973
ag5974
ag5975
ag5976
aS'for'
p5981
aS'not'
p5982
aS'winning'
p5983
ag10
aS'superbowl..'
p5984
asg24
(lp5985
g5981
ag5982
ag5983
ag10
ag5984
asba(iMeme
Meme
p5986
(dp5987
g3
(lp5988
S'You'
p5989
aS'know'
p5990
aS'what'
p5991
aS'really'
p5992
aS'grinds'
p5993
aS'my'
p5994
aS'gears'
p5995
ag36
asg12
S'You know what really grinds my gears? '
p5996
sg14
S' people '
p5997
sg16
Vwhat-grinds-my-gears
p5998
sg18
(lp5999
g5989
ag5990
ag5991
ag5992
ag5993
ag5994
ag5995
ag36
aS'people'
p6000
asg24
(lp6001
g6000
asba(iMeme
Meme
p6002
(dp6003
g3
(lp6004
S'We'
p6005
aS'interrupt'
p6006
aS'this'
p6007
aS'program'
p6008
aS'for'
p6009
asg12
S'We interrupt this program for '
p6010
sg14
S' hilariousness '
p6011
sg16
Vwhat-grinds-my-gears
p6012
sg18
(lp6013
g6005
ag6006
ag6007
ag6008
ag6009
aS'hilariousness'
p6014
asg24
(lp6015
g6014
asba(iMeme
Meme
p6016
(dp6017
g3
(lp6018
S'You'
p6019
aS'know'
p6020
aS'what'
p6021
aS'really'
p6022
aS'grinds'
p6023
aS'my'
p6024
aS'gears'
p6025
ag36
asg12
S'You know what really grinds my gears? '
p6026
sg14
S' People Who use "\'s" to make things pluraL '
p6027
sg16
Vwhat-grinds-my-gears
p6028
sg18
(lp6029
g6019
ag6020
ag6021
ag6022
ag6023
ag6024
ag6025
ag36
aS'People'
p6030
aS'Who'
p6031
aS'use'
p6032
aS'``'
p6033
aS"'s"
p6034
aS"''"
p6035
aS'to'
p6036
aS'make'
p6037
aS'things'
p6038
aS'pluraL'
p6039
asg24
(lp6040
g6030
ag6031
ag6032
ag6033
ag6034
ag6035
ag6036
ag6037
ag6038
ag6039
asba(iMeme
Meme
p6041
(dp6042
g3
(lp6043
S'If'
p6044
ag93
aS'do'
p6045
aS'last'
p6046
aS'call'
p6047
ag71
aS'get'
p6048
aS'your'
p6049
aS'drink'
p6050
ag71
aS'slam'
p6051
aS'it'
p6052
ag71
aS'and'
p6053
aS'gTFO'
p6054
asg12
S'If i do last call, get your drink, slam it, and gTFO '
p6055
sg14
S' Dont come up 30 minutes later and bitch at me because i wont serve you anymore '
p6056
sg16
Vwhat-grinds-my-gears
p6057
sg18
(lp6058
g6044
ag93
ag6045
ag6046
ag6047
ag71
ag6048
ag6049
ag6050
ag71
ag6051
ag6052
ag71
ag6053
ag6054
aS'Dont'
p6059
aS'come'
p6060
aS'up'
p6061
aS'30'
p6062
aS'minutes'
p6063
aS'later'
p6064
aS'and'
p6065
aS'bitch'
p6066
aS'at'
p6067
aS'me'
p6068
aS'because'
p6069
ag93
aS'wont'
p6070
aS'serve'
p6071
aS'you'
p6072
aS'anymore'
p6073
asg24
(lp6074
g6059
ag6060
ag6061
ag6062
ag6063
ag6064
ag6065
ag6066
ag6067
ag6068
ag6069
ag93
ag6070
ag6071
ag6072
ag6073
asba(iMeme
Meme
p6075
(dp6076
g3
(lp6077
S'You'
p6078
aS'kow'
p6079
aS'what'
p6080
aS'really'
p6081
aS'grinds'
p6082
aS'my'
p6083
aS'gears'
p6084
ag36
asg12
S'You kow what really grinds my gears? '
p6085
sg14
S' Engagment photos '
p6086
sg16
Vwhat-grinds-my-gears
p6087
sg18
(lp6088
g6078
ag6079
ag6080
ag6081
ag6082
ag6083
ag6084
ag36
aS'Engagment'
p6089
aS'photos'
p6090
asg24
(lp6091
g6089
ag6090
asba(iMeme
Meme
p6092
(dp6093
g3
(lp6094
S'this'
p6095
aS'is'
p6096
aS'what'
p6097
aS'grinds'
p6098
aS'my'
p6099
aS'gears'
p6100
asg12
S'this is what grinds my gears '
p6101
sg14
S' my wifes butt '
p6102
sg16
Vwhat-grinds-my-gears
p6103
sg18
(lp6104
g6095
ag6096
ag6097
ag6098
ag6099
ag6100
aS'my'
p6105
aS'wifes'
p6106
aS'butt'
p6107
asg24
(lp6108
g6105
ag6106
ag6107
asba(iMeme
Meme
p6109
(dp6110
g3
(lp6111
S'Breaking'
p6112
asg12
S'Breaking  '
p6113
sg14
S' ow jumped through a roof and killed a man '
p6114
sg16
Vwhat-grinds-my-gears
p6115
sg18
(lp6116
g6112
aS'ow'
p6117
aS'jumped'
p6118
aS'through'
p6119
ag10
aS'roof'
p6120
aS'and'
p6121
aS'killed'
p6122
ag10
aS'man'
p6123
asg24
(lp6124
g6117
ag6118
ag6119
ag10
ag6120
ag6121
ag6122
ag10
ag6123
asba(iMeme
Meme
p6125
(dp6126
g3
(lp6127
S'You'
p6128
aS'know'
p6129
aS'what'
p6130
aS'really'
p6131
aS'grinds'
p6132
aS'my'
p6133
aS'gears'
p6134
ag36
asg12
S'You know what really grinds my gears? '
p6135
sg14
S' Hairdressers who talk to You whilst using a shAver near your ear '
p6136
sg16
Vwhat-grinds-my-gears
p6137
sg18
(lp6138
g6128
ag6129
ag6130
ag6131
ag6132
ag6133
ag6134
ag36
aS'Hairdressers'
p6139
aS'who'
p6140
aS'talk'
p6141
aS'to'
p6142
aS'You'
p6143
aS'whilst'
p6144
aS'using'
p6145
ag10
aS'shAver'
p6146
aS'near'
p6147
aS'your'
p6148
aS'ear'
p6149
asg24
(lp6150
g6139
ag6140
ag6141
ag6142
ag6143
ag6144
ag6145
ag10
ag6146
ag6147
ag6148
ag6149
asba(iMeme
Meme
p6151
(dp6152
g3
(lp6153
S'You'
p6154
aS'want'
p6155
aS'to'
p6156
aS'know'
p6157
aS'what'
p6158
aS'grinds'
p6159
aS'my'
p6160
aS'gears'
p6161
asg12
S'You want to know what grinds my gears '
p6162
sg14
S" people that think lil' wayne is good "
p6163
sg16
Vwhat-grinds-my-gears
p6164
sg18
(lp6165
g6154
ag6155
ag6156
ag6157
ag6158
ag6159
ag6160
ag6161
aS'people'
p6166
aS'that'
p6167
aS'think'
p6168
aS'lil'
p6169
aS"'"
p6170
aS'wayne'
p6171
aS'is'
p6172
aS'good'
p6173
asg24
(lp6174
g6166
ag6167
ag6168
ag6169
ag6170
ag6171
ag6172
ag6173
asba(iMeme
Meme
p6175
(dp6176
g3
(lp6177
S'you'
p6178
aS'know'
p6179
aS'what'
p6180
aS'really'
p6181
aS'grinds'
p6182
aS'my'
p6183
aS'gears'
p6184
ag36
asg12
S'you know what really grinds my gears? '
p6185
sg14
S" when i shoot the enemy player and my bullets don't register "
p6186
sg16
Vwhat-grinds-my-gears
p6187
sg18
(lp6188
g6178
ag6179
ag6180
ag6181
ag6182
ag6183
ag6184
ag36
aS'when'
p6189
ag93
aS'shoot'
p6190
aS'the'
p6191
aS'enemy'
p6192
aS'player'
p6193
aS'and'
p6194
aS'my'
p6195
aS'bullets'
p6196
aS'do'
p6197
aS"n't"
p6198
aS'register'
p6199
asg24
(lp6200
g6189
ag93
ag6190
ag6191
ag6192
ag6193
ag6194
ag6195
ag6196
ag6197
ag6198
ag6199
asba(iMeme
Meme
p6201
(dp6202
g3
(lp6203
S'you'
p6204
aS'know'
p6205
aS'what'
p6206
aS'really'
p6207
aS'grinds'
p6208
aS'my'
p6209
aS'gears'
p6210
ag36
asg12
S'you know what really grinds my gears ? '
p6211
sg14
S' kiana failing at memes '
p6212
sg16
Vwhat-grinds-my-gears
p6213
sg18
(lp6214
g6204
ag6205
ag6206
ag6207
ag6208
ag6209
ag6210
ag36
aS'kiana'
p6215
aS'failing'
p6216
aS'at'
p6217
aS'memes'
p6218
asg24
(lp6219
g6215
ag6216
ag6217
ag6218
asba(iMeme
Meme
p6220
(dp6221
g3
(lp6222
S'What'
p6223
aS'grinds'
p6224
aS'my'
p6225
aS'gears'
p6226
asg12
S'What grinds my gears '
p6227
sg14
S" People who can't tExt "
p6228
sg16
Vwhat-grinds-my-gears
p6229
sg18
(lp6230
g6223
ag6224
ag6225
ag6226
aS'People'
p6231
aS'who'
p6232
aS'ca'
p6233
aS"n't"
p6234
aS'tExt'
p6235
asg24
(lp6236
g6231
ag6232
ag6233
ag6234
ag6235
asba(iMeme
Meme
p6237
(dp6238
g3
(lp6239
S'you'
p6240
aS'what'
p6241
aS'really'
p6242
aS'grinds'
p6243
aS'my'
p6244
aS'gears'
p6245
ag36
asg12
S'you what really grinds my gears ? '
p6246
sg14
S' kiana failing at memes '
p6247
sg16
Vwhat-grinds-my-gears
p6248
sg18
(lp6249
g6240
ag6241
ag6242
ag6243
ag6244
ag6245
ag36
aS'kiana'
p6250
aS'failing'
p6251
aS'at'
p6252
aS'memes'
p6253
asg24
(lp6254
g6250
ag6251
ag6252
ag6253
asba(iMeme
Meme
p6255
(dp6256
g3
(lp6257
S'You'
p6258
aS'know'
p6259
aS'what'
p6260
aS'really'
p6261
aS'grinds'
p6262
aS'my'
p6263
aS'gears'
p6264
ag36
asg12
S'You know what really grinds my gears? '
p6265
sg14
S' Adhesive and abrasive wear '
p6266
sg16
Vwhat-grinds-my-gears
p6267
sg18
(lp6268
g6258
ag6259
ag6260
ag6261
ag6262
ag6263
ag6264
ag36
aS'Adhesive'
p6269
aS'and'
p6270
aS'abrasive'
p6271
aS'wear'
p6272
asg24
(lp6273
g6269
ag6270
ag6271
ag6272
asba(iMeme
Meme
p6274
(dp6275
g3
(lp6276
S'You'
p6277
aS'know'
p6278
aS'what'
p6279
aS'really'
p6280
aS'grinds'
p6281
aS'my'
p6282
aS'gears'
p6283
ag36
asg12
S'You know what really grinds my gears? '
p6284
sg14
S' people who act like the ARBITERS of reddit when they find a repost  '
p6285
sg16
Vwhat-grinds-my-gears
p6286
sg18
(lp6287
g6277
ag6278
ag6279
ag6280
ag6281
ag6282
ag6283
ag36
aS'people'
p6288
aS'who'
p6289
aS'act'
p6290
aS'like'
p6291
aS'the'
p6292
aS'ARBITERS'
p6293
aS'of'
p6294
aS'reddit'
p6295
aS'when'
p6296
aS'they'
p6297
aS'find'
p6298
ag10
aS'repost'
p6299
asg24
(lp6300
g6288
ag6289
ag6290
ag6291
ag6292
ag6293
ag6294
ag6295
ag6296
ag6297
ag6298
ag10
ag6299
asba(iMeme
Meme
p6301
(dp6302
g3
(lp6303
S'you'
p6304
aS'know'
p6305
aS'what'
p6306
aS'really'
p6307
aS'grinds'
p6308
aS'my'
p6309
aS'gears'
p6310
ag36
asg12
S'you know what really grinds my gears? '
p6311
sg14
S" people that don't power walk through disney because they are trying to enjoy family time but they are really just ruining it for the rest of us "
p6312
sg16
Vwhat-grinds-my-gears
p6313
sg18
(lp6314
g6304
ag6305
ag6306
ag6307
ag6308
ag6309
ag6310
ag36
aS'people'
p6315
aS'that'
p6316
aS'do'
p6317
aS"n't"
p6318
aS'power'
p6319
aS'walk'
p6320
aS'through'
p6321
aS'disney'
p6322
aS'because'
p6323
aS'they'
p6324
aS'are'
p6325
aS'trying'
p6326
aS'to'
p6327
aS'enjoy'
p6328
aS'family'
p6329
aS'time'
p6330
aS'but'
p6331
aS'they'
p6332
aS'are'
p6333
aS'really'
p6334
aS'just'
p6335
aS'ruining'
p6336
aS'it'
p6337
aS'for'
p6338
aS'the'
p6339
aS'rest'
p6340
aS'of'
p6341
aS'us'
p6342
asg24
(lp6343
g6315
ag6316
ag6317
ag6318
ag6319
ag6320
ag6321
ag6322
ag6323
ag6324
ag6325
ag6326
ag6327
ag6328
ag6329
ag6330
ag6331
ag6332
ag6333
ag6334
ag6335
ag6336
ag6337
ag6338
ag6339
ag6340
ag6341
ag6342
asba(iMeme
Meme
p6344
(dp6345
g3
(lp6346
S'you'
p6347
aS'know'
p6348
aS'what'
p6349
aS'realy'
p6350
aS'grinds'
p6351
aS'my'
p6352
aS'gears'
p6353
asg12
S'you know what realy grinds my gears '
p6354
sg14
S' the fact that there are people who think the government is here to help us when time and time again they just fuck us over and invade our privacy (NSA and drones) '
p6355
sg16
Vwhat-grinds-my-gears
p6356
sg18
(lp6357
g6347
ag6348
ag6349
ag6350
ag6351
ag6352
ag6353
aS'the'
p6358
aS'fact'
p6359
aS'that'
p6360
aS'there'
p6361
aS'are'
p6362
aS'people'
p6363
aS'who'
p6364
aS'think'
p6365
aS'the'
p6366
aS'government'
p6367
aS'is'
p6368
aS'here'
p6369
aS'to'
p6370
aS'help'
p6371
aS'us'
p6372
aS'when'
p6373
aS'time'
p6374
aS'and'
p6375
aS'time'
p6376
aS'again'
p6377
aS'they'
p6378
aS'just'
p6379
aS'fuck'
p6380
aS'us'
p6381
aS'over'
p6382
aS'and'
p6383
aS'invade'
p6384
aS'our'
p6385
aS'privacy'
p6386
ag405
aS'NSA'
p6387
aS'and'
p6388
aS'drones'
p6389
ag407
asg24
(lp6390
g6358
ag6359
ag6360
ag6361
ag6362
ag6363
ag6364
ag6365
ag6366
ag6367
ag6368
ag6369
ag6370
ag6371
ag6372
ag6373
ag6374
ag6375
ag6376
ag6377
ag6378
ag6379
ag6380
ag6381
ag6382
ag6383
ag6384
ag6385
ag6386
ag405
ag6387
ag6388
ag6389
ag407
asba(iMeme
Meme
p6391
(dp6392
g3
(lp6393
S'You'
p6394
aS'Know'
p6395
aS'What'
p6396
aS'Grinds'
p6397
aS'My'
p6398
aS'Gears'
p6399
ag36
asg12
S'You Know What Grinds My Gears? '
p6400
sg14
S' Memes that are not at all funny! '
p6401
sg16
Vwhat-grinds-my-gears
p6402
sg18
(lp6403
g6394
ag6395
ag6396
ag6397
ag6398
ag6399
ag36
aS'Memes'
p6404
aS'that'
p6405
aS'are'
p6406
aS'not'
p6407
aS'at'
p6408
aS'all'
p6409
aS'funny'
p6410
ag23
asg24
(lp6411
g6404
ag6405
ag6406
ag6407
ag6408
ag6409
ag6410
ag23
asba(iMeme
Meme
p6412
(dp6413
g3
(lp6414
S'you'
p6415
aS'know'
p6416
aS'what'
p6417
aS'realy'
p6418
aS'grinds'
p6419
aS'my'
p6420
aS'gears'
p6421
asg12
S'you know what realy grinds my gears '
p6422
sg14
S' is that the mexicans in the apartment next to me have to play there trumpet'
p6423
sg16
Vwhat-grinds-my-gears
p6424
sg18
(lp6425
g6415
ag6416
ag6417
ag6418
ag6419
ag6420
ag6421
aS'is'
p6426
aS'that'
p6427
aS'the'
p6428
aS'mexicans'
p6429
aS'in'
p6430
aS'the'
p6431
aS'apartment'
p6432
aS'next'
p6433
aS'to'
p6434
aS'me'
p6435
aS'have'
p6436
aS'to'
p6437
aS'play'
p6438
aS'there'
p6439
aS'trumpet'
p6440
asg24
(lp6441
g6426
ag6427
ag6428
ag6429
ag6430
ag6431
ag6432
ag6433
ag6434
ag6435
ag6436
ag6437
ag6438
ag6439
ag6440
asba(iMeme
Meme
p6442
(dp6443
g3
(lp6444
S'YOu'
p6445
aS'know'
p6446
aS'what'
p6447
aS'really'
p6448
aS'grinds'
p6449
aS'my'
p6450
aS'gears'
p6451
asg12
S'YOu know what really grinds my gears '
p6452
sg14
S' When you thank somebody and they reply "yep" '
p6453
sg16
Vwhat-grinds-my-gears
p6454
sg18
(lp6455
g6445
ag6446
ag6447
ag6448
ag6449
ag6450
ag6451
aS'When'
p6456
aS'you'
p6457
aS'thank'
p6458
aS'somebody'
p6459
aS'and'
p6460
aS'they'
p6461
aS'reply'
p6462
aS'``'
p6463
aS'yep'
p6464
aS"''"
p6465
asg24
(lp6466
g6456
ag6457
ag6458
ag6459
ag6460
ag6461
ag6462
ag6463
ag6464
ag6465
asba(iMeme
Meme
p6467
(dp6468
g3
(lp6469
S'you'
p6470
aS'know'
p6471
aS'what'
p6472
aS'really'
p6473
aS'grinds'
p6474
aS'my'
p6475
aS'gears'
p6476
asg12
S'you know what really grinds my gears '
p6477
sg14
S' people that drive under the speed limit in the passing lane '
p6478
sg16
Vwhat-grinds-my-gears
p6479
sg18
(lp6480
g6470
ag6471
ag6472
ag6473
ag6474
ag6475
ag6476
aS'people'
p6481
aS'that'
p6482
aS'drive'
p6483
aS'under'
p6484
aS'the'
p6485
aS'speed'
p6486
aS'limit'
p6487
aS'in'
p6488
aS'the'
p6489
aS'passing'
p6490
aS'lane'
p6491
asg24
(lp6492
g6481
ag6482
ag6483
ag6484
ag6485
ag6486
ag6487
ag6488
ag6489
ag6490
ag6491
asba(iMeme
Meme
p6493
(dp6494
g3
(lp6495
S'You'
p6496
aS'wan'
p6497
aS'na'
p6498
aS'know'
p6499
aS'what'
p6500
aS'really'
p6501
aS'grinds'
p6502
aS'my'
p6503
aS'gears'
p6504
ag36
asg12
S'You wanna know what really grinds my gears? '
p6505
sg14
S" jason reynolds that's who... fucking retard "
p6506
sg16
Vwhat-grinds-my-gears
p6507
sg18
(lp6508
g6496
ag6497
ag6498
ag6499
ag6500
ag6501
ag6502
ag6503
ag6504
ag36
aS'jason'
p6509
aS'reynolds'
p6510
aS'that'
p6511
aS"'s"
p6512
aS'who'
p6513
aS'...'
p6514
aS'fucking'
p6515
aS'retard'
p6516
asg24
(lp6517
g6509
ag6510
ag6511
ag6512
ag6513
ag6514
ag6515
ag6516
asba(iMeme
Meme
p6518
(dp6519
g3
(lp6520
S'you'
p6521
aS'know'
p6522
aS'what'
p6523
aS'really'
p6524
aS'grinds'
p6525
aS'my'
p6526
aS'gears'
p6527
ag36
asg12
S'you know what really grinds my gears? '
p6528
sg14
S' people who push the crosswalk button, and then walk without waiting for the signal '
p6529
sg16
Vwhat-grinds-my-gears
p6530
sg18
(lp6531
g6521
ag6522
ag6523
ag6524
ag6525
ag6526
ag6527
ag36
aS'people'
p6532
aS'who'
p6533
aS'push'
p6534
aS'the'
p6535
aS'crosswalk'
p6536
aS'button'
p6537
ag71
aS'and'
p6538
aS'then'
p6539
aS'walk'
p6540
aS'without'
p6541
aS'waiting'
p6542
aS'for'
p6543
aS'the'
p6544
aS'signal'
p6545
asg24
(lp6546
g6532
ag6533
ag6534
ag6535
ag6536
ag6537
ag71
ag6538
ag6539
ag6540
ag6541
ag6542
ag6543
ag6544
ag6545
asba(iMeme
Meme
p6547
(dp6548
g3
(lp6549
S'What'
p6550
aS'really'
p6551
aS'turns'
p6552
aS'my'
p6553
aS'gears'
p6554
asg12
S'What really turns my gears '
p6555
sg14
S" when people don't off their turn signal after changing lanes "
p6556
sg16
Vwhat-grinds-my-gears
p6557
sg18
(lp6558
g6550
ag6551
ag6552
ag6553
ag6554
aS'when'
p6559
aS'people'
p6560
aS'do'
p6561
aS"n't"
p6562
aS'off'
p6563
aS'their'
p6564
aS'turn'
p6565
aS'signal'
p6566
aS'after'
p6567
aS'changing'
p6568
aS'lanes'
p6569
asg24
(lp6570
g6559
ag6560
ag6561
ag6562
ag6563
ag6564
ag6565
ag6566
ag6567
ag6568
ag6569
asba(iMeme
Meme
p6571
(dp6572
g3
(lp6573
S'You'
p6574
aS'know'
p6575
aS'what'
p6576
aS'really'
p6577
aS'grinds'
p6578
aS'my'
p6579
aS'gears'
p6580
asg12
S'You know what really grinds my gears '
p6581
sg14
S' When people pay 0,57 cents with 50 euro '
p6582
sg16
Vwhat-grinds-my-gears
p6583
sg18
(lp6584
g6574
ag6575
ag6576
ag6577
ag6578
ag6579
ag6580
aS'When'
p6585
aS'people'
p6586
aS'pay'
p6587
aS'0,57'
p6588
aS'cents'
p6589
aS'with'
p6590
aS'50'
p6591
aS'euro'
p6592
asg24
(lp6593
g6585
ag6586
ag6587
ag6588
ag6589
ag6590
ag6591
ag6592
asba(iMeme
Meme
p6594
(dp6595
g3
(lp6596
S'You'
p6597
aS'know'
p6598
aS'what'
p6599
aS'really'
p6600
aS'grinds'
p6601
aS'my'
p6602
aS'gears'
p6603
ag36
asg12
S'You know what really grinds my gears? '
p6604
sg14
S' When water runs down your arm and into your sleeve while brushing your teeth '
p6605
sg16
Vwhat-grinds-my-gears
p6606
sg18
(lp6607
g6597
ag6598
ag6599
ag6600
ag6601
ag6602
ag6603
ag36
aS'When'
p6608
aS'water'
p6609
aS'runs'
p6610
aS'down'
p6611
aS'your'
p6612
aS'arm'
p6613
aS'and'
p6614
aS'into'
p6615
aS'your'
p6616
aS'sleeve'
p6617
aS'while'
p6618
aS'brushing'
p6619
aS'your'
p6620
aS'teeth'
p6621
asg24
(lp6622
g6608
ag6609
ag6610
ag6611
ag6612
ag6613
ag6614
ag6615
ag6616
ag6617
ag6618
ag6619
ag6620
ag6621
asba(iMeme
Meme
p6623
(dp6624
g3
(lp6625
S'you'
p6626
aS'know'
p6627
aS'what'
p6628
aS'really'
p6629
aS'grinds'
p6630
aS'my'
p6631
aS'gears'
p6632
asg12
S'you know what really grinds my gears '
p6633
sg14
S' when your other admin wont post shit! '
p6634
sg16
Vwhat-grinds-my-gears
p6635
sg18
(lp6636
g6626
ag6627
ag6628
ag6629
ag6630
ag6631
ag6632
aS'when'
p6637
aS'your'
p6638
aS'other'
p6639
aS'admin'
p6640
aS'wont'
p6641
aS'post'
p6642
aS'shit'
p6643
ag23
asg24
(lp6644
g6637
ag6638
ag6639
ag6640
ag6641
ag6642
ag6643
ag23
asba(iMeme
Meme
p6645
(dp6646
g3
(lp6647
S'You'
p6648
aS'know'
p6649
aS'what'
p6650
aS'really'
p6651
aS'grinds'
p6652
aS'my'
p6653
aS'gears'
p6654
ag36
asg12
S'You know what really grinds my gears? '
p6655
sg14
S" Leaving things out due to time or budget constraints while including things that didn't happen "
p6656
sg16
Vwhat-grinds-my-gears
p6657
sg18
(lp6658
g6648
ag6649
ag6650
ag6651
ag6652
ag6653
ag6654
ag36
aS'Leaving'
p6659
aS'things'
p6660
aS'out'
p6661
aS'due'
p6662
aS'to'
p6663
aS'time'
p6664
aS'or'
p6665
aS'budget'
p6666
aS'constraints'
p6667
aS'while'
p6668
aS'including'
p6669
aS'things'
p6670
aS'that'
p6671
aS'did'
p6672
aS"n't"
p6673
aS'happen'
p6674
asg24
(lp6675
g6659
ag6660
ag6661
ag6662
ag6663
ag6664
ag6665
ag6666
ag6667
ag6668
ag6669
ag6670
ag6671
ag6672
ag6673
ag6674
asba(iMeme
Meme
p6676
(dp6677
g3
(lp6678
S'you'
p6679
aS'wan'
p6680
aS'na'
p6681
aS'know'
p6682
aS'what'
p6683
aS'really'
p6684
aS'grinds'
p6685
aS'my'
p6686
aS'gears'
p6687
ag36
asg12
S'you wanna know what really grinds my gears? '
p6688
sg14
S" there's no mod to ban you faggot "
p6689
sg16
Vwhat-grinds-my-gears
p6690
sg18
(lp6691
g6679
ag6680
ag6681
ag6682
ag6683
ag6684
ag6685
ag6686
ag6687
ag36
aS'there'
p6692
aS"'s"
p6693
aS'no'
p6694
aS'mod'
p6695
aS'to'
p6696
aS'ban'
p6697
aS'you'
p6698
aS'faggot'
p6699
asg24
(lp6700
g6692
ag6693
ag6694
ag6695
ag6696
ag6697
ag6698
ag6699
asba(iMeme
Meme
p6701
(dp6702
g3
(lp6703
S'You'
p6704
aS'know'
p6705
aS'what'
p6706
aS'Grinds'
p6707
aS'My'
p6708
aS'Gears'
p6709
ag36
asg12
S'You know what Grinds My Gears? '
p6710
sg14
S' When somebody snipes me as soon as I get the Binary Rifle! '
p6711
sg16
Vwhat-grinds-my-gears
p6712
sg18
(lp6713
g6704
ag6705
ag6706
ag6707
ag6708
ag6709
ag36
aS'When'
p6714
aS'somebody'
p6715
aS'snipes'
p6716
aS'me'
p6717
aS'as'
p6718
aS'soon'
p6719
aS'as'
p6720
ag119
aS'get'
p6721
aS'the'
p6722
aS'Binary'
p6723
aS'Rifle'
p6724
ag23
asg24
(lp6725
g6714
ag6715
ag6716
ag6717
ag6718
ag6719
ag6720
ag119
ag6721
ag6722
ag6723
ag6724
ag23
asba(iMeme
Meme
p6726
(dp6727
g3
(lp6728
S'You'
p6729
aS'know'
p6730
aS'what'
p6731
aS'really'
p6732
aS'grinds'
p6733
aS'my'
p6734
aS'gears'
p6735
asg12
S'You know what really grinds my gears '
p6736
sg14
S' When Jessica tells me I have a surprise but I never get it '
p6737
sg16
Vwhat-grinds-my-gears
p6738
sg18
(lp6739
g6729
ag6730
ag6731
ag6732
ag6733
ag6734
ag6735
aS'When'
p6740
aS'Jessica'
p6741
aS'tells'
p6742
aS'me'
p6743
ag119
aS'have'
p6744
ag10
aS'surprise'
p6745
aS'but'
p6746
ag119
aS'never'
p6747
aS'get'
p6748
aS'it'
p6749
asg24
(lp6750
g6740
ag6741
ag6742
ag6743
ag119
ag6744
ag10
ag6745
ag6746
ag119
ag6747
ag6748
ag6749
asba(iMeme
Meme
p6751
(dp6752
g3
(lp6753
S'you'
p6754
aS'know'
p6755
aS'what'
p6756
aS'really'
p6757
aS'grinds'
p6758
aS'my'
p6759
aS'gears'
p6760
ag36
asg12
S'you know what really grinds my gears? '
p6761
sg14
S' when normal pokemon get hit by ghost types on the anime '
p6762
sg16
Vwhat-grinds-my-gears
p6763
sg18
(lp6764
g6754
ag6755
ag6756
ag6757
ag6758
ag6759
ag6760
ag36
aS'when'
p6765
aS'normal'
p6766
aS'pokemon'
p6767
aS'get'
p6768
aS'hit'
p6769
aS'by'
p6770
aS'ghost'
p6771
aS'types'
p6772
aS'on'
p6773
aS'the'
p6774
aS'anime'
p6775
asg24
(lp6776
g6765
ag6766
ag6767
ag6768
ag6769
ag6770
ag6771
ag6772
ag6773
ag6774
ag6775
asba(iMeme
Meme
p6777
(dp6778
g3
(lp6779
g119
aS"'m"
p6780
ag10
aS'Fatass'
p6781
asg12
S"I'm a Fatass "
p6782
sg14
S' On tv  bitch '
p6783
sg16
Vwhat-grinds-my-gears
p6784
sg18
(lp6785
g119
ag6780
ag10
ag6781
aS'On'
p6786
aS'tv'
p6787
aS'bitch'
p6788
asg24
(lp6789
g6786
ag6787
ag6788
asba(iMeme
Meme
p6790
(dp6791
g3
(lp6792
S'You'
p6793
aS'know'
p6794
aS'what'
p6795
aS'really'
p6796
aS'GrinDs'
p6797
aS'my'
p6798
aS'gears'
p6799
ag36
asg12
S'You know what really GrinDs my gears? '
p6800
sg14
S' Too much meaT sauce and too littlE spagHetti '
p6801
sg16
Vwhat-grinds-my-gears
p6802
sg18
(lp6803
g6793
ag6794
ag6795
ag6796
ag6797
ag6798
ag6799
ag36
aS'Too'
p6804
aS'much'
p6805
aS'meaT'
p6806
aS'sauce'
p6807
aS'and'
p6808
aS'too'
p6809
aS'littlE'
p6810
aS'spagHetti'
p6811
asg24
(lp6812
g6804
ag6805
ag6806
ag6807
ag6808
ag6809
ag6810
ag6811
asba(iMeme
Meme
p6813
(dp6814
g3
(lp6815
S'You'
p6816
aS'know'
p6817
aS'what'
p6818
aS'grinds'
p6819
aS'my'
p6820
aS'gears'
p6821
ag36
asg12
S'You know what grinds my gears? '
p6822
sg14
S' People driving below the speed limit in the passing lane '
p6823
sg16
Vwhat-grinds-my-gears
p6824
sg18
(lp6825
g6816
ag6817
ag6818
ag6819
ag6820
ag6821
ag36
aS'People'
p6826
aS'driving'
p6827
aS'below'
p6828
aS'the'
p6829
aS'speed'
p6830
aS'limit'
p6831
aS'in'
p6832
aS'the'
p6833
aS'passing'
p6834
aS'lane'
p6835
asg24
(lp6836
g6826
ag6827
ag6828
ag6829
ag6830
ag6831
ag6832
ag6833
ag6834
ag6835
asba(iMeme
Meme
p6837
(dp6838
g3
(lp6839
S'you'
p6840
aS'know'
p6841
aS'what'
p6842
aS'really'
p6843
aS'grinds'
p6844
aS'my'
p6845
aS'gear'
p6846
asg12
S'you know what really grinds my gear '
p6847
sg14
S' when someone call u a kid and your older one '
p6848
sg16
Vwhat-grinds-my-gears
p6849
sg18
(lp6850
g6840
ag6841
ag6842
ag6843
ag6844
ag6845
ag6846
aS'when'
p6851
aS'someone'
p6852
aS'call'
p6853
aS'u'
p6854
ag10
aS'kid'
p6855
aS'and'
p6856
aS'your'
p6857
aS'older'
p6858
aS'one'
p6859
asg24
(lp6860
g6851
ag6852
ag6853
ag6854
ag10
ag6855
ag6856
ag6857
ag6858
ag6859
asba(iMeme
Meme
p6861
(dp6862
g3
(lp6863
S'Breaking'
p6864
aS'news'
p6865
asg12
S'Breaking news '
p6866
sg14
S" Spongebob think he's funnier than me.lololol "
p6867
sg16
Vwhat-grinds-my-gears
p6868
sg18
(lp6869
g6864
ag6865
aS'Spongebob'
p6870
aS'think'
p6871
aS'he'
p6872
aS"'s"
p6873
aS'funnier'
p6874
aS'than'
p6875
aS'me.lololol'
p6876
asg24
(lp6877
g6870
ag6871
ag6872
ag6873
ag6874
ag6875
ag6876
asba(iMeme
Meme
p6878
(dp6879
g3
(lp6880
S'Do'
p6881
aS'you'
p6882
aS'know'
p6883
aS'what'
p6884
aS'really'
p6885
aS'grinds'
p6886
aS'my'
p6887
aS'gears'
p6888
ag36
asg12
S'Do you know what really grinds my gears? '
p6889
sg14
S' you, gumball99swell '
p6890
sg16
Vwhat-grinds-my-gears
p6891
sg18
(lp6892
g6881
ag6882
ag6883
ag6884
ag6885
ag6886
ag6887
ag6888
ag36
aS'you'
p6893
ag71
aS'gumball99swell'
p6894
asg24
(lp6895
g6893
ag71
ag6894
asba(iMeme
Meme
p6896
(dp6897
g3
(lp6898
S'You'
p6899
aS'know'
p6900
aS'what'
p6901
aS'really'
p6902
aS'grins'
p6903
aS'my'
p6904
aS'gears'
p6905
asg12
S'You know what really grins my gears '
p6906
sg14
S" how much time we spend talking about lundi's love life "
p6907
sg16
Vwhat-grinds-my-gears
p6908
sg18
(lp6909
g6899
ag6900
ag6901
ag6902
ag6903
ag6904
ag6905
aS'how'
p6910
aS'much'
p6911
aS'time'
p6912
aS'we'
p6913
aS'spend'
p6914
aS'talking'
p6915
aS'about'
p6916
aS'lundi'
p6917
aS"'s"
p6918
aS'love'
p6919
aS'life'
p6920
asg24
(lp6921
g6910
ag6911
ag6912
ag6913
ag6914
ag6915
ag6916
ag6917
ag6918
ag6919
ag6920
asba(iMeme
Meme
p6922
(dp6923
g3
(lp6924
S'You'
p6925
aS'know'
p6926
aS'what'
p6927
aS'Grinds'
p6928
aS'my'
p6929
aS'Gears'
p6930
asg12
S'You know what Grinds my Gears '
p6931
sg14
S' Playing a commercial for the show I am currently watching '
p6932
sg16
Vwhat-grinds-my-gears
p6933
sg18
(lp6934
g6925
ag6926
ag6927
ag6928
ag6929
ag6930
aS'Playing'
p6935
ag10
aS'commercial'
p6936
aS'for'
p6937
aS'the'
p6938
aS'show'
p6939
ag119
aS'am'
p6940
aS'currently'
p6941
aS'watching'
p6942
asg24
(lp6943
g6935
ag10
ag6936
ag6937
ag6938
ag6939
ag119
ag6940
ag6941
ag6942
asba(iMeme
Meme
p6944
(dp6945
g3
(lp6946
S'MADEA'
p6947
ag23
ag23
ag23
ag23
ag119
aS'swear'
p6948
aS'if'
p6949
aS'you'
p6950
aS'say'
p6951
aS'``'
p6952
aS'heller'
p6953
aS"''"
p6954
asg12
S'MADEA!!!! I swear if you say "heller" '
p6955
sg14
S' one more time '
p6956
sg16
Vwhat-grinds-my-gears
p6957
sg18
(lp6958
g6947
ag23
ag23
ag23
ag23
ag119
ag6948
ag6949
ag6950
ag6951
ag6952
ag6953
ag6954
aS'one'
p6959
aS'more'
p6960
aS'time'
p6961
asg24
(lp6962
g6959
ag6960
ag6961
asba(iMeme
Meme
p6963
(dp6964
g3
(lp6965
S'You'
p6966
aS'know'
p6967
aS'what'
p6968
aS'really'
p6969
aS'grinds'
p6970
aS'my'
p6971
aS'gears'
p6972
ag36
asg12
S'You know what really grinds my gears? '
p6973
sg14
S' When I forget to turn off my work alarm on a holiday '
p6974
sg16
Vwhat-grinds-my-gears
p6975
sg18
(lp6976
g6966
ag6967
ag6968
ag6969
ag6970
ag6971
ag6972
ag36
aS'When'
p6977
ag119
aS'forget'
p6978
aS'to'
p6979
aS'turn'
p6980
aS'off'
p6981
aS'my'
p6982
aS'work'
p6983
aS'alarm'
p6984
aS'on'
p6985
ag10
aS'holiday'
p6986
asg24
(lp6987
g6977
ag119
ag6978
ag6979
ag6980
ag6981
ag6982
ag6983
ag6984
ag6985
ag10
ag6986
asba(iMeme
Meme
p6988
(dp6989
g3
(lp6990
S'you'
p6991
aS'know'
p6992
aS'what'
p6993
aS'really'
p6994
aS'grinds'
p6995
aS'my'
p6996
aS'gears'
p6997
ag36
asg12
S'you know what really grinds my gears? '
p6998
sg14
S' that these new meme sites make me type the top text for this, picard, morpheus, boromir,  and walter '
p6999
sg16
Vwhat-grinds-my-gears
p7000
sg18
(lp7001
g6991
ag6992
ag6993
ag6994
ag6995
ag6996
ag6997
ag36
aS'that'
p7002
aS'these'
p7003
aS'new'
p7004
aS'meme'
p7005
aS'sites'
p7006
aS'make'
p7007
aS'me'
p7008
aS'type'
p7009
aS'the'
p7010
aS'top'
p7011
aS'text'
p7012
aS'for'
p7013
aS'this'
p7014
ag71
aS'picard'
p7015
ag71
aS'morpheus'
p7016
ag71
aS'boromir'
p7017
ag71
aS'and'
p7018
aS'walter'
p7019
asg24
(lp7020
g7002
ag7003
ag7004
ag7005
ag7006
ag7007
ag7008
ag7009
ag7010
ag7011
ag7012
ag7013
ag7014
ag71
ag7015
ag71
ag7016
ag71
ag7017
ag71
ag7018
ag7019
asba(iMeme
Meme
p7021
(dp7022
g3
(lp7023
S'josh'
p7024
aS'carter'
p7025
aS'has'
p7026
aS'got'
p7027
ag10
aS'apple'
p7028
aS'head'
p7029
asg12
S'josh carter has got a apple head '
p7030
sg14
S'  '
p7031
sg16
Vwhat-grinds-my-gears
p7032
sg18
(lp7033
g7024
ag7025
ag7026
ag7027
ag10
ag7028
ag7029
asg24
(lp7034
sba(iMeme
Meme
p7035
(dp7036
g3
(lp7037
S'You'
p7038
aS'know'
p7039
aS'what'
p7040
aS'grinds'
p7041
aS'my'
p7042
aS'gears'
p7043
asg12
S'You know what grinds my gears '
p7044
sg14
S" When i can't find my lotion "
p7045
sg16
Vwhat-grinds-my-gears
p7046
sg18
(lp7047
g7038
ag7039
ag7040
ag7041
ag7042
ag7043
aS'When'
p7048
ag93
aS'ca'
p7049
aS"n't"
p7050
aS'find'
p7051
aS'my'
p7052
aS'lotion'
p7053
asg24
(lp7054
g7048
ag93
ag7049
ag7050
ag7051
ag7052
ag7053
asba(iMeme
Meme
p7055
(dp7056
g3
(lp7057
S'you'
p7058
aS'know'
p7059
aS'what'
p7060
aS'really'
p7061
aS'grinds'
p7062
aS'my'
p7063
aS'gears'
p7064
asg12
S'you know what really grinds my gears '
p7065
sg14
S' Friction '
p7066
sg16
Vwhat-grinds-my-gears
p7067
sg18
(lp7068
g7058
ag7059
ag7060
ag7061
ag7062
ag7063
ag7064
aS'Friction'
p7069
asg24
(lp7070
g7069
asba(iMeme
Meme
p7071
(dp7072
g3
(lp7073
S'You'
p7074
aS'know'
p7075
aS'what'
p7076
aS'really'
p7077
aS'grinds'
p7078
aS'my'
p7079
aS'gears'
p7080
ag36
asg12
S'You know what really grinds my gears? '
p7081
sg14
S' sucking marks small penis '
p7082
sg16
Vwhat-grinds-my-gears
p7083
sg18
(lp7084
g7074
ag7075
ag7076
ag7077
ag7078
ag7079
ag7080
ag36
aS'sucking'
p7085
aS'marks'
p7086
aS'small'
p7087
aS'penis'
p7088
asg24
(lp7089
g7085
ag7086
ag7087
ag7088
asba(iMeme
Meme
p7090
(dp7091
g3
(lp7092
S'What'
p7093
aS'really'
p7094
aS'grinds'
p7095
aS'my'
p7096
aS'gears'
p7097
asg12
S'What really grinds my gears '
p7098
sg14
S" is when people are bad at making good le'memes "
p7099
sg16
Vwhat-grinds-my-gears
p7100
sg18
(lp7101
g7093
ag7094
ag7095
ag7096
ag7097
aS'is'
p7102
aS'when'
p7103
aS'people'
p7104
aS'are'
p7105
aS'bad'
p7106
aS'at'
p7107
aS'making'
p7108
aS'good'
p7109
aS"le'memes"
p7110
asg24
(lp7111
g7102
ag7103
ag7104
ag7105
ag7106
ag7107
ag7108
ag7109
ag7110
asba(iMeme
Meme
p7112
(dp7113
g3
(lp7114
S'what'
p7115
aS'really'
p7116
aS'grinds'
p7117
aS'my'
p7118
aS'gears'
p7119
asg12
S'what really grinds my gears '
p7120
sg14
S' is when people still like the xbox one '
p7121
sg16
Vwhat-grinds-my-gears
p7122
sg18
(lp7123
g7115
ag7116
ag7117
ag7118
ag7119
aS'is'
p7124
aS'when'
p7125
aS'people'
p7126
aS'still'
p7127
aS'like'
p7128
aS'the'
p7129
aS'xbox'
p7130
aS'one'
p7131
asg24
(lp7132
g7124
ag7125
ag7126
ag7127
ag7128
ag7129
ag7130
ag7131
asba(iMeme
Meme
p7133
(dp7134
g3
(lp7135
S'when'
p7136
aS'the'
p7137
ag23
ag23
ag23
asg12
S'when the!!! '
p7138
sg14
S' chicago bears play!!! '
p7139
sg16
Vwhat-grinds-my-gears
p7140
sg18
(lp7141
g7136
ag7137
ag23
ag23
ag23
aS'chicago'
p7142
aS'bears'
p7143
aS'play'
p7144
ag23
ag23
ag23
asg24
(lp7145
g7142
ag7143
ag7144
ag23
ag23
ag23
asba(iMeme
Meme
p7146
(dp7147
g3
(lp7148
sg12
S' '
p7149
sg14
S' When companies use slogans with periods after. every. word. '
p7150
sg16
Vwhat-grinds-my-gears
p7151
sg18
(lp7152
S'When'
p7153
aS'companies'
p7154
aS'use'
p7155
aS'slogans'
p7156
aS'with'
p7157
aS'periods'
p7158
aS'after'
p7159
ag73
aS'every'
p7160
ag73
aS'word'
p7161
ag73
asg24
(lp7162
g7153
ag7154
ag7155
ag7156
ag7157
ag7158
ag7159
ag73
ag7160
ag73
ag7161
ag73
asba(iMeme
Meme
p7163
(dp7164
g3
(lp7165
S'You'
p7166
aS'know'
p7167
aS'what'
p7168
aS'really'
p7169
aS'grinds'
p7170
aS'my'
p7171
aS'gears'
p7172
asg12
S'You know what really grinds my gears '
p7173
sg14
S' wet socks '
p7174
sg16
Vwhat-grinds-my-gears
p7175
sg18
(lp7176
g7166
ag7167
ag7168
ag7169
ag7170
ag7171
ag7172
aS'wet'
p7177
aS'socks'
p7178
asg24
(lp7179
g7177
ag7178
asba(iMeme
Meme
p7180
(dp7181
g3
(lp7182
S'you'
p7183
aS'know'
p7184
aS'what'
p7185
aS'really'
p7186
aS'grinds'
p7187
aS'my'
p7188
aS'gears'
p7189
ag36
asg12
S'you know what really grinds my gears? '
p7190
sg14
S' when couples make'
p7191
sg16
Vwhat-grinds-my-gears
p7192
sg18
(lp7193
g7183
ag7184
ag7185
ag7186
ag7187
ag7188
ag7189
ag36
aS'when'
p7194
aS'couples'
p7195
aS'make'
p7196
asg24
(lp7197
g7194
ag7195
ag7196
asba(iMeme
Meme
p7198
(dp7199
g3
(lp7200
S'Do'
p7201
aS'you'
p7202
aS'know'
p7203
aS'what'
p7204
aS'really'
p7205
aS'Grinds'
p7206
aS'My'
p7207
aS'Gears'
p7208
ag36
asg12
S'Do you know what really Grinds My Gears? '
p7209
sg14
S' When AWTOK kidnaps innocent Supernaturals '
p7210
sg16
Vwhat-grinds-my-gears
p7211
sg18
(lp7212
g7201
ag7202
ag7203
ag7204
ag7205
ag7206
ag7207
ag7208
ag36
aS'When'
p7213
aS'AWTOK'
p7214
aS'kidnaps'
p7215
aS'innocent'
p7216
aS'Supernaturals'
p7217
asg24
(lp7218
g7213
ag7214
ag7215
ag7216
ag7217
asba(iMeme
Meme
p7219
(dp7220
g3
(lp7221
S'Want'
p7222
aS'to'
p7223
aS'know'
p7224
aS'what'
p7225
aS'really'
p7226
aS'grinds'
p7227
aS'my'
p7228
aS'gears'
p7229
asg12
S'Want to know what really grinds my gears '
p7230
sg14
S" People posting patrick stump's wife of instagram "
p7231
sg16
Vwhat-grinds-my-gears
p7232
sg18
(lp7233
g7222
ag7223
ag7224
ag7225
ag7226
ag7227
ag7228
ag7229
aS'People'
p7234
aS'posting'
p7235
aS'patrick'
p7236
aS'stump'
p7237
aS"'s"
p7238
aS'wife'
p7239
aS'of'
p7240
aS'instagram'
p7241
asg24
(lp7242
g7234
ag7235
ag7236
ag7237
ag7238
ag7239
ag7240
ag7241
asba(iMeme
Meme
p7243
(dp7244
g3
(lp7245
S'You'
p7246
aS'know'
p7247
aS'what'
p7248
aS'really'
p7249
aS'grinds'
p7250
aS'my'
p7251
aS'gears'
p7252
ag36
asg12
S'You know what really grinds my gears? '
p7253
sg14
S' That no one bothered to put a radius on those keyways. That is going to be a severe stress concentrator. '
p7254
sg16
Vwhat-grinds-my-gears
p7255
sg18
(lp7256
g7246
ag7247
ag7248
ag7249
ag7250
ag7251
ag7252
ag36
aS'That'
p7257
aS'no'
p7258
aS'one'
p7259
aS'bothered'
p7260
aS'to'
p7261
aS'put'
p7262
ag10
aS'radius'
p7263
aS'on'
p7264
aS'those'
p7265
aS'keyways'
p7266
ag73
aS'That'
p7267
aS'is'
p7268
aS'going'
p7269
aS'to'
p7270
aS'be'
p7271
ag10
aS'severe'
p7272
aS'stress'
p7273
aS'concentrator'
p7274
ag73
asg24
(lp7275
g7257
ag7258
ag7259
ag7260
ag7261
ag7262
ag10
ag7263
ag7264
ag7265
ag7266
ag73
ag7267
ag7268
ag7269
ag7270
ag7271
ag10
ag7272
ag7273
ag7274
ag73
asba(iMeme
Meme
p7276
(dp7277
g3
(lp7278
S'You'
p7279
aS'know'
p7280
aS'what'
p7281
aS'really'
p7282
aS'grinds'
p7283
aS'my'
p7284
aS'rear'
p7285
ag36
asg12
S'You know what really grinds my rear? '
p7286
sg14
S' When people think industrial grade sand paper passes as toilet paper. '
p7287
sg16
Vwhat-grinds-my-gears
p7288
sg18
(lp7289
g7279
ag7280
ag7281
ag7282
ag7283
ag7284
ag7285
ag36
aS'When'
p7290
aS'people'
p7291
aS'think'
p7292
aS'industrial'
p7293
aS'grade'
p7294
aS'sand'
p7295
aS'paper'
p7296
aS'passes'
p7297
aS'as'
p7298
aS'toilet'
p7299
aS'paper'
p7300
ag73
asg24
(lp7301
g7290
ag7291
ag7292
ag7293
ag7294
ag7295
ag7296
ag7297
ag7298
ag7299
ag7300
ag73
asba(iMeme
Meme
p7302
(dp7303
g3
(lp7304
S'You'
p7305
aS'know'
p7306
aS'what'
p7307
aS'really'
p7308
aS'grinds'
p7309
aS'my'
p7310
aS'gears'
p7311
ag36
asg12
S'You know what really grinds my gears? '
p7312
sg14
S' Trying to shift without pressing in the clutch '
p7313
sg16
Vwhat-grinds-my-gears
p7314
sg18
(lp7315
g7305
ag7306
ag7307
ag7308
ag7309
ag7310
ag7311
ag36
aS'Trying'
p7316
aS'to'
p7317
aS'shift'
p7318
aS'without'
p7319
aS'pressing'
p7320
aS'in'
p7321
aS'the'
p7322
aS'clutch'
p7323
asg24
(lp7324
g7316
ag7317
ag7318
ag7319
ag7320
ag7321
ag7322
ag7323
asba(iMeme
Meme
p7325
(dp7326
g3
(lp7327
S'if'
p7328
aS'life'
p7329
aS'gives'
p7330
aS'you'
p7331
aS'lemans'
p7332
asg12
S'if life gives you lemans '
p7333
sg14
S" kill you'reself "
p7334
sg16
Vwhat-grinds-my-gears
p7335
sg18
(lp7336
g7328
ag7329
ag7330
ag7331
ag7332
aS'kill'
p7337
aS"you'reself"
p7338
asg24
(lp7339
g7337
ag7338
asba(iMeme
Meme
p7340
(dp7341
g3
(lp7342
S'You'
p7343
aS'know'
p7344
aS'what'
p7345
aS'grinds'
p7346
aS'my'
p7347
aS'gears'
p7348
ag36
asg12
S'You know what grinds my gears? '
p7349
sg14
S' How EVERYone seems to forget NSFW/NSFL tags lately '
p7350
sg16
Vwhat-grinds-my-gears
p7351
sg18
(lp7352
g7343
ag7344
ag7345
ag7346
ag7347
ag7348
ag36
aS'How'
p7353
aS'EVERYone'
p7354
aS'seems'
p7355
aS'to'
p7356
aS'forget'
p7357
aS'NSFW/NSFL'
p7358
aS'tags'
p7359
aS'lately'
p7360
asg24
(lp7361
g7353
ag7354
ag7355
ag7356
ag7357
ag7358
ag7359
ag7360
asba(iMeme
Meme
p7362
(dp7363
g3
(lp7364
S'You'
p7365
aS'know'
p7366
aS'what'
p7367
aS'really'
p7368
aS'grinds'
p7369
aS'my'
p7370
aS'gears'
p7371
ag36
asg12
S'You know what really grinds my gears? '
p7372
sg14
S' When I don\'t know the answers to the "secret questions" of my online accounts '
p7373
sg16
Vwhat-grinds-my-gears
p7374
sg18
(lp7375
g7365
ag7366
ag7367
ag7368
ag7369
ag7370
ag7371
ag36
aS'When'
p7376
ag119
aS'do'
p7377
aS"n't"
p7378
aS'know'
p7379
aS'the'
p7380
aS'answers'
p7381
aS'to'
p7382
aS'the'
p7383
aS'``'
p7384
aS'secret'
p7385
aS'questions'
p7386
aS"''"
p7387
aS'of'
p7388
aS'my'
p7389
aS'online'
p7390
aS'accounts'
p7391
asg24
(lp7392
g7376
ag119
ag7377
ag7378
ag7379
ag7380
ag7381
ag7382
ag7383
ag7384
ag7385
ag7386
ag7387
ag7388
ag7389
ag7390
ag7391
asba(iMeme
Meme
p7393
(dp7394
g3
(lp7395
sg12
S' '
p7396
sg14
S' when vhave to send a ctext really fast and I cant spelll a fuckinh thinh right '
p7397
sg16
Vwhat-grinds-my-gears
p7398
sg18
(lp7399
S'when'
p7400
aS'vhave'
p7401
aS'to'
p7402
aS'send'
p7403
ag10
aS'ctext'
p7404
aS'really'
p7405
aS'fast'
p7406
aS'and'
p7407
ag119
aS'cant'
p7408
aS'spelll'
p7409
ag10
aS'fuckinh'
p7410
aS'thinh'
p7411
aS'right'
p7412
asg24
(lp7413
g7400
ag7401
ag7402
ag7403
ag10
ag7404
ag7405
ag7406
ag7407
ag119
ag7408
ag7409
ag10
ag7410
ag7411
ag7412
asba(iMeme
Meme
p7414
(dp7415
g3
(lp7416
S'you'
p7417
aS'know'
p7418
aS'what'
p7419
aS'really'
p7420
aS'grinds'
p7421
aS'my'
p7422
aS'gears'
p7423
ag36
asg12
S'you know what really grinds my gears? '
p7424
sg14
S" when a game on steam says its release date, it's actually american time "
p7425
sg16
Vwhat-grinds-my-gears
p7426
sg18
(lp7427
g7417
ag7418
ag7419
ag7420
ag7421
ag7422
ag7423
ag36
aS'when'
p7428
ag10
aS'game'
p7429
aS'on'
p7430
aS'steam'
p7431
aS'says'
p7432
aS'its'
p7433
aS'release'
p7434
aS'date'
p7435
ag71
aS'it'
p7436
aS"'s"
p7437
aS'actually'
p7438
aS'american'
p7439
aS'time'
p7440
asg24
(lp7441
g7428
ag10
ag7429
ag7430
ag7431
ag7432
ag7433
ag7434
ag7435
ag71
ag7436
ag7437
ag7438
ag7439
ag7440
asba.