(lp0
(iMeme
Meme
p1
(dp2
S'top_text'
p3
(lp4
S'rich'
p5
aS'people'
p6
aS'should'
p7
aS'pay'
p8
asS'top_text_raw'
p9
S'rich people should pay'
p10
sS'bottom_text_raw'
p11
S' all the taxes'
p12
sS'meme_type'
p13
Vx-all-the-things
p14
sS'all_text'
p15
(lp16
g5
ag6
ag7
ag8
aS'all'
p17
aS'the'
p18
aS'taxes'
p19
asS'bottom_text'
p20
(lp21
g17
ag18
ag19
asba(iMeme
Meme
p22
(dp23
g3
(lp24
S'eat'
p25
asg9
S'eat'
p26
sg11
S' all the food'
p27
sg13
Vx-all-the-things
p28
sg15
(lp29
g25
aS'all'
p30
aS'the'
p31
aS'food'
p32
asg20
(lp33
g30
ag31
ag32
asba(iMeme
Meme
p34
(dp35
g3
(lp36
S'eat'
p37
asg9
S'eat'
p38
sg11
S' all the things!'
p39
sg13
Vx-all-the-things
p40
sg15
(lp41
g37
aS'all'
p42
aS'the'
p43
aS'things'
p44
aS'!'
p45
asg20
(lp46
g42
ag43
ag44
ag45
asba(iMeme
Meme
p47
(dp48
g3
(lp49
S'leave'
p50
asg9
S'leave'
p51
sg11
S' all the bad memories in 2011'
p52
sg13
Vx-all-the-things
p53
sg15
(lp54
g50
aS'all'
p55
aS'the'
p56
aS'bad'
p57
aS'memories'
p58
aS'in'
p59
aS'2011'
p60
asg20
(lp61
g55
ag56
ag57
ag58
ag59
ag60
asba(iMeme
Meme
p62
(dp63
g3
(lp64
S'best'
p65
aS'meme'
p66
aS'contest'
p67
aS'?'
p68
asg9
S'best meme contest?'
p69
sg11
S' vote for all the memes!'
p70
sg13
Vx-all-the-things
p71
sg15
(lp72
g65
ag66
ag67
ag68
aS'vote'
p73
aS'for'
p74
aS'all'
p75
aS'the'
p76
aS'memes'
p77
ag45
asg20
(lp78
g73
ag74
ag75
ag76
ag77
ag45
asba(iMeme
Meme
p79
(dp80
g3
(lp81
S'eat'
p82
aS'all'
p83
aS'the'
p84
asg9
S'eat all the'
p85
sg11
S' cake'
p86
sg13
Vx-all-the-things
p87
sg15
(lp88
g82
ag83
ag84
aS'cake'
p89
asg20
(lp90
g89
asba(iMeme
Meme
p91
(dp92
g3
(lp93
S'use'
p94
asg9
S'use'
p95
sg11
S' all the memes'
p96
sg13
Vx-all-the-things
p97
sg15
(lp98
g94
aS'all'
p99
aS'the'
p100
aS'memes'
p101
asg20
(lp102
g99
ag100
ag101
asba(iMeme
Meme
p103
(dp104
g3
(lp105
S'eat'
p106
asg9
S'eat'
p107
sg11
S' all the chocolate!'
p108
sg13
Vx-all-the-things
p109
sg15
(lp110
g106
aS'all'
p111
aS'the'
p112
aS'chocolate'
p113
ag45
asg20
(lp114
g111
ag112
ag113
ag45
asba(iMeme
Meme
p115
(dp116
g3
(lp117
S'fuck'
p118
asg9
S'fuck'
p119
sg11
S' all the things!'
p120
sg13
Vx-all-the-things
p121
sg15
(lp122
g118
aS'all'
p123
aS'the'
p124
aS'things'
p125
ag45
asg20
(lp126
g123
ag124
ag125
ag45
asba(iMeme
Meme
p127
(dp128
g3
(lp129
S'study'
p130
asg9
S'study'
p131
sg11
S' all the things!!!'
p132
sg13
Vx-all-the-things
p133
sg15
(lp134
g130
aS'all'
p135
aS'the'
p136
aS'things'
p137
ag45
ag45
ag45
asg20
(lp138
g135
ag136
ag137
ag45
ag45
ag45
asba(iMeme
Meme
p139
(dp140
g3
(lp141
S'skyrim'
p142
aS':'
p143
aS'player.modav'
p144
aS'carryweight'
p145
aS'999999'
p146
asg9
S'skyrim: player.modav carryweight 999999'
p147
sg11
S' pickup all the things'
p148
sg13
Vx-all-the-things
p149
sg15
(lp150
g142
ag143
ag144
ag145
ag146
aS'pickup'
p151
aS'all'
p152
aS'the'
p153
aS'things'
p154
asg20
(lp155
g151
ag152
ag153
ag154
asba(iMeme
Meme
p156
(dp157
g3
(lp158
S'like'
p159
asg9
S'like'
p160
sg11
S' all the things'
p161
sg13
Vx-all-the-things
p162
sg15
(lp163
g159
aS'all'
p164
aS'the'
p165
aS'things'
p166
asg20
(lp167
g164
ag165
ag166
asba(iMeme
Meme
p168
(dp169
g3
(lp170
S'download'
p171
asg9
S'download'
p172
sg11
S' all the things'
p173
sg13
Vx-all-the-things
p174
sg15
(lp175
g171
aS'all'
p176
aS'the'
p177
aS'things'
p178
asg20
(lp179
g176
ag177
ag178
asba(iMeme
Meme
p180
(dp181
g3
(lp182
S'bag'
p183
asg9
S'bag'
p184
sg11
S' all the prizes!'
p185
sg13
Vx-all-the-things
p186
sg15
(lp187
g183
aS'all'
p188
aS'the'
p189
aS'prizes'
p190
ag45
asg20
(lp191
g188
ag189
ag190
ag45
asba(iMeme
Meme
p192
(dp193
g3
(lp194
S'#'
p195
aS'occupy'
p196
asg9
S'#occupy'
p197
sg11
S' all of the things'
p198
sg13
Vx-all-the-things
p199
sg15
(lp200
g195
ag196
aS'all'
p201
aS'of'
p202
aS'the'
p203
aS'things'
p204
asg20
(lp205
g201
ag202
ag203
ag204
asba(iMeme
Meme
p206
(dp207
g3
(lp208
S'repost'
p209
asg9
S'repost'
p210
sg11
S' all the posts'
p211
sg13
Vx-all-the-things
p212
sg15
(lp213
g209
aS'all'
p214
aS'the'
p215
aS'posts'
p216
asg20
(lp217
g214
ag215
ag216
asba(iMeme
Meme
p218
(dp219
g3
(lp220
S'eat'
p221
aS'all'
p222
aS'the'
p223
asg9
S'eat all the'
p224
sg11
S' candy'
p225
sg13
Vx-all-the-things
p226
sg15
(lp227
g221
ag222
ag223
aS'candy'
p228
asg20
(lp229
g228
asba(iMeme
Meme
p230
(dp231
g3
(lp232
S'fix'
p233
asg9
S'fix'
p234
sg11
S' all the things'
p235
sg13
Vx-all-the-things
p236
sg15
(lp237
g233
aS'all'
p238
aS'the'
p239
aS'things'
p240
asg20
(lp241
g238
ag239
ag240
asba(iMeme
Meme
p242
(dp243
g3
(lp244
S'parents'
p245
aS'leave'
p246
aS'for'
p247
aS'a'
p248
aS'month'
p249
asg9
S'parents leave for a month'
p250
sg11
S' hotbox all the rooms!'
p251
sg13
Vx-all-the-things
p252
sg15
(lp253
g245
ag246
ag247
ag248
ag249
aS'hotbox'
p254
aS'all'
p255
aS'the'
p256
aS'rooms'
p257
ag45
asg20
(lp258
g254
ag255
ag256
ag257
ag45
asba(iMeme
Meme
p259
(dp260
g3
(lp261
S'like'
p262
asg9
S'like'
p263
sg11
S' all the comments'
p264
sg13
Vx-all-the-things
p265
sg15
(lp266
g262
aS'all'
p267
aS'the'
p268
aS'comments'
p269
asg20
(lp270
g267
ag268
ag269
asba(iMeme
Meme
p271
(dp272
g3
(lp273
S'do'
p274
asg9
S'do'
p275
sg11
S' all the drugs'
p276
sg13
Vx-all-the-things
p277
sg15
(lp278
g274
aS'all'
p279
aS'the'
p280
aS'drugs'
p281
asg20
(lp282
g279
ag280
ag281
asba(iMeme
Meme
p283
(dp284
g3
(lp285
S'drink'
p286
asg9
S'drink'
p287
sg11
S' all the beer!'
p288
sg13
Vx-all-the-things
p289
sg15
(lp290
g286
aS'all'
p291
aS'the'
p292
aS'beer'
p293
ag45
asg20
(lp294
g291
ag292
ag293
ag45
asba(iMeme
Meme
p295
(dp296
g3
(lp297
S'watch'
p298
asg9
S'watch'
p299
sg11
S' all the movies'
p300
sg13
Vx-all-the-things
p301
sg15
(lp302
g298
aS'all'
p303
aS'the'
p304
aS'movies'
p305
asg20
(lp306
g303
ag304
ag305
asba(iMeme
Meme
p307
(dp308
g3
(lp309
S'draw'
p310
asg9
S'draw'
p311
sg11
S' all the things!'
p312
sg13
Vx-all-the-things
p313
sg15
(lp314
g310
aS'all'
p315
aS'the'
p316
aS'things'
p317
ag45
asg20
(lp318
g315
ag316
ag317
ag45
asba(iMeme
Meme
p319
(dp320
g3
(lp321
S'party'
p322
aS'hard'
p323
asg9
S'party hard'
p324
sg11
S' drink all the things!'
p325
sg13
Vx-all-the-things
p326
sg15
(lp327
g322
ag323
aS'drink'
p328
aS'all'
p329
aS'the'
p330
aS'things'
p331
ag45
asg20
(lp332
g328
ag329
ag330
ag331
ag45
asba(iMeme
Meme
p333
(dp334
g3
(lp335
S'search'
p336
aS'all'
p337
aS'the'
p338
aS'hotel'
p339
aS'sites'
p340
asg9
S'search all the hotel sites'
p341
sg11
S' at room77.com'
p342
sg13
Vx-all-the-things
p343
sg15
(lp344
g336
ag337
ag338
ag339
ag340
aS'at'
p345
aS'room77.com'
p346
asg20
(lp347
g345
ag346
asba(iMeme
Meme
p348
(dp349
g3
(lp350
S'skip'
p351
asg9
S'skip'
p352
sg11
S' all the classes'
p353
sg13
Vx-all-the-things
p354
sg15
(lp355
g351
aS'all'
p356
aS'the'
p357
aS'classes'
p358
asg20
(lp359
g356
ag357
ag358
asba(iMeme
Meme
p360
(dp361
g3
(lp362
S'read'
p363
asg9
S'read'
p364
sg11
S' all the books'
p365
sg13
Vx-all-the-things
p366
sg15
(lp367
g363
aS'all'
p368
aS'the'
p369
aS'books'
p370
asg20
(lp371
g368
ag369
ag370
asba(iMeme
Meme
p372
(dp373
g3
(lp374
S'like'
p375
asg9
S'like'
p376
sg11
S' all the statuses'
p377
sg13
Vx-all-the-things
p378
sg15
(lp379
g375
aS'all'
p380
aS'the'
p381
aS'statuses'
p382
asg20
(lp383
g380
ag381
ag382
asba(iMeme
Meme
p384
(dp385
g3
(lp386
S'possible'
p387
aS'future'
p388
aS'internet'
p389
aS'censorship'
p390
asg9
S'possible future internet censorship'
p391
sg11
S' download all the things'
p392
sg13
Vx-all-the-things
p393
sg15
(lp394
g387
ag388
ag389
ag390
aS'download'
p395
aS'all'
p396
aS'the'
p397
aS'things'
p398
asg20
(lp399
g395
ag396
ag397
ag398
asba(iMeme
Meme
p400
(dp401
g3
(lp402
S'pass'
p403
asg9
S'pass'
p404
sg11
S' all the exams'
p405
sg13
Vx-all-the-things
p406
sg15
(lp407
g403
aS'all'
p408
aS'the'
p409
aS'exams'
p410
asg20
(lp411
g408
ag409
ag410
asba(iMeme
Meme
p412
(dp413
g3
(lp414
S'drink'
p415
asg9
S'drink'
p416
sg11
S' all the drinks'
p417
sg13
Vx-all-the-things
p418
sg15
(lp419
g415
aS'all'
p420
aS'the'
p421
aS'drinks'
p422
asg20
(lp423
g420
ag421
ag422
asba(iMeme
Meme
p424
(dp425
g3
(lp426
S'eat'
p427
asg9
S'eat'
p428
sg11
S' all the cookies'
p429
sg13
Vx-all-the-things
p430
sg15
(lp431
g427
aS'all'
p432
aS'the'
p433
aS'cookies'
p434
asg20
(lp435
g432
ag433
ag434
asba(iMeme
Meme
p436
(dp437
g3
(lp438
S'birthday'
p439
asg9
S'birthday'
p440
sg11
S' all the memes!'
p441
sg13
Vx-all-the-things
p442
sg15
(lp443
g439
aS'all'
p444
aS'the'
p445
aS'memes'
p446
ag45
asg20
(lp447
g444
ag445
ag446
ag45
asba.